gpasm-1.5.2 #0 (Sep 16 2019) build/default/pr   9-16-2019  13:05:29         PAGE  1


LOC    OBJECT CODE    LINE  SOURCE TEXT
  VALUE

                      00001 ;--------------------------------------------------------
                      00002 ; File Created by SDCC : free open source ANSI-C Compiler
                      00003 ; Version 3.9.3 #11377 (MINGW64)
                      00004 ;--------------------------------------------------------
                      00005 ; PIC16 port for the Microchip 16-bit core micros
                      00006 ;--------------------------------------------------------
                      00007         list    p=18f25k50
                      00008         radix   dec
                      00009 
                      00010 
                      00011 ;--------------------------------------------------------
                      00012 ; public variables in this module
                      00013 ;--------------------------------------------------------
  0000                00014         global  _calibrate
  0000                00015         global  _measure_freq
  0000                00016         global  _measure_capacitance
  0000                00017         global  _measure_inductance
                      00018 
                      00019 ;--------------------------------------------------------
                      00020 ; extern variables in this module
                      00021 ;--------------------------------------------------------
  0000                00022         extern  _SRCON1bits
  0000                00023         extern  _SRCON0bits
  0000                00024         extern  _CCPTMRSbits
  0000                00025         extern  _ANSELAbits
  0000                00026         extern  _ANSELBbits
  0000                00027         extern  _ANSELCbits
  0000                00028         extern  _UCONbits
  0000                00029         extern  _USTATbits
  0000                00030         extern  _UCFGbits
  0000                00031         extern  _UADDRbits
  0000                00032         extern  _UIEbits
  0000                00033         extern  _UIRbits
  0000                00034         extern  _UEIEbits
  0000                00035         extern  _UEIRbits
  0000                00036         extern  _UFRMLbits
  0000                00037         extern  _UFRMHbits
  0000                00038         extern  _UEP0bits
  0000                00039         extern  _UEP1bits
  0000                00040         extern  _UEP2bits
  0000                00041         extern  _UEP3bits
  0000                00042         extern  _UEP4bits
  0000                00043         extern  _UEP5bits
  0000                00044         extern  _UEP6bits
  0000                00045         extern  _UEP7bits
  0000                00046         extern  _UEP8bits
  0000                00047         extern  _UEP9bits
  0000                00048         extern  _UEP10bits
  0000                00049         extern  _UEP11bits
  0000                00050         extern  _UEP12bits
  0000                00051         extern  _UEP13bits
  0000                00052         extern  _UEP14bits
  0000                00053         extern  _UEP15bits
gpasm-1.5.2 #0 (Sep 16 2019) build/default/pr   9-16-2019  13:05:29         PAGE  2


LOC    OBJECT CODE    LINE  SOURCE TEXT
  VALUE

  0000                00054         extern  _SLRCONbits
  0000                00055         extern  _VREFCON2bits
  0000                00056         extern  _VREFCON1bits
  0000                00057         extern  _VREFCON0bits
  0000                00058         extern  _PMD0bits
  0000                00059         extern  _PMD1bits
  0000                00060         extern  _PORTAbits
  0000                00061         extern  _PORTBbits
  0000                00062         extern  _PORTCbits
  0000                00063         extern  _PORTEbits
  0000                00064         extern  _WPUBbits
  0000                00065         extern  _IOCBbits
  0000                00066         extern  _IOCCbits
  0000                00067         extern  _CTMUICONbits
  0000                00068         extern  _LATAbits
  0000                00069         extern  _LATBbits
  0000                00070         extern  _LATCbits
  0000                00071         extern  _CTMUCON1bits
  0000                00072         extern  _CTMUCONLbits
  0000                00073         extern  _CTMUCON0bits
  0000                00074         extern  _CTMUCONHbits
  0000                00075         extern  _DDRAbits
  0000                00076         extern  _TRISAbits
  0000                00077         extern  _DDRBbits
  0000                00078         extern  _TRISBbits
  0000                00079         extern  _DDRCbits
  0000                00080         extern  _TRISCbits
  0000                00081         extern  _CCP2CONbits
  0000                00082         extern  _ECCP2CONbits
  0000                00083         extern  _CM1CON0bits
  0000                00084         extern  _CM2CON0bits
  0000                00085         extern  _CM2CON1bits
  0000                00086         extern  _OSCTUNEbits
  0000                00087         extern  _HLVDCONbits
  0000                00088         extern  _PIE1bits
  0000                00089         extern  _PIR1bits
  0000                00090         extern  _IPR1bits
  0000                00091         extern  _PIE2bits
  0000                00092         extern  _PIR2bits
  0000                00093         extern  _IPR2bits
  0000                00094         extern  _PIE3bits
  0000                00095         extern  _PIR3bits
  0000                00096         extern  _IPR3bits
  0000                00097         extern  _EECON1bits
  0000                00098         extern  _RCSTAbits
  0000                00099         extern  _RCSTA1bits
  0000                00100         extern  _TXSTAbits
  0000                00101         extern  _TXSTA1bits
  0000                00102         extern  _SPBRGbits
  0000                00103         extern  _SPBRG1bits
  0000                00104         extern  _SPBRGHbits
  0000                00105         extern  _SPBRGH1bits
  0000                00106         extern  _T3CONbits
gpasm-1.5.2 #0 (Sep 16 2019) build/default/pr   9-16-2019  13:05:29         PAGE  3


LOC    OBJECT CODE    LINE  SOURCE TEXT
  VALUE

  0000                00107         extern  _T3GCONbits
  0000                00108         extern  _ACTCONbits
  0000                00109         extern  _STCONbits
  0000                00110         extern  _ECCP1ASbits
  0000                00111         extern  _ECCP1DELbits
  0000                00112         extern  _PWM1CONbits
  0000                00113         extern  _BAUDCONbits
  0000                00114         extern  _BAUDCON1bits
  0000                00115         extern  _PSTR1CONbits
  0000                00116         extern  _T2CONbits
  0000                00117         extern  _CCP1CONbits
  0000                00118         extern  _ECCP1CONbits
  0000                00119         extern  _ADCON2bits
  0000                00120         extern  _ADCON1bits
  0000                00121         extern  _ADCON0bits
  0000                00122         extern  _SSP1CON2bits
  0000                00123         extern  _SSPCON2bits
  0000                00124         extern  _SSP1CON1bits
  0000                00125         extern  _SSPCONbits
  0000                00126         extern  _SSPCON1bits
  0000                00127         extern  _SSP1STATbits
  0000                00128         extern  _SSPSTATbits
  0000                00129         extern  _SSP1ADDbits
  0000                00130         extern  _SSPADDbits
  0000                00131         extern  _SSP1MSKbits
  0000                00132         extern  _SSPMSKbits
  0000                00133         extern  _SSP1CON3bits
  0000                00134         extern  _SSPCON3bits
  0000                00135         extern  _T1GCONbits
  0000                00136         extern  _T1CONbits
  0000                00137         extern  _RCONbits
  0000                00138         extern  _WDTCONbits
  0000                00139         extern  _OSCCON2bits
  0000                00140         extern  _OSCCONbits
  0000                00141         extern  _T0CONbits
  0000                00142         extern  _STATUSbits
  0000                00143         extern  _INTCON3bits
  0000                00144         extern  _INTCON2bits
  0000                00145         extern  _INTCONbits
  0000                00146         extern  _STKPTRbits
  0000                00147         extern  _F1
  0000                00148         extern  _F2
  0000                00149         extern  _F3
  0000                00150         extern  _CCal
  0000                00151         extern  _dvar
  0000                00152         extern  _putchar_ptr
  0000                00153         extern  _SRCON1
  0000                00154         extern  _SRCON0
  0000                00155         extern  _CCPTMRS
  0000                00156         extern  _VREGCON
  0000                00157         extern  _ANSELA
  0000                00158         extern  _ANSELB
  0000                00159         extern  _ANSELC
gpasm-1.5.2 #0 (Sep 16 2019) build/default/pr   9-16-2019  13:05:29         PAGE  4


LOC    OBJECT CODE    LINE  SOURCE TEXT
  VALUE

  0000                00160         extern  _UCON
  0000                00161         extern  _USTAT
  0000                00162         extern  _UCFG
  0000                00163         extern  _UADDR
  0000                00164         extern  _UIE
  0000                00165         extern  _UIR
  0000                00166         extern  _UEIE
  0000                00167         extern  _UEIR
  0000                00168         extern  _UFRM
  0000                00169         extern  _UFRML
  0000                00170         extern  _UFRMH
  0000                00171         extern  _UEP0
  0000                00172         extern  _UEP1
  0000                00173         extern  _UEP2
  0000                00174         extern  _UEP3
  0000                00175         extern  _UEP4
  0000                00176         extern  _UEP5
  0000                00177         extern  _UEP6
  0000                00178         extern  _UEP7
  0000                00179         extern  _UEP8
  0000                00180         extern  _UEP9
  0000                00181         extern  _UEP10
  0000                00182         extern  _UEP11
  0000                00183         extern  _UEP12
  0000                00184         extern  _UEP13
  0000                00185         extern  _UEP14
  0000                00186         extern  _UEP15
  0000                00187         extern  _SLRCON
  0000                00188         extern  _VREFCON2
  0000                00189         extern  _VREFCON1
  0000                00190         extern  _VREFCON0
  0000                00191         extern  _PMD0
  0000                00192         extern  _PMD1
  0000                00193         extern  _PORTA
  0000                00194         extern  _PORTB
  0000                00195         extern  _PORTC
  0000                00196         extern  _PORTE
  0000                00197         extern  _WPUB
  0000                00198         extern  _IOCB
  0000                00199         extern  _IOCC
  0000                00200         extern  _CTMUICON
  0000                00201         extern  _LATA
  0000                00202         extern  _LATB
  0000                00203         extern  _LATC
  0000                00204         extern  _CTMUCON1
  0000                00205         extern  _CTMUCONL
  0000                00206         extern  _CTMUCON0
  0000                00207         extern  _CTMUCONH
  0000                00208         extern  _CCPR2
  0000                00209         extern  _CCPR2L
  0000                00210         extern  _CCPR2H
  0000                00211         extern  _DDRA
  0000                00212         extern  _TRISA
gpasm-1.5.2 #0 (Sep 16 2019) build/default/pr   9-16-2019  13:05:29         PAGE  5


LOC    OBJECT CODE    LINE  SOURCE TEXT
  VALUE

  0000                00213         extern  _DDRB
  0000                00214         extern  _TRISB
  0000                00215         extern  _DDRC
  0000                00216         extern  _TRISC
  0000                00217         extern  _CCP2CON
  0000                00218         extern  _ECCP2CON
  0000                00219         extern  _CM1CON0
  0000                00220         extern  _CM2CON0
  0000                00221         extern  _CM2CON1
  0000                00222         extern  _OSCTUNE
  0000                00223         extern  _HLVDCON
  0000                00224         extern  _PIE1
  0000                00225         extern  _PIR1
  0000                00226         extern  _IPR1
  0000                00227         extern  _PIE2
  0000                00228         extern  _PIR2
  0000                00229         extern  _IPR2
  0000                00230         extern  _PIE3
  0000                00231         extern  _PIR3
  0000                00232         extern  _IPR3
  0000                00233         extern  _EECON1
  0000                00234         extern  _EECON2
  0000                00235         extern  _EEDATA
  0000                00236         extern  _EEADR
  0000                00237         extern  _RCSTA
  0000                00238         extern  _RCSTA1
  0000                00239         extern  _TXSTA
  0000                00240         extern  _TXSTA1
  0000                00241         extern  _TXREG
  0000                00242         extern  _TXREG1
  0000                00243         extern  _RCREG
  0000                00244         extern  _RCREG1
  0000                00245         extern  _SPBRG
  0000                00246         extern  _SPBRG1
  0000                00247         extern  _SPBRGH
  0000                00248         extern  _SPBRGH1
  0000                00249         extern  _T3CON
  0000                00250         extern  _TMR3
  0000                00251         extern  _TMR3L
  0000                00252         extern  _TMR3H
  0000                00253         extern  _T3GCON
  0000                00254         extern  _ACTCON
  0000                00255         extern  _STCON
  0000                00256         extern  _ECCP1AS
  0000                00257         extern  _ECCP1DEL
  0000                00258         extern  _PWM1CON
  0000                00259         extern  _BAUDCON
  0000                00260         extern  _BAUDCON1
  0000                00261         extern  _PSTR1CON
  0000                00262         extern  _T2CON
  0000                00263         extern  _PR2
  0000                00264         extern  _TMR2
  0000                00265         extern  _CCP1CON
gpasm-1.5.2 #0 (Sep 16 2019) build/default/pr   9-16-2019  13:05:29         PAGE  6


LOC    OBJECT CODE    LINE  SOURCE TEXT
  VALUE

  0000                00266         extern  _ECCP1CON
  0000                00267         extern  _CCPR1
  0000                00268         extern  _CCPR1L
  0000                00269         extern  _CCPR1H
  0000                00270         extern  _ADCON2
  0000                00271         extern  _ADCON1
  0000                00272         extern  _ADCON0
  0000                00273         extern  _ADRESL
  0000                00274         extern  _ADRESH
  0000                00275         extern  _SSP1CON2
  0000                00276         extern  _SSPCON2
  0000                00277         extern  _SSP1CON1
  0000                00278         extern  _SSPCON
  0000                00279         extern  _SSPCON1
  0000                00280         extern  _SSP1STAT
  0000                00281         extern  _SSPSTAT
  0000                00282         extern  _SSP1ADD
  0000                00283         extern  _SSPADD
  0000                00284         extern  _SSP1BUF
  0000                00285         extern  _SSPBUF
  0000                00286         extern  _SSP1MSK
  0000                00287         extern  _SSPMSK
  0000                00288         extern  _SSP1CON3
  0000                00289         extern  _SSPCON3
  0000                00290         extern  _T1GCON
  0000                00291         extern  _T1CON
  0000                00292         extern  _TMR1
  0000                00293         extern  _TMR1L
  0000                00294         extern  _TMR1H
  0000                00295         extern  _RCON
  0000                00296         extern  _WDTCON
  0000                00297         extern  _OSCCON2
  0000                00298         extern  _OSCCON
  0000                00299         extern  _T0CON
  0000                00300         extern  _TMR0
  0000                00301         extern  _TMR0L
  0000                00302         extern  _TMR0H
  0000                00303         extern  _STATUS
  0000                00304         extern  _FSR2L
  0000                00305         extern  _FSR2H
  0000                00306         extern  _PLUSW2
  0000                00307         extern  _PREINC2
  0000                00308         extern  _POSTDEC2
  0000                00309         extern  _POSTINC2
  0000                00310         extern  _INDF2
  0000                00311         extern  _BSR
  0000                00312         extern  _FSR1L
  0000                00313         extern  _FSR1H
  0000                00314         extern  _PLUSW1
  0000                00315         extern  _PREINC1
  0000                00316         extern  _POSTDEC1
  0000                00317         extern  _POSTINC1
  0000                00318         extern  _INDF1
gpasm-1.5.2 #0 (Sep 16 2019) build/default/pr   9-16-2019  13:05:29         PAGE  7


LOC    OBJECT CODE    LINE  SOURCE TEXT
  VALUE

  0000                00319         extern  _WREG
  0000                00320         extern  _FSR0L
  0000                00321         extern  _FSR0H
  0000                00322         extern  _PLUSW0
  0000                00323         extern  _PREINC0
  0000                00324         extern  _POSTDEC0
  0000                00325         extern  _POSTINC0
  0000                00326         extern  _INDF0
  0000                00327         extern  _INTCON3
  0000                00328         extern  _INTCON2
  0000                00329         extern  _INTCON
  0000                00330         extern  _PROD
  0000                00331         extern  _PRODL
  0000                00332         extern  _PRODH
  0000                00333         extern  _TABLAT
  0000                00334         extern  _TBLPTR
  0000                00335         extern  _TBLPTRL
  0000                00336         extern  _TBLPTRH
  0000                00337         extern  _TBLPTRU
  0000                00338         extern  _PC
  0000                00339         extern  _PCL
  0000                00340         extern  _PCLATH
  0000                00341         extern  _PCLATU
  0000                00342         extern  _STKPTR
  0000                00343         extern  _TOS
  0000                00344         extern  _TOSL
  0000                00345         extern  _TOSH
  0000                00346         extern  _TOSU
  0000                00347         extern  _delay10ms
  0000                00348         extern  _delay_ms
  0000                00349         extern  _uart_puts
  0000                00350         extern  _lcd_clear
  0000                00351         extern  _lcd_gotoxy
  0000                00352         extern  _lcd_send
  0000                00353         extern  _put_str
  0000                00354         extern  _output_putch
  0000                00355         extern  _print_unit
  0000                00356         extern  _print_reading
  0000                00357         extern  _format_number
  0000                00358         extern  _timer0_read_ps
  0000                00359         extern  ___uint2fs
  0000                00360         extern  ___fslt
  0000                00361         extern  ___fsmul
  0000                00362         extern  ___fssub
  0000                00363         extern  ___fsdiv
  0000                00364         extern  ___fs2uint
  0000                00365         extern  _uart_brg
  0000                00366         extern  _logo_image
                      00367 
                      00368 ;--------------------------------------------------------
                      00369 ;       Equates to used internal registers
                      00370 ;--------------------------------------------------------
  00000FD8            00371 STATUS  equ     0xfd8
gpasm-1.5.2 #0 (Sep 16 2019) build/default/pr   9-16-2019  13:05:29         PAGE  8


LOC    OBJECT CODE    LINE  SOURCE TEXT
  VALUE

  00000FE8            00372 WREG    equ     0xfe8
  00000FE9            00373 FSR0L   equ     0xfe9
  00000FE1            00374 FSR1L   equ     0xfe1
  00000FE2            00375 FSR1H   equ     0xfe2
  00000FD9            00376 FSR2L   equ     0xfd9
  00000FDA            00377 FSR2H   equ     0xfda
  00000FE6            00378 POSTINC1        equ     0xfe6
  00000FE5            00379 POSTDEC1        equ     0xfe5
  00000FE4            00380 PREINC1 equ     0xfe4
  00000FF3            00381 PRODL   equ     0xff3
  00000FF4            00382 PRODH   equ     0xff4
                      00383 
                      00384 
                      00385 ; Internal registers
                      00386 .registers      udata_ovr       0x0000
000000                00387 r0x00   res     1
000001                00388 r0x01   res     1
000002                00389 r0x02   res     1
000003                00390 r0x03   res     1
000004                00391 r0x04   res     1
000005                00392 r0x05   res     1
000006                00393 r0x06   res     1
000007                00394 r0x07   res     1
000008                00395 r0x08   res     1
000009                00396 r0x09   res     1
00000A                00397 r0x0a   res     1
00000B                00398 r0x0b   res     1
                      00399 
                      00400 ;--------------------------------------------------------
                      00401 ; global & static initialisations
                      00402 ;--------------------------------------------------------
                      00403 ; I code from now on!
                      00404 ; ; Starting pCode block
                      00405 S_measure__measure_inductance   code
000000                00406 _measure_inductance:
                      00407 ;       .line   196; ../../../src/measure.c     measure_inductance() {
000000 CFDA FFE5      00408         MOVFF   FSR2H, POSTDEC1
000004 CFD9 FFE5      00409         MOVFF   FSR2L, POSTDEC1
000008 CFE2 FFDA      00410         MOVFF   FSR1H, FSR2H
00000C CFE1 FFD9      00411         MOVFF   FSR1L, FSR2L
000010 C??? F???      00412         MOVFF   r0x00, POSTDEC1
000014 C??? F???      00413         MOVFF   r0x01, POSTDEC1
000018 C??? F???      00414         MOVFF   r0x02, POSTDEC1
00001C C??? F???      00415         MOVFF   r0x03, POSTDEC1
000020 C??? F???      00416         MOVFF   r0x04, POSTDEC1
000024 C??? F???      00417         MOVFF   r0x05, POSTDEC1
000028 C??? F???      00418         MOVFF   r0x06, POSTDEC1
00002C C??? F???      00419         MOVFF   r0x07, POSTDEC1
                      00420 ;       .line   203; ../../../src/measure.c     lcd_gotoxy(0, 0);
000030 0E00           00421         MOVLW   0x00
000032 6EE5           00422         MOVWF   POSTDEC1
000034 0E00           00423         MOVLW   0x00
000036 6EE5           00424         MOVWF   POSTDEC1
gpasm-1.5.2 #0 (Sep 16 2019) build/default/pr   9-16-2019  13:05:29         PAGE  9


LOC    OBJECT CODE    LINE  SOURCE TEXT
  VALUE

000038 EC?? F0??      00425         CALL    _lcd_gotoxy
00003C 52E6           00426         MOVF    POSTINC1, F
00003E 52E6           00427         MOVF    POSTINC1, F
                      00428 ;       .line   204; ../../../src/measure.c     put_str("Inductivity ");
000040 0E??           00429         MOVLW   HIGH(___str_5)
000042 6E??           00430         MOVWF   r0x01
000044 0E??           00431         MOVLW   LOW(___str_5)
000046 6E??           00432         MOVWF   r0x00
000048 6A??           00433         CLRF    r0x02
00004A 50??           00434         MOVF    r0x02, W
00004C 6EE5           00435         MOVWF   POSTDEC1
00004E 50??           00436         MOVF    r0x01, W
000050 6EE5           00437         MOVWF   POSTDEC1
000052 50??           00438         MOVF    r0x00, W
000054 6EE5           00439         MOVWF   POSTDEC1
000056 EC?? F0??      00440         CALL    _put_str
00005A 0E03           00441         MOVLW   0x03
00005C 26E1           00442         ADDWF   FSR1L, F
00005E B0D8           00443         BTFSC   STATUS, 0
000060 2AE2           00444         INCF    FSR1H, F
                      00445 ;       .line   206; ../../../src/measure.c     var = measure_freq();
000062 EC?? F0??      00446         CALL    _measure_freq
000066 6E??           00447         MOVWF   r0x00
000068 CFF3 F000      00448         MOVFF   PRODL, r0x01
                      00449 ;       .line   208; ../../../src/measure.c     F3 = (double)var;
00006C 50??           00450         MOVF    r0x01, W
00006E 6EE5           00451         MOVWF   POSTDEC1
000070 50??           00452         MOVF    r0x00, W
000072 6EE5           00453         MOVWF   POSTDEC1
000074 EC?? F0??      00454         CALL    ___uint2fs
000078 010?           00455         BANKSEL _F3
00007A 6F??           00456         MOVWF   _F3, B
00007C CFF3 F000      00457         MOVFF   PRODL, (_F3 + 1)
000080 CFF4 F000      00458         MOVFF   PRODH, (_F3 + 2)
000084 CFE9 F000      00459         MOVFF   FSR0L, (_F3 + 3)
000088 52E6           00460         MOVF    POSTINC1, F
00008A 52E6           00461         MOVF    POSTINC1, F
00008C 010?           00462         BANKSEL (_F3 + 3)
                      00463 ;       .line   209; ../../../src/measure.c     if(F3 > F1)
00008E 51??           00464         MOVF    (_F3 + 3), W, B
000090 6EE5           00465         MOVWF   POSTDEC1
000092 010?           00466         BANKSEL (_F3 + 2)
000094 51??           00467         MOVF    (_F3 + 2), W, B
000096 6EE5           00468         MOVWF   POSTDEC1
000098 010?           00469         BANKSEL (_F3 + 1)
00009A 51??           00470         MOVF    (_F3 + 1), W, B
00009C 6EE5           00471         MOVWF   POSTDEC1
00009E 010?           00472         BANKSEL _F3
0000A0 51??           00473         MOVF    _F3, W, B
0000A2 6EE5           00474         MOVWF   POSTDEC1
0000A4 010?           00475         BANKSEL (_F1 + 3)
0000A6 51??           00476         MOVF    (_F1 + 3), W, B
0000A8 6EE5           00477         MOVWF   POSTDEC1
gpasm-1.5.2 #0 (Sep 16 2019) build/default/pr   9-16-2019  13:05:29         PAGE 10


LOC    OBJECT CODE    LINE  SOURCE TEXT
  VALUE

0000AA 010?           00478         BANKSEL (_F1 + 2)
0000AC 51??           00479         MOVF    (_F1 + 2), W, B
0000AE 6EE5           00480         MOVWF   POSTDEC1
0000B0 010?           00481         BANKSEL (_F1 + 1)
0000B2 51??           00482         MOVF    (_F1 + 1), W, B
0000B4 6EE5           00483         MOVWF   POSTDEC1
0000B6 010?           00484         BANKSEL _F1
0000B8 51??           00485         MOVF    _F1, W, B
0000BA 6EE5           00486         MOVWF   POSTDEC1
0000BC EC?? F0??      00487         CALL    ___fslt
0000C0 6E??           00488         MOVWF   r0x00
0000C2 0E08           00489         MOVLW   0x08
0000C4 26E1           00490         ADDWF   FSR1L, F
0000C6 B0D8           00491         BTFSC   STATUS, 0
0000C8 2AE2           00492         INCF    FSR1H, F
0000CA 50??           00493         MOVF    r0x00, W
0000CC E0??           00494         BZ      _00149_DS_
                      00495 ;       .line   210; ../../../src/measure.c     F3 = F1; // max freq is F1;
0000CE C??? F???      00496         MOVFF   _F1, _F3
0000D2 C??? F???      00497         MOVFF   (_F1 + 1), (_F3 + 1)
0000D6 C??? F???      00498         MOVFF   (_F1 + 2), (_F3 + 2)
0000DA C??? F???      00499         MOVFF   (_F1 + 3), (_F3 + 3)
0000DE                00500 _00149_DS_:
0000DE 010?           00501         BANKSEL (_F1 + 3)
                      00502 ;       .line   212; ../../../src/measure.c     numerator = ((F1 * F1) - (F3 * F3)) * ((F1 * F1) - (F2 -
                             F2)) * (GATE_PERIOD * GATE_PERIOD);
0000E0 51??           00503         MOVF    (_F1 + 3), W, B
0000E2 6EE5           00504         MOVWF   POSTDEC1
0000E4 010?           00505         BANKSEL (_F1 + 2)
0000E6 51??           00506         MOVF    (_F1 + 2), W, B
0000E8 6EE5           00507         MOVWF   POSTDEC1
0000EA 010?           00508         BANKSEL (_F1 + 1)
0000EC 51??           00509         MOVF    (_F1 + 1), W, B
0000EE 6EE5           00510         MOVWF   POSTDEC1
0000F0 010?           00511         BANKSEL _F1
0000F2 51??           00512         MOVF    _F1, W, B
0000F4 6EE5           00513         MOVWF   POSTDEC1
0000F6 010?           00514         BANKSEL (_F1 + 3)
0000F8 51??           00515         MOVF    (_F1 + 3), W, B
0000FA 6EE5           00516         MOVWF   POSTDEC1
0000FC 010?           00517         BANKSEL (_F1 + 2)
0000FE 51??           00518         MOVF    (_F1 + 2), W, B
000100 6EE5           00519         MOVWF   POSTDEC1
000102 010?           00520         BANKSEL (_F1 + 1)
000104 51??           00521         MOVF    (_F1 + 1), W, B
000106 6EE5           00522         MOVWF   POSTDEC1
000108 010?           00523         BANKSEL _F1
00010A 51??           00524         MOVF    _F1, W, B
00010C 6EE5           00525         MOVWF   POSTDEC1
00010E EC?? F0??      00526         CALL    ___fsmul
000112 6E??           00527         MOVWF   r0x00
000114 CFF3 F000      00528         MOVFF   PRODL, r0x01
000118 CFF4 F000      00529         MOVFF   PRODH, r0x02
gpasm-1.5.2 #0 (Sep 16 2019) build/default/pr   9-16-2019  13:05:29         PAGE 11


LOC    OBJECT CODE    LINE  SOURCE TEXT
  VALUE

00011C CFE9 F000      00530         MOVFF   FSR0L, r0x03
000120 0E08           00531         MOVLW   0x08
000122 26E1           00532         ADDWF   FSR1L, F
000124 B0D8           00533         BTFSC   STATUS, 0
000126 2AE2           00534         INCF    FSR1H, F
000128 010?           00535         BANKSEL (_F3 + 3)
00012A 51??           00536         MOVF    (_F3 + 3), W, B
00012C 6EE5           00537         MOVWF   POSTDEC1
00012E 010?           00538         BANKSEL (_F3 + 2)
000130 51??           00539         MOVF    (_F3 + 2), W, B
000132 6EE5           00540         MOVWF   POSTDEC1
000134 010?           00541         BANKSEL (_F3 + 1)
000136 51??           00542         MOVF    (_F3 + 1), W, B
000138 6EE5           00543         MOVWF   POSTDEC1
00013A 010?           00544         BANKSEL _F3
00013C 51??           00545         MOVF    _F3, W, B
00013E 6EE5           00546         MOVWF   POSTDEC1
000140 010?           00547         BANKSEL (_F3 + 3)
000142 51??           00548         MOVF    (_F3 + 3), W, B
000144 6EE5           00549         MOVWF   POSTDEC1
000146 010?           00550         BANKSEL (_F3 + 2)
000148 51??           00551         MOVF    (_F3 + 2), W, B
00014A 6EE5           00552         MOVWF   POSTDEC1
00014C 010?           00553         BANKSEL (_F3 + 1)
00014E 51??           00554         MOVF    (_F3 + 1), W, B
000150 6EE5           00555         MOVWF   POSTDEC1
000152 010?           00556         BANKSEL _F3
000154 51??           00557         MOVF    _F3, W, B
000156 6EE5           00558         MOVWF   POSTDEC1
000158 EC?? F0??      00559         CALL    ___fsmul
00015C 6E??           00560         MOVWF   r0x04
00015E CFF3 F000      00561         MOVFF   PRODL, r0x05
000162 CFF4 F000      00562         MOVFF   PRODH, r0x06
000166 CFE9 F000      00563         MOVFF   FSR0L, r0x07
00016A 0E08           00564         MOVLW   0x08
00016C 26E1           00565         ADDWF   FSR1L, F
00016E B0D8           00566         BTFSC   STATUS, 0
000170 2AE2           00567         INCF    FSR1H, F
000172 50??           00568         MOVF    r0x07, W
000174 6EE5           00569         MOVWF   POSTDEC1
000176 50??           00570         MOVF    r0x06, W
000178 6EE5           00571         MOVWF   POSTDEC1
00017A 50??           00572         MOVF    r0x05, W
00017C 6EE5           00573         MOVWF   POSTDEC1
00017E 50??           00574         MOVF    r0x04, W
000180 6EE5           00575         MOVWF   POSTDEC1
000182 50??           00576         MOVF    r0x03, W
000184 6EE5           00577         MOVWF   POSTDEC1
000186 50??           00578         MOVF    r0x02, W
000188 6EE5           00579         MOVWF   POSTDEC1
00018A 50??           00580         MOVF    r0x01, W
00018C 6EE5           00581         MOVWF   POSTDEC1
00018E 50??           00582         MOVF    r0x00, W
gpasm-1.5.2 #0 (Sep 16 2019) build/default/pr   9-16-2019  13:05:29         PAGE 12


LOC    OBJECT CODE    LINE  SOURCE TEXT
  VALUE

000190 6EE5           00583         MOVWF   POSTDEC1
000192 EC?? F0??      00584         CALL    ___fssub
000196 6E??           00585         MOVWF   r0x04
000198 CFF3 F000      00586         MOVFF   PRODL, r0x05
00019C CFF4 F000      00587         MOVFF   PRODH, r0x06
0001A0 CFE9 F000      00588         MOVFF   FSR0L, r0x07
0001A4 0E08           00589         MOVLW   0x08
0001A6 26E1           00590         ADDWF   FSR1L, F
0001A8 B0D8           00591         BTFSC   STATUS, 0
0001AA 2AE2           00592         INCF    FSR1H, F
0001AC 50??           00593         MOVF    r0x03, W
0001AE 6EE5           00594         MOVWF   POSTDEC1
0001B0 50??           00595         MOVF    r0x02, W
0001B2 6EE5           00596         MOVWF   POSTDEC1
0001B4 50??           00597         MOVF    r0x01, W
0001B6 6EE5           00598         MOVWF   POSTDEC1
0001B8 50??           00599         MOVF    r0x00, W
0001BA 6EE5           00600         MOVWF   POSTDEC1
0001BC 50??           00601         MOVF    r0x07, W
0001BE 6EE5           00602         MOVWF   POSTDEC1
0001C0 50??           00603         MOVF    r0x06, W
0001C2 6EE5           00604         MOVWF   POSTDEC1
0001C4 50??           00605         MOVF    r0x05, W
0001C6 6EE5           00606         MOVWF   POSTDEC1
0001C8 50??           00607         MOVF    r0x04, W
0001CA 6EE5           00608         MOVWF   POSTDEC1
0001CC EC?? F0??      00609         CALL    ___fsmul
0001D0 6E??           00610         MOVWF   r0x00
0001D2 CFF3 F000      00611         MOVFF   PRODL, r0x01
0001D6 CFF4 F000      00612         MOVFF   PRODH, r0x02
0001DA CFE9 F000      00613         MOVFF   FSR0L, r0x03
0001DE 0E08           00614         MOVLW   0x08
0001E0 26E1           00615         ADDWF   FSR1L, F
0001E2 B0D8           00616         BTFSC   STATUS, 0
0001E4 2AE2           00617         INCF    FSR1H, F
0001E6 50??           00618         MOVF    r0x03, W
0001E8 6EE5           00619         MOVWF   POSTDEC1
0001EA 50??           00620         MOVF    r0x02, W
0001EC 6EE5           00621         MOVWF   POSTDEC1
0001EE 50??           00622         MOVF    r0x01, W
0001F0 6EE5           00623         MOVWF   POSTDEC1
0001F2 50??           00624         MOVF    r0x00, W
0001F4 6EE5           00625         MOVWF   POSTDEC1
0001F6 0E46           00626         MOVLW   0x46
0001F8 6EE5           00627         MOVWF   POSTDEC1
0001FA 0E1C           00628         MOVLW   0x1c
0001FC 6EE5           00629         MOVWF   POSTDEC1
0001FE 0E40           00630         MOVLW   0x40
000200 6EE5           00631         MOVWF   POSTDEC1
000202 0E00           00632         MOVLW   0x00
000204 6EE5           00633         MOVWF   POSTDEC1
000206 EC?? F0??      00634         CALL    ___fsmul
00020A 6E??           00635         MOVWF   r0x00
gpasm-1.5.2 #0 (Sep 16 2019) build/default/pr   9-16-2019  13:05:29         PAGE 13


LOC    OBJECT CODE    LINE  SOURCE TEXT
  VALUE

00020C CFF3 F000      00636         MOVFF   PRODL, r0x01
000210 CFF4 F000      00637         MOVFF   PRODH, r0x02
000214 CFE9 F000      00638         MOVFF   FSR0L, r0x03
000218 0E08           00639         MOVLW   0x08
00021A 26E1           00640         ADDWF   FSR1L, F
00021C B0D8           00641         BTFSC   STATUS, 0
00021E 2AE2           00642         INCF    FSR1H, F
000220 010?           00643         BANKSEL (_F1 + 3)
                      00644 ;       .line   214; ../../../src/measure.c     denominator = 4 * PI * PI * F1 * F1 * F2 * F2 * F3 * F3 
                            * CCal;
000222 51??           00645         MOVF    (_F1 + 3), W, B
000224 6EE5           00646         MOVWF   POSTDEC1
000226 010?           00647         BANKSEL (_F1 + 2)
000228 51??           00648         MOVF    (_F1 + 2), W, B
00022A 6EE5           00649         MOVWF   POSTDEC1
00022C 010?           00650         BANKSEL (_F1 + 1)
00022E 51??           00651         MOVF    (_F1 + 1), W, B
000230 6EE5           00652         MOVWF   POSTDEC1
000232 010?           00653         BANKSEL _F1
000234 51??           00654         MOVF    _F1, W, B
000236 6EE5           00655         MOVWF   POSTDEC1
000238 0E42           00656         MOVLW   0x42
00023A 6EE5           00657         MOVWF   POSTDEC1
00023C 0E1D           00658         MOVLW   0x1d
00023E 6EE5           00659         MOVWF   POSTDEC1
000240 0EE9           00660         MOVLW   0xe9
000242 6EE5           00661         MOVWF   POSTDEC1
000244 0EE6           00662         MOVLW   0xe6
000246 6EE5           00663         MOVWF   POSTDEC1
000248 EC?? F0??      00664         CALL    ___fsmul
00024C 6E??           00665         MOVWF   r0x04
00024E CFF3 F000      00666         MOVFF   PRODL, r0x05
000252 CFF4 F000      00667         MOVFF   PRODH, r0x06
000256 CFE9 F000      00668         MOVFF   FSR0L, r0x07
00025A 0E08           00669         MOVLW   0x08
00025C 26E1           00670         ADDWF   FSR1L, F
00025E B0D8           00671         BTFSC   STATUS, 0
000260 2AE2           00672         INCF    FSR1H, F
000262 010?           00673         BANKSEL (_F1 + 3)
000264 51??           00674         MOVF    (_F1 + 3), W, B
000266 6EE5           00675         MOVWF   POSTDEC1
000268 010?           00676         BANKSEL (_F1 + 2)
00026A 51??           00677         MOVF    (_F1 + 2), W, B
00026C 6EE5           00678         MOVWF   POSTDEC1
00026E 010?           00679         BANKSEL (_F1 + 1)
000270 51??           00680         MOVF    (_F1 + 1), W, B
000272 6EE5           00681         MOVWF   POSTDEC1
000274 010?           00682         BANKSEL _F1
000276 51??           00683         MOVF    _F1, W, B
000278 6EE5           00684         MOVWF   POSTDEC1
00027A 50??           00685         MOVF    r0x07, W
00027C 6EE5           00686         MOVWF   POSTDEC1
00027E 50??           00687         MOVF    r0x06, W
gpasm-1.5.2 #0 (Sep 16 2019) build/default/pr   9-16-2019  13:05:29         PAGE 14


LOC    OBJECT CODE    LINE  SOURCE TEXT
  VALUE

000280 6EE5           00688         MOVWF   POSTDEC1
000282 50??           00689         MOVF    r0x05, W
000284 6EE5           00690         MOVWF   POSTDEC1
000286 50??           00691         MOVF    r0x04, W
000288 6EE5           00692         MOVWF   POSTDEC1
00028A EC?? F0??      00693         CALL    ___fsmul
00028E 6E??           00694         MOVWF   r0x04
000290 CFF3 F000      00695         MOVFF   PRODL, r0x05
000294 CFF4 F000      00696         MOVFF   PRODH, r0x06
000298 CFE9 F000      00697         MOVFF   FSR0L, r0x07
00029C 0E08           00698         MOVLW   0x08
00029E 26E1           00699         ADDWF   FSR1L, F
0002A0 B0D8           00700         BTFSC   STATUS, 0
0002A2 2AE2           00701         INCF    FSR1H, F
0002A4 010?           00702         BANKSEL (_F2 + 3)
0002A6 51??           00703         MOVF    (_F2 + 3), W, B
0002A8 6EE5           00704         MOVWF   POSTDEC1
0002AA 010?           00705         BANKSEL (_F2 + 2)
0002AC 51??           00706         MOVF    (_F2 + 2), W, B
0002AE 6EE5           00707         MOVWF   POSTDEC1
0002B0 010?           00708         BANKSEL (_F2 + 1)
0002B2 51??           00709         MOVF    (_F2 + 1), W, B
0002B4 6EE5           00710         MOVWF   POSTDEC1
0002B6 010?           00711         BANKSEL _F2
0002B8 51??           00712         MOVF    _F2, W, B
0002BA 6EE5           00713         MOVWF   POSTDEC1
0002BC 50??           00714         MOVF    r0x07, W
0002BE 6EE5           00715         MOVWF   POSTDEC1
0002C0 50??           00716         MOVF    r0x06, W
0002C2 6EE5           00717         MOVWF   POSTDEC1
0002C4 50??           00718         MOVF    r0x05, W
0002C6 6EE5           00719         MOVWF   POSTDEC1
0002C8 50??           00720         MOVF    r0x04, W
0002CA 6EE5           00721         MOVWF   POSTDEC1
0002CC EC?? F0??      00722         CALL    ___fsmul
0002D0 6E??           00723         MOVWF   r0x04
0002D2 CFF3 F000      00724         MOVFF   PRODL, r0x05
0002D6 CFF4 F000      00725         MOVFF   PRODH, r0x06
0002DA CFE9 F000      00726         MOVFF   FSR0L, r0x07
0002DE 0E08           00727         MOVLW   0x08
0002E0 26E1           00728         ADDWF   FSR1L, F
0002E2 B0D8           00729         BTFSC   STATUS, 0
0002E4 2AE2           00730         INCF    FSR1H, F
0002E6 010?           00731         BANKSEL (_F2 + 3)
0002E8 51??           00732         MOVF    (_F2 + 3), W, B
0002EA 6EE5           00733         MOVWF   POSTDEC1
0002EC 010?           00734         BANKSEL (_F2 + 2)
0002EE 51??           00735         MOVF    (_F2 + 2), W, B
0002F0 6EE5           00736         MOVWF   POSTDEC1
0002F2 010?           00737         BANKSEL (_F2 + 1)
0002F4 51??           00738         MOVF    (_F2 + 1), W, B
0002F6 6EE5           00739         MOVWF   POSTDEC1
0002F8 010?           00740         BANKSEL _F2
gpasm-1.5.2 #0 (Sep 16 2019) build/default/pr   9-16-2019  13:05:29         PAGE 15


LOC    OBJECT CODE    LINE  SOURCE TEXT
  VALUE

0002FA 51??           00741         MOVF    _F2, W, B
0002FC 6EE5           00742         MOVWF   POSTDEC1
0002FE 50??           00743         MOVF    r0x07, W
000300 6EE5           00744         MOVWF   POSTDEC1
000302 50??           00745         MOVF    r0x06, W
000304 6EE5           00746         MOVWF   POSTDEC1
000306 50??           00747         MOVF    r0x05, W
000308 6EE5           00748         MOVWF   POSTDEC1
00030A 50??           00749         MOVF    r0x04, W
00030C 6EE5           00750         MOVWF   POSTDEC1
00030E EC?? F0??      00751         CALL    ___fsmul
000312 6E??           00752         MOVWF   r0x04
000314 CFF3 F000      00753         MOVFF   PRODL, r0x05
000318 CFF4 F000      00754         MOVFF   PRODH, r0x06
00031C CFE9 F000      00755         MOVFF   FSR0L, r0x07
000320 0E08           00756         MOVLW   0x08
000322 26E1           00757         ADDWF   FSR1L, F
000324 B0D8           00758         BTFSC   STATUS, 0
000326 2AE2           00759         INCF    FSR1H, F
000328 010?           00760         BANKSEL (_F3 + 3)
00032A 51??           00761         MOVF    (_F3 + 3), W, B
00032C 6EE5           00762         MOVWF   POSTDEC1
00032E 010?           00763         BANKSEL (_F3 + 2)
000330 51??           00764         MOVF    (_F3 + 2), W, B
000332 6EE5           00765         MOVWF   POSTDEC1
000334 010?           00766         BANKSEL (_F3 + 1)
000336 51??           00767         MOVF    (_F3 + 1), W, B
000338 6EE5           00768         MOVWF   POSTDEC1
00033A 010?           00769         BANKSEL _F3
00033C 51??           00770         MOVF    _F3, W, B
00033E 6EE5           00771         MOVWF   POSTDEC1
000340 50??           00772         MOVF    r0x07, W
000342 6EE5           00773         MOVWF   POSTDEC1
000344 50??           00774         MOVF    r0x06, W
000346 6EE5           00775         MOVWF   POSTDEC1
000348 50??           00776         MOVF    r0x05, W
00034A 6EE5           00777         MOVWF   POSTDEC1
00034C 50??           00778         MOVF    r0x04, W
00034E 6EE5           00779         MOVWF   POSTDEC1
000350 EC?? F0??      00780         CALL    ___fsmul
000354 6E??           00781         MOVWF   r0x04
000356 CFF3 F000      00782         MOVFF   PRODL, r0x05
00035A CFF4 F000      00783         MOVFF   PRODH, r0x06
00035E CFE9 F000      00784         MOVFF   FSR0L, r0x07
000362 0E08           00785         MOVLW   0x08
000364 26E1           00786         ADDWF   FSR1L, F
000366 B0D8           00787         BTFSC   STATUS, 0
000368 2AE2           00788         INCF    FSR1H, F
00036A 010?           00789         BANKSEL (_F3 + 3)
00036C 51??           00790         MOVF    (_F3 + 3), W, B
00036E 6EE5           00791         MOVWF   POSTDEC1
000370 010?           00792         BANKSEL (_F3 + 2)
000372 51??           00793         MOVF    (_F3 + 2), W, B
gpasm-1.5.2 #0 (Sep 16 2019) build/default/pr   9-16-2019  13:05:29         PAGE 16


LOC    OBJECT CODE    LINE  SOURCE TEXT
  VALUE

000374 6EE5           00794         MOVWF   POSTDEC1
000376 010?           00795         BANKSEL (_F3 + 1)
000378 51??           00796         MOVF    (_F3 + 1), W, B
00037A 6EE5           00797         MOVWF   POSTDEC1
00037C 010?           00798         BANKSEL _F3
00037E 51??           00799         MOVF    _F3, W, B
000380 6EE5           00800         MOVWF   POSTDEC1
000382 50??           00801         MOVF    r0x07, W
000384 6EE5           00802         MOVWF   POSTDEC1
000386 50??           00803         MOVF    r0x06, W
000388 6EE5           00804         MOVWF   POSTDEC1
00038A 50??           00805         MOVF    r0x05, W
00038C 6EE5           00806         MOVWF   POSTDEC1
00038E 50??           00807         MOVF    r0x04, W
000390 6EE5           00808         MOVWF   POSTDEC1
000392 EC?? F0??      00809         CALL    ___fsmul
000396 6E??           00810         MOVWF   r0x04
000398 CFF3 F000      00811         MOVFF   PRODL, r0x05
00039C CFF4 F000      00812         MOVFF   PRODH, r0x06
0003A0 CFE9 F000      00813         MOVFF   FSR0L, r0x07
0003A4 0E08           00814         MOVLW   0x08
0003A6 26E1           00815         ADDWF   FSR1L, F
0003A8 B0D8           00816         BTFSC   STATUS, 0
0003AA 2AE2           00817         INCF    FSR1H, F
0003AC 010?           00818         BANKSEL (_CCal + 3)
0003AE 51??           00819         MOVF    (_CCal + 3), W, B
0003B0 6EE5           00820         MOVWF   POSTDEC1
0003B2 010?           00821         BANKSEL (_CCal + 2)
0003B4 51??           00822         MOVF    (_CCal + 2), W, B
0003B6 6EE5           00823         MOVWF   POSTDEC1
0003B8 010?           00824         BANKSEL (_CCal + 1)
0003BA 51??           00825         MOVF    (_CCal + 1), W, B
0003BC 6EE5           00826         MOVWF   POSTDEC1
0003BE 010?           00827         BANKSEL _CCal
0003C0 51??           00828         MOVF    _CCal, W, B
0003C2 6EE5           00829         MOVWF   POSTDEC1
0003C4 50??           00830         MOVF    r0x07, W
0003C6 6EE5           00831         MOVWF   POSTDEC1
0003C8 50??           00832         MOVF    r0x06, W
0003CA 6EE5           00833         MOVWF   POSTDEC1
0003CC 50??           00834         MOVF    r0x05, W
0003CE 6EE5           00835         MOVWF   POSTDEC1
0003D0 50??           00836         MOVF    r0x04, W
0003D2 6EE5           00837         MOVWF   POSTDEC1
0003D4 EC?? F0??      00838         CALL    ___fsmul
0003D8 6E??           00839         MOVWF   r0x04
0003DA CFF3 F000      00840         MOVFF   PRODL, r0x05
0003DE CFF4 F000      00841         MOVFF   PRODH, r0x06
0003E2 CFE9 F000      00842         MOVFF   FSR0L, r0x07
0003E6 0E08           00843         MOVLW   0x08
0003E8 26E1           00844         ADDWF   FSR1L, F
0003EA B0D8           00845         BTFSC   STATUS, 0
0003EC 2AE2           00846         INCF    FSR1H, F
gpasm-1.5.2 #0 (Sep 16 2019) build/default/pr   9-16-2019  13:05:29         PAGE 17


LOC    OBJECT CODE    LINE  SOURCE TEXT
  VALUE

                      00847 ;       .line   216; ../../../src/measure.c     Lin = (numerator / denominator) * 1e+15l; // scale to nH
                             { pF/1e+12 * nH/1e+09 * (s/1e+03)^2 }
0003EE 50??           00848         MOVF    r0x07, W
0003F0 6EE5           00849         MOVWF   POSTDEC1
0003F2 50??           00850         MOVF    r0x06, W
0003F4 6EE5           00851         MOVWF   POSTDEC1
0003F6 50??           00852         MOVF    r0x05, W
0003F8 6EE5           00853         MOVWF   POSTDEC1
0003FA 50??           00854         MOVF    r0x04, W
0003FC 6EE5           00855         MOVWF   POSTDEC1
0003FE 50??           00856         MOVF    r0x03, W
000400 6EE5           00857         MOVWF   POSTDEC1
000402 50??           00858         MOVF    r0x02, W
000404 6EE5           00859         MOVWF   POSTDEC1
000406 50??           00860         MOVF    r0x01, W
000408 6EE5           00861         MOVWF   POSTDEC1
00040A 50??           00862         MOVF    r0x00, W
00040C 6EE5           00863         MOVWF   POSTDEC1
00040E EC?? F0??      00864         CALL    ___fsdiv
000412 6E??           00865         MOVWF   r0x00
000414 CFF3 F000      00866         MOVFF   PRODL, r0x01
000418 CFF4 F000      00867         MOVFF   PRODH, r0x02
00041C CFE9 F000      00868         MOVFF   FSR0L, r0x03
000420 0E08           00869         MOVLW   0x08
000422 26E1           00870         ADDWF   FSR1L, F
000424 B0D8           00871         BTFSC   STATUS, 0
000426 2AE2           00872         INCF    FSR1H, F
000428 50??           00873         MOVF    r0x03, W
00042A 6EE5           00874         MOVWF   POSTDEC1
00042C 50??           00875         MOVF    r0x02, W
00042E 6EE5           00876         MOVWF   POSTDEC1
000430 50??           00877         MOVF    r0x01, W
000432 6EE5           00878         MOVWF   POSTDEC1
000434 50??           00879         MOVF    r0x00, W
000436 6EE5           00880         MOVWF   POSTDEC1
000438 0E58           00881         MOVLW   0x58
00043A 6EE5           00882         MOVWF   POSTDEC1
00043C 0E63           00883         MOVLW   0x63
00043E 6EE5           00884         MOVWF   POSTDEC1
000440 0E5F           00885         MOVLW   0x5f
000442 6EE5           00886         MOVWF   POSTDEC1
000444 0EA9           00887         MOVLW   0xa9
000446 6EE5           00888         MOVWF   POSTDEC1
000448 EC?? F0??      00889         CALL    ___fsmul
00044C 6E??           00890         MOVWF   r0x00
00044E CFF3 F000      00891         MOVFF   PRODL, r0x01
000452 CFF4 F000      00892         MOVFF   PRODH, r0x02
000456 CFE9 F000      00893         MOVFF   FSR0L, r0x03
00045A 0E08           00894         MOVLW   0x08
00045C 26E1           00895         ADDWF   FSR1L, F
00045E B0D8           00896         BTFSC   STATUS, 0
000460 2AE2           00897         INCF    FSR1H, F
                      00898 ;       .line   218; ../../../src/measure.c     if(Lin > 999) {
gpasm-1.5.2 #0 (Sep 16 2019) build/default/pr   9-16-2019  13:05:29         PAGE 18


LOC    OBJECT CODE    LINE  SOURCE TEXT
  VALUE

000462 50??           00899         MOVF    r0x03, W
000464 6EE5           00900         MOVWF   POSTDEC1
000466 50??           00901         MOVF    r0x02, W
000468 6EE5           00902         MOVWF   POSTDEC1
00046A 50??           00903         MOVF    r0x01, W
00046C 6EE5           00904         MOVWF   POSTDEC1
00046E 50??           00905         MOVF    r0x00, W
000470 6EE5           00906         MOVWF   POSTDEC1
000472 0E44           00907         MOVLW   0x44
000474 6EE5           00908         MOVWF   POSTDEC1
000476 0E79           00909         MOVLW   0x79
000478 6EE5           00910         MOVWF   POSTDEC1
00047A 0EC0           00911         MOVLW   0xc0
00047C 6EE5           00912         MOVWF   POSTDEC1
00047E 0E00           00913         MOVLW   0x00
000480 6EE5           00914         MOVWF   POSTDEC1
000482 EC?? F0??      00915         CALL    ___fslt
000486 6E??           00916         MOVWF   r0x04
000488 0E08           00917         MOVLW   0x08
00048A 26E1           00918         ADDWF   FSR1L, F
00048C B0D8           00919         BTFSC   STATUS, 0
00048E 2AE2           00920         INCF    FSR1H, F
000490 50??           00921         MOVF    r0x04, W
000492 B4D8           00922         BTFSC   STATUS, 2
000494 D???           00923         BRA     _00157_DS_
                      00924 ;       .line   219; ../../../src/measure.c     if(Lin > (999e+03l)) {
000496 50??           00925         MOVF    r0x03, W
000498 6EE5           00926         MOVWF   POSTDEC1
00049A 50??           00927         MOVF    r0x02, W
00049C 6EE5           00928         MOVWF   POSTDEC1
00049E 50??           00929         MOVF    r0x01, W
0004A0 6EE5           00930         MOVWF   POSTDEC1
0004A2 50??           00931         MOVF    r0x00, W
0004A4 6EE5           00932         MOVWF   POSTDEC1
0004A6 0E49           00933         MOVLW   0x49
0004A8 6EE5           00934         MOVWF   POSTDEC1
0004AA 0E73           00935         MOVLW   0x73
0004AC 6EE5           00936         MOVWF   POSTDEC1
0004AE 0EE5           00937         MOVLW   0xe5
0004B0 6EE5           00938         MOVWF   POSTDEC1
0004B2 0E80           00939         MOVLW   0x80
0004B4 6EE5           00940         MOVWF   POSTDEC1
0004B6 EC?? F0??      00941         CALL    ___fslt
0004BA 6E??           00942         MOVWF   r0x04
0004BC 0E08           00943         MOVLW   0x08
0004BE 26E1           00944         ADDWF   FSR1L, F
0004C0 B0D8           00945         BTFSC   STATUS, 0
0004C2 2AE2           00946         INCF    FSR1H, F
0004C4 50??           00947         MOVF    r0x04, W
0004C6 B4D8           00948         BTFSC   STATUS, 2
0004C8 D???           00949         BRA     _00154_DS_
                      00950 ;       .line   220; ../../../src/measure.c     if(Lin > (999e+06l)) {
0004CA 50??           00951         MOVF    r0x03, W
gpasm-1.5.2 #0 (Sep 16 2019) build/default/pr   9-16-2019  13:05:29         PAGE 19


LOC    OBJECT CODE    LINE  SOURCE TEXT
  VALUE

0004CC 6EE5           00952         MOVWF   POSTDEC1
0004CE 50??           00953         MOVF    r0x02, W
0004D0 6EE5           00954         MOVWF   POSTDEC1
0004D2 50??           00955         MOVF    r0x01, W
0004D4 6EE5           00956         MOVWF   POSTDEC1
0004D6 50??           00957         MOVF    r0x00, W
0004D8 6EE5           00958         MOVWF   POSTDEC1
0004DA 0E4E           00959         MOVLW   0x4e
0004DC 6EE5           00960         MOVWF   POSTDEC1
0004DE 0E6E           00961         MOVLW   0x6e
0004E0 6EE5           00962         MOVWF   POSTDEC1
0004E2 0E2E           00963         MOVLW   0x2e
0004E4 6EE5           00964         MOVWF   POSTDEC1
0004E6 0E1F           00965         MOVLW   0x1f
0004E8 6EE5           00966         MOVWF   POSTDEC1
0004EA EC?? F0??      00967         CALL    ___fslt
0004EE 6E??           00968         MOVWF   r0x04
0004F0 0E08           00969         MOVLW   0x08
0004F2 26E1           00970         ADDWF   FSR1L, F
0004F4 B0D8           00971         BTFSC   STATUS, 0
0004F6 2AE2           00972         INCF    FSR1H, F
0004F8 50??           00973         MOVF    r0x04, W
0004FA E0??           00974         BZ      _00151_DS_
                      00975 ;       .line   221; ../../../src/measure.c     Lin = Lin / (1e+09l);
0004FC 0E4E           00976         MOVLW   0x4e
0004FE 6EE5           00977         MOVWF   POSTDEC1
000500 0E6E           00978         MOVLW   0x6e
000502 6EE5           00979         MOVWF   POSTDEC1
000504 0E6B           00980         MOVLW   0x6b
000506 6EE5           00981         MOVWF   POSTDEC1
000508 0E28           00982         MOVLW   0x28
00050A 6EE5           00983         MOVWF   POSTDEC1
00050C 50??           00984         MOVF    r0x03, W
00050E 6EE5           00985         MOVWF   POSTDEC1
000510 50??           00986         MOVF    r0x02, W
000512 6EE5           00987         MOVWF   POSTDEC1
000514 50??           00988         MOVF    r0x01, W
000516 6EE5           00989         MOVWF   POSTDEC1
000518 50??           00990         MOVF    r0x00, W
00051A 6EE5           00991         MOVWF   POSTDEC1
00051C EC?? F0??      00992         CALL    ___fsdiv
000520 6E??           00993         MOVWF   r0x00
000522 CFF3 F000      00994         MOVFF   PRODL, r0x01
000526 CFF4 F000      00995         MOVFF   PRODH, r0x02
00052A CFE9 F000      00996         MOVFF   FSR0L, r0x03
00052E 0E08           00997         MOVLW   0x08
000530 26E1           00998         ADDWF   FSR1L, F
000532 B0D8           00999         BTFSC   STATUS, 0
000534 2AE2           01000         INCF    FSR1H, F
                      01001 ;       .line   222; ../../../src/measure.c     unit = 0; // "H"
000536 6A??           01002         CLRF    r0x04
000538 D???           01003         BRA     _00158_DS_
00053A                01004 _00151_DS_:
gpasm-1.5.2 #0 (Sep 16 2019) build/default/pr   9-16-2019  13:05:29         PAGE 20


LOC    OBJECT CODE    LINE  SOURCE TEXT
  VALUE

                      01005 ;       .line   224; ../../../src/measure.c     Lin = Lin / (1e+06l);
00053A 0E49           01006         MOVLW   0x49
00053C 6EE5           01007         MOVWF   POSTDEC1
00053E 0E74           01008         MOVLW   0x74
000540 6EE5           01009         MOVWF   POSTDEC1
000542 0E24           01010         MOVLW   0x24
000544 6EE5           01011         MOVWF   POSTDEC1
000546 0E00           01012         MOVLW   0x00
000548 6EE5           01013         MOVWF   POSTDEC1
00054A 50??           01014         MOVF    r0x03, W
00054C 6EE5           01015         MOVWF   POSTDEC1
00054E 50??           01016         MOVF    r0x02, W
000550 6EE5           01017         MOVWF   POSTDEC1
000552 50??           01018         MOVF    r0x01, W
000554 6EE5           01019         MOVWF   POSTDEC1
000556 50??           01020         MOVF    r0x00, W
000558 6EE5           01021         MOVWF   POSTDEC1
00055A EC?? F0??      01022         CALL    ___fsdiv
00055E 6E??           01023         MOVWF   r0x00
000560 CFF3 F000      01024         MOVFF   PRODL, r0x01
000564 CFF4 F000      01025         MOVFF   PRODH, r0x02
000568 CFE9 F000      01026         MOVFF   FSR0L, r0x03
00056C 0E08           01027         MOVLW   0x08
00056E 26E1           01028         ADDWF   FSR1L, F
000570 B0D8           01029         BTFSC   STATUS, 0
000572 2AE2           01030         INCF    FSR1H, F
                      01031 ;       .line   225; ../../../src/measure.c     unit = 1; // "mH"
000574 0E01           01032         MOVLW   0x01
000576 6E??           01033         MOVWF   r0x04
000578 D???           01034         BRA     _00158_DS_
00057A                01035 _00154_DS_:
                      01036 ;       .line   228; ../../../src/measure.c     Lin = Lin / 1e+03l;
00057A 0E44           01037         MOVLW   0x44
00057C 6EE5           01038         MOVWF   POSTDEC1
00057E 0E7A           01039         MOVLW   0x7a
000580 6EE5           01040         MOVWF   POSTDEC1
000582 0E00           01041         MOVLW   0x00
000584 6EE5           01042         MOVWF   POSTDEC1
000586 0E00           01043         MOVLW   0x00
000588 6EE5           01044         MOVWF   POSTDEC1
00058A 50??           01045         MOVF    r0x03, W
00058C 6EE5           01046         MOVWF   POSTDEC1
00058E 50??           01047         MOVF    r0x02, W
000590 6EE5           01048         MOVWF   POSTDEC1
000592 50??           01049         MOVF    r0x01, W
000594 6EE5           01050         MOVWF   POSTDEC1
000596 50??           01051         MOVF    r0x00, W
000598 6EE5           01052         MOVWF   POSTDEC1
00059A EC?? F0??      01053         CALL    ___fsdiv
00059E 6E??           01054         MOVWF   r0x00
0005A0 CFF3 F000      01055         MOVFF   PRODL, r0x01
0005A4 CFF4 F000      01056         MOVFF   PRODH, r0x02
0005A8 CFE9 F000      01057         MOVFF   FSR0L, r0x03
gpasm-1.5.2 #0 (Sep 16 2019) build/default/pr   9-16-2019  13:05:29         PAGE 21


LOC    OBJECT CODE    LINE  SOURCE TEXT
  VALUE

0005AC 0E08           01058         MOVLW   0x08
0005AE 26E1           01059         ADDWF   FSR1L, F
0005B0 B0D8           01060         BTFSC   STATUS, 0
0005B2 2AE2           01061         INCF    FSR1H, F
                      01062 ;       .line   229; ../../../src/measure.c     unit = 2; // "uH"
0005B4 0E02           01063         MOVLW   0x02
0005B6 6E??           01064         MOVWF   r0x04
0005B8 D???           01065         BRA     _00158_DS_
0005BA                01066 _00157_DS_:
                      01067 ;       .line   232; ../../../src/measure.c     unit = 3; // "nH"
0005BA 0E03           01068         MOVLW   0x03
0005BC 6E??           01069         MOVWF   r0x04
0005BE                01070 _00158_DS_:
                      01071 ;       .line   234; ../../../src/measure.c     Lin = Lin * 100; // scale to 2 decimal place
0005BE 50??           01072         MOVF    r0x03, W
0005C0 6EE5           01073         MOVWF   POSTDEC1
0005C2 50??           01074         MOVF    r0x02, W
0005C4 6EE5           01075         MOVWF   POSTDEC1
0005C6 50??           01076         MOVF    r0x01, W
0005C8 6EE5           01077         MOVWF   POSTDEC1
0005CA 50??           01078         MOVF    r0x00, W
0005CC 6EE5           01079         MOVWF   POSTDEC1
0005CE 0E42           01080         MOVLW   0x42
0005D0 6EE5           01081         MOVWF   POSTDEC1
0005D2 0EC8           01082         MOVLW   0xc8
0005D4 6EE5           01083         MOVWF   POSTDEC1
0005D6 0E00           01084         MOVLW   0x00
0005D8 6EE5           01085         MOVWF   POSTDEC1
0005DA 0E00           01086         MOVLW   0x00
0005DC 6EE5           01087         MOVWF   POSTDEC1
0005DE EC?? F0??      01088         CALL    ___fsmul
0005E2 6E??           01089         MOVWF   r0x00
0005E4 CFF3 F000      01090         MOVFF   PRODL, r0x01
0005E8 CFF4 F000      01091         MOVFF   PRODH, r0x02
0005EC CFE9 F000      01092         MOVFF   FSR0L, r0x03
0005F0 0E08           01093         MOVLW   0x08
0005F2 26E1           01094         ADDWF   FSR1L, F
0005F4 B0D8           01095         BTFSC   STATUS, 0
0005F6 2AE2           01096         INCF    FSR1H, F
                      01097 ;       .line   235; ../../../src/measure.c     var = (uint16_t)Lin;
0005F8 50??           01098         MOVF    r0x03, W
0005FA 6EE5           01099         MOVWF   POSTDEC1
0005FC 50??           01100         MOVF    r0x02, W
0005FE 6EE5           01101         MOVWF   POSTDEC1
000600 50??           01102         MOVF    r0x01, W
000602 6EE5           01103         MOVWF   POSTDEC1
000604 50??           01104         MOVF    r0x00, W
000606 6EE5           01105         MOVWF   POSTDEC1
000608 EC?? F0??      01106         CALL    ___fs2uint
00060C 6E??           01107         MOVWF   r0x00
00060E CFF3 F000      01108         MOVFF   PRODL, r0x01
000612 0E04           01109         MOVLW   0x04
000614 26E1           01110         ADDWF   FSR1L, F
gpasm-1.5.2 #0 (Sep 16 2019) build/default/pr   9-16-2019  13:05:29         PAGE 22


LOC    OBJECT CODE    LINE  SOURCE TEXT
  VALUE

000616 B0D8           01111         BTFSC   STATUS, 0
000618 2AE2           01112         INCF    FSR1H, F
                      01113 ;       .line   237; ../../../src/measure.c     print_reading(var);
00061A 50??           01114         MOVF    r0x01, W
00061C 6EE5           01115         MOVWF   POSTDEC1
00061E 50??           01116         MOVF    r0x00, W
000620 6EE5           01117         MOVWF   POSTDEC1
000622 EC?? F0??      01118         CALL    _print_reading
000626 52E6           01119         MOVF    POSTINC1, F
000628 52E6           01120         MOVF    POSTINC1, F
                      01121 ;       .line   238; ../../../src/measure.c     print_unit(unit);
00062A 50??           01122         MOVF    r0x04, W
00062C 6EE5           01123         MOVWF   POSTDEC1
00062E EC?? F0??      01124         CALL    _print_unit
000632 52E6           01125         MOVF    POSTINC1, F
                      01126 ;       .line   239; ../../../src/measure.c     }
000634 CFE4 F000      01127         MOVFF   PREINC1, r0x07
000638 CFE4 F000      01128         MOVFF   PREINC1, r0x06
00063C CFE4 F000      01129         MOVFF   PREINC1, r0x05
000640 CFE4 F000      01130         MOVFF   PREINC1, r0x04
000644 CFE4 F000      01131         MOVFF   PREINC1, r0x03
000648 CFE4 F000      01132         MOVFF   PREINC1, r0x02
00064C CFE4 F000      01133         MOVFF   PREINC1, r0x01
000650 CFE4 F000      01134         MOVFF   PREINC1, r0x00
000654 CFE4 FFD9      01135         MOVFF   PREINC1, FSR2L
000658 CFE4 FFDA      01136         MOVFF   PREINC1, FSR2H
00065C 0012           01137         RETURN  
                      01138 
                      01139 ; ; Starting pCode block
                      01140 S_measure__measure_capacitance  code
000000                01141 _measure_capacitance:
                      01142 ;       .line   118; ../../../src/measure.c     measure_capacitance() {
000000 CFDA FFE5      01143         MOVFF   FSR2H, POSTDEC1
000004 CFD9 FFE5      01144         MOVFF   FSR2L, POSTDEC1
000008 CFE2 FFDA      01145         MOVFF   FSR1H, FSR2H
00000C CFE1 FFD9      01146         MOVFF   FSR1L, FSR2L
000010 C??? F???      01147         MOVFF   r0x00, POSTDEC1
000014 C??? F???      01148         MOVFF   r0x01, POSTDEC1
000018 C??? F???      01149         MOVFF   r0x02, POSTDEC1
00001C C??? F???      01150         MOVFF   r0x03, POSTDEC1
000020 C??? F???      01151         MOVFF   r0x04, POSTDEC1
000024 C??? F???      01152         MOVFF   r0x05, POSTDEC1
000028 C??? F???      01153         MOVFF   r0x06, POSTDEC1
00002C C??? F???      01154         MOVFF   r0x07, POSTDEC1
000030 C??? F???      01155         MOVFF   r0x08, POSTDEC1
000034 C??? F???      01156         MOVFF   r0x09, POSTDEC1
000038 C??? F???      01157         MOVFF   r0x0a, POSTDEC1
00003C C??? F???      01158         MOVFF   r0x0b, POSTDEC1
                      01159 ;       .line   126; ../../../src/measure.c     lcd_gotoxy(0, 0);
000040 0E00           01160         MOVLW   0x00
000042 6EE5           01161         MOVWF   POSTDEC1
000044 0E00           01162         MOVLW   0x00
000046 6EE5           01163         MOVWF   POSTDEC1
gpasm-1.5.2 #0 (Sep 16 2019) build/default/pr   9-16-2019  13:05:29         PAGE 23


LOC    OBJECT CODE    LINE  SOURCE TEXT
  VALUE

000048 EC?? F0??      01164         CALL    _lcd_gotoxy
00004C 52E6           01165         MOVF    POSTINC1, F
00004E 52E6           01166         MOVF    POSTINC1, F
                      01167 ;       .line   127; ../../../src/measure.c     put_str("Capacity ");
000050 0E??           01168         MOVLW   HIGH(___str_4)
000052 6E??           01169         MOVWF   r0x01
000054 0E??           01170         MOVLW   LOW(___str_4)
000056 6E??           01171         MOVWF   r0x00
000058 6A??           01172         CLRF    r0x02
00005A 50??           01173         MOVF    r0x02, W
00005C 6EE5           01174         MOVWF   POSTDEC1
00005E 50??           01175         MOVF    r0x01, W
000060 6EE5           01176         MOVWF   POSTDEC1
000062 50??           01177         MOVF    r0x00, W
000064 6EE5           01178         MOVWF   POSTDEC1
000066 EC?? F0??      01179         CALL    _put_str
00006A 0E03           01180         MOVLW   0x03
00006C 26E1           01181         ADDWF   FSR1L, F
00006E B0D8           01182         BTFSC   STATUS, 0
000070 2AE2           01183         INCF    FSR1H, F
                      01184 ;       .line   129; ../../../src/measure.c     var = measure_freq();
000072 EC?? F0??      01185         CALL    _measure_freq
000076 6E??           01186         MOVWF   r0x00
000078 CFF3 F000      01187         MOVFF   PRODL, r0x01
                      01188 ;       .line   131; ../../../src/measure.c     F3 = (double)var;
00007C 50??           01189         MOVF    r0x01, W
00007E 6EE5           01190         MOVWF   POSTDEC1
000080 50??           01191         MOVF    r0x00, W
000082 6EE5           01192         MOVWF   POSTDEC1
000084 EC?? F0??      01193         CALL    ___uint2fs
000088 010?           01194         BANKSEL _F3
00008A 6F??           01195         MOVWF   _F3, B
00008C CFF3 F000      01196         MOVFF   PRODL, (_F3 + 1)
000090 CFF4 F000      01197         MOVFF   PRODH, (_F3 + 2)
000094 CFE9 F000      01198         MOVFF   FSR0L, (_F3 + 3)
000098 52E6           01199         MOVF    POSTINC1, F
00009A 52E6           01200         MOVF    POSTINC1, F
                      01201 ;       .line   154; ../../../src/measure.c     putchar_ptr = &output_putch;
00009C 0E??           01202         MOVLW   LOW(_output_putch)
00009E 010?           01203         BANKSEL _putchar_ptr
0000A0 6F??           01204         MOVWF   _putchar_ptr, B
0000A2 0E??           01205         MOVLW   HIGH(_output_putch)
0000A4 010?           01206         BANKSEL (_putchar_ptr + 1)
0000A6 6F??           01207         MOVWF   (_putchar_ptr + 1), B
0000A8 010?           01208         BANKSEL (_F3 + 3)
                      01209 ;       .line   156; ../../../src/measure.c     if(F3 > F1)
0000AA 51??           01210         MOVF    (_F3 + 3), W, B
0000AC 6EE5           01211         MOVWF   POSTDEC1
0000AE 010?           01212         BANKSEL (_F3 + 2)
0000B0 51??           01213         MOVF    (_F3 + 2), W, B
0000B2 6EE5           01214         MOVWF   POSTDEC1
0000B4 010?           01215         BANKSEL (_F3 + 1)
0000B6 51??           01216         MOVF    (_F3 + 1), W, B
gpasm-1.5.2 #0 (Sep 16 2019) build/default/pr   9-16-2019  13:05:29         PAGE 24


LOC    OBJECT CODE    LINE  SOURCE TEXT
  VALUE

0000B8 6EE5           01217         MOVWF   POSTDEC1
0000BA 010?           01218         BANKSEL _F3
0000BC 51??           01219         MOVF    _F3, W, B
0000BE 6EE5           01220         MOVWF   POSTDEC1
0000C0 010?           01221         BANKSEL (_F1 + 3)
0000C2 51??           01222         MOVF    (_F1 + 3), W, B
0000C4 6EE5           01223         MOVWF   POSTDEC1
0000C6 010?           01224         BANKSEL (_F1 + 2)
0000C8 51??           01225         MOVF    (_F1 + 2), W, B
0000CA 6EE5           01226         MOVWF   POSTDEC1
0000CC 010?           01227         BANKSEL (_F1 + 1)
0000CE 51??           01228         MOVF    (_F1 + 1), W, B
0000D0 6EE5           01229         MOVWF   POSTDEC1
0000D2 010?           01230         BANKSEL _F1
0000D4 51??           01231         MOVF    _F1, W, B
0000D6 6EE5           01232         MOVWF   POSTDEC1
0000D8 EC?? F0??      01233         CALL    ___fslt
0000DC 6E??           01234         MOVWF   r0x00
0000DE 0E08           01235         MOVLW   0x08
0000E0 26E1           01236         ADDWF   FSR1L, F
0000E2 B0D8           01237         BTFSC   STATUS, 0
0000E4 2AE2           01238         INCF    FSR1H, F
0000E6 50??           01239         MOVF    r0x00, W
0000E8 E0??           01240         BZ      _00133_DS_
                      01241 ;       .line   157; ../../../src/measure.c     F3 = F1; // max freq is F1;
0000EA C??? F???      01242         MOVFF   _F1, _F3
0000EE C??? F???      01243         MOVFF   (_F1 + 1), (_F3 + 1)
0000F2 C??? F???      01244         MOVFF   (_F1 + 2), (_F3 + 2)
0000F6 C??? F???      01245         MOVFF   (_F1 + 3), (_F3 + 3)
0000FA                01246 _00133_DS_:
0000FA 010?           01247         BANKSEL (_F2 + 3)
                      01248 ;       .line   159; ../../../src/measure.c     Cin = F2 * F2 * (F1 * F1 - F3 * F3) * CCal;
0000FC 51??           01249         MOVF    (_F2 + 3), W, B
0000FE 6EE5           01250         MOVWF   POSTDEC1
000100 010?           01251         BANKSEL (_F2 + 2)
000102 51??           01252         MOVF    (_F2 + 2), W, B
000104 6EE5           01253         MOVWF   POSTDEC1
000106 010?           01254         BANKSEL (_F2 + 1)
000108 51??           01255         MOVF    (_F2 + 1), W, B
00010A 6EE5           01256         MOVWF   POSTDEC1
00010C 010?           01257         BANKSEL _F2
00010E 51??           01258         MOVF    _F2, W, B
000110 6EE5           01259         MOVWF   POSTDEC1
000112 010?           01260         BANKSEL (_F2 + 3)
000114 51??           01261         MOVF    (_F2 + 3), W, B
000116 6EE5           01262         MOVWF   POSTDEC1
000118 010?           01263         BANKSEL (_F2 + 2)
00011A 51??           01264         MOVF    (_F2 + 2), W, B
00011C 6EE5           01265         MOVWF   POSTDEC1
00011E 010?           01266         BANKSEL (_F2 + 1)
000120 51??           01267         MOVF    (_F2 + 1), W, B
000122 6EE5           01268         MOVWF   POSTDEC1
000124 010?           01269         BANKSEL _F2
gpasm-1.5.2 #0 (Sep 16 2019) build/default/pr   9-16-2019  13:05:29         PAGE 25


LOC    OBJECT CODE    LINE  SOURCE TEXT
  VALUE

000126 51??           01270         MOVF    _F2, W, B
000128 6EE5           01271         MOVWF   POSTDEC1
00012A EC?? F0??      01272         CALL    ___fsmul
00012E 6E??           01273         MOVWF   r0x00
000130 CFF3 F000      01274         MOVFF   PRODL, r0x01
000134 CFF4 F000      01275         MOVFF   PRODH, r0x02
000138 CFE9 F000      01276         MOVFF   FSR0L, r0x03
00013C 0E08           01277         MOVLW   0x08
00013E 26E1           01278         ADDWF   FSR1L, F
000140 B0D8           01279         BTFSC   STATUS, 0
000142 2AE2           01280         INCF    FSR1H, F
000144 010?           01281         BANKSEL (_F1 + 3)
000146 51??           01282         MOVF    (_F1 + 3), W, B
000148 6EE5           01283         MOVWF   POSTDEC1
00014A 010?           01284         BANKSEL (_F1 + 2)
00014C 51??           01285         MOVF    (_F1 + 2), W, B
00014E 6EE5           01286         MOVWF   POSTDEC1
000150 010?           01287         BANKSEL (_F1 + 1)
000152 51??           01288         MOVF    (_F1 + 1), W, B
000154 6EE5           01289         MOVWF   POSTDEC1
000156 010?           01290         BANKSEL _F1
000158 51??           01291         MOVF    _F1, W, B
00015A 6EE5           01292         MOVWF   POSTDEC1
00015C 010?           01293         BANKSEL (_F1 + 3)
00015E 51??           01294         MOVF    (_F1 + 3), W, B
000160 6EE5           01295         MOVWF   POSTDEC1
000162 010?           01296         BANKSEL (_F1 + 2)
000164 51??           01297         MOVF    (_F1 + 2), W, B
000166 6EE5           01298         MOVWF   POSTDEC1
000168 010?           01299         BANKSEL (_F1 + 1)
00016A 51??           01300         MOVF    (_F1 + 1), W, B
00016C 6EE5           01301         MOVWF   POSTDEC1
00016E 010?           01302         BANKSEL _F1
000170 51??           01303         MOVF    _F1, W, B
000172 6EE5           01304         MOVWF   POSTDEC1
000174 EC?? F0??      01305         CALL    ___fsmul
000178 6E??           01306         MOVWF   r0x04
00017A CFF3 F000      01307         MOVFF   PRODL, r0x05
00017E CFF4 F000      01308         MOVFF   PRODH, r0x06
000182 CFE9 F000      01309         MOVFF   FSR0L, r0x07
000186 0E08           01310         MOVLW   0x08
000188 26E1           01311         ADDWF   FSR1L, F
00018A B0D8           01312         BTFSC   STATUS, 0
00018C 2AE2           01313         INCF    FSR1H, F
00018E 010?           01314         BANKSEL (_F3 + 3)
000190 51??           01315         MOVF    (_F3 + 3), W, B
000192 6EE5           01316         MOVWF   POSTDEC1
000194 010?           01317         BANKSEL (_F3 + 2)
000196 51??           01318         MOVF    (_F3 + 2), W, B
000198 6EE5           01319         MOVWF   POSTDEC1
00019A 010?           01320         BANKSEL (_F3 + 1)
00019C 51??           01321         MOVF    (_F3 + 1), W, B
00019E 6EE5           01322         MOVWF   POSTDEC1
gpasm-1.5.2 #0 (Sep 16 2019) build/default/pr   9-16-2019  13:05:29         PAGE 26


LOC    OBJECT CODE    LINE  SOURCE TEXT
  VALUE

0001A0 010?           01323         BANKSEL _F3
0001A2 51??           01324         MOVF    _F3, W, B
0001A4 6EE5           01325         MOVWF   POSTDEC1
0001A6 010?           01326         BANKSEL (_F3 + 3)
0001A8 51??           01327         MOVF    (_F3 + 3), W, B
0001AA 6EE5           01328         MOVWF   POSTDEC1
0001AC 010?           01329         BANKSEL (_F3 + 2)
0001AE 51??           01330         MOVF    (_F3 + 2), W, B
0001B0 6EE5           01331         MOVWF   POSTDEC1
0001B2 010?           01332         BANKSEL (_F3 + 1)
0001B4 51??           01333         MOVF    (_F3 + 1), W, B
0001B6 6EE5           01334         MOVWF   POSTDEC1
0001B8 010?           01335         BANKSEL _F3
0001BA 51??           01336         MOVF    _F3, W, B
0001BC 6EE5           01337         MOVWF   POSTDEC1
0001BE EC?? F0??      01338         CALL    ___fsmul
0001C2 6E??           01339         MOVWF   r0x08
0001C4 CFF3 F000      01340         MOVFF   PRODL, r0x09
0001C8 CFF4 F000      01341         MOVFF   PRODH, r0x0a
0001CC CFE9 F000      01342         MOVFF   FSR0L, r0x0b
0001D0 0E08           01343         MOVLW   0x08
0001D2 26E1           01344         ADDWF   FSR1L, F
0001D4 B0D8           01345         BTFSC   STATUS, 0
0001D6 2AE2           01346         INCF    FSR1H, F
0001D8 50??           01347         MOVF    r0x0b, W
0001DA 6EE5           01348         MOVWF   POSTDEC1
0001DC 50??           01349         MOVF    r0x0a, W
0001DE 6EE5           01350         MOVWF   POSTDEC1
0001E0 50??           01351         MOVF    r0x09, W
0001E2 6EE5           01352         MOVWF   POSTDEC1
0001E4 50??           01353         MOVF    r0x08, W
0001E6 6EE5           01354         MOVWF   POSTDEC1
0001E8 50??           01355         MOVF    r0x07, W
0001EA 6EE5           01356         MOVWF   POSTDEC1
0001EC 50??           01357         MOVF    r0x06, W
0001EE 6EE5           01358         MOVWF   POSTDEC1
0001F0 50??           01359         MOVF    r0x05, W
0001F2 6EE5           01360         MOVWF   POSTDEC1
0001F4 50??           01361         MOVF    r0x04, W
0001F6 6EE5           01362         MOVWF   POSTDEC1
0001F8 EC?? F0??      01363         CALL    ___fssub
0001FC 6E??           01364         MOVWF   r0x04
0001FE CFF3 F000      01365         MOVFF   PRODL, r0x05
000202 CFF4 F000      01366         MOVFF   PRODH, r0x06
000206 CFE9 F000      01367         MOVFF   FSR0L, r0x07
00020A 0E08           01368         MOVLW   0x08
00020C 26E1           01369         ADDWF   FSR1L, F
00020E B0D8           01370         BTFSC   STATUS, 0
000210 2AE2           01371         INCF    FSR1H, F
000212 50??           01372         MOVF    r0x07, W
000214 6EE5           01373         MOVWF   POSTDEC1
000216 50??           01374         MOVF    r0x06, W
000218 6EE5           01375         MOVWF   POSTDEC1
gpasm-1.5.2 #0 (Sep 16 2019) build/default/pr   9-16-2019  13:05:29         PAGE 27


LOC    OBJECT CODE    LINE  SOURCE TEXT
  VALUE

00021A 50??           01376         MOVF    r0x05, W
00021C 6EE5           01377         MOVWF   POSTDEC1
00021E 50??           01378         MOVF    r0x04, W
000220 6EE5           01379         MOVWF   POSTDEC1
000222 50??           01380         MOVF    r0x03, W
000224 6EE5           01381         MOVWF   POSTDEC1
000226 50??           01382         MOVF    r0x02, W
000228 6EE5           01383         MOVWF   POSTDEC1
00022A 50??           01384         MOVF    r0x01, W
00022C 6EE5           01385         MOVWF   POSTDEC1
00022E 50??           01386         MOVF    r0x00, W
000230 6EE5           01387         MOVWF   POSTDEC1
000232 EC?? F0??      01388         CALL    ___fsmul
000236 6E??           01389         MOVWF   r0x00
000238 CFF3 F000      01390         MOVFF   PRODL, r0x01
00023C CFF4 F000      01391         MOVFF   PRODH, r0x02
000240 CFE9 F000      01392         MOVFF   FSR0L, r0x03
000244 0E08           01393         MOVLW   0x08
000246 26E1           01394         ADDWF   FSR1L, F
000248 B0D8           01395         BTFSC   STATUS, 0
00024A 2AE2           01396         INCF    FSR1H, F
00024C 010?           01397         BANKSEL (_CCal + 3)
00024E 51??           01398         MOVF    (_CCal + 3), W, B
000250 6EE5           01399         MOVWF   POSTDEC1
000252 010?           01400         BANKSEL (_CCal + 2)
000254 51??           01401         MOVF    (_CCal + 2), W, B
000256 6EE5           01402         MOVWF   POSTDEC1
000258 010?           01403         BANKSEL (_CCal + 1)
00025A 51??           01404         MOVF    (_CCal + 1), W, B
00025C 6EE5           01405         MOVWF   POSTDEC1
00025E 010?           01406         BANKSEL _CCal
000260 51??           01407         MOVF    _CCal, W, B
000262 6EE5           01408         MOVWF   POSTDEC1
000264 50??           01409         MOVF    r0x03, W
000266 6EE5           01410         MOVWF   POSTDEC1
000268 50??           01411         MOVF    r0x02, W
00026A 6EE5           01412         MOVWF   POSTDEC1
00026C 50??           01413         MOVF    r0x01, W
00026E 6EE5           01414         MOVWF   POSTDEC1
000270 50??           01415         MOVF    r0x00, W
000272 6EE5           01416         MOVWF   POSTDEC1
000274 EC?? F0??      01417         CALL    ___fsmul
000278 6E??           01418         MOVWF   r0x00
00027A CFF3 F000      01419         MOVFF   PRODL, r0x01
00027E CFF4 F000      01420         MOVFF   PRODH, r0x02
000282 CFE9 F000      01421         MOVFF   FSR0L, r0x03
000286 0E08           01422         MOVLW   0x08
000288 26E1           01423         ADDWF   FSR1L, F
00028A B0D8           01424         BTFSC   STATUS, 0
00028C 2AE2           01425         INCF    FSR1H, F
                      01426 ;       .line   169; ../../../src/measure.c     if(Cin > 999) {
00028E 50??           01427         MOVF    r0x03, W
000290 6EE5           01428         MOVWF   POSTDEC1
gpasm-1.5.2 #0 (Sep 16 2019) build/default/pr   9-16-2019  13:05:29         PAGE 28


LOC    OBJECT CODE    LINE  SOURCE TEXT
  VALUE

000292 50??           01429         MOVF    r0x02, W
000294 6EE5           01430         MOVWF   POSTDEC1
000296 50??           01431         MOVF    r0x01, W
000298 6EE5           01432         MOVWF   POSTDEC1
00029A 50??           01433         MOVF    r0x00, W
00029C 6EE5           01434         MOVWF   POSTDEC1
00029E 0E44           01435         MOVLW   0x44
0002A0 6EE5           01436         MOVWF   POSTDEC1
0002A2 0E79           01437         MOVLW   0x79
0002A4 6EE5           01438         MOVWF   POSTDEC1
0002A6 0EC0           01439         MOVLW   0xc0
0002A8 6EE5           01440         MOVWF   POSTDEC1
0002AA 0E00           01441         MOVLW   0x00
0002AC 6EE5           01442         MOVWF   POSTDEC1
0002AE EC?? F0??      01443         CALL    ___fslt
0002B2 6E??           01444         MOVWF   r0x04
0002B4 0E08           01445         MOVLW   0x08
0002B6 26E1           01446         ADDWF   FSR1L, F
0002B8 B0D8           01447         BTFSC   STATUS, 0
0002BA 2AE2           01448         INCF    FSR1H, F
0002BC 50??           01449         MOVF    r0x04, W
0002BE B4D8           01450         BTFSC   STATUS, 2
0002C0 D???           01451         BRA     _00141_DS_
                      01452 ;       .line   170; ../../../src/measure.c     if(Cin > (999e+03l)) {
0002C2 50??           01453         MOVF    r0x03, W
0002C4 6EE5           01454         MOVWF   POSTDEC1
0002C6 50??           01455         MOVF    r0x02, W
0002C8 6EE5           01456         MOVWF   POSTDEC1
0002CA 50??           01457         MOVF    r0x01, W
0002CC 6EE5           01458         MOVWF   POSTDEC1
0002CE 50??           01459         MOVF    r0x00, W
0002D0 6EE5           01460         MOVWF   POSTDEC1
0002D2 0E49           01461         MOVLW   0x49
0002D4 6EE5           01462         MOVWF   POSTDEC1
0002D6 0E73           01463         MOVLW   0x73
0002D8 6EE5           01464         MOVWF   POSTDEC1
0002DA 0EE5           01465         MOVLW   0xe5
0002DC 6EE5           01466         MOVWF   POSTDEC1
0002DE 0E80           01467         MOVLW   0x80
0002E0 6EE5           01468         MOVWF   POSTDEC1
0002E2 EC?? F0??      01469         CALL    ___fslt
0002E6 6E??           01470         MOVWF   r0x04
0002E8 0E08           01471         MOVLW   0x08
0002EA 26E1           01472         ADDWF   FSR1L, F
0002EC B0D8           01473         BTFSC   STATUS, 0
0002EE 2AE2           01474         INCF    FSR1H, F
0002F0 50??           01475         MOVF    r0x04, W
0002F2 B4D8           01476         BTFSC   STATUS, 2
0002F4 D???           01477         BRA     _00138_DS_
                      01478 ;       .line   171; ../../../src/measure.c     if(Cin > (999e+06l)) {
0002F6 50??           01479         MOVF    r0x03, W
0002F8 6EE5           01480         MOVWF   POSTDEC1
0002FA 50??           01481         MOVF    r0x02, W
gpasm-1.5.2 #0 (Sep 16 2019) build/default/pr   9-16-2019  13:05:29         PAGE 29


LOC    OBJECT CODE    LINE  SOURCE TEXT
  VALUE

0002FC 6EE5           01482         MOVWF   POSTDEC1
0002FE 50??           01483         MOVF    r0x01, W
000300 6EE5           01484         MOVWF   POSTDEC1
000302 50??           01485         MOVF    r0x00, W
000304 6EE5           01486         MOVWF   POSTDEC1
000306 0E4E           01487         MOVLW   0x4e
000308 6EE5           01488         MOVWF   POSTDEC1
00030A 0E6E           01489         MOVLW   0x6e
00030C 6EE5           01490         MOVWF   POSTDEC1
00030E 0E2E           01491         MOVLW   0x2e
000310 6EE5           01492         MOVWF   POSTDEC1
000312 0E1F           01493         MOVLW   0x1f
000314 6EE5           01494         MOVWF   POSTDEC1
000316 EC?? F0??      01495         CALL    ___fslt
00031A 6E??           01496         MOVWF   r0x04
00031C 0E08           01497         MOVLW   0x08
00031E 26E1           01498         ADDWF   FSR1L, F
000320 B0D8           01499         BTFSC   STATUS, 0
000322 2AE2           01500         INCF    FSR1H, F
000324 50??           01501         MOVF    r0x04, W
000326 E0??           01502         BZ      _00135_DS_
                      01503 ;       .line   172; ../../../src/measure.c     Cin = Cin / (1e+09);
000328 0E4E           01504         MOVLW   0x4e
00032A 6EE5           01505         MOVWF   POSTDEC1
00032C 0E6E           01506         MOVLW   0x6e
00032E 6EE5           01507         MOVWF   POSTDEC1
000330 0E6B           01508         MOVLW   0x6b
000332 6EE5           01509         MOVWF   POSTDEC1
000334 0E28           01510         MOVLW   0x28
000336 6EE5           01511         MOVWF   POSTDEC1
000338 50??           01512         MOVF    r0x03, W
00033A 6EE5           01513         MOVWF   POSTDEC1
00033C 50??           01514         MOVF    r0x02, W
00033E 6EE5           01515         MOVWF   POSTDEC1
000340 50??           01516         MOVF    r0x01, W
000342 6EE5           01517         MOVWF   POSTDEC1
000344 50??           01518         MOVF    r0x00, W
000346 6EE5           01519         MOVWF   POSTDEC1
000348 EC?? F0??      01520         CALL    ___fsdiv
00034C 6E??           01521         MOVWF   r0x00
00034E CFF3 F000      01522         MOVFF   PRODL, r0x01
000352 CFF4 F000      01523         MOVFF   PRODH, r0x02
000356 CFE9 F000      01524         MOVFF   FSR0L, r0x03
00035A 0E08           01525         MOVLW   0x08
00035C 26E1           01526         ADDWF   FSR1L, F
00035E B0D8           01527         BTFSC   STATUS, 0
000360 2AE2           01528         INCF    FSR1H, F
                      01529 ;       .line   173; ../../../src/measure.c     unit = 4; //"mF"
000362 0E04           01530         MOVLW   0x04
000364 6E??           01531         MOVWF   r0x04
000366 D???           01532         BRA     _00142_DS_
000368                01533 _00135_DS_:
                      01534 ;       .line   175; ../../../src/measure.c     Cin = Cin / (1e+06);
gpasm-1.5.2 #0 (Sep 16 2019) build/default/pr   9-16-2019  13:05:29         PAGE 30


LOC    OBJECT CODE    LINE  SOURCE TEXT
  VALUE

000368 0E49           01535         MOVLW   0x49
00036A 6EE5           01536         MOVWF   POSTDEC1
00036C 0E74           01537         MOVLW   0x74
00036E 6EE5           01538         MOVWF   POSTDEC1
000370 0E24           01539         MOVLW   0x24
000372 6EE5           01540         MOVWF   POSTDEC1
000374 0E00           01541         MOVLW   0x00
000376 6EE5           01542         MOVWF   POSTDEC1
000378 50??           01543         MOVF    r0x03, W
00037A 6EE5           01544         MOVWF   POSTDEC1
00037C 50??           01545         MOVF    r0x02, W
00037E 6EE5           01546         MOVWF   POSTDEC1
000380 50??           01547         MOVF    r0x01, W
000382 6EE5           01548         MOVWF   POSTDEC1
000384 50??           01549         MOVF    r0x00, W
000386 6EE5           01550         MOVWF   POSTDEC1
000388 EC?? F0??      01551         CALL    ___fsdiv
00038C 6E??           01552         MOVWF   r0x00
00038E CFF3 F000      01553         MOVFF   PRODL, r0x01
000392 CFF4 F000      01554         MOVFF   PRODH, r0x02
000396 CFE9 F000      01555         MOVFF   FSR0L, r0x03
00039A 0E08           01556         MOVLW   0x08
00039C 26E1           01557         ADDWF   FSR1L, F
00039E B0D8           01558         BTFSC   STATUS, 0
0003A0 2AE2           01559         INCF    FSR1H, F
                      01560 ;       .line   176; ../../../src/measure.c     unit = 5; //"uF"
0003A2 0E05           01561         MOVLW   0x05
0003A4 6E??           01562         MOVWF   r0x04
0003A6 D???           01563         BRA     _00142_DS_
0003A8                01564 _00138_DS_:
                      01565 ;       .line   179; ../../../src/measure.c     Cin = Cin / 1e+03;
0003A8 0E44           01566         MOVLW   0x44
0003AA 6EE5           01567         MOVWF   POSTDEC1
0003AC 0E7A           01568         MOVLW   0x7a
0003AE 6EE5           01569         MOVWF   POSTDEC1
0003B0 0E00           01570         MOVLW   0x00
0003B2 6EE5           01571         MOVWF   POSTDEC1
0003B4 0E00           01572         MOVLW   0x00
0003B6 6EE5           01573         MOVWF   POSTDEC1
0003B8 50??           01574         MOVF    r0x03, W
0003BA 6EE5           01575         MOVWF   POSTDEC1
0003BC 50??           01576         MOVF    r0x02, W
0003BE 6EE5           01577         MOVWF   POSTDEC1
0003C0 50??           01578         MOVF    r0x01, W
0003C2 6EE5           01579         MOVWF   POSTDEC1
0003C4 50??           01580         MOVF    r0x00, W
0003C6 6EE5           01581         MOVWF   POSTDEC1
0003C8 EC?? F0??      01582         CALL    ___fsdiv
0003CC 6E??           01583         MOVWF   r0x00
0003CE CFF3 F000      01584         MOVFF   PRODL, r0x01
0003D2 CFF4 F000      01585         MOVFF   PRODH, r0x02
0003D6 CFE9 F000      01586         MOVFF   FSR0L, r0x03
0003DA 0E08           01587         MOVLW   0x08
gpasm-1.5.2 #0 (Sep 16 2019) build/default/pr   9-16-2019  13:05:29         PAGE 31


LOC    OBJECT CODE    LINE  SOURCE TEXT
  VALUE

0003DC 26E1           01588         ADDWF   FSR1L, F
0003DE B0D8           01589         BTFSC   STATUS, 0
0003E0 2AE2           01590         INCF    FSR1H, F
                      01591 ;       .line   180; ../../../src/measure.c     unit = 6; //"nF"
0003E2 0E06           01592         MOVLW   0x06
0003E4 6E??           01593         MOVWF   r0x04
0003E6 D???           01594         BRA     _00142_DS_
0003E8                01595 _00141_DS_:
                      01596 ;       .line   183; ../../../src/measure.c     unit = 7; //"pF"
0003E8 0E07           01597         MOVLW   0x07
0003EA 6E??           01598         MOVWF   r0x04
0003EC                01599 _00142_DS_:
                      01600 ;       .line   185; ../../../src/measure.c     Cin = Cin * 100; // scale to 2 decimal place
0003EC 50??           01601         MOVF    r0x03, W
0003EE 6EE5           01602         MOVWF   POSTDEC1
0003F0 50??           01603         MOVF    r0x02, W
0003F2 6EE5           01604         MOVWF   POSTDEC1
0003F4 50??           01605         MOVF    r0x01, W
0003F6 6EE5           01606         MOVWF   POSTDEC1
0003F8 50??           01607         MOVF    r0x00, W
0003FA 6EE5           01608         MOVWF   POSTDEC1
0003FC 0E42           01609         MOVLW   0x42
0003FE 6EE5           01610         MOVWF   POSTDEC1
000400 0EC8           01611         MOVLW   0xc8
000402 6EE5           01612         MOVWF   POSTDEC1
000404 0E00           01613         MOVLW   0x00
000406 6EE5           01614         MOVWF   POSTDEC1
000408 0E00           01615         MOVLW   0x00
00040A 6EE5           01616         MOVWF   POSTDEC1
00040C EC?? F0??      01617         CALL    ___fsmul
000410 6E??           01618         MOVWF   r0x00
000412 CFF3 F000      01619         MOVFF   PRODL, r0x01
000416 CFF4 F000      01620         MOVFF   PRODH, r0x02
00041A CFE9 F000      01621         MOVFF   FSR0L, r0x03
00041E 0E08           01622         MOVLW   0x08
000420 26E1           01623         ADDWF   FSR1L, F
000422 B0D8           01624         BTFSC   STATUS, 0
000424 2AE2           01625         INCF    FSR1H, F
                      01626 ;       .line   186; ../../../src/measure.c     var = (uint16_t)Cin;
000426 50??           01627         MOVF    r0x03, W
000428 6EE5           01628         MOVWF   POSTDEC1
00042A 50??           01629         MOVF    r0x02, W
00042C 6EE5           01630         MOVWF   POSTDEC1
00042E 50??           01631         MOVF    r0x01, W
000430 6EE5           01632         MOVWF   POSTDEC1
000432 50??           01633         MOVF    r0x00, W
000434 6EE5           01634         MOVWF   POSTDEC1
000436 EC?? F0??      01635         CALL    ___fs2uint
00043A 6E??           01636         MOVWF   r0x00
00043C CFF3 F000      01637         MOVFF   PRODL, r0x01
000440 0E04           01638         MOVLW   0x04
000442 26E1           01639         ADDWF   FSR1L, F
000444 B0D8           01640         BTFSC   STATUS, 0
gpasm-1.5.2 #0 (Sep 16 2019) build/default/pr   9-16-2019  13:05:29         PAGE 32


LOC    OBJECT CODE    LINE  SOURCE TEXT
  VALUE

000446 2AE2           01641         INCF    FSR1H, F
                      01642 ;       .line   188; ../../../src/measure.c     print_reading(var);
000448 50??           01643         MOVF    r0x01, W
00044A 6EE5           01644         MOVWF   POSTDEC1
00044C 50??           01645         MOVF    r0x00, W
00044E 6EE5           01646         MOVWF   POSTDEC1
000450 EC?? F0??      01647         CALL    _print_reading
000454 52E6           01648         MOVF    POSTINC1, F
000456 52E6           01649         MOVF    POSTINC1, F
                      01650 ;       .line   189; ../../../src/measure.c     print_unit(unit);
000458 50??           01651         MOVF    r0x04, W
00045A 6EE5           01652         MOVWF   POSTDEC1
00045C EC?? F0??      01653         CALL    _print_unit
000460 52E6           01654         MOVF    POSTINC1, F
                      01655 ;       .line   190; ../../../src/measure.c     }
000462 CFE4 F000      01656         MOVFF   PREINC1, r0x0b
000466 CFE4 F000      01657         MOVFF   PREINC1, r0x0a
00046A CFE4 F000      01658         MOVFF   PREINC1, r0x09
00046E CFE4 F000      01659         MOVFF   PREINC1, r0x08
000472 CFE4 F000      01660         MOVFF   PREINC1, r0x07
000476 CFE4 F000      01661         MOVFF   PREINC1, r0x06
00047A CFE4 F000      01662         MOVFF   PREINC1, r0x05
00047E CFE4 F000      01663         MOVFF   PREINC1, r0x04
000482 CFE4 F000      01664         MOVFF   PREINC1, r0x03
000486 CFE4 F000      01665         MOVFF   PREINC1, r0x02
00048A CFE4 F000      01666         MOVFF   PREINC1, r0x01
00048E CFE4 F000      01667         MOVFF   PREINC1, r0x00
000492 CFE4 FFD9      01668         MOVFF   PREINC1, FSR2L
000496 CFE4 FFDA      01669         MOVFF   PREINC1, FSR2H
00049A 0012           01670         RETURN  
                      01671 
                      01672 ; ; Starting pCode block
                      01673 S_measure__measure_freq code
000000                01674 _measure_freq:
                      01675 ;       .line   69; ../../../src/measure.c      measure_freq() {
000000 CFDA FFE5      01676         MOVFF   FSR2H, POSTDEC1
000004 CFD9 FFE5      01677         MOVFF   FSR2L, POSTDEC1
000008 CFE2 FFDA      01678         MOVFF   FSR1H, FSR2H
00000C CFE1 FFD9      01679         MOVFF   FSR1L, FSR2L
000010 C??? F???      01680         MOVFF   r0x00, POSTDEC1
000014 C??? F???      01681         MOVFF   r0x01, POSTDEC1
000018 C??? F???      01682         MOVFF   r0x02, POSTDEC1
00001C C??? F???      01683         MOVFF   r0x03, POSTDEC1
000020 C??? F???      01684         MOVFF   r0x04, POSTDEC1
                      01685 ;       .line   72; ../../../src/measure.c      INTCON &= ~0b100; // TMR0IF = 0;
000024 94??           01686         BCF     _INTCON, 2
                      01687 ;       .line   76; ../../../src/measure.c      TRISA &= ~0b00010000;
000026 98??           01688         BCF     _TRISA, 4
                      01689 ;       .line   78; ../../../src/measure.c      __delay_ms(20); // stablize oscillator
000028 0E00           01690         MOVLW   0x00
00002A 6EE5           01691         MOVWF   POSTDEC1
00002C 0E14           01692         MOVLW   0x14
00002E 6EE5           01693         MOVWF   POSTDEC1
gpasm-1.5.2 #0 (Sep 16 2019) build/default/pr   9-16-2019  13:05:29         PAGE 33


LOC    OBJECT CODE    LINE  SOURCE TEXT
  VALUE

000030 EC?? F0??      01694         CALL    _delay_ms
000034 52E6           01695         MOVF    POSTINC1, F
000036 52E6           01696         MOVF    POSTINC1, F
                      01697 ;       .line   81; ../../../src/measure.c      TMR0 = 0x00;
000038 6A??           01698         CLRF    _TMR0
                      01699 ;       .line   83; ../../../src/measure.c      SET_LED(1);
00003A 92??           01700         BCF     _LATC, 1
00003C 82??           01701         BSF     _LATC, 1
                      01702 ;       .line   86; ../../../src/measure.c      __delay_ms(10);
00003E 0E00           01703         MOVLW   0x00
000040 6EE5           01704         MOVWF   POSTDEC1
000042 0E0A           01705         MOVLW   0x0a
000044 6EE5           01706         MOVWF   POSTDEC1
000046 EC?? F0??      01707         CALL    _delay_ms
00004A 52E6           01708         MOVF    POSTINC1, F
00004C 52E6           01709         MOVF    POSTINC1, F
                      01710 ;       .line   87; ../../../src/measure.c      __delay_ms(10);
00004E 0E00           01711         MOVLW   0x00
000050 6EE5           01712         MOVWF   POSTDEC1
000052 0E0A           01713         MOVLW   0x0a
000054 6EE5           01714         MOVWF   POSTDEC1
000056 EC?? F0??      01715         CALL    _delay_ms
00005A 52E6           01716         MOVF    POSTINC1, F
00005C 52E6           01717         MOVF    POSTINC1, F
                      01718 ;       .line   88; ../../../src/measure.c      __delay_ms(10);
00005E 0E00           01719         MOVLW   0x00
000060 6EE5           01720         MOVWF   POSTDEC1
000062 0E0A           01721         MOVLW   0x0a
000064 6EE5           01722         MOVWF   POSTDEC1
000066 EC?? F0??      01723         CALL    _delay_ms
00006A 52E6           01724         MOVF    POSTINC1, F
00006C 52E6           01725         MOVF    POSTINC1, F
                      01726 ;       .line   89; ../../../src/measure.c      __delay_ms(10);
00006E 0E00           01727         MOVLW   0x00
000070 6EE5           01728         MOVWF   POSTDEC1
000072 0E0A           01729         MOVLW   0x0a
000074 6EE5           01730         MOVWF   POSTDEC1
000076 EC?? F0??      01731         CALL    _delay_ms
00007A 52E6           01732         MOVF    POSTINC1, F
00007C 52E6           01733         MOVF    POSTINC1, F
                      01734 ;       .line   90; ../../../src/measure.c      __delay_ms(10);
00007E 0E00           01735         MOVLW   0x00
000080 6EE5           01736         MOVWF   POSTDEC1
000082 0E0A           01737         MOVLW   0x0a
000084 6EE5           01738         MOVWF   POSTDEC1
000086 EC?? F0??      01739         CALL    _delay_ms
00008A 52E6           01740         MOVF    POSTINC1, F
00008C 52E6           01741         MOVF    POSTINC1, F
                      01742 ;       .line   91; ../../../src/measure.c      __delay_ms(10);
00008E 0E00           01743         MOVLW   0x00
000090 6EE5           01744         MOVWF   POSTDEC1
000092 0E0A           01745         MOVLW   0x0a
000094 6EE5           01746         MOVWF   POSTDEC1
gpasm-1.5.2 #0 (Sep 16 2019) build/default/pr   9-16-2019  13:05:29         PAGE 34


LOC    OBJECT CODE    LINE  SOURCE TEXT
  VALUE

000096 EC?? F0??      01747         CALL    _delay_ms
00009A 52E6           01748         MOVF    POSTINC1, F
00009C 52E6           01749         MOVF    POSTINC1, F
                      01750 ;       .line   92; ../../../src/measure.c      __delay_ms(10);
00009E 0E00           01751         MOVLW   0x00
0000A0 6EE5           01752         MOVWF   POSTDEC1
0000A2 0E0A           01753         MOVLW   0x0a
0000A4 6EE5           01754         MOVWF   POSTDEC1
0000A6 EC?? F0??      01755         CALL    _delay_ms
0000AA 52E6           01756         MOVF    POSTINC1, F
0000AC 52E6           01757         MOVF    POSTINC1, F
                      01758 ;       .line   93; ../../../src/measure.c      __delay_ms(10);
0000AE 0E00           01759         MOVLW   0x00
0000B0 6EE5           01760         MOVWF   POSTDEC1
0000B2 0E0A           01761         MOVLW   0x0a
0000B4 6EE5           01762         MOVWF   POSTDEC1
0000B6 EC?? F0??      01763         CALL    _delay_ms
0000BA 52E6           01764         MOVF    POSTINC1, F
0000BC 52E6           01765         MOVF    POSTINC1, F
                      01766 ;       .line   94; ../../../src/measure.c      __delay_ms(10);
0000BE 0E00           01767         MOVLW   0x00
0000C0 6EE5           01768         MOVWF   POSTDEC1
0000C2 0E0A           01769         MOVLW   0x0a
0000C4 6EE5           01770         MOVWF   POSTDEC1
0000C6 EC?? F0??      01771         CALL    _delay_ms
0000CA 52E6           01772         MOVF    POSTINC1, F
0000CC 52E6           01773         MOVF    POSTINC1, F
                      01774 ;       .line   95; ../../../src/measure.c      __delay_ms(10);
0000CE 0E00           01775         MOVLW   0x00
0000D0 6EE5           01776         MOVWF   POSTDEC1
0000D2 0E0A           01777         MOVLW   0x0a
0000D4 6EE5           01778         MOVWF   POSTDEC1
0000D6 EC?? F0??      01779         CALL    _delay_ms
0000DA 52E6           01780         MOVF    POSTINC1, F
0000DC 52E6           01781         MOVF    POSTINC1, F
                      01782 ;       .line   97; ../../../src/measure.c      SET_LED(0);
0000DE 92??           01783         BCF     _LATC, 1
                      01784 ;       .line   100; ../../../src/measure.c     TRISA |= 0b00010000;
0000E0 88??           01785         BSF     _TRISA, 4
                      01786 ;       .line   103; ../../../src/measure.c     count = timer0_read_ps();
0000E2 EC?? F0??      01787         CALL    _timer0_read_ps
0000E6 6E??           01788         MOVWF   r0x00
0000E8 CFF3 F000      01789         MOVFF   PRODL, r0x01
                      01790 ;       .line   106; ../../../src/measure.c     lcd_gotoxy(0, 1);
0000EC 0E01           01791         MOVLW   0x01
0000EE 6EE5           01792         MOVWF   POSTDEC1
0000F0 0E00           01793         MOVLW   0x00
0000F2 6EE5           01794         MOVWF   POSTDEC1
0000F4 EC?? F0??      01795         CALL    _lcd_gotoxy
0000F8 52E6           01796         MOVF    POSTINC1, F
0000FA 52E6           01797         MOVF    POSTINC1, F
                      01798 ;       .line   107; ../../../src/measure.c     put_str("Freq=");
0000FC 0E??           01799         MOVLW   HIGH(___str_3)
gpasm-1.5.2 #0 (Sep 16 2019) build/default/pr   9-16-2019  13:05:29         PAGE 35


LOC    OBJECT CODE    LINE  SOURCE TEXT
  VALUE

0000FE 6E??           01800         MOVWF   r0x03
000100 0E??           01801         MOVLW   LOW(___str_3)
000102 6E??           01802         MOVWF   r0x02
000104 6A??           01803         CLRF    r0x04
000106 50??           01804         MOVF    r0x04, W
000108 6EE5           01805         MOVWF   POSTDEC1
00010A 50??           01806         MOVF    r0x03, W
00010C 6EE5           01807         MOVWF   POSTDEC1
00010E 50??           01808         MOVF    r0x02, W
000110 6EE5           01809         MOVWF   POSTDEC1
000112 EC?? F0??      01810         CALL    _put_str
000116 0E03           01811         MOVLW   0x03
000118 26E1           01812         ADDWF   FSR1L, F
00011A B0D8           01813         BTFSC   STATUS, 0
00011C 2AE2           01814         INCF    FSR1H, F
                      01815 ;       .line   108; ../../../src/measure.c     format_number(/*lcd_putch,*/ count, 10, 5);
00011E 0E05           01816         MOVLW   0x05
000120 6EE5           01817         MOVWF   POSTDEC1
000122 0E0A           01818         MOVLW   0x0a
000124 6EE5           01819         MOVWF   POSTDEC1
000126 50??           01820         MOVF    r0x01, W
000128 6EE5           01821         MOVWF   POSTDEC1
00012A 50??           01822         MOVF    r0x00, W
00012C 6EE5           01823         MOVWF   POSTDEC1
00012E EC?? F0??      01824         CALL    _format_number
000132 0E04           01825         MOVLW   0x04
000134 26E1           01826         ADDWF   FSR1L, F
000136 B0D8           01827         BTFSC   STATUS, 0
000138 2AE2           01828         INCF    FSR1H, F
                      01829 ;       .line   111; ../../../src/measure.c     return count;
00013A C??? F???      01830         MOVFF   r0x01, PRODL
00013E 50??           01831         MOVF    r0x00, W
                      01832 ;       .line   112; ../../../src/measure.c     }
000140 CFE4 F000      01833         MOVFF   PREINC1, r0x04
000144 CFE4 F000      01834         MOVFF   PREINC1, r0x03
000148 CFE4 F000      01835         MOVFF   PREINC1, r0x02
00014C CFE4 F000      01836         MOVFF   PREINC1, r0x01
000150 CFE4 F000      01837         MOVFF   PREINC1, r0x00
000154 CFE4 FFD9      01838         MOVFF   PREINC1, FSR2L
000158 CFE4 FFDA      01839         MOVFF   PREINC1, FSR2H
00015C 0012           01840         RETURN  
                      01841 
                      01842 ; ; Starting pCode block
                      01843 S_measure__calibrate    code
000000                01844 _calibrate:
                      01845 ;       .line   24; ../../../src/measure.c      calibrate() {
000000 CFDA FFE5      01846         MOVFF   FSR2H, POSTDEC1
000004 CFD9 FFE5      01847         MOVFF   FSR2L, POSTDEC1
000008 CFE2 FFDA      01848         MOVFF   FSR1H, FSR2H
00000C CFE1 FFD9      01849         MOVFF   FSR1L, FSR2L
000010 C??? F???      01850         MOVFF   r0x00, POSTDEC1
000014 C??? F???      01851         MOVFF   r0x01, POSTDEC1
000018 C??? F???      01852         MOVFF   r0x02, POSTDEC1
gpasm-1.5.2 #0 (Sep 16 2019) build/default/pr   9-16-2019  13:05:29         PAGE 36


LOC    OBJECT CODE    LINE  SOURCE TEXT
  VALUE

                      01853 ;       .line   28; ../../../src/measure.c      lcd_clear();
00001C EC?? F0??      01854         CALL    _lcd_clear
                      01855 ;       .line   30; ../../../src/measure.c      lcd_gotoxy(0, 0);
000020 0E00           01856         MOVLW   0x00
000022 6EE5           01857         MOVWF   POSTDEC1
000024 0E00           01858         MOVLW   0x00
000026 6EE5           01859         MOVWF   POSTDEC1
000028 EC?? F0??      01860         CALL    _lcd_gotoxy
00002C 52E6           01861         MOVF    POSTINC1, F
00002E 52E6           01862         MOVF    POSTINC1, F
                      01863 ;       .line   31; ../../../src/measure.c      put_str("Calibrating");
000030 0E??           01864         MOVLW   HIGH(___str_0)
000032 6E??           01865         MOVWF   r0x01
000034 0E??           01866         MOVLW   LOW(___str_0)
000036 6E??           01867         MOVWF   r0x00
000038 6A??           01868         CLRF    r0x02
00003A 50??           01869         MOVF    r0x02, W
00003C 6EE5           01870         MOVWF   POSTDEC1
00003E 50??           01871         MOVF    r0x01, W
000040 6EE5           01872         MOVWF   POSTDEC1
000042 50??           01873         MOVF    r0x00, W
000044 6EE5           01874         MOVWF   POSTDEC1
000046 EC?? F0??      01875         CALL    _put_str
00004A 0E03           01876         MOVLW   0x03
00004C 26E1           01877         ADDWF   FSR1L, F
00004E B0D8           01878         BTFSC   STATUS, 0
000050 2AE2           01879         INCF    FSR1H, F
                      01880 ;       .line   33; ../../../src/measure.c      lcd_gotoxy(0, 1);
000052 0E01           01881         MOVLW   0x01
000054 6EE5           01882         MOVWF   POSTDEC1
000056 0E00           01883         MOVLW   0x00
000058 6EE5           01884         MOVWF   POSTDEC1
00005A EC?? F0??      01885         CALL    _lcd_gotoxy
00005E 52E6           01886         MOVF    POSTINC1, F
000060 52E6           01887         MOVF    POSTINC1, F
                      01888 ;       .line   34; ../../../src/measure.c      uart_puts("\r\n");
000062 0E??           01889         MOVLW   HIGH(___str_1)
000064 6E??           01890         MOVWF   r0x01
000066 0E??           01891         MOVLW   LOW(___str_1)
000068 6E??           01892         MOVWF   r0x00
00006A 6A??           01893         CLRF    r0x02
00006C 50??           01894         MOVF    r0x02, W
00006E 6EE5           01895         MOVWF   POSTDEC1
000070 50??           01896         MOVF    r0x01, W
000072 6EE5           01897         MOVWF   POSTDEC1
000074 50??           01898         MOVF    r0x00, W
000076 6EE5           01899         MOVWF   POSTDEC1
000078 EC?? F0??      01900         CALL    _uart_puts
00007C 0E03           01901         MOVLW   0x03
00007E 26E1           01902         ADDWF   FSR1L, F
000080 B0D8           01903         BTFSC   STATUS, 0
000082 2AE2           01904         INCF    FSR1H, F
                      01905 ;       .line   35; ../../../src/measure.c      put_str("please wait...");
gpasm-1.5.2 #0 (Sep 16 2019) build/default/pr   9-16-2019  13:05:29         PAGE 37


LOC    OBJECT CODE    LINE  SOURCE TEXT
  VALUE

000084 0E??           01906         MOVLW   HIGH(___str_2)
000086 6E??           01907         MOVWF   r0x01
000088 0E??           01908         MOVLW   LOW(___str_2)
00008A 6E??           01909         MOVWF   r0x00
00008C 6A??           01910         CLRF    r0x02
00008E 50??           01911         MOVF    r0x02, W
000090 6EE5           01912         MOVWF   POSTDEC1
000092 50??           01913         MOVF    r0x01, W
000094 6EE5           01914         MOVWF   POSTDEC1
000096 50??           01915         MOVF    r0x00, W
000098 6EE5           01916         MOVWF   POSTDEC1
00009A EC?? F0??      01917         CALL    _put_str
00009E 0E03           01918         MOVLW   0x03
0000A0 26E1           01919         ADDWF   FSR1L, F
0000A2 B0D8           01920         BTFSC   STATUS, 0
0000A4 2AE2           01921         INCF    FSR1H, F
                      01922 ;       .line   38; ../../../src/measure.c      REMOVE_CCAL();
0000A6 9A??           01923         BCF     _LATC, 5
                      01924 ;       .line   40; ../../../src/measure.c      F1 = (double)measure_freq(); // dummy reading to stabili
                            ze oscillator
0000A8 EC?? F0??      01925         CALL    _measure_freq
0000AC 6E??           01926         MOVWF   r0x00
0000AE CFF3 F000      01927         MOVFF   PRODL, r0x01
0000B2 50??           01928         MOVF    r0x01, W
0000B4 6EE5           01929         MOVWF   POSTDEC1
0000B6 50??           01930         MOVF    r0x00, W
0000B8 6EE5           01931         MOVWF   POSTDEC1
0000BA EC?? F0??      01932         CALL    ___uint2fs
0000BE 010?           01933         BANKSEL _F1
0000C0 6F??           01934         MOVWF   _F1, B
0000C2 CFF3 F000      01935         MOVFF   PRODL, (_F1 + 1)
0000C6 CFF4 F000      01936         MOVFF   PRODH, (_F1 + 2)
0000CA CFE9 F000      01937         MOVFF   FSR0L, (_F1 + 3)
0000CE 52E6           01938         MOVF    POSTINC1, F
0000D0 52E6           01939         MOVF    POSTINC1, F
                      01940 ;       .line   41; ../../../src/measure.c      delay10ms(50);
0000D2 0E32           01941         MOVLW   0x32
0000D4 6EE5           01942         MOVWF   POSTDEC1
0000D6 EC?? F0??      01943         CALL    _delay10ms
0000DA 52E6           01944         MOVF    POSTINC1, F
                      01945 ;       .line   43; ../../../src/measure.c      F1 = (double)measure_freq();
0000DC EC?? F0??      01946         CALL    _measure_freq
0000E0 6E??           01947         MOVWF   r0x00
0000E2 CFF3 F000      01948         MOVFF   PRODL, r0x01
0000E6 50??           01949         MOVF    r0x01, W
0000E8 6EE5           01950         MOVWF   POSTDEC1
0000EA 50??           01951         MOVF    r0x00, W
0000EC 6EE5           01952         MOVWF   POSTDEC1
0000EE EC?? F0??      01953         CALL    ___uint2fs
0000F2 010?           01954         BANKSEL _F1
0000F4 6F??           01955         MOVWF   _F1, B
0000F6 CFF3 F000      01956         MOVFF   PRODL, (_F1 + 1)
0000FA CFF4 F000      01957         MOVFF   PRODH, (_F1 + 2)
gpasm-1.5.2 #0 (Sep 16 2019) build/default/pr   9-16-2019  13:05:29         PAGE 38


LOC    OBJECT CODE    LINE  SOURCE TEXT
  VALUE

0000FE CFE9 F000      01958         MOVFF   FSR0L, (_F1 + 3)
000102 52E6           01959         MOVF    POSTINC1, F
000104 52E6           01960         MOVF    POSTINC1, F
                      01961 ;       .line   44; ../../../src/measure.c      ADD_CCAL();
000106 8A??           01962         BSF     _LATC, 5
                      01963 ;       .line   46; ../../../src/measure.c      F2 = (double)measure_freq(); // dummy reading to stabili
                            ze oscillator
000108 EC?? F0??      01964         CALL    _measure_freq
00010C 6E??           01965         MOVWF   r0x00
00010E CFF3 F000      01966         MOVFF   PRODL, r0x01
000112 50??           01967         MOVF    r0x01, W
000114 6EE5           01968         MOVWF   POSTDEC1
000116 50??           01969         MOVF    r0x00, W
000118 6EE5           01970         MOVWF   POSTDEC1
00011A EC?? F0??      01971         CALL    ___uint2fs
00011E 010?           01972         BANKSEL _F2
000120 6F??           01973         MOVWF   _F2, B
000122 CFF3 F000      01974         MOVFF   PRODL, (_F2 + 1)
000126 CFF4 F000      01975         MOVFF   PRODH, (_F2 + 2)
00012A CFE9 F000      01976         MOVFF   FSR0L, (_F2 + 3)
00012E 52E6           01977         MOVF    POSTINC1, F
000130 52E6           01978         MOVF    POSTINC1, F
                      01979 ;       .line   47; ../../../src/measure.c      delay10ms(50);
000132 0E32           01980         MOVLW   0x32
000134 6EE5           01981         MOVWF   POSTDEC1
000136 EC?? F0??      01982         CALL    _delay10ms
00013A 52E6           01983         MOVF    POSTINC1, F
                      01984 ;       .line   49; ../../../src/measure.c      F2 = (double)measure_freq();
00013C EC?? F0??      01985         CALL    _measure_freq
000140 6E??           01986         MOVWF   r0x00
000142 CFF3 F000      01987         MOVFF   PRODL, r0x01
000146 50??           01988         MOVF    r0x01, W
000148 6EE5           01989         MOVWF   POSTDEC1
00014A 50??           01990         MOVF    r0x00, W
00014C 6EE5           01991         MOVWF   POSTDEC1
00014E EC?? F0??      01992         CALL    ___uint2fs
000152 010?           01993         BANKSEL _F2
000154 6F??           01994         MOVWF   _F2, B
000156 CFF3 F000      01995         MOVFF   PRODL, (_F2 + 1)
00015A CFF4 F000      01996         MOVFF   PRODH, (_F2 + 2)
00015E CFE9 F000      01997         MOVFF   FSR0L, (_F2 + 3)
000162 52E6           01998         MOVF    POSTINC1, F
000164 52E6           01999         MOVF    POSTINC1, F
                      02000 ;       .line   50; ../../../src/measure.c      REMOVE_CCAL();
000166 9A??           02001         BCF     _LATC, 5
                      02002 ;       .line   54; ../../../src/measure.c      lcd_gotoxy(11, 0);
000168 0E00           02003         MOVLW   0x00
00016A 6EE5           02004         MOVWF   POSTDEC1
00016C 0E0B           02005         MOVLW   0x0b
00016E 6EE5           02006         MOVWF   POSTDEC1
000170 EC?? F0??      02007         CALL    _lcd_gotoxy
000174 52E6           02008         MOVF    POSTINC1, F
000176 52E6           02009         MOVF    POSTINC1, F
gpasm-1.5.2 #0 (Sep 16 2019) build/default/pr   9-16-2019  13:05:29         PAGE 39


LOC    OBJECT CODE    LINE  SOURCE TEXT
  VALUE

                      02010 ;       .line   56; ../../../src/measure.c      for(i = 0; i < 6; i++) { // show progress bar
000178 6A??           02011         CLRF    r0x00
00017A                02012 _00106_DS_:
                      02013 ;       .line   57; ../../../src/measure.c      lcd_putch('=');
00017A 0E01           02014         MOVLW   0x01
00017C 6EE5           02015         MOVWF   POSTDEC1
00017E 0E3D           02016         MOVLW   0x3d
000180 6EE5           02017         MOVWF   POSTDEC1
000182 EC?? F0??      02018         CALL    _lcd_send
000186 52E6           02019         MOVF    POSTINC1, F
000188 52E6           02020         MOVF    POSTINC1, F
                      02021 ;       .line   59; ../../../src/measure.c      delay10ms(28);
00018A 0E1C           02022         MOVLW   0x1c
00018C 6EE5           02023         MOVWF   POSTDEC1
00018E EC?? F0??      02024         CALL    _delay10ms
000192 52E6           02025         MOVF    POSTINC1, F
                      02026 ;       .line   56; ../../../src/measure.c      for(i = 0; i < 6; i++) { // show progress bar
000194 2A??           02027         INCF    r0x00, F
000196 0E06           02028         MOVLW   0x06
000198 5C??           02029         SUBWF   r0x00, W
00019A E3??           02030         BNC     _00106_DS_
                      02031 ;       .line   62; ../../../src/measure.c      uart_puts("\r\n");
00019C 0E??           02032         MOVLW   HIGH(___str_1)
00019E 6E??           02033         MOVWF   r0x01
0001A0 0E??           02034         MOVLW   LOW(___str_1)
0001A2 6E??           02035         MOVWF   r0x00
0001A4 6A??           02036         CLRF    r0x02
0001A6 50??           02037         MOVF    r0x02, W
0001A8 6EE5           02038         MOVWF   POSTDEC1
0001AA 50??           02039         MOVF    r0x01, W
0001AC 6EE5           02040         MOVWF   POSTDEC1
0001AE 50??           02041         MOVF    r0x00, W
0001B0 6EE5           02042         MOVWF   POSTDEC1
0001B2 EC?? F0??      02043         CALL    _uart_puts
0001B6 0E03           02044         MOVLW   0x03
0001B8 26E1           02045         ADDWF   FSR1L, F
0001BA B0D8           02046         BTFSC   STATUS, 0
0001BC 2AE2           02047         INCF    FSR1H, F
                      02048 ;       .line   63; ../../../src/measure.c      }
0001BE CFE4 F000      02049         MOVFF   PREINC1, r0x02
0001C2 CFE4 F000      02050         MOVFF   PREINC1, r0x01
0001C6 CFE4 F000      02051         MOVFF   PREINC1, r0x00
0001CA CFE4 FFD9      02052         MOVFF   PREINC1, FSR2L
0001CE CFE4 FFDA      02053         MOVFF   PREINC1, FSR2H
0001D2 0012           02054         RETURN  
                      02055 
                      02056 ; ; Starting pCode block
0001D4                02057 ___str_0:
0001D4 6143 696C 7262 02058         DB      0x43, 0x61, 0x6c, 0x69, 0x62, 0x72, 0x61, 0x74, 0x69, 0x6e, 0x67, 0x00
       7461 6E69 0067 
                      02059 ; ; Starting pCode block
0001E0                02060 ___str_1:
0001E0 0A0D 0000      02061         DB      0x0d, 0x0a, 0x00
gpasm-1.5.2 #0 (Sep 16 2019) build/default/pr   9-16-2019  13:05:29         PAGE 40


LOC    OBJECT CODE    LINE  SOURCE TEXT
  VALUE

                      02062 ; ; Starting pCode block
0001E4                02063 ___str_2:
0001E4 6C70 6165 6573 02064         DB      0x70, 0x6c, 0x65, 0x61, 0x73, 0x65, 0x20, 0x77, 0x61, 0x69, 0x74, 0x2e
       7720 6961 2E74 
0001F0 2E2E 0000      02065         DB      0x2e, 0x2e, 0x00
                      02066 ; ; Starting pCode block
0001F4                02067 ___str_3:
0001F4 7246 7165 003D 02068         DB      0x46, 0x72, 0x65, 0x71, 0x3d, 0x00
                      02069 ; ; Starting pCode block
0001FA                02070 ___str_4:
0001FA 6143 6170 6963 02071         DB      0x43, 0x61, 0x70, 0x61, 0x63, 0x69, 0x74, 0x79, 0x20, 0x00
       7974 0020      
                      02072 ; ; Starting pCode block
000204                02073 ___str_5:
000204 6E49 7564 7463 02074         DB      0x49, 0x6e, 0x64, 0x75, 0x63, 0x74, 0x69, 0x76, 0x69, 0x74, 0x79, 0x20
       7669 7469 2079 
000210 0000           02075         DB      0x00
                      02076 
                      02077 
                      02078 ; Statistics:
                      02079 ; code size:     3644 (0x0e3c) bytes ( 2.78%)
                      02080 ;                1822 (0x071e) words
                      02081 ; udata size:       0 (0x0000) bytes ( 0.00%)
                      02082 ; access size:     12 (0x000c) bytes
                      02083 
                      02084 
                      02085         end
gpasm-1.5.2 #0 (Sep 16 2019) build/default/pr   9-16-2019  13:05:29         PAGE 41


SYMBOL TABLE
  LABEL                              TYPE        VALUE         VALUE          VALUE
                                                 (hex)         (dec)          (text)

FSR0L                             CONSTANT      00000FE9           4073
FSR1H                             CONSTANT      00000FE2           4066
FSR1L                             CONSTANT      00000FE1           4065
FSR2H                             CONSTANT      00000FDA           4058
FSR2L                             CONSTANT      00000FD9           4057
POSTDEC1                          CONSTANT      00000FE5           4069
POSTINC1                          CONSTANT      00000FE6           4070
PREINC1                           CONSTANT      00000FE4           4068
PRODH                             CONSTANT      00000FF4           4084
PRODL                             CONSTANT      00000FF3           4083
STATUS                            CONSTANT      00000FD8           4056
WREG                              CONSTANT      00000FE8           4072
_00106_DS_                        ADDRESS       0000017A            378
_00133_DS_                        ADDRESS       000000FA            250
_00135_DS_                        ADDRESS       00000368            872
_00138_DS_                        ADDRESS       000003A8            936
_00141_DS_                        ADDRESS       000003E8           1000
_00142_DS_                        ADDRESS       000003EC           1004
_00149_DS_                        ADDRESS       000000DE            222
_00151_DS_                        ADDRESS       0000053A           1338
_00154_DS_                        ADDRESS       0000057A           1402
_00157_DS_                        ADDRESS       000005BA           1466
_00158_DS_                        ADDRESS       000005BE           1470
_ACTCON                           EXTERNAL      00000000              0
_ACTCONbits                       EXTERNAL      00000000              0
_ADCON0                           EXTERNAL      00000000              0
_ADCON0bits                       EXTERNAL      00000000              0
_ADCON1                           EXTERNAL      00000000              0
_ADCON1bits                       EXTERNAL      00000000              0
_ADCON2                           EXTERNAL      00000000              0
_ADCON2bits                       EXTERNAL      00000000              0
_ADRESH                           EXTERNAL      00000000              0
_ADRESL                           EXTERNAL      00000000              0
_ANSELA                           EXTERNAL      00000000              0
_ANSELAbits                       EXTERNAL      00000000              0
_ANSELB                           EXTERNAL      00000000              0
_ANSELBbits                       EXTERNAL      00000000              0
_ANSELC                           EXTERNAL      00000000              0
_ANSELCbits                       EXTERNAL      00000000              0
_BAUDCON                          EXTERNAL      00000000              0
_BAUDCON1                         EXTERNAL      00000000              0
_BAUDCON1bits                     EXTERNAL      00000000              0
_BAUDCONbits                      EXTERNAL      00000000              0
_BSR                              EXTERNAL      00000000              0
_CCP1CON                          EXTERNAL      00000000              0
_CCP1CONbits                      EXTERNAL      00000000              0
_CCP2CON                          EXTERNAL      00000000              0
_CCP2CONbits                      EXTERNAL      00000000              0
_CCPR1                            EXTERNAL      00000000              0
_CCPR1H                           EXTERNAL      00000000              0
_CCPR1L                           EXTERNAL      00000000              0
_CCPR2                            EXTERNAL      00000000              0
gpasm-1.5.2 #0 (Sep 16 2019) build/default/pr   9-16-2019  13:05:29         PAGE 42


SYMBOL TABLE
  LABEL                              TYPE        VALUE         VALUE          VALUE
                                                 (hex)         (dec)          (text)

_CCPR2H                           EXTERNAL      00000000              0
_CCPR2L                           EXTERNAL      00000000              0
_CCPTMRS                          EXTERNAL      00000000              0
_CCPTMRSbits                      EXTERNAL      00000000              0
_CCal                             EXTERNAL      00000000              0
_CM1CON0                          EXTERNAL      00000000              0
_CM1CON0bits                      EXTERNAL      00000000              0
_CM2CON0                          EXTERNAL      00000000              0
_CM2CON0bits                      EXTERNAL      00000000              0
_CM2CON1                          EXTERNAL      00000000              0
_CM2CON1bits                      EXTERNAL      00000000              0
_CTMUCON0                         EXTERNAL      00000000              0
_CTMUCON0bits                     EXTERNAL      00000000              0
_CTMUCON1                         EXTERNAL      00000000              0
_CTMUCON1bits                     EXTERNAL      00000000              0
_CTMUCONH                         EXTERNAL      00000000              0
_CTMUCONHbits                     EXTERNAL      00000000              0
_CTMUCONL                         EXTERNAL      00000000              0
_CTMUCONLbits                     EXTERNAL      00000000              0
_CTMUICON                         EXTERNAL      00000000              0
_CTMUICONbits                     EXTERNAL      00000000              0
_DDRA                             EXTERNAL      00000000              0
_DDRAbits                         EXTERNAL      00000000              0
_DDRB                             EXTERNAL      00000000              0
_DDRBbits                         EXTERNAL      00000000              0
_DDRC                             EXTERNAL      00000000              0
_DDRCbits                         EXTERNAL      00000000              0
_ECCP1AS                          EXTERNAL      00000000              0
_ECCP1ASbits                      EXTERNAL      00000000              0
_ECCP1CON                         EXTERNAL      00000000              0
_ECCP1CONbits                     EXTERNAL      00000000              0
_ECCP1DEL                         EXTERNAL      00000000              0
_ECCP1DELbits                     EXTERNAL      00000000              0
_ECCP2CON                         EXTERNAL      00000000              0
_ECCP2CONbits                     EXTERNAL      00000000              0
_EEADR                            EXTERNAL      00000000              0
_EECON1                           EXTERNAL      00000000              0
_EECON1bits                       EXTERNAL      00000000              0
_EECON2                           EXTERNAL      00000000              0
_EEDATA                           EXTERNAL      00000000              0
_F1                               EXTERNAL      00000000              0
_F2                               EXTERNAL      00000000              0
_F3                               EXTERNAL      00000000              0
_FSR0H                            EXTERNAL      00000000              0
_FSR0L                            EXTERNAL      00000000              0
_FSR1H                            EXTERNAL      00000000              0
_FSR1L                            EXTERNAL      00000000              0
_FSR2H                            EXTERNAL      00000000              0
_FSR2L                            EXTERNAL      00000000              0
_HLVDCON                          EXTERNAL      00000000              0
_HLVDCONbits                      EXTERNAL      00000000              0
_INDF0                            EXTERNAL      00000000              0
gpasm-1.5.2 #0 (Sep 16 2019) build/default/pr   9-16-2019  13:05:29         PAGE 43


SYMBOL TABLE
  LABEL                              TYPE        VALUE         VALUE          VALUE
                                                 (hex)         (dec)          (text)

_INDF1                            EXTERNAL      00000000              0
_INDF2                            EXTERNAL      00000000              0
_INTCON                           EXTERNAL      00000000              0
_INTCON2                          EXTERNAL      00000000              0
_INTCON2bits                      EXTERNAL      00000000              0
_INTCON3                          EXTERNAL      00000000              0
_INTCON3bits                      EXTERNAL      00000000              0
_INTCONbits                       EXTERNAL      00000000              0
_IOCB                             EXTERNAL      00000000              0
_IOCBbits                         EXTERNAL      00000000              0
_IOCC                             EXTERNAL      00000000              0
_IOCCbits                         EXTERNAL      00000000              0
_IPR1                             EXTERNAL      00000000              0
_IPR1bits                         EXTERNAL      00000000              0
_IPR2                             EXTERNAL      00000000              0
_IPR2bits                         EXTERNAL      00000000              0
_IPR3                             EXTERNAL      00000000              0
_IPR3bits                         EXTERNAL      00000000              0
_LATA                             EXTERNAL      00000000              0
_LATAbits                         EXTERNAL      00000000              0
_LATB                             EXTERNAL      00000000              0
_LATBbits                         EXTERNAL      00000000              0
_LATC                             EXTERNAL      00000000              0
_LATCbits                         EXTERNAL      00000000              0
_OSCCON                           EXTERNAL      00000000              0
_OSCCON2                          EXTERNAL      00000000              0
_OSCCON2bits                      EXTERNAL      00000000              0
_OSCCONbits                       EXTERNAL      00000000              0
_OSCTUNE                          EXTERNAL      00000000              0
_OSCTUNEbits                      EXTERNAL      00000000              0
_PC                               EXTERNAL      00000000              0
_PCL                              EXTERNAL      00000000              0
_PCLATH                           EXTERNAL      00000000              0
_PCLATU                           EXTERNAL      00000000              0
_PIE1                             EXTERNAL      00000000              0
_PIE1bits                         EXTERNAL      00000000              0
_PIE2                             EXTERNAL      00000000              0
_PIE2bits                         EXTERNAL      00000000              0
_PIE3                             EXTERNAL      00000000              0
_PIE3bits                         EXTERNAL      00000000              0
_PIR1                             EXTERNAL      00000000              0
_PIR1bits                         EXTERNAL      00000000              0
_PIR2                             EXTERNAL      00000000              0
_PIR2bits                         EXTERNAL      00000000              0
_PIR3                             EXTERNAL      00000000              0
_PIR3bits                         EXTERNAL      00000000              0
_PLUSW0                           EXTERNAL      00000000              0
_PLUSW1                           EXTERNAL      00000000              0
_PLUSW2                           EXTERNAL      00000000              0
_PMD0                             EXTERNAL      00000000              0
_PMD0bits                         EXTERNAL      00000000              0
_PMD1                             EXTERNAL      00000000              0
gpasm-1.5.2 #0 (Sep 16 2019) build/default/pr   9-16-2019  13:05:29         PAGE 44


SYMBOL TABLE
  LABEL                              TYPE        VALUE         VALUE          VALUE
                                                 (hex)         (dec)          (text)

_PMD1bits                         EXTERNAL      00000000              0
_PORTA                            EXTERNAL      00000000              0
_PORTAbits                        EXTERNAL      00000000              0
_PORTB                            EXTERNAL      00000000              0
_PORTBbits                        EXTERNAL      00000000              0
_PORTC                            EXTERNAL      00000000              0
_PORTCbits                        EXTERNAL      00000000              0
_PORTE                            EXTERNAL      00000000              0
_PORTEbits                        EXTERNAL      00000000              0
_POSTDEC0                         EXTERNAL      00000000              0
_POSTDEC1                         EXTERNAL      00000000              0
_POSTDEC2                         EXTERNAL      00000000              0
_POSTINC0                         EXTERNAL      00000000              0
_POSTINC1                         EXTERNAL      00000000              0
_POSTINC2                         EXTERNAL      00000000              0
_PR2                              EXTERNAL      00000000              0
_PREINC0                          EXTERNAL      00000000              0
_PREINC1                          EXTERNAL      00000000              0
_PREINC2                          EXTERNAL      00000000              0
_PROD                             EXTERNAL      00000000              0
_PRODH                            EXTERNAL      00000000              0
_PRODL                            EXTERNAL      00000000              0
_PSTR1CON                         EXTERNAL      00000000              0
_PSTR1CONbits                     EXTERNAL      00000000              0
_PWM1CON                          EXTERNAL      00000000              0
_PWM1CONbits                      EXTERNAL      00000000              0
_RCON                             EXTERNAL      00000000              0
_RCONbits                         EXTERNAL      00000000              0
_RCREG                            EXTERNAL      00000000              0
_RCREG1                           EXTERNAL      00000000              0
_RCSTA                            EXTERNAL      00000000              0
_RCSTA1                           EXTERNAL      00000000              0
_RCSTA1bits                       EXTERNAL      00000000              0
_RCSTAbits                        EXTERNAL      00000000              0
_SLRCON                           EXTERNAL      00000000              0
_SLRCONbits                       EXTERNAL      00000000              0
_SPBRG                            EXTERNAL      00000000              0
_SPBRG1                           EXTERNAL      00000000              0
_SPBRG1bits                       EXTERNAL      00000000              0
_SPBRGH                           EXTERNAL      00000000              0
_SPBRGH1                          EXTERNAL      00000000              0
_SPBRGH1bits                      EXTERNAL      00000000              0
_SPBRGHbits                       EXTERNAL      00000000              0
_SPBRGbits                        EXTERNAL      00000000              0
_SRCON0                           EXTERNAL      00000000              0
_SRCON0bits                       EXTERNAL      00000000              0
_SRCON1                           EXTERNAL      00000000              0
_SRCON1bits                       EXTERNAL      00000000              0
_SSP1ADD                          EXTERNAL      00000000              0
_SSP1ADDbits                      EXTERNAL      00000000              0
_SSP1BUF                          EXTERNAL      00000000              0
_SSP1CON1                         EXTERNAL      00000000              0
gpasm-1.5.2 #0 (Sep 16 2019) build/default/pr   9-16-2019  13:05:29         PAGE 45


SYMBOL TABLE
  LABEL                              TYPE        VALUE         VALUE          VALUE
                                                 (hex)         (dec)          (text)

_SSP1CON1bits                     EXTERNAL      00000000              0
_SSP1CON2                         EXTERNAL      00000000              0
_SSP1CON2bits                     EXTERNAL      00000000              0
_SSP1CON3                         EXTERNAL      00000000              0
_SSP1CON3bits                     EXTERNAL      00000000              0
_SSP1MSK                          EXTERNAL      00000000              0
_SSP1MSKbits                      EXTERNAL      00000000              0
_SSP1STAT                         EXTERNAL      00000000              0
_SSP1STATbits                     EXTERNAL      00000000              0
_SSPADD                           EXTERNAL      00000000              0
_SSPADDbits                       EXTERNAL      00000000              0
_SSPBUF                           EXTERNAL      00000000              0
_SSPCON                           EXTERNAL      00000000              0
_SSPCON1                          EXTERNAL      00000000              0
_SSPCON1bits                      EXTERNAL      00000000              0
_SSPCON2                          EXTERNAL      00000000              0
_SSPCON2bits                      EXTERNAL      00000000              0
_SSPCON3                          EXTERNAL      00000000              0
_SSPCON3bits                      EXTERNAL      00000000              0
_SSPCONbits                       EXTERNAL      00000000              0
_SSPMSK                           EXTERNAL      00000000              0
_SSPMSKbits                       EXTERNAL      00000000              0
_SSPSTAT                          EXTERNAL      00000000              0
_SSPSTATbits                      EXTERNAL      00000000              0
_STATUS                           EXTERNAL      00000000              0
_STATUSbits                       EXTERNAL      00000000              0
_STCON                            EXTERNAL      00000000              0
_STCONbits                        EXTERNAL      00000000              0
_STKPTR                           EXTERNAL      00000000              0
_STKPTRbits                       EXTERNAL      00000000              0
_T0CON                            EXTERNAL      00000000              0
_T0CONbits                        EXTERNAL      00000000              0
_T1CON                            EXTERNAL      00000000              0
_T1CONbits                        EXTERNAL      00000000              0
_T1GCON                           EXTERNAL      00000000              0
_T1GCONbits                       EXTERNAL      00000000              0
_T2CON                            EXTERNAL      00000000              0
_T2CONbits                        EXTERNAL      00000000              0
_T3CON                            EXTERNAL      00000000              0
_T3CONbits                        EXTERNAL      00000000              0
_T3GCON                           EXTERNAL      00000000              0
_T3GCONbits                       EXTERNAL      00000000              0
_TABLAT                           EXTERNAL      00000000              0
_TBLPTR                           EXTERNAL      00000000              0
_TBLPTRH                          EXTERNAL      00000000              0
_TBLPTRL                          EXTERNAL      00000000              0
_TBLPTRU                          EXTERNAL      00000000              0
_TMR0                             EXTERNAL      00000000              0
_TMR0H                            EXTERNAL      00000000              0
_TMR0L                            EXTERNAL      00000000              0
_TMR1                             EXTERNAL      00000000              0
_TMR1H                            EXTERNAL      00000000              0
gpasm-1.5.2 #0 (Sep 16 2019) build/default/pr   9-16-2019  13:05:29         PAGE 46


SYMBOL TABLE
  LABEL                              TYPE        VALUE         VALUE          VALUE
                                                 (hex)         (dec)          (text)

_TMR1L                            EXTERNAL      00000000              0
_TMR2                             EXTERNAL      00000000              0
_TMR3                             EXTERNAL      00000000              0
_TMR3H                            EXTERNAL      00000000              0
_TMR3L                            EXTERNAL      00000000              0
_TOS                              EXTERNAL      00000000              0
_TOSH                             EXTERNAL      00000000              0
_TOSL                             EXTERNAL      00000000              0
_TOSU                             EXTERNAL      00000000              0
_TRISA                            EXTERNAL      00000000              0
_TRISAbits                        EXTERNAL      00000000              0
_TRISB                            EXTERNAL      00000000              0
_TRISBbits                        EXTERNAL      00000000              0
_TRISC                            EXTERNAL      00000000              0
_TRISCbits                        EXTERNAL      00000000              0
_TXREG                            EXTERNAL      00000000              0
_TXREG1                           EXTERNAL      00000000              0
_TXSTA                            EXTERNAL      00000000              0
_TXSTA1                           EXTERNAL      00000000              0
_TXSTA1bits                       EXTERNAL      00000000              0
_TXSTAbits                        EXTERNAL      00000000              0
_UADDR                            EXTERNAL      00000000              0
_UADDRbits                        EXTERNAL      00000000              0
_UCFG                             EXTERNAL      00000000              0
_UCFGbits                         EXTERNAL      00000000              0
_UCON                             EXTERNAL      00000000              0
_UCONbits                         EXTERNAL      00000000              0
_UEIE                             EXTERNAL      00000000              0
_UEIEbits                         EXTERNAL      00000000              0
_UEIR                             EXTERNAL      00000000              0
_UEIRbits                         EXTERNAL      00000000              0
_UEP0                             EXTERNAL      00000000              0
_UEP0bits                         EXTERNAL      00000000              0
_UEP1                             EXTERNAL      00000000              0
_UEP1bits                         EXTERNAL      00000000              0
_UEP2                             EXTERNAL      00000000              0
_UEP2bits                         EXTERNAL      00000000              0
_UEP3                             EXTERNAL      00000000              0
_UEP3bits                         EXTERNAL      00000000              0
_UEP4                             EXTERNAL      00000000              0
_UEP4bits                         EXTERNAL      00000000              0
_UEP5                             EXTERNAL      00000000              0
_UEP5bits                         EXTERNAL      00000000              0
_UEP6                             EXTERNAL      00000000              0
_UEP6bits                         EXTERNAL      00000000              0
_UEP7                             EXTERNAL      00000000              0
_UEP7bits                         EXTERNAL      00000000              0
_UEP8                             EXTERNAL      00000000              0
_UEP8bits                         EXTERNAL      00000000              0
_UEP9                             EXTERNAL      00000000              0
_UEP9bits                         EXTERNAL      00000000              0
_UEP10                            EXTERNAL      00000000              0
gpasm-1.5.2 #0 (Sep 16 2019) build/default/pr   9-16-2019  13:05:29         PAGE 47


SYMBOL TABLE
  LABEL                              TYPE        VALUE         VALUE          VALUE
                                                 (hex)         (dec)          (text)

_UEP10bits                        EXTERNAL      00000000              0
_UEP11                            EXTERNAL      00000000              0
_UEP11bits                        EXTERNAL      00000000              0
_UEP12                            EXTERNAL      00000000              0
_UEP12bits                        EXTERNAL      00000000              0
_UEP13                            EXTERNAL      00000000              0
_UEP13bits                        EXTERNAL      00000000              0
_UEP14                            EXTERNAL      00000000              0
_UEP14bits                        EXTERNAL      00000000              0
_UEP15                            EXTERNAL      00000000              0
_UEP15bits                        EXTERNAL      00000000              0
_UFRM                             EXTERNAL      00000000              0
_UFRMH                            EXTERNAL      00000000              0
_UFRMHbits                        EXTERNAL      00000000              0
_UFRML                            EXTERNAL      00000000              0
_UFRMLbits                        EXTERNAL      00000000              0
_UIE                              EXTERNAL      00000000              0
_UIEbits                          EXTERNAL      00000000              0
_UIR                              EXTERNAL      00000000              0
_UIRbits                          EXTERNAL      00000000              0
_USTAT                            EXTERNAL      00000000              0
_USTATbits                        EXTERNAL      00000000              0
_VREFCON0                         EXTERNAL      00000000              0
_VREFCON0bits                     EXTERNAL      00000000              0
_VREFCON1                         EXTERNAL      00000000              0
_VREFCON1bits                     EXTERNAL      00000000              0
_VREFCON2                         EXTERNAL      00000000              0
_VREFCON2bits                     EXTERNAL      00000000              0
_VREGCON                          EXTERNAL      00000000              0
_WDTCON                           EXTERNAL      00000000              0
_WDTCONbits                       EXTERNAL      00000000              0
_WPUB                             EXTERNAL      00000000              0
_WPUBbits                         EXTERNAL      00000000              0
_WREG                             EXTERNAL      00000000              0
__16_BIT                          CONSTANT      00000001              1
__18F25K50                        CONSTANT      00000001              1
__ACC_RAM_LOW_END                 CONSTANT      0000005F             95
__ACC_RAM_LOW_START               CONSTANT      00000000              0
__ACTIVE_BANK_ADDR                VARIABLE      FFFFFFFF             -1
__ASSUMED_BANK_ADDR               VARIABLE      FFFFFFFF             -1
__BANK_0                          CONSTANT      00000000              0
__BANK_1                          CONSTANT      00000100            256
__BANK_2                          CONSTANT      00000200            512
__BANK_3                          CONSTANT      00000300            768
__BANK_4                          CONSTANT      00000400           1024
__BANK_5                          CONSTANT      00000500           1280
__BANK_6                          CONSTANT      00000600           1536
__BANK_7                          CONSTANT      00000700           1792
__BANK_8                          CONSTANT      00000800           2048
__BANK_9                          CONSTANT      00000900           2304
__BANK_10                         CONSTANT      00000A00           2560
__BANK_11                         CONSTANT      00000B00           2816
gpasm-1.5.2 #0 (Sep 16 2019) build/default/pr   9-16-2019  13:05:29         PAGE 48


SYMBOL TABLE
  LABEL                              TYPE        VALUE         VALUE          VALUE
                                                 (hex)         (dec)          (text)

__BANK_12                         CONSTANT      00000C00           3072
__BANK_13                         CONSTANT      00000D00           3328
__BANK_14                         CONSTANT      00000E00           3584
__BANK_15                         CONSTANT      00000F00           3840
__BANK_BITS                       CONSTANT      00000F00           3840
__BANK_FIRST                      CONSTANT      00000000              0
__BANK_INV                        CONSTANT      FFFFFFFF             -1
__BANK_LAST                       CONSTANT      00000F00           3840
__BANK_MASK                       CONSTANT      000000FF            255
__BANK_SHIFT                      CONSTANT      00000008              8
__BANK_SIZE                       CONSTANT      00000100            256
__CODE_END                        CONSTANT      00007FFF          32767
__CODE_START                      CONSTANT      00000000              0
__COMMON_RAM_END                  CONSTANT      0000005F             95
__COMMON_RAM_START                CONSTANT      00000000              0
__CONFIG_END                      CONSTANT      0030000D        3145741
__CONFIG_START                    CONSTANT      00300000        3145728
__EEPROM_END                      CONSTANT      00F000FF       15728895
__EEPROM_START                    CONSTANT      00F00000       15728640
__EXTENDED                        CONSTANT      00000001              1
__GPUTILS_SVN_VERSION             CONSTANT      00000000              0
__GPUTILS_VERSION_MAJOR           CONSTANT      00000001              1
__GPUTILS_VERSION_MICRO           CONSTANT      00000002              2
__GPUTILS_VERSION_MINOR           CONSTANT      00000005              5
__IDLOCS_END                      CONSTANT      00200007        2097159
__IDLOCS_START                    CONSTANT      00200000        2097152
__NUM_BANKS                       CONSTANT      00000010             16
__VECTOR_INT_HIGH                 CONSTANT      00000008              8
__VECTOR_INT_LOW                  CONSTANT      00000018             24
__VECTOR_RESET                    CONSTANT      00000000              0
__WHILE_LOOP_COUNT_MAX            CONSTANT      000000FF            255
___fs2uint                        EXTERNAL      00000000              0
___fsdiv                          EXTERNAL      00000000              0
___fslt                           EXTERNAL      00000000              0
___fsmul                          EXTERNAL      00000000              0
___fssub                          EXTERNAL      00000000              0
___str_0                          ADDRESS       000001D4            468
___str_1                          ADDRESS       000001E0            480
___str_2                          ADDRESS       000001E4            484
___str_3                          ADDRESS       000001F4            500
___str_4                          ADDRESS       000001FA            506
___str_5                          ADDRESS       00000204            516
___uint2fs                        EXTERNAL      00000000              0
_calibrate                        GLOBAL        00000000              0
_delay10ms                        EXTERNAL      00000000              0
_delay_ms                         EXTERNAL      00000000              0
_dvar                             EXTERNAL      00000000              0
_format_number                    EXTERNAL      00000000              0
_lcd_clear                        EXTERNAL      00000000              0
_lcd_gotoxy                       EXTERNAL      00000000              0
_lcd_send                         EXTERNAL      00000000              0
_logo_image                       EXTERNAL      00000000              0
gpasm-1.5.2 #0 (Sep 16 2019) build/default/pr   9-16-2019  13:05:29         PAGE 49


SYMBOL TABLE
  LABEL                              TYPE        VALUE         VALUE          VALUE
                                                 (hex)         (dec)          (text)

_measure_capacitance              GLOBAL        00000000              0
_measure_freq                     GLOBAL        00000000              0
_measure_inductance               GLOBAL        00000000              0
_output_putch                     EXTERNAL      00000000              0
_print_reading                    EXTERNAL      00000000              0
_print_unit                       EXTERNAL      00000000              0
_put_str                          EXTERNAL      00000000              0
_putchar_ptr                      EXTERNAL      00000000              0
_timer0_read_ps                   EXTERNAL      00000000              0
_uart_brg                         EXTERNAL      00000000              0
_uart_puts                        EXTERNAL      00000000              0
r0x00                             STATIC        00000000              0
r0x01                             STATIC        00000001              1
r0x02                             STATIC        00000002              2
r0x03                             STATIC        00000003              3
r0x04                             STATIC        00000004              4
r0x05                             STATIC        00000005              5
r0x06                             STATIC        00000006              6
r0x07                             STATIC        00000007              7
r0x08                             STATIC        00000008              8
r0x09                             STATIC        00000009              9
r0x0a                             STATIC        0000000A             10
r0x0b                             STATIC        0000000B             11

Errors   :     0
Warnings :     0 reported,     0 suppressed
Messages :     0 reported,     0 suppressed

