;--------------------------------------------------------
; File Created by SDCC : free open source ANSI-C Compiler
; Version 4.2.0 #13081 (Linux)
;--------------------------------------------------------
; PIC port for the 14-bit core
;--------------------------------------------------------
	.file	"lib/delay.c"
	list	p=16f876a
	radix dec
	include "p16f876a.inc"
;--------------------------------------------------------
; external declarations
;--------------------------------------------------------

	extern PSAVE
	extern SSAVE
	extern WSAVE
	extern STK12
	extern STK11
	extern STK10
	extern STK09
	extern STK08
	extern STK07
	extern STK06
	extern STK05
	extern STK04
	extern STK03
	extern STK02
	extern STK01
	extern STK00
;--------------------------------------------------------
; global declarations
;--------------------------------------------------------
	global	_delay_ms
	global	_delay_us

;--------------------------------------------------------
; global definitions
;--------------------------------------------------------
;--------------------------------------------------------
; absolute symbol definitions
;--------------------------------------------------------
;--------------------------------------------------------
; compiler-defined variables
;--------------------------------------------------------
UDL_delay_0	udata
r0x1004	res	1
r0x1001	res	1
r0x1000	res	1
r0x1002	res	1
r0x1003	res	1
;--------------------------------------------------------
; initialized data
;--------------------------------------------------------
;--------------------------------------------------------
; initialized absolute data
;--------------------------------------------------------
;--------------------------------------------------------
; overlayable items in internal ram 
;--------------------------------------------------------
;	udata_ovr
;--------------------------------------------------------
; code
;--------------------------------------------------------
code_delay	code
;***
;  pBlock Stats: dbName = C
;***
;has an exit
;5 compiler assigned registers:
;   r0x1000
;   STK00
;   r0x1001
;   r0x1002
;   r0x1003
;; Starting pCode block
;;; ../../../../src/pic14/gen.c:2358:resultRemat *{*
;;; ../../../../src/pic14/gen.c:2802:genLabel *{*
;; ***	genLabel  2805
;;; ../../../../src/pic14/gen.c:2358:resultRemat *{*
;;; ../../../../src/pic14/gen.c:2382:genFunction *{*
;; ***	genFunction  2384 curr label offset=4previous max_key=3 
S_delay__delay_ms	code
_delay_ms:
; 2 exit points
;;; ../../../../src/pic14/gen.c:2358:resultRemat *{*
;;; ../../../../src/pic14/gen.c:7609:genReceive *{*
;; ***	genReceive  7610
;;	708 register type nRegs=2
;;; ../../../../src/pic14/gen.c:1929:assignResultValue *{*
;; ***	assignResultValue  1931
;; 	line = 1933 result -=-, size=0, left AOP_REG=r0x1046, size=2, right -=-, size=0
;; >>> ../../../../src/pic14/gen.c:1407:movwf
;;	1126 rIdx = r0x1047 
	.line	11; "lib/delay.c"	delay_ms(unsigned int x) {
	BANKSEL	r0x1000
	MOVWF	r0x1000
;; >>> ../../../../src/pic14/gen.c:1437:get_returnvalue
;; ***	popRegFromIdx,1059  , rIdx=0x7f
	MOVF	STK00,W
;; >>> ../../../../src/pic14/gen.c:1407:movwf
;;	1126 rIdx = r0x1046 
	MOVWF	r0x1001
;;; ../../../../src/pic14/gen.c:2358:resultRemat *{*
;;; ../../../../src/pic14/gen.c:7159:genAssign *{*
;; ***	genAssign  7160
;;	708 register type nRegs=1
;; 	line = 7169 result AOP_REG=r0x1048, size=1, left -=-, size=0, right AOP_LIT=0xff, size=1
;; ***	genAssign  7253
;; >>> ../../../../src/pic14/gen.c:7260:genAssign
	.line	12; "lib/delay.c"	unsigned char i = 255;
	MOVLW	0xff
;; >>> ../../../../src/pic14/gen.c:7262:genAssign
;;	1126 rIdx = r0x1048 
	MOVWF	r0x1002
;;; ../../../../src/pic14/gen.c:2358:resultRemat *{*
;;; ../../../../src/pic14/gen.c:2802:genLabel *{*
;; ***	genLabel  2805
;;; ../../../../src/pic14/gen.c:2358:resultRemat *{*
;;; ../../../../src/pic14/gen.c:6991:genIfx *{*
;; ***	genIfx  6992
;;	708 register type nRegs=2
;; ***	pic14_toBoolean  1515
;; ***	mov2w  1395  offset=1
;; >>> ../../../../src/pic14/gen.c:1400:mov2w
;;	1126 rIdx = r0x1047 
_00129_DS_:
	.line	13; "lib/delay.c"	for(x; x > 0; x--) {
	BANKSEL	r0x1000
	MOVF	r0x1000,W
;; >>> ../../../../src/pic14/gen.c:1533:pic14_toBoolean
;;	1126 rIdx = r0x1046 
	IORWF	r0x1001,W
;; >>> ../../../../src/pic14/gen.c:7045:genIfx
	BTFSC	STATUS,2
;; >>> ../../../../src/pic14/gen.c:7046:genIfx
;; ***	popGetLabel  key=20, label offset 11
	GOTO	_00131_DS_
;;; ../../../../src/pic14/gen.c:2358:resultRemat *{*
;;; ../../../../src/pic14/gen.c:7159:genAssign *{*
;; ***	genAssign  7160
;;	708 register type nRegs=1
;;	708 register type nRegs=1
;; 	line = 7169 result AOP_REG=r0x1049, size=1, left -=-, size=0, right AOP_REG=r0x1048, size=1
;; ***	genAssign  7253
;;; ../../../../src/pic14/gen.c:1357:mov2w_op *{*
;; ***	mov2w  1395  offset=0
;; >>> ../../../../src/pic14/gen.c:1400:mov2w
;;	1126 rIdx = r0x1048 
	.line	14; "lib/delay.c"	while(i > 0) i--;
	MOVF	r0x1002,W
;; >>> ../../../../src/pic14/gen.c:7280:genAssign
;;	1126 rIdx = r0x1049 
	MOVWF	r0x1003
;;; ../../../../src/pic14/gen.c:2358:resultRemat *{*
;;; ../../../../src/pic14/gen.c:2802:genLabel *{*
;; ***	genLabel  2805
;;; ../../../../src/pic14/gen.c:2358:resultRemat *{*
;;; ../../../../src/pic14/gen.c:6991:genIfx *{*
;; ***	genIfx  6992
;;	708 register type nRegs=1
;; ***	pic14_toBoolean  1515
;; ***	mov2w  1395  offset=0
;; >>> ../../../../src/pic14/gen.c:1400:mov2w
;;	1126 rIdx = r0x1049 
_00112_DS_:
	BANKSEL	r0x1003
	MOVF	r0x1003,W
;; >>> ../../../../src/pic14/gen.c:7045:genIfx
	BTFSC	STATUS,2
;; >>> ../../../../src/pic14/gen.c:7046:genIfx
;; ***	popGetLabel  key=3, label offset 11
	GOTO	_00114_DS_
;;; ../../../../src/pic14/gen.c:2358:resultRemat *{*
;;; ../../../../src/pic14/gen.c:7568:genDjnz *{*
;; ***	genDjnz  7569
;;; ../../../../src/pic14/genarith.c:1122:genMinus *{*
;; ***	genMinus  1123
;;	708 register type nRegs=1
;;	589
;; 	result AOP_REG, left AOP_REG, right AOP_LIT
;;; ../../../../src/pic14/genarith.c:286:genAddLit *{*
;; ***	genAddLit  287
;;; ../../../../src/pic14/genarith.c:250:genAddLit2byte *{*
;; >>> ../../../../src/pic14/genarith.c:259:genAddLit2byte
;;	1126 rIdx = r0x1049 
	DECF	r0x1003,F
;; ***	addSign  1087
;;; ../../../../src/pic14/genarith.c:1088:addSign *{*
;;; ../../../../src/pic14/gen.c:2358:resultRemat *{*
;;; ../../../../src/pic14/gen.c:2820:genGoto *{*
;; >>> ../../../../src/pic14/gen.c:2822:genGoto
;; ***	popGetLabel  key=1, label offset 11
	GOTO	_00112_DS_
;;; ../../../../src/pic14/gen.c:2358:resultRemat *{*
;;; ../../../../src/pic14/gen.c:2802:genLabel *{*
;; ***	genLabel  2805
;;; ../../../../src/pic14/gen.c:2358:resultRemat *{*
;;; ../../../../src/pic14/gen.c:7159:genAssign *{*
;; ***	genAssign  7160
;;	708 register type nRegs=1
;; 	line = 7169 result AOP_REG=r0x1049, size=1, left -=-, size=0, right AOP_LIT=0xff, size=1
;; ***	genAssign  7253
;; >>> ../../../../src/pic14/gen.c:7260:genAssign
_00114_DS_:
	.line	16; "lib/delay.c"	while(i > 0) i--;
	MOVLW	0xff
;; >>> ../../../../src/pic14/gen.c:7262:genAssign
;;	1126 rIdx = r0x1049 
	BANKSEL	r0x1003
	MOVWF	r0x1003
;;; ../../../../src/pic14/gen.c:2358:resultRemat *{*
;;; ../../../../src/pic14/gen.c:2802:genLabel *{*
;; ***	genLabel  2805
;;; ../../../../src/pic14/gen.c:2358:resultRemat *{*
;;; ../../../../src/pic14/gen.c:6991:genIfx *{*
;; ***	genIfx  6992
;;	708 register type nRegs=1
;; ***	pic14_toBoolean  1515
;; ***	mov2w  1395  offset=0
;; >>> ../../../../src/pic14/gen.c:1400:mov2w
;;	1126 rIdx = r0x1049 
_00115_DS_:
	BANKSEL	r0x1003
	MOVF	r0x1003,W
;; >>> ../../../../src/pic14/gen.c:7045:genIfx
	BTFSC	STATUS,2
;; >>> ../../../../src/pic14/gen.c:7046:genIfx
;; ***	popGetLabel  key=6, label offset 11
	GOTO	_00117_DS_
;;; ../../../../src/pic14/gen.c:2358:resultRemat *{*
;;; ../../../../src/pic14/gen.c:7568:genDjnz *{*
;; ***	genDjnz  7569
;;; ../../../../src/pic14/genarith.c:1122:genMinus *{*
;; ***	genMinus  1123
;;	708 register type nRegs=1
;;	589
;; 	result AOP_REG, left AOP_REG, right AOP_LIT
;;; ../../../../src/pic14/genarith.c:286:genAddLit *{*
;; ***	genAddLit  287
;;; ../../../../src/pic14/genarith.c:250:genAddLit2byte *{*
;; >>> ../../../../src/pic14/genarith.c:259:genAddLit2byte
;;	1126 rIdx = r0x1049 
	DECF	r0x1003,F
;; ***	addSign  1087
;;; ../../../../src/pic14/genarith.c:1088:addSign *{*
;;; ../../../../src/pic14/gen.c:2358:resultRemat *{*
;;; ../../../../src/pic14/gen.c:2820:genGoto *{*
;; >>> ../../../../src/pic14/gen.c:2822:genGoto
;; ***	popGetLabel  key=4, label offset 11
	GOTO	_00115_DS_
;;; ../../../../src/pic14/gen.c:2358:resultRemat *{*
;;; ../../../../src/pic14/gen.c:2802:genLabel *{*
;; ***	genLabel  2805
;;; ../../../../src/pic14/gen.c:2358:resultRemat *{*
;;; ../../../../src/pic14/gen.c:7159:genAssign *{*
;; ***	genAssign  7160
;;	708 register type nRegs=1
;; 	line = 7169 result AOP_REG=r0x1049, size=1, left -=-, size=0, right AOP_LIT=0xff, size=1
;; ***	genAssign  7253
;; >>> ../../../../src/pic14/gen.c:7260:genAssign
_00117_DS_:
	.line	18; "lib/delay.c"	while(i > 0) i--;
	MOVLW	0xff
;; >>> ../../../../src/pic14/gen.c:7262:genAssign
;;	1126 rIdx = r0x1049 
	BANKSEL	r0x1003
	MOVWF	r0x1003
;;; ../../../../src/pic14/gen.c:2358:resultRemat *{*
;;; ../../../../src/pic14/gen.c:2802:genLabel *{*
;; ***	genLabel  2805
;;; ../../../../src/pic14/gen.c:2358:resultRemat *{*
;;; ../../../../src/pic14/gen.c:6991:genIfx *{*
;; ***	genIfx  6992
;;	708 register type nRegs=1
;; ***	pic14_toBoolean  1515
;; ***	mov2w  1395  offset=0
;; >>> ../../../../src/pic14/gen.c:1400:mov2w
;;	1126 rIdx = r0x1049 
_00118_DS_:
	BANKSEL	r0x1003
	MOVF	r0x1003,W
;; >>> ../../../../src/pic14/gen.c:7045:genIfx
	BTFSC	STATUS,2
;; >>> ../../../../src/pic14/gen.c:7046:genIfx
;; ***	popGetLabel  key=9, label offset 11
	GOTO	_00120_DS_
;;; ../../../../src/pic14/gen.c:2358:resultRemat *{*
;;; ../../../../src/pic14/gen.c:7568:genDjnz *{*
;; ***	genDjnz  7569
;;; ../../../../src/pic14/genarith.c:1122:genMinus *{*
;; ***	genMinus  1123
;;	708 register type nRegs=1
;;	589
;; 	result AOP_REG, left AOP_REG, right AOP_LIT
;;; ../../../../src/pic14/genarith.c:286:genAddLit *{*
;; ***	genAddLit  287
;;; ../../../../src/pic14/genarith.c:250:genAddLit2byte *{*
;; >>> ../../../../src/pic14/genarith.c:259:genAddLit2byte
;;	1126 rIdx = r0x1049 
	DECF	r0x1003,F
;; ***	addSign  1087
;;; ../../../../src/pic14/genarith.c:1088:addSign *{*
;;; ../../../../src/pic14/gen.c:2358:resultRemat *{*
;;; ../../../../src/pic14/gen.c:2820:genGoto *{*
;; >>> ../../../../src/pic14/gen.c:2822:genGoto
;; ***	popGetLabel  key=7, label offset 11
	GOTO	_00118_DS_
;;; ../../../../src/pic14/gen.c:2358:resultRemat *{*
;;; ../../../../src/pic14/gen.c:2802:genLabel *{*
;; ***	genLabel  2805
;;; ../../../../src/pic14/gen.c:2358:resultRemat *{*
;;; ../../../../src/pic14/gen.c:7159:genAssign *{*
;; ***	genAssign  7160
;;	708 register type nRegs=1
;; 	line = 7169 result AOP_REG=r0x1049, size=1, left -=-, size=0, right AOP_LIT=0xff, size=1
;; ***	genAssign  7253
;; >>> ../../../../src/pic14/gen.c:7260:genAssign
_00120_DS_:
	.line	20; "lib/delay.c"	while(i > 0) i--;
	MOVLW	0xff
;; >>> ../../../../src/pic14/gen.c:7262:genAssign
;;	1126 rIdx = r0x1049 
	BANKSEL	r0x1003
	MOVWF	r0x1003
;;; ../../../../src/pic14/gen.c:2358:resultRemat *{*
;;; ../../../../src/pic14/gen.c:2802:genLabel *{*
;; ***	genLabel  2805
;;; ../../../../src/pic14/gen.c:2358:resultRemat *{*
;;; ../../../../src/pic14/gen.c:6991:genIfx *{*
;; ***	genIfx  6992
;;	708 register type nRegs=1
;; ***	pic14_toBoolean  1515
;; ***	mov2w  1395  offset=0
;; >>> ../../../../src/pic14/gen.c:1400:mov2w
;;	1126 rIdx = r0x1049 
_00121_DS_:
	BANKSEL	r0x1003
	MOVF	r0x1003,W
;; >>> ../../../../src/pic14/gen.c:7045:genIfx
	BTFSC	STATUS,2
;; >>> ../../../../src/pic14/gen.c:7046:genIfx
;; ***	popGetLabel  key=12, label offset 11
	GOTO	_00123_DS_
;;; ../../../../src/pic14/gen.c:2358:resultRemat *{*
;;; ../../../../src/pic14/gen.c:7568:genDjnz *{*
;; ***	genDjnz  7569
;;; ../../../../src/pic14/genarith.c:1122:genMinus *{*
;; ***	genMinus  1123
;;	708 register type nRegs=1
;;	589
;; 	result AOP_REG, left AOP_REG, right AOP_LIT
;;; ../../../../src/pic14/genarith.c:286:genAddLit *{*
;; ***	genAddLit  287
;;; ../../../../src/pic14/genarith.c:250:genAddLit2byte *{*
;; >>> ../../../../src/pic14/genarith.c:259:genAddLit2byte
;;	1126 rIdx = r0x1049 
	DECF	r0x1003,F
;; ***	addSign  1087
;;; ../../../../src/pic14/genarith.c:1088:addSign *{*
;;; ../../../../src/pic14/gen.c:2358:resultRemat *{*
;;; ../../../../src/pic14/gen.c:2820:genGoto *{*
;; >>> ../../../../src/pic14/gen.c:2822:genGoto
;; ***	popGetLabel  key=10, label offset 11
	GOTO	_00121_DS_
;;; ../../../../src/pic14/gen.c:2358:resultRemat *{*
;;; ../../../../src/pic14/gen.c:2802:genLabel *{*
;; ***	genLabel  2805
;;; ../../../../src/pic14/gen.c:2358:resultRemat *{*
;;; ../../../../src/pic14/gen.c:7159:genAssign *{*
;; ***	genAssign  7160
;;	708 register type nRegs=1
;; 	line = 7169 result AOP_REG=r0x1049, size=1, left -=-, size=0, right AOP_LIT=0x32, size=1
;; ***	genAssign  7253
;; >>> ../../../../src/pic14/gen.c:7260:genAssign
_00123_DS_:
	.line	22; "lib/delay.c"	while(i > 0) i--;
	MOVLW	0x32
;; >>> ../../../../src/pic14/gen.c:7262:genAssign
;;	1126 rIdx = r0x1049 
	BANKSEL	r0x1003
	MOVWF	r0x1003
;;; ../../../../src/pic14/gen.c:2358:resultRemat *{*
;;; ../../../../src/pic14/gen.c:2802:genLabel *{*
;; ***	genLabel  2805
;;; ../../../../src/pic14/gen.c:2358:resultRemat *{*
;;; ../../../../src/pic14/gen.c:6991:genIfx *{*
;; ***	genIfx  6992
;;	708 register type nRegs=1
;; ***	pic14_toBoolean  1515
;; ***	mov2w  1395  offset=0
;; >>> ../../../../src/pic14/gen.c:1400:mov2w
;;	1126 rIdx = r0x1049 
_00124_DS_:
	BANKSEL	r0x1003
	MOVF	r0x1003,W
;; >>> ../../../../src/pic14/gen.c:7045:genIfx
	BTFSC	STATUS,2
;; >>> ../../../../src/pic14/gen.c:7046:genIfx
;; ***	popGetLabel  key=40, label offset 11
	GOTO	_00151_DS_
;;; ../../../../src/pic14/gen.c:2358:resultRemat *{*
;;; ../../../../src/pic14/gen.c:7568:genDjnz *{*
;; ***	genDjnz  7569
;;; ../../../../src/pic14/genarith.c:1122:genMinus *{*
;; ***	genMinus  1123
;;	708 register type nRegs=1
;;	589
;; 	result AOP_REG, left AOP_REG, right AOP_LIT
;;; ../../../../src/pic14/genarith.c:286:genAddLit *{*
;; ***	genAddLit  287
;;; ../../../../src/pic14/genarith.c:250:genAddLit2byte *{*
;; >>> ../../../../src/pic14/genarith.c:259:genAddLit2byte
;;	1126 rIdx = r0x1049 
	DECF	r0x1003,F
;; ***	addSign  1087
;;; ../../../../src/pic14/genarith.c:1088:addSign *{*
;;; ../../../../src/pic14/gen.c:2358:resultRemat *{*
;;; ../../../../src/pic14/gen.c:2820:genGoto *{*
;; >>> ../../../../src/pic14/gen.c:2822:genGoto
;; ***	popGetLabel  key=13, label offset 11
	GOTO	_00124_DS_
;;; ../../../../src/pic14/gen.c:2358:resultRemat *{*
;;; ../../../../src/pic14/gen.c:2802:genLabel *{*
;; ***	genLabel  2805
;;; ../../../../src/pic14/gen.c:2358:resultRemat *{*
;;; ../../../../src/pic14/gen.c:7159:genAssign *{*
;; ***	genAssign  7160
;;	708 register type nRegs=1
;;	708 register type nRegs=1
;; 	line = 7169 result AOP_REG=r0x1048, size=1, left -=-, size=0, right AOP_REG=r0x1049, size=1
;; ***	genAssign  7253
;;; ../../../../src/pic14/gen.c:1357:mov2w_op *{*
;; ***	mov2w  1395  offset=0
;; >>> ../../../../src/pic14/gen.c:1400:mov2w
;;	1126 rIdx = r0x1049 
_00151_DS_:
	BANKSEL	r0x1003
	MOVF	r0x1003,W
;; >>> ../../../../src/pic14/gen.c:7280:genAssign
;;	1126 rIdx = r0x1048 
	MOVWF	r0x1002
;;; ../../../../src/pic14/gen.c:2358:resultRemat *{*
;;; ../../../../src/pic14/gen.c:7568:genDjnz *{*
;; ***	genDjnz  7569
;;; ../../../../src/pic14/genarith.c:1122:genMinus *{*
;; ***	genMinus  1123
;;	708 register type nRegs=2
;;	589
;; 	result AOP_REG, left AOP_REG, right AOP_LIT
;;; ../../../../src/pic14/genarith.c:286:genAddLit *{*
;; ***	genAddLit  287
;; hi = ff	genAddLit  406
;; >>> ../../../../src/pic14/genarith.c:418:genAddLit
	.line	13; "lib/delay.c"	for(x; x > 0; x--) {
	MOVLW	0xff
;; >>> ../../../../src/pic14/genarith.c:419:genAddLit
;;	1126 rIdx = r0x1046 
	ADDWF	r0x1001,F
;; >>> ../../../../src/pic14/genarith.c:420:genAddLit
	BTFSS	STATUS,0
;; >>> ../../../../src/pic14/genarith.c:421:genAddLit
;;	1126 rIdx = r0x1047 
	DECF	r0x1000,F
;; ***	addSign  1087
;;; ../../../../src/pic14/genarith.c:1088:addSign *{*
;;; ../../../../src/pic14/gen.c:2358:resultRemat *{*
;;; ../../../../src/pic14/gen.c:2820:genGoto *{*
;; >>> ../../../../src/pic14/gen.c:2822:genGoto
;; ***	popGetLabel  key=18, label offset 11
	GOTO	_00129_DS_
;;; ../../../../src/pic14/gen.c:2358:resultRemat *{*
;;; ../../../../src/pic14/gen.c:2802:genLabel *{*
;; ***	genLabel  2805
;;; ../../../../src/pic14/gen.c:2358:resultRemat *{*
;;; ../../../../src/pic14/gen.c:2570:genEndFunction *{*
;; ***	genEndFunction  2572
_00131_DS_:
	.line	24; "lib/delay.c"	}
	RETURN	
; exit point of _delay_ms

;***
;  pBlock Stats: dbName = C
;***
;has an exit
;1 compiler assigned register :
;   r0x1004
;; Starting pCode block
;;; ../../../../src/pic14/gen.c:2358:resultRemat *{*
;;; ../../../../src/pic14/gen.c:2802:genLabel *{*
;; ***	genLabel  2805
;;; ../../../../src/pic14/gen.c:2358:resultRemat *{*
;;; ../../../../src/pic14/gen.c:2382:genFunction *{*
;; ***	genFunction  2384 curr label offset=0previous max_key=0 
S_delay__delay_us	code
_delay_us:
; 2 exit points
;;; ../../../../src/pic14/gen.c:2358:resultRemat *{*
;;; ../../../../src/pic14/gen.c:7609:genReceive *{*
;; ***	genReceive  7610
;;	708 register type nRegs=1
;;; ../../../../src/pic14/gen.c:1929:assignResultValue *{*
;; ***	assignResultValue  1931
;; 	line = 1933 result -=-, size=0, left AOP_REG=r0x1045, size=1, right -=-, size=0
;; >>> ../../../../src/pic14/gen.c:1407:movwf
;;	1126 rIdx = r0x1045 
	.line	5; "lib/delay.c"	delay_us(unsigned char x) {
	BANKSEL	r0x1004
	MOVWF	r0x1004
;;; ../../../../src/pic14/gen.c:2358:resultRemat *{*
;;; ../../../../src/pic14/gen.c:2802:genLabel *{*
;; ***	genLabel  2805
;;; ../../../../src/pic14/gen.c:2358:resultRemat *{*
;;; ../../../../src/pic14/gen.c:6991:genIfx *{*
;; ***	genIfx  6992
;;	708 register type nRegs=1
;; ***	pic14_toBoolean  1515
;; ***	mov2w  1395  offset=0
;; >>> ../../../../src/pic14/gen.c:1400:mov2w
;;	1126 rIdx = r0x1045 
_00105_DS_:
	.line	6; "lib/delay.c"	while(x > 0) x--;
	BANKSEL	r0x1004
	MOVF	r0x1004,W
;; >>> ../../../../src/pic14/gen.c:7045:genIfx
	BTFSC	STATUS,2
;; >>> ../../../../src/pic14/gen.c:7046:genIfx
;; ***	popGetLabel  key=3, label offset 4
	GOTO	_00107_DS_
;;; ../../../../src/pic14/gen.c:2358:resultRemat *{*
;;; ../../../../src/pic14/gen.c:7568:genDjnz *{*
;; ***	genDjnz  7569
;;; ../../../../src/pic14/genarith.c:1122:genMinus *{*
;; ***	genMinus  1123
;;	708 register type nRegs=1
;;	589
;; 	result AOP_REG, left AOP_REG, right AOP_LIT
;;; ../../../../src/pic14/genarith.c:286:genAddLit *{*
;; ***	genAddLit  287
;;; ../../../../src/pic14/genarith.c:250:genAddLit2byte *{*
;; >>> ../../../../src/pic14/genarith.c:259:genAddLit2byte
;;	1126 rIdx = r0x1045 
	DECF	r0x1004,F
;; ***	addSign  1087
;;; ../../../../src/pic14/genarith.c:1088:addSign *{*
;;; ../../../../src/pic14/gen.c:2358:resultRemat *{*
;;; ../../../../src/pic14/gen.c:2820:genGoto *{*
;; >>> ../../../../src/pic14/gen.c:2822:genGoto
;; ***	popGetLabel  key=1, label offset 4
	GOTO	_00105_DS_
;;; ../../../../src/pic14/gen.c:2358:resultRemat *{*
;;; ../../../../src/pic14/gen.c:2802:genLabel *{*
;; ***	genLabel  2805
;;; ../../../../src/pic14/gen.c:2358:resultRemat *{*
;;; ../../../../src/pic14/gen.c:4884:pic14_genInline *{*
;; ***	pic14_genInline  4885
_00107_DS_:
	nop	
;;; ../../../../src/pic14/gen.c:2358:resultRemat *{*
;;; ../../../../src/pic14/gen.c:2802:genLabel *{*
;; ***	genLabel  2805
;;; ../../../../src/pic14/gen.c:2358:resultRemat *{*
;;; ../../../../src/pic14/gen.c:2570:genEndFunction *{*
;; ***	genEndFunction  2572
	.line	8; "lib/delay.c"	}
	RETURN	
; exit point of _delay_us
;;; ../../../../src/pic14/gen.c:7677:genpic14Code *{*


;	code size estimation:
;	   59+   14 =    73 instructions (  174 byte)

	end
