gpasm-1.5.0 #1285 (Jul 12 2020) obj/sdcc-16f8   11/12/23  13:12:31          PAGE  1


LOC    OBJECT CODE    LINE  SOURCE TEXT
  VALUE

                      00001 ;--------------------------------------------------------
                      00002 ; File Created by SDCC : free open source ANSI-C Compiler
                      00003 ; Version 4.2.0 #13081 (Linux)
                      00004 ;--------------------------------------------------------
                      00005 ; PIC port for the 14-bit core
                      00006 ;--------------------------------------------------------
                      00007         .file   "lib/format.c"
                      00008         list    p=16f876a
                      00009         radix dec
                      00010         include "p16f876a.inc"
                      00001         LIST
                      00002 
                      00003 ;==========================================================================
                      00004 ; Build date : Oct 21 2015
                      00005 ;  MPASM PIC16F876A processor include
                      00006 ; 
                      00007 ;  (c) Copyright 1999-2015 Microchip Technology, All rights reserved
                      00008 ;==========================================================================
                      00009 
                      00525         LIST
                      00011 ;--------------------------------------------------------
                      00012 ; config word(s)
                      00013 ;--------------------------------------------------------
2007   0000           00014         __config 0x3f32
                      00015 ;--------------------------------------------------------
                      00016 ; external declarations
                      00017 ;--------------------------------------------------------
  0000                00018         extern  ___fssub
  0000                00019         extern  ___fsmul
  0000                00020         extern  ___uchar2fs
  0000                00021         extern  ___fs2uchar
  0000                00022         extern  ___fsdiv
  0000                00023         extern  ___sint2fs
  0000                00024         extern  ___fslt
  0000                00025         extern  ___fs2sint
  0000                00026         extern  __divuint
  0000                00027         extern  __moduint
  0000                00028         extern  _powf
  0000                00029         extern  _floorf
  0000                00030         extern  _log10f
  0000                00031         extern  _buffer_putch
                      00032 
  0000                00033         extern PSAVE
  0000                00034         extern SSAVE
  0000                00035         extern WSAVE
  0000                00036         extern STK12
  0000                00037         extern STK11
  0000                00038         extern STK10
  0000                00039         extern STK09
  0000                00040         extern STK08
  0000                00041         extern STK07
  0000                00042         extern STK06
  0000                00043         extern STK05
gpasm-1.5.0 #1285 (Jul 12 2020) obj/sdcc-16f8   11/12/23  13:12:31          PAGE  2


LOC    OBJECT CODE    LINE  SOURCE TEXT
  VALUE

  0000                00044         extern STK04
  0000                00045         extern STK03
  0000                00046         extern STK02
  0000                00047         extern STK01
  0000                00048         extern STK00
                      00049 ;--------------------------------------------------------
                      00050 ; global declarations
                      00051 ;--------------------------------------------------------
  0000                00052         global  _format_double
  0000                00053         global  _format_number
  0000                00054         global  _format_xint32
  0000                00055         global  _format_float
                      00056 
                      00057 ;--------------------------------------------------------
                      00058 ; global definitions
                      00059 ;--------------------------------------------------------
                      00060 ;--------------------------------------------------------
                      00061 ; absolute symbol definitions
                      00062 ;--------------------------------------------------------
                      00063 ;--------------------------------------------------------
                      00064 ; compiler-defined variables
                      00065 ;--------------------------------------------------------
                      00066 UDL_format_0    udata
0000                  00067 r0x1045 res     1
0001                  00068 r0x1044 res     1
0002                  00069 r0x1047 res     1
0003                  00070 r0x1046 res     1
0004                  00071 r0x1048 res     1
0005                  00072 r0x1049 res     1
0006                  00073 r0x104A res     1
0007                  00074 r0x1061 res     1
0008                  00075 r0x104C res     1
0009                  00076 r0x104D res     1
000A                  00077 r0x104F res     1
000B                  00078 r0x1050 res     1
000C                  00079 r0x1051 res     1
000D                  00080 r0x1052 res     1
000E                  00081 r0x1053 res     1
000F                  00082 r0x1054 res     1
0010                  00083 r0x1056 res     1
0011                  00084 r0x1055 res     1
0012                  00085 r0x105A res     1
0013                  00086 r0x1059 res     1
0014                  00087 r0x1058 res     1
0015                  00088 r0x1057 res     1
0016                  00089 r0x105B res     1
0017                  00090 r0x105C res     1
0018                  00091 r0x1034 res     1
0019                  00092 r0x1033 res     1
001A                  00093 r0x1038 res     1
001B                  00094 r0x1037 res     1
001C                  00095 r0x1036 res     1
001D                  00096 r0x1035 res     1
gpasm-1.5.0 #1285 (Jul 12 2020) obj/sdcc-16f8   11/12/23  13:12:31          PAGE  3


LOC    OBJECT CODE    LINE  SOURCE TEXT
  VALUE

001E                  00097 r0x103C res     1
001F                  00098 r0x103B res     1
0020                  00099 r0x103A res     1
0021                  00100 r0x1039 res     1
0022                  00101 r0x103E res     1
0023                  00102 r0x103D res     1
0024                  00103 r0x1042 res     1
0025                  00104 r0x1041 res     1
0026                  00105 r0x1040 res     1
0027                  00106 r0x103F res     1
0028                  00107 r0x1043 res     1
0029                  00108 r0x1021 res     1
002A                  00109 r0x1020 res     1
002B                  00110 r0x1025 res     1
002C                  00111 r0x1024 res     1
002D                  00112 r0x1023 res     1
002E                  00113 r0x1022 res     1
002F                  00114 r0x102A res     1
0030                  00115 r0x1029 res     1
0031                  00116 r0x1028 res     1
0032                  00117 r0x1027 res     1
0033                  00118 r0x102C res     1
0034                  00119 r0x102B res     1
0035                  00120 r0x1030 res     1
0036                  00121 r0x102F res     1
0037                  00122 r0x102E res     1
0038                  00123 r0x102D res     1
0039                  00124 r0x1032 res     1
003A                  00125 r0x1031 res     1
003B                  00126 _format_number_buf_65536_38     res     32
                      00127 ;--------------------------------------------------------
                      00128 ; initialized data
                      00129 ;--------------------------------------------------------
                      00130 ;--------------------------------------------------------
                      00131 ; initialized absolute data
                      00132 ;--------------------------------------------------------
                      00133 ;--------------------------------------------------------
                      00134 ; overlayable items in internal ram 
                      00135 ;--------------------------------------------------------
                      00136 ;       udata_ovr
                      00137 ;--------------------------------------------------------
                      00138 ; code
                      00139 ;--------------------------------------------------------
                      00140 code_format     code
                      00141 ;***
                      00142 ;  pBlock Stats: dbName = C
                      00143 ;***
                      00144 ;has an exit
                      00145 ;functions called:
                      00146 ;   _log10f
                      00147 ;   ___fs2sint
                      00148 ;   ___fslt
                      00149 ;   ___sint2fs
gpasm-1.5.0 #1285 (Jul 12 2020) obj/sdcc-16f8   11/12/23  13:12:31          PAGE  4


LOC    OBJECT CODE    LINE  SOURCE TEXT
  VALUE

                      00150 ;   _powf
                      00151 ;   ___fsdiv
                      00152 ;   _floorf
                      00153 ;   ___fs2sint
                      00154 ;   ___sint2fs
                      00155 ;   ___fsmul
                      00156 ;   ___fssub
                      00157 ;   _00226_DS_
                      00158 ;   _00228_DS_
                      00159 ;   _log10f
                      00160 ;   ___fs2sint
                      00161 ;   ___fslt
                      00162 ;   ___sint2fs
                      00163 ;   _powf
                      00164 ;   ___fsdiv
                      00165 ;   _floorf
                      00166 ;   ___fs2sint
                      00167 ;   ___sint2fs
                      00168 ;   ___fsmul
                      00169 ;   ___fssub
                      00170 ;   _00226_DS_
                      00171 ;   _00228_DS_
                      00172 ;26 compiler assigned registers:
                      00173 ;   r0x1020
                      00174 ;   STK00
                      00175 ;   r0x1021
                      00176 ;   STK01
                      00177 ;   r0x1022
                      00178 ;   STK02
                      00179 ;   r0x1023
                      00180 ;   STK03
                      00181 ;   r0x1024
                      00182 ;   STK04
                      00183 ;   r0x1025
                      00184 ;   r0x1042
                      00185 ;   r0x1027
                      00186 ;   r0x1028
                      00187 ;   r0x1029
                      00188 ;   r0x102A
                      00189 ;   STK06
                      00190 ;   STK05
                      00191 ;   r0x102B
                      00192 ;   r0x102C
                      00193 ;   r0x102D
                      00194 ;   r0x102E
                      00195 ;   r0x102F
                      00196 ;   r0x1030
                      00197 ;   r0x1031
                      00198 ;   r0x1032
                      00199 ;; Starting pCode block
                      00200 ;;; ../../../../src/pic14/gen.c:2358:resultRemat *{*
                      00201 ;;; ../../../../src/pic14/gen.c:2802:genLabel *{*
                      00202 ;; ***  genLabel  2805
gpasm-1.5.0 #1285 (Jul 12 2020) obj/sdcc-16f8   11/12/23  13:12:31          PAGE  5


LOC    OBJECT CODE    LINE  SOURCE TEXT
  VALUE

                      00203 ;;; ../../../../src/pic14/gen.c:2358:resultRemat *{*
                      00204 ;;; ../../../../src/pic14/gen.c:2382:genFunction *{*
                      00205 ;; ***  genFunction  2384 curr label offset=77previous max_key=24 
                      00206 S_format__format_double code
0000                  00207 _format_double:
                      00208 ; 2 exit points
                      00209 ;;; ../../../../src/pic14/gen.c:2358:resultRemat *{*
                      00210 ;;; ../../../../src/pic14/gen.c:7609:genReceive *{*
                      00211 ;; ***  genReceive  7610
                      00212 ;;      708 register type nRegs=2
                      00213 ;;; ../../../../src/pic14/gen.c:1929:assignResultValue *{*
                      00214 ;; ***  assignResultValue  1931
                      00215 ;;      line = 1933 result -=-, size=0, left AOP_REG=r0x1074, size=2, right -=-, size=0
                      00216 ;; >>> ../../../../src/pic14/gen.c:1407:movwf
                      00217 ;;      1126 rIdx = r0x1075 
                      00218         .line   87; "lib/format.c"      format_double(putch_t fn, double num) {
0000   0??? 0???      00219         BANKSEL r0x1020
0002   00??           00220         MOVWF   r0x1020
                      00221 ;; >>> ../../../../src/pic14/gen.c:1437:get_returnvalue
                      00222 ;; ***  popRegFromIdx,1059  , rIdx=0x7f
0003   08??           00223         MOVF    STK00,W
                      00224 ;; >>> ../../../../src/pic14/gen.c:1407:movwf
                      00225 ;;      1126 rIdx = r0x1074 
0004   00??           00226         MOVWF   r0x1021
                      00227 ;;; ../../../../src/pic14/gen.c:2358:resultRemat *{*
                      00228 ;;; ../../../../src/pic14/gen.c:7609:genReceive *{*
                      00229 ;; ***  genReceive  7610
                      00230 ;;      708 register type nRegs=4
                      00231 ;;; ../../../../src/pic14/gen.c:1929:assignResultValue *{*
                      00232 ;; ***  assignResultValue  1931
                      00233 ;;      line = 1933 result -=-, size=0, left AOP_REG=r0x1076, size=4, right -=-, size=0
                      00234 ;; >>> ../../../../src/pic14/gen.c:1437:get_returnvalue
                      00235 ;; ***  popRegFromIdx,1059  , rIdx=0x7e
0005   08??           00236         MOVF    STK01,W
                      00237 ;; >>> ../../../../src/pic14/gen.c:1407:movwf
                      00238 ;;      1126 rIdx = r0x1079 
0006   00??           00239         MOVWF   r0x1022
                      00240 ;; >>> ../../../../src/pic14/gen.c:1437:get_returnvalue
                      00241 ;; ***  popRegFromIdx,1059  , rIdx=0x7d
0007   08??           00242         MOVF    STK02,W
                      00243 ;; >>> ../../../../src/pic14/gen.c:1407:movwf
                      00244 ;;      1126 rIdx = r0x1078 
0008   00??           00245         MOVWF   r0x1023
                      00246 ;; >>> ../../../../src/pic14/gen.c:1437:get_returnvalue
                      00247 ;; ***  popRegFromIdx,1059  , rIdx=0x7c
0009   08??           00248         MOVF    STK03,W
                      00249 ;; >>> ../../../../src/pic14/gen.c:1407:movwf
                      00250 ;;      1126 rIdx = r0x1077 
000A   00??           00251         MOVWF   r0x1024
                      00252 ;; >>> ../../../../src/pic14/gen.c:1437:get_returnvalue
                      00253 ;; ***  popRegFromIdx,1059  , rIdx=0x7b
000B   08??           00254         MOVF    STK04,W
                      00255 ;; >>> ../../../../src/pic14/gen.c:1407:movwf
gpasm-1.5.0 #1285 (Jul 12 2020) obj/sdcc-16f8   11/12/23  13:12:31          PAGE  6


LOC    OBJECT CODE    LINE  SOURCE TEXT
  VALUE

                      00256 ;;      1126 rIdx = r0x1076 
                      00257         .line   88; "lib/format.c"      short m = (short)log10f(num);
000C   00??           00258         MOVWF   r0x1025
000D   00??           00259         MOVWF   STK04
                      00260 ;;; ../../../../src/pic14/gen.c:1357:mov2w_op *{*
                      00261 ;; ***  mov2w  1395  offset=1
                      00262 ;; >>> ../../../../src/pic14/gen.c:1400:mov2w
                      00263 ;;      1126 rIdx = r0x1077 
000E   08??           00264         MOVF    r0x1024,W
                      00265 ;;      2158 left AOP_REG
                      00266 ;; >>> ../../../../src/pic14/gen.c:2166:genCall
                      00267 ;; ***  popRegFromIdx,1059  , rIdx=0x7c
000F   00??           00268         MOVWF   STK03
                      00269 ;;; ../../../../src/pic14/gen.c:1357:mov2w_op *{*
                      00270 ;; ***  mov2w  1395  offset=2
                      00271 ;; >>> ../../../../src/pic14/gen.c:1400:mov2w
                      00272 ;;      1126 rIdx = r0x1078 
0010   08??           00273         MOVF    r0x1023,W
                      00274 ;;      2158 left AOP_REG
                      00275 ;; >>> ../../../../src/pic14/gen.c:2166:genCall
                      00276 ;; ***  popRegFromIdx,1059  , rIdx=0x7d
0011   00??           00277         MOVWF   STK02
                      00278 ;;; ../../../../src/pic14/gen.c:1357:mov2w_op *{*
                      00279 ;; ***  mov2w  1395  offset=3
                      00280 ;; >>> ../../../../src/pic14/gen.c:1400:mov2w
                      00281 ;;      1126 rIdx = r0x1079 
0012   08??           00282         MOVF    r0x1022,W
                      00283 ;;      2158 left AOP_LIT
                      00284 ;; >>> ../../../../src/pic14/gen.c:2166:genCall
                      00285 ;; ***  popRegFromIdx,1059  , rIdx=0x7e
0013   00??           00286         MOVWF   STK01
                      00287 ;;; ../../../../src/pic14/gen.c:1357:mov2w_op *{*
                      00288 ;; >>> ../../../../src/pic14/gen.c:1375:mov2w_op
0014   302E           00289         MOVLW   0x2e
                      00290 ;;      708 register type nRegs=1
                      00291 ;;      2158 left AOP_REG
                      00292 ;; >>> ../../../../src/pic14/gen.c:2166:genCall
                      00293 ;; ***  popRegFromIdx,1059  , rIdx=0x7f
0015   00??           00294         MOVWF   STK00
                      00295 ;;; ../../../../src/pic14/gen.c:1357:mov2w_op *{*
                      00296 ;; ***  mov2w  1395  offset=0
                      00297 ;; >>> ../../../../src/pic14/gen.c:1400:mov2w
                      00298 ;;      1126 rIdx = r0x106F 
0016   08??           00299         MOVF    r0x1042,W
                      00300 ;; >>> ../../../../src/pic14/gen.c:2207:genCall
0017   0??? 0???      00301         PAGESEL _log10f
                      00302 ;; >>> ../../../../src/pic14/gen.c:2215:genCall
0019   2???           00303         CALL    _log10f
                      00304 ;; >>> ../../../../src/pic14/gen.c:2223:genCall
001A   0??? 0???      00305         PAGESEL $
                      00306 ;;      708 register type nRegs=4
                      00307 ;;; ../../../../src/pic14/gen.c:1929:assignResultValue *{*
                      00308 ;; ***  assignResultValue  1931
gpasm-1.5.0 #1285 (Jul 12 2020) obj/sdcc-16f8   11/12/23  13:12:31          PAGE  7


LOC    OBJECT CODE    LINE  SOURCE TEXT
  VALUE

                      00309 ;;      line = 1933 result -=-, size=0, left AOP_REG=r0x107A, size=4, right -=-, size=0
                      00310 ;; >>> ../../../../src/pic14/gen.c:1407:movwf
                      00311 ;;      1126 rIdx = r0x107D 
001C   0??? 0???      00312         BANKSEL r0x1027
001E   00??           00313         MOVWF   r0x1027
                      00314 ;; >>> ../../../../src/pic14/gen.c:1437:get_returnvalue
                      00315 ;; ***  popRegFromIdx,1059  , rIdx=0x7f
001F   08??           00316         MOVF    STK00,W
                      00317 ;; >>> ../../../../src/pic14/gen.c:1407:movwf
                      00318 ;;      1126 rIdx = r0x107C 
0020   00??           00319         MOVWF   r0x1028
                      00320 ;; >>> ../../../../src/pic14/gen.c:1437:get_returnvalue
                      00321 ;; ***  popRegFromIdx,1059  , rIdx=0x7e
0021   08??           00322         MOVF    STK01,W
                      00323 ;; >>> ../../../../src/pic14/gen.c:1407:movwf
                      00324 ;;      1126 rIdx = r0x107B 
0022   00??           00325         MOVWF   r0x1029
                      00326 ;; >>> ../../../../src/pic14/gen.c:1437:get_returnvalue
                      00327 ;; ***  popRegFromIdx,1059  , rIdx=0x7d
0023   08??           00328         MOVF    STK02,W
                      00329 ;; >>> ../../../../src/pic14/gen.c:1407:movwf
                      00330 ;;      1126 rIdx = r0x107A 
0024   00??           00331         MOVWF   r0x102A
0025   00??           00332         MOVWF   STK02
                      00333 ;;; ../../../../src/pic14/gen.c:1357:mov2w_op *{*
                      00334 ;; ***  mov2w  1395  offset=1
                      00335 ;; >>> ../../../../src/pic14/gen.c:1400:mov2w
                      00336 ;;      1126 rIdx = r0x107B 
0026   08??           00337         MOVF    r0x1029,W
                      00338 ;;      2158 left AOP_REG
                      00339 ;; >>> ../../../../src/pic14/gen.c:2166:genCall
                      00340 ;; ***  popRegFromIdx,1059  , rIdx=0x7e
0027   00??           00341         MOVWF   STK01
                      00342 ;;; ../../../../src/pic14/gen.c:1357:mov2w_op *{*
                      00343 ;; ***  mov2w  1395  offset=2
                      00344 ;; >>> ../../../../src/pic14/gen.c:1400:mov2w
                      00345 ;;      1126 rIdx = r0x107C 
0028   08??           00346         MOVF    r0x1028,W
                      00347 ;;      2158 left AOP_REG
                      00348 ;; >>> ../../../../src/pic14/gen.c:2166:genCall
                      00349 ;; ***  popRegFromIdx,1059  , rIdx=0x7f
0029   00??           00350         MOVWF   STK00
                      00351 ;;; ../../../../src/pic14/gen.c:1357:mov2w_op *{*
                      00352 ;; ***  mov2w  1395  offset=3
                      00353 ;; >>> ../../../../src/pic14/gen.c:1400:mov2w
                      00354 ;;      1126 rIdx = r0x107D 
002A   08??           00355         MOVF    r0x1027,W
                      00356 ;; >>> ../../../../src/pic14/gen.c:2207:genCall
002B   0??? 0???      00357         PAGESEL ___fs2sint
                      00358 ;; >>> ../../../../src/pic14/gen.c:2215:genCall
002D   2???           00359         CALL    ___fs2sint
                      00360 ;; >>> ../../../../src/pic14/gen.c:2223:genCall
002E   0??? 0???      00361         PAGESEL $
gpasm-1.5.0 #1285 (Jul 12 2020) obj/sdcc-16f8   11/12/23  13:12:31          PAGE  8


LOC    OBJECT CODE    LINE  SOURCE TEXT
  VALUE

                      00362 ;;      708 register type nRegs=2
                      00363 ;;; ../../../../src/pic14/gen.c:1929:assignResultValue *{*
                      00364 ;; ***  assignResultValue  1931
                      00365 ;;      line = 1933 result -=-, size=0, left AOP_REG=r0x107A, size=2, right -=-, size=0
                      00366 ;; >>> ../../../../src/pic14/gen.c:1407:movwf
                      00367 ;;      1126 rIdx = r0x107B 
0030   0??? 0???      00368         BANKSEL r0x1029
0032   00??           00369         MOVWF   r0x1029
                      00370 ;; >>> ../../../../src/pic14/gen.c:1437:get_returnvalue
                      00371 ;; ***  popRegFromIdx,1059  , rIdx=0x7f
0033   08??           00372         MOVF    STK00,W
                      00373 ;; >>> ../../../../src/pic14/gen.c:1407:movwf
                      00374 ;;      1126 rIdx = r0x107A 
0034   00??           00375         MOVWF   r0x102A
                      00376 ;;      2238 left AOP_REG
                      00377 ;;; ../../../../src/pic14/gen.c:2358:resultRemat *{*
                      00378 ;;; ../../../../src/pic14/gen.c:2802:genLabel *{*
                      00379 ;; ***  genLabel  2805
                      00380 ;;; ../../../../src/pic14/gen.c:2358:resultRemat *{*
                      00381 ;;; ../../../../src/pic14/gen.c:2358:resultRemat *{*
                      00382 ;;; ../../../../src/pic14/gen.c:2358:resultRemat *{*
                      00383 ;;; ../../../../src/pic14/gen.c:2108:genCall *{*
                      00384 ;; ***  genCall  2110
                      00385 ;;      708 register type nRegs=4
                      00386 ;;      708 register type nRegs=4
                      00387 ;;      2158 left AOP_REG
                      00388 ;;; ../../../../src/pic14/gen.c:1357:mov2w_op *{*
                      00389 ;; ***  mov2w  1395  offset=0
                      00390 ;; >>> ../../../../src/pic14/gen.c:1400:mov2w
                      00391 ;;      1126 rIdx = r0x1076 
0035                  00392 _00208_DS_:
                      00393         .line   92; "lib/format.c"      while(num > 0 + DBL_EPSILON) {
0035   0??? 0???      00394         BANKSEL r0x1025
0037   08??           00395         MOVF    r0x1025,W
                      00396 ;;      2158 left AOP_REG
                      00397 ;; >>> ../../../../src/pic14/gen.c:2166:genCall
                      00398 ;; ***  popRegFromIdx,1059  , rIdx=0x79
0038   00??           00399         MOVWF   STK06
                      00400 ;;; ../../../../src/pic14/gen.c:1357:mov2w_op *{*
                      00401 ;; ***  mov2w  1395  offset=1
                      00402 ;; >>> ../../../../src/pic14/gen.c:1400:mov2w
                      00403 ;;      1126 rIdx = r0x1077 
0039   08??           00404         MOVF    r0x1024,W
                      00405 ;;      2158 left AOP_REG
                      00406 ;; >>> ../../../../src/pic14/gen.c:2166:genCall
                      00407 ;; ***  popRegFromIdx,1059  , rIdx=0x7a
003A   00??           00408         MOVWF   STK05
                      00409 ;;; ../../../../src/pic14/gen.c:1357:mov2w_op *{*
                      00410 ;; ***  mov2w  1395  offset=2
                      00411 ;; >>> ../../../../src/pic14/gen.c:1400:mov2w
                      00412 ;;      1126 rIdx = r0x1078 
003B   08??           00413         MOVF    r0x1023,W
                      00414 ;;      2158 left AOP_REG
gpasm-1.5.0 #1285 (Jul 12 2020) obj/sdcc-16f8   11/12/23  13:12:31          PAGE  9


LOC    OBJECT CODE    LINE  SOURCE TEXT
  VALUE

                      00415 ;; >>> ../../../../src/pic14/gen.c:2166:genCall
                      00416 ;; ***  popRegFromIdx,1059  , rIdx=0x7b
003C   00??           00417         MOVWF   STK04
                      00418 ;;; ../../../../src/pic14/gen.c:1357:mov2w_op *{*
                      00419 ;; ***  mov2w  1395  offset=3
                      00420 ;; >>> ../../../../src/pic14/gen.c:1400:mov2w
                      00421 ;;      1126 rIdx = r0x1079 
003D   08??           00422         MOVF    r0x1022,W
                      00423 ;;      2158 left AOP_LIT
                      00424 ;; >>> ../../../../src/pic14/gen.c:2166:genCall
                      00425 ;; ***  popRegFromIdx,1059  , rIdx=0x7c
003E   00??           00426         MOVWF   STK03
                      00427 ;;; ../../../../src/pic14/gen.c:1357:mov2w_op *{*
                      00428 ;; >>> ../../../../src/pic14/gen.c:1375:mov2w_op
003F   3000           00429         MOVLW   0x00
                      00430 ;;      2158 left AOP_LIT
                      00431 ;; >>> ../../../../src/pic14/gen.c:2166:genCall
                      00432 ;; ***  popRegFromIdx,1059  , rIdx=0x7d
0040   00??           00433         MOVWF   STK02
                      00434 ;;; ../../../../src/pic14/gen.c:1357:mov2w_op *{*
                      00435 ;; >>> ../../../../src/pic14/gen.c:1375:mov2w_op
0041   3000           00436         MOVLW   0x00
                      00437 ;;      2158 left AOP_LIT
                      00438 ;; >>> ../../../../src/pic14/gen.c:2166:genCall
                      00439 ;; ***  popRegFromIdx,1059  , rIdx=0x7e
0042   00??           00440         MOVWF   STK01
                      00441 ;;; ../../../../src/pic14/gen.c:1357:mov2w_op *{*
                      00442 ;; >>> ../../../../src/pic14/gen.c:1375:mov2w_op
0043   3000           00443         MOVLW   0x00
                      00444 ;;      2158 left AOP_LIT
                      00445 ;; >>> ../../../../src/pic14/gen.c:2166:genCall
                      00446 ;; ***  popRegFromIdx,1059  , rIdx=0x7f
0044   00??           00447         MOVWF   STK00
                      00448 ;;; ../../../../src/pic14/gen.c:1357:mov2w_op *{*
                      00449 ;; >>> ../../../../src/pic14/gen.c:1375:mov2w_op
0045   3034           00450         MOVLW   0x34
                      00451 ;; >>> ../../../../src/pic14/gen.c:2207:genCall
0046   0??? 0???      00452         PAGESEL ___fslt
                      00453 ;; >>> ../../../../src/pic14/gen.c:2215:genCall
0048   2???           00454         CALL    ___fslt
                      00455 ;; >>> ../../../../src/pic14/gen.c:2223:genCall
0049   0??? 0???      00456         PAGESEL $
                      00457 ;;      708 register type nRegs=1
                      00458 ;;; ../../../../src/pic14/gen.c:1929:assignResultValue *{*
                      00459 ;; ***  assignResultValue  1931
                      00460 ;;      line = 1933 result -=-, size=0, left AOP_REG=r0x107C, size=1, right -=-, size=0
                      00461 ;; >>> ../../../../src/pic14/gen.c:1407:movwf
                      00462 ;;      1126 rIdx = r0x107C 
004B   0??? 0???      00463         BANKSEL r0x1028
004D   00??           00464         MOVWF   r0x1028
                      00465 ;;      2238 left AOP_REG
                      00466 ;;; ../../../../src/pic14/gen.c:2358:resultRemat *{*
                      00467 ;;; ../../../../src/pic14/gen.c:6991:genIfx *{*
gpasm-1.5.0 #1285 (Jul 12 2020) obj/sdcc-16f8   11/12/23  13:12:31          PAGE 10


LOC    OBJECT CODE    LINE  SOURCE TEXT
  VALUE

                      00468 ;; ***  genIfx  6992
                      00469 ;;      708 register type nRegs=1
                      00470 ;; ***  pic14_toBoolean  1515
                      00471 ;; ***  mov2w  1395  offset=0
                      00472 ;; >>> ../../../../src/pic14/gen.c:1400:mov2w
                      00473 ;;      1126 rIdx = r0x107C 
004E   08??           00474         MOVF    r0x1028,W
                      00475 ;; >>> ../../../../src/pic14/gen.c:7045:genIfx
004F   1903           00476         BTFSC   STATUS,2
                      00477 ;; >>> ../../../../src/pic14/gen.c:7046:genIfx
                      00478 ;; ***  popGetLabel  key=6, label offset 105
0050   2???           00479         GOTO    _00211_DS_
                      00480 ;;; ../../../../src/pic14/gen.c:2358:resultRemat *{*
                      00481 ;;; ../../../../src/pic14/gen.c:2358:resultRemat *{*
                      00482 ;;; ../../../../src/pic14/gen.c:2108:genCall *{*
                      00483 ;; ***  genCall  2110
                      00484 ;;      708 register type nRegs=2
                      00485 ;;      708 register type nRegs=2
                      00486 ;;      2158 left AOP_REG
                      00487 ;;; ../../../../src/pic14/gen.c:1357:mov2w_op *{*
                      00488 ;; ***  mov2w  1395  offset=0
                      00489 ;; >>> ../../../../src/pic14/gen.c:1400:mov2w
                      00490 ;;      1126 rIdx = r0x107A 
                      00491         .line   93; "lib/format.c"      double weight = pow(10.0l, m);
0051   08??           00492         MOVF    r0x102A,W
                      00493 ;;      2158 left AOP_REG
                      00494 ;; >>> ../../../../src/pic14/gen.c:2166:genCall
                      00495 ;; ***  popRegFromIdx,1059  , rIdx=0x7f
0052   00??           00496         MOVWF   STK00
                      00497 ;;; ../../../../src/pic14/gen.c:1357:mov2w_op *{*
                      00498 ;; ***  mov2w  1395  offset=1
                      00499 ;; >>> ../../../../src/pic14/gen.c:1400:mov2w
                      00500 ;;      1126 rIdx = r0x107B 
0053   08??           00501         MOVF    r0x1029,W
                      00502 ;; >>> ../../../../src/pic14/gen.c:2207:genCall
0054   0??? 0???      00503         PAGESEL ___sint2fs
                      00504 ;; >>> ../../../../src/pic14/gen.c:2215:genCall
0056   2???           00505         CALL    ___sint2fs
                      00506 ;; >>> ../../../../src/pic14/gen.c:2223:genCall
0057   0??? 0???      00507         PAGESEL $
                      00508 ;;      708 register type nRegs=4
                      00509 ;;; ../../../../src/pic14/gen.c:1929:assignResultValue *{*
                      00510 ;; ***  assignResultValue  1931
                      00511 ;;      line = 1933 result -=-, size=0, left AOP_REG=r0x107C, size=4, right -=-, size=0
                      00512 ;; >>> ../../../../src/pic14/gen.c:1407:movwf
                      00513 ;;      1126 rIdx = r0x107F 
0059   0??? 0???      00514         BANKSEL r0x102B
005B   00??           00515         MOVWF   r0x102B
                      00516 ;; >>> ../../../../src/pic14/gen.c:1437:get_returnvalue
                      00517 ;; ***  popRegFromIdx,1059  , rIdx=0x7f
005C   08??           00518         MOVF    STK00,W
                      00519 ;; >>> ../../../../src/pic14/gen.c:1407:movwf
                      00520 ;;      1126 rIdx = r0x107E 
gpasm-1.5.0 #1285 (Jul 12 2020) obj/sdcc-16f8   11/12/23  13:12:31          PAGE 11


LOC    OBJECT CODE    LINE  SOURCE TEXT
  VALUE

005D   00??           00521         MOVWF   r0x102C
                      00522 ;; >>> ../../../../src/pic14/gen.c:1437:get_returnvalue
                      00523 ;; ***  popRegFromIdx,1059  , rIdx=0x7e
005E   08??           00524         MOVF    STK01,W
                      00525 ;; >>> ../../../../src/pic14/gen.c:1407:movwf
                      00526 ;;      1126 rIdx = r0x107D 
005F   00??           00527         MOVWF   r0x1027
                      00528 ;; >>> ../../../../src/pic14/gen.c:1437:get_returnvalue
                      00529 ;; ***  popRegFromIdx,1059  , rIdx=0x7d
0060   08??           00530         MOVF    STK02,W
                      00531 ;; >>> ../../../../src/pic14/gen.c:1407:movwf
                      00532 ;;      1126 rIdx = r0x107C 
0061   00??           00533         MOVWF   r0x1028
0062   00??           00534         MOVWF   STK06
                      00535 ;;; ../../../../src/pic14/gen.c:1357:mov2w_op *{*
                      00536 ;; ***  mov2w  1395  offset=1
                      00537 ;; >>> ../../../../src/pic14/gen.c:1400:mov2w
                      00538 ;;      1126 rIdx = r0x107D 
0063   08??           00539         MOVF    r0x1027,W
                      00540 ;;      2158 left AOP_REG
                      00541 ;; >>> ../../../../src/pic14/gen.c:2166:genCall
                      00542 ;; ***  popRegFromIdx,1059  , rIdx=0x7a
0064   00??           00543         MOVWF   STK05
                      00544 ;;; ../../../../src/pic14/gen.c:1357:mov2w_op *{*
                      00545 ;; ***  mov2w  1395  offset=2
                      00546 ;; >>> ../../../../src/pic14/gen.c:1400:mov2w
                      00547 ;;      1126 rIdx = r0x107E 
0065   08??           00548         MOVF    r0x102C,W
                      00549 ;;      2158 left AOP_REG
                      00550 ;; >>> ../../../../src/pic14/gen.c:2166:genCall
                      00551 ;; ***  popRegFromIdx,1059  , rIdx=0x7b
0066   00??           00552         MOVWF   STK04
                      00553 ;;; ../../../../src/pic14/gen.c:1357:mov2w_op *{*
                      00554 ;; ***  mov2w  1395  offset=3
                      00555 ;; >>> ../../../../src/pic14/gen.c:1400:mov2w
                      00556 ;;      1126 rIdx = r0x107F 
0067   08??           00557         MOVF    r0x102B,W
                      00558 ;;      2158 left AOP_LIT
                      00559 ;; >>> ../../../../src/pic14/gen.c:2166:genCall
                      00560 ;; ***  popRegFromIdx,1059  , rIdx=0x7c
0068   00??           00561         MOVWF   STK03
                      00562 ;;; ../../../../src/pic14/gen.c:1357:mov2w_op *{*
                      00563 ;; >>> ../../../../src/pic14/gen.c:1375:mov2w_op
0069   3000           00564         MOVLW   0x00
                      00565 ;;      2158 left AOP_LIT
                      00566 ;; >>> ../../../../src/pic14/gen.c:2166:genCall
                      00567 ;; ***  popRegFromIdx,1059  , rIdx=0x7d
006A   00??           00568         MOVWF   STK02
                      00569 ;;; ../../../../src/pic14/gen.c:1357:mov2w_op *{*
                      00570 ;; >>> ../../../../src/pic14/gen.c:1375:mov2w_op
006B   3000           00571         MOVLW   0x00
                      00572 ;;      2158 left AOP_LIT
                      00573 ;; >>> ../../../../src/pic14/gen.c:2166:genCall
gpasm-1.5.0 #1285 (Jul 12 2020) obj/sdcc-16f8   11/12/23  13:12:31          PAGE 12


LOC    OBJECT CODE    LINE  SOURCE TEXT
  VALUE

                      00574 ;; ***  popRegFromIdx,1059  , rIdx=0x7e
006C   00??           00575         MOVWF   STK01
                      00576 ;;; ../../../../src/pic14/gen.c:1357:mov2w_op *{*
                      00577 ;; >>> ../../../../src/pic14/gen.c:1375:mov2w_op
006D   3020           00578         MOVLW   0x20
                      00579 ;;      2158 left AOP_LIT
                      00580 ;; >>> ../../../../src/pic14/gen.c:2166:genCall
                      00581 ;; ***  popRegFromIdx,1059  , rIdx=0x7f
006E   00??           00582         MOVWF   STK00
                      00583 ;;; ../../../../src/pic14/gen.c:1357:mov2w_op *{*
                      00584 ;; >>> ../../../../src/pic14/gen.c:1375:mov2w_op
006F   3041           00585         MOVLW   0x41
                      00586 ;; >>> ../../../../src/pic14/gen.c:2207:genCall
0070   0??? 0???      00587         PAGESEL _powf
                      00588 ;; >>> ../../../../src/pic14/gen.c:2215:genCall
0072   2???           00589         CALL    _powf
                      00590 ;; >>> ../../../../src/pic14/gen.c:2223:genCall
0073   0??? 0???      00591         PAGESEL $
                      00592 ;;      708 register type nRegs=4
                      00593 ;;; ../../../../src/pic14/gen.c:1929:assignResultValue *{*
                      00594 ;; ***  assignResultValue  1931
                      00595 ;;      line = 1933 result -=-, size=0, left AOP_REG=r0x107C, size=4, right -=-, size=0
                      00596 ;; >>> ../../../../src/pic14/gen.c:1407:movwf
                      00597 ;;      1126 rIdx = r0x107F 
0075   0??? 0???      00598         BANKSEL r0x102B
0077   00??           00599         MOVWF   r0x102B
                      00600 ;; >>> ../../../../src/pic14/gen.c:1437:get_returnvalue
                      00601 ;; ***  popRegFromIdx,1059  , rIdx=0x7f
0078   08??           00602         MOVF    STK00,W
                      00603 ;; >>> ../../../../src/pic14/gen.c:1407:movwf
                      00604 ;;      1126 rIdx = r0x107E 
0079   00??           00605         MOVWF   r0x102C
                      00606 ;; >>> ../../../../src/pic14/gen.c:1437:get_returnvalue
                      00607 ;; ***  popRegFromIdx,1059  , rIdx=0x7e
007A   08??           00608         MOVF    STK01,W
                      00609 ;; >>> ../../../../src/pic14/gen.c:1407:movwf
                      00610 ;;      1126 rIdx = r0x107D 
007B   00??           00611         MOVWF   r0x1027
                      00612 ;; >>> ../../../../src/pic14/gen.c:1437:get_returnvalue
                      00613 ;; ***  popRegFromIdx,1059  , rIdx=0x7d
007C   08??           00614         MOVF    STK02,W
                      00615 ;; >>> ../../../../src/pic14/gen.c:1407:movwf
                      00616 ;;      1126 rIdx = r0x107C 
                      00617         .line   94; "lib/format.c"      digit = (short)floor(num / weight);
007D   00??           00618         MOVWF   r0x1028
007E   00??           00619         MOVWF   STK06
                      00620 ;;; ../../../../src/pic14/gen.c:1357:mov2w_op *{*
                      00621 ;; ***  mov2w  1395  offset=1
                      00622 ;; >>> ../../../../src/pic14/gen.c:1400:mov2w
                      00623 ;;      1126 rIdx = r0x107D 
007F   08??           00624         MOVF    r0x1027,W
                      00625 ;;      2158 left AOP_REG
                      00626 ;; >>> ../../../../src/pic14/gen.c:2166:genCall
gpasm-1.5.0 #1285 (Jul 12 2020) obj/sdcc-16f8   11/12/23  13:12:31          PAGE 13


LOC    OBJECT CODE    LINE  SOURCE TEXT
  VALUE

                      00627 ;; ***  popRegFromIdx,1059  , rIdx=0x7a
0080   00??           00628         MOVWF   STK05
                      00629 ;;; ../../../../src/pic14/gen.c:1357:mov2w_op *{*
                      00630 ;; ***  mov2w  1395  offset=2
                      00631 ;; >>> ../../../../src/pic14/gen.c:1400:mov2w
                      00632 ;;      1126 rIdx = r0x107E 
0081   08??           00633         MOVF    r0x102C,W
                      00634 ;;      2158 left AOP_REG
                      00635 ;; >>> ../../../../src/pic14/gen.c:2166:genCall
                      00636 ;; ***  popRegFromIdx,1059  , rIdx=0x7b
0082   00??           00637         MOVWF   STK04
                      00638 ;;; ../../../../src/pic14/gen.c:1357:mov2w_op *{*
                      00639 ;; ***  mov2w  1395  offset=3
                      00640 ;; >>> ../../../../src/pic14/gen.c:1400:mov2w
                      00641 ;;      1126 rIdx = r0x107F 
0083   08??           00642         MOVF    r0x102B,W
                      00643 ;;      708 register type nRegs=4
                      00644 ;;      2158 left AOP_REG
                      00645 ;; >>> ../../../../src/pic14/gen.c:2166:genCall
                      00646 ;; ***  popRegFromIdx,1059  , rIdx=0x7c
0084   00??           00647         MOVWF   STK03
                      00648 ;;; ../../../../src/pic14/gen.c:1357:mov2w_op *{*
                      00649 ;; ***  mov2w  1395  offset=0
                      00650 ;; >>> ../../../../src/pic14/gen.c:1400:mov2w
                      00651 ;;      1126 rIdx = r0x1076 
0085   08??           00652         MOVF    r0x1025,W
                      00653 ;;      2158 left AOP_REG
                      00654 ;; >>> ../../../../src/pic14/gen.c:2166:genCall
                      00655 ;; ***  popRegFromIdx,1059  , rIdx=0x7d
0086   00??           00656         MOVWF   STK02
                      00657 ;;; ../../../../src/pic14/gen.c:1357:mov2w_op *{*
                      00658 ;; ***  mov2w  1395  offset=1
                      00659 ;; >>> ../../../../src/pic14/gen.c:1400:mov2w
                      00660 ;;      1126 rIdx = r0x1077 
0087   08??           00661         MOVF    r0x1024,W
                      00662 ;;      2158 left AOP_REG
                      00663 ;; >>> ../../../../src/pic14/gen.c:2166:genCall
                      00664 ;; ***  popRegFromIdx,1059  , rIdx=0x7e
0088   00??           00665         MOVWF   STK01
                      00666 ;;; ../../../../src/pic14/gen.c:1357:mov2w_op *{*
                      00667 ;; ***  mov2w  1395  offset=2
                      00668 ;; >>> ../../../../src/pic14/gen.c:1400:mov2w
                      00669 ;;      1126 rIdx = r0x1078 
0089   08??           00670         MOVF    r0x1023,W
                      00671 ;;      2158 left AOP_REG
                      00672 ;; >>> ../../../../src/pic14/gen.c:2166:genCall
                      00673 ;; ***  popRegFromIdx,1059  , rIdx=0x7f
008A   00??           00674         MOVWF   STK00
                      00675 ;;; ../../../../src/pic14/gen.c:1357:mov2w_op *{*
                      00676 ;; ***  mov2w  1395  offset=3
                      00677 ;; >>> ../../../../src/pic14/gen.c:1400:mov2w
                      00678 ;;      1126 rIdx = r0x1079 
008B   08??           00679         MOVF    r0x1022,W
gpasm-1.5.0 #1285 (Jul 12 2020) obj/sdcc-16f8   11/12/23  13:12:31          PAGE 14


LOC    OBJECT CODE    LINE  SOURCE TEXT
  VALUE

                      00680 ;; >>> ../../../../src/pic14/gen.c:2207:genCall
008C   0??? 0???      00681         PAGESEL ___fsdiv
                      00682 ;; >>> ../../../../src/pic14/gen.c:2215:genCall
008E   2???           00683         CALL    ___fsdiv
                      00684 ;; >>> ../../../../src/pic14/gen.c:2223:genCall
008F   0??? 0???      00685         PAGESEL $
                      00686 ;;      708 register type nRegs=4
                      00687 ;;; ../../../../src/pic14/gen.c:1929:assignResultValue *{*
                      00688 ;; ***  assignResultValue  1931
                      00689 ;;      line = 1933 result -=-, size=0, left AOP_REG=r0x1080, size=4, right -=-, size=0
                      00690 ;; >>> ../../../../src/pic14/gen.c:1407:movwf
                      00691 ;;      1126 rIdx = r0x1083 
0091   0??? 0???      00692         BANKSEL r0x102D
0093   00??           00693         MOVWF   r0x102D
                      00694 ;; >>> ../../../../src/pic14/gen.c:1437:get_returnvalue
                      00695 ;; ***  popRegFromIdx,1059  , rIdx=0x7f
0094   08??           00696         MOVF    STK00,W
                      00697 ;; >>> ../../../../src/pic14/gen.c:1407:movwf
                      00698 ;;      1126 rIdx = r0x1082 
0095   00??           00699         MOVWF   r0x102E
                      00700 ;; >>> ../../../../src/pic14/gen.c:1437:get_returnvalue
                      00701 ;; ***  popRegFromIdx,1059  , rIdx=0x7e
0096   08??           00702         MOVF    STK01,W
                      00703 ;; >>> ../../../../src/pic14/gen.c:1407:movwf
                      00704 ;;      1126 rIdx = r0x1081 
0097   00??           00705         MOVWF   r0x102F
                      00706 ;; >>> ../../../../src/pic14/gen.c:1437:get_returnvalue
                      00707 ;; ***  popRegFromIdx,1059  , rIdx=0x7d
0098   08??           00708         MOVF    STK02,W
                      00709 ;; >>> ../../../../src/pic14/gen.c:1407:movwf
                      00710 ;;      1126 rIdx = r0x1080 
0099   00??           00711         MOVWF   r0x1030
009A   00??           00712         MOVWF   STK02
                      00713 ;;; ../../../../src/pic14/gen.c:1357:mov2w_op *{*
                      00714 ;; ***  mov2w  1395  offset=1
                      00715 ;; >>> ../../../../src/pic14/gen.c:1400:mov2w
                      00716 ;;      1126 rIdx = r0x1081 
009B   08??           00717         MOVF    r0x102F,W
                      00718 ;;      2158 left AOP_REG
                      00719 ;; >>> ../../../../src/pic14/gen.c:2166:genCall
                      00720 ;; ***  popRegFromIdx,1059  , rIdx=0x7e
009C   00??           00721         MOVWF   STK01
                      00722 ;;; ../../../../src/pic14/gen.c:1357:mov2w_op *{*
                      00723 ;; ***  mov2w  1395  offset=2
                      00724 ;; >>> ../../../../src/pic14/gen.c:1400:mov2w
                      00725 ;;      1126 rIdx = r0x1082 
009D   08??           00726         MOVF    r0x102E,W
                      00727 ;;      2158 left AOP_REG
                      00728 ;; >>> ../../../../src/pic14/gen.c:2166:genCall
                      00729 ;; ***  popRegFromIdx,1059  , rIdx=0x7f
009E   00??           00730         MOVWF   STK00
                      00731 ;;; ../../../../src/pic14/gen.c:1357:mov2w_op *{*
                      00732 ;; ***  mov2w  1395  offset=3
gpasm-1.5.0 #1285 (Jul 12 2020) obj/sdcc-16f8   11/12/23  13:12:31          PAGE 15


LOC    OBJECT CODE    LINE  SOURCE TEXT
  VALUE

                      00733 ;; >>> ../../../../src/pic14/gen.c:1400:mov2w
                      00734 ;;      1126 rIdx = r0x1083 
009F   08??           00735         MOVF    r0x102D,W
                      00736 ;; >>> ../../../../src/pic14/gen.c:2207:genCall
00A0   0??? 0???      00737         PAGESEL _floorf
                      00738 ;; >>> ../../../../src/pic14/gen.c:2215:genCall
00A2   2???           00739         CALL    _floorf
                      00740 ;; >>> ../../../../src/pic14/gen.c:2223:genCall
00A3   0??? 0???      00741         PAGESEL $
                      00742 ;;      708 register type nRegs=4
                      00743 ;;; ../../../../src/pic14/gen.c:1929:assignResultValue *{*
                      00744 ;; ***  assignResultValue  1931
                      00745 ;;      line = 1933 result -=-, size=0, left AOP_REG=r0x1080, size=4, right -=-, size=0
                      00746 ;; >>> ../../../../src/pic14/gen.c:1407:movwf
                      00747 ;;      1126 rIdx = r0x1083 
00A5   0??? 0???      00748         BANKSEL r0x102D
00A7   00??           00749         MOVWF   r0x102D
                      00750 ;; >>> ../../../../src/pic14/gen.c:1437:get_returnvalue
                      00751 ;; ***  popRegFromIdx,1059  , rIdx=0x7f
00A8   08??           00752         MOVF    STK00,W
                      00753 ;; >>> ../../../../src/pic14/gen.c:1407:movwf
                      00754 ;;      1126 rIdx = r0x1082 
00A9   00??           00755         MOVWF   r0x102E
                      00756 ;; >>> ../../../../src/pic14/gen.c:1437:get_returnvalue
                      00757 ;; ***  popRegFromIdx,1059  , rIdx=0x7e
00AA   08??           00758         MOVF    STK01,W
                      00759 ;; >>> ../../../../src/pic14/gen.c:1407:movwf
                      00760 ;;      1126 rIdx = r0x1081 
00AB   00??           00761         MOVWF   r0x102F
                      00762 ;; >>> ../../../../src/pic14/gen.c:1437:get_returnvalue
                      00763 ;; ***  popRegFromIdx,1059  , rIdx=0x7d
00AC   08??           00764         MOVF    STK02,W
                      00765 ;; >>> ../../../../src/pic14/gen.c:1407:movwf
                      00766 ;;      1126 rIdx = r0x1080 
00AD   00??           00767         MOVWF   r0x1030
00AE   00??           00768         MOVWF   STK02
                      00769 ;;; ../../../../src/pic14/gen.c:1357:mov2w_op *{*
                      00770 ;; ***  mov2w  1395  offset=1
                      00771 ;; >>> ../../../../src/pic14/gen.c:1400:mov2w
                      00772 ;;      1126 rIdx = r0x1081 
00AF   08??           00773         MOVF    r0x102F,W
                      00774 ;;      2158 left AOP_REG
                      00775 ;; >>> ../../../../src/pic14/gen.c:2166:genCall
                      00776 ;; ***  popRegFromIdx,1059  , rIdx=0x7e
00B0   00??           00777         MOVWF   STK01
                      00778 ;;; ../../../../src/pic14/gen.c:1357:mov2w_op *{*
                      00779 ;; ***  mov2w  1395  offset=2
                      00780 ;; >>> ../../../../src/pic14/gen.c:1400:mov2w
                      00781 ;;      1126 rIdx = r0x1082 
00B1   08??           00782         MOVF    r0x102E,W
                      00783 ;;      2158 left AOP_REG
                      00784 ;; >>> ../../../../src/pic14/gen.c:2166:genCall
                      00785 ;; ***  popRegFromIdx,1059  , rIdx=0x7f
gpasm-1.5.0 #1285 (Jul 12 2020) obj/sdcc-16f8   11/12/23  13:12:31          PAGE 16


LOC    OBJECT CODE    LINE  SOURCE TEXT
  VALUE

00B2   00??           00786         MOVWF   STK00
                      00787 ;;; ../../../../src/pic14/gen.c:1357:mov2w_op *{*
                      00788 ;; ***  mov2w  1395  offset=3
                      00789 ;; >>> ../../../../src/pic14/gen.c:1400:mov2w
                      00790 ;;      1126 rIdx = r0x1083 
00B3   08??           00791         MOVF    r0x102D,W
                      00792 ;; >>> ../../../../src/pic14/gen.c:2207:genCall
00B4   0??? 0???      00793         PAGESEL ___fs2sint
                      00794 ;; >>> ../../../../src/pic14/gen.c:2215:genCall
00B6   2???           00795         CALL    ___fs2sint
                      00796 ;; >>> ../../../../src/pic14/gen.c:2223:genCall
00B7   0??? 0???      00797         PAGESEL $
                      00798 ;;      708 register type nRegs=2
                      00799 ;;; ../../../../src/pic14/gen.c:1929:assignResultValue *{*
                      00800 ;; ***  assignResultValue  1931
                      00801 ;;      line = 1933 result -=-, size=0, left AOP_REG=r0x1080, size=2, right -=-, size=0
                      00802 ;; >>> ../../../../src/pic14/gen.c:1407:movwf
                      00803 ;;      1126 rIdx = r0x1081 
00B9   0??? 0???      00804         BANKSEL r0x102F
00BB   00??           00805         MOVWF   r0x102F
                      00806 ;; >>> ../../../../src/pic14/gen.c:1437:get_returnvalue
                      00807 ;; ***  popRegFromIdx,1059  , rIdx=0x7f
00BC   08??           00808         MOVF    STK00,W
                      00809 ;; >>> ../../../../src/pic14/gen.c:1407:movwf
                      00810 ;;      1126 rIdx = r0x1080 
                      00811         .line   95; "lib/format.c"      num -= (digit * weight);
00BD   00??           00812         MOVWF   r0x1030
00BE   00??           00813         MOVWF   STK00
                      00814 ;;; ../../../../src/pic14/gen.c:1357:mov2w_op *{*
                      00815 ;; ***  mov2w  1395  offset=1
                      00816 ;; >>> ../../../../src/pic14/gen.c:1400:mov2w
                      00817 ;;      1126 rIdx = r0x1081 
00BF   08??           00818         MOVF    r0x102F,W
                      00819 ;; >>> ../../../../src/pic14/gen.c:2207:genCall
00C0   0??? 0???      00820         PAGESEL ___sint2fs
                      00821 ;; >>> ../../../../src/pic14/gen.c:2215:genCall
00C2   2???           00822         CALL    ___sint2fs
                      00823 ;; >>> ../../../../src/pic14/gen.c:2223:genCall
00C3   0??? 0???      00824         PAGESEL $
                      00825 ;;      708 register type nRegs=4
                      00826 ;;; ../../../../src/pic14/gen.c:1929:assignResultValue *{*
                      00827 ;; ***  assignResultValue  1931
                      00828 ;;      line = 1933 result -=-, size=0, left AOP_REG=r0x1082, size=4, right -=-, size=0
                      00829 ;; >>> ../../../../src/pic14/gen.c:1407:movwf
                      00830 ;;      1126 rIdx = r0x1085 
00C5   0??? 0???      00831         BANKSEL r0x1031
00C7   00??           00832         MOVWF   r0x1031
                      00833 ;; >>> ../../../../src/pic14/gen.c:1437:get_returnvalue
                      00834 ;; ***  popRegFromIdx,1059  , rIdx=0x7f
00C8   08??           00835         MOVF    STK00,W
                      00836 ;; >>> ../../../../src/pic14/gen.c:1407:movwf
                      00837 ;;      1126 rIdx = r0x1084 
00C9   00??           00838         MOVWF   r0x1032
gpasm-1.5.0 #1285 (Jul 12 2020) obj/sdcc-16f8   11/12/23  13:12:31          PAGE 17


LOC    OBJECT CODE    LINE  SOURCE TEXT
  VALUE

                      00839 ;; >>> ../../../../src/pic14/gen.c:1437:get_returnvalue
                      00840 ;; ***  popRegFromIdx,1059  , rIdx=0x7e
00CA   08??           00841         MOVF    STK01,W
                      00842 ;; >>> ../../../../src/pic14/gen.c:1407:movwf
                      00843 ;;      1126 rIdx = r0x1083 
00CB   00??           00844         MOVWF   r0x102D
                      00845 ;; >>> ../../../../src/pic14/gen.c:1437:get_returnvalue
                      00846 ;; ***  popRegFromIdx,1059  , rIdx=0x7d
00CC   08??           00847         MOVF    STK02,W
                      00848 ;; >>> ../../../../src/pic14/gen.c:1407:movwf
                      00849 ;;      1126 rIdx = r0x1082 
00CD   00??           00850         MOVWF   r0x102E
                      00851 ;;      2238 left AOP_REG
                      00852 ;;; ../../../../src/pic14/gen.c:2358:resultRemat *{*
                      00853 ;;; ../../../../src/pic14/gen.c:2358:resultRemat *{*
                      00854 ;;; ../../../../src/pic14/gen.c:2358:resultRemat *{*
                      00855 ;;; ../../../../src/pic14/gen.c:2108:genCall *{*
                      00856 ;; ***  genCall  2110
                      00857 ;;      708 register type nRegs=4
                      00858 ;;      708 register type nRegs=4
                      00859 ;;      708 register type nRegs=4
                      00860 ;;      2158 left AOP_REG
                      00861 ;;; ../../../../src/pic14/gen.c:1357:mov2w_op *{*
                      00862 ;; ***  mov2w  1395  offset=0
                      00863 ;; >>> ../../../../src/pic14/gen.c:1400:mov2w
                      00864 ;;      1126 rIdx = r0x107C 
00CE   08??           00865         MOVF    r0x1028,W
                      00866 ;;      2158 left AOP_REG
                      00867 ;; >>> ../../../../src/pic14/gen.c:2166:genCall
                      00868 ;; ***  popRegFromIdx,1059  , rIdx=0x79
00CF   00??           00869         MOVWF   STK06
                      00870 ;;; ../../../../src/pic14/gen.c:1357:mov2w_op *{*
                      00871 ;; ***  mov2w  1395  offset=1
                      00872 ;; >>> ../../../../src/pic14/gen.c:1400:mov2w
                      00873 ;;      1126 rIdx = r0x107D 
00D0   08??           00874         MOVF    r0x1027,W
                      00875 ;;      2158 left AOP_REG
                      00876 ;; >>> ../../../../src/pic14/gen.c:2166:genCall
                      00877 ;; ***  popRegFromIdx,1059  , rIdx=0x7a
00D1   00??           00878         MOVWF   STK05
                      00879 ;;; ../../../../src/pic14/gen.c:1357:mov2w_op *{*
                      00880 ;; ***  mov2w  1395  offset=2
                      00881 ;; >>> ../../../../src/pic14/gen.c:1400:mov2w
                      00882 ;;      1126 rIdx = r0x107E 
00D2   08??           00883         MOVF    r0x102C,W
                      00884 ;;      2158 left AOP_REG
                      00885 ;; >>> ../../../../src/pic14/gen.c:2166:genCall
                      00886 ;; ***  popRegFromIdx,1059  , rIdx=0x7b
00D3   00??           00887         MOVWF   STK04
                      00888 ;;; ../../../../src/pic14/gen.c:1357:mov2w_op *{*
                      00889 ;; ***  mov2w  1395  offset=3
                      00890 ;; >>> ../../../../src/pic14/gen.c:1400:mov2w
                      00891 ;;      1126 rIdx = r0x107F 
gpasm-1.5.0 #1285 (Jul 12 2020) obj/sdcc-16f8   11/12/23  13:12:31          PAGE 18


LOC    OBJECT CODE    LINE  SOURCE TEXT
  VALUE

00D4   08??           00892         MOVF    r0x102B,W
                      00893 ;;      708 register type nRegs=4
                      00894 ;;      2158 left AOP_REG
                      00895 ;; >>> ../../../../src/pic14/gen.c:2166:genCall
                      00896 ;; ***  popRegFromIdx,1059  , rIdx=0x7c
00D5   00??           00897         MOVWF   STK03
                      00898 ;;; ../../../../src/pic14/gen.c:1357:mov2w_op *{*
                      00899 ;; ***  mov2w  1395  offset=0
                      00900 ;; >>> ../../../../src/pic14/gen.c:1400:mov2w
                      00901 ;;      1126 rIdx = r0x1082 
00D6   08??           00902         MOVF    r0x102E,W
                      00903 ;;      2158 left AOP_REG
                      00904 ;; >>> ../../../../src/pic14/gen.c:2166:genCall
                      00905 ;; ***  popRegFromIdx,1059  , rIdx=0x7d
00D7   00??           00906         MOVWF   STK02
                      00907 ;;; ../../../../src/pic14/gen.c:1357:mov2w_op *{*
                      00908 ;; ***  mov2w  1395  offset=1
                      00909 ;; >>> ../../../../src/pic14/gen.c:1400:mov2w
                      00910 ;;      1126 rIdx = r0x1083 
00D8   08??           00911         MOVF    r0x102D,W
                      00912 ;;      2158 left AOP_REG
                      00913 ;; >>> ../../../../src/pic14/gen.c:2166:genCall
                      00914 ;; ***  popRegFromIdx,1059  , rIdx=0x7e
00D9   00??           00915         MOVWF   STK01
                      00916 ;;; ../../../../src/pic14/gen.c:1357:mov2w_op *{*
                      00917 ;; ***  mov2w  1395  offset=2
                      00918 ;; >>> ../../../../src/pic14/gen.c:1400:mov2w
                      00919 ;;      1126 rIdx = r0x1084 
00DA   08??           00920         MOVF    r0x1032,W
                      00921 ;;      2158 left AOP_REG
                      00922 ;; >>> ../../../../src/pic14/gen.c:2166:genCall
                      00923 ;; ***  popRegFromIdx,1059  , rIdx=0x7f
00DB   00??           00924         MOVWF   STK00
                      00925 ;;; ../../../../src/pic14/gen.c:1357:mov2w_op *{*
                      00926 ;; ***  mov2w  1395  offset=3
                      00927 ;; >>> ../../../../src/pic14/gen.c:1400:mov2w
                      00928 ;;      1126 rIdx = r0x1085 
00DC   08??           00929         MOVF    r0x1031,W
                      00930 ;; >>> ../../../../src/pic14/gen.c:2207:genCall
00DD   0??? 0???      00931         PAGESEL ___fsmul
                      00932 ;; >>> ../../../../src/pic14/gen.c:2215:genCall
00DF   2???           00933         CALL    ___fsmul
                      00934 ;; >>> ../../../../src/pic14/gen.c:2223:genCall
00E0   0??? 0???      00935         PAGESEL $
                      00936 ;;      708 register type nRegs=4
                      00937 ;;; ../../../../src/pic14/gen.c:1929:assignResultValue *{*
                      00938 ;; ***  assignResultValue  1931
                      00939 ;;      line = 1933 result -=-, size=0, left AOP_REG=r0x107C, size=4, right -=-, size=0
                      00940 ;; >>> ../../../../src/pic14/gen.c:1407:movwf
                      00941 ;;      1126 rIdx = r0x107F 
00E2   0??? 0???      00942         BANKSEL r0x102B
00E4   00??           00943         MOVWF   r0x102B
                      00944 ;; >>> ../../../../src/pic14/gen.c:1437:get_returnvalue
gpasm-1.5.0 #1285 (Jul 12 2020) obj/sdcc-16f8   11/12/23  13:12:31          PAGE 19


LOC    OBJECT CODE    LINE  SOURCE TEXT
  VALUE

                      00945 ;; ***  popRegFromIdx,1059  , rIdx=0x7f
00E5   08??           00946         MOVF    STK00,W
                      00947 ;; >>> ../../../../src/pic14/gen.c:1407:movwf
                      00948 ;;      1126 rIdx = r0x107E 
00E6   00??           00949         MOVWF   r0x102C
                      00950 ;; >>> ../../../../src/pic14/gen.c:1437:get_returnvalue
                      00951 ;; ***  popRegFromIdx,1059  , rIdx=0x7e
00E7   08??           00952         MOVF    STK01,W
                      00953 ;; >>> ../../../../src/pic14/gen.c:1407:movwf
                      00954 ;;      1126 rIdx = r0x107D 
00E8   00??           00955         MOVWF   r0x1027
                      00956 ;; >>> ../../../../src/pic14/gen.c:1437:get_returnvalue
                      00957 ;; ***  popRegFromIdx,1059  , rIdx=0x7d
00E9   08??           00958         MOVF    STK02,W
                      00959 ;; >>> ../../../../src/pic14/gen.c:1407:movwf
                      00960 ;;      1126 rIdx = r0x107C 
00EA   00??           00961         MOVWF   r0x1028
00EB   00??           00962         MOVWF   STK06
                      00963 ;;; ../../../../src/pic14/gen.c:1357:mov2w_op *{*
                      00964 ;; ***  mov2w  1395  offset=1
                      00965 ;; >>> ../../../../src/pic14/gen.c:1400:mov2w
                      00966 ;;      1126 rIdx = r0x107D 
00EC   08??           00967         MOVF    r0x1027,W
                      00968 ;;      2158 left AOP_REG
                      00969 ;; >>> ../../../../src/pic14/gen.c:2166:genCall
                      00970 ;; ***  popRegFromIdx,1059  , rIdx=0x7a
00ED   00??           00971         MOVWF   STK05
                      00972 ;;; ../../../../src/pic14/gen.c:1357:mov2w_op *{*
                      00973 ;; ***  mov2w  1395  offset=2
                      00974 ;; >>> ../../../../src/pic14/gen.c:1400:mov2w
                      00975 ;;      1126 rIdx = r0x107E 
00EE   08??           00976         MOVF    r0x102C,W
                      00977 ;;      2158 left AOP_REG
                      00978 ;; >>> ../../../../src/pic14/gen.c:2166:genCall
                      00979 ;; ***  popRegFromIdx,1059  , rIdx=0x7b
00EF   00??           00980         MOVWF   STK04
                      00981 ;;; ../../../../src/pic14/gen.c:1357:mov2w_op *{*
                      00982 ;; ***  mov2w  1395  offset=3
                      00983 ;; >>> ../../../../src/pic14/gen.c:1400:mov2w
                      00984 ;;      1126 rIdx = r0x107F 
00F0   08??           00985         MOVF    r0x102B,W
                      00986 ;;      708 register type nRegs=4
                      00987 ;;      2158 left AOP_REG
                      00988 ;; >>> ../../../../src/pic14/gen.c:2166:genCall
                      00989 ;; ***  popRegFromIdx,1059  , rIdx=0x7c
00F1   00??           00990         MOVWF   STK03
                      00991 ;;; ../../../../src/pic14/gen.c:1357:mov2w_op *{*
                      00992 ;; ***  mov2w  1395  offset=0
                      00993 ;; >>> ../../../../src/pic14/gen.c:1400:mov2w
                      00994 ;;      1126 rIdx = r0x1076 
00F2   08??           00995         MOVF    r0x1025,W
                      00996 ;;      2158 left AOP_REG
                      00997 ;; >>> ../../../../src/pic14/gen.c:2166:genCall
gpasm-1.5.0 #1285 (Jul 12 2020) obj/sdcc-16f8   11/12/23  13:12:31          PAGE 20


LOC    OBJECT CODE    LINE  SOURCE TEXT
  VALUE

                      00998 ;; ***  popRegFromIdx,1059  , rIdx=0x7d
00F3   00??           00999         MOVWF   STK02
                      01000 ;;; ../../../../src/pic14/gen.c:1357:mov2w_op *{*
                      01001 ;; ***  mov2w  1395  offset=1
                      01002 ;; >>> ../../../../src/pic14/gen.c:1400:mov2w
                      01003 ;;      1126 rIdx = r0x1077 
00F4   08??           01004         MOVF    r0x1024,W
                      01005 ;;      2158 left AOP_REG
                      01006 ;; >>> ../../../../src/pic14/gen.c:2166:genCall
                      01007 ;; ***  popRegFromIdx,1059  , rIdx=0x7e
00F5   00??           01008         MOVWF   STK01
                      01009 ;;; ../../../../src/pic14/gen.c:1357:mov2w_op *{*
                      01010 ;; ***  mov2w  1395  offset=2
                      01011 ;; >>> ../../../../src/pic14/gen.c:1400:mov2w
                      01012 ;;      1126 rIdx = r0x1078 
00F6   08??           01013         MOVF    r0x1023,W
                      01014 ;;      2158 left AOP_REG
                      01015 ;; >>> ../../../../src/pic14/gen.c:2166:genCall
                      01016 ;; ***  popRegFromIdx,1059  , rIdx=0x7f
00F7   00??           01017         MOVWF   STK00
                      01018 ;;; ../../../../src/pic14/gen.c:1357:mov2w_op *{*
                      01019 ;; ***  mov2w  1395  offset=3
                      01020 ;; >>> ../../../../src/pic14/gen.c:1400:mov2w
                      01021 ;;      1126 rIdx = r0x1079 
00F8   08??           01022         MOVF    r0x1022,W
                      01023 ;; >>> ../../../../src/pic14/gen.c:2207:genCall
00F9   0??? 0???      01024         PAGESEL ___fssub
                      01025 ;; >>> ../../../../src/pic14/gen.c:2215:genCall
00FB   2???           01026         CALL    ___fssub
                      01027 ;; >>> ../../../../src/pic14/gen.c:2223:genCall
00FC   0??? 0???      01028         PAGESEL $
                      01029 ;;      708 register type nRegs=4
                      01030 ;;; ../../../../src/pic14/gen.c:1929:assignResultValue *{*
                      01031 ;; ***  assignResultValue  1931
                      01032 ;;      line = 1933 result -=-, size=0, left AOP_REG=r0x1076, size=4, right -=-, size=0
                      01033 ;; >>> ../../../../src/pic14/gen.c:1407:movwf
                      01034 ;;      1126 rIdx = r0x1079 
00FE   0??? 0???      01035         BANKSEL r0x1022
0100   00??           01036         MOVWF   r0x1022
                      01037 ;; >>> ../../../../src/pic14/gen.c:1437:get_returnvalue
                      01038 ;; ***  popRegFromIdx,1059  , rIdx=0x7f
0101   08??           01039         MOVF    STK00,W
                      01040 ;; >>> ../../../../src/pic14/gen.c:1407:movwf
                      01041 ;;      1126 rIdx = r0x1078 
0102   00??           01042         MOVWF   r0x1023
                      01043 ;; >>> ../../../../src/pic14/gen.c:1437:get_returnvalue
                      01044 ;; ***  popRegFromIdx,1059  , rIdx=0x7e
0103   08??           01045         MOVF    STK01,W
                      01046 ;; >>> ../../../../src/pic14/gen.c:1407:movwf
                      01047 ;;      1126 rIdx = r0x1077 
0104   00??           01048         MOVWF   r0x1024
                      01049 ;; >>> ../../../../src/pic14/gen.c:1437:get_returnvalue
                      01050 ;; ***  popRegFromIdx,1059  , rIdx=0x7d
gpasm-1.5.0 #1285 (Jul 12 2020) obj/sdcc-16f8   11/12/23  13:12:31          PAGE 21


LOC    OBJECT CODE    LINE  SOURCE TEXT
  VALUE

0105   08??           01051         MOVF    STK02,W
                      01052 ;; >>> ../../../../src/pic14/gen.c:1407:movwf
                      01053 ;;      1126 rIdx = r0x1076 
0106   00??           01054         MOVWF   r0x1025
                      01055 ;;      2238 left AOP_REG
                      01056 ;;; ../../../../src/pic14/gen.c:2358:resultRemat *{*
                      01057 ;;; ../../../../src/pic14/gen.c:7353:genCast *{*
                      01058 ;; ***  genCast  7354
                      01059 ;;      708 register type nRegs=2
                      01060 ;;      708 register type nRegs=1
                      01061 ;;      line = 7362 result AOP_REG=r0x107C, size=1, left -=-, size=0, right AOP_REG=r0x1080, size=2
                      01062 ;; ***  genCast  7504
                      01063 ;; >>> ../../../../src/pic14/gen.c:7528:genCast
                      01064 ;;      1126 rIdx = r0x1080 
                      01065         .line   96; "lib/format.c"      fn((char)('0' + digit));
0107   08??           01066         MOVF    r0x1030,W
                      01067 ;; >>> ../../../../src/pic14/gen.c:7529:genCast
                      01068 ;;      1126 rIdx = r0x107C 
0108   00??           01069         MOVWF   r0x1028
                      01070 ;;; ../../../../src/pic14/gen.c:2358:resultRemat *{*
                      01071 ;; ***  genPlus  707
                      01072 ;;; ../../../../src/pic14/genarith.c:708:genPlus *{*
                      01073 ;;      708 register type nRegs=1
                      01074 ;;      708 register type nRegs=1
                      01075 ;;      line = 714 result AOP_REG=r0x1080, size=1, left AOP_REG=r0x107C, size=1, right AOP_LIT=0x30, siz
                            e=1
                      01076 ;;; ../../../../src/pic14/genarith.c:159:genPlusIncr *{*
                      01077 ;; ***  genPlusIncr  161
                      01078 ;;      result AOP_REG, left AOP_REG, right AOP_LIT
                      01079 ;;      genPlusIncr  173
                      01080 ;;      adding lit to something. size 1
                      01081 ;;; ../../../../src/pic14/genarith.c:286:genAddLit *{*
                      01082 ;; ***  genAddLit  287
                      01083 ;;  left and result aren't same genAddLit  537
                      01084 ;; >>> ../../../../src/pic14/genarith.c:581:genAddLit
0109   3030           01085         MOVLW   0x30
                      01086 ;; >>> ../../../../src/pic14/genarith.c:582:genAddLit
                      01087 ;;      1126 rIdx = r0x107C 
010A   07??           01088         ADDWF   r0x1028,W
                      01089 ;;; ../../../../src/pic14/genarith.c:270:emitMOVWF *{*
                      01090 ;; >>> ../../../../src/pic14/genarith.c:274:emitMOVWF
                      01091 ;;      1126 rIdx = r0x1080 
010B   00??           01092         MOVWF   r0x1030
010C   00??           01093         MOVWF   r0x1028
                      01094 ;;; ../../../../src/pic14/gen.c:2358:resultRemat *{*
                      01095 ;;; ../../../../src/pic14/gen.c:2358:resultRemat *{*
                      01096 ;;; ../../../../src/pic14/gen.c:2265:genPcall *{*
                      01097 ;; ***  genPcall  2267
                      01098 ;;      708 register type nRegs=2
                      01099 ;;      line = 2281 result -=-, size=0, left AOP_REG=r0x1074, size=2, right -=-, size=0
                      01100 ;; ***  genPcall  2290 - WARNING arg-passing to indirect call not supported
                      01101 ;; >>> ../../../../src/pic14/gen.c:2310:genPcall
                      01102 ;; ***  popGetLabel  key=21, label offset 105
gpasm-1.5.0 #1285 (Jul 12 2020) obj/sdcc-16f8   11/12/23  13:12:31          PAGE 22


LOC    OBJECT CODE    LINE  SOURCE TEXT
  VALUE

010D   2???           01103         CALL    _00226_DS_
                      01104 ;; ***  popGetLabel  key=22, label offset 105
                      01105 ;; >>> ../../../../src/pic14/gen.c:2312:genPcall
010E   0??? 0???      01106         PAGESEL _00227_DS_
                      01107 ;; >>> ../../../../src/pic14/gen.c:2313:genPcall
0110   2???           01108         GOTO    _00227_DS_
                      01109 ;; >>> ../../../../src/pic14/gen.c:2316:genPcall
                      01110 ;;      1126 rIdx = r0x1075 
0111                  01111 _00226_DS_:
0111   0??? 0???      01112         BANKSEL r0x1020
0113   08??           01113         MOVF    r0x1020,W
                      01114 ;; >>> ../../../../src/pic14/gen.c:2317:genPcall
0114   1283 1303      01115         BANKSEL PCLATH
0116   008A           01116         MOVWF   PCLATH
                      01117 ;; >>> ../../../../src/pic14/gen.c:2318:genPcall
                      01118 ;;      1126 rIdx = r0x1074 
0117   0??? 0???      01119         BANKSEL r0x1021
0119   08??           01120         MOVF    r0x1021,W
                      01121 ;; >>> ../../../../src/pic14/gen.c:2319:genPcall
011A   1283 1303      01122         BANKSEL PCL
011C   0082           01123         MOVWF   PCL
                      01124 ;;; ../../../../src/pic14/gen.c:2358:resultRemat *{*
                      01125 ;;; ../../../../src/pic14/gen.c:6991:genIfx *{*
                      01126 ;; ***  genIfx  6992
                      01127 ;;      708 register type nRegs=2
                      01128 ;; ***  pic14_toBoolean  1515
                      01129 ;; ***  mov2w  1395  offset=1
                      01130 ;; >>> ../../../../src/pic14/gen.c:1400:mov2w
                      01131 ;;      1126 rIdx = r0x107B 
011D                  01132 _00227_DS_:
                      01133         .line   97; "lib/format.c"      if(m == 0)
011D   0??? 0???      01134         BANKSEL r0x1029
011F   08??           01135         MOVF    r0x1029,W
                      01136 ;; >>> ../../../../src/pic14/gen.c:1533:pic14_toBoolean
                      01137 ;;      1126 rIdx = r0x107A 
0120   04??           01138         IORWF   r0x102A,W
                      01139 ;; >>> ../../../../src/pic14/gen.c:7040:genIfx
0121   1D03           01140         BTFSS   STATUS,2
                      01141 ;; >>> ../../../../src/pic14/gen.c:7041:genIfx
                      01142 ;; ***  popGetLabel  key=2, label offset 105
0122   2???           01143         GOTO    _00207_DS_
                      01144 ;;; ../../../../src/pic14/gen.c:2358:resultRemat *{*
                      01145 ;;; ../../../../src/pic14/gen.c:2358:resultRemat *{*
                      01146 ;;; ../../../../src/pic14/gen.c:2265:genPcall *{*
                      01147 ;; ***  genPcall  2267
                      01148 ;;      708 register type nRegs=2
                      01149 ;;      line = 2281 result -=-, size=0, left AOP_REG=r0x1074, size=2, right -=-, size=0
                      01150 ;; ***  genPcall  2290 - WARNING arg-passing to indirect call not supported
                      01151 ;; >>> ../../../../src/pic14/gen.c:2310:genPcall
                      01152 ;; ***  popGetLabel  key=23, label offset 105
                      01153         .line   98; "lib/format.c"      fn('.');
0123   2???           01154         CALL    _00228_DS_
                      01155 ;; ***  popGetLabel  key=24, label offset 105
gpasm-1.5.0 #1285 (Jul 12 2020) obj/sdcc-16f8   11/12/23  13:12:31          PAGE 23


LOC    OBJECT CODE    LINE  SOURCE TEXT
  VALUE

                      01156 ;; >>> ../../../../src/pic14/gen.c:2312:genPcall
0124   0??? 0???      01157         PAGESEL _00207_DS_
                      01158 ;; >>> ../../../../src/pic14/gen.c:2313:genPcall
0126   2???           01159         GOTO    _00207_DS_
                      01160 ;; >>> ../../../../src/pic14/gen.c:2316:genPcall
                      01161 ;;      1126 rIdx = r0x1075 
0127                  01162 _00228_DS_:
0127   0??? 0???      01163         BANKSEL r0x1020
0129   08??           01164         MOVF    r0x1020,W
                      01165 ;; >>> ../../../../src/pic14/gen.c:2317:genPcall
012A   1283 1303      01166         BANKSEL PCLATH
012C   008A           01167         MOVWF   PCLATH
                      01168 ;; >>> ../../../../src/pic14/gen.c:2318:genPcall
                      01169 ;;      1126 rIdx = r0x1074 
012D   0??? 0???      01170         BANKSEL r0x1021
012F   08??           01171         MOVF    r0x1021,W
                      01172 ;; >>> ../../../../src/pic14/gen.c:2319:genPcall
0130   1283 1303      01173         BANKSEL PCL
0132   0082           01174         MOVWF   PCL
                      01175 ;;; ../../../../src/pic14/gen.c:2358:resultRemat *{*
                      01176 ;;; ../../../../src/pic14/gen.c:2802:genLabel *{*
                      01177 ;; ***  genLabel  2805
                      01178 ;;; ../../../../src/pic14/gen.c:2358:resultRemat *{*
                      01179 ;;; ../../../../src/pic14/gen.c:7568:genDjnz *{*
                      01180 ;; ***  genDjnz  7569
                      01181 ;;; ../../../../src/pic14/genarith.c:1122:genMinus *{*
                      01182 ;; ***  genMinus  1123
                      01183 ;;      708 register type nRegs=2
                      01184 ;;      589
                      01185 ;;      result AOP_REG, left AOP_REG, right AOP_LIT
                      01186 ;;; ../../../../src/pic14/genarith.c:286:genAddLit *{*
                      01187 ;; ***  genAddLit  287
                      01188 ;; hi = ff      genAddLit  406
                      01189 ;; >>> ../../../../src/pic14/genarith.c:418:genAddLit
0133                  01190 _00207_DS_:
                      01191         .line   99; "lib/format.c"      m--;
0133   30FF           01192         MOVLW   0xff
                      01193 ;; >>> ../../../../src/pic14/genarith.c:419:genAddLit
                      01194 ;;      1126 rIdx = r0x107A 
0134   0??? 0???      01195         BANKSEL r0x102A
0136   07??           01196         ADDWF   r0x102A,F
                      01197 ;; >>> ../../../../src/pic14/genarith.c:420:genAddLit
0137   1C03           01198         BTFSS   STATUS,0
                      01199 ;; >>> ../../../../src/pic14/genarith.c:421:genAddLit
                      01200 ;;      1126 rIdx = r0x107B 
0138   03??           01201         DECF    r0x1029,F
                      01202 ;; ***  addSign  1087
                      01203 ;;; ../../../../src/pic14/genarith.c:1088:addSign *{*
                      01204 ;;; ../../../../src/pic14/gen.c:2358:resultRemat *{*
                      01205 ;;; ../../../../src/pic14/gen.c:2820:genGoto *{*
                      01206 ;; >>> ../../../../src/pic14/gen.c:2822:genGoto
                      01207 ;; ***  popGetLabel  key=3, label offset 105
0139   2???           01208         GOTO    _00208_DS_
gpasm-1.5.0 #1285 (Jul 12 2020) obj/sdcc-16f8   11/12/23  13:12:31          PAGE 24


LOC    OBJECT CODE    LINE  SOURCE TEXT
  VALUE

                      01209 ;;; ../../../../src/pic14/gen.c:2358:resultRemat *{*
                      01210 ;;; ../../../../src/pic14/gen.c:2802:genLabel *{*
                      01211 ;; ***  genLabel  2805
                      01212 ;;; ../../../../src/pic14/gen.c:2358:resultRemat *{*
                      01213 ;;; ../../../../src/pic14/gen.c:2570:genEndFunction *{*
                      01214 ;; ***  genEndFunction  2572
013A                  01215 _00211_DS_:
                      01216         .line   101; "lib/format.c"     }
013A   0008           01217         RETURN  
                      01218 ; exit point of _format_double
                      01219 
                      01220 ;***
                      01221 ;  pBlock Stats: dbName = C
                      01222 ;***
                      01223 ;has an exit
                      01224 ;functions called:
                      01225 ;   _log10f
                      01226 ;   ___fs2sint
                      01227 ;   ___fslt
                      01228 ;   ___sint2fs
                      01229 ;   _powf
                      01230 ;   ___fsdiv
                      01231 ;   _floorf
                      01232 ;   ___fs2uchar
                      01233 ;   ___uchar2fs
                      01234 ;   ___fsmul
                      01235 ;   ___fssub
                      01236 ;   _00198_DS_
                      01237 ;   _00200_DS_
                      01238 ;   _log10f
                      01239 ;   ___fs2sint
                      01240 ;   ___fslt
                      01241 ;   ___sint2fs
                      01242 ;   _powf
                      01243 ;   ___fsdiv
                      01244 ;   _floorf
                      01245 ;   ___fs2uchar
                      01246 ;   ___uchar2fs
                      01247 ;   ___fsmul
                      01248 ;   ___fssub
                      01249 ;   _00198_DS_
                      01250 ;   _00200_DS_
                      01251 ;24 compiler assigned registers:
                      01252 ;   r0x1033
                      01253 ;   STK00
                      01254 ;   r0x1034
                      01255 ;   STK01
                      01256 ;   r0x1035
                      01257 ;   STK02
                      01258 ;   r0x1036
                      01259 ;   STK03
                      01260 ;   r0x1037
                      01261 ;   STK04
gpasm-1.5.0 #1285 (Jul 12 2020) obj/sdcc-16f8   11/12/23  13:12:31          PAGE 25


LOC    OBJECT CODE    LINE  SOURCE TEXT
  VALUE

                      01262 ;   r0x1038
                      01263 ;   r0x1039
                      01264 ;   r0x103A
                      01265 ;   r0x103B
                      01266 ;   r0x103C
                      01267 ;   STK06
                      01268 ;   STK05
                      01269 ;   r0x103D
                      01270 ;   r0x103E
                      01271 ;   r0x103F
                      01272 ;   r0x1040
                      01273 ;   r0x1041
                      01274 ;   r0x1042
                      01275 ;   r0x1043
                      01276 ;; Starting pCode block
                      01277 ;;; ../../../../src/pic14/gen.c:2358:resultRemat *{*
                      01278 ;;; ../../../../src/pic14/gen.c:2802:genLabel *{*
                      01279 ;; ***  genLabel  2805
                      01280 ;;; ../../../../src/pic14/gen.c:2358:resultRemat *{*
                      01281 ;;; ../../../../src/pic14/gen.c:2382:genFunction *{*
                      01282 ;; ***  genFunction  2384 curr label offset=67previous max_key=6 
                      01283 S_format__format_float  code
0000                  01284 _format_float:
                      01285 ; 2 exit points
                      01286 ;;; ../../../../src/pic14/gen.c:2358:resultRemat *{*
                      01287 ;;; ../../../../src/pic14/gen.c:7609:genReceive *{*
                      01288 ;; ***  genReceive  7610
                      01289 ;;      708 register type nRegs=2
                      01290 ;;; ../../../../src/pic14/gen.c:1929:assignResultValue *{*
                      01291 ;; ***  assignResultValue  1931
                      01292 ;;      line = 1933 result -=-, size=0, left AOP_REG=r0x1063, size=2, right -=-, size=0
                      01293 ;; >>> ../../../../src/pic14/gen.c:1407:movwf
                      01294 ;;      1126 rIdx = r0x1064 
                      01295         .line   68; "lib/format.c"      format_float(putch_t fn, float num) {
0000   0??? 0???      01296         BANKSEL r0x1033
0002   00??           01297         MOVWF   r0x1033
                      01298 ;; >>> ../../../../src/pic14/gen.c:1437:get_returnvalue
                      01299 ;; ***  popRegFromIdx,1059  , rIdx=0x7f
0003   08??           01300         MOVF    STK00,W
                      01301 ;; >>> ../../../../src/pic14/gen.c:1407:movwf
                      01302 ;;      1126 rIdx = r0x1063 
0004   00??           01303         MOVWF   r0x1034
                      01304 ;;; ../../../../src/pic14/gen.c:2358:resultRemat *{*
                      01305 ;;; ../../../../src/pic14/gen.c:7609:genReceive *{*
                      01306 ;; ***  genReceive  7610
                      01307 ;;      708 register type nRegs=4
                      01308 ;;; ../../../../src/pic14/gen.c:1929:assignResultValue *{*
                      01309 ;; ***  assignResultValue  1931
                      01310 ;;      line = 1933 result -=-, size=0, left AOP_REG=r0x1065, size=4, right -=-, size=0
                      01311 ;; >>> ../../../../src/pic14/gen.c:1437:get_returnvalue
                      01312 ;; ***  popRegFromIdx,1059  , rIdx=0x7e
0005   08??           01313         MOVF    STK01,W
                      01314 ;; >>> ../../../../src/pic14/gen.c:1407:movwf
gpasm-1.5.0 #1285 (Jul 12 2020) obj/sdcc-16f8   11/12/23  13:12:31          PAGE 26


LOC    OBJECT CODE    LINE  SOURCE TEXT
  VALUE

                      01315 ;;      1126 rIdx = r0x1068 
0006   00??           01316         MOVWF   r0x1035
                      01317 ;; >>> ../../../../src/pic14/gen.c:1437:get_returnvalue
                      01318 ;; ***  popRegFromIdx,1059  , rIdx=0x7d
0007   08??           01319         MOVF    STK02,W
                      01320 ;; >>> ../../../../src/pic14/gen.c:1407:movwf
                      01321 ;;      1126 rIdx = r0x1067 
0008   00??           01322         MOVWF   r0x1036
                      01323 ;; >>> ../../../../src/pic14/gen.c:1437:get_returnvalue
                      01324 ;; ***  popRegFromIdx,1059  , rIdx=0x7c
0009   08??           01325         MOVF    STK03,W
                      01326 ;; >>> ../../../../src/pic14/gen.c:1407:movwf
                      01327 ;;      1126 rIdx = r0x1066 
000A   00??           01328         MOVWF   r0x1037
                      01329 ;; >>> ../../../../src/pic14/gen.c:1437:get_returnvalue
                      01330 ;; ***  popRegFromIdx,1059  , rIdx=0x7b
000B   08??           01331         MOVF    STK04,W
                      01332 ;; >>> ../../../../src/pic14/gen.c:1407:movwf
                      01333 ;;      1126 rIdx = r0x1065 
                      01334         .line   69; "lib/format.c"      short m = (int)log10f(num);
000C   00??           01335         MOVWF   r0x1038
000D   00??           01336         MOVWF   STK02
                      01337 ;;; ../../../../src/pic14/gen.c:1357:mov2w_op *{*
                      01338 ;; ***  mov2w  1395  offset=1
                      01339 ;; >>> ../../../../src/pic14/gen.c:1400:mov2w
                      01340 ;;      1126 rIdx = r0x1066 
000E   08??           01341         MOVF    r0x1037,W
                      01342 ;;      2158 left AOP_REG
                      01343 ;; >>> ../../../../src/pic14/gen.c:2166:genCall
                      01344 ;; ***  popRegFromIdx,1059  , rIdx=0x7e
000F   00??           01345         MOVWF   STK01
                      01346 ;;; ../../../../src/pic14/gen.c:1357:mov2w_op *{*
                      01347 ;; ***  mov2w  1395  offset=2
                      01348 ;; >>> ../../../../src/pic14/gen.c:1400:mov2w
                      01349 ;;      1126 rIdx = r0x1067 
0010   08??           01350         MOVF    r0x1036,W
                      01351 ;;      2158 left AOP_REG
                      01352 ;; >>> ../../../../src/pic14/gen.c:2166:genCall
                      01353 ;; ***  popRegFromIdx,1059  , rIdx=0x7f
0011   00??           01354         MOVWF   STK00
                      01355 ;;; ../../../../src/pic14/gen.c:1357:mov2w_op *{*
                      01356 ;; ***  mov2w  1395  offset=3
                      01357 ;; >>> ../../../../src/pic14/gen.c:1400:mov2w
                      01358 ;;      1126 rIdx = r0x1068 
0012   08??           01359         MOVF    r0x1035,W
                      01360 ;; >>> ../../../../src/pic14/gen.c:2207:genCall
0013   0??? 0???      01361         PAGESEL _log10f
                      01362 ;; >>> ../../../../src/pic14/gen.c:2215:genCall
0015   2???           01363         CALL    _log10f
                      01364 ;; >>> ../../../../src/pic14/gen.c:2223:genCall
0016   0??? 0???      01365         PAGESEL $
                      01366 ;;      708 register type nRegs=4
                      01367 ;;; ../../../../src/pic14/gen.c:1929:assignResultValue *{*
gpasm-1.5.0 #1285 (Jul 12 2020) obj/sdcc-16f8   11/12/23  13:12:31          PAGE 27


LOC    OBJECT CODE    LINE  SOURCE TEXT
  VALUE

                      01368 ;; ***  assignResultValue  1931
                      01369 ;;      line = 1933 result -=-, size=0, left AOP_REG=r0x1069, size=4, right -=-, size=0
                      01370 ;; >>> ../../../../src/pic14/gen.c:1407:movwf
                      01371 ;;      1126 rIdx = r0x106C 
0018   0??? 0???      01372         BANKSEL r0x1039
001A   00??           01373         MOVWF   r0x1039
                      01374 ;; >>> ../../../../src/pic14/gen.c:1437:get_returnvalue
                      01375 ;; ***  popRegFromIdx,1059  , rIdx=0x7f
001B   08??           01376         MOVF    STK00,W
                      01377 ;; >>> ../../../../src/pic14/gen.c:1407:movwf
                      01378 ;;      1126 rIdx = r0x106B 
001C   00??           01379         MOVWF   r0x103A
                      01380 ;; >>> ../../../../src/pic14/gen.c:1437:get_returnvalue
                      01381 ;; ***  popRegFromIdx,1059  , rIdx=0x7e
001D   08??           01382         MOVF    STK01,W
                      01383 ;; >>> ../../../../src/pic14/gen.c:1407:movwf
                      01384 ;;      1126 rIdx = r0x106A 
001E   00??           01385         MOVWF   r0x103B
                      01386 ;; >>> ../../../../src/pic14/gen.c:1437:get_returnvalue
                      01387 ;; ***  popRegFromIdx,1059  , rIdx=0x7d
001F   08??           01388         MOVF    STK02,W
                      01389 ;; >>> ../../../../src/pic14/gen.c:1407:movwf
                      01390 ;;      1126 rIdx = r0x1069 
0020   00??           01391         MOVWF   r0x103C
0021   00??           01392         MOVWF   STK02
                      01393 ;;; ../../../../src/pic14/gen.c:1357:mov2w_op *{*
                      01394 ;; ***  mov2w  1395  offset=1
                      01395 ;; >>> ../../../../src/pic14/gen.c:1400:mov2w
                      01396 ;;      1126 rIdx = r0x106A 
0022   08??           01397         MOVF    r0x103B,W
                      01398 ;;      2158 left AOP_REG
                      01399 ;; >>> ../../../../src/pic14/gen.c:2166:genCall
                      01400 ;; ***  popRegFromIdx,1059  , rIdx=0x7e
0023   00??           01401         MOVWF   STK01
                      01402 ;;; ../../../../src/pic14/gen.c:1357:mov2w_op *{*
                      01403 ;; ***  mov2w  1395  offset=2
                      01404 ;; >>> ../../../../src/pic14/gen.c:1400:mov2w
                      01405 ;;      1126 rIdx = r0x106B 
0024   08??           01406         MOVF    r0x103A,W
                      01407 ;;      2158 left AOP_REG
                      01408 ;; >>> ../../../../src/pic14/gen.c:2166:genCall
                      01409 ;; ***  popRegFromIdx,1059  , rIdx=0x7f
0025   00??           01410         MOVWF   STK00
                      01411 ;;; ../../../../src/pic14/gen.c:1357:mov2w_op *{*
                      01412 ;; ***  mov2w  1395  offset=3
                      01413 ;; >>> ../../../../src/pic14/gen.c:1400:mov2w
                      01414 ;;      1126 rIdx = r0x106C 
0026   08??           01415         MOVF    r0x1039,W
                      01416 ;; >>> ../../../../src/pic14/gen.c:2207:genCall
0027   0??? 0???      01417         PAGESEL ___fs2sint
                      01418 ;; >>> ../../../../src/pic14/gen.c:2215:genCall
0029   2???           01419         CALL    ___fs2sint
                      01420 ;; >>> ../../../../src/pic14/gen.c:2223:genCall
gpasm-1.5.0 #1285 (Jul 12 2020) obj/sdcc-16f8   11/12/23  13:12:31          PAGE 28


LOC    OBJECT CODE    LINE  SOURCE TEXT
  VALUE

002A   0??? 0???      01421         PAGESEL $
                      01422 ;;      708 register type nRegs=2
                      01423 ;;; ../../../../src/pic14/gen.c:1929:assignResultValue *{*
                      01424 ;; ***  assignResultValue  1931
                      01425 ;;      line = 1933 result -=-, size=0, left AOP_REG=r0x1069, size=2, right -=-, size=0
                      01426 ;; >>> ../../../../src/pic14/gen.c:1407:movwf
                      01427 ;;      1126 rIdx = r0x106A 
002C   0??? 0???      01428         BANKSEL r0x1039
002E   00??           01429         MOVWF   r0x1039
002F   00??           01430         MOVWF   r0x103B
                      01431 ;; >>> ../../../../src/pic14/gen.c:1437:get_returnvalue
                      01432 ;; ***  popRegFromIdx,1059  , rIdx=0x7f
0030   08??           01433         MOVF    STK00,W
                      01434 ;; >>> ../../../../src/pic14/gen.c:1407:movwf
                      01435 ;;      1126 rIdx = r0x1069 
0031   00??           01436         MOVWF   r0x103C
0032   00??           01437         MOVWF   r0x103A
                      01438 ;; >>> ../../../../src/pic14/gen.c:7528:genCast
                      01439 ;;      1126 rIdx = r0x106A 
                      01440 ;;112   MOVF    r0x103B,W
                      01441 ;; >>> ../../../../src/pic14/gen.c:7529:genCast
                      01442 ;;      1126 rIdx = r0x106C 
                      01443 ;;; ../../../../src/pic14/gen.c:2358:resultRemat *{*
                      01444 ;;; ../../../../src/pic14/gen.c:2802:genLabel *{*
                      01445 ;; ***  genLabel  2805
                      01446 ;;; ../../../../src/pic14/gen.c:2358:resultRemat *{*
                      01447 ;;; ../../../../src/pic14/gen.c:2358:resultRemat *{*
                      01448 ;;; ../../../../src/pic14/gen.c:2358:resultRemat *{*
                      01449 ;;; ../../../../src/pic14/gen.c:2108:genCall *{*
                      01450 ;; ***  genCall  2110
                      01451 ;;      708 register type nRegs=4
                      01452 ;;      708 register type nRegs=4
                      01453 ;;      2158 left AOP_REG
                      01454 ;;; ../../../../src/pic14/gen.c:1357:mov2w_op *{*
                      01455 ;; ***  mov2w  1395  offset=0
                      01456 ;; >>> ../../../../src/pic14/gen.c:1400:mov2w
                      01457 ;;      1126 rIdx = r0x1065 
0033                  01458 _00180_DS_:
                      01459         .line   73; "lib/format.c"      while(num > 0 + FLT_EPSILON) {
0033   0??? 0???      01460         BANKSEL r0x1038
0035   08??           01461         MOVF    r0x1038,W
                      01462 ;;      2158 left AOP_REG
                      01463 ;; >>> ../../../../src/pic14/gen.c:2166:genCall
                      01464 ;; ***  popRegFromIdx,1059  , rIdx=0x79
0036   00??           01465         MOVWF   STK06
                      01466 ;;; ../../../../src/pic14/gen.c:1357:mov2w_op *{*
                      01467 ;; ***  mov2w  1395  offset=1
                      01468 ;; >>> ../../../../src/pic14/gen.c:1400:mov2w
                      01469 ;;      1126 rIdx = r0x1066 
0037   08??           01470         MOVF    r0x1037,W
                      01471 ;;      2158 left AOP_REG
                      01472 ;; >>> ../../../../src/pic14/gen.c:2166:genCall
                      01473 ;; ***  popRegFromIdx,1059  , rIdx=0x7a
gpasm-1.5.0 #1285 (Jul 12 2020) obj/sdcc-16f8   11/12/23  13:12:31          PAGE 29


LOC    OBJECT CODE    LINE  SOURCE TEXT
  VALUE

0038   00??           01474         MOVWF   STK05
                      01475 ;;; ../../../../src/pic14/gen.c:1357:mov2w_op *{*
                      01476 ;; ***  mov2w  1395  offset=2
                      01477 ;; >>> ../../../../src/pic14/gen.c:1400:mov2w
                      01478 ;;      1126 rIdx = r0x1067 
0039   08??           01479         MOVF    r0x1036,W
                      01480 ;;      2158 left AOP_REG
                      01481 ;; >>> ../../../../src/pic14/gen.c:2166:genCall
                      01482 ;; ***  popRegFromIdx,1059  , rIdx=0x7b
003A   00??           01483         MOVWF   STK04
                      01484 ;;; ../../../../src/pic14/gen.c:1357:mov2w_op *{*
                      01485 ;; ***  mov2w  1395  offset=3
                      01486 ;; >>> ../../../../src/pic14/gen.c:1400:mov2w
                      01487 ;;      1126 rIdx = r0x1068 
003B   08??           01488         MOVF    r0x1035,W
                      01489 ;;      2158 left AOP_LIT
                      01490 ;; >>> ../../../../src/pic14/gen.c:2166:genCall
                      01491 ;; ***  popRegFromIdx,1059  , rIdx=0x7c
003C   00??           01492         MOVWF   STK03
                      01493 ;;; ../../../../src/pic14/gen.c:1357:mov2w_op *{*
                      01494 ;; >>> ../../../../src/pic14/gen.c:1375:mov2w_op
003D   3000           01495         MOVLW   0x00
                      01496 ;;      2158 left AOP_LIT
                      01497 ;; >>> ../../../../src/pic14/gen.c:2166:genCall
                      01498 ;; ***  popRegFromIdx,1059  , rIdx=0x7d
003E   00??           01499         MOVWF   STK02
                      01500 ;;; ../../../../src/pic14/gen.c:1357:mov2w_op *{*
                      01501 ;; >>> ../../../../src/pic14/gen.c:1375:mov2w_op
003F   3000           01502         MOVLW   0x00
                      01503 ;;      2158 left AOP_LIT
                      01504 ;; >>> ../../../../src/pic14/gen.c:2166:genCall
                      01505 ;; ***  popRegFromIdx,1059  , rIdx=0x7e
0040   00??           01506         MOVWF   STK01
                      01507 ;;; ../../../../src/pic14/gen.c:1357:mov2w_op *{*
                      01508 ;; >>> ../../../../src/pic14/gen.c:1375:mov2w_op
0041   3000           01509         MOVLW   0x00
                      01510 ;;      2158 left AOP_LIT
                      01511 ;; >>> ../../../../src/pic14/gen.c:2166:genCall
                      01512 ;; ***  popRegFromIdx,1059  , rIdx=0x7f
0042   00??           01513         MOVWF   STK00
                      01514 ;;; ../../../../src/pic14/gen.c:1357:mov2w_op *{*
                      01515 ;; >>> ../../../../src/pic14/gen.c:1375:mov2w_op
0043   3034           01516         MOVLW   0x34
                      01517 ;; >>> ../../../../src/pic14/gen.c:2207:genCall
0044   0??? 0???      01518         PAGESEL ___fslt
                      01519 ;; >>> ../../../../src/pic14/gen.c:2215:genCall
0046   2???           01520         CALL    ___fslt
                      01521 ;; >>> ../../../../src/pic14/gen.c:2223:genCall
0047   0??? 0???      01522         PAGESEL $
                      01523 ;;      708 register type nRegs=1
                      01524 ;;; ../../../../src/pic14/gen.c:1929:assignResultValue *{*
                      01525 ;; ***  assignResultValue  1931
                      01526 ;;      line = 1933 result -=-, size=0, left AOP_REG=r0x1069, size=1, right -=-, size=0
gpasm-1.5.0 #1285 (Jul 12 2020) obj/sdcc-16f8   11/12/23  13:12:31          PAGE 30


LOC    OBJECT CODE    LINE  SOURCE TEXT
  VALUE

                      01527 ;; >>> ../../../../src/pic14/gen.c:1407:movwf
                      01528 ;;      1126 rIdx = r0x1069 
0049   0??? 0???      01529         BANKSEL r0x103C
004B   00??           01530         MOVWF   r0x103C
                      01531 ;;      2238 left AOP_REG
                      01532 ;;; ../../../../src/pic14/gen.c:2358:resultRemat *{*
                      01533 ;;; ../../../../src/pic14/gen.c:6991:genIfx *{*
                      01534 ;; ***  genIfx  6992
                      01535 ;;      708 register type nRegs=1
                      01536 ;; ***  pic14_toBoolean  1515
                      01537 ;; ***  mov2w  1395  offset=0
                      01538 ;; >>> ../../../../src/pic14/gen.c:1400:mov2w
                      01539 ;;      1126 rIdx = r0x1069 
004C   08??           01540         MOVF    r0x103C,W
                      01541 ;; >>> ../../../../src/pic14/gen.c:7045:genIfx
004D   1903           01542         BTFSC   STATUS,2
                      01543 ;; >>> ../../../../src/pic14/gen.c:7046:genIfx
                      01544 ;; ***  popGetLabel  key=6, label offset 77
004E   2???           01545         GOTO    _00183_DS_
                      01546 ;;; ../../../../src/pic14/gen.c:2358:resultRemat *{*
                      01547 ;;; ../../../../src/pic14/gen.c:2358:resultRemat *{*
                      01548 ;;; ../../../../src/pic14/gen.c:2108:genCall *{*
                      01549 ;; ***  genCall  2110
                      01550 ;;      708 register type nRegs=2
                      01551 ;;      708 register type nRegs=2
                      01552 ;;      2158 left AOP_REG
                      01553 ;;; ../../../../src/pic14/gen.c:1357:mov2w_op *{*
                      01554 ;; ***  mov2w  1395  offset=0
                      01555 ;; >>> ../../../../src/pic14/gen.c:1400:mov2w
                      01556 ;;      1126 rIdx = r0x106B 
                      01557         .line   74; "lib/format.c"      float weight = pow(10.0l, m);
004F   08??           01558         MOVF    r0x103A,W
                      01559 ;;      2158 left AOP_REG
                      01560 ;; >>> ../../../../src/pic14/gen.c:2166:genCall
                      01561 ;; ***  popRegFromIdx,1059  , rIdx=0x7f
0050   00??           01562         MOVWF   STK00
                      01563 ;;; ../../../../src/pic14/gen.c:1357:mov2w_op *{*
                      01564 ;; ***  mov2w  1395  offset=1
                      01565 ;; >>> ../../../../src/pic14/gen.c:1400:mov2w
                      01566 ;;      1126 rIdx = r0x106C 
0051   08??           01567         MOVF    r0x1039,W
                      01568 ;; >>> ../../../../src/pic14/gen.c:2207:genCall
0052   0??? 0???      01569         PAGESEL ___sint2fs
                      01570 ;; >>> ../../../../src/pic14/gen.c:2215:genCall
0054   2???           01571         CALL    ___sint2fs
                      01572 ;; >>> ../../../../src/pic14/gen.c:2223:genCall
0055   0??? 0???      01573         PAGESEL $
                      01574 ;;      708 register type nRegs=4
                      01575 ;;; ../../../../src/pic14/gen.c:1929:assignResultValue *{*
                      01576 ;; ***  assignResultValue  1931
                      01577 ;;      line = 1933 result -=-, size=0, left AOP_REG=r0x1069, size=4, right -=-, size=0
                      01578 ;; >>> ../../../../src/pic14/gen.c:1407:movwf
                      01579 ;;      1126 rIdx = r0x106E 
gpasm-1.5.0 #1285 (Jul 12 2020) obj/sdcc-16f8   11/12/23  13:12:31          PAGE 31


LOC    OBJECT CODE    LINE  SOURCE TEXT
  VALUE

0057   0??? 0???      01580         BANKSEL r0x103D
0059   00??           01581         MOVWF   r0x103D
                      01582 ;; >>> ../../../../src/pic14/gen.c:1437:get_returnvalue
                      01583 ;; ***  popRegFromIdx,1059  , rIdx=0x7f
005A   08??           01584         MOVF    STK00,W
                      01585 ;; >>> ../../../../src/pic14/gen.c:1407:movwf
                      01586 ;;      1126 rIdx = r0x106D 
005B   00??           01587         MOVWF   r0x103E
                      01588 ;; >>> ../../../../src/pic14/gen.c:1437:get_returnvalue
                      01589 ;; ***  popRegFromIdx,1059  , rIdx=0x7e
005C   08??           01590         MOVF    STK01,W
                      01591 ;; >>> ../../../../src/pic14/gen.c:1407:movwf
                      01592 ;;      1126 rIdx = r0x106A 
005D   00??           01593         MOVWF   r0x103B
                      01594 ;; >>> ../../../../src/pic14/gen.c:1437:get_returnvalue
                      01595 ;; ***  popRegFromIdx,1059  , rIdx=0x7d
005E   08??           01596         MOVF    STK02,W
                      01597 ;; >>> ../../../../src/pic14/gen.c:1407:movwf
                      01598 ;;      1126 rIdx = r0x1069 
005F   00??           01599         MOVWF   r0x103C
0060   00??           01600         MOVWF   STK06
                      01601 ;;; ../../../../src/pic14/gen.c:1357:mov2w_op *{*
                      01602 ;; ***  mov2w  1395  offset=1
                      01603 ;; >>> ../../../../src/pic14/gen.c:1400:mov2w
                      01604 ;;      1126 rIdx = r0x106A 
0061   08??           01605         MOVF    r0x103B,W
                      01606 ;;      2158 left AOP_REG
                      01607 ;; >>> ../../../../src/pic14/gen.c:2166:genCall
                      01608 ;; ***  popRegFromIdx,1059  , rIdx=0x7a
0062   00??           01609         MOVWF   STK05
                      01610 ;;; ../../../../src/pic14/gen.c:1357:mov2w_op *{*
                      01611 ;; ***  mov2w  1395  offset=2
                      01612 ;; >>> ../../../../src/pic14/gen.c:1400:mov2w
                      01613 ;;      1126 rIdx = r0x106D 
0063   08??           01614         MOVF    r0x103E,W
                      01615 ;;      2158 left AOP_REG
                      01616 ;; >>> ../../../../src/pic14/gen.c:2166:genCall
                      01617 ;; ***  popRegFromIdx,1059  , rIdx=0x7b
0064   00??           01618         MOVWF   STK04
                      01619 ;;; ../../../../src/pic14/gen.c:1357:mov2w_op *{*
                      01620 ;; ***  mov2w  1395  offset=3
                      01621 ;; >>> ../../../../src/pic14/gen.c:1400:mov2w
                      01622 ;;      1126 rIdx = r0x106E 
0065   08??           01623         MOVF    r0x103D,W
                      01624 ;;      2158 left AOP_LIT
                      01625 ;; >>> ../../../../src/pic14/gen.c:2166:genCall
                      01626 ;; ***  popRegFromIdx,1059  , rIdx=0x7c
0066   00??           01627         MOVWF   STK03
                      01628 ;;; ../../../../src/pic14/gen.c:1357:mov2w_op *{*
                      01629 ;; >>> ../../../../src/pic14/gen.c:1375:mov2w_op
0067   3000           01630         MOVLW   0x00
                      01631 ;;      2158 left AOP_LIT
                      01632 ;; >>> ../../../../src/pic14/gen.c:2166:genCall
gpasm-1.5.0 #1285 (Jul 12 2020) obj/sdcc-16f8   11/12/23  13:12:31          PAGE 32


LOC    OBJECT CODE    LINE  SOURCE TEXT
  VALUE

                      01633 ;; ***  popRegFromIdx,1059  , rIdx=0x7d
0068   00??           01634         MOVWF   STK02
                      01635 ;;; ../../../../src/pic14/gen.c:1357:mov2w_op *{*
                      01636 ;; >>> ../../../../src/pic14/gen.c:1375:mov2w_op
0069   3000           01637         MOVLW   0x00
                      01638 ;;      2158 left AOP_LIT
                      01639 ;; >>> ../../../../src/pic14/gen.c:2166:genCall
                      01640 ;; ***  popRegFromIdx,1059  , rIdx=0x7e
006A   00??           01641         MOVWF   STK01
                      01642 ;;; ../../../../src/pic14/gen.c:1357:mov2w_op *{*
                      01643 ;; >>> ../../../../src/pic14/gen.c:1375:mov2w_op
006B   3020           01644         MOVLW   0x20
                      01645 ;;      2158 left AOP_LIT
                      01646 ;; >>> ../../../../src/pic14/gen.c:2166:genCall
                      01647 ;; ***  popRegFromIdx,1059  , rIdx=0x7f
006C   00??           01648         MOVWF   STK00
                      01649 ;;; ../../../../src/pic14/gen.c:1357:mov2w_op *{*
                      01650 ;; >>> ../../../../src/pic14/gen.c:1375:mov2w_op
006D   3041           01651         MOVLW   0x41
                      01652 ;; >>> ../../../../src/pic14/gen.c:2207:genCall
006E   0??? 0???      01653         PAGESEL _powf
                      01654 ;; >>> ../../../../src/pic14/gen.c:2215:genCall
0070   2???           01655         CALL    _powf
                      01656 ;; >>> ../../../../src/pic14/gen.c:2223:genCall
0071   0??? 0???      01657         PAGESEL $
                      01658 ;;      708 register type nRegs=4
                      01659 ;;; ../../../../src/pic14/gen.c:1929:assignResultValue *{*
                      01660 ;; ***  assignResultValue  1931
                      01661 ;;      line = 1933 result -=-, size=0, left AOP_REG=r0x1069, size=4, right -=-, size=0
                      01662 ;; >>> ../../../../src/pic14/gen.c:1407:movwf
                      01663 ;;      1126 rIdx = r0x106E 
0073   0??? 0???      01664         BANKSEL r0x103D
0075   00??           01665         MOVWF   r0x103D
                      01666 ;; >>> ../../../../src/pic14/gen.c:1437:get_returnvalue
                      01667 ;; ***  popRegFromIdx,1059  , rIdx=0x7f
0076   08??           01668         MOVF    STK00,W
                      01669 ;; >>> ../../../../src/pic14/gen.c:1407:movwf
                      01670 ;;      1126 rIdx = r0x106D 
0077   00??           01671         MOVWF   r0x103E
                      01672 ;; >>> ../../../../src/pic14/gen.c:1437:get_returnvalue
                      01673 ;; ***  popRegFromIdx,1059  , rIdx=0x7e
0078   08??           01674         MOVF    STK01,W
                      01675 ;; >>> ../../../../src/pic14/gen.c:1407:movwf
                      01676 ;;      1126 rIdx = r0x106A 
0079   00??           01677         MOVWF   r0x103B
                      01678 ;; >>> ../../../../src/pic14/gen.c:1437:get_returnvalue
                      01679 ;; ***  popRegFromIdx,1059  , rIdx=0x7d
007A   08??           01680         MOVF    STK02,W
                      01681 ;; >>> ../../../../src/pic14/gen.c:1407:movwf
                      01682 ;;      1126 rIdx = r0x1069 
                      01683         .line   75; "lib/format.c"      digit = (char)floor(num / weight);
007B   00??           01684         MOVWF   r0x103C
007C   00??           01685         MOVWF   STK06
gpasm-1.5.0 #1285 (Jul 12 2020) obj/sdcc-16f8   11/12/23  13:12:31          PAGE 33


LOC    OBJECT CODE    LINE  SOURCE TEXT
  VALUE

                      01686 ;;; ../../../../src/pic14/gen.c:1357:mov2w_op *{*
                      01687 ;; ***  mov2w  1395  offset=1
                      01688 ;; >>> ../../../../src/pic14/gen.c:1400:mov2w
                      01689 ;;      1126 rIdx = r0x106A 
007D   08??           01690         MOVF    r0x103B,W
                      01691 ;;      2158 left AOP_REG
                      01692 ;; >>> ../../../../src/pic14/gen.c:2166:genCall
                      01693 ;; ***  popRegFromIdx,1059  , rIdx=0x7a
007E   00??           01694         MOVWF   STK05
                      01695 ;;; ../../../../src/pic14/gen.c:1357:mov2w_op *{*
                      01696 ;; ***  mov2w  1395  offset=2
                      01697 ;; >>> ../../../../src/pic14/gen.c:1400:mov2w
                      01698 ;;      1126 rIdx = r0x106D 
007F   08??           01699         MOVF    r0x103E,W
                      01700 ;;      2158 left AOP_REG
                      01701 ;; >>> ../../../../src/pic14/gen.c:2166:genCall
                      01702 ;; ***  popRegFromIdx,1059  , rIdx=0x7b
0080   00??           01703         MOVWF   STK04
                      01704 ;;; ../../../../src/pic14/gen.c:1357:mov2w_op *{*
                      01705 ;; ***  mov2w  1395  offset=3
                      01706 ;; >>> ../../../../src/pic14/gen.c:1400:mov2w
                      01707 ;;      1126 rIdx = r0x106E 
0081   08??           01708         MOVF    r0x103D,W
                      01709 ;;      708 register type nRegs=4
                      01710 ;;      2158 left AOP_REG
                      01711 ;; >>> ../../../../src/pic14/gen.c:2166:genCall
                      01712 ;; ***  popRegFromIdx,1059  , rIdx=0x7c
0082   00??           01713         MOVWF   STK03
                      01714 ;;; ../../../../src/pic14/gen.c:1357:mov2w_op *{*
                      01715 ;; ***  mov2w  1395  offset=0
                      01716 ;; >>> ../../../../src/pic14/gen.c:1400:mov2w
                      01717 ;;      1126 rIdx = r0x1065 
0083   08??           01718         MOVF    r0x1038,W
                      01719 ;;      2158 left AOP_REG
                      01720 ;; >>> ../../../../src/pic14/gen.c:2166:genCall
                      01721 ;; ***  popRegFromIdx,1059  , rIdx=0x7d
0084   00??           01722         MOVWF   STK02
                      01723 ;;; ../../../../src/pic14/gen.c:1357:mov2w_op *{*
                      01724 ;; ***  mov2w  1395  offset=1
                      01725 ;; >>> ../../../../src/pic14/gen.c:1400:mov2w
                      01726 ;;      1126 rIdx = r0x1066 
0085   08??           01727         MOVF    r0x1037,W
                      01728 ;;      2158 left AOP_REG
                      01729 ;; >>> ../../../../src/pic14/gen.c:2166:genCall
                      01730 ;; ***  popRegFromIdx,1059  , rIdx=0x7e
0086   00??           01731         MOVWF   STK01
                      01732 ;;; ../../../../src/pic14/gen.c:1357:mov2w_op *{*
                      01733 ;; ***  mov2w  1395  offset=2
                      01734 ;; >>> ../../../../src/pic14/gen.c:1400:mov2w
                      01735 ;;      1126 rIdx = r0x1067 
0087   08??           01736         MOVF    r0x1036,W
                      01737 ;;      2158 left AOP_REG
                      01738 ;; >>> ../../../../src/pic14/gen.c:2166:genCall
gpasm-1.5.0 #1285 (Jul 12 2020) obj/sdcc-16f8   11/12/23  13:12:31          PAGE 34


LOC    OBJECT CODE    LINE  SOURCE TEXT
  VALUE

                      01739 ;; ***  popRegFromIdx,1059  , rIdx=0x7f
0088   00??           01740         MOVWF   STK00
                      01741 ;;; ../../../../src/pic14/gen.c:1357:mov2w_op *{*
                      01742 ;; ***  mov2w  1395  offset=3
                      01743 ;; >>> ../../../../src/pic14/gen.c:1400:mov2w
                      01744 ;;      1126 rIdx = r0x1068 
0089   08??           01745         MOVF    r0x1035,W
                      01746 ;; >>> ../../../../src/pic14/gen.c:2207:genCall
008A   0??? 0???      01747         PAGESEL ___fsdiv
                      01748 ;; >>> ../../../../src/pic14/gen.c:2215:genCall
008C   2???           01749         CALL    ___fsdiv
                      01750 ;; >>> ../../../../src/pic14/gen.c:2223:genCall
008D   0??? 0???      01751         PAGESEL $
                      01752 ;;      708 register type nRegs=4
                      01753 ;;; ../../../../src/pic14/gen.c:1929:assignResultValue *{*
                      01754 ;; ***  assignResultValue  1931
                      01755 ;;      line = 1933 result -=-, size=0, left AOP_REG=r0x106F, size=4, right -=-, size=0
                      01756 ;; >>> ../../../../src/pic14/gen.c:1407:movwf
                      01757 ;;      1126 rIdx = r0x1072 
008F   0??? 0???      01758         BANKSEL r0x103F
0091   00??           01759         MOVWF   r0x103F
                      01760 ;; >>> ../../../../src/pic14/gen.c:1437:get_returnvalue
                      01761 ;; ***  popRegFromIdx,1059  , rIdx=0x7f
0092   08??           01762         MOVF    STK00,W
                      01763 ;; >>> ../../../../src/pic14/gen.c:1407:movwf
                      01764 ;;      1126 rIdx = r0x1071 
0093   00??           01765         MOVWF   r0x1040
                      01766 ;; >>> ../../../../src/pic14/gen.c:1437:get_returnvalue
                      01767 ;; ***  popRegFromIdx,1059  , rIdx=0x7e
0094   08??           01768         MOVF    STK01,W
                      01769 ;; >>> ../../../../src/pic14/gen.c:1407:movwf
                      01770 ;;      1126 rIdx = r0x1070 
0095   00??           01771         MOVWF   r0x1041
                      01772 ;; >>> ../../../../src/pic14/gen.c:1437:get_returnvalue
                      01773 ;; ***  popRegFromIdx,1059  , rIdx=0x7d
0096   08??           01774         MOVF    STK02,W
                      01775 ;; >>> ../../../../src/pic14/gen.c:1407:movwf
                      01776 ;;      1126 rIdx = r0x106F 
0097   00??           01777         MOVWF   r0x1042
0098   00??           01778         MOVWF   STK02
                      01779 ;;; ../../../../src/pic14/gen.c:1357:mov2w_op *{*
                      01780 ;; ***  mov2w  1395  offset=1
                      01781 ;; >>> ../../../../src/pic14/gen.c:1400:mov2w
                      01782 ;;      1126 rIdx = r0x1070 
0099   08??           01783         MOVF    r0x1041,W
                      01784 ;;      2158 left AOP_REG
                      01785 ;; >>> ../../../../src/pic14/gen.c:2166:genCall
                      01786 ;; ***  popRegFromIdx,1059  , rIdx=0x7e
009A   00??           01787         MOVWF   STK01
                      01788 ;;; ../../../../src/pic14/gen.c:1357:mov2w_op *{*
                      01789 ;; ***  mov2w  1395  offset=2
                      01790 ;; >>> ../../../../src/pic14/gen.c:1400:mov2w
                      01791 ;;      1126 rIdx = r0x1071 
gpasm-1.5.0 #1285 (Jul 12 2020) obj/sdcc-16f8   11/12/23  13:12:31          PAGE 35


LOC    OBJECT CODE    LINE  SOURCE TEXT
  VALUE

009B   08??           01792         MOVF    r0x1040,W
                      01793 ;;      2158 left AOP_REG
                      01794 ;; >>> ../../../../src/pic14/gen.c:2166:genCall
                      01795 ;; ***  popRegFromIdx,1059  , rIdx=0x7f
009C   00??           01796         MOVWF   STK00
                      01797 ;;; ../../../../src/pic14/gen.c:1357:mov2w_op *{*
                      01798 ;; ***  mov2w  1395  offset=3
                      01799 ;; >>> ../../../../src/pic14/gen.c:1400:mov2w
                      01800 ;;      1126 rIdx = r0x1072 
009D   08??           01801         MOVF    r0x103F,W
                      01802 ;; >>> ../../../../src/pic14/gen.c:2207:genCall
009E   0??? 0???      01803         PAGESEL _floorf
                      01804 ;; >>> ../../../../src/pic14/gen.c:2215:genCall
00A0   2???           01805         CALL    _floorf
                      01806 ;; >>> ../../../../src/pic14/gen.c:2223:genCall
00A1   0??? 0???      01807         PAGESEL $
                      01808 ;;      708 register type nRegs=4
                      01809 ;;; ../../../../src/pic14/gen.c:1929:assignResultValue *{*
                      01810 ;; ***  assignResultValue  1931
                      01811 ;;      line = 1933 result -=-, size=0, left AOP_REG=r0x106F, size=4, right -=-, size=0
                      01812 ;; >>> ../../../../src/pic14/gen.c:1407:movwf
                      01813 ;;      1126 rIdx = r0x1072 
00A3   0??? 0???      01814         BANKSEL r0x103F
00A5   00??           01815         MOVWF   r0x103F
                      01816 ;; >>> ../../../../src/pic14/gen.c:1437:get_returnvalue
                      01817 ;; ***  popRegFromIdx,1059  , rIdx=0x7f
00A6   08??           01818         MOVF    STK00,W
                      01819 ;; >>> ../../../../src/pic14/gen.c:1407:movwf
                      01820 ;;      1126 rIdx = r0x1071 
00A7   00??           01821         MOVWF   r0x1040
                      01822 ;; >>> ../../../../src/pic14/gen.c:1437:get_returnvalue
                      01823 ;; ***  popRegFromIdx,1059  , rIdx=0x7e
00A8   08??           01824         MOVF    STK01,W
                      01825 ;; >>> ../../../../src/pic14/gen.c:1407:movwf
                      01826 ;;      1126 rIdx = r0x1070 
00A9   00??           01827         MOVWF   r0x1041
                      01828 ;; >>> ../../../../src/pic14/gen.c:1437:get_returnvalue
                      01829 ;; ***  popRegFromIdx,1059  , rIdx=0x7d
00AA   08??           01830         MOVF    STK02,W
                      01831 ;; >>> ../../../../src/pic14/gen.c:1407:movwf
                      01832 ;;      1126 rIdx = r0x106F 
00AB   00??           01833         MOVWF   r0x1042
00AC   00??           01834         MOVWF   STK02
                      01835 ;;; ../../../../src/pic14/gen.c:1357:mov2w_op *{*
                      01836 ;; ***  mov2w  1395  offset=1
                      01837 ;; >>> ../../../../src/pic14/gen.c:1400:mov2w
                      01838 ;;      1126 rIdx = r0x1070 
00AD   08??           01839         MOVF    r0x1041,W
                      01840 ;;      2158 left AOP_REG
                      01841 ;; >>> ../../../../src/pic14/gen.c:2166:genCall
                      01842 ;; ***  popRegFromIdx,1059  , rIdx=0x7e
00AE   00??           01843         MOVWF   STK01
                      01844 ;;; ../../../../src/pic14/gen.c:1357:mov2w_op *{*
gpasm-1.5.0 #1285 (Jul 12 2020) obj/sdcc-16f8   11/12/23  13:12:31          PAGE 36


LOC    OBJECT CODE    LINE  SOURCE TEXT
  VALUE

                      01845 ;; ***  mov2w  1395  offset=2
                      01846 ;; >>> ../../../../src/pic14/gen.c:1400:mov2w
                      01847 ;;      1126 rIdx = r0x1071 
00AF   08??           01848         MOVF    r0x1040,W
                      01849 ;;      2158 left AOP_REG
                      01850 ;; >>> ../../../../src/pic14/gen.c:2166:genCall
                      01851 ;; ***  popRegFromIdx,1059  , rIdx=0x7f
00B0   00??           01852         MOVWF   STK00
                      01853 ;;; ../../../../src/pic14/gen.c:1357:mov2w_op *{*
                      01854 ;; ***  mov2w  1395  offset=3
                      01855 ;; >>> ../../../../src/pic14/gen.c:1400:mov2w
                      01856 ;;      1126 rIdx = r0x1072 
00B1   08??           01857         MOVF    r0x103F,W
                      01858 ;; >>> ../../../../src/pic14/gen.c:2207:genCall
00B2   0??? 0???      01859         PAGESEL ___fs2uchar
                      01860 ;; >>> ../../../../src/pic14/gen.c:2215:genCall
00B4   2???           01861         CALL    ___fs2uchar
                      01862 ;; >>> ../../../../src/pic14/gen.c:2223:genCall
00B5   0??? 0???      01863         PAGESEL $
                      01864 ;;      708 register type nRegs=1
                      01865 ;;; ../../../../src/pic14/gen.c:1929:assignResultValue *{*
                      01866 ;; ***  assignResultValue  1931
                      01867 ;;      line = 1933 result -=-, size=0, left AOP_REG=r0x106F, size=1, right -=-, size=0
                      01868 ;; >>> ../../../../src/pic14/gen.c:1407:movwf
                      01869 ;;      1126 rIdx = r0x106F 
                      01870         .line   76; "lib/format.c"      num -= (digit * weight);
00B7   0??? 0???      01871         BANKSEL r0x1042
00B9   00??           01872         MOVWF   r0x1042
00BA   0??? 0???      01873         PAGESEL ___uchar2fs
                      01874 ;; >>> ../../../../src/pic14/gen.c:2215:genCall
00BC   2???           01875         CALL    ___uchar2fs
                      01876 ;; >>> ../../../../src/pic14/gen.c:2223:genCall
00BD   0??? 0???      01877         PAGESEL $
                      01878 ;;      708 register type nRegs=4
                      01879 ;;; ../../../../src/pic14/gen.c:1929:assignResultValue *{*
                      01880 ;; ***  assignResultValue  1931
                      01881 ;;      line = 1933 result -=-, size=0, left AOP_REG=r0x1070, size=4, right -=-, size=0
                      01882 ;; >>> ../../../../src/pic14/gen.c:1407:movwf
                      01883 ;;      1126 rIdx = r0x1073 
00BF   0??? 0???      01884         BANKSEL r0x1043
00C1   00??           01885         MOVWF   r0x1043
                      01886 ;; >>> ../../../../src/pic14/gen.c:1437:get_returnvalue
                      01887 ;; ***  popRegFromIdx,1059  , rIdx=0x7f
00C2   08??           01888         MOVF    STK00,W
                      01889 ;; >>> ../../../../src/pic14/gen.c:1407:movwf
                      01890 ;;      1126 rIdx = r0x1072 
00C3   00??           01891         MOVWF   r0x103F
                      01892 ;; >>> ../../../../src/pic14/gen.c:1437:get_returnvalue
                      01893 ;; ***  popRegFromIdx,1059  , rIdx=0x7e
00C4   08??           01894         MOVF    STK01,W
                      01895 ;; >>> ../../../../src/pic14/gen.c:1407:movwf
                      01896 ;;      1126 rIdx = r0x1071 
00C5   00??           01897         MOVWF   r0x1040
gpasm-1.5.0 #1285 (Jul 12 2020) obj/sdcc-16f8   11/12/23  13:12:31          PAGE 37


LOC    OBJECT CODE    LINE  SOURCE TEXT
  VALUE

                      01898 ;; >>> ../../../../src/pic14/gen.c:1437:get_returnvalue
                      01899 ;; ***  popRegFromIdx,1059  , rIdx=0x7d
00C6   08??           01900         MOVF    STK02,W
                      01901 ;; >>> ../../../../src/pic14/gen.c:1407:movwf
                      01902 ;;      1126 rIdx = r0x1070 
00C7   00??           01903         MOVWF   r0x1041
                      01904 ;;      2238 left AOP_REG
                      01905 ;;; ../../../../src/pic14/gen.c:2358:resultRemat *{*
                      01906 ;;; ../../../../src/pic14/gen.c:2358:resultRemat *{*
                      01907 ;;; ../../../../src/pic14/gen.c:2358:resultRemat *{*
                      01908 ;;; ../../../../src/pic14/gen.c:2108:genCall *{*
                      01909 ;; ***  genCall  2110
                      01910 ;;      708 register type nRegs=4
                      01911 ;;      708 register type nRegs=4
                      01912 ;;      708 register type nRegs=4
                      01913 ;;      2158 left AOP_REG
                      01914 ;;; ../../../../src/pic14/gen.c:1357:mov2w_op *{*
                      01915 ;; ***  mov2w  1395  offset=0
                      01916 ;; >>> ../../../../src/pic14/gen.c:1400:mov2w
                      01917 ;;      1126 rIdx = r0x1069 
00C8   08??           01918         MOVF    r0x103C,W
                      01919 ;;      2158 left AOP_REG
                      01920 ;; >>> ../../../../src/pic14/gen.c:2166:genCall
                      01921 ;; ***  popRegFromIdx,1059  , rIdx=0x79
00C9   00??           01922         MOVWF   STK06
                      01923 ;;; ../../../../src/pic14/gen.c:1357:mov2w_op *{*
                      01924 ;; ***  mov2w  1395  offset=1
                      01925 ;; >>> ../../../../src/pic14/gen.c:1400:mov2w
                      01926 ;;      1126 rIdx = r0x106A 
00CA   08??           01927         MOVF    r0x103B,W
                      01928 ;;      2158 left AOP_REG
                      01929 ;; >>> ../../../../src/pic14/gen.c:2166:genCall
                      01930 ;; ***  popRegFromIdx,1059  , rIdx=0x7a
00CB   00??           01931         MOVWF   STK05
                      01932 ;;; ../../../../src/pic14/gen.c:1357:mov2w_op *{*
                      01933 ;; ***  mov2w  1395  offset=2
                      01934 ;; >>> ../../../../src/pic14/gen.c:1400:mov2w
                      01935 ;;      1126 rIdx = r0x106D 
00CC   08??           01936         MOVF    r0x103E,W
                      01937 ;;      2158 left AOP_REG
                      01938 ;; >>> ../../../../src/pic14/gen.c:2166:genCall
                      01939 ;; ***  popRegFromIdx,1059  , rIdx=0x7b
00CD   00??           01940         MOVWF   STK04
                      01941 ;;; ../../../../src/pic14/gen.c:1357:mov2w_op *{*
                      01942 ;; ***  mov2w  1395  offset=3
                      01943 ;; >>> ../../../../src/pic14/gen.c:1400:mov2w
                      01944 ;;      1126 rIdx = r0x106E 
00CE   08??           01945         MOVF    r0x103D,W
                      01946 ;;      708 register type nRegs=4
                      01947 ;;      2158 left AOP_REG
                      01948 ;; >>> ../../../../src/pic14/gen.c:2166:genCall
                      01949 ;; ***  popRegFromIdx,1059  , rIdx=0x7c
00CF   00??           01950         MOVWF   STK03
gpasm-1.5.0 #1285 (Jul 12 2020) obj/sdcc-16f8   11/12/23  13:12:31          PAGE 38


LOC    OBJECT CODE    LINE  SOURCE TEXT
  VALUE

                      01951 ;;; ../../../../src/pic14/gen.c:1357:mov2w_op *{*
                      01952 ;; ***  mov2w  1395  offset=0
                      01953 ;; >>> ../../../../src/pic14/gen.c:1400:mov2w
                      01954 ;;      1126 rIdx = r0x1070 
00D0   08??           01955         MOVF    r0x1041,W
                      01956 ;;      2158 left AOP_REG
                      01957 ;; >>> ../../../../src/pic14/gen.c:2166:genCall
                      01958 ;; ***  popRegFromIdx,1059  , rIdx=0x7d
00D1   00??           01959         MOVWF   STK02
                      01960 ;;; ../../../../src/pic14/gen.c:1357:mov2w_op *{*
                      01961 ;; ***  mov2w  1395  offset=1
                      01962 ;; >>> ../../../../src/pic14/gen.c:1400:mov2w
                      01963 ;;      1126 rIdx = r0x1071 
00D2   08??           01964         MOVF    r0x1040,W
                      01965 ;;      2158 left AOP_REG
                      01966 ;; >>> ../../../../src/pic14/gen.c:2166:genCall
                      01967 ;; ***  popRegFromIdx,1059  , rIdx=0x7e
00D3   00??           01968         MOVWF   STK01
                      01969 ;;; ../../../../src/pic14/gen.c:1357:mov2w_op *{*
                      01970 ;; ***  mov2w  1395  offset=2
                      01971 ;; >>> ../../../../src/pic14/gen.c:1400:mov2w
                      01972 ;;      1126 rIdx = r0x1072 
00D4   08??           01973         MOVF    r0x103F,W
                      01974 ;;      2158 left AOP_REG
                      01975 ;; >>> ../../../../src/pic14/gen.c:2166:genCall
                      01976 ;; ***  popRegFromIdx,1059  , rIdx=0x7f
00D5   00??           01977         MOVWF   STK00
                      01978 ;;; ../../../../src/pic14/gen.c:1357:mov2w_op *{*
                      01979 ;; ***  mov2w  1395  offset=3
                      01980 ;; >>> ../../../../src/pic14/gen.c:1400:mov2w
                      01981 ;;      1126 rIdx = r0x1073 
00D6   08??           01982         MOVF    r0x1043,W
                      01983 ;; >>> ../../../../src/pic14/gen.c:2207:genCall
00D7   0??? 0???      01984         PAGESEL ___fsmul
                      01985 ;; >>> ../../../../src/pic14/gen.c:2215:genCall
00D9   2???           01986         CALL    ___fsmul
                      01987 ;; >>> ../../../../src/pic14/gen.c:2223:genCall
00DA   0??? 0???      01988         PAGESEL $
                      01989 ;;      708 register type nRegs=4
                      01990 ;;; ../../../../src/pic14/gen.c:1929:assignResultValue *{*
                      01991 ;; ***  assignResultValue  1931
                      01992 ;;      line = 1933 result -=-, size=0, left AOP_REG=r0x1069, size=4, right -=-, size=0
                      01993 ;; >>> ../../../../src/pic14/gen.c:1407:movwf
                      01994 ;;      1126 rIdx = r0x106E 
00DC   0??? 0???      01995         BANKSEL r0x103D
00DE   00??           01996         MOVWF   r0x103D
                      01997 ;; >>> ../../../../src/pic14/gen.c:1437:get_returnvalue
                      01998 ;; ***  popRegFromIdx,1059  , rIdx=0x7f
00DF   08??           01999         MOVF    STK00,W
                      02000 ;; >>> ../../../../src/pic14/gen.c:1407:movwf
                      02001 ;;      1126 rIdx = r0x106D 
00E0   00??           02002         MOVWF   r0x103E
                      02003 ;; >>> ../../../../src/pic14/gen.c:1437:get_returnvalue
gpasm-1.5.0 #1285 (Jul 12 2020) obj/sdcc-16f8   11/12/23  13:12:31          PAGE 39


LOC    OBJECT CODE    LINE  SOURCE TEXT
  VALUE

                      02004 ;; ***  popRegFromIdx,1059  , rIdx=0x7e
00E1   08??           02005         MOVF    STK01,W
                      02006 ;; >>> ../../../../src/pic14/gen.c:1407:movwf
                      02007 ;;      1126 rIdx = r0x106A 
00E2   00??           02008         MOVWF   r0x103B
                      02009 ;; >>> ../../../../src/pic14/gen.c:1437:get_returnvalue
                      02010 ;; ***  popRegFromIdx,1059  , rIdx=0x7d
00E3   08??           02011         MOVF    STK02,W
                      02012 ;; >>> ../../../../src/pic14/gen.c:1407:movwf
                      02013 ;;      1126 rIdx = r0x1069 
00E4   00??           02014         MOVWF   r0x103C
00E5   00??           02015         MOVWF   STK06
                      02016 ;;; ../../../../src/pic14/gen.c:1357:mov2w_op *{*
                      02017 ;; ***  mov2w  1395  offset=1
                      02018 ;; >>> ../../../../src/pic14/gen.c:1400:mov2w
                      02019 ;;      1126 rIdx = r0x106A 
00E6   08??           02020         MOVF    r0x103B,W
                      02021 ;;      2158 left AOP_REG
                      02022 ;; >>> ../../../../src/pic14/gen.c:2166:genCall
                      02023 ;; ***  popRegFromIdx,1059  , rIdx=0x7a
00E7   00??           02024         MOVWF   STK05
                      02025 ;;; ../../../../src/pic14/gen.c:1357:mov2w_op *{*
                      02026 ;; ***  mov2w  1395  offset=2
                      02027 ;; >>> ../../../../src/pic14/gen.c:1400:mov2w
                      02028 ;;      1126 rIdx = r0x106D 
00E8   08??           02029         MOVF    r0x103E,W
                      02030 ;;      2158 left AOP_REG
                      02031 ;; >>> ../../../../src/pic14/gen.c:2166:genCall
                      02032 ;; ***  popRegFromIdx,1059  , rIdx=0x7b
00E9   00??           02033         MOVWF   STK04
                      02034 ;;; ../../../../src/pic14/gen.c:1357:mov2w_op *{*
                      02035 ;; ***  mov2w  1395  offset=3
                      02036 ;; >>> ../../../../src/pic14/gen.c:1400:mov2w
                      02037 ;;      1126 rIdx = r0x106E 
00EA   08??           02038         MOVF    r0x103D,W
                      02039 ;;      708 register type nRegs=4
                      02040 ;;      2158 left AOP_REG
                      02041 ;; >>> ../../../../src/pic14/gen.c:2166:genCall
                      02042 ;; ***  popRegFromIdx,1059  , rIdx=0x7c
00EB   00??           02043         MOVWF   STK03
                      02044 ;;; ../../../../src/pic14/gen.c:1357:mov2w_op *{*
                      02045 ;; ***  mov2w  1395  offset=0
                      02046 ;; >>> ../../../../src/pic14/gen.c:1400:mov2w
                      02047 ;;      1126 rIdx = r0x1065 
00EC   08??           02048         MOVF    r0x1038,W
                      02049 ;;      2158 left AOP_REG
                      02050 ;; >>> ../../../../src/pic14/gen.c:2166:genCall
                      02051 ;; ***  popRegFromIdx,1059  , rIdx=0x7d
00ED   00??           02052         MOVWF   STK02
                      02053 ;;; ../../../../src/pic14/gen.c:1357:mov2w_op *{*
                      02054 ;; ***  mov2w  1395  offset=1
                      02055 ;; >>> ../../../../src/pic14/gen.c:1400:mov2w
                      02056 ;;      1126 rIdx = r0x1066 
gpasm-1.5.0 #1285 (Jul 12 2020) obj/sdcc-16f8   11/12/23  13:12:31          PAGE 40


LOC    OBJECT CODE    LINE  SOURCE TEXT
  VALUE

00EE   08??           02057         MOVF    r0x1037,W
                      02058 ;;      2158 left AOP_REG
                      02059 ;; >>> ../../../../src/pic14/gen.c:2166:genCall
                      02060 ;; ***  popRegFromIdx,1059  , rIdx=0x7e
00EF   00??           02061         MOVWF   STK01
                      02062 ;;; ../../../../src/pic14/gen.c:1357:mov2w_op *{*
                      02063 ;; ***  mov2w  1395  offset=2
                      02064 ;; >>> ../../../../src/pic14/gen.c:1400:mov2w
                      02065 ;;      1126 rIdx = r0x1067 
00F0   08??           02066         MOVF    r0x1036,W
                      02067 ;;      2158 left AOP_REG
                      02068 ;; >>> ../../../../src/pic14/gen.c:2166:genCall
                      02069 ;; ***  popRegFromIdx,1059  , rIdx=0x7f
00F1   00??           02070         MOVWF   STK00
                      02071 ;;; ../../../../src/pic14/gen.c:1357:mov2w_op *{*
                      02072 ;; ***  mov2w  1395  offset=3
                      02073 ;; >>> ../../../../src/pic14/gen.c:1400:mov2w
                      02074 ;;      1126 rIdx = r0x1068 
00F2   08??           02075         MOVF    r0x1035,W
                      02076 ;; >>> ../../../../src/pic14/gen.c:2207:genCall
00F3   0??? 0???      02077         PAGESEL ___fssub
                      02078 ;; >>> ../../../../src/pic14/gen.c:2215:genCall
00F5   2???           02079         CALL    ___fssub
                      02080 ;; >>> ../../../../src/pic14/gen.c:2223:genCall
00F6   0??? 0???      02081         PAGESEL $
                      02082 ;;      708 register type nRegs=4
                      02083 ;;; ../../../../src/pic14/gen.c:1929:assignResultValue *{*
                      02084 ;; ***  assignResultValue  1931
                      02085 ;;      line = 1933 result -=-, size=0, left AOP_REG=r0x1065, size=4, right -=-, size=0
                      02086 ;; >>> ../../../../src/pic14/gen.c:1407:movwf
                      02087 ;;      1126 rIdx = r0x1068 
00F8   0??? 0???      02088         BANKSEL r0x1035
00FA   00??           02089         MOVWF   r0x1035
                      02090 ;; >>> ../../../../src/pic14/gen.c:1437:get_returnvalue
                      02091 ;; ***  popRegFromIdx,1059  , rIdx=0x7f
00FB   08??           02092         MOVF    STK00,W
                      02093 ;; >>> ../../../../src/pic14/gen.c:1407:movwf
                      02094 ;;      1126 rIdx = r0x1067 
00FC   00??           02095         MOVWF   r0x1036
                      02096 ;; >>> ../../../../src/pic14/gen.c:1437:get_returnvalue
                      02097 ;; ***  popRegFromIdx,1059  , rIdx=0x7e
00FD   08??           02098         MOVF    STK01,W
                      02099 ;; >>> ../../../../src/pic14/gen.c:1407:movwf
                      02100 ;;      1126 rIdx = r0x1066 
00FE   00??           02101         MOVWF   r0x1037
                      02102 ;; >>> ../../../../src/pic14/gen.c:1437:get_returnvalue
                      02103 ;; ***  popRegFromIdx,1059  , rIdx=0x7d
00FF   08??           02104         MOVF    STK02,W
                      02105 ;; >>> ../../../../src/pic14/gen.c:1407:movwf
                      02106 ;;      1126 rIdx = r0x1065 
0100   00??           02107         MOVWF   r0x1038
                      02108 ;;      2238 left AOP_REG
                      02109 ;;; ../../../../src/pic14/gen.c:2358:resultRemat *{*
gpasm-1.5.0 #1285 (Jul 12 2020) obj/sdcc-16f8   11/12/23  13:12:31          PAGE 41


LOC    OBJECT CODE    LINE  SOURCE TEXT
  VALUE

                      02110 ;;; ../../../../src/pic14/gen.c:7353:genCast *{*
                      02111 ;; ***  genCast  7354
                      02112 ;;      708 register type nRegs=1
                      02113 ;;      708 register type nRegs=1
                      02114 ;;      line = 7362 result AOP_REG=r0x1069, size=1, left -=-, size=0, right AOP_REG=r0x106F, size=1
                      02115 ;; ***  genCast  7504
                      02116 ;; >>> ../../../../src/pic14/gen.c:7528:genCast
                      02117 ;;      1126 rIdx = r0x106F 
                      02118         .line   77; "lib/format.c"      fn('0' + digit);
0101   08??           02119         MOVF    r0x1042,W
                      02120 ;; >>> ../../../../src/pic14/gen.c:7529:genCast
                      02121 ;;      1126 rIdx = r0x1069 
0102   00??           02122         MOVWF   r0x103C
                      02123 ;;; ../../../../src/pic14/gen.c:2358:resultRemat *{*
                      02124 ;; ***  genPlus  707
                      02125 ;;; ../../../../src/pic14/genarith.c:708:genPlus *{*
                      02126 ;;      708 register type nRegs=1
                      02127 ;;      708 register type nRegs=1
                      02128 ;;      line = 714 result AOP_REG=r0x106F, size=1, left AOP_REG=r0x1069, size=1, right AOP_LIT=0x30, siz
                            e=1
                      02129 ;;; ../../../../src/pic14/genarith.c:159:genPlusIncr *{*
                      02130 ;; ***  genPlusIncr  161
                      02131 ;;      result AOP_REG, left AOP_REG, right AOP_LIT
                      02132 ;;      genPlusIncr  173
                      02133 ;;      adding lit to something. size 1
                      02134 ;;; ../../../../src/pic14/genarith.c:286:genAddLit *{*
                      02135 ;; ***  genAddLit  287
                      02136 ;;  left and result aren't same genAddLit  537
                      02137 ;; >>> ../../../../src/pic14/genarith.c:581:genAddLit
0103   3030           02138         MOVLW   0x30
                      02139 ;; >>> ../../../../src/pic14/genarith.c:582:genAddLit
                      02140 ;;      1126 rIdx = r0x1069 
0104   07??           02141         ADDWF   r0x103C,W
                      02142 ;;; ../../../../src/pic14/genarith.c:270:emitMOVWF *{*
                      02143 ;; >>> ../../../../src/pic14/genarith.c:274:emitMOVWF
                      02144 ;;      1126 rIdx = r0x106F 
0105   00??           02145         MOVWF   r0x1042
                      02146 ;; ***  addSign  1087
                      02147 ;;; ../../../../src/pic14/genarith.c:1088:addSign *{*
                      02148 ;;; ../../../../src/pic14/gen.c:2358:resultRemat *{*
                      02149 ;;; ../../../../src/pic14/gen.c:2358:resultRemat *{*
                      02150 ;;; ../../../../src/pic14/gen.c:2265:genPcall *{*
                      02151 ;; ***  genPcall  2267
                      02152 ;;      708 register type nRegs=2
                      02153 ;;      line = 2281 result -=-, size=0, left AOP_REG=r0x1063, size=2, right -=-, size=0
                      02154 ;; ***  genPcall  2290 - WARNING arg-passing to indirect call not supported
                      02155 ;; >>> ../../../../src/pic14/gen.c:2310:genPcall
                      02156 ;; ***  popGetLabel  key=21, label offset 77
0106   2???           02157         CALL    _00198_DS_
                      02158 ;; ***  popGetLabel  key=22, label offset 77
                      02159 ;; >>> ../../../../src/pic14/gen.c:2312:genPcall
0107   0??? 0???      02160         PAGESEL _00199_DS_
                      02161 ;; >>> ../../../../src/pic14/gen.c:2313:genPcall
gpasm-1.5.0 #1285 (Jul 12 2020) obj/sdcc-16f8   11/12/23  13:12:31          PAGE 42


LOC    OBJECT CODE    LINE  SOURCE TEXT
  VALUE

0109   2???           02162         GOTO    _00199_DS_
                      02163 ;; >>> ../../../../src/pic14/gen.c:2316:genPcall
                      02164 ;;      1126 rIdx = r0x1064 
010A                  02165 _00198_DS_:
010A   0??? 0???      02166         BANKSEL r0x1033
010C   08??           02167         MOVF    r0x1033,W
                      02168 ;; >>> ../../../../src/pic14/gen.c:2317:genPcall
010D   1283 1303      02169         BANKSEL PCLATH
010F   008A           02170         MOVWF   PCLATH
                      02171 ;; >>> ../../../../src/pic14/gen.c:2318:genPcall
                      02172 ;;      1126 rIdx = r0x1063 
0110   0??? 0???      02173         BANKSEL r0x1034
0112   08??           02174         MOVF    r0x1034,W
                      02175 ;; >>> ../../../../src/pic14/gen.c:2319:genPcall
0113   1283 1303      02176         BANKSEL PCL
0115   0082           02177         MOVWF   PCL
                      02178 ;;; ../../../../src/pic14/gen.c:2358:resultRemat *{*
                      02179 ;;; ../../../../src/pic14/gen.c:6991:genIfx *{*
                      02180 ;; ***  genIfx  6992
                      02181 ;;      708 register type nRegs=2
                      02182 ;; ***  pic14_toBoolean  1515
                      02183 ;; ***  mov2w  1395  offset=1
                      02184 ;; >>> ../../../../src/pic14/gen.c:1400:mov2w
                      02185 ;;      1126 rIdx = r0x106C 
0116                  02186 _00199_DS_:
                      02187         .line   78; "lib/format.c"      if(m == 0)
0116   0??? 0???      02188         BANKSEL r0x1039
0118   08??           02189         MOVF    r0x1039,W
                      02190 ;; >>> ../../../../src/pic14/gen.c:1533:pic14_toBoolean
                      02191 ;;      1126 rIdx = r0x106B 
0119   04??           02192         IORWF   r0x103A,W
                      02193 ;; >>> ../../../../src/pic14/gen.c:7040:genIfx
011A   1D03           02194         BTFSS   STATUS,2
                      02195 ;; >>> ../../../../src/pic14/gen.c:7041:genIfx
                      02196 ;; ***  popGetLabel  key=2, label offset 77
011B   2???           02197         GOTO    _00179_DS_
                      02198 ;;; ../../../../src/pic14/gen.c:2358:resultRemat *{*
                      02199 ;;; ../../../../src/pic14/gen.c:2358:resultRemat *{*
                      02200 ;;; ../../../../src/pic14/gen.c:2265:genPcall *{*
                      02201 ;; ***  genPcall  2267
                      02202 ;;      708 register type nRegs=2
                      02203 ;;      line = 2281 result -=-, size=0, left AOP_REG=r0x1063, size=2, right -=-, size=0
                      02204 ;; ***  genPcall  2290 - WARNING arg-passing to indirect call not supported
                      02205 ;; >>> ../../../../src/pic14/gen.c:2310:genPcall
                      02206 ;; ***  popGetLabel  key=23, label offset 77
                      02207         .line   79; "lib/format.c"      fn('.');
011C   2???           02208         CALL    _00200_DS_
                      02209 ;; ***  popGetLabel  key=24, label offset 77
                      02210 ;; >>> ../../../../src/pic14/gen.c:2312:genPcall
011D   0??? 0???      02211         PAGESEL _00179_DS_
                      02212 ;; >>> ../../../../src/pic14/gen.c:2313:genPcall
011F   2???           02213         GOTO    _00179_DS_
                      02214 ;; >>> ../../../../src/pic14/gen.c:2316:genPcall
gpasm-1.5.0 #1285 (Jul 12 2020) obj/sdcc-16f8   11/12/23  13:12:31          PAGE 43


LOC    OBJECT CODE    LINE  SOURCE TEXT
  VALUE

                      02215 ;;      1126 rIdx = r0x1064 
0120                  02216 _00200_DS_:
0120   0??? 0???      02217         BANKSEL r0x1033
0122   08??           02218         MOVF    r0x1033,W
                      02219 ;; >>> ../../../../src/pic14/gen.c:2317:genPcall
0123   1283 1303      02220         BANKSEL PCLATH
0125   008A           02221         MOVWF   PCLATH
                      02222 ;; >>> ../../../../src/pic14/gen.c:2318:genPcall
                      02223 ;;      1126 rIdx = r0x1063 
0126   0??? 0???      02224         BANKSEL r0x1034
0128   08??           02225         MOVF    r0x1034,W
                      02226 ;; >>> ../../../../src/pic14/gen.c:2319:genPcall
0129   1283 1303      02227         BANKSEL PCL
012B   0082           02228         MOVWF   PCL
                      02229 ;;; ../../../../src/pic14/gen.c:2358:resultRemat *{*
                      02230 ;;; ../../../../src/pic14/gen.c:2802:genLabel *{*
                      02231 ;; ***  genLabel  2805
                      02232 ;;; ../../../../src/pic14/gen.c:2358:resultRemat *{*
                      02233 ;;; ../../../../src/pic14/gen.c:7568:genDjnz *{*
                      02234 ;; ***  genDjnz  7569
                      02235 ;;; ../../../../src/pic14/genarith.c:1122:genMinus *{*
                      02236 ;; ***  genMinus  1123
                      02237 ;;      708 register type nRegs=2
                      02238 ;;      589
                      02239 ;;      result AOP_REG, left AOP_REG, right AOP_LIT
                      02240 ;;; ../../../../src/pic14/genarith.c:286:genAddLit *{*
                      02241 ;; ***  genAddLit  287
                      02242 ;; hi = ff      genAddLit  406
                      02243 ;; >>> ../../../../src/pic14/genarith.c:418:genAddLit
012C                  02244 _00179_DS_:
                      02245         .line   80; "lib/format.c"      m--;
012C   30FF           02246         MOVLW   0xff
                      02247 ;; >>> ../../../../src/pic14/genarith.c:419:genAddLit
                      02248 ;;      1126 rIdx = r0x106B 
012D   0??? 0???      02249         BANKSEL r0x103A
012F   07??           02250         ADDWF   r0x103A,F
                      02251 ;; >>> ../../../../src/pic14/genarith.c:420:genAddLit
0130   1C03           02252         BTFSS   STATUS,0
                      02253 ;; >>> ../../../../src/pic14/genarith.c:421:genAddLit
                      02254 ;;      1126 rIdx = r0x106C 
0131   03??           02255         DECF    r0x1039,F
                      02256 ;; ***  addSign  1087
                      02257 ;;; ../../../../src/pic14/genarith.c:1088:addSign *{*
                      02258 ;;; ../../../../src/pic14/gen.c:2358:resultRemat *{*
                      02259 ;;; ../../../../src/pic14/gen.c:2820:genGoto *{*
                      02260 ;; >>> ../../../../src/pic14/gen.c:2822:genGoto
                      02261 ;; ***  popGetLabel  key=3, label offset 77
0132   2???           02262         GOTO    _00180_DS_
                      02263 ;;; ../../../../src/pic14/gen.c:2358:resultRemat *{*
                      02264 ;;; ../../../../src/pic14/gen.c:2802:genLabel *{*
                      02265 ;; ***  genLabel  2805
                      02266 ;;; ../../../../src/pic14/gen.c:2358:resultRemat *{*
                      02267 ;;; ../../../../src/pic14/gen.c:2570:genEndFunction *{*
gpasm-1.5.0 #1285 (Jul 12 2020) obj/sdcc-16f8   11/12/23  13:12:31          PAGE 44


LOC    OBJECT CODE    LINE  SOURCE TEXT
  VALUE

                      02268 ;; ***  genEndFunction  2572
0133                  02269 _00183_DS_:
                      02270         .line   82; "lib/format.c"      }
0133   0008           02271         RETURN  
                      02272 ; exit point of _format_float
                      02273 ;;; ../../../../src/pic14/gen.c:7677:genpic14Code *{*
                      02274 
                      02275 ;***
                      02276 ;  pBlock Stats: dbName = C
                      02277 ;***
                      02278 ;has an exit
                      02279 ;functions called:
                      02280 ;   _00170_DS_
                      02281 ;   _00172_DS_
                      02282 ;   _format_number
                      02283 ;   _format_number
                      02284 ;   _00170_DS_
                      02285 ;   _00172_DS_
                      02286 ;   _format_number
                      02287 ;   _format_number
                      02288 ;21 compiler assigned registers:
                      02289 ;   r0x1055
                      02290 ;   STK00
                      02291 ;   r0x1056
                      02292 ;   STK01
                      02293 ;   r0x1057
                      02294 ;   STK02
                      02295 ;   r0x1058
                      02296 ;   STK03
                      02297 ;   r0x1059
                      02298 ;   STK04
                      02299 ;   r0x105A
                      02300 ;   r0x105B
                      02301 ;   r0x105C
                      02302 ;   r0x105D
                      02303 ;   r0x105E
                      02304 ;   r0x105F
                      02305 ;   r0x1060
                      02306 ;   STK07
                      02307 ;   STK06
                      02308 ;   STK05
                      02309 ;   r0x1061
                      02310 ;; Starting pCode block
                      02311 ;;; ../../../../src/pic14/gen.c:2358:resultRemat *{*
                      02312 ;;; ../../../../src/pic14/gen.c:2802:genLabel *{*
                      02313 ;; ***  genLabel  2805
                      02314 ;;; ../../../../src/pic14/gen.c:2358:resultRemat *{*
                      02315 ;;; ../../../../src/pic14/gen.c:2382:genFunction *{*
                      02316 ;; ***  genFunction  2384 curr label offset=8previous max_key=55 
                      02317 S_format__format_xint32 code
0000                  02318 _format_xint32:
                      02319 ; 2 exit points
                      02320 ;;; ../../../../src/pic14/gen.c:2358:resultRemat *{*
gpasm-1.5.0 #1285 (Jul 12 2020) obj/sdcc-16f8   11/12/23  13:12:31          PAGE 45


LOC    OBJECT CODE    LINE  SOURCE TEXT
  VALUE

                      02321 ;;; ../../../../src/pic14/gen.c:7609:genReceive *{*
                      02322 ;; ***  genReceive  7610
                      02323 ;;      708 register type nRegs=2
                      02324 ;;; ../../../../src/pic14/gen.c:1929:assignResultValue *{*
                      02325 ;; ***  assignResultValue  1931
                      02326 ;;      line = 1933 result -=-, size=0, left AOP_REG=r0x1057, size=2, right -=-, size=0
                      02327 ;; >>> ../../../../src/pic14/gen.c:1407:movwf
                      02328 ;;      1126 rIdx = r0x1058 
                      02329         .line   60; "lib/format.c"      format_xint32(putch_t fn, /*putchar_fn* putchar,*/ uint32_t x) {
0000   0??? 0???      02330         BANKSEL r0x1055
0002   00??           02331         MOVWF   r0x1055
                      02332 ;; >>> ../../../../src/pic14/gen.c:1437:get_returnvalue
                      02333 ;; ***  popRegFromIdx,1059  , rIdx=0x7f
0003   08??           02334         MOVF    STK00,W
                      02335 ;; >>> ../../../../src/pic14/gen.c:1407:movwf
                      02336 ;;      1126 rIdx = r0x1057 
0004   00??           02337         MOVWF   r0x1056
                      02338 ;;; ../../../../src/pic14/gen.c:2358:resultRemat *{*
                      02339 ;;; ../../../../src/pic14/gen.c:7609:genReceive *{*
                      02340 ;; ***  genReceive  7610
                      02341 ;;      708 register type nRegs=4
                      02342 ;;; ../../../../src/pic14/gen.c:1929:assignResultValue *{*
                      02343 ;; ***  assignResultValue  1931
                      02344 ;;      line = 1933 result -=-, size=0, left AOP_REG=r0x1059, size=4, right -=-, size=0
                      02345 ;; >>> ../../../../src/pic14/gen.c:1437:get_returnvalue
                      02346 ;; ***  popRegFromIdx,1059  , rIdx=0x7e
0005   08??           02347         MOVF    STK01,W
                      02348 ;; >>> ../../../../src/pic14/gen.c:1407:movwf
                      02349 ;;      1126 rIdx = r0x105C 
0006   00??           02350         MOVWF   r0x1057
                      02351 ;; >>> ../../../../src/pic14/gen.c:1437:get_returnvalue
                      02352 ;; ***  popRegFromIdx,1059  , rIdx=0x7d
0007   08??           02353         MOVF    STK02,W
                      02354 ;; >>> ../../../../src/pic14/gen.c:1407:movwf
                      02355 ;;      1126 rIdx = r0x105B 
0008   00??           02356         MOVWF   r0x1058
                      02357 ;; >>> ../../../../src/pic14/gen.c:1437:get_returnvalue
                      02358 ;; ***  popRegFromIdx,1059  , rIdx=0x7c
0009   08??           02359         MOVF    STK03,W
                      02360 ;; >>> ../../../../src/pic14/gen.c:1407:movwf
                      02361 ;;      1126 rIdx = r0x105A 
000A   00??           02362         MOVWF   r0x1059
                      02363 ;; >>> ../../../../src/pic14/gen.c:1437:get_returnvalue
                      02364 ;; ***  popRegFromIdx,1059  , rIdx=0x7b
000B   08??           02365         MOVF    STK04,W
                      02366 ;; >>> ../../../../src/pic14/gen.c:1407:movwf
                      02367 ;;      1126 rIdx = r0x1059 
000C   00??           02368         MOVWF   r0x105A
                      02369 ;;; ../../../../src/pic14/gen.c:2358:resultRemat *{*
                      02370 ;;; ../../../../src/pic14/gen.c:2358:resultRemat *{*
                      02371 ;;; ../../../../src/pic14/gen.c:2265:genPcall *{*
                      02372 ;; ***  genPcall  2267
                      02373 ;;      708 register type nRegs=2
gpasm-1.5.0 #1285 (Jul 12 2020) obj/sdcc-16f8   11/12/23  13:12:31          PAGE 46


LOC    OBJECT CODE    LINE  SOURCE TEXT
  VALUE

                      02374 ;;      line = 2281 result -=-, size=0, left AOP_REG=r0x1057, size=2, right -=-, size=0
                      02375 ;; ***  genPcall  2290 - WARNING arg-passing to indirect call not supported
                      02376 ;; >>> ../../../../src/pic14/gen.c:2310:genPcall
                      02377 ;; ***  popGetLabel  key=3, label offset 67
                      02378         .line   61; "lib/format.c"      fn('0');
000D   2???           02379         CALL    _00170_DS_
                      02380 ;; ***  popGetLabel  key=4, label offset 67
                      02381 ;; >>> ../../../../src/pic14/gen.c:2312:genPcall
000E   0??? 0???      02382         PAGESEL _00171_DS_
                      02383 ;; >>> ../../../../src/pic14/gen.c:2313:genPcall
0010   2???           02384         GOTO    _00171_DS_
                      02385 ;; >>> ../../../../src/pic14/gen.c:2316:genPcall
                      02386 ;;      1126 rIdx = r0x1058 
0011                  02387 _00170_DS_:
0011   0??? 0???      02388         BANKSEL r0x1055
0013   08??           02389         MOVF    r0x1055,W
                      02390 ;; >>> ../../../../src/pic14/gen.c:2317:genPcall
0014   1283 1303      02391         BANKSEL PCLATH
0016   008A           02392         MOVWF   PCLATH
                      02393 ;; >>> ../../../../src/pic14/gen.c:2318:genPcall
                      02394 ;;      1126 rIdx = r0x1057 
0017   0??? 0???      02395         BANKSEL r0x1056
0019   08??           02396         MOVF    r0x1056,W
                      02397 ;; >>> ../../../../src/pic14/gen.c:2319:genPcall
001A   1283 1303      02398         BANKSEL PCL
001C   0082           02399         MOVWF   PCL
                      02400 ;;; ../../../../src/pic14/gen.c:2358:resultRemat *{*
                      02401 ;;; ../../../../src/pic14/gen.c:2358:resultRemat *{*
                      02402 ;;; ../../../../src/pic14/gen.c:2265:genPcall *{*
                      02403 ;; ***  genPcall  2267
                      02404 ;;      708 register type nRegs=2
                      02405 ;;      line = 2281 result -=-, size=0, left AOP_REG=r0x1057, size=2, right -=-, size=0
                      02406 ;; ***  genPcall  2290 - WARNING arg-passing to indirect call not supported
                      02407 ;; >>> ../../../../src/pic14/gen.c:2310:genPcall
                      02408 ;; ***  popGetLabel  key=5, label offset 67
001D                  02409 _00171_DS_:
                      02410         .line   62; "lib/format.c"      fn('x');
001D   2???           02411         CALL    _00172_DS_
                      02412 ;; ***  popGetLabel  key=6, label offset 67
                      02413 ;; >>> ../../../../src/pic14/gen.c:2312:genPcall
001E   0??? 0???      02414         PAGESEL _00173_DS_
                      02415 ;; >>> ../../../../src/pic14/gen.c:2313:genPcall
0020   2???           02416         GOTO    _00173_DS_
                      02417 ;; >>> ../../../../src/pic14/gen.c:2316:genPcall
                      02418 ;;      1126 rIdx = r0x1058 
0021                  02419 _00172_DS_:
0021   0??? 0???      02420         BANKSEL r0x1055
0023   08??           02421         MOVF    r0x1055,W
                      02422 ;; >>> ../../../../src/pic14/gen.c:2317:genPcall
0024   1283 1303      02423         BANKSEL PCLATH
0026   008A           02424         MOVWF   PCLATH
                      02425 ;; >>> ../../../../src/pic14/gen.c:2318:genPcall
                      02426 ;;      1126 rIdx = r0x1057 
gpasm-1.5.0 #1285 (Jul 12 2020) obj/sdcc-16f8   11/12/23  13:12:31          PAGE 47


LOC    OBJECT CODE    LINE  SOURCE TEXT
  VALUE

0027   0??? 0???      02427         BANKSEL r0x1056
0029   08??           02428         MOVF    r0x1056,W
                      02429 ;; >>> ../../../../src/pic14/gen.c:2319:genPcall
002A   1283 1303      02430         BANKSEL PCL
002C   0082           02431         MOVWF   PCL
                      02432 ;;; ../../../../src/pic14/gen.c:2358:resultRemat *{*
                      02433 ;;; ../../../../src/pic14/gen.c:5634:genGenericShift *{*
                      02434 ;; ***  genGenericShift  5637
                      02435 ;;      708 register type nRegs=4
                      02436 ;;      708 register type nRegs=4
                      02437 ;;; ../../../../src/pic14/gen.c:5240:movLeft2Result *{*
                      02438 ;; ***  movLeft2Result  5241
                      02439 ;; >>> ../../../../src/pic14/gen.c:5246:movLeft2Result
                      02440 ;;      1126 rIdx = r0x105B 
                      02441 ;;114   MOVF    r0x1058,W
                      02442 ;; >>> ../../../../src/pic14/gen.c:5247:movLeft2Result
                      02443 ;;      1126 rIdx = r0x105D 
                      02444 ;;; ../../../../src/pic14/gen.c:5240:movLeft2Result *{*
                      02445 ;; ***  movLeft2Result  5241
                      02446 ;; >>> ../../../../src/pic14/gen.c:5246:movLeft2Result
                      02447 ;;      1126 rIdx = r0x105C 
                      02448 ;;116   MOVF    r0x1057,W
                      02449 ;; >>> ../../../../src/pic14/gen.c:5247:movLeft2Result
                      02450 ;;      1126 rIdx = r0x105E 
                      02451 ;; ***  addSign  1087
                      02452 ;;; ../../../../src/pic14/genarith.c:1088:addSign *{*
                      02453 ;; >>> ../../../../src/pic14/genarith.c:1107:addSign
                      02454 ;;      1126 rIdx = r0x105F 
                      02455 ;;1     CLRF    r0x105D
                      02456 ;; >>> ../../../../src/pic14/genarith.c:1107:addSign
                      02457 ;;      1126 rIdx = r0x1060 
                      02458 ;;1     CLRF    r0x105E
                      02459 ;;; ../../../../src/pic14/gen.c:2358:resultRemat *{*
                      02460 ;;; ../../../../src/pic14/gen.c:7353:genCast *{*
                      02461 ;; ***  genCast  7354
                      02462 ;;      708 register type nRegs=2
                      02463 ;;      line = 7362 result AOP_REG=r0x1061, size=2, left -=-, size=0, right AOP_REG=r0x105D, size=4
                      02464 ;; ***  genCast  7504
                      02465 ;; >>> ../../../../src/pic14/gen.c:7528:genCast
                      02466 ;;      1126 rIdx = r0x105D 
                      02467 ;;101   MOVF    r0x105B,W
                      02468 ;; >>> ../../../../src/pic14/gen.c:7529:genCast
                      02469 ;;      1126 rIdx = r0x1061 
                      02470 ;;99    MOVWF   r0x105F
                      02471 ;; >>> ../../../../src/pic14/gen.c:7528:genCast
                      02472 ;;      1126 rIdx = r0x105E 
                      02473 ;;104   MOVF    r0x105C,W
                      02474 ;; >>> ../../../../src/pic14/gen.c:7529:genCast
                      02475 ;;      1126 rIdx = r0x1062 
                      02476 ;;102   MOVWF   r0x1060
                      02477 ;;; ../../../../src/pic14/gen.c:2358:resultRemat *{*
                      02478 ;;; ../../../../src/pic14/gen.c:2358:resultRemat *{*
                      02479 ;;; ../../../../src/pic14/gen.c:2358:resultRemat *{*
gpasm-1.5.0 #1285 (Jul 12 2020) obj/sdcc-16f8   11/12/23  13:12:31          PAGE 48


LOC    OBJECT CODE    LINE  SOURCE TEXT
  VALUE

                      02480 ;;; ../../../../src/pic14/gen.c:2358:resultRemat *{*
                      02481 ;;; ../../../../src/pic14/gen.c:2358:resultRemat *{*
                      02482 ;;; ../../../../src/pic14/gen.c:2108:genCall *{*
                      02483 ;; ***  genCall  2110
                      02484 ;;      708 register type nRegs=2
                      02485 ;;      708 register type nRegs=2
                      02486 ;;      708 register type nRegs=1
                      02487 ;;      2158 left AOP_LIT
                      02488 ;;; ../../../../src/pic14/gen.c:1357:mov2w_op *{*
                      02489 ;; >>> ../../../../src/pic14/gen.c:1375:mov2w_op
002D                  02490 _00173_DS_:
                      02491         .line   63; "lib/format.c"      format_number(fn, (uint16_t)(x >> 16), 16, -4);
002D   30FC           02492         MOVLW   0xfc
                      02493 ;;      2158 left AOP_LIT
                      02494 ;; >>> ../../../../src/pic14/gen.c:2166:genCall
                      02495 ;; ***  popRegFromIdx,1059  , rIdx=0x78
002E   00??           02496         MOVWF   STK07
                      02497 ;;; ../../../../src/pic14/gen.c:1357:mov2w_op *{*
                      02498 ;; >>> ../../../../src/pic14/gen.c:1375:mov2w_op
002F   3010           02499         MOVLW   0x10
                      02500 ;;      708 register type nRegs=2
                      02501 ;;      2158 left AOP_REG
                      02502 ;; >>> ../../../../src/pic14/gen.c:2166:genCall
                      02503 ;; ***  popRegFromIdx,1059  , rIdx=0x79
0030   00??           02504         MOVWF   STK06
                      02505 ;;; ../../../../src/pic14/gen.c:1357:mov2w_op *{*
                      02506 ;; ***  mov2w  1395  offset=0
                      02507 ;; >>> ../../../../src/pic14/gen.c:1400:mov2w
                      02508 ;;      1126 rIdx = r0x1061 
                      02509 ;;100   MOVF    r0x105F,W
                      02510 ;;113   MOVF    r0x105B,W
0031   0??? 0???      02511         BANKSEL r0x1058
0033   08??           02512         MOVF    r0x1058,W
0034   00??           02513         MOVWF   r0x105B
                      02514 ;;      2158 left AOP_REG
                      02515 ;; >>> ../../../../src/pic14/gen.c:2166:genCall
                      02516 ;; ***  popRegFromIdx,1059  , rIdx=0x7a
0035   00??           02517         MOVWF   STK05
                      02518 ;;; ../../../../src/pic14/gen.c:1357:mov2w_op *{*
                      02519 ;; ***  mov2w  1395  offset=1
                      02520 ;; >>> ../../../../src/pic14/gen.c:1400:mov2w
                      02521 ;;      1126 rIdx = r0x1062 
                      02522 ;;103   MOVF    r0x1060,W
                      02523 ;;115   MOVF    r0x105C,W
0036   08??           02524         MOVF    r0x1057,W
0037   00??           02525         MOVWF   r0x105C
                      02526 ;;      708 register type nRegs=2
                      02527 ;;      2158 left AOP_REG
                      02528 ;; >>> ../../../../src/pic14/gen.c:2166:genCall
                      02529 ;; ***  popRegFromIdx,1059  , rIdx=0x7b
0038   00??           02530         MOVWF   STK04
                      02531 ;;; ../../../../src/pic14/gen.c:1357:mov2w_op *{*
                      02532 ;; ***  mov2w  1395  offset=0
gpasm-1.5.0 #1285 (Jul 12 2020) obj/sdcc-16f8   11/12/23  13:12:31          PAGE 49


LOC    OBJECT CODE    LINE  SOURCE TEXT
  VALUE

                      02533 ;; >>> ../../../../src/pic14/gen.c:1400:mov2w
                      02534 ;;      1126 rIdx = r0x1057 
0039   08??           02535         MOVF    r0x1056,W
                      02536 ;;      2158 left AOP_REG
                      02537 ;; >>> ../../../../src/pic14/gen.c:2166:genCall
                      02538 ;; ***  popRegFromIdx,1059  , rIdx=0x7c
003A   00??           02539         MOVWF   STK03
                      02540 ;;; ../../../../src/pic14/gen.c:1357:mov2w_op *{*
                      02541 ;; ***  mov2w  1395  offset=1
                      02542 ;; >>> ../../../../src/pic14/gen.c:1400:mov2w
                      02543 ;;      1126 rIdx = r0x1058 
003B   08??           02544         MOVF    r0x1055,W
                      02545 ;;      2158 left AOP_LIT
                      02546 ;; >>> ../../../../src/pic14/gen.c:2166:genCall
                      02547 ;; ***  popRegFromIdx,1059  , rIdx=0x7d
003C   00??           02548         MOVWF   STK02
                      02549 ;;; ../../../../src/pic14/gen.c:1357:mov2w_op *{*
                      02550 ;; >>> ../../../../src/pic14/gen.c:1375:mov2w_op
003D   3078           02551         MOVLW   0x78
                      02552 ;;      2158 left AOP_LIT
                      02553 ;; >>> ../../../../src/pic14/gen.c:2166:genCall
                      02554 ;; ***  popRegFromIdx,1059  , rIdx=0x7e
003E   00??           02555         MOVWF   STK01
                      02556 ;;; ../../../../src/pic14/gen.c:1357:mov2w_op *{*
                      02557 ;; >>> ../../../../src/pic14/gen.c:1375:mov2w_op
003F   3030           02558         MOVLW   0x30
                      02559 ;;      708 register type nRegs=1
                      02560 ;;      2158 left AOP_REG
                      02561 ;; >>> ../../../../src/pic14/gen.c:2166:genCall
                      02562 ;; ***  popRegFromIdx,1059  , rIdx=0x7f
0040   00??           02563         MOVWF   STK00
                      02564 ;;; ../../../../src/pic14/gen.c:1357:mov2w_op *{*
                      02565 ;; ***  mov2w  1395  offset=0
                      02566 ;; >>> ../../../../src/pic14/gen.c:1400:mov2w
                      02567 ;;      1126 rIdx = r0x104C 
0041   08??           02568         MOVF    r0x1061,W
                      02569 ;; >>> ../../../../src/pic14/gen.c:2207:genCall
0042   0??? 0???      02570         PAGESEL _format_number
                      02571 ;; >>> ../../../../src/pic14/gen.c:2215:genCall
0044   2???           02572         CALL    _format_number
                      02573 ;; >>> ../../../../src/pic14/gen.c:2223:genCall
0045   0??? 0???      02574         PAGESEL $
                      02575 ;;; ../../../../src/pic14/gen.c:2358:resultRemat *{*
                      02576 ;;; ../../../../src/pic14/gen.c:7353:genCast *{*
                      02577 ;; ***  genCast  7354
                      02578 ;;      589
                      02579 ;;      708 register type nRegs=2
                      02580 ;;      line = 7362 result AOP_REG=r0x105D, size=2, left -=-, size=0, right AOP_REG=r0x1059, size=4
                      02581 ;; ***  genCast  7504
                      02582 ;; >>> ../../../../src/pic14/gen.c:7528:genCast
                      02583 ;;      1126 rIdx = r0x1059 
                      02584 ;;109   MOVF    r0x105A,W
                      02585 ;; >>> ../../../../src/pic14/gen.c:7529:genCast
gpasm-1.5.0 #1285 (Jul 12 2020) obj/sdcc-16f8   11/12/23  13:12:31          PAGE 50


LOC    OBJECT CODE    LINE  SOURCE TEXT
  VALUE

                      02586 ;;      1126 rIdx = r0x105D 
                      02587 ;; >>> ../../../../src/pic14/gen.c:7528:genCast
                      02588 ;;      1126 rIdx = r0x105A 
                      02589 ;;111   MOVF    r0x1059,W
                      02590 ;; >>> ../../../../src/pic14/gen.c:7529:genCast
                      02591 ;;      1126 rIdx = r0x105E 
                      02592 ;;; ../../../../src/pic14/gen.c:2358:resultRemat *{*
                      02593 ;;; ../../../../src/pic14/gen.c:2358:resultRemat *{*
                      02594 ;;; ../../../../src/pic14/gen.c:2358:resultRemat *{*
                      02595 ;;; ../../../../src/pic14/gen.c:2358:resultRemat *{*
                      02596 ;;; ../../../../src/pic14/gen.c:2358:resultRemat *{*
                      02597 ;;; ../../../../src/pic14/gen.c:2108:genCall *{*
                      02598 ;; ***  genCall  2110
                      02599 ;;      708 register type nRegs=2
                      02600 ;;      708 register type nRegs=2
                      02601 ;;      2158 left AOP_LIT
                      02602 ;;; ../../../../src/pic14/gen.c:1357:mov2w_op *{*
                      02603 ;; >>> ../../../../src/pic14/gen.c:1375:mov2w_op
                      02604         .line   64; "lib/format.c"      format_number(fn, (uint16_t)(x & 0xffff), 16, -4);
0047   30FC           02605         MOVLW   0xfc
                      02606 ;;      2158 left AOP_LIT
                      02607 ;; >>> ../../../../src/pic14/gen.c:2166:genCall
                      02608 ;; ***  popRegFromIdx,1059  , rIdx=0x7b
0048   00??           02609         MOVWF   STK04
                      02610 ;;; ../../../../src/pic14/gen.c:1357:mov2w_op *{*
                      02611 ;; >>> ../../../../src/pic14/gen.c:1375:mov2w_op
0049   3010           02612         MOVLW   0x10
                      02613 ;;      708 register type nRegs=2
                      02614 ;;      2158 left AOP_REG
                      02615 ;; >>> ../../../../src/pic14/gen.c:2166:genCall
                      02616 ;; ***  popRegFromIdx,1059  , rIdx=0x7c
004A   00??           02617         MOVWF   STK03
                      02618 ;;; ../../../../src/pic14/gen.c:1357:mov2w_op *{*
                      02619 ;; ***  mov2w  1395  offset=0
                      02620 ;; >>> ../../../../src/pic14/gen.c:1400:mov2w
                      02621 ;;      1126 rIdx = r0x105D 
                      02622 ;;108   MOVF    r0x105B,W
004B   0??? 0???      02623         BANKSEL r0x105A
004D   08??           02624         MOVF    r0x105A,W
004E   00??           02625         MOVWF   r0x105B
                      02626 ;;      2158 left AOP_REG
                      02627 ;; >>> ../../../../src/pic14/gen.c:2166:genCall
                      02628 ;; ***  popRegFromIdx,1059  , rIdx=0x7d
004F   00??           02629         MOVWF   STK02
                      02630 ;;; ../../../../src/pic14/gen.c:1357:mov2w_op *{*
                      02631 ;; ***  mov2w  1395  offset=1
                      02632 ;; >>> ../../../../src/pic14/gen.c:1400:mov2w
                      02633 ;;      1126 rIdx = r0x105E 
                      02634 ;;110   MOVF    r0x105C,W
0050   08??           02635         MOVF    r0x1059,W
0051   00??           02636         MOVWF   r0x105C
                      02637 ;;      708 register type nRegs=2
                      02638 ;;      2158 left AOP_REG
gpasm-1.5.0 #1285 (Jul 12 2020) obj/sdcc-16f8   11/12/23  13:12:31          PAGE 51


LOC    OBJECT CODE    LINE  SOURCE TEXT
  VALUE

                      02639 ;; >>> ../../../../src/pic14/gen.c:2166:genCall
                      02640 ;; ***  popRegFromIdx,1059  , rIdx=0x7e
0052   00??           02641         MOVWF   STK01
                      02642 ;;; ../../../../src/pic14/gen.c:1357:mov2w_op *{*
                      02643 ;; ***  mov2w  1395  offset=0
                      02644 ;; >>> ../../../../src/pic14/gen.c:1400:mov2w
                      02645 ;;      1126 rIdx = r0x1057 
0053   08??           02646         MOVF    r0x1056,W
                      02647 ;;      2158 left AOP_REG
                      02648 ;; >>> ../../../../src/pic14/gen.c:2166:genCall
                      02649 ;; ***  popRegFromIdx,1059  , rIdx=0x7f
0054   00??           02650         MOVWF   STK00
                      02651 ;;; ../../../../src/pic14/gen.c:1357:mov2w_op *{*
                      02652 ;; ***  mov2w  1395  offset=1
                      02653 ;; >>> ../../../../src/pic14/gen.c:1400:mov2w
                      02654 ;;      1126 rIdx = r0x1058 
0055   08??           02655         MOVF    r0x1055,W
                      02656 ;; >>> ../../../../src/pic14/gen.c:2207:genCall
0056   0??? 0???      02657         PAGESEL _format_number
                      02658 ;; >>> ../../../../src/pic14/gen.c:2215:genCall
0058   2???           02659         CALL    _format_number
                      02660 ;; >>> ../../../../src/pic14/gen.c:2223:genCall
0059   0??? 0???      02661         PAGESEL $
                      02662 ;;; ../../../../src/pic14/gen.c:2358:resultRemat *{*
                      02663 ;;; ../../../../src/pic14/gen.c:2802:genLabel *{*
                      02664 ;; ***  genLabel  2805
                      02665 ;;; ../../../../src/pic14/gen.c:2358:resultRemat *{*
                      02666 ;;; ../../../../src/pic14/gen.c:2570:genEndFunction *{*
                      02667 ;; ***  genEndFunction  2572
                      02668         .line   65; "lib/format.c"      }
005B   0008           02669         RETURN  
                      02670 ; exit point of _format_xint32
                      02671 ;;; ../../../../src/pic14/gen.c:7677:genpic14Code *{*
                      02672 
                      02673 ;***
                      02674 ;  pBlock Stats: dbName = C
                      02675 ;***
                      02676 ;has an exit
                      02677 ;functions called:
                      02678 ;   __moduint
                      02679 ;   __divuint
                      02680 ;   _buffer_putch
                      02681 ;   _00162_DS_
                      02682 ;   __moduint
                      02683 ;   __divuint
                      02684 ;   _buffer_putch
                      02685 ;   _00162_DS_
                      02686 ;22 compiler assigned registers:
                      02687 ;   r0x1044
                      02688 ;   STK00
                      02689 ;   r0x1045
                      02690 ;   STK01
                      02691 ;   r0x1046
gpasm-1.5.0 #1285 (Jul 12 2020) obj/sdcc-16f8   11/12/23  13:12:31          PAGE 52


LOC    OBJECT CODE    LINE  SOURCE TEXT
  VALUE

                      02692 ;   STK02
                      02693 ;   r0x1047
                      02694 ;   STK03
                      02695 ;   r0x1048
                      02696 ;   STK04
                      02697 ;   r0x1049
                      02698 ;   r0x104A
                      02699 ;   r0x1061
                      02700 ;   r0x104C
                      02701 ;   r0x104D
                      02702 ;   r0x104E
                      02703 ;   r0x104F
                      02704 ;   r0x1050
                      02705 ;   r0x1051
                      02706 ;   r0x1052
                      02707 ;   r0x1053
                      02708 ;   r0x1054
                      02709 ;; Starting pCode block
                      02710 ;;; ../../../../src/pic14/gen.c:2358:resultRemat *{*
                      02711 ;;; ../../../../src/pic14/gen.c:2802:genLabel *{*
                      02712 ;; ***  genLabel  2805
                      02713 ;;; ../../../../src/pic14/gen.c:2358:resultRemat *{*
                      02714 ;;; ../../../../src/pic14/gen.c:2382:genFunction *{*
                      02715 ;; ***  genFunction  2384 curr label offset=4previous max_key=0 
                      02716 S_format__format_number code
0000                  02717 _format_number:
                      02718 ; 2 exit points
                      02719 ;;; ../../../../src/pic14/gen.c:2358:resultRemat *{*
                      02720 ;;; ../../../../src/pic14/gen.c:7609:genReceive *{*
                      02721 ;; ***  genReceive  7610
                      02722 ;;      708 register type nRegs=2
                      02723 ;;; ../../../../src/pic14/gen.c:1929:assignResultValue *{*
                      02724 ;; ***  assignResultValue  1931
                      02725 ;;      line = 1933 result -=-, size=0, left AOP_REG=r0x1045, size=2, right -=-, size=0
                      02726 ;; >>> ../../../../src/pic14/gen.c:1407:movwf
                      02727 ;;      1126 rIdx = r0x1046 
                      02728         .line   26; "lib/format.c"      format_number(putch_t fn, uint16_t n, uint8_t base, int8_t pad /
                            *, int8_t pointpos*/) {
0000   0??? 0???      02729         BANKSEL r0x1044
0002   00??           02730         MOVWF   r0x1044
                      02731 ;; >>> ../../../../src/pic14/gen.c:1437:get_returnvalue
                      02732 ;; ***  popRegFromIdx,1059  , rIdx=0x7f
0003   08??           02733         MOVF    STK00,W
                      02734 ;; >>> ../../../../src/pic14/gen.c:1407:movwf
                      02735 ;;      1126 rIdx = r0x1045 
0004   00??           02736         MOVWF   r0x1045
                      02737 ;;; ../../../../src/pic14/gen.c:2358:resultRemat *{*
                      02738 ;;; ../../../../src/pic14/gen.c:7609:genReceive *{*
                      02739 ;; ***  genReceive  7610
                      02740 ;;      708 register type nRegs=2
                      02741 ;;; ../../../../src/pic14/gen.c:1929:assignResultValue *{*
                      02742 ;; ***  assignResultValue  1931
                      02743 ;;      line = 1933 result -=-, size=0, left AOP_REG=r0x1047, size=2, right -=-, size=0
gpasm-1.5.0 #1285 (Jul 12 2020) obj/sdcc-16f8   11/12/23  13:12:31          PAGE 53


LOC    OBJECT CODE    LINE  SOURCE TEXT
  VALUE

                      02744 ;; >>> ../../../../src/pic14/gen.c:1437:get_returnvalue
                      02745 ;; ***  popRegFromIdx,1059  , rIdx=0x7e
0005   08??           02746         MOVF    STK01,W
                      02747 ;; >>> ../../../../src/pic14/gen.c:1407:movwf
                      02748 ;;      1126 rIdx = r0x1048 
0006   00??           02749         MOVWF   r0x1046
                      02750 ;; >>> ../../../../src/pic14/gen.c:1437:get_returnvalue
                      02751 ;; ***  popRegFromIdx,1059  , rIdx=0x7d
0007   08??           02752         MOVF    STK02,W
                      02753 ;; >>> ../../../../src/pic14/gen.c:1407:movwf
                      02754 ;;      1126 rIdx = r0x1047 
0008   00??           02755         MOVWF   r0x1047
                      02756 ;;; ../../../../src/pic14/gen.c:2358:resultRemat *{*
                      02757 ;;; ../../../../src/pic14/gen.c:7609:genReceive *{*
                      02758 ;; ***  genReceive  7610
                      02759 ;;      708 register type nRegs=1
                      02760 ;;; ../../../../src/pic14/gen.c:1929:assignResultValue *{*
                      02761 ;; ***  assignResultValue  1931
                      02762 ;;      line = 1933 result -=-, size=0, left AOP_REG=r0x1049, size=1, right -=-, size=0
                      02763 ;; >>> ../../../../src/pic14/gen.c:1437:get_returnvalue
                      02764 ;; ***  popRegFromIdx,1059  , rIdx=0x7c
0009   08??           02765         MOVF    STK03,W
                      02766 ;; >>> ../../../../src/pic14/gen.c:1407:movwf
                      02767 ;;      1126 rIdx = r0x1049 
000A   00??           02768         MOVWF   r0x1048
                      02769 ;;; ../../../../src/pic14/gen.c:2358:resultRemat *{*
                      02770 ;;; ../../../../src/pic14/gen.c:7609:genReceive *{*
                      02771 ;; ***  genReceive  7610
                      02772 ;;      708 register type nRegs=1
                      02773 ;;; ../../../../src/pic14/gen.c:1929:assignResultValue *{*
                      02774 ;; ***  assignResultValue  1931
                      02775 ;;      line = 1933 result -=-, size=0, left AOP_REG=r0x104A, size=1, right -=-, size=0
                      02776 ;; >>> ../../../../src/pic14/gen.c:1437:get_returnvalue
                      02777 ;; ***  popRegFromIdx,1059  , rIdx=0x7b
000B   08??           02778         MOVF    STK04,W
                      02779 ;; >>> ../../../../src/pic14/gen.c:1407:movwf
                      02780 ;;      1126 rIdx = r0x104A 
000C   00??           02781         MOVWF   r0x1049
                      02782 ;;; ../../../../src/pic14/gen.c:2358:resultRemat *{*
                      02783 ;;; ../../../../src/pic14/gen.c:7159:genAssign *{*
                      02784 ;; ***  genAssign  7160
                      02785 ;;      708 register type nRegs=1
                      02786 ;;      line = 7169 result AOP_REG=r0x104B, size=1, left -=-, size=0, right AOP_LIT=0x20, size=1
                      02787 ;; ***  genAssign  7253
                      02788 ;; >>> ../../../../src/pic14/gen.c:7260:genAssign
                      02789         .line   30; "lib/format.c"      char padchar = ' ';
000D   3020           02790         MOVLW   0x20
                      02791 ;; >>> ../../../../src/pic14/gen.c:7262:genAssign
                      02792 ;;      1126 rIdx = r0x104B 
000E   00??           02793         MOVWF   r0x104A
                      02794 ;;; ../../../../src/pic14/gen.c:2358:resultRemat *{*
                      02795 ;;; ../../../../src/pic14/gen.c:3652:genCmpLt *{*
                      02796 ;; ***  genCmpLt  3653
gpasm-1.5.0 #1285 (Jul 12 2020) obj/sdcc-16f8   11/12/23  13:12:31          PAGE 54


LOC    OBJECT CODE    LINE  SOURCE TEXT
  VALUE

                      02797 ;;      708 register type nRegs=1
                      02798 ;;; ../../../../src/pic14/gen.c:3354:genCmp *{*
                      02799 ;;signed compare: left < lit(0x0=0), size=1, mask=ff
                      02800 ;; >>> ../../../../src/pic14/gen.c:3469:genCmp
                      02801         .line   32; "lib/format.c"      if(pad < 0) {
000F   1403           02802         BSF     STATUS,0
                      02803 ;; >>> ../../../../src/pic14/gen.c:3472:genCmp
0010   1F??           02804         BTFSS   r0x1049,7
                      02805 ;; >>> ../../../../src/pic14/gen.c:3474:genCmp
0011   1003           02806         BCF     STATUS,0
                      02807 ;;; ../../../../src/pic14/gen.c:3297:genSkipc *{*
                      02808 ;; >>> ../../../../src/pic14/gen.c:3304:genSkipc
0012   1C03           02809         BTFSS   STATUS,0
                      02810 ;; >>> ../../../../src/pic14/gen.c:3306:genSkipc
                      02811 ;; ***  popGetLabel  key=19, label offset 8
0013   2???           02812         GOTO    _00127_DS_
                      02813 ;;genSkipc:3307: created from rifx:0x7ffe231841d0
                      02814 ;;; ../../../../src/pic14/gen.c:2358:resultRemat *{*
                      02815 ;;; ../../../../src/pic14/gen.c:2358:resultRemat *{*
                      02816 ;;; ../../../../src/pic14/gen.c:1679:genUminus *{*
                      02817 ;; ***  genUminus  1681
                      02818 ;;      708 register type nRegs=1
                      02819 ;;      589
                      02820 ;; >>> ../../../../src/pic14/gen.c:1713:genUminus
                      02821 ;;      1126 rIdx = r0x104A 
                      02822         .line   33; "lib/format.c"      pad = -pad;
0014   09??           02823         COMF    r0x1049,F
                      02824 ;; >>> ../../../../src/pic14/gen.c:1721:genUminus
                      02825 ;;      1126 rIdx = r0x104A 
0015   0A??           02826         INCF    r0x1049,F
                      02827 ;;; ../../../../src/pic14/gen.c:2358:resultRemat *{*
                      02828 ;;; ../../../../src/pic14/gen.c:7159:genAssign *{*
                      02829 ;; ***  genAssign  7160
                      02830 ;;      708 register type nRegs=1
                      02831 ;;      line = 7169 result AOP_REG=r0x104B, size=1, left -=-, size=0, right AOP_LIT=0x30, size=1
                      02832 ;; ***  genAssign  7253
                      02833 ;; >>> ../../../../src/pic14/gen.c:7260:genAssign
                      02834         .line   34; "lib/format.c"      padchar = '0';
0016   3030           02835         MOVLW   0x30
                      02836 ;; >>> ../../../../src/pic14/gen.c:7262:genAssign
                      02837 ;;      1126 rIdx = r0x104B 
0017   00??           02838         MOVWF   r0x104A
                      02839 ;;; ../../../../src/pic14/gen.c:2358:resultRemat *{*
                      02840 ;;; ../../../../src/pic14/gen.c:2802:genLabel *{*
                      02841 ;; ***  genLabel  2805
                      02842 ;;; ../../../../src/pic14/gen.c:2358:resultRemat *{*
                      02843 ;;; ../../../../src/pic14/gen.c:2358:resultRemat *{*
                      02844 ;;; ../../../../src/pic14/gen.c:7159:genAssign *{*
                      02845 ;; ***  genAssign  7160
                      02846 ;;      708 register type nRegs=1
                      02847 ;;      line = 7169 result AOP_REG=r0x104C, size=1, left -=-, size=0, right AOP_LIT=0x00, size=1
                      02848 ;; ***  genAssign  7253
                      02849 ;; >>> ../../../../src/pic14/gen.c:7265:genAssign
gpasm-1.5.0 #1285 (Jul 12 2020) obj/sdcc-16f8   11/12/23  13:12:31          PAGE 55


LOC    OBJECT CODE    LINE  SOURCE TEXT
  VALUE

                      02850 ;;      1126 rIdx = r0x104C 
0018                  02851 _00127_DS_:
                      02852         .line   42; "lib/format.c"      do {
0018   0??? 0???      02853         BANKSEL r0x1061
001A   01??           02854         CLRF    r0x1061
                      02855 ;;; ../../../../src/pic14/gen.c:2358:resultRemat *{*
                      02856 ;;; ../../../../src/pic14/gen.c:2802:genLabel *{*
                      02857 ;; ***  genLabel  2805
                      02858 ;;; ../../../../src/pic14/gen.c:2358:resultRemat *{*
                      02859 ;;; ../../../../src/pic14/gen.c:7353:genCast *{*
                      02860 ;; ***  genCast  7354
                      02861 ;;      708 register type nRegs=1
                      02862 ;;      708 register type nRegs=2
                      02863 ;;      line = 7362 result AOP_REG=r0x104D, size=2, left -=-, size=0, right AOP_REG=r0x1049, size=1
                      02864 ;; >>> ../../../../src/pic14/gen.c:7549:genCast
                      02865 ;;      1126 rIdx = r0x1049 
                      02866 ;;106   MOVF    r0x1048,W
                      02867 ;; >>> ../../../../src/pic14/gen.c:7550:genCast
                      02868 ;;      1126 rIdx = r0x104D 
                      02869 ;; ***  addSign  1087
                      02870 ;;; ../../../../src/pic14/genarith.c:1088:addSign *{*
                      02871 ;; >>> ../../../../src/pic14/genarith.c:1107:addSign
                      02872 ;;      1126 rIdx = r0x104E 
001B                  02873 _00111_DS_:
                      02874         .line   46; "lib/format.c"      di = n % base;
001B   0??? 0???      02875         BANKSEL r0x104D
001D   01??           02876         CLRF    r0x104D
                      02877 ;;; ../../../../src/pic14/gen.c:2358:resultRemat *{*
                      02878 ;;; ../../../../src/pic14/gen.c:2358:resultRemat *{*
                      02879 ;;; ../../../../src/pic14/gen.c:2358:resultRemat *{*
                      02880 ;;; ../../../../src/pic14/gen.c:2108:genCall *{*
                      02881 ;; ***  genCall  2110
                      02882 ;;      708 register type nRegs=2
                      02883 ;;      708 register type nRegs=2
                      02884 ;;      708 register type nRegs=2
                      02885 ;;      2158 left AOP_REG
                      02886 ;;; ../../../../src/pic14/gen.c:1357:mov2w_op *{*
                      02887 ;; ***  mov2w  1395  offset=0
                      02888 ;; >>> ../../../../src/pic14/gen.c:1400:mov2w
                      02889 ;;      1126 rIdx = r0x104D 
                      02890 ;;105   MOVF    r0x104C,W
001E   08??           02891         MOVF    r0x1048,W
001F   00??           02892         MOVWF   r0x104C
                      02893 ;;      2158 left AOP_REG
                      02894 ;; >>> ../../../../src/pic14/gen.c:2166:genCall
                      02895 ;; ***  popRegFromIdx,1059  , rIdx=0x7d
0020   00??           02896         MOVWF   STK02
                      02897 ;;; ../../../../src/pic14/gen.c:1357:mov2w_op *{*
                      02898 ;; ***  mov2w  1395  offset=1
                      02899 ;; >>> ../../../../src/pic14/gen.c:1400:mov2w
                      02900 ;;      1126 rIdx = r0x104E 
0021   3000           02901         MOVLW   0x00
                      02902 ;;      708 register type nRegs=2
gpasm-1.5.0 #1285 (Jul 12 2020) obj/sdcc-16f8   11/12/23  13:12:31          PAGE 56


LOC    OBJECT CODE    LINE  SOURCE TEXT
  VALUE

                      02903 ;;      2158 left AOP_REG
                      02904 ;; >>> ../../../../src/pic14/gen.c:2166:genCall
                      02905 ;; ***  popRegFromIdx,1059  , rIdx=0x7e
0022   00??           02906         MOVWF   STK01
                      02907 ;;; ../../../../src/pic14/gen.c:1357:mov2w_op *{*
                      02908 ;; ***  mov2w  1395  offset=0
                      02909 ;; >>> ../../../../src/pic14/gen.c:1400:mov2w
                      02910 ;;      1126 rIdx = r0x1047 
0023   08??           02911         MOVF    r0x1047,W
                      02912 ;;      2158 left AOP_REG
                      02913 ;; >>> ../../../../src/pic14/gen.c:2166:genCall
                      02914 ;; ***  popRegFromIdx,1059  , rIdx=0x7f
0024   00??           02915         MOVWF   STK00
                      02916 ;;; ../../../../src/pic14/gen.c:1357:mov2w_op *{*
                      02917 ;; ***  mov2w  1395  offset=1
                      02918 ;; >>> ../../../../src/pic14/gen.c:1400:mov2w
                      02919 ;;      1126 rIdx = r0x1048 
0025   08??           02920         MOVF    r0x1046,W
                      02921 ;; >>> ../../../../src/pic14/gen.c:2207:genCall
0026   0??? 0???      02922         PAGESEL __moduint
                      02923 ;; >>> ../../../../src/pic14/gen.c:2215:genCall
0028   2???           02924         CALL    __moduint
                      02925 ;; >>> ../../../../src/pic14/gen.c:2223:genCall
0029   0??? 0???      02926         PAGESEL $
                      02927 ;;      708 register type nRegs=2
                      02928 ;;; ../../../../src/pic14/gen.c:1929:assignResultValue *{*
                      02929 ;; ***  assignResultValue  1931
                      02930 ;;      line = 1933 result -=-, size=0, left AOP_REG=r0x104F, size=2, right -=-, size=0
                      02931 ;; >>> ../../../../src/pic14/gen.c:1407:movwf
                      02932 ;;      1126 rIdx = r0x1050 
                      02933 ;;1     MOVWF   r0x104E
                      02934 ;; >>> ../../../../src/pic14/gen.c:1437:get_returnvalue
                      02935 ;; ***  popRegFromIdx,1059  , rIdx=0x7f
002B   08??           02936         MOVF    STK00,W
                      02937 ;; >>> ../../../../src/pic14/gen.c:1407:movwf
                      02938 ;;      1126 rIdx = r0x104F 
002C   0??? 0???      02939         BANKSEL r0x104F
002E   00??           02940         MOVWF   r0x104F
002F   00??           02941         MOVWF   r0x1050
                      02942 ;;; ../../../../src/pic14/gen.c:2358:resultRemat *{*
                      02943 ;;; ../../../../src/pic14/gen.c:7159:genAssign *{*
                      02944 ;; ***  genAssign  7160
                      02945 ;;      708 register type nRegs=1
                      02946 ;;      708 register type nRegs=1
                      02947 ;;      line = 7169 result AOP_REG=r0x104F, size=1, left -=-, size=0, right AOP_REG=r0x104C, size=1
                      02948 ;; ***  genAssign  7253
                      02949 ;;; ../../../../src/pic14/gen.c:1357:mov2w_op *{*
                      02950 ;; ***  mov2w  1395  offset=0
                      02951 ;; >>> ../../../../src/pic14/gen.c:1400:mov2w
                      02952 ;;      1126 rIdx = r0x104C 
                      02953         .line   47; "lib/format.c"      buf[i++] = (di < 10 ? (uint8_t)'0' + di : (uint8_t)'A' + di - 10
                            );
0030   08??           02954         MOVF    r0x1061,W
gpasm-1.5.0 #1285 (Jul 12 2020) obj/sdcc-16f8   11/12/23  13:12:31          PAGE 57


LOC    OBJECT CODE    LINE  SOURCE TEXT
  VALUE

                      02955 ;; >>> ../../../../src/pic14/gen.c:7280:genAssign
                      02956 ;;      1126 rIdx = r0x104F 
0031   00??           02957         MOVWF   r0x1051
0032   00??           02958         MOVWF   r0x104F
                      02959 ;;; ../../../../src/pic14/gen.c:2358:resultRemat *{*
                      02960 ;; ***  genPlus  707
                      02961 ;;; ../../../../src/pic14/genarith.c:708:genPlus *{*
                      02962 ;;      708 register type nRegs=1
                      02963 ;;      589
                      02964 ;;      line = 714 result AOP_REG=r0x104C, size=1, left AOP_REG=r0x104C, size=1, right AOP_LIT=0x01, siz
                            e=1
                      02965 ;;; ../../../../src/pic14/genarith.c:159:genPlusIncr *{*
                      02966 ;; ***  genPlusIncr  161
                      02967 ;;      result AOP_REG, left AOP_REG, right AOP_LIT
                      02968 ;;      genPlusIncr  173
                      02969 ;; >>> ../../../../src/pic14/genarith.c:185:genPlusIncr
                      02970 ;;      1126 rIdx = r0x104C 
0033   0A??           02971         INCF    r0x1061,F
                      02972 ;;; ../../../../src/pic14/gen.c:2358:resultRemat *{*
                      02973 ;;; ../../../../src/pic14/gen.c:7353:genCast *{*
                      02974 ;; ***  genCast  7354
                      02975 ;;      708 register type nRegs=1
                      02976 ;;      708 register type nRegs=2
                      02977 ;;      line = 7362 result AOP_REG=r0x1052, size=2, left -=-, size=0, right AOP_REG=r0x104F, size=1
                      02978 ;; >>> ../../../../src/pic14/gen.c:7549:genCast
                      02979 ;;      1126 rIdx = r0x104F 
                      02980 ;;107   MOVF    r0x104F,W
                      02981 ;; >>> ../../../../src/pic14/gen.c:7550:genCast
                      02982 ;;      1126 rIdx = r0x1052 
                      02983 ;; ***  addSign  1087
                      02984 ;;; ../../../../src/pic14/genarith.c:1088:addSign *{*
                      02985 ;; >>> ../../../../src/pic14/genarith.c:1094:addSign
                      02986 ;;      1126 rIdx = r0x1053 
0034   01??           02987         CLRF    r0x1052
                      02988 ;; >>> ../../../../src/pic14/genarith.c:1095:addSign
0035   1B??           02989         BTFSC   r0x1051,7
                      02990 ;; >>> ../../../../src/pic14/genarith.c:1096:addSign
                      02991 ;;      1126 rIdx = r0x1053 
0036   03??           02992         DECF    r0x1052,F
                      02993 ;;; ../../../../src/pic14/gen.c:2358:resultRemat *{*
                      02994 ;; ***  genPlus  707
                      02995 ;;; ../../../../src/pic14/genarith.c:708:genPlus *{*
                      02996 ;;      627
                      02997 ;;      aopForRemat 406
                      02998 ;;      432: rname _format_number_buf_65536_38, val 0, const = 0
                      02999 ;;      708 register type nRegs=2
                      03000 ;;      708 register type nRegs=2
                      03001 ;;      837: aopGet AOP_PCODE type PO_IMMEDIATE
                      03002 ;;      _format_number_buf_65536_38
                      03003 ;;      line = 714 result AOP_REG=r0x1052, size=2, left AOP_PCODE=_format_number_buf_65536_38, size=2, r
                            ight AOP_REG=r0x1052, size=2
                      03004 ;;; ../../../../src/pic14/genarith.c:159:genPlusIncr *{*
                      03005 ;; ***  genPlusIncr  161
gpasm-1.5.0 #1285 (Jul 12 2020) obj/sdcc-16f8   11/12/23  13:12:31          PAGE 58


LOC    OBJECT CODE    LINE  SOURCE TEXT
  VALUE

                      03006 ;;      result AOP_REG, left AOP_PCODE, right AOP_REG
                      03007 ;; ***  genPlus  814
                      03008 ;;      837: aopGet AOP_PCODE type PO_IMMEDIATE
                      03009 ;;      _format_number_buf_65536_38
                      03010 ;; >>> ../../../../src/pic14/genarith.c:823:genPlus
                      03011 ;;      1126 rIdx = r0x1052 
0037   08??           03012         MOVF    r0x1051,W
                      03013 ;; >>> ../../../../src/pic14/genarith.c:832:genPlus
0038   3E??           03014         ADDLW   (_format_number_buf_65536_38 + 0)
                      03015 ;; >>> ../../../../src/pic14/genarith.c:833:genPlus
                      03016 ;;      1126 rIdx = r0x1052 
0039   00??           03017         MOVWF   r0x1051
                      03018 ;; >>> ../../../../src/pic14/genarith.c:880:genPlus
003A   30??           03019         MOVLW   high (_format_number_buf_65536_38 + 0)
                      03020 ;; >>> ../../../../src/pic14/genarith.c:881:genPlus
                      03021 ;;      1126 rIdx = r0x104F 
003B   00??           03022         MOVWF   r0x104F
                      03023 ;; >>> ../../../../src/pic14/genarith.c:883:genPlus
                      03024 ;;      1126 rIdx = r0x1053 
003C   08??           03025         MOVF    r0x1052,W
                      03026 ;; >>> ../../../../src/pic14/genarith.c:884:genPlus
003D   1803           03027         BTFSC   STATUS,0
                      03028 ;; >>> ../../../../src/pic14/genarith.c:885:genPlus
                      03029 ;;      1126 rIdx = r0x1053 
003E   0F??           03030         INCFSZ  r0x1052,W
                      03031 ;; >>> ../../../../src/pic14/genarith.c:886:genPlus
                      03032 ;;      1126 rIdx = r0x104F 
003F   07??           03033         ADDWF   r0x104F,F
                      03034 ;;; ../../../../src/pic14/gen.c:2358:resultRemat *{*
                      03035 ;;; ../../../../src/pic14/gen.c:3652:genCmpLt *{*
                      03036 ;; ***  genCmpLt  3653
                      03037 ;;      708 register type nRegs=1
                      03038 ;;; ../../../../src/pic14/gen.c:3354:genCmp *{*
                      03039 ;;unsigned compare: left < lit(0xA=10), size=1
                      03040 ;; >>> ../../../../src/pic14/gen.c:3325:pic14_mov2w_regOrLit
0040   300A           03041         MOVLW   0x0a
                      03042 ;; >>> ../../../../src/pic14/gen.c:3492:genCmp
                      03043 ;;      1126 rIdx = r0x1051 
0041   02??           03044         SUBWF   r0x1050,W
                      03045 ;;; ../../../../src/pic14/gen.c:3297:genSkipc *{*
                      03046 ;; >>> ../../../../src/pic14/gen.c:3302:genSkipc
0042   1803           03047         BTFSC   STATUS,0
                      03048 ;; >>> ../../../../src/pic14/gen.c:3306:genSkipc
                      03049 ;; ***  popGetLabel  key=15, label offset 8
0043   2???           03050         GOTO    _00123_DS_
                      03051 ;;genSkipc:3307: created from rifx:0x7ffe231841d0
                      03052 ;;; ../../../../src/pic14/gen.c:2358:resultRemat *{*
                      03053 ;;; ../../../../src/pic14/gen.c:2358:resultRemat *{*
                      03054 ;; ***  genPlus  707
                      03055 ;;; ../../../../src/pic14/genarith.c:708:genPlus *{*
                      03056 ;;      708 register type nRegs=1
                      03057 ;;      708 register type nRegs=1
                      03058 ;;      line = 714 result AOP_REG=r0x1053, size=1, left AOP_REG=r0x1051, size=1, right AOP_LIT=0x30, siz
gpasm-1.5.0 #1285 (Jul 12 2020) obj/sdcc-16f8   11/12/23  13:12:31          PAGE 59


LOC    OBJECT CODE    LINE  SOURCE TEXT
  VALUE

                            e=1
                      03059 ;;; ../../../../src/pic14/genarith.c:159:genPlusIncr *{*
                      03060 ;; ***  genPlusIncr  161
                      03061 ;;      result AOP_REG, left AOP_REG, right AOP_LIT
                      03062 ;;      genPlusIncr  173
                      03063 ;;      adding lit to something. size 1
                      03064 ;;; ../../../../src/pic14/genarith.c:286:genAddLit *{*
                      03065 ;; ***  genAddLit  287
                      03066 ;;  left and result aren't same genAddLit  537
                      03067 ;; >>> ../../../../src/pic14/genarith.c:581:genAddLit
0044   3030           03068         MOVLW   0x30
                      03069 ;; >>> ../../../../src/pic14/genarith.c:582:genAddLit
                      03070 ;;      1126 rIdx = r0x1051 
0045   07??           03071         ADDWF   r0x1050,W
                      03072 ;;; ../../../../src/pic14/genarith.c:270:emitMOVWF *{*
                      03073 ;; >>> ../../../../src/pic14/genarith.c:274:emitMOVWF
                      03074 ;;      1126 rIdx = r0x1053 
0046   00??           03075         MOVWF   r0x1052
                      03076 ;; ***  addSign  1087
                      03077 ;;; ../../../../src/pic14/genarith.c:1088:addSign *{*
                      03078 ;;; ../../../../src/pic14/gen.c:2358:resultRemat *{*
                      03079 ;;; ../../../../src/pic14/gen.c:2820:genGoto *{*
                      03080 ;; >>> ../../../../src/pic14/gen.c:2822:genGoto
                      03081 ;; ***  popGetLabel  key=16, label offset 8
0047   2???           03082         GOTO    _00124_DS_
                      03083 ;;; ../../../../src/pic14/gen.c:2358:resultRemat *{*
                      03084 ;;; ../../../../src/pic14/gen.c:2802:genLabel *{*
                      03085 ;; ***  genLabel  2805
                      03086 ;;; ../../../../src/pic14/gen.c:2358:resultRemat *{*
                      03087 ;;; ../../../../src/pic14/gen.c:7353:genCast *{*
                      03088 ;; ***  genCast  7354
                      03089 ;;      708 register type nRegs=1
                      03090 ;;      708 register type nRegs=1
                      03091 ;;      line = 7362 result AOP_REG=r0x1054, size=1, left -=-, size=0, right AOP_REG=r0x1051, size=1
                      03092 ;; ***  genCast  7504
                      03093 ;; >>> ../../../../src/pic14/gen.c:7528:genCast
                      03094 ;;      1126 rIdx = r0x1051 
0048                  03095 _00123_DS_:
0048   0??? 0???      03096         BANKSEL r0x1050
004A   08??           03097         MOVF    r0x1050,W
                      03098 ;; >>> ../../../../src/pic14/gen.c:7529:genCast
                      03099 ;;      1126 rIdx = r0x1054 
004B   00??           03100         MOVWF   r0x1053
                      03101 ;;; ../../../../src/pic14/gen.c:2358:resultRemat *{*
                      03102 ;; ***  genPlus  707
                      03103 ;;; ../../../../src/pic14/genarith.c:708:genPlus *{*
                      03104 ;;      708 register type nRegs=1
                      03105 ;;      708 register type nRegs=1
                      03106 ;;      line = 714 result AOP_REG=r0x1053, size=1, left AOP_REG=r0x1054, size=1, right AOP_LIT=0x37, siz
                            e=1
                      03107 ;;; ../../../../src/pic14/genarith.c:159:genPlusIncr *{*
                      03108 ;; ***  genPlusIncr  161
                      03109 ;;      result AOP_REG, left AOP_REG, right AOP_LIT
gpasm-1.5.0 #1285 (Jul 12 2020) obj/sdcc-16f8   11/12/23  13:12:31          PAGE 60


LOC    OBJECT CODE    LINE  SOURCE TEXT
  VALUE

                      03110 ;;      genPlusIncr  173
                      03111 ;;      adding lit to something. size 1
                      03112 ;;; ../../../../src/pic14/genarith.c:286:genAddLit *{*
                      03113 ;; ***  genAddLit  287
                      03114 ;;  left and result aren't same genAddLit  537
                      03115 ;; >>> ../../../../src/pic14/genarith.c:581:genAddLit
004C   3037           03116         MOVLW   0x37
                      03117 ;; >>> ../../../../src/pic14/genarith.c:582:genAddLit
                      03118 ;;      1126 rIdx = r0x1054 
004D   07??           03119         ADDWF   r0x1053,W
                      03120 ;;; ../../../../src/pic14/genarith.c:270:emitMOVWF *{*
                      03121 ;; >>> ../../../../src/pic14/genarith.c:274:emitMOVWF
                      03122 ;;      1126 rIdx = r0x1053 
004E   00??           03123         MOVWF   r0x1052
                      03124 ;; ***  addSign  1087
                      03125 ;;; ../../../../src/pic14/genarith.c:1088:addSign *{*
                      03126 ;;; ../../../../src/pic14/gen.c:2358:resultRemat *{*
                      03127 ;;; ../../../../src/pic14/gen.c:2802:genLabel *{*
                      03128 ;; ***  genLabel  2805
                      03129 ;;; ../../../../src/pic14/gen.c:2358:resultRemat *{*
                      03130 ;;; ../../../../src/pic14/gen.c:6918:genPointerSet *{*
                      03131 ;; ***  genPointerSet  6919
                      03132 ;;; ../../../../src/pic14/gen.c:6838:genNearPointerSet *{*
                      03133 ;; ***  genNearPointerSet  6839
                      03134 ;;      708 register type nRegs=2
                      03135 ;; ***  genNearPointerSet  6853
                      03136 ;;      708 register type nRegs=1
                      03137 ;;      line = 6855 result AOP_REG=r0x1052, size=2, left -=-, size=0, right AOP_REG=r0x1053, size=1
                      03138 ;;; ../../../../src/pic14/gen.c:1357:mov2w_op *{*
                      03139 ;; ***  mov2w  1395  offset=0
                      03140 ;; >>> ../../../../src/pic14/gen.c:1400:mov2w
                      03141 ;;      1126 rIdx = r0x1052 
004F                  03142 _00124_DS_:
004F   0??? 0???      03143         BANKSEL r0x1051
0051   08??           03144         MOVF    r0x1051,W
                      03145 ;; >>> ../../../../src/pic14/gen.c:5818:setup_fsr
0052   1283 1303      03146         BANKSEL FSR
0054   0084           03147         MOVWF   FSR
                      03148 ;;; ../../../../src/pic14/gen.c:5769:SetIrp *{*
                      03149 ;; >>> ../../../../src/pic14/gen.c:5796:SetIrp
0055   1383           03150         BCF     STATUS,7
                      03151 ;; >>> ../../../../src/pic14/gen.c:5799:SetIrp
0056   0??? 0???      03152         BANKSEL r0x104F
0058   18??           03153         BTFSC   r0x104F,0
                      03154 ;; >>> ../../../../src/pic14/gen.c:5800:SetIrp
0059   1783           03155         BSF     STATUS,7
                      03156 ;; >>> ../../../../src/pic14/gen.c:6605:emitPtrPut
                      03157 ;;      1126 rIdx = r0x1053 
005A   08??           03158         MOVF    r0x1052,W
                      03159 ;; >>> ../../../../src/pic14/gen.c:6606:emitPtrPut
005B   1283 1303      03160         BANKSEL INDF
005D   0080           03161         MOVWF   INDF
                      03162 ;; ***  genNearPointerSet  6872
gpasm-1.5.0 #1285 (Jul 12 2020) obj/sdcc-16f8   11/12/23  13:12:31          PAGE 61


LOC    OBJECT CODE    LINE  SOURCE TEXT
  VALUE

                      03163 ;;; ../../../../src/pic14/gen.c:2358:resultRemat *{*
                      03164 ;;; ../../../../src/pic14/gen.c:2358:resultRemat *{*
                      03165 ;;; ../../../../src/pic14/gen.c:2358:resultRemat *{*
                      03166 ;;; ../../../../src/pic14/gen.c:2108:genCall *{*
                      03167 ;; ***  genCall  2110
                      03168 ;;      708 register type nRegs=2
                      03169 ;;      708 register type nRegs=2
                      03170 ;;      708 register type nRegs=2
                      03171 ;;      2158 left AOP_REG
                      03172 ;;; ../../../../src/pic14/gen.c:1357:mov2w_op *{*
                      03173 ;; ***  mov2w  1395  offset=0
                      03174 ;; >>> ../../../../src/pic14/gen.c:1400:mov2w
                      03175 ;;      1126 rIdx = r0x104D 
                      03176         .line   49; "lib/format.c"      n /= base;
005E   0??? 0???      03177         BANKSEL r0x104C
0060   08??           03178         MOVF    r0x104C,W
                      03179 ;;      2158 left AOP_REG
                      03180 ;; >>> ../../../../src/pic14/gen.c:2166:genCall
                      03181 ;; ***  popRegFromIdx,1059  , rIdx=0x7d
0061   00??           03182         MOVWF   STK02
                      03183 ;;; ../../../../src/pic14/gen.c:1357:mov2w_op *{*
                      03184 ;; ***  mov2w  1395  offset=1
                      03185 ;; >>> ../../../../src/pic14/gen.c:1400:mov2w
                      03186 ;;      1126 rIdx = r0x104E 
0062   08??           03187         MOVF    r0x104D,W
                      03188 ;;      708 register type nRegs=2
                      03189 ;;      2158 left AOP_REG
                      03190 ;; >>> ../../../../src/pic14/gen.c:2166:genCall
                      03191 ;; ***  popRegFromIdx,1059  , rIdx=0x7e
0063   00??           03192         MOVWF   STK01
                      03193 ;;; ../../../../src/pic14/gen.c:1357:mov2w_op *{*
                      03194 ;; ***  mov2w  1395  offset=0
                      03195 ;; >>> ../../../../src/pic14/gen.c:1400:mov2w
                      03196 ;;      1126 rIdx = r0x1047 
0064   08??           03197         MOVF    r0x1047,W
                      03198 ;;      2158 left AOP_REG
                      03199 ;; >>> ../../../../src/pic14/gen.c:2166:genCall
                      03200 ;; ***  popRegFromIdx,1059  , rIdx=0x7f
0065   00??           03201         MOVWF   STK00
                      03202 ;;; ../../../../src/pic14/gen.c:1357:mov2w_op *{*
                      03203 ;; ***  mov2w  1395  offset=1
                      03204 ;; >>> ../../../../src/pic14/gen.c:1400:mov2w
                      03205 ;;      1126 rIdx = r0x1048 
0066   08??           03206         MOVF    r0x1046,W
                      03207 ;; >>> ../../../../src/pic14/gen.c:2207:genCall
0067   0??? 0???      03208         PAGESEL __divuint
                      03209 ;; >>> ../../../../src/pic14/gen.c:2215:genCall
0069   2???           03210         CALL    __divuint
                      03211 ;; >>> ../../../../src/pic14/gen.c:2223:genCall
006A   0??? 0???      03212         PAGESEL $
                      03213 ;;      708 register type nRegs=2
                      03214 ;;; ../../../../src/pic14/gen.c:1929:assignResultValue *{*
                      03215 ;; ***  assignResultValue  1931
gpasm-1.5.0 #1285 (Jul 12 2020) obj/sdcc-16f8   11/12/23  13:12:31          PAGE 62


LOC    OBJECT CODE    LINE  SOURCE TEXT
  VALUE

                      03216 ;;      line = 1933 result -=-, size=0, left AOP_REG=r0x1047, size=2, right -=-, size=0
                      03217 ;; >>> ../../../../src/pic14/gen.c:1407:movwf
                      03218 ;;      1126 rIdx = r0x1048 
006C   0??? 0???      03219         BANKSEL r0x1046
006E   00??           03220         MOVWF   r0x1046
                      03221 ;; >>> ../../../../src/pic14/gen.c:1437:get_returnvalue
                      03222 ;; ***  popRegFromIdx,1059  , rIdx=0x7f
006F   08??           03223         MOVF    STK00,W
                      03224 ;; >>> ../../../../src/pic14/gen.c:1407:movwf
                      03225 ;;      1126 rIdx = r0x1047 
                      03226         .line   50; "lib/format.c"      } while(n > 0);
0070   00??           03227         MOVWF   r0x1047
0071   04??           03228         IORWF   r0x1046,W
0072   1D03           03229         BTFSS   STATUS,2
                      03230 ;; >>> ../../../../src/pic14/gen.c:7041:genIfx
                      03231 ;; ***  popGetLabel  key=3, label offset 8
0073   2???           03232         GOTO    _00111_DS_
                      03233 ;;; ../../../../src/pic14/gen.c:2358:resultRemat *{*
                      03234 ;;; ../../../../src/pic14/gen.c:7159:genAssign *{*
                      03235 ;; ***  genAssign  7160
                      03236 ;;      708 register type nRegs=1
                      03237 ;;      708 register type nRegs=1
                      03238 ;;      line = 7169 result AOP_REG=r0x1047, size=1, left -=-, size=0, right AOP_REG=r0x104C, size=1
                      03239 ;; ***  genAssign  7253
                      03240 ;;; ../../../../src/pic14/gen.c:1357:mov2w_op *{*
                      03241 ;; ***  mov2w  1395  offset=0
                      03242 ;; >>> ../../../../src/pic14/gen.c:1400:mov2w
                      03243 ;;      1126 rIdx = r0x104C 
                      03244         .line   52; "lib/format.c"      while(pad-- > i) buffer_putch(padchar);
0074   08??           03245         MOVF    r0x1061,W
                      03246 ;; >>> ../../../../src/pic14/gen.c:7280:genAssign
                      03247 ;;      1126 rIdx = r0x1047 
0075   00??           03248         MOVWF   r0x1047
                      03249 ;;; ../../../../src/pic14/gen.c:2358:resultRemat *{*
                      03250 ;;; ../../../../src/pic14/gen.c:7159:genAssign *{*
                      03251 ;; ***  genAssign  7160
                      03252 ;;      708 register type nRegs=1
                      03253 ;;      708 register type nRegs=1
                      03254 ;;      line = 7169 result AOP_REG=r0x1048, size=1, left -=-, size=0, right AOP_REG=r0x104A, size=1
                      03255 ;; ***  genAssign  7253
                      03256 ;;; ../../../../src/pic14/gen.c:1357:mov2w_op *{*
                      03257 ;; ***  mov2w  1395  offset=0
                      03258 ;; >>> ../../../../src/pic14/gen.c:1400:mov2w
                      03259 ;;      1126 rIdx = r0x104A 
0076   08??           03260         MOVF    r0x1049,W
                      03261 ;; >>> ../../../../src/pic14/gen.c:7280:genAssign
                      03262 ;;      1126 rIdx = r0x1048 
0077   00??           03263         MOVWF   r0x1046
                      03264 ;;; ../../../../src/pic14/gen.c:2358:resultRemat *{*
                      03265 ;;; ../../../../src/pic14/gen.c:2802:genLabel *{*
                      03266 ;; ***  genLabel  2805
                      03267 ;;; ../../../../src/pic14/gen.c:2358:resultRemat *{*
                      03268 ;;; ../../../../src/pic14/gen.c:3616:genCmpGt *{*
gpasm-1.5.0 #1285 (Jul 12 2020) obj/sdcc-16f8   11/12/23  13:12:31          PAGE 63


LOC    OBJECT CODE    LINE  SOURCE TEXT
  VALUE

                      03269 ;; ***  genCmpGt  3617
                      03270 ;;      708 register type nRegs=1
                      03271 ;;      708 register type nRegs=1
                      03272 ;;; ../../../../src/pic14/gen.c:3354:genCmp *{*
                      03273 ;; ***  mov2w  1395  offset=0
                      03274 ;; >>> ../../../../src/pic14/gen.c:1400:mov2w
                      03275 ;;      1126 rIdx = r0x1047 
0078                  03276 _00114_DS_:
0078   0??? 0???      03277         BANKSEL r0x1047
007A   08??           03278         MOVF    r0x1047,W
                      03279 ;; >>> ../../../../src/pic14/gen.c:3522:genCmp
007B   3E80           03280         ADDLW   0x80
                      03281 ;; >>> ../../../../src/pic14/gen.c:3523:genCmp
007C   00??           03282         MOVWF   r0x1054
                      03283 ;; ***  mov2w  1395  offset=0
                      03284 ;; >>> ../../../../src/pic14/gen.c:1400:mov2w
                      03285 ;;      1126 rIdx = r0x1048 
007D   08??           03286         MOVF    r0x1046,W
                      03287 ;; >>> ../../../../src/pic14/gen.c:3525:genCmp
007E   3E80           03288         ADDLW   0x80
                      03289 ;; >>> ../../../../src/pic14/gen.c:3526:genCmp
007F   02??           03290         SUBWF   r0x1054,W
                      03291 ;;; ../../../../src/pic14/gen.c:3297:genSkipc *{*
                      03292 ;; >>> ../../../../src/pic14/gen.c:3302:genSkipc
0080   1803           03293         BTFSC   STATUS,0
                      03294 ;; >>> ../../../../src/pic14/gen.c:3306:genSkipc
                      03295 ;; ***  popGetLabel  key=8, label offset 8
0081   2???           03296         GOTO    _00116_DS_
                      03297 ;;genSkipc:3307: created from rifx:0x7ffe231841d0
                      03298 ;;; ../../../../src/pic14/gen.c:2358:resultRemat *{*
                      03299 ;;; ../../../../src/pic14/gen.c:2358:resultRemat *{*
                      03300 ;;; ../../../../src/pic14/gen.c:7568:genDjnz *{*
                      03301 ;; ***  genDjnz  7569
                      03302 ;;; ../../../../src/pic14/genarith.c:1122:genMinus *{*
                      03303 ;; ***  genMinus  1123
                      03304 ;;      708 register type nRegs=1
                      03305 ;;      589
                      03306 ;;      result AOP_REG, left AOP_REG, right AOP_LIT
                      03307 ;;; ../../../../src/pic14/genarith.c:286:genAddLit *{*
                      03308 ;; ***  genAddLit  287
                      03309 ;;; ../../../../src/pic14/genarith.c:250:genAddLit2byte *{*
                      03310 ;; >>> ../../../../src/pic14/genarith.c:259:genAddLit2byte
                      03311 ;;      1126 rIdx = r0x1048 
0082   03??           03312         DECF    r0x1046,F
                      03313 ;; ***  addSign  1087
                      03314 ;;; ../../../../src/pic14/genarith.c:1088:addSign *{*
                      03315 ;;; ../../../../src/pic14/gen.c:2358:resultRemat *{*
                      03316 ;;; ../../../../src/pic14/gen.c:2358:resultRemat *{*
                      03317 ;;; ../../../../src/pic14/gen.c:2108:genCall *{*
                      03318 ;; ***  genCall  2110
                      03319 ;;      708 register type nRegs=1
                      03320 ;;      708 register type nRegs=1
                      03321 ;;      2158 left AOP_REG
gpasm-1.5.0 #1285 (Jul 12 2020) obj/sdcc-16f8   11/12/23  13:12:31          PAGE 64


LOC    OBJECT CODE    LINE  SOURCE TEXT
  VALUE

                      03322 ;;; ../../../../src/pic14/gen.c:1357:mov2w_op *{*
                      03323 ;; ***  mov2w  1395  offset=0
                      03324 ;; >>> ../../../../src/pic14/gen.c:1400:mov2w
                      03325 ;;      1126 rIdx = r0x104B 
0083   08??           03326         MOVF    r0x104A,W
                      03327 ;; >>> ../../../../src/pic14/gen.c:2207:genCall
0084   0??? 0???      03328         PAGESEL _buffer_putch
                      03329 ;; >>> ../../../../src/pic14/gen.c:2215:genCall
0086   2???           03330         CALL    _buffer_putch
                      03331 ;; >>> ../../../../src/pic14/gen.c:2223:genCall
0087   0??? 0???      03332         PAGESEL $
                      03333 ;;; ../../../../src/pic14/gen.c:2358:resultRemat *{*
                      03334 ;;; ../../../../src/pic14/gen.c:2820:genGoto *{*
                      03335 ;; >>> ../../../../src/pic14/gen.c:2822:genGoto
                      03336 ;; ***  popGetLabel  key=6, label offset 8
0089   2???           03337         GOTO    _00114_DS_
                      03338 ;;; ../../../../src/pic14/gen.c:2358:resultRemat *{*
                      03339 ;;; ../../../../src/pic14/gen.c:2802:genLabel *{*
                      03340 ;; ***  genLabel  2805
                      03341 ;;; ../../../../src/pic14/gen.c:2358:resultRemat *{*
                      03342 ;;; ../../../../src/pic14/gen.c:7159:genAssign *{*
                      03343 ;; ***  genAssign  7160
                      03344 ;;      708 register type nRegs=2
                      03345 ;;      line = 7169 result AOP_REG=r0x1048, size=2, left -=-, size=0, right AOP_LIT=0x00, size=2
                      03346 ;; ***  genAssign  7253
                      03347 ;; >>> ../../../../src/pic14/gen.c:7265:genAssign
                      03348 ;;      1126 rIdx = r0x1048 
008A                  03349 _00116_DS_:
                      03350         .line   54; "lib/format.c"      for(unsigned j = 0; j < i; j++) (*fn)(buf[j]);
008A   0??? 0???      03351         BANKSEL r0x1046
008C   01??           03352         CLRF    r0x1046
                      03353 ;; ***  genAssign  7253
                      03354 ;; >>> ../../../../src/pic14/gen.c:7265:genAssign
                      03355 ;;      1126 rIdx = r0x1049 
008D   01??           03356         CLRF    r0x1048
                      03357 ;;; ../../../../src/pic14/gen.c:2358:resultRemat *{*
                      03358 ;;; ../../../../src/pic14/gen.c:2802:genLabel *{*
                      03359 ;; ***  genLabel  2805
                      03360 ;;; ../../../../src/pic14/gen.c:2358:resultRemat *{*
                      03361 ;;; ../../../../src/pic14/gen.c:7353:genCast *{*
                      03362 ;; ***  genCast  7354
                      03363 ;;      708 register type nRegs=1
                      03364 ;;      708 register type nRegs=2
                      03365 ;;      line = 7362 result AOP_REG=r0x104A, size=2, left -=-, size=0, right AOP_REG=r0x1047, size=1
                      03366 ;; >>> ../../../../src/pic14/gen.c:7549:genCast
                      03367 ;;      1126 rIdx = r0x1047 
008E                  03368 _00119_DS_:
008E   0??? 0???      03369         BANKSEL r0x1047
0090   08??           03370         MOVF    r0x1047,W
                      03371 ;; >>> ../../../../src/pic14/gen.c:7550:genCast
                      03372 ;;      1126 rIdx = r0x104A 
0091   00??           03373         MOVWF   r0x1049
                      03374 ;; ***  addSign  1087
gpasm-1.5.0 #1285 (Jul 12 2020) obj/sdcc-16f8   11/12/23  13:12:31          PAGE 65


LOC    OBJECT CODE    LINE  SOURCE TEXT
  VALUE

                      03375 ;;; ../../../../src/pic14/genarith.c:1088:addSign *{*
                      03376 ;; >>> ../../../../src/pic14/genarith.c:1094:addSign
                      03377 ;;      1126 rIdx = r0x104B 
0092   01??           03378         CLRF    r0x104A
                      03379 ;; >>> ../../../../src/pic14/genarith.c:1095:addSign
0093   1B??           03380         BTFSC   r0x1049,7
                      03381 ;; >>> ../../../../src/pic14/genarith.c:1096:addSign
                      03382 ;;      1126 rIdx = r0x104B 
0094   03??           03383         DECF    r0x104A,F
                      03384 ;;; ../../../../src/pic14/gen.c:2358:resultRemat *{*
                      03385 ;;; ../../../../src/pic14/gen.c:3652:genCmpLt *{*
                      03386 ;; ***  genCmpLt  3653
                      03387 ;;      708 register type nRegs=2
                      03388 ;;      708 register type nRegs=2
                      03389 ;;; ../../../../src/pic14/gen.c:3354:genCmp *{*
                      03390 ;; >>> ../../../../src/pic14/gen.c:3329:pic14_mov2w_regOrLit
                      03391 ;;      1126 rIdx = r0x104B 
0095   08??           03392         MOVF    r0x104A,W
                      03393 ;; >>> ../../../../src/pic14/gen.c:3492:genCmp
                      03394 ;;      1126 rIdx = r0x1049 
0096   02??           03395         SUBWF   r0x1048,W
                      03396 ;; >>> ../../../../src/pic14/gen.c:3537:genCmp
0097   1D03           03397         BTFSS   STATUS,2
                      03398 ;; >>> ../../../../src/pic14/gen.c:3545:genCmp
                      03399 ;; ***  popGetLabel  key=53, label offset 8
0098   2???           03400         GOTO    _00161_DS_
                      03401 ;; >>> ../../../../src/pic14/gen.c:3329:pic14_mov2w_regOrLit
                      03402 ;;      1126 rIdx = r0x104A 
0099   08??           03403         MOVF    r0x1049,W
                      03404 ;; >>> ../../../../src/pic14/gen.c:3549:genCmp
                      03405 ;;      1126 rIdx = r0x1048 
009A   02??           03406         SUBWF   r0x1046,W
                      03407 ;;; ../../../../src/pic14/gen.c:3297:genSkipc *{*
                      03408 ;; >>> ../../../../src/pic14/gen.c:3302:genSkipc
009B                  03409 _00161_DS_:
009B   1803           03410         BTFSC   STATUS,0
                      03411 ;; >>> ../../../../src/pic14/gen.c:3306:genSkipc
                      03412 ;; ***  popGetLabel  key=13, label offset 8
009C   2???           03413         GOTO    _00121_DS_
                      03414 ;;genSkipc:3307: created from rifx:0x7ffe231841d0
                      03415 ;;; ../../../../src/pic14/gen.c:2358:resultRemat *{*
                      03416 ;;; ../../../../src/pic14/gen.c:2358:resultRemat *{*
                      03417 ;; ***  genPlus  707
                      03418 ;;; ../../../../src/pic14/genarith.c:708:genPlus *{*
                      03419 ;;      627
                      03420 ;;      aopForRemat 406
                      03421 ;;      432: rname _format_number_buf_65536_38, val 0, const = 0
                      03422 ;;      708 register type nRegs=2
                      03423 ;;      708 register type nRegs=2
                      03424 ;;      837: aopGet AOP_PCODE type PO_IMMEDIATE
                      03425 ;;      _format_number_buf_65536_38
                      03426 ;;      line = 714 result AOP_REG=r0x104A, size=2, left AOP_PCODE=_format_number_buf_65536_38, size=2, r
                            ight AOP_REG=r0x1048, size=2
gpasm-1.5.0 #1285 (Jul 12 2020) obj/sdcc-16f8   11/12/23  13:12:31          PAGE 66


LOC    OBJECT CODE    LINE  SOURCE TEXT
  VALUE

                      03427 ;;; ../../../../src/pic14/genarith.c:159:genPlusIncr *{*
                      03428 ;; ***  genPlusIncr  161
                      03429 ;;      result AOP_REG, left AOP_PCODE, right AOP_REG
                      03430 ;; ***  genPlus  814
                      03431 ;;      837: aopGet AOP_PCODE type PO_IMMEDIATE
                      03432 ;;      _format_number_buf_65536_38
                      03433 ;; >>> ../../../../src/pic14/genarith.c:823:genPlus
                      03434 ;;      1126 rIdx = r0x1048 
009D   0??? 0???      03435         BANKSEL r0x1046
009F   08??           03436         MOVF    r0x1046,W
                      03437 ;; >>> ../../../../src/pic14/genarith.c:832:genPlus
00A0   3E??           03438         ADDLW   (_format_number_buf_65536_38 + 0)
                      03439 ;; >>> ../../../../src/pic14/genarith.c:833:genPlus
                      03440 ;;      1126 rIdx = r0x104A 
00A1   00??           03441         MOVWF   r0x1049
                      03442 ;; >>> ../../../../src/pic14/genarith.c:880:genPlus
00A2   30??           03443         MOVLW   high (_format_number_buf_65536_38 + 0)
                      03444 ;; >>> ../../../../src/pic14/genarith.c:881:genPlus
                      03445 ;;      1126 rIdx = r0x104B 
00A3   00??           03446         MOVWF   r0x104A
                      03447 ;; >>> ../../../../src/pic14/genarith.c:883:genPlus
                      03448 ;;      1126 rIdx = r0x1049 
00A4   08??           03449         MOVF    r0x1048,W
                      03450 ;; >>> ../../../../src/pic14/genarith.c:884:genPlus
00A5   1803           03451         BTFSC   STATUS,0
                      03452 ;; >>> ../../../../src/pic14/genarith.c:885:genPlus
                      03453 ;;      1126 rIdx = r0x1049 
00A6   0F??           03454         INCFSZ  r0x1048,W
                      03455 ;; >>> ../../../../src/pic14/genarith.c:886:genPlus
                      03456 ;;      1126 rIdx = r0x104B 
00A7   07??           03457         ADDWF   r0x104A,F
                      03458 ;;; ../../../../src/pic14/gen.c:2358:resultRemat *{*
                      03459 ;;; ../../../../src/pic14/gen.c:6366:genPointerGet *{*
                      03460 ;; ***  genPointerGet  6367
                      03461 ;;; ../../../../src/pic14/gen.c:6252:genNearPointerGet *{*
                      03462 ;; ***  genNearPointerGet  6253
                      03463 ;;      708 register type nRegs=2
                      03464 ;; ***  genNearPointerGet  6269
                      03465 ;;      708 register type nRegs=1
                      03466 ;;; ../../../../src/pic14/gen.c:1357:mov2w_op *{*
                      03467 ;; ***  mov2w  1395  offset=0
                      03468 ;; >>> ../../../../src/pic14/gen.c:1400:mov2w
                      03469 ;;      1126 rIdx = r0x104A 
00A8   08??           03470         MOVF    r0x1049,W
                      03471 ;; >>> ../../../../src/pic14/gen.c:5818:setup_fsr
00A9   1283 1303      03472         BANKSEL FSR
00AB   0084           03473         MOVWF   FSR
                      03474 ;;; ../../../../src/pic14/gen.c:5769:SetIrp *{*
                      03475 ;; >>> ../../../../src/pic14/gen.c:5796:SetIrp
00AC   1383           03476         BCF     STATUS,7
                      03477 ;; >>> ../../../../src/pic14/gen.c:5799:SetIrp
00AD   0??? 0???      03478         BANKSEL r0x104A
00AF   18??           03479         BTFSC   r0x104A,0
gpasm-1.5.0 #1285 (Jul 12 2020) obj/sdcc-16f8   11/12/23  13:12:31          PAGE 67


LOC    OBJECT CODE    LINE  SOURCE TEXT
  VALUE

                      03480 ;; >>> ../../../../src/pic14/gen.c:5800:SetIrp
00B0   1783           03481         BSF     STATUS,7
                      03482 ;; >>> ../../../../src/pic14/gen.c:6027:emitPtrGet
00B1   1283 1303      03483         BANKSEL INDF
00B3   0800           03484         MOVF    INDF,W
                      03485 ;; >>> ../../../../src/pic14/gen.c:1407:movwf
                      03486 ;;      1126 rIdx = r0x104C 
00B4   0??? 0???      03487         BANKSEL r0x1061
00B6   00??           03488         MOVWF   r0x1061
                      03489 ;;; ../../../../src/pic14/gen.c:2358:resultRemat *{*
                      03490 ;;; ../../../../src/pic14/gen.c:2358:resultRemat *{*
                      03491 ;;; ../../../../src/pic14/gen.c:2265:genPcall *{*
                      03492 ;; ***  genPcall  2267
                      03493 ;;      708 register type nRegs=2
                      03494 ;;      line = 2281 result -=-, size=0, left AOP_REG=r0x1045, size=2, right -=-, size=0
                      03495 ;; ***  genPcall  2290 - WARNING arg-passing to indirect call not supported
                      03496 ;; >>> ../../../../src/pic14/gen.c:2310:genPcall
                      03497 ;; ***  popGetLabel  key=54, label offset 8
00B7   2???           03498         CALL    _00162_DS_
                      03499 ;; ***  popGetLabel  key=55, label offset 8
                      03500 ;; >>> ../../../../src/pic14/gen.c:2312:genPcall
00B8   0??? 0???      03501         PAGESEL _00163_DS_
                      03502 ;; >>> ../../../../src/pic14/gen.c:2313:genPcall
00BA   2???           03503         GOTO    _00163_DS_
                      03504 ;; >>> ../../../../src/pic14/gen.c:2316:genPcall
                      03505 ;;      1126 rIdx = r0x1046 
00BB                  03506 _00162_DS_:
00BB   0??? 0???      03507         BANKSEL r0x1044
00BD   08??           03508         MOVF    r0x1044,W
                      03509 ;; >>> ../../../../src/pic14/gen.c:2317:genPcall
00BE   1283 1303      03510         BANKSEL PCLATH
00C0   008A           03511         MOVWF   PCLATH
                      03512 ;; >>> ../../../../src/pic14/gen.c:2318:genPcall
                      03513 ;;      1126 rIdx = r0x1045 
00C1   0??? 0???      03514         BANKSEL r0x1045
00C3   08??           03515         MOVF    r0x1045,W
                      03516 ;; >>> ../../../../src/pic14/gen.c:2319:genPcall
00C4   1283 1303      03517         BANKSEL PCL
00C6   0082           03518         MOVWF   PCL
                      03519 ;;; ../../../../src/pic14/gen.c:2358:resultRemat *{*
                      03520 ;; ***  genPlus  707
                      03521 ;;; ../../../../src/pic14/genarith.c:708:genPlus *{*
                      03522 ;;      708 register type nRegs=2
                      03523 ;;      589
                      03524 ;;      line = 714 result AOP_REG=r0x1048, size=2, left AOP_REG=r0x1048, size=2, right AOP_LIT=0x01, siz
                            e=1
                      03525 ;;; ../../../../src/pic14/genarith.c:159:genPlusIncr *{*
                      03526 ;; ***  genPlusIncr  161
                      03527 ;;      result AOP_REG, left AOP_REG, right AOP_LIT
                      03528 ;;      genPlusIncr  173
                      03529 ;; >>> ../../../../src/pic14/genarith.c:185:genPlusIncr
                      03530 ;;      1126 rIdx = r0x1048 
00C7                  03531 _00163_DS_:
gpasm-1.5.0 #1285 (Jul 12 2020) obj/sdcc-16f8   11/12/23  13:12:31          PAGE 68


LOC    OBJECT CODE    LINE  SOURCE TEXT
  VALUE

00C7   0??? 0???      03532         BANKSEL r0x1046
00C9   0A??           03533         INCF    r0x1046,F
                      03534 ;; >>> ../../../../src/pic14/genarith.c:189:genPlusIncr
00CA   1903           03535         BTFSC   STATUS,2
                      03536 ;; >>> ../../../../src/pic14/genarith.c:190:genPlusIncr
                      03537 ;;      1126 rIdx = r0x1049 
00CB   0A??           03538         INCF    r0x1048,F
                      03539 ;;; ../../../../src/pic14/gen.c:2358:resultRemat *{*
                      03540 ;;; ../../../../src/pic14/gen.c:2820:genGoto *{*
                      03541 ;; >>> ../../../../src/pic14/gen.c:2822:genGoto
                      03542 ;; ***  popGetLabel  key=11, label offset 8
00CC   2???           03543         GOTO    _00119_DS_
                      03544 ;;; ../../../../src/pic14/gen.c:2358:resultRemat *{*
                      03545 ;;; ../../../../src/pic14/gen.c:2802:genLabel *{*
                      03546 ;; ***  genLabel  2805
                      03547 ;;; ../../../../src/pic14/gen.c:2358:resultRemat *{*
                      03548 ;;; ../../../../src/pic14/gen.c:2570:genEndFunction *{*
                      03549 ;; ***  genEndFunction  2572
00CD                  03550 _00121_DS_:
                      03551         .line   56; "lib/format.c"      }
00CD   0008           03552         RETURN  
                      03553 ; exit point of _format_number
                      03554 ;;; ../../../../src/pic14/gen.c:7677:genpic14Code *{*
                      03555 
                      03556 ;***
                      03557 ;  pBlock Stats: dbName = C
                      03558 ;***
                      03559 ;has an exit
                      03560 ;; Starting pCode block
                      03561 ;;; ../../../../src/pic14/gen.c:2358:resultRemat *{*
                      03562 ;;; ../../../../src/pic14/gen.c:2802:genLabel *{*
                      03563 ;; ***  genLabel  2805
                      03564 ;;; ../../../../src/pic14/gen.c:2358:resultRemat *{*
                      03565 ;;; ../../../../src/pic14/gen.c:2382:genFunction *{*
                      03566 ;; ***  genFunction  2384 curr label offset=0previous max_key=0 
                      03567 S_format__format_putchar        code
0000                  03568 _format_putchar:
                      03569 ; 2 exit points
                      03570 ;;; ../../../../src/pic14/gen.c:2358:resultRemat *{*
                      03571 ;;; ../../../../src/pic14/gen.c:2725:genRet *{*
                      03572 ;; ***  genRet  2727
                      03573 ;;; ../../../../src/pic14/gen.c:2358:resultRemat *{*
                      03574 ;;; ../../../../src/pic14/gen.c:2802:genLabel *{*
                      03575 ;; ***  genLabel  2805
                      03576 ;;; ../../../../src/pic14/gen.c:2358:resultRemat *{*
                      03577 ;;; ../../../../src/pic14/gen.c:2570:genEndFunction *{*
                      03578 ;; ***  genEndFunction  2572
                      03579         .line   20; "lib/format.c"      }
0000   0008           03580         RETURN  
                      03581 ; exit point of _format_putchar
                      03582 ;;; ../../../../src/pic14/gen.c:7677:genpic14Code *{*
                      03583 
                      03584 
gpasm-1.5.0 #1285 (Jul 12 2020) obj/sdcc-16f8   11/12/23  13:12:31          PAGE 69


LOC    OBJECT CODE    LINE  SOURCE TEXT
  VALUE

                      03585 ;       code size estimation:
                      03586 ;         638+  142 =   780 instructions ( 1844 byte)
                      03587 
                      03588         end
gpasm-1.5.0 #1285 (Jul 12 2020) obj/sdcc-16f8   11/12/23  13:12:31          PAGE 70


SYMBOL TABLE
  LABEL                              TYPE        VALUE         VALUE          VALUE
                                                 (hex)         (dec)          (text)

ACKDT                             CONSTANT      00000005              5
ACKEN                             CONSTANT      00000004              4
ACKSTAT                           CONSTANT      00000006              6
ADCON0                            CONSTANT      0000001F             31
ADCON1                            CONSTANT      0000009F            159
ADCS0                             CONSTANT      00000006              6
ADCS1                             CONSTANT      00000007              7
ADCS2                             CONSTANT      00000006              6
ADDEN                             CONSTANT      00000003              3
ADFM                              CONSTANT      00000007              7
ADIE                              CONSTANT      00000006              6
ADIF                              CONSTANT      00000006              6
ADON                              CONSTANT      00000000              0
ADRESH                            CONSTANT      0000001E             30
ADRESL                            CONSTANT      0000009E            158
BCLIE                             CONSTANT      00000003              3
BCLIF                             CONSTANT      00000003              3
BF                                CONSTANT      00000000              0
BRGH                              CONSTANT      00000002              2
C                                 CONSTANT      00000000              0
CCPR1                             CONSTANT      00000015             21
CCPR1H                            CONSTANT      00000016             22
CCPR1L                            CONSTANT      00000015             21
CCPR2                             CONSTANT      0000001B             27
CCPR2H                            CONSTANT      0000001C             28
CCPR2L                            CONSTANT      0000001B             27
CCP1CON                           CONSTANT      00000017             23
CCP1IE                            CONSTANT      00000002              2
CCP1IF                            CONSTANT      00000002              2
CCP1M0                            CONSTANT      00000000              0
CCP1M1                            CONSTANT      00000001              1
CCP1M2                            CONSTANT      00000002              2
CCP1M3                            CONSTANT      00000003              3
CCP1X                             CONSTANT      00000005              5
CCP1Y                             CONSTANT      00000004              4
CCP2CON                           CONSTANT      0000001D             29
CCP2IE                            CONSTANT      00000000              0
CCP2IF                            CONSTANT      00000000              0
CCP2M0                            CONSTANT      00000000              0
CCP2M1                            CONSTANT      00000001              1
CCP2M2                            CONSTANT      00000002              2
CCP2M3                            CONSTANT      00000003              3
CCP2X                             CONSTANT      00000005              5
CCP2Y                             CONSTANT      00000004              4
CHS0                              CONSTANT      00000003              3
CHS1                              CONSTANT      00000004              4
CHS2                              CONSTANT      00000005              5
CIS                               CONSTANT      00000003              3
CKE                               CONSTANT      00000006              6
CKP                               CONSTANT      00000004              4
CM0                               CONSTANT      00000000              0
CMCON                             CONSTANT      0000009C            156
gpasm-1.5.0 #1285 (Jul 12 2020) obj/sdcc-16f8   11/12/23  13:12:31          PAGE 71


SYMBOL TABLE
  LABEL                              TYPE        VALUE         VALUE          VALUE
                                                 (hex)         (dec)          (text)

CMIE                              CONSTANT      00000006              6
CMIF                              CONSTANT      00000006              6
CM1                               CONSTANT      00000001              1
CM2                               CONSTANT      00000002              2
CREN                              CONSTANT      00000004              4
CSRC                              CONSTANT      00000007              7
CVR0                              CONSTANT      00000000              0
CVRCON                            CONSTANT      0000009D            157
CVREN                             CONSTANT      00000007              7
CVROE                             CONSTANT      00000006              6
CVRR                              CONSTANT      00000005              5
CVR1                              CONSTANT      00000001              1
CVR2                              CONSTANT      00000002              2
CVR3                              CONSTANT      00000003              3
C1INV                             CONSTANT      00000004              4
C1OUT                             CONSTANT      00000006              6
C2INV                             CONSTANT      00000005              5
C2OUT                             CONSTANT      00000007              7
D                                 CONSTANT      00000005              5
DATA_ADDRESS                      CONSTANT      00000005              5
DC                                CONSTANT      00000001              1
D_A                               CONSTANT      00000005              5
D_NOT_A                           CONSTANT      00000005              5
EEADR                             CONSTANT      0000010D            269
EEADRH                            CONSTANT      0000010F            271
EECON1                            CONSTANT      0000018C            396
EECON2                            CONSTANT      0000018D            397
EEDATA                            CONSTANT      0000010C            268
EEDATH                            CONSTANT      0000010E            270
EEIE                              CONSTANT      00000004              4
EEIF                              CONSTANT      00000004              4
EEPGD                             CONSTANT      00000007              7
F                                 CONSTANT      00000001              1
FERR                              CONSTANT      00000002              2
FSR                               CONSTANT      00000004              4
GCEN                              CONSTANT      00000007              7
GIE                               CONSTANT      00000007              7
GO                                CONSTANT      00000002              2
GO_DONE                           CONSTANT      00000002              2
GO_NOT_DONE                       CONSTANT      00000002              2
INDF                              CONSTANT      00000000              0
INTCON                            CONSTANT      0000000B             11
INTE                              CONSTANT      00000004              4
INTEDG                            CONSTANT      00000006              6
INTF                              CONSTANT      00000001              1
IRP                               CONSTANT      00000007              7
I2C_DATA                          CONSTANT      00000005              5
I2C_READ                          CONSTANT      00000002              2
I2C_START                         CONSTANT      00000003              3
I2C_STOP                          CONSTANT      00000004              4
NOT_A                             CONSTANT      00000005              5
NOT_ADDRESS                       CONSTANT      00000005              5
gpasm-1.5.0 #1285 (Jul 12 2020) obj/sdcc-16f8   11/12/23  13:12:31          PAGE 72


SYMBOL TABLE
  LABEL                              TYPE        VALUE         VALUE          VALUE
                                                 (hex)         (dec)          (text)

NOT_BO                            CONSTANT      00000000              0
NOT_BOR                           CONSTANT      00000000              0
NOT_DONE                          CONSTANT      00000002              2
NOT_PD                            CONSTANT      00000003              3
NOT_POR                           CONSTANT      00000001              1
NOT_RBPU                          CONSTANT      00000007              7
NOT_RC8                           CONSTANT      00000006              6
NOT_TO                            CONSTANT      00000004              4
NOT_TX8                           CONSTANT      00000006              6
NOT_T1SYNC                        CONSTANT      00000002              2
NOT_W                             CONSTANT      00000002              2
NOT_WRITE                         CONSTANT      00000002              2
OERR                              CONSTANT      00000001              1
OPTION_REG                        CONSTANT      00000081            129
P                                 CONSTANT      00000004              4
PCFG0                             CONSTANT      00000000              0
PCFG1                             CONSTANT      00000001              1
PCFG2                             CONSTANT      00000002              2
PCFG3                             CONSTANT      00000003              3
PCL                               CONSTANT      00000002              2
PCLATH                            CONSTANT      0000000A             10
PCON                              CONSTANT      0000008E            142
PEIE                              CONSTANT      00000006              6
PEN                               CONSTANT      00000002              2
PIE1                              CONSTANT      0000008C            140
PIE2                              CONSTANT      0000008D            141
PIR1                              CONSTANT      0000000C             12
PIR2                              CONSTANT      0000000D             13
PORTA                             CONSTANT      00000005              5
PORTB                             CONSTANT      00000006              6
PORTC                             CONSTANT      00000007              7
PR2                               CONSTANT      00000092            146
PS0                               CONSTANT      00000000              0
PSA                               CONSTANT      00000003              3
PSAVE                             EXTERNAL      00000000              0
PS1                               CONSTANT      00000001              1
PS2                               CONSTANT      00000002              2
R                                 CONSTANT      00000002              2
RA0                               CONSTANT      00000000              0
RA1                               CONSTANT      00000001              1
RA2                               CONSTANT      00000002              2
RA3                               CONSTANT      00000003              3
RA4                               CONSTANT      00000004              4
RA5                               CONSTANT      00000005              5
RB0                               CONSTANT      00000000              0
RBIE                              CONSTANT      00000003              3
RBIF                              CONSTANT      00000000              0
RB1                               CONSTANT      00000001              1
RB2                               CONSTANT      00000002              2
RB3                               CONSTANT      00000003              3
RB4                               CONSTANT      00000004              4
RB5                               CONSTANT      00000005              5
gpasm-1.5.0 #1285 (Jul 12 2020) obj/sdcc-16f8   11/12/23  13:12:31          PAGE 73


SYMBOL TABLE
  LABEL                              TYPE        VALUE         VALUE          VALUE
                                                 (hex)         (dec)          (text)

RB6                               CONSTANT      00000006              6
RB7                               CONSTANT      00000007              7
RC0                               CONSTANT      00000000              0
RCD8                              CONSTANT      00000000              0
RCEN                              CONSTANT      00000003              3
RCIE                              CONSTANT      00000005              5
RCIF                              CONSTANT      00000005              5
RCREG                             CONSTANT      0000001A             26
RCSTA                             CONSTANT      00000018             24
RC1                               CONSTANT      00000001              1
RC2                               CONSTANT      00000002              2
RC3                               CONSTANT      00000003              3
RC4                               CONSTANT      00000004              4
RC5                               CONSTANT      00000005              5
RC6                               CONSTANT      00000006              6
RC7                               CONSTANT      00000007              7
RC8_9                             CONSTANT      00000006              6
RC9                               CONSTANT      00000006              6
RD                                CONSTANT      00000000              0
READ_WRITE                        CONSTANT      00000002              2
RP0                               CONSTANT      00000005              5
RP1                               CONSTANT      00000006              6
RSEN                              CONSTANT      00000001              1
RX9                               CONSTANT      00000006              6
RX9D                              CONSTANT      00000000              0
R_NOT_W                           CONSTANT      00000002              2
R_W                               CONSTANT      00000002              2
S                                 CONSTANT      00000003              3
SEN                               CONSTANT      00000000              0
SMP                               CONSTANT      00000007              7
SPBRG                             CONSTANT      00000099            153
SPEN                              CONSTANT      00000007              7
SREN                              CONSTANT      00000005              5
SSAVE                             EXTERNAL      00000000              0
SSPADD                            CONSTANT      00000093            147
SSPBUF                            CONSTANT      00000013             19
SSPCON                            CONSTANT      00000014             20
SSPCON2                           CONSTANT      00000091            145
SSPEN                             CONSTANT      00000005              5
SSPIE                             CONSTANT      00000003              3
SSPIF                             CONSTANT      00000003              3
SSPM0                             CONSTANT      00000000              0
SSPM1                             CONSTANT      00000001              1
SSPM2                             CONSTANT      00000002              2
SSPM3                             CONSTANT      00000003              3
SSPOV                             CONSTANT      00000006              6
SSPSTAT                           CONSTANT      00000094            148
STATUS                            CONSTANT      00000003              3
STK00                             EXTERNAL      00000000              0
STK01                             EXTERNAL      00000000              0
STK02                             EXTERNAL      00000000              0
STK03                             EXTERNAL      00000000              0
gpasm-1.5.0 #1285 (Jul 12 2020) obj/sdcc-16f8   11/12/23  13:12:31          PAGE 74


SYMBOL TABLE
  LABEL                              TYPE        VALUE         VALUE          VALUE
                                                 (hex)         (dec)          (text)

STK04                             EXTERNAL      00000000              0
STK05                             EXTERNAL      00000000              0
STK06                             EXTERNAL      00000000              0
STK07                             EXTERNAL      00000000              0
STK08                             EXTERNAL      00000000              0
STK09                             EXTERNAL      00000000              0
STK10                             EXTERNAL      00000000              0
STK11                             EXTERNAL      00000000              0
STK12                             EXTERNAL      00000000              0
SYNC                              CONSTANT      00000004              4
T0CS                              CONSTANT      00000005              5
T0IE                              CONSTANT      00000005              5
T0IF                              CONSTANT      00000002              2
T0SE                              CONSTANT      00000004              4
TMR0                              CONSTANT      00000001              1
TMR0IE                            CONSTANT      00000005              5
TMR0IF                            CONSTANT      00000002              2
TMR1                              CONSTANT      0000000E             14
TMR1CS                            CONSTANT      00000001              1
TMR1H                             CONSTANT      0000000F             15
TMR1IE                            CONSTANT      00000000              0
TMR1IF                            CONSTANT      00000000              0
TMR1L                             CONSTANT      0000000E             14
TMR1ON                            CONSTANT      00000000              0
TMR2                              CONSTANT      00000011             17
TMR2IE                            CONSTANT      00000001              1
TMR2IF                            CONSTANT      00000001              1
TMR2ON                            CONSTANT      00000002              2
TOUTPS0                           CONSTANT      00000003              3
TOUTPS1                           CONSTANT      00000004              4
TOUTPS2                           CONSTANT      00000005              5
TOUTPS3                           CONSTANT      00000006              6
TRISA                             CONSTANT      00000085            133
TRISA0                            CONSTANT      00000000              0
TRISA1                            CONSTANT      00000001              1
TRISA2                            CONSTANT      00000002              2
TRISA3                            CONSTANT      00000003              3
TRISA4                            CONSTANT      00000004              4
TRISA5                            CONSTANT      00000005              5
TRISB                             CONSTANT      00000086            134
TRISB0                            CONSTANT      00000000              0
TRISB1                            CONSTANT      00000001              1
TRISB2                            CONSTANT      00000002              2
TRISB3                            CONSTANT      00000003              3
TRISB4                            CONSTANT      00000004              4
TRISB5                            CONSTANT      00000005              5
TRISB6                            CONSTANT      00000006              6
TRISB7                            CONSTANT      00000007              7
TRISC                             CONSTANT      00000087            135
TRISC0                            CONSTANT      00000000              0
TRISC1                            CONSTANT      00000001              1
TRISC2                            CONSTANT      00000002              2
gpasm-1.5.0 #1285 (Jul 12 2020) obj/sdcc-16f8   11/12/23  13:12:31          PAGE 75


SYMBOL TABLE
  LABEL                              TYPE        VALUE         VALUE          VALUE
                                                 (hex)         (dec)          (text)

TRISC3                            CONSTANT      00000003              3
TRISC4                            CONSTANT      00000004              4
TRISC5                            CONSTANT      00000005              5
TRISC6                            CONSTANT      00000006              6
TRISC7                            CONSTANT      00000007              7
TRMT                              CONSTANT      00000001              1
TXD8                              CONSTANT      00000000              0
TXEN                              CONSTANT      00000005              5
TXIE                              CONSTANT      00000004              4
TXIF                              CONSTANT      00000004              4
TXREG                             CONSTANT      00000019             25
TXSTA                             CONSTANT      00000098            152
TX8_9                             CONSTANT      00000006              6
TX9                               CONSTANT      00000006              6
TX9D                              CONSTANT      00000000              0
T1CKPS0                           CONSTANT      00000004              4
T1CKPS1                           CONSTANT      00000005              5
T1CON                             CONSTANT      00000010             16
T1INSYNC                          CONSTANT      00000002              2
T1OSCEN                           CONSTANT      00000003              3
T1SYNC                            CONSTANT      00000002              2
T2CKPS0                           CONSTANT      00000000              0
T2CKPS1                           CONSTANT      00000001              1
T2CON                             CONSTANT      00000012             18
UA                                CONSTANT      00000001              1
W                                 CONSTANT      00000000              0
WCOL                              CONSTANT      00000007              7
WR                                CONSTANT      00000001              1
WREN                              CONSTANT      00000002              2
WRERR                             CONSTANT      00000003              3
WSAVE                             EXTERNAL      00000000              0
Z                                 CONSTANT      00000002              2
_00111_DS_                        ADDRESS       0000001B             27
_00114_DS_                        ADDRESS       00000078            120
_00116_DS_                        ADDRESS       0000008A            138
_00119_DS_                        ADDRESS       0000008E            142
_00121_DS_                        ADDRESS       000000CD            205
_00123_DS_                        ADDRESS       00000048             72
_00124_DS_                        ADDRESS       0000004F             79
_00127_DS_                        ADDRESS       00000018             24
_00161_DS_                        ADDRESS       0000009B            155
_00162_DS_                        ADDRESS       000000BB            187
_00163_DS_                        ADDRESS       000000C7            199
_00170_DS_                        ADDRESS       00000011             17
_00171_DS_                        ADDRESS       0000001D             29
_00172_DS_                        ADDRESS       00000021             33
_00173_DS_                        ADDRESS       0000002D             45
_00179_DS_                        ADDRESS       0000012C            300
_00180_DS_                        ADDRESS       00000033             51
_00183_DS_                        ADDRESS       00000133            307
_00198_DS_                        ADDRESS       0000010A            266
_00199_DS_                        ADDRESS       00000116            278
gpasm-1.5.0 #1285 (Jul 12 2020) obj/sdcc-16f8   11/12/23  13:12:31          PAGE 76


SYMBOL TABLE
  LABEL                              TYPE        VALUE         VALUE          VALUE
                                                 (hex)         (dec)          (text)

_00200_DS_                        ADDRESS       00000120            288
_00207_DS_                        ADDRESS       00000133            307
_00208_DS_                        ADDRESS       00000035             53
_00211_DS_                        ADDRESS       0000013A            314
_00226_DS_                        ADDRESS       00000111            273
_00227_DS_                        ADDRESS       0000011D            285
_00228_DS_                        ADDRESS       00000127            295
_BODEN_OFF                        CONSTANT      00003FBF          16319
_BODEN_ON                         CONSTANT      00003FFF          16383
_BOREN_OFF                        CONSTANT      00003FBF          16319
_BOREN_ON                         CONSTANT      00003FFF          16383
_CONFIG                           CONSTANT      00002007           8199
_CPD_OFF                          CONSTANT      00003FFF          16383
_CPD_ON                           CONSTANT      00003EFF          16127
_CP_ALL                           CONSTANT      00001FFF           8191
_CP_OFF                           CONSTANT      00003FFF          16383
_CP_ON                            CONSTANT      00001FFF           8191
_DEBUG_OFF                        CONSTANT      00003FFF          16383
_DEBUG_ON                         CONSTANT      000037FF          14335
_DEVID1                           CONSTANT      00002006           8198
_FOSC_EXTRC                       CONSTANT      00003FFF          16383
_FOSC_HS                          CONSTANT      00003FFE          16382
_FOSC_LP                          CONSTANT      00003FFC          16380
_FOSC_XT                          CONSTANT      00003FFD          16381
_HS_OSC                           CONSTANT      00003FFE          16382
_IDLOC0                           CONSTANT      00002000           8192
_IDLOC1                           CONSTANT      00002001           8193
_IDLOC2                           CONSTANT      00002002           8194
_IDLOC3                           CONSTANT      00002003           8195
_LP_OSC                           CONSTANT      00003FFC          16380
_LVP_OFF                          CONSTANT      00003F7F          16255
_LVP_ON                           CONSTANT      00003FFF          16383
_PWRTE_OFF                        CONSTANT      00003FFF          16383
_PWRTE_ON                         CONSTANT      00003FF7          16375
_RC_OSC                           CONSTANT      00003FFF          16383
_S_format__format_double_001A     ADDRESS       0000001A             26
_S_format__format_double_002E     ADDRESS       0000002E             46
_S_format__format_double_0049     ADDRESS       00000049             73
_S_format__format_double_0057     ADDRESS       00000057             87
_S_format__format_double_0073     ADDRESS       00000073            115
_S_format__format_double_008F     ADDRESS       0000008F            143
_S_format__format_double_00A3     ADDRESS       000000A3            163
_S_format__format_double_00B7     ADDRESS       000000B7            183
_S_format__format_double_00C3     ADDRESS       000000C3            195
_S_format__format_double_00E0     ADDRESS       000000E0            224
_S_format__format_double_00FC     ADDRESS       000000FC            252
_S_format__format_float_0016      ADDRESS       00000016             22
_S_format__format_float_002A      ADDRESS       0000002A             42
_S_format__format_float_0047      ADDRESS       00000047             71
_S_format__format_float_0055      ADDRESS       00000055             85
_S_format__format_float_0071      ADDRESS       00000071            113
_S_format__format_float_008D      ADDRESS       0000008D            141
gpasm-1.5.0 #1285 (Jul 12 2020) obj/sdcc-16f8   11/12/23  13:12:31          PAGE 77


SYMBOL TABLE
  LABEL                              TYPE        VALUE         VALUE          VALUE
                                                 (hex)         (dec)          (text)

_S_format__format_float_00A1      ADDRESS       000000A1            161
_S_format__format_float_00BD      ADDRESS       000000BD            189
_S_format__format_float_00B5      ADDRESS       000000B5            181
_S_format__format_float_00DA      ADDRESS       000000DA            218
_S_format__format_float_00F6      ADDRESS       000000F6            246
_S_format__format_number_0029     ADDRESS       00000029             41
_S_format__format_number_006A     ADDRESS       0000006A            106
_S_format__format_number_0087     ADDRESS       00000087            135
_S_format__format_xint32_0045     ADDRESS       00000045             69
_S_format__format_xint32_0059     ADDRESS       00000059             89
_WDTE_OFF                         CONSTANT      00003FFB          16379
_WDTE_ON                          CONSTANT      00003FFF          16383
_WDT_OFF                          CONSTANT      00003FFB          16379
_WDT_ON                           CONSTANT      00003FFF          16383
_WRT_HALF                         CONSTANT      000039FF          14847
_WRT_OFF                          CONSTANT      00003FFF          16383
_WRT_1FOURTH                      CONSTANT      00003BFF          15359
_WRT_256                          CONSTANT      00003DFF          15871
_XT_OSC                           CONSTANT      00003FFD          16381
__ACTIVE_BANK_ADDR                VARIABLE      FFFFFFFF             -1
__ACTIVE_PAGE_ADDR                VARIABLE      FFFFFFFF             -1
__ASSUMED_BANK_ADDR               VARIABLE      FFFFFFFF             -1
__BANK_0                          CONSTANT      00000000              0
__BANK_BITS                       CONSTANT      00000180            384
__BANK_FIRST                      CONSTANT      00000000              0
__BANK_INV                        CONSTANT      FFFFFFFF             -1
__BANK_LAST                       CONSTANT      00000180            384
__BANK_MASK                       CONSTANT      0000007F            127
__BANK_SHIFT                      CONSTANT      00000007              7
__BANK_SIZE                       CONSTANT      00000080            128
__BANK_1                          CONSTANT      00000080            128
__BANK_2                          CONSTANT      00000100            256
__BANK_3                          CONSTANT      00000180            384
__CODE_END                        CONSTANT      00001FFF           8191
__CODE_START                      CONSTANT      00000000              0
__COMMON_RAM_END                  CONSTANT      0000007F            127
__COMMON_RAM_START                CONSTANT      00000070            112
__CONFIG_END                      CONSTANT      00002007           8199
__CONFIG_START                    CONSTANT      00002007           8199
__EEPROM_END                      CONSTANT      000021FF           8703
__EEPROM_START                    CONSTANT      00002100           8448
__GPUTILS_SVN_VERSION             CONSTANT      00000505           1285
__GPUTILS_VERSION_MAJOR           CONSTANT      00000001              1
__GPUTILS_VERSION_MICRO           CONSTANT      00000000              0
__GPUTILS_VERSION_MINOR           CONSTANT      00000005              5
__IDLOCS_END                      CONSTANT      00002003           8195
__IDLOCS_START                    CONSTANT      00002000           8192
__NUM_BANKS                       CONSTANT      00000004              4
__NUM_PAGES                       CONSTANT      00000004              4
__PAGE_0                          CONSTANT      00000000              0
__PAGE_BITS                       CONSTANT      00001800           6144
__PAGE_FIRST                      CONSTANT      00000000              0
gpasm-1.5.0 #1285 (Jul 12 2020) obj/sdcc-16f8   11/12/23  13:12:31          PAGE 78


SYMBOL TABLE
  LABEL                              TYPE        VALUE         VALUE          VALUE
                                                 (hex)         (dec)          (text)

__PAGE_INV                        CONSTANT      FFFFFFFF             -1
__PAGE_LAST                       CONSTANT      00001800           6144
__PAGE_MASK                       CONSTANT      000007FF           2047
__PAGE_SHIFT                      CONSTANT      0000000B             11
__PAGE_SIZE                       CONSTANT      00000800           2048
__PAGE_1                          CONSTANT      00000800           2048
__PAGE_2                          CONSTANT      00001000           4096
__PAGE_3                          CONSTANT      00001800           6144
__VECTOR_INT                      CONSTANT      00000004              4
__VECTOR_RESET                    CONSTANT      00000000              0
__WHILE_LOOP_COUNT_MAX            CONSTANT      000000FF            255
___fsdiv                          EXTERNAL      00000000              0
___fslt                           EXTERNAL      00000000              0
___fsmul                          EXTERNAL      00000000              0
___fssub                          EXTERNAL      00000000              0
___fs2sint                        EXTERNAL      00000000              0
___fs2uchar                       EXTERNAL      00000000              0
___sint2fs                        EXTERNAL      00000000              0
___uchar2fs                       EXTERNAL      00000000              0
__divuint                         EXTERNAL      00000000              0
__moduint                         EXTERNAL      00000000              0
__14_BIT                          CONSTANT      00000001              1
__16F876A                         CONSTANT      00000001              1
_buffer_putch                     EXTERNAL      00000000              0
_floorf                           EXTERNAL      00000000              0
_format_double                    GLOBAL        00000000              0
_format_float                     GLOBAL        00000000              0
_format_number                    GLOBAL        00000000              0
_format_number_buf_65536_38       STATIC        0000003B             59
_format_putchar                   ADDRESS       00000000              0
_format_xint32                    GLOBAL        00000000              0
_log10f                           EXTERNAL      00000000              0
_powf                             EXTERNAL      00000000              0
r0x102A                           STATIC        0000002F             47
r0x102B                           STATIC        00000034             52
r0x102C                           STATIC        00000033             51
r0x102D                           STATIC        00000038             56
r0x102E                           STATIC        00000037             55
r0x102F                           STATIC        00000036             54
r0x103A                           STATIC        00000020             32
r0x103B                           STATIC        0000001F             31
r0x103C                           STATIC        0000001E             30
r0x103D                           STATIC        00000023             35
r0x103E                           STATIC        00000022             34
r0x103F                           STATIC        00000027             39
r0x104A                           STATIC        00000006              6
r0x104C                           STATIC        00000008              8
r0x104D                           STATIC        00000009              9
r0x104F                           STATIC        0000000A             10
r0x105A                           STATIC        00000012             18
r0x105B                           STATIC        00000016             22
r0x105C                           STATIC        00000017             23
gpasm-1.5.0 #1285 (Jul 12 2020) obj/sdcc-16f8   11/12/23  13:12:31          PAGE 79


SYMBOL TABLE
  LABEL                              TYPE        VALUE         VALUE          VALUE
                                                 (hex)         (dec)          (text)

r0x1020                           STATIC        0000002A             42
r0x1021                           STATIC        00000029             41
r0x1022                           STATIC        0000002E             46
r0x1023                           STATIC        0000002D             45
r0x1024                           STATIC        0000002C             44
r0x1025                           STATIC        0000002B             43
r0x1027                           STATIC        00000032             50
r0x1028                           STATIC        00000031             49
r0x1029                           STATIC        00000030             48
r0x1030                           STATIC        00000035             53
r0x1031                           STATIC        0000003A             58
r0x1032                           STATIC        00000039             57
r0x1033                           STATIC        00000019             25
r0x1034                           STATIC        00000018             24
r0x1035                           STATIC        0000001D             29
r0x1036                           STATIC        0000001C             28
r0x1037                           STATIC        0000001B             27
r0x1038                           STATIC        0000001A             26
r0x1039                           STATIC        00000021             33
r0x1040                           STATIC        00000026             38
r0x1041                           STATIC        00000025             37
r0x1042                           STATIC        00000024             36
r0x1043                           STATIC        00000028             40
r0x1044                           STATIC        00000001              1
r0x1045                           STATIC        00000000              0
r0x1046                           STATIC        00000003              3
r0x1047                           STATIC        00000002              2
r0x1048                           STATIC        00000004              4
r0x1049                           STATIC        00000005              5
r0x1050                           STATIC        0000000B             11
r0x1051                           STATIC        0000000C             12
r0x1052                           STATIC        0000000D             13
r0x1053                           STATIC        0000000E             14
r0x1054                           STATIC        0000000F             15
r0x1055                           STATIC        00000011             17
r0x1056                           STATIC        00000010             16
r0x1057                           STATIC        00000015             21
r0x1058                           STATIC        00000014             20
r0x1059                           STATIC        00000013             19
r0x1061                           STATIC        00000007              7

Errors   :     0
Warnings :     0 reported,     0 suppressed
Messages :     0 reported,     0 suppressed

