gpasm-1.5.0 #1285 (Jul 12 2020) obj/sdcc-16f8   11/12/23  13:12:30          PAGE  1


LOC    OBJECT CODE    LINE  SOURCE TEXT
  VALUE

                      00001 ;--------------------------------------------------------
                      00002 ; File Created by SDCC : free open source ANSI-C Compiler
                      00003 ; Version 4.2.0 #13081 (Linux)
                      00004 ;--------------------------------------------------------
                      00005 ; PIC port for the 14-bit core
                      00006 ;--------------------------------------------------------
                      00007         .file   "LC-meter.c"
                      00008         list    p=16f876a
                      00009         radix dec
                      00010         include "p16f876a.inc"
                      00001         LIST
                      00002 
                      00003 ;==========================================================================
                      00004 ; Build date : Oct 21 2015
                      00005 ;  MPASM PIC16F876A processor include
                      00006 ; 
                      00007 ;  (c) Copyright 1999-2015 Microchip Technology, All rights reserved
                      00008 ;==========================================================================
                      00009 
                      00525         LIST
                      00011 ;--------------------------------------------------------
                      00012 ; config word(s)
                      00013 ;--------------------------------------------------------
2007   0000           00014         __config 0x3f32
                      00015 ;--------------------------------------------------------
                      00016 ; external declarations
                      00017 ;--------------------------------------------------------
  0000                00018         extern  __divuint
  0000                00019         extern  _format_float
  0000                00020         extern  _format_number
  0000                00021         extern  _print_indicator
  0000                00022         extern  _lcd_puts
  0000                00023         extern  _measure_inductance
  0000                00024         extern  _measure_capacitance
  0000                00025         extern  _calibrate
  0000                00026         extern  _ser_init
  0000                00027         extern  _ser_puts
  0000                00028         extern  _ser_putch
  0000                00029         extern  _timer2_init
  0000                00030         extern  _timer0_init
  0000                00031         extern  _lcd_putch
  0000                00032         extern  _lcd_gotoxy
  0000                00033         extern  _lcd_clear
  0000                00034         extern  _lcd_begin
  0000                00035         extern  _lcd_init
  0000                00036         extern  _CMCON
  0000                00037         extern  _TRISC
  0000                00038         extern  _TRISB
  0000                00039         extern  _TRISA
  0000                00040         extern  _OPTION_REG
  0000                00041         extern  _RCREG
  0000                00042         extern  _TXREG
  0000                00043         extern  _INTCON
gpasm-1.5.0 #1285 (Jul 12 2020) obj/sdcc-16f8   11/12/23  13:12:30          PAGE  2


LOC    OBJECT CODE    LINE  SOURCE TEXT
  VALUE

  0000                00044         extern  _PORTC
  0000                00045         extern  _ser_tmp
  0000                00046         extern  _ser_txoptr
  0000                00047         extern  _ser_txiptr
  0000                00048         extern  _ser_txfifo
  0000                00049         extern  _ser_rxoptr
  0000                00050         extern  _ser_rxiptr
  0000                00051         extern  _ser_rxfifo
  0000                00052         extern  _PIE1bits
  0000                00053         extern  _PIR1bits
  0000                00054         extern  _PORTCbits
  0000                00055         extern  __sdcc_gsinit_startup
                      00056 ;--------------------------------------------------------
                      00057 ; global declarations
                      00058 ;--------------------------------------------------------
  0000                00059         global  _isr
  0000                00060         global  _blink
  0000                00061         global  _CCal
  0000                00062         global  _F3
  0000                00063         global  _F2
  0000                00064         global  _F1
  0000                00065         global  _timer1of
  0000                00066         global  _msecs
  0000                00067         global  _seconds
  0000                00068         global  _led_interval
  0000                00069         global  _led_cycle
  0000                00070         global  _msecpart
  0000                00071         global  _bres
  0000                00072         global  _delay10ms
  0000                00073         global  _main
  0000                00074         global  _testloop
                      00075 
  0000                00076         global PSAVE
  0000                00077         global SSAVE
  0000                00078         global WSAVE
  0000                00079         global STK12
  0000                00080         global STK11
  0000                00081         global STK10
  0000                00082         global STK09
  0000                00083         global STK08
  0000                00084         global STK07
  0000                00085         global STK06
  0000                00086         global STK05
  0000                00087         global STK04
  0000                00088         global STK03
  0000                00089         global STK02
  0000                00090         global STK01
  0000                00091         global STK00
                      00092 
                      00093 sharebank udata_ovr 0x0070
0070                  00094 PSAVE   res 1
0071                  00095 SSAVE   res 1
0072                  00096 WSAVE   res 1
gpasm-1.5.0 #1285 (Jul 12 2020) obj/sdcc-16f8   11/12/23  13:12:30          PAGE  3


LOC    OBJECT CODE    LINE  SOURCE TEXT
  VALUE

0073                  00097 STK12   res 1
0074                  00098 STK11   res 1
0075                  00099 STK10   res 1
0076                  00100 STK09   res 1
0077                  00101 STK08   res 1
0078                  00102 STK07   res 1
0079                  00103 STK06   res 1
007A                  00104 STK05   res 1
007B                  00105 STK04   res 1
007C                  00106 STK03   res 1
007D                  00107 STK02   res 1
007E                  00108 STK01   res 1
007F                  00109 STK00   res 1
                      00110 
                      00111 ;--------------------------------------------------------
                      00112 ; global definitions
                      00113 ;--------------------------------------------------------
                      00114 UD_LC_meter_0   udata
                      00115 ; G_bres_0_0 == .
0000                  00116 _bres   res     4
                      00117 
                      00118 UD_LC_meter_1   udata
                      00119 ; G_msecpart_0_0 == .
0000                  00120 _msecpart       res     2
                      00121 
                      00122 UD_LC_meter_2   udata
                      00123 ; G_led_cycle_0_0 == .
0000                  00124 _led_cycle      res     2
                      00125 
                      00126 UD_LC_meter_3   udata
                      00127 ; G_led_interval_0_0 == .
0000                  00128 _led_interval   res     2
                      00129 
                      00130 UD_LC_meter_4   udata
                      00131 ; G_seconds_0_0 == .
0000                  00132 _seconds        res     4
                      00133 
                      00134 UD_LC_meter_5   udata
                      00135 ; G_msecs_0_0 == .
0000                  00136 _msecs  res     4
                      00137 
                      00138 UD_LC_meter_6   udata
                      00139 ; G_timer1of_0_0 == .
0000                  00140 _timer1of       res     4
                      00141 
                      00142 UD_LC_meter_7   udata
                      00143 ; G_F1_0_0 == .
0000                  00144 _F1     res     4
                      00145 
                      00146 UD_LC_meter_8   udata
                      00147 ; G_F2_0_0 == .
0000                  00148 _F2     res     4
                      00149 
gpasm-1.5.0 #1285 (Jul 12 2020) obj/sdcc-16f8   11/12/23  13:12:30          PAGE  4


LOC    OBJECT CODE    LINE  SOURCE TEXT
  VALUE

                      00150 UD_LC_meter_9   udata
                      00151 ; G_F3_0_0 == .
0000                  00152 _F3     res     4
                      00153 
                      00154 UD_LC_meter_10  udata
                      00155 ; G_CCal_0_0 == .
0000                  00156 _CCal   res     4
                      00157 
                      00158 ;--------------------------------------------------------
                      00159 ; absolute symbol definitions
                      00160 ;--------------------------------------------------------
                      00161 ;--------------------------------------------------------
                      00162 ; compiler-defined variables
                      00163 ;--------------------------------------------------------
                      00164 UDL_LC_meter_0  udata
0000                  00165 r0x104A res     1
0001                  00166 r0x104B res     1
0002                  00167 r0x104C res     1
0003                  00168 r0x104D res     1
0004                  00169 r0x1045 res     1
0005                  00170 r0x1044 res     1
0006                  00171 r0x1046 res     1
0007                  00172 r0x1048 res     1
0008                  00173 r0x1049 res     1
0009                  00174 r0x103F res     1
000A                  00175 r0x1040 res     1
000B                  00176 r0x1042 res     1
000C                  00177 r0x1041 res     1
000D                  00178 r0x1043 res     1
000E                  00179 ___sdcc_saved_fsr       res     1
                      00180 ;--------------------------------------------------------
                      00181 ; initialized data
                      00182 ;--------------------------------------------------------
                      00183 
                      00184 IDD_LC_meter_0  idata
                      00185 ; FLC_meter_mode_0_0 == .
0000                  00186 _mode
0000   FF             00187         db      0xff    ; 255
                      00188 
                      00189 
                      00190 IDD_LC_meter_1  idata
                      00191 ; G_blink_0_0 == .
0000                  00192 _blink
0000   00 00          00193         db      0x00, 0x00      ; 0
                      00194 
                      00195 
                      00196 IDD_LC_meter_2  idata
                      00197 ; LLC_meter_testloop_led_65536_71 == .
0000                  00198 _testloop_led_65536_71
0000   00             00199         db      0x00    ; 0
                      00200 
                      00201 
                      00202 IDD_LC_meter_3  idata
gpasm-1.5.0 #1285 (Jul 12 2020) obj/sdcc-16f8   11/12/23  13:12:30          PAGE  5


LOC    OBJECT CODE    LINE  SOURCE TEXT
  VALUE

                      00203 ; LLC_meter_testloop_prev_s_65536_71 == .
0000                  00204 _testloop_prev_s_65536_71
0000   00 00          00205         db      0x00, 0x00      ; 0
                      00206 
                      00207 
                      00208 IDC_LC_meter_4  code
                      00209 ; FLC_meter___str_0_0_0 == .
0000                  00210 ___str_0
0000   344C           00211         retlw 0x4c ; 'L'
0001   3443           00212         retlw 0x43 ; 'C'
0002   342D           00213         retlw 0x2d ; '-'
0003   346D           00214         retlw 0x6d ; 'm'
0004   3465           00215         retlw 0x65 ; 'e'
0005   3474           00216         retlw 0x74 ; 't'
0006   3465           00217         retlw 0x65 ; 'e'
0007   3472           00218         retlw 0x72 ; 'r'
0008   3420           00219         retlw 0x20 ; ' '
0009   3400           00220         retlw 0x00 ; '.'
                      00221 
                      00222 IDC_LC_meter_5  code
                      00223 ; FLC_meter___str_1_0_0 == .
0000                  00224 ___str_1
0000   342D           00225         retlw 0x2d ; '-'
0001   3420           00226         retlw 0x20 ; ' '
0002   3443           00227         retlw 0x43 ; 'C'
0003   3420           00228         retlw 0x20 ; ' '
0004   3428           00229         retlw 0x28 ; '('
0005   3455           00230         retlw 0x55 ; 'U'
0006   346E           00231         retlw 0x6e ; 'n'
0007   3469           00232         retlw 0x69 ; 'i'
0008   3474           00233         retlw 0x74 ; 't'
0009   343A           00234         retlw 0x3a ; ':'
000A   3420           00235         retlw 0x20 ; ' '
000B   3446           00236         retlw 0x46 ; 'F'
000C   3429           00237         retlw 0x29 ; ')'
000D   3420           00238         retlw 0x20 ; ' '
000E   342D           00239         retlw 0x2d ; '-'
000F   3400           00240         retlw 0x00 ; '.'
                      00241 
                      00242 IDC_LC_meter_6  code
                      00243 ; FLC_meter___str_2_0_0 == .
0000                  00244 ___str_2
0000   342D           00245         retlw 0x2d ; '-'
0001   3420           00246         retlw 0x20 ; ' '
0002   344C           00247         retlw 0x4c ; 'L'
0003   3420           00248         retlw 0x20 ; ' '
0004   3428           00249         retlw 0x28 ; '('
0005   3455           00250         retlw 0x55 ; 'U'
0006   346E           00251         retlw 0x6e ; 'n'
0007   3469           00252         retlw 0x69 ; 'i'
0008   3474           00253         retlw 0x74 ; 't'
0009   343A           00254         retlw 0x3a ; ':'
000A   3420           00255         retlw 0x20 ; ' '
gpasm-1.5.0 #1285 (Jul 12 2020) obj/sdcc-16f8   11/12/23  13:12:30          PAGE  6


LOC    OBJECT CODE    LINE  SOURCE TEXT
  VALUE

000B   3448           00256         retlw 0x48 ; 'H'
000C   3429           00257         retlw 0x29 ; ')'
000D   3420           00258         retlw 0x20 ; ' '
000E   342D           00259         retlw 0x2d ; '-'
000F   3400           00260         retlw 0x00 ; '.'
                      00261 
                      00262 IDC_LC_meter_7  code
                      00263 ; FLC_meter___str_3_0_0 == .
0000                  00264 ___str_3
0000   340D           00265         retlw 0x0d ; '.'
0001   340A           00266         retlw 0x0a ; '.'
0002   3400           00267         retlw 0x00 ; '.'
                      00268 
                      00269 IDC_LC_meter_8  code
                      00270 ; FLC_meter___str_4_0_0 == .
0000                  00271 ___str_4
0000   3420           00272         retlw 0x20 ; ' '
0001   3420           00273         retlw 0x20 ; ' '
0002   3420           00274         retlw 0x20 ; ' '
0003   3420           00275         retlw 0x20 ; ' '
0004   3420           00276         retlw 0x20 ; ' '
0005   3420           00277         retlw 0x20 ; ' '
0006   3400           00278         retlw 0x00 ; '.'
                      00279 
                      00280 IDC_LC_meter_9  code
                      00281 ; FLC_meter___str_5_0_0 == .
0000                  00282 ___str_5
0000   3420           00283         retlw 0x20 ; ' '
0001   3420           00284         retlw 0x20 ; ' '
0002   3420           00285         retlw 0x20 ; ' '
0003   3420           00286         retlw 0x20 ; ' '
0004   3420           00287         retlw 0x20 ; ' '
0005   3400           00288         retlw 0x00 ; '.'
                      00289 
                      00290 IDC_LC_meter_10 code
                      00291 ; FLC_meter___str_6_0_0 == .
0000                  00292 ___str_6
0000   3452           00293         retlw 0x52 ; 'R'
0001   3443           00294         retlw 0x43 ; 'C'
0002   3434           00295         retlw 0x34 ; '4'
0003   343D           00296         retlw 0x3d ; '='
0004   3400           00297         retlw 0x00 ; '.'
                      00298 ;--------------------------------------------------------
                      00299 ; initialized absolute data
                      00300 ;--------------------------------------------------------
                      00301 ;--------------------------------------------------------
                      00302 ; overlayable items in internal ram 
                      00303 ;--------------------------------------------------------
                      00304 ;       udata_ovr
                      00305 ;--------------------------------------------------------
                      00306 ; reset vector 
                      00307 ;--------------------------------------------------------
                      00308 STARTUP code 0x0000
gpasm-1.5.0 #1285 (Jul 12 2020) obj/sdcc-16f8   11/12/23  13:12:30          PAGE  7


LOC    OBJECT CODE    LINE  SOURCE TEXT
  VALUE

0000   0000           00309         nop
0001   0??? 0???      00310         pagesel __sdcc_gsinit_startup
0003   2???           00311         goto    __sdcc_gsinit_startup
                      00312 ;--------------------------------------------------------
                      00313 ; interrupt and initialization code
                      00314 ;--------------------------------------------------------
                      00315 c_interrupt     code    0x0004
0004                  00316 __sdcc_interrupt:
                      00317 ;***
                      00318 ;  pBlock Stats: dbName = I
                      00319 ;***
                      00320 ;functions called:
                      00321 ;   __divuint
                      00322 ;   __divuint
                      00323 ;7 compiler assigned registers:
                      00324 ;   r0x104A
                      00325 ;   r0x104B
                      00326 ;   STK02
                      00327 ;   STK01
                      00328 ;   STK00
                      00329 ;   r0x104C
                      00330 ;   r0x104D
                      00331 ;; Starting pCode block
                      00332 ;;; ../../../../src/pic14/gen.c:2358:resultRemat *{*
                      00333 ;;; ../../../../src/pic14/gen.c:2802:genLabel *{*
                      00334 ;; ***  genLabel  2805
                      00335 ;;; ../../../../src/pic14/gen.c:2358:resultRemat *{*
                      00336 ;;; ../../../../src/pic14/gen.c:2382:genFunction *{*
                      00337 ;; ***  genFunction  2384 curr label offset=4previous max_key=0 
0004                  00338 _isr:
                      00339 ; 0 exit points
                      00340 ;; >>> ../../../../src/pic14/gen.c:2449:genFunction
                      00341         .line   84; "LC-meter.c"        INTERRUPT_FN() {
0004   00??           00342         MOVWF   WSAVE
                      00343 ;; >>> ../../../../src/pic14/gen.c:2450:genFunction
0005   0E03           00344         SWAPF   STATUS,W
                      00345 ;; >>> ../../../../src/pic14/gen.c:2455:genFunction
0006   0183           00346         CLRF    STATUS
                      00347 ;; >>> ../../../../src/pic14/gen.c:2456:genFunction
0007   00??           00348         MOVWF   SSAVE
                      00349 ;; >>> ../../../../src/pic14/gen.c:2458:genFunction
0008   080A           00350         MOVF    PCLATH,W
                      00351 ;; >>> ../../../../src/pic14/gen.c:2460:genFunction
0009   018A           00352         CLRF    PCLATH
                      00353 ;; >>> ../../../../src/pic14/gen.c:2461:genFunction
000A   00??           00354         MOVWF   PSAVE
                      00355 ;; >>> ../../../../src/pic14/gen.c:2463:genFunction
000B   0804           00356         MOVF    FSR,W
                      00357 ;; >>> ../../../../src/pic14/gen.c:2464:genFunction
                      00358 ;;      popGetExternal 990 added symbol ___sdcc_saved_fsr
000C   0??? 0???      00359         BANKSEL ___sdcc_saved_fsr
000E   00??           00360         MOVWF   ___sdcc_saved_fsr
                      00361 ;;; ../../../../src/pic14/gen.c:2358:resultRemat *{*
gpasm-1.5.0 #1285 (Jul 12 2020) obj/sdcc-16f8   11/12/23  13:12:30          PAGE  8


LOC    OBJECT CODE    LINE  SOURCE TEXT
  VALUE

                      00362 ;;; ../../../../src/pic14/gen.c:2358:resultRemat *{*
                      00363 ;;; ../../../../src/pic14/gen.c:6366:genPointerGet *{*
                      00364 ;; ***  genPointerGet  6367
                      00365 ;;; ../../../../src/pic14/gen.c:6252:genNearPointerGet *{*
                      00366 ;; ***  genNearPointerGet  6253
                      00367 ;;      627
                      00368 ;;      aopForRemat 406
                      00369 ;;      432: rname _PIR1bits, val 0, const = 0
                      00370 ;; ***  genNearPointerGet  6269
                      00371 ;;      708 register type nRegs=1
                      00372 ;;; ../../../../src/pic14/gen.c:6110:genUnpackBits *{*
                      00373 ;; ***  genUnpackBits  6111
                      00374 ;;      837: aopGet AOP_PCODE type PO_IMMEDIATE
                      00375 ;;      _PIR1bits
                      00376 ;; >>> ../../../../src/pic14/gen.c:6133:genUnpackBits
                      00377         .line   85; "LC-meter.c"        if(TMR2IF) {
000F   0??? 0???      00378         BANKSEL _PIR1bits
0011   1C??           00379         BTFSS   _PIR1bits,1
                      00380 ;; >>> ../../../../src/pic14/gen.c:6134:genUnpackBits
                      00381 ;; ***  popGetLabel  key=6, label offset 8
0012   2???           00382         GOTO    _00114_DS_
                      00383 ;;; ../../../../src/pic14/gen.c:2358:resultRemat *{*
                      00384 ;;; ../../../../src/pic14/gen.c:2358:resultRemat *{*
                      00385 ;; ***  genPlus  707
                      00386 ;;; ../../../../src/pic14/genarith.c:708:genPlus *{*
                      00387 ;; ***  aopForSym 324
                      00388 ;;      336 sym->rname = _bres, size = 4
                      00389 ;;      589
                      00390 ;;      line = 714 result AOP_DIR=_bres, size=4, left AOP_DIR=_bres, size=4, right AOP_LIT=0x00, size=4
                      00391 ;;; ../../../../src/pic14/genarith.c:159:genPlusIncr *{*
                      00392 ;; ***  genPlusIncr  161
                      00393 ;;      result AOP_DIR, left AOP_DIR, right AOP_LIT
                      00394 ;;      genPlusIncr  173
                      00395 ;;      adding lit to something. size 4
                      00396 ;;; ../../../../src/pic14/genarith.c:286:genAddLit *{*
                      00397 ;; ***  genAddLit  287
                      00398 ;;  add lit to long     genAddLit  458
                      00399 ;; >>> ../../../../src/pic14/genarith.c:516:genAddLit
                      00400 ;;      1027
                      00401 ;;      1045  _bres   offset=1
                      00402         .line   86; "LC-meter.c"        bres += 256;
0013   0??? 0???      00403         BANKSEL _bres
0015   0A??           00404         INCF    (_bres + 1),F
                      00405 ;; >>> ../../../../src/pic14/genarith.c:472:genAddLit
0016   1903           00406         BTFSC   STATUS,2
                      00407 ;; >>> ../../../../src/pic14/genarith.c:473:genAddLit
                      00408 ;;      1027
                      00409 ;;      1045  _bres   offset=2
0017   0A??           00410         INCF    (_bres + 2),F
                      00411 ;; >>> ../../../../src/pic14/genarith.c:472:genAddLit
0018   1903           00412         BTFSC   STATUS,2
                      00413 ;; >>> ../../../../src/pic14/genarith.c:473:genAddLit
                      00414 ;;      1027
gpasm-1.5.0 #1285 (Jul 12 2020) obj/sdcc-16f8   11/12/23  13:12:30          PAGE  9


LOC    OBJECT CODE    LINE  SOURCE TEXT
  VALUE

                      00415 ;;      1045  _bres   offset=3
0019   0A??           00416         INCF    (_bres + 3),F
                      00417 ;; ***  addSign  1087
                      00418 ;;; ../../../../src/pic14/genarith.c:1088:addSign *{*
                      00419 ;;; ../../../../src/pic14/gen.c:2358:resultRemat *{*
                      00420 ;;; ../../../../src/pic14/gen.c:3652:genCmpLt *{*
                      00421 ;; ***  genCmpLt  3653
                      00422 ;; ***  aopForSym 324
                      00423 ;;      336 sym->rname = _bres, size = 4
                      00424 ;;; ../../../../src/pic14/gen.c:3354:genCmp *{*
                      00425 ;;unsigned compare: left < lit(0x1388=5000), size=4
                      00426 ;; >>> ../../../../src/pic14/gen.c:3325:pic14_mov2w_regOrLit
                      00427         .line   87; "LC-meter.c"        if(bres >= CYCLES_FOR_MSEC) {
001A   3000           00428         MOVLW   0x00
                      00429 ;; >>> ../../../../src/pic14/gen.c:3492:genCmp
                      00430 ;;      1027
                      00431 ;;      1045  _bres   offset=3
001B   02??           00432         SUBWF   (_bres + 3),W
                      00433 ;; >>> ../../../../src/pic14/gen.c:3537:genCmp
001C   1D03           00434         BTFSS   STATUS,2
                      00435 ;; >>> ../../../../src/pic14/gen.c:3545:genCmp
                      00436 ;; ***  popGetLabel  key=57, label offset 8
001D   2???           00437         GOTO    _00165_DS_
                      00438 ;; >>> ../../../../src/pic14/gen.c:3325:pic14_mov2w_regOrLit
001E   3000           00439         MOVLW   0x00
                      00440 ;; >>> ../../../../src/pic14/gen.c:3549:genCmp
                      00441 ;;      1027
                      00442 ;;      1045  _bres   offset=2
001F   02??           00443         SUBWF   (_bres + 2),W
                      00444 ;; >>> ../../../../src/pic14/gen.c:3537:genCmp
0020   1D03           00445         BTFSS   STATUS,2
                      00446 ;; >>> ../../../../src/pic14/gen.c:3545:genCmp
                      00447 ;; ***  popGetLabel  key=57, label offset 8
0021   2???           00448         GOTO    _00165_DS_
                      00449 ;; >>> ../../../../src/pic14/gen.c:3325:pic14_mov2w_regOrLit
0022   3013           00450         MOVLW   0x13
                      00451 ;; >>> ../../../../src/pic14/gen.c:3549:genCmp
                      00452 ;;      1027
                      00453 ;;      1045  _bres   offset=1
0023   02??           00454         SUBWF   (_bres + 1),W
                      00455 ;; >>> ../../../../src/pic14/gen.c:3537:genCmp
0024   1D03           00456         BTFSS   STATUS,2
                      00457 ;; >>> ../../../../src/pic14/gen.c:3545:genCmp
                      00458 ;; ***  popGetLabel  key=57, label offset 8
0025   2???           00459         GOTO    _00165_DS_
                      00460 ;; >>> ../../../../src/pic14/gen.c:3325:pic14_mov2w_regOrLit
0026   3088           00461         MOVLW   0x88
                      00462 ;; >>> ../../../../src/pic14/gen.c:3549:genCmp
                      00463 ;;      1027
                      00464 ;;      1045  _bres   offset=0
0027   02??           00465         SUBWF   _bres,W
                      00466 ;;; ../../../../src/pic14/gen.c:3297:genSkipc *{*
                      00467 ;; >>> ../../../../src/pic14/gen.c:3304:genSkipc
gpasm-1.5.0 #1285 (Jul 12 2020) obj/sdcc-16f8   11/12/23  13:12:30          PAGE 10


LOC    OBJECT CODE    LINE  SOURCE TEXT
  VALUE

0028                  00468 _00165_DS_:
0028   1C03           00469         BTFSS   STATUS,0
                      00470 ;; >>> ../../../../src/pic14/gen.c:3306:genSkipc
                      00471 ;; ***  popGetLabel  key=4, label offset 8
0029   2???           00472         GOTO    _00112_DS_
                      00473 ;;genSkipc:3307: created from rifx:0x7ffdd082ffa0
                      00474 ;;; ../../../../src/pic14/gen.c:2358:resultRemat *{*
                      00475 ;;; ../../../../src/pic14/gen.c:2358:resultRemat *{*
                      00476 ;;; ../../../../src/pic14/gen.c:7568:genDjnz *{*
                      00477 ;; ***  genDjnz  7569
                      00478 ;;; ../../../../src/pic14/genarith.c:1122:genMinus *{*
                      00479 ;; ***  genMinus  1123
                      00480 ;; ***  aopForSym 324
                      00481 ;;      336 sym->rname = _bres, size = 4
                      00482 ;;      589
                      00483 ;;      result AOP_DIR, left AOP_DIR, right AOP_LIT
                      00484 ;;; ../../../../src/pic14/genarith.c:286:genAddLit *{*
                      00485 ;; ***  genAddLit  287
                      00486 ;;  add lit to long     genAddLit  458
                      00487 ;; >>> ../../../../src/pic14/genarith.c:520:genAddLit
                      00488         .line   88; "LC-meter.c"        bres -= CYCLES_FOR_MSEC;
002A   3078           00489         MOVLW   0x78
                      00490 ;; >>> ../../../../src/pic14/genarith.c:521:genAddLit
                      00491 ;;      1027
                      00492 ;;      1045  _bres   offset=0
002B   0??? 0???      00493         BANKSEL _bres
002D   07??           00494         ADDWF   _bres,F
                      00495 ;; >>> ../../../../src/pic14/genarith.c:496:genAddLit
002E   30EC           00496         MOVLW   0xec
                      00497 ;; >>> ../../../../src/pic14/genarith.c:500:genAddLit
002F   1803           00498         BTFSC   STATUS,0
                      00499 ;; >>> ../../../../src/pic14/genarith.c:501:genAddLit
0030   30ED           00500         MOVLW   0xed
                      00501 ;; >>> ../../../../src/pic14/genarith.c:502:genAddLit
                      00502 ;;      1027
                      00503 ;;      1045  _bres   offset=1
0031   07??           00504         ADDWF   (_bres + 1),F
                      00505 ;; >>> ../../../../src/pic14/genarith.c:488:genAddLit
0032   30FF           00506         MOVLW   0xff
                      00507 ;; >>> ../../../../src/pic14/genarith.c:492:genAddLit
0033   1C03           00508         BTFSS   STATUS,0
                      00509 ;; >>> ../../../../src/pic14/genarith.c:493:genAddLit
                      00510 ;;      1027
                      00511 ;;      1045  _bres   offset=2
0034   07??           00512         ADDWF   (_bres + 2),F
                      00513 ;; >>> ../../../../src/pic14/genarith.c:488:genAddLit
0035   30FF           00514         MOVLW   0xff
                      00515 ;; >>> ../../../../src/pic14/genarith.c:492:genAddLit
0036   1C03           00516         BTFSS   STATUS,0
                      00517 ;; >>> ../../../../src/pic14/genarith.c:493:genAddLit
                      00518 ;;      1027
                      00519 ;;      1045  _bres   offset=3
0037   07??           00520         ADDWF   (_bres + 3),F
gpasm-1.5.0 #1285 (Jul 12 2020) obj/sdcc-16f8   11/12/23  13:12:30          PAGE 11


LOC    OBJECT CODE    LINE  SOURCE TEXT
  VALUE

                      00521 ;; ***  addSign  1087
                      00522 ;;; ../../../../src/pic14/genarith.c:1088:addSign *{*
                      00523 ;;; ../../../../src/pic14/gen.c:2358:resultRemat *{*
                      00524 ;;; ../../../../src/pic14/gen.c:7159:genAssign *{*
                      00525 ;; ***  genAssign  7160
                      00526 ;; ***  aopForSym 324
                      00527 ;;      336 sym->rname = _msecpart, size = 2
                      00528 ;;      708 register type nRegs=2
                      00529 ;;      line = 7169 result AOP_REG=r0x104C, size=2, left -=-, size=0, right AOP_DIR=_msecpart, size=2
                      00530 ;; ***  genAssign  7253
                      00531 ;;; ../../../../src/pic14/gen.c:1357:mov2w_op *{*
                      00532 ;; ***  mov2w  1395  offset=0
                      00533 ;; >>> ../../../../src/pic14/gen.c:1400:mov2w
                      00534 ;;      1027
                      00535 ;;      1045  _msecpart   offset=0
                      00536         .line   89; "LC-meter.c"        msecpart++;
0038   0??? 0???      00537         BANKSEL _msecpart
003A   08??           00538         MOVF    _msecpart,W
                      00539 ;; >>> ../../../../src/pic14/gen.c:7280:genAssign
                      00540 ;;      1126 rIdx = r0x104C 
003B   0??? 0???      00541         BANKSEL r0x104A
003D   00??           00542         MOVWF   r0x104A
                      00543 ;; ***  genAssign  7253
                      00544 ;;; ../../../../src/pic14/gen.c:1357:mov2w_op *{*
                      00545 ;; ***  mov2w  1395  offset=1
                      00546 ;; >>> ../../../../src/pic14/gen.c:1400:mov2w
                      00547 ;;      1027
                      00548 ;;      1045  _msecpart   offset=1
003E   0??? 0???      00549         BANKSEL _msecpart
0040   08??           00550         MOVF    (_msecpart + 1),W
                      00551 ;; >>> ../../../../src/pic14/gen.c:7280:genAssign
                      00552 ;;      1126 rIdx = r0x104D 
0041   0??? 0???      00553         BANKSEL r0x104B
0043   00??           00554         MOVWF   r0x104B
                      00555 ;;; ../../../../src/pic14/gen.c:2358:resultRemat *{*
                      00556 ;; ***  genPlus  707
                      00557 ;;; ../../../../src/pic14/genarith.c:708:genPlus *{*
                      00558 ;;      708 register type nRegs=2
                      00559 ;; ***  aopForSym 324
                      00560 ;;      336 sym->rname = _msecpart, size = 2
                      00561 ;;      line = 714 result AOP_DIR=_msecpart, size=2, left AOP_REG=r0x104C, size=2, right AOP_LIT=0x01, s
                            ize=1
                      00562 ;;; ../../../../src/pic14/genarith.c:159:genPlusIncr *{*
                      00563 ;; ***  genPlusIncr  161
                      00564 ;;      result AOP_DIR, left AOP_REG, right AOP_LIT
                      00565 ;;      genPlusIncr  173
                      00566 ;;      genPlusIncr  197
                      00567 ;;      adding lit to something. size 2
                      00568 ;;; ../../../../src/pic14/genarith.c:286:genAddLit *{*
                      00569 ;; ***  genAddLit  287
                      00570 ;;  left and result aren't same genAddLit  537
                      00571 ;; >>> ../../../../src/pic14/genarith.c:601:genAddLit
0044   3001           00572         MOVLW   0x01
gpasm-1.5.0 #1285 (Jul 12 2020) obj/sdcc-16f8   11/12/23  13:12:30          PAGE 12


LOC    OBJECT CODE    LINE  SOURCE TEXT
  VALUE

                      00573 ;; >>> ../../../../src/pic14/genarith.c:602:genAddLit
                      00574 ;;      1126 rIdx = r0x104C 
0045   07??           00575         ADDWF   r0x104A,W
                      00576 ;;; ../../../../src/pic14/genarith.c:270:emitMOVWF *{*
                      00577 ;; >>> ../../../../src/pic14/genarith.c:274:emitMOVWF
                      00578 ;;      1027
                      00579 ;;      1045  _msecpart   offset=0
0046   0??? 0???      00580         BANKSEL _msecpart
0048   00??           00581         MOVWF   _msecpart
                      00582 ;; >>> ../../../../src/pic14/genarith.c:677:genAddLit
                      00583 ;;      1027
                      00584 ;;      1045  _msecpart   offset=1
0049   01??           00585         CLRF    (_msecpart + 1)
                      00586 ;; >>> ../../../../src/pic14/genarith.c:678:genAddLit
                      00587 ;;      1027
                      00588 ;;      1045  _msecpart   offset=1
004A   0D??           00589         RLF     (_msecpart + 1),F
                      00590 ;; >>> ../../../../src/pic14/genarith.c:679:genAddLit
                      00591 ;;      1126 rIdx = r0x104D 
004B   0??? 0???      00592         BANKSEL r0x104B
004D   08??           00593         MOVF    r0x104B,W
                      00594 ;; >>> ../../../../src/pic14/genarith.c:680:genAddLit
                      00595 ;;      1027
                      00596 ;;      1045  _msecpart   offset=1
004E   0??? 0???      00597         BANKSEL _msecpart
0050   07??           00598         ADDWF   (_msecpart + 1),F
                      00599 ;; ***  addSign  1087
                      00600 ;;; ../../../../src/pic14/genarith.c:1088:addSign *{*
                      00601 ;;; ../../../../src/pic14/gen.c:2358:resultRemat *{*
                      00602 ;;; ../../../../src/pic14/gen.c:7159:genAssign *{*
                      00603 ;; ***  genAssign  7160
                      00604 ;; ***  aopForSym 324
                      00605 ;;      336 sym->rname = _led_cycle, size = 2
                      00606 ;;      708 register type nRegs=2
                      00607 ;;      line = 7169 result AOP_REG=r0x104C, size=2, left -=-, size=0, right AOP_DIR=_led_cycle, size=2
                      00608 ;; ***  genAssign  7253
                      00609 ;;; ../../../../src/pic14/gen.c:1357:mov2w_op *{*
                      00610 ;; ***  mov2w  1395  offset=0
                      00611 ;; >>> ../../../../src/pic14/gen.c:1400:mov2w
                      00612 ;;      1027
                      00613 ;;      1045  _led_cycle   offset=0
                      00614         .line   90; "LC-meter.c"        led_cycle++;
0051   0??? 0???      00615         BANKSEL _led_cycle
0053   08??           00616         MOVF    _led_cycle,W
                      00617 ;; >>> ../../../../src/pic14/gen.c:7280:genAssign
                      00618 ;;      1126 rIdx = r0x104C 
0054   0??? 0???      00619         BANKSEL r0x104A
0056   00??           00620         MOVWF   r0x104A
                      00621 ;; ***  genAssign  7253
                      00622 ;;; ../../../../src/pic14/gen.c:1357:mov2w_op *{*
                      00623 ;; ***  mov2w  1395  offset=1
                      00624 ;; >>> ../../../../src/pic14/gen.c:1400:mov2w
                      00625 ;;      1027
gpasm-1.5.0 #1285 (Jul 12 2020) obj/sdcc-16f8   11/12/23  13:12:30          PAGE 13


LOC    OBJECT CODE    LINE  SOURCE TEXT
  VALUE

                      00626 ;;      1045  _led_cycle   offset=1
0057   0??? 0???      00627         BANKSEL _led_cycle
0059   08??           00628         MOVF    (_led_cycle + 1),W
                      00629 ;; >>> ../../../../src/pic14/gen.c:7280:genAssign
                      00630 ;;      1126 rIdx = r0x104D 
005A   0??? 0???      00631         BANKSEL r0x104B
005C   00??           00632         MOVWF   r0x104B
                      00633 ;;; ../../../../src/pic14/gen.c:2358:resultRemat *{*
                      00634 ;; ***  genPlus  707
                      00635 ;;; ../../../../src/pic14/genarith.c:708:genPlus *{*
                      00636 ;;      708 register type nRegs=2
                      00637 ;; ***  aopForSym 324
                      00638 ;;      336 sym->rname = _led_cycle, size = 2
                      00639 ;;      line = 714 result AOP_DIR=_led_cycle, size=2, left AOP_REG=r0x104C, size=2, right AOP_LIT=0x01, 
                            size=1
                      00640 ;;; ../../../../src/pic14/genarith.c:159:genPlusIncr *{*
                      00641 ;; ***  genPlusIncr  161
                      00642 ;;      result AOP_DIR, left AOP_REG, right AOP_LIT
                      00643 ;;      genPlusIncr  173
                      00644 ;;      genPlusIncr  197
                      00645 ;;      adding lit to something. size 2
                      00646 ;;; ../../../../src/pic14/genarith.c:286:genAddLit *{*
                      00647 ;; ***  genAddLit  287
                      00648 ;;  left and result aren't same genAddLit  537
                      00649 ;; >>> ../../../../src/pic14/genarith.c:601:genAddLit
005D   3001           00650         MOVLW   0x01
                      00651 ;; >>> ../../../../src/pic14/genarith.c:602:genAddLit
                      00652 ;;      1126 rIdx = r0x104C 
005E   07??           00653         ADDWF   r0x104A,W
                      00654 ;;; ../../../../src/pic14/genarith.c:270:emitMOVWF *{*
                      00655 ;; >>> ../../../../src/pic14/genarith.c:274:emitMOVWF
                      00656 ;;      1027
                      00657 ;;      1045  _led_cycle   offset=0
005F   0??? 0???      00658         BANKSEL _led_cycle
0061   00??           00659         MOVWF   _led_cycle
                      00660 ;; >>> ../../../../src/pic14/genarith.c:677:genAddLit
                      00661 ;;      1027
                      00662 ;;      1045  _led_cycle   offset=1
0062   01??           00663         CLRF    (_led_cycle + 1)
                      00664 ;; >>> ../../../../src/pic14/genarith.c:678:genAddLit
                      00665 ;;      1027
                      00666 ;;      1045  _led_cycle   offset=1
0063   0D??           00667         RLF     (_led_cycle + 1),F
                      00668 ;; >>> ../../../../src/pic14/genarith.c:679:genAddLit
                      00669 ;;      1126 rIdx = r0x104D 
0064   0??? 0???      00670         BANKSEL r0x104B
0066   08??           00671         MOVF    r0x104B,W
                      00672 ;; >>> ../../../../src/pic14/genarith.c:680:genAddLit
                      00673 ;;      1027
                      00674 ;;      1045  _led_cycle   offset=1
0067   0??? 0???      00675         BANKSEL _led_cycle
0069   07??           00676         ADDWF   (_led_cycle + 1),F
                      00677 ;; ***  addSign  1087
gpasm-1.5.0 #1285 (Jul 12 2020) obj/sdcc-16f8   11/12/23  13:12:30          PAGE 14


LOC    OBJECT CODE    LINE  SOURCE TEXT
  VALUE

                      00678 ;;; ../../../../src/pic14/genarith.c:1088:addSign *{*
                      00679 ;;; ../../../../src/pic14/gen.c:2358:resultRemat *{*
                      00680 ;;; ../../../../src/pic14/gen.c:4023:genAnd *{*
                      00681 ;; ***  genAnd  4024
                      00682 ;; ***  aopForSym 324
                      00683 ;;      336 sym->rname = _PORTC, size = 1
                      00684 ;;      589
                      00685 ;;      line = 4059 result AOP_DIR=_PORTC, size=1, left AOP_DIR=_PORTC, size=1, right AOP_LIT=0xfb, size
                            =1
                      00686 ;; >>> ../../../../src/pic14/gen.c:4226:genAnd
                      00687         .line   92; "LC-meter.c"        SET_LED(led_cycle >= 0 && led_cycle < led_interval / 6);
006A   0??? 0???      00688         BANKSEL _PORTC
006C   11??           00689         BCF     _PORTC,2
                      00690 ;;; ../../../../src/pic14/gen.c:2358:resultRemat *{*
                      00691 ;;; ../../../../src/pic14/gen.c:7353:genCast *{*
                      00692 ;; ***  genCast  7354
                      00693 ;; ***  aopForSym 324
                      00694 ;;      336 sym->rname = _led_interval, size = 2
                      00695 ;;      708 register type nRegs=2
                      00696 ;;      line = 7362 result AOP_REG=r0x104C, size=2, left -=-, size=0, right AOP_DIR=_led_interval, size=
                            2
                      00697 ;; ***  genCast  7504
                      00698 ;; >>> ../../../../src/pic14/gen.c:7528:genCast
                      00699 ;;      1027
                      00700 ;;      1041  _led_interval   offset=0 - had to alloc by reg name
006D   0??? 0???      00701         BANKSEL _led_interval
006F   08??           00702         MOVF    _led_interval,W
                      00703 ;; >>> ../../../../src/pic14/gen.c:7529:genCast
                      00704 ;;      1126 rIdx = r0x104C 
0070   0??? 0???      00705         BANKSEL r0x104A
0072   00??           00706         MOVWF   r0x104A
                      00707 ;; >>> ../../../../src/pic14/gen.c:7528:genCast
                      00708 ;;      1027
                      00709 ;;      1045  _led_interval   offset=1
0073   0??? 0???      00710         BANKSEL _led_interval
0075   08??           00711         MOVF    (_led_interval + 1),W
                      00712 ;; >>> ../../../../src/pic14/gen.c:7529:genCast
                      00713 ;;      1126 rIdx = r0x104D 
0076   0??? 0???      00714         BANKSEL r0x104B
0078   00??           00715         MOVWF   r0x104B
                      00716 ;;; ../../../../src/pic14/gen.c:2358:resultRemat *{*
                      00717 ;;; ../../../../src/pic14/gen.c:2358:resultRemat *{*
                      00718 ;;; ../../../../src/pic14/gen.c:2358:resultRemat *{*
                      00719 ;;; ../../../../src/pic14/gen.c:2108:genCall *{*
                      00720 ;; ***  genCall  2110
                      00721 ;;      708 register type nRegs=2
                      00722 ;;      2158 left AOP_LIT
                      00723 ;;; ../../../../src/pic14/gen.c:1357:mov2w_op *{*
                      00724 ;; >>> ../../../../src/pic14/gen.c:1375:mov2w_op
0079   3006           00725         MOVLW   0x06
                      00726 ;;      2158 left AOP_LIT
                      00727 ;; >>> ../../../../src/pic14/gen.c:2166:genCall
                      00728 ;; ***  popRegFromIdx,1059  , rIdx=0x7d
gpasm-1.5.0 #1285 (Jul 12 2020) obj/sdcc-16f8   11/12/23  13:12:30          PAGE 15


LOC    OBJECT CODE    LINE  SOURCE TEXT
  VALUE

007A   00??           00729         MOVWF   STK02
                      00730 ;;; ../../../../src/pic14/gen.c:1357:mov2w_op *{*
                      00731 ;; >>> ../../../../src/pic14/gen.c:1375:mov2w_op
007B   3000           00732         MOVLW   0x00
                      00733 ;;      708 register type nRegs=2
                      00734 ;;      2158 left AOP_REG
                      00735 ;; >>> ../../../../src/pic14/gen.c:2166:genCall
                      00736 ;; ***  popRegFromIdx,1059  , rIdx=0x7e
007C   00??           00737         MOVWF   STK01
                      00738 ;;; ../../../../src/pic14/gen.c:1357:mov2w_op *{*
                      00739 ;; ***  mov2w  1395  offset=0
                      00740 ;; >>> ../../../../src/pic14/gen.c:1400:mov2w
                      00741 ;;      1126 rIdx = r0x104C 
007D   08??           00742         MOVF    r0x104A,W
                      00743 ;;      2158 left AOP_REG
                      00744 ;; >>> ../../../../src/pic14/gen.c:2166:genCall
                      00745 ;; ***  popRegFromIdx,1059  , rIdx=0x7f
007E   00??           00746         MOVWF   STK00
                      00747 ;;; ../../../../src/pic14/gen.c:1357:mov2w_op *{*
                      00748 ;; ***  mov2w  1395  offset=1
                      00749 ;; >>> ../../../../src/pic14/gen.c:1400:mov2w
                      00750 ;;      1126 rIdx = r0x104D 
007F   08??           00751         MOVF    r0x104B,W
                      00752 ;; >>> ../../../../src/pic14/gen.c:2207:genCall
0080   0??? 0???      00753         PAGESEL __divuint
                      00754 ;; >>> ../../../../src/pic14/gen.c:2215:genCall
0082   2???           00755         CALL    __divuint
                      00756 ;; >>> ../../../../src/pic14/gen.c:2223:genCall
0083   0??? 0???      00757         PAGESEL $
                      00758 ;;      708 register type nRegs=2
                      00759 ;;; ../../../../src/pic14/gen.c:1929:assignResultValue *{*
                      00760 ;; ***  assignResultValue  1931
                      00761 ;;      line = 1933 result -=-, size=0, left AOP_REG=r0x104C, size=2, right -=-, size=0
                      00762 ;; >>> ../../../../src/pic14/gen.c:1407:movwf
                      00763 ;;      1126 rIdx = r0x104D 
0085   0??? 0???      00764         BANKSEL r0x104B
0087   00??           00765         MOVWF   r0x104B
                      00766 ;; >>> ../../../../src/pic14/gen.c:1437:get_returnvalue
                      00767 ;; ***  popRegFromIdx,1059  , rIdx=0x7f
0088   08??           00768         MOVF    STK00,W
                      00769 ;; >>> ../../../../src/pic14/gen.c:1407:movwf
                      00770 ;;      1126 rIdx = r0x104C 
0089   00??           00771         MOVWF   r0x104A
                      00772 ;;      2238 left AOP_REG
                      00773 ;;; ../../../../src/pic14/gen.c:2358:resultRemat *{*
                      00774 ;;; ../../../../src/pic14/gen.c:7353:genCast *{*
                      00775 ;; ***  genCast  7354
                      00776 ;; ***  aopForSym 324
                      00777 ;;      336 sym->rname = _led_cycle, size = 2
                      00778 ;;      708 register type nRegs=2
                      00779 ;;      line = 7362 result AOP_REG=r0x104E, size=2, left -=-, size=0, right AOP_DIR=_led_cycle, size=2
                      00780 ;; ***  genCast  7504
                      00781 ;; >>> ../../../../src/pic14/gen.c:7528:genCast
gpasm-1.5.0 #1285 (Jul 12 2020) obj/sdcc-16f8   11/12/23  13:12:30          PAGE 16


LOC    OBJECT CODE    LINE  SOURCE TEXT
  VALUE

                      00782 ;;      1027
                      00783 ;;      1045  _led_cycle   offset=0
008A   0??? 0???      00784         BANKSEL _led_cycle
008C   08??           00785         MOVF    _led_cycle,W
                      00786 ;; >>> ../../../../src/pic14/gen.c:7529:genCast
                      00787 ;;      1126 rIdx = r0x104E 
008D   0??? 0???      00788         BANKSEL r0x104C
008F   00??           00789         MOVWF   r0x104C
                      00790 ;; >>> ../../../../src/pic14/gen.c:7528:genCast
                      00791 ;;      1027
                      00792 ;;      1045  _led_cycle   offset=1
0090   0??? 0???      00793         BANKSEL _led_cycle
0092   08??           00794         MOVF    (_led_cycle + 1),W
                      00795 ;; >>> ../../../../src/pic14/gen.c:7529:genCast
                      00796 ;;      1126 rIdx = r0x104F 
0093   0??? 0???      00797         BANKSEL r0x104D
0095   00??           00798         MOVWF   r0x104D
                      00799 ;;; ../../../../src/pic14/gen.c:2358:resultRemat *{*
                      00800 ;;; ../../../../src/pic14/gen.c:3652:genCmpLt *{*
                      00801 ;; ***  genCmpLt  3653
                      00802 ;;      708 register type nRegs=2
                      00803 ;;      708 register type nRegs=2
                      00804 ;;; ../../../../src/pic14/gen.c:3354:genCmp *{*
                      00805 ;; >>> ../../../../src/pic14/gen.c:3329:pic14_mov2w_regOrLit
                      00806 ;;      1126 rIdx = r0x104D 
0096   08??           00807         MOVF    r0x104B,W
                      00808 ;; >>> ../../../../src/pic14/gen.c:3492:genCmp
                      00809 ;;      1126 rIdx = r0x104F 
0097   02??           00810         SUBWF   r0x104D,W
                      00811 ;; >>> ../../../../src/pic14/gen.c:3537:genCmp
0098   1D03           00812         BTFSS   STATUS,2
                      00813 ;; >>> ../../../../src/pic14/gen.c:3545:genCmp
                      00814 ;; ***  popGetLabel  key=58, label offset 8
0099   2???           00815         GOTO    _00166_DS_
                      00816 ;; >>> ../../../../src/pic14/gen.c:3329:pic14_mov2w_regOrLit
                      00817 ;;      1126 rIdx = r0x104C 
009A   08??           00818         MOVF    r0x104A,W
                      00819 ;; >>> ../../../../src/pic14/gen.c:3549:genCmp
                      00820 ;;      1126 rIdx = r0x104E 
009B   02??           00821         SUBWF   r0x104C,W
                      00822 ;;; ../../../../src/pic14/gen.c:3297:genSkipc *{*
                      00823 ;; >>> ../../../../src/pic14/gen.c:3304:genSkipc
009C                  00824 _00166_DS_:
009C   1C03           00825         BTFSS   STATUS,0
                      00826 ;; >>> ../../../../src/pic14/gen.c:3306:genSkipc
                      00827 ;; ***  popGetLabel  key=19, label offset 8
009D   2???           00828         GOTO    _00127_DS_
                      00829 ;;genSkipc:3307: created from rifx:0x7ffdd082ffa0
                      00830 ;;; ../../../../src/pic14/gen.c:2358:resultRemat *{*
                      00831 ;;; ../../../../src/pic14/gen.c:2358:resultRemat *{*
                      00832 ;;; ../../../../src/pic14/gen.c:7159:genAssign *{*
                      00833 ;; ***  genAssign  7160
                      00834 ;;      708 register type nRegs=1
gpasm-1.5.0 #1285 (Jul 12 2020) obj/sdcc-16f8   11/12/23  13:12:30          PAGE 17


LOC    OBJECT CODE    LINE  SOURCE TEXT
  VALUE

                      00835 ;;      line = 7169 result AOP_REG=r0x104C, size=1, left -=-, size=0, right AOP_LIT=0x00, size=1
                      00836 ;; ***  genAssign  7253
                      00837 ;; >>> ../../../../src/pic14/gen.c:7265:genAssign
                      00838 ;;      1126 rIdx = r0x104C 
009E   0??? 0???      00839         BANKSEL r0x104A
00A0   01??           00840         CLRF    r0x104A
                      00841 ;;; ../../../../src/pic14/gen.c:2358:resultRemat *{*
                      00842 ;;; ../../../../src/pic14/gen.c:2820:genGoto *{*
                      00843 ;; >>> ../../../../src/pic14/gen.c:2822:genGoto
                      00844 ;; ***  popGetLabel  key=20, label offset 8
00A1   2???           00845         GOTO    _00128_DS_
                      00846 ;;; ../../../../src/pic14/gen.c:2358:resultRemat *{*
                      00847 ;;; ../../../../src/pic14/gen.c:2802:genLabel *{*
                      00848 ;; ***  genLabel  2805
                      00849 ;;; ../../../../src/pic14/gen.c:2358:resultRemat *{*
                      00850 ;;; ../../../../src/pic14/gen.c:7159:genAssign *{*
                      00851 ;; ***  genAssign  7160
                      00852 ;;      708 register type nRegs=1
                      00853 ;;      line = 7169 result AOP_REG=r0x104C, size=1, left -=-, size=0, right AOP_LIT=0x01, size=1
                      00854 ;; ***  genAssign  7253
                      00855 ;; >>> ../../../../src/pic14/gen.c:7260:genAssign
00A2                  00856 _00127_DS_:
00A2   3001           00857         MOVLW   0x01
                      00858 ;; >>> ../../../../src/pic14/gen.c:7262:genAssign
                      00859 ;;      1126 rIdx = r0x104C 
00A3   0??? 0???      00860         BANKSEL r0x104A
00A5   00??           00861         MOVWF   r0x104A
                      00862 ;;; ../../../../src/pic14/gen.c:2358:resultRemat *{*
                      00863 ;;; ../../../../src/pic14/gen.c:2802:genLabel *{*
                      00864 ;; ***  genLabel  2805
                      00865 ;;; ../../../../src/pic14/gen.c:2358:resultRemat *{*
                      00866 ;;; ../../../../src/pic14/gen.c:1548:genNot *{*
                      00867 ;; ***  genNot  1550
                      00868 ;;      708 register type nRegs=1
                      00869 ;;      708 register type nRegs=1
                      00870 ;;      line = 1555 result AOP_REG=r0x104D, size=1, left AOP_REG=r0x104C, size=1, right -=-, size=0
                      00871 ;; ***  mov2w  1395  offset=0
                      00872 ;; >>> ../../../../src/pic14/gen.c:1400:mov2w
                      00873 ;;      1126 rIdx = r0x104C 
00A6                  00874 _00128_DS_:
00A6   0??? 0???      00875         BANKSEL r0x104A
00A8   08??           00876         MOVF    r0x104A,W
                      00877 ;; >>> ../../../../src/pic14/gen.c:1582:genNot
00A9   3000           00878         MOVLW   0x00
                      00879 ;; >>> ../../../../src/pic14/gen.c:1583:genNot
00AA   1903           00880         BTFSC   STATUS,2
                      00881 ;; >>> ../../../../src/pic14/gen.c:1584:genNot
00AB   3001           00882         MOVLW   0x01
                      00883 ;; >>> ../../../../src/pic14/gen.c:1407:movwf
                      00884 ;;      1126 rIdx = r0x104D 
00AC   00??           00885         MOVWF   r0x104B
                      00886 ;;; ../../../../src/pic14/gen.c:2358:resultRemat *{*
                      00887 ;;; ../../../../src/pic14/gen.c:1548:genNot *{*
gpasm-1.5.0 #1285 (Jul 12 2020) obj/sdcc-16f8   11/12/23  13:12:30          PAGE 18


LOC    OBJECT CODE    LINE  SOURCE TEXT
  VALUE

                      00888 ;; ***  genNot  1550
                      00889 ;;      708 register type nRegs=1
                      00890 ;;      708 register type nRegs=1
                      00891 ;;      line = 1555 result AOP_REG=r0x104C, size=1, left AOP_REG=r0x104D, size=1, right -=-, size=0
                      00892 ;; ***  mov2w  1395  offset=0
                      00893 ;; >>> ../../../../src/pic14/gen.c:1400:mov2w
                      00894 ;;      1126 rIdx = r0x104D 
00AD   08??           00895         MOVF    r0x104B,W
                      00896 ;; >>> ../../../../src/pic14/gen.c:1582:genNot
00AE   3000           00897         MOVLW   0x00
                      00898 ;; >>> ../../../../src/pic14/gen.c:1583:genNot
00AF   1903           00899         BTFSC   STATUS,2
                      00900 ;; >>> ../../../../src/pic14/gen.c:1584:genNot
00B0   3001           00901         MOVLW   0x01
                      00902 ;; >>> ../../../../src/pic14/gen.c:1407:movwf
                      00903 ;;      1126 rIdx = r0x104C 
00B1   00??           00904         MOVWF   r0x104A
00B2   00??           00905         MOVWF   r0x104B
                      00906 ;;; ../../../../src/pic14/gen.c:2358:resultRemat *{*
                      00907 ;;; ../../../../src/pic14/gen.c:5634:genGenericShift *{*
                      00908 ;; ***  genGenericShift  5637
                      00909 ;;      708 register type nRegs=1
                      00910 ;;      708 register type nRegs=1
                      00911 ;; >>> ../../../../src/pic14/gen.c:5328:shiftLeft_Left2ResultLit
00B3   1003           00912         BCF     STATUS,0
                      00913 ;; >>> ../../../../src/pic14/gen.c:5337:shiftLeft_Left2ResultLit
                      00914 ;;      1126 rIdx = r0x104D 
00B4   0D??           00915         RLF     r0x104B,W
                      00916 ;; >>> ../../../../src/pic14/gen.c:5338:shiftLeft_Left2ResultLit
                      00917 ;;      1126 rIdx = r0x104C 
00B5   00??           00918         MOVWF   r0x104A
                      00919 ;; >>> ../../../../src/pic14/gen.c:5328:shiftLeft_Left2ResultLit
00B6   1003           00920         BCF     STATUS,0
                      00921 ;; >>> ../../../../src/pic14/gen.c:5333:shiftLeft_Left2ResultLit
                      00922 ;;      1126 rIdx = r0x104C 
00B7   0D??           00923         RLF     r0x104A,F
                      00924 ;;; ../../../../src/pic14/gen.c:2358:resultRemat *{*
                      00925 ;;; ../../../../src/pic14/gen.c:4324:genOr *{*
                      00926 ;; ***  genOr  4325
                      00927 ;; ***  aopForSym 324
                      00928 ;;      336 sym->rname = _PORTC, size = 1
                      00929 ;;      589
                      00930 ;;      line = 4331 result AOP_DIR=_PORTC, size=1, left AOP_DIR=_PORTC, size=1, right AOP_REG=r0x104C, s
                            ize=1
                      00931 ;;      line = 4357 result AOP_DIR=_PORTC, size=1, left AOP_DIR=_PORTC, size=1, right AOP_REG=r0x104C, s
                            ize=1
                      00932 ;; >>> ../../../../src/pic14/gen.c:4522:genOr
                      00933 ;;      1126 rIdx = r0x104C 
00B8   08??           00934         MOVF    r0x104A,W
                      00935 ;; >>> ../../../../src/pic14/gen.c:4523:genOr
                      00936 ;;      1027
                      00937 ;;      1045  _PORTC   offset=0
00B9   0??? 0???      00938         BANKSEL _PORTC
gpasm-1.5.0 #1285 (Jul 12 2020) obj/sdcc-16f8   11/12/23  13:12:30          PAGE 19


LOC    OBJECT CODE    LINE  SOURCE TEXT
  VALUE

00BB   04??           00939         IORWF   _PORTC,F
                      00940 ;;; ../../../../src/pic14/gen.c:2358:resultRemat *{*
                      00941 ;;; ../../../../src/pic14/gen.c:7353:genCast *{*
                      00942 ;; ***  genCast  7354
                      00943 ;; ***  aopForSym 324
                      00944 ;;      336 sym->rname = _msecpart, size = 2
                      00945 ;;      708 register type nRegs=2
                      00946 ;;      line = 7362 result AOP_REG=r0x104C, size=2, left -=-, size=0, right AOP_DIR=_msecpart, size=2
                      00947 ;; ***  genCast  7504
                      00948 ;; >>> ../../../../src/pic14/gen.c:7528:genCast
                      00949 ;;      1027
                      00950 ;;      1045  _msecpart   offset=0
                      00951         .line   95; "LC-meter.c"        if(msecpart >= 1000) {
00BC   0??? 0???      00952         BANKSEL _msecpart
00BE   08??           00953         MOVF    _msecpart,W
                      00954 ;; >>> ../../../../src/pic14/gen.c:7529:genCast
                      00955 ;;      1126 rIdx = r0x104C 
00BF   0??? 0???      00956         BANKSEL r0x104A
00C1   00??           00957         MOVWF   r0x104A
                      00958 ;; >>> ../../../../src/pic14/gen.c:7528:genCast
                      00959 ;;      1027
                      00960 ;;      1045  _msecpart   offset=1
00C2   0??? 0???      00961         BANKSEL _msecpart
00C4   08??           00962         MOVF    (_msecpart + 1),W
                      00963 ;; >>> ../../../../src/pic14/gen.c:7529:genCast
                      00964 ;;      1126 rIdx = r0x104D 
00C5   0??? 0???      00965         BANKSEL r0x104B
00C7   00??           00966         MOVWF   r0x104B
                      00967 ;;; ../../../../src/pic14/gen.c:2358:resultRemat *{*
                      00968 ;;; ../../../../src/pic14/gen.c:3652:genCmpLt *{*
                      00969 ;; ***  genCmpLt  3653
                      00970 ;;      708 register type nRegs=2
                      00971 ;;; ../../../../src/pic14/gen.c:3354:genCmp *{*
                      00972 ;;unsigned compare: left < lit(0x3E8=1000), size=2
                      00973 ;; >>> ../../../../src/pic14/gen.c:3325:pic14_mov2w_regOrLit
00C8   3003           00974         MOVLW   0x03
                      00975 ;; >>> ../../../../src/pic14/gen.c:3492:genCmp
                      00976 ;;      1126 rIdx = r0x104D 
00C9   02??           00977         SUBWF   r0x104B,W
                      00978 ;; >>> ../../../../src/pic14/gen.c:3537:genCmp
00CA   1D03           00979         BTFSS   STATUS,2
                      00980 ;; >>> ../../../../src/pic14/gen.c:3545:genCmp
                      00981 ;; ***  popGetLabel  key=59, label offset 8
00CB   2???           00982         GOTO    _00167_DS_
                      00983 ;; >>> ../../../../src/pic14/gen.c:3325:pic14_mov2w_regOrLit
00CC   30E8           00984         MOVLW   0xe8
                      00985 ;; >>> ../../../../src/pic14/gen.c:3549:genCmp
                      00986 ;;      1126 rIdx = r0x104C 
00CD   02??           00987         SUBWF   r0x104A,W
                      00988 ;;; ../../../../src/pic14/gen.c:3297:genSkipc *{*
                      00989 ;; >>> ../../../../src/pic14/gen.c:3304:genSkipc
00CE                  00990 _00167_DS_:
00CE   1C03           00991         BTFSS   STATUS,0
gpasm-1.5.0 #1285 (Jul 12 2020) obj/sdcc-16f8   11/12/23  13:12:30          PAGE 20


LOC    OBJECT CODE    LINE  SOURCE TEXT
  VALUE

                      00992 ;; >>> ../../../../src/pic14/gen.c:3306:genSkipc
                      00993 ;; ***  popGetLabel  key=4, label offset 8
00CF   2???           00994         GOTO    _00112_DS_
                      00995 ;;genSkipc:3307: created from rifx:0x7ffdd082ffa0
                      00996 ;;; ../../../../src/pic14/gen.c:2358:resultRemat *{*
                      00997 ;;; ../../../../src/pic14/gen.c:2358:resultRemat *{*
                      00998 ;;; ../../../../src/pic14/gen.c:7159:genAssign *{*
                      00999 ;; ***  genAssign  7160
                      01000 ;; ***  aopForSym 324
                      01001 ;;      336 sym->rname = _seconds, size = 4
                      01002 ;;      708 register type nRegs=4
                      01003 ;;      line = 7169 result AOP_REG=r0x104C, size=4, left -=-, size=0, right AOP_DIR=_seconds, size=4
                      01004 ;; ***  genAssign  7253
                      01005 ;;; ../../../../src/pic14/gen.c:1357:mov2w_op *{*
                      01006 ;; ***  mov2w  1395  offset=0
                      01007 ;; >>> ../../../../src/pic14/gen.c:1400:mov2w
                      01008 ;;      1027
                      01009 ;;      1045  _seconds   offset=0
                      01010         .line   97; "LC-meter.c"        seconds++;
00D0   0??? 0???      01011         BANKSEL _seconds
00D2   08??           01012         MOVF    _seconds,W
                      01013 ;; >>> ../../../../src/pic14/gen.c:7280:genAssign
                      01014 ;;      1126 rIdx = r0x104C 
00D3   0??? 0???      01015         BANKSEL r0x104A
00D5   00??           01016         MOVWF   r0x104A
                      01017 ;; ***  genAssign  7253
                      01018 ;;; ../../../../src/pic14/gen.c:1357:mov2w_op *{*
                      01019 ;; ***  mov2w  1395  offset=1
                      01020 ;; >>> ../../../../src/pic14/gen.c:1400:mov2w
                      01021 ;;      1027
                      01022 ;;      1045  _seconds   offset=1
00D6   0??? 0???      01023         BANKSEL _seconds
00D8   08??           01024         MOVF    (_seconds + 1),W
                      01025 ;; >>> ../../../../src/pic14/gen.c:7280:genAssign
                      01026 ;;      1126 rIdx = r0x104D 
00D9   0??? 0???      01027         BANKSEL r0x104B
00DB   00??           01028         MOVWF   r0x104B
                      01029 ;; ***  genAssign  7253
                      01030 ;;; ../../../../src/pic14/gen.c:1357:mov2w_op *{*
                      01031 ;; ***  mov2w  1395  offset=2
                      01032 ;; >>> ../../../../src/pic14/gen.c:1400:mov2w
                      01033 ;;      1027
                      01034 ;;      1045  _seconds   offset=2
00DC   0??? 0???      01035         BANKSEL _seconds
00DE   08??           01036         MOVF    (_seconds + 2),W
                      01037 ;; >>> ../../../../src/pic14/gen.c:7280:genAssign
                      01038 ;;      1126 rIdx = r0x104E 
00DF   0??? 0???      01039         BANKSEL r0x104C
00E1   00??           01040         MOVWF   r0x104C
                      01041 ;; ***  genAssign  7253
                      01042 ;;; ../../../../src/pic14/gen.c:1357:mov2w_op *{*
                      01043 ;; ***  mov2w  1395  offset=3
                      01044 ;; >>> ../../../../src/pic14/gen.c:1400:mov2w
gpasm-1.5.0 #1285 (Jul 12 2020) obj/sdcc-16f8   11/12/23  13:12:30          PAGE 21


LOC    OBJECT CODE    LINE  SOURCE TEXT
  VALUE

                      01045 ;;      1027
                      01046 ;;      1045  _seconds   offset=3
00E2   0??? 0???      01047         BANKSEL _seconds
00E4   08??           01048         MOVF    (_seconds + 3),W
                      01049 ;; >>> ../../../../src/pic14/gen.c:7280:genAssign
                      01050 ;;      1126 rIdx = r0x104F 
00E5   0??? 0???      01051         BANKSEL r0x104D
00E7   00??           01052         MOVWF   r0x104D
                      01053 ;;; ../../../../src/pic14/gen.c:2358:resultRemat *{*
                      01054 ;; ***  genPlus  707
                      01055 ;;; ../../../../src/pic14/genarith.c:708:genPlus *{*
                      01056 ;;      708 register type nRegs=4
                      01057 ;; ***  aopForSym 324
                      01058 ;;      336 sym->rname = _seconds, size = 4
                      01059 ;;      line = 714 result AOP_DIR=_seconds, size=4, left AOP_REG=r0x104C, size=4, right AOP_LIT=0x01, si
                            ze=1
                      01060 ;;; ../../../../src/pic14/genarith.c:159:genPlusIncr *{*
                      01061 ;; ***  genPlusIncr  161
                      01062 ;;      result AOP_DIR, left AOP_REG, right AOP_LIT
                      01063 ;;      genPlusIncr  173
                      01064 ;;      genPlusIncr  197
                      01065 ;;      adding lit to something. size 4
                      01066 ;;; ../../../../src/pic14/genarith.c:286:genAddLit *{*
                      01067 ;; ***  genAddLit  287
                      01068 ;;  left and result aren't same genAddLit  537
                      01069 ;; >>> ../../../../src/pic14/genarith.c:601:genAddLit
00E8   3001           01070         MOVLW   0x01
                      01071 ;; >>> ../../../../src/pic14/genarith.c:602:genAddLit
                      01072 ;;      1126 rIdx = r0x104C 
00E9   07??           01073         ADDWF   r0x104A,W
                      01074 ;;; ../../../../src/pic14/genarith.c:270:emitMOVWF *{*
                      01075 ;; >>> ../../../../src/pic14/genarith.c:274:emitMOVWF
                      01076 ;;      1027
                      01077 ;;      1045  _seconds   offset=0
00EA   0??? 0???      01078         BANKSEL _seconds
00EC   00??           01079         MOVWF   _seconds
                      01080 ;; >>> ../../../../src/pic14/genarith.c:677:genAddLit
                      01081 ;;      1027
                      01082 ;;      1045  _seconds   offset=1
00ED   01??           01083         CLRF    (_seconds + 1)
                      01084 ;; >>> ../../../../src/pic14/genarith.c:678:genAddLit
                      01085 ;;      1027
                      01086 ;;      1045  _seconds   offset=1
00EE   0D??           01087         RLF     (_seconds + 1),F
                      01088 ;; >>> ../../../../src/pic14/genarith.c:679:genAddLit
                      01089 ;;      1126 rIdx = r0x104D 
00EF   0??? 0???      01090         BANKSEL r0x104B
00F1   08??           01091         MOVF    r0x104B,W
                      01092 ;; >>> ../../../../src/pic14/genarith.c:680:genAddLit
                      01093 ;;      1027
                      01094 ;;      1045  _seconds   offset=1
00F2   0??? 0???      01095         BANKSEL _seconds
00F4   07??           01096         ADDWF   (_seconds + 1),F
gpasm-1.5.0 #1285 (Jul 12 2020) obj/sdcc-16f8   11/12/23  13:12:30          PAGE 22


LOC    OBJECT CODE    LINE  SOURCE TEXT
  VALUE

                      01097 ;; >>> ../../../../src/pic14/genarith.c:677:genAddLit
                      01098 ;;      1027
                      01099 ;;      1045  _seconds   offset=2
00F5   01??           01100         CLRF    (_seconds + 2)
                      01101 ;; >>> ../../../../src/pic14/genarith.c:678:genAddLit
                      01102 ;;      1027
                      01103 ;;      1045  _seconds   offset=2
00F6   0D??           01104         RLF     (_seconds + 2),F
                      01105 ;; >>> ../../../../src/pic14/genarith.c:679:genAddLit
                      01106 ;;      1126 rIdx = r0x104E 
00F7   0??? 0???      01107         BANKSEL r0x104C
00F9   08??           01108         MOVF    r0x104C,W
                      01109 ;; >>> ../../../../src/pic14/genarith.c:680:genAddLit
                      01110 ;;      1027
                      01111 ;;      1045  _seconds   offset=2
00FA   0??? 0???      01112         BANKSEL _seconds
00FC   07??           01113         ADDWF   (_seconds + 2),F
                      01114 ;; >>> ../../../../src/pic14/genarith.c:677:genAddLit
                      01115 ;;      1027
                      01116 ;;      1045  _seconds   offset=3
00FD   01??           01117         CLRF    (_seconds + 3)
                      01118 ;; >>> ../../../../src/pic14/genarith.c:678:genAddLit
                      01119 ;;      1027
                      01120 ;;      1045  _seconds   offset=3
00FE   0D??           01121         RLF     (_seconds + 3),F
                      01122 ;; >>> ../../../../src/pic14/genarith.c:679:genAddLit
                      01123 ;;      1126 rIdx = r0x104F 
00FF   0??? 0???      01124         BANKSEL r0x104D
0101   08??           01125         MOVF    r0x104D,W
                      01126 ;; >>> ../../../../src/pic14/genarith.c:680:genAddLit
                      01127 ;;      1027
                      01128 ;;      1045  _seconds   offset=3
0102   0??? 0???      01129         BANKSEL _seconds
0104   07??           01130         ADDWF   (_seconds + 3),F
                      01131 ;; ***  addSign  1087
                      01132 ;;; ../../../../src/pic14/genarith.c:1088:addSign *{*
                      01133 ;;; ../../../../src/pic14/gen.c:2358:resultRemat *{*
                      01134 ;;; ../../../../src/pic14/gen.c:7353:genCast *{*
                      01135 ;; ***  genCast  7354
                      01136 ;; ***  aopForSym 324
                      01137 ;;      336 sym->rname = _msecpart, size = 2
                      01138 ;;      708 register type nRegs=2
                      01139 ;;      line = 7362 result AOP_REG=r0x104C, size=2, left -=-, size=0, right AOP_DIR=_msecpart, size=2
                      01140 ;; ***  genCast  7504
                      01141 ;; >>> ../../../../src/pic14/gen.c:7528:genCast
                      01142 ;;      1027
                      01143 ;;      1045  _msecpart   offset=0
                      01144         .line   98; "LC-meter.c"        msecpart -= 1000;
0105   0??? 0???      01145         BANKSEL _msecpart
0107   08??           01146         MOVF    _msecpart,W
                      01147 ;; >>> ../../../../src/pic14/gen.c:7529:genCast
                      01148 ;;      1126 rIdx = r0x104C 
0108   0??? 0???      01149         BANKSEL r0x104A
gpasm-1.5.0 #1285 (Jul 12 2020) obj/sdcc-16f8   11/12/23  13:12:30          PAGE 23


LOC    OBJECT CODE    LINE  SOURCE TEXT
  VALUE

010A   00??           01150         MOVWF   r0x104A
                      01151 ;; >>> ../../../../src/pic14/gen.c:7528:genCast
                      01152 ;;      1027
                      01153 ;;      1045  _msecpart   offset=1
010B   0??? 0???      01154         BANKSEL _msecpart
010D   08??           01155         MOVF    (_msecpart + 1),W
                      01156 ;; >>> ../../../../src/pic14/gen.c:7529:genCast
                      01157 ;;      1126 rIdx = r0x104D 
010E   0??? 0???      01158         BANKSEL r0x104B
0110   00??           01159         MOVWF   r0x104B
                      01160 ;;; ../../../../src/pic14/gen.c:2358:resultRemat *{*
                      01161 ;;; ../../../../src/pic14/gen.c:7568:genDjnz *{*
                      01162 ;; ***  genDjnz  7569
                      01163 ;;; ../../../../src/pic14/genarith.c:1122:genMinus *{*
                      01164 ;; ***  genMinus  1123
                      01165 ;;      708 register type nRegs=2
                      01166 ;;      708 register type nRegs=2
                      01167 ;;      result AOP_REG, left AOP_REG, right AOP_LIT
                      01168 ;;; ../../../../src/pic14/genarith.c:286:genAddLit *{*
                      01169 ;; ***  genAddLit  287
                      01170 ;; hi is generic        252   genAddLit  427
                      01171 ;; >>> ../../../../src/pic14/genarith.c:442:genAddLit
0111   3018           01172         MOVLW   0x18
                      01173 ;; >>> ../../../../src/pic14/genarith.c:443:genAddLit
                      01174 ;;      1126 rIdx = r0x104C 
0112   07??           01175         ADDWF   r0x104A,F
                      01176 ;; >>> ../../../../src/pic14/genarith.c:444:genAddLit
0113   30FC           01177         MOVLW   0xfc
                      01178 ;; >>> ../../../../src/pic14/genarith.c:445:genAddLit
0114   1803           01179         BTFSC   STATUS,0
                      01180 ;; >>> ../../../../src/pic14/genarith.c:446:genAddLit
0115   30FD           01181         MOVLW   0xfd
                      01182 ;; >>> ../../../../src/pic14/genarith.c:447:genAddLit
                      01183 ;;      1126 rIdx = r0x104D 
0116   07??           01184         ADDWF   r0x104B,F
                      01185 ;; ***  addSign  1087
                      01186 ;;; ../../../../src/pic14/genarith.c:1088:addSign *{*
                      01187 ;;; ../../../../src/pic14/gen.c:2358:resultRemat *{*
                      01188 ;;; ../../../../src/pic14/gen.c:7353:genCast *{*
                      01189 ;; ***  genCast  7354
                      01190 ;;      708 register type nRegs=2
                      01191 ;; ***  aopForSym 324
                      01192 ;;      336 sym->rname = _msecpart, size = 2
                      01193 ;;      line = 7362 result AOP_DIR=_msecpart, size=2, left -=-, size=0, right AOP_REG=r0x104C, size=2
                      01194 ;; ***  genCast  7504
                      01195 ;; >>> ../../../../src/pic14/gen.c:7528:genCast
                      01196 ;;      1126 rIdx = r0x104C 
0117   08??           01197         MOVF    r0x104A,W
                      01198 ;; >>> ../../../../src/pic14/gen.c:7529:genCast
                      01199 ;;      1027
                      01200 ;;      1045  _msecpart   offset=0
0118   0??? 0???      01201         BANKSEL _msecpart
011A   00??           01202         MOVWF   _msecpart
gpasm-1.5.0 #1285 (Jul 12 2020) obj/sdcc-16f8   11/12/23  13:12:30          PAGE 24


LOC    OBJECT CODE    LINE  SOURCE TEXT
  VALUE

                      01203 ;; >>> ../../../../src/pic14/gen.c:7528:genCast
                      01204 ;;      1126 rIdx = r0x104D 
011B   0??? 0???      01205         BANKSEL r0x104B
011D   08??           01206         MOVF    r0x104B,W
                      01207 ;; >>> ../../../../src/pic14/gen.c:7529:genCast
                      01208 ;;      1027
                      01209 ;;      1045  _msecpart   offset=1
011E   0??? 0???      01210         BANKSEL _msecpart
0120   00??           01211         MOVWF   (_msecpart + 1)
                      01212 ;;; ../../../../src/pic14/gen.c:2358:resultRemat *{*
                      01213 ;;; ../../../../src/pic14/gen.c:2802:genLabel *{*
                      01214 ;; ***  genLabel  2805
                      01215 ;;; ../../../../src/pic14/gen.c:2358:resultRemat *{*
                      01216 ;;; ../../../../src/pic14/gen.c:2358:resultRemat *{*
                      01217 ;;; ../../../../src/pic14/gen.c:6918:genPointerSet *{*
                      01218 ;; ***  genPointerSet  6919
                      01219 ;;; ../../../../src/pic14/gen.c:6838:genNearPointerSet *{*
                      01220 ;; ***  genNearPointerSet  6839
                      01221 ;;      627
                      01222 ;;      aopForRemat 406
                      01223 ;;      432: rname _PIR1bits, val 0, const = 0
                      01224 ;; ***  genNearPointerSet  6853
                      01225 ;;      837: aopGet AOP_PCODE type PO_IMMEDIATE
                      01226 ;;      _PIR1bits
                      01227 ;;      line = 6855 result AOP_PCODE=_PIR1bits, size=2, left -=-, size=0, right AOP_LIT=0x00, size=1
                      01228 ;;; ../../../../src/pic14/gen.c:6656:genPackBits *{*
                      01229 ;; ***  genPackBits  6657
                      01230 ;;      837: aopGet AOP_PCODE type PO_IMMEDIATE
                      01231 ;;      _PIR1bits
                      01232 ;; >>> ../../../../src/pic14/gen.c:6679:genPackBits
0121                  01233 _00112_DS_:
                      01234         .line   102; "LC-meter.c"       TMR2IF = 0;
0121   0??? 0???      01235         BANKSEL _PIR1bits
0123   10??           01236         BCF     _PIR1bits,1
                      01237 ;; ***  genNearPointerSet  6872
                      01238 ;;; ../../../../src/pic14/gen.c:2358:resultRemat *{*
                      01239 ;;; ../../../../src/pic14/gen.c:2802:genLabel *{*
                      01240 ;; ***  genLabel  2805
                      01241 ;;; ../../../../src/pic14/gen.c:2358:resultRemat *{*
                      01242 ;;; ../../../../src/pic14/gen.c:2358:resultRemat *{*
                      01243 ;;; ../../../../src/pic14/gen.c:6366:genPointerGet *{*
                      01244 ;; ***  genPointerGet  6367
                      01245 ;;; ../../../../src/pic14/gen.c:6252:genNearPointerGet *{*
                      01246 ;; ***  genNearPointerGet  6253
                      01247 ;;      627
                      01248 ;;      aopForRemat 406
                      01249 ;;      432: rname _PIR1bits, val 0, const = 0
                      01250 ;; ***  genNearPointerGet  6269
                      01251 ;;      708 register type nRegs=1
                      01252 ;;; ../../../../src/pic14/gen.c:6110:genUnpackBits *{*
                      01253 ;; ***  genUnpackBits  6111
                      01254 ;;      837: aopGet AOP_PCODE type PO_IMMEDIATE
                      01255 ;;      _PIR1bits
gpasm-1.5.0 #1285 (Jul 12 2020) obj/sdcc-16f8   11/12/23  13:12:30          PAGE 25


LOC    OBJECT CODE    LINE  SOURCE TEXT
  VALUE

                      01256 ;; >>> ../../../../src/pic14/gen.c:6133:genUnpackBits
0124                  01257 _00114_DS_:
                      01258         .line   105; "LC-meter.c"       ser_int();
0124   0??? 0???      01259         BANKSEL _PIR1bits
0126   1E??           01260         BTFSS   _PIR1bits,5
                      01261 ;; >>> ../../../../src/pic14/gen.c:6134:genUnpackBits
                      01262 ;; ***  popGetLabel  key=10, label offset 8
0127   2???           01263         GOTO    _00118_DS_
                      01264 ;;; ../../../../src/pic14/gen.c:2358:resultRemat *{*
                      01265 ;;; ../../../../src/pic14/gen.c:2358:resultRemat *{*
                      01266 ;;; ../../../../src/pic14/gen.c:2358:resultRemat *{*
                      01267 ;; ***  genPlus  707
                      01268 ;;; ../../../../src/pic14/genarith.c:708:genPlus *{*
                      01269 ;;      627
                      01270 ;;      aopForRemat 406
                      01271 ;;      432: rname _ser_rxfifo, val 0, const = 0
                      01272 ;; ***  aopForSym 324
                      01273 ;;      336 sym->rname = _ser_rxiptr, size = 1
                      01274 ;;      708 register type nRegs=2
                      01275 ;;      837: aopGet AOP_PCODE type PO_IMMEDIATE
                      01276 ;;      _ser_rxfifo
                      01277 ;;      line = 714 result AOP_REG=r0x104C, size=2, left AOP_PCODE=_ser_rxfifo, size=2, right AOP_DIR=_se
                            r_rxiptr, size=1
                      01278 ;;; ../../../../src/pic14/genarith.c:159:genPlusIncr *{*
                      01279 ;; ***  genPlusIncr  161
                      01280 ;;      result AOP_REG, left AOP_PCODE, right AOP_DIR
                      01281 ;; ***  genPlus  814
                      01282 ;;      837: aopGet AOP_PCODE type PO_IMMEDIATE
                      01283 ;;      _ser_rxfifo
                      01284 ;; >>> ../../../../src/pic14/genarith.c:823:genPlus
                      01285 ;;      1027
                      01286 ;;      1045  _ser_rxiptr   offset=0
0128   0??? 0???      01287         BANKSEL _ser_rxiptr
012A   08??           01288         MOVF    _ser_rxiptr,W
                      01289 ;; >>> ../../../../src/pic14/genarith.c:832:genPlus
012B   3E??           01290         ADDLW   (_ser_rxfifo + 0)
                      01291 ;; >>> ../../../../src/pic14/genarith.c:833:genPlus
                      01292 ;;      1126 rIdx = r0x104C 
012C   0??? 0???      01293         BANKSEL r0x104A
012E   00??           01294         MOVWF   r0x104A
                      01295 ;;; ../../../../src/pic14/gen.c:1357:mov2w_op *{*
                      01296 ;; >>> ../../../../src/pic14/gen.c:1375:mov2w_op
012F   30??           01297         MOVLW   high (_ser_rxfifo + 0)
                      01298 ;; >>> ../../../../src/pic14/genarith.c:1006:genPlus
0130   1803           01299         BTFSC   STATUS,0
                      01300 ;; >>> ../../../../src/pic14/genarith.c:1007:genPlus
0131   3E01           01301         ADDLW   0x01
                      01302 ;; >>> ../../../../src/pic14/genarith.c:1008:genPlus
                      01303 ;;      1126 rIdx = r0x104D 
0132   00??           01304         MOVWF   r0x104B
                      01305 ;;; ../../../../src/pic14/gen.c:2358:resultRemat *{*
                      01306 ;;; ../../../../src/pic14/gen.c:6918:genPointerSet *{*
                      01307 ;; ***  genPointerSet  6919
gpasm-1.5.0 #1285 (Jul 12 2020) obj/sdcc-16f8   11/12/23  13:12:30          PAGE 26


LOC    OBJECT CODE    LINE  SOURCE TEXT
  VALUE

                      01308 ;;; ../../../../src/pic14/gen.c:6838:genNearPointerSet *{*
                      01309 ;; ***  genNearPointerSet  6839
                      01310 ;;      708 register type nRegs=2
                      01311 ;; ***  genNearPointerSet  6853
                      01312 ;; ***  aopForSym 324
                      01313 ;;      336 sym->rname = _RCREG, size = 1
                      01314 ;;      line = 6855 result AOP_REG=r0x104C, size=2, left -=-, size=0, right AOP_DIR=_RCREG, size=1
                      01315 ;;; ../../../../src/pic14/gen.c:1357:mov2w_op *{*
                      01316 ;; ***  mov2w  1395  offset=0
                      01317 ;; >>> ../../../../src/pic14/gen.c:1400:mov2w
                      01318 ;;      1126 rIdx = r0x104C 
0133   08??           01319         MOVF    r0x104A,W
                      01320 ;; >>> ../../../../src/pic14/gen.c:5818:setup_fsr
0134   1283 1303      01321         BANKSEL FSR
0136   0084           01322         MOVWF   FSR
                      01323 ;;; ../../../../src/pic14/gen.c:5769:SetIrp *{*
                      01324 ;; >>> ../../../../src/pic14/gen.c:5796:SetIrp
0137   1383           01325         BCF     STATUS,7
                      01326 ;; >>> ../../../../src/pic14/gen.c:5799:SetIrp
0138   0??? 0???      01327         BANKSEL r0x104B
013A   18??           01328         BTFSC   r0x104B,0
                      01329 ;; >>> ../../../../src/pic14/gen.c:5800:SetIrp
013B   1783           01330         BSF     STATUS,7
                      01331 ;; >>> ../../../../src/pic14/gen.c:6605:emitPtrPut
                      01332 ;;      1027
                      01333 ;;      1041  _RCREG   offset=0 - had to alloc by reg name
013C   0??? 0???      01334         BANKSEL _RCREG
013E   08??           01335         MOVF    _RCREG,W
                      01336 ;; >>> ../../../../src/pic14/gen.c:6606:emitPtrPut
013F   0080           01337         MOVWF   INDF
                      01338 ;; ***  genNearPointerSet  6872
                      01339 ;;; ../../../../src/pic14/gen.c:2358:resultRemat *{*
                      01340 ;;; ../../../../src/pic14/gen.c:7353:genCast *{*
                      01341 ;; ***  genCast  7354
                      01342 ;; ***  aopForSym 324
                      01343 ;;      336 sym->rname = _ser_rxiptr, size = 1
                      01344 ;;      708 register type nRegs=1
                      01345 ;;      line = 7362 result AOP_REG=r0x104C, size=1, left -=-, size=0, right AOP_DIR=_ser_rxiptr, size=1
                      01346 ;; ***  genCast  7504
                      01347 ;; >>> ../../../../src/pic14/gen.c:7528:genCast
                      01348 ;;      1027
                      01349 ;;      1045  _ser_rxiptr   offset=0
0140   0??? 0???      01350         BANKSEL _ser_rxiptr
0142   08??           01351         MOVF    _ser_rxiptr,W
                      01352 ;; >>> ../../../../src/pic14/gen.c:7529:genCast
                      01353 ;;      1126 rIdx = r0x104C 
0143   0??? 0???      01354         BANKSEL r0x104A
0145   00??           01355         MOVWF   r0x104A
                      01356 ;;; ../../../../src/pic14/gen.c:2358:resultRemat *{*
                      01357 ;; ***  genPlus  707
                      01358 ;;; ../../../../src/pic14/genarith.c:708:genPlus *{*
                      01359 ;;      708 register type nRegs=1
                      01360 ;;      708 register type nRegs=1
gpasm-1.5.0 #1285 (Jul 12 2020) obj/sdcc-16f8   11/12/23  13:12:30          PAGE 27


LOC    OBJECT CODE    LINE  SOURCE TEXT
  VALUE

                      01361 ;;      line = 714 result AOP_REG=r0x104C, size=1, left AOP_REG=r0x104C, size=1, right AOP_LIT=0x01, siz
                            e=1
                      01362 ;;; ../../../../src/pic14/genarith.c:159:genPlusIncr *{*
                      01363 ;; ***  genPlusIncr  161
                      01364 ;;      result AOP_REG, left AOP_REG, right AOP_LIT
                      01365 ;;      genPlusIncr  173
                      01366 ;; >>> ../../../../src/pic14/genarith.c:185:genPlusIncr
                      01367 ;;      1126 rIdx = r0x104C 
0146   0A??           01368         INCF    r0x104A,F
                      01369 ;;; ../../../../src/pic14/gen.c:2358:resultRemat *{*
                      01370 ;;; ../../../../src/pic14/gen.c:4023:genAnd *{*
                      01371 ;; ***  genAnd  4024
                      01372 ;;      708 register type nRegs=1
                      01373 ;; ***  aopForSym 324
                      01374 ;;      336 sym->rname = _ser_tmp, size = 1
                      01375 ;;      line = 4059 result AOP_DIR=_ser_tmp, size=1, left AOP_REG=r0x104C, size=1, right AOP_LIT=0x0f, s
                            ize=1
                      01376 ;; >>> ../../../../src/pic14/gen.c:4294:genAnd
0147   300F           01377         MOVLW   0x0f
                      01378 ;; >>> ../../../../src/pic14/gen.c:4295:genAnd
                      01379 ;;      1126 rIdx = r0x104C 
0148   05??           01380         ANDWF   r0x104A,W
                      01381 ;; >>> ../../../../src/pic14/gen.c:4296:genAnd
                      01382 ;;      1027
                      01383 ;;      1045  _ser_tmp   offset=0
0149   0??? 0???      01384         BANKSEL _ser_tmp
014B   00??           01385         MOVWF   _ser_tmp
                      01386 ;;; ../../../../src/pic14/gen.c:2358:resultRemat *{*
                      01387 ;;; ../../../../src/pic14/gen.c:3689:genCmpEq *{*
                      01388 ;; ***  genCmpEq  3690
                      01389 ;; ifx is non-null
                      01390 ;; ***  aopForSym 324
                      01391 ;;      336 sym->rname = _ser_tmp, size = 1
                      01392 ;; ***  aopForSym 324
                      01393 ;;      336 sym->rname = _ser_rxoptr, size = 1
                      01394 ;;      line = 3701 result AOP_CRY=0x00, size=0, left AOP_DIR=_ser_tmp, size=1, right AOP_DIR=_ser_rxopt
                            r, size=1
                      01395 ;; ***  mov2w  1395  offset=0
                      01396 ;; >>> ../../../../src/pic14/gen.c:1400:mov2w
                      01397 ;;      1027
                      01398 ;;      1041  _ser_rxoptr   offset=0 - had to alloc by reg name
014C   0??? 0???      01399         BANKSEL _ser_rxoptr
014E   08??           01400         MOVF    _ser_rxoptr,W
                      01401 ;; >>> ../../../../src/pic14/gen.c:3801:genCmpEq
                      01402 ;;      1027
                      01403 ;;      1045  _ser_tmp   offset=0
014F   0??? 0???      01404         BANKSEL _ser_tmp
0151   06??           01405         XORWF   _ser_tmp,W
0152   1903           01406         BTFSC   STATUS,2
0153   2???           01407         GOTO    _00118_DS_
0154   08??           01408         MOVF    _ser_tmp,W
0155   0??? 0???      01409         BANKSEL _ser_rxiptr
0157   00??           01410         MOVWF   _ser_rxiptr
gpasm-1.5.0 #1285 (Jul 12 2020) obj/sdcc-16f8   11/12/23  13:12:30          PAGE 28


LOC    OBJECT CODE    LINE  SOURCE TEXT
  VALUE

                      01411 ;;; ../../../../src/pic14/gen.c:2358:resultRemat *{*
                      01412 ;;; ../../../../src/pic14/gen.c:2802:genLabel *{*
                      01413 ;; ***  genLabel  2805
                      01414 ;;; ../../../../src/pic14/gen.c:2358:resultRemat *{*
                      01415 ;;; ../../../../src/pic14/gen.c:2358:resultRemat *{*
                      01416 ;;; ../../../../src/pic14/gen.c:6366:genPointerGet *{*
                      01417 ;; ***  genPointerGet  6367
                      01418 ;;; ../../../../src/pic14/gen.c:6252:genNearPointerGet *{*
                      01419 ;; ***  genNearPointerGet  6253
                      01420 ;;      627
                      01421 ;;      aopForRemat 406
                      01422 ;;      432: rname _PIR1bits, val 0, const = 0
                      01423 ;; ***  genNearPointerGet  6269
                      01424 ;;      708 register type nRegs=1
                      01425 ;;; ../../../../src/pic14/gen.c:6110:genUnpackBits *{*
                      01426 ;; ***  genUnpackBits  6111
                      01427 ;;      837: aopGet AOP_PCODE type PO_IMMEDIATE
                      01428 ;;      _PIR1bits
                      01429 ;; >>> ../../../../src/pic14/gen.c:6133:genUnpackBits
0158                  01430 _00118_DS_:
0158   0??? 0???      01431         BANKSEL _PIR1bits
015A   1E??           01432         BTFSS   _PIR1bits,4
                      01433 ;; >>> ../../../../src/pic14/gen.c:6134:genUnpackBits
                      01434 ;; ***  popGetLabel  key=16, label offset 8
015B   2???           01435         GOTO    _00124_DS_
                      01436 ;;; ../../../../src/pic14/gen.c:2358:resultRemat *{*
                      01437 ;;; ../../../../src/pic14/gen.c:2358:resultRemat *{*
                      01438 ;;; ../../../../src/pic14/gen.c:2358:resultRemat *{*
                      01439 ;;; ../../../../src/pic14/gen.c:6366:genPointerGet *{*
                      01440 ;; ***  genPointerGet  6367
                      01441 ;;; ../../../../src/pic14/gen.c:6252:genNearPointerGet *{*
                      01442 ;; ***  genNearPointerGet  6253
                      01443 ;;      627
                      01444 ;;      aopForRemat 406
                      01445 ;;      432: rname _PIE1bits, val 0, const = 0
                      01446 ;; ***  genNearPointerGet  6269
                      01447 ;;      708 register type nRegs=1
                      01448 ;;; ../../../../src/pic14/gen.c:6110:genUnpackBits *{*
                      01449 ;; ***  genUnpackBits  6111
                      01450 ;;      837: aopGet AOP_PCODE type PO_IMMEDIATE
                      01451 ;;      _PIE1bits
                      01452 ;; >>> ../../../../src/pic14/gen.c:6133:genUnpackBits
015C   0??? 0???      01453         BANKSEL _PIE1bits
015E   1E??           01454         BTFSS   _PIE1bits,4
                      01455 ;; >>> ../../../../src/pic14/gen.c:6134:genUnpackBits
                      01456 ;; ***  popGetLabel  key=16, label offset 8
015F   2???           01457         GOTO    _00124_DS_
                      01458 ;;; ../../../../src/pic14/gen.c:2358:resultRemat *{*
                      01459 ;;; ../../../../src/pic14/gen.c:2358:resultRemat *{*
                      01460 ;;; ../../../../src/pic14/gen.c:2358:resultRemat *{*
                      01461 ;; ***  genPlus  707
                      01462 ;;; ../../../../src/pic14/genarith.c:708:genPlus *{*
                      01463 ;;      627
gpasm-1.5.0 #1285 (Jul 12 2020) obj/sdcc-16f8   11/12/23  13:12:30          PAGE 29


LOC    OBJECT CODE    LINE  SOURCE TEXT
  VALUE

                      01464 ;;      aopForRemat 406
                      01465 ;;      432: rname _ser_txfifo, val 0, const = 0
                      01466 ;; ***  aopForSym 324
                      01467 ;;      336 sym->rname = _ser_txoptr, size = 1
                      01468 ;;      708 register type nRegs=2
                      01469 ;;      837: aopGet AOP_PCODE type PO_IMMEDIATE
                      01470 ;;      _ser_txfifo
                      01471 ;;      line = 714 result AOP_REG=r0x104C, size=2, left AOP_PCODE=_ser_txfifo, size=2, right AOP_DIR=_se
                            r_txoptr, size=1
                      01472 ;;; ../../../../src/pic14/genarith.c:159:genPlusIncr *{*
                      01473 ;; ***  genPlusIncr  161
                      01474 ;;      result AOP_REG, left AOP_PCODE, right AOP_DIR
                      01475 ;; ***  genPlus  814
                      01476 ;;      837: aopGet AOP_PCODE type PO_IMMEDIATE
                      01477 ;;      _ser_txfifo
                      01478 ;; >>> ../../../../src/pic14/genarith.c:823:genPlus
                      01479 ;;      1027
                      01480 ;;      1045  _ser_txoptr   offset=0
0160   0??? 0???      01481         BANKSEL _ser_txoptr
0162   08??           01482         MOVF    _ser_txoptr,W
                      01483 ;; >>> ../../../../src/pic14/genarith.c:832:genPlus
0163   3E??           01484         ADDLW   (_ser_txfifo + 0)
                      01485 ;; >>> ../../../../src/pic14/genarith.c:833:genPlus
                      01486 ;;      1126 rIdx = r0x104C 
0164   0??? 0???      01487         BANKSEL r0x104A
0166   00??           01488         MOVWF   r0x104A
                      01489 ;;; ../../../../src/pic14/gen.c:1357:mov2w_op *{*
                      01490 ;; >>> ../../../../src/pic14/gen.c:1375:mov2w_op
0167   30??           01491         MOVLW   high (_ser_txfifo + 0)
                      01492 ;; >>> ../../../../src/pic14/genarith.c:1006:genPlus
0168   1803           01493         BTFSC   STATUS,0
                      01494 ;; >>> ../../../../src/pic14/genarith.c:1007:genPlus
0169   3E01           01495         ADDLW   0x01
                      01496 ;; >>> ../../../../src/pic14/genarith.c:1008:genPlus
                      01497 ;;      1126 rIdx = r0x104D 
016A   00??           01498         MOVWF   r0x104B
                      01499 ;;; ../../../../src/pic14/gen.c:2358:resultRemat *{*
                      01500 ;;; ../../../../src/pic14/gen.c:6366:genPointerGet *{*
                      01501 ;; ***  genPointerGet  6367
                      01502 ;;; ../../../../src/pic14/gen.c:6252:genNearPointerGet *{*
                      01503 ;; ***  genNearPointerGet  6253
                      01504 ;;      708 register type nRegs=2
                      01505 ;; ***  genNearPointerGet  6269
                      01506 ;; ***  aopForSym 324
                      01507 ;;      336 sym->rname = _TXREG, size = 1
                      01508 ;;; ../../../../src/pic14/gen.c:1357:mov2w_op *{*
                      01509 ;; ***  mov2w  1395  offset=0
                      01510 ;; >>> ../../../../src/pic14/gen.c:1400:mov2w
                      01511 ;;      1126 rIdx = r0x104C 
016B   08??           01512         MOVF    r0x104A,W
                      01513 ;; >>> ../../../../src/pic14/gen.c:5818:setup_fsr
016C   1283 1303      01514         BANKSEL FSR
016E   0084           01515         MOVWF   FSR
gpasm-1.5.0 #1285 (Jul 12 2020) obj/sdcc-16f8   11/12/23  13:12:30          PAGE 30


LOC    OBJECT CODE    LINE  SOURCE TEXT
  VALUE

                      01516 ;;; ../../../../src/pic14/gen.c:5769:SetIrp *{*
                      01517 ;; >>> ../../../../src/pic14/gen.c:5796:SetIrp
016F   1383           01518         BCF     STATUS,7
                      01519 ;; >>> ../../../../src/pic14/gen.c:5799:SetIrp
0170   0??? 0???      01520         BANKSEL r0x104B
0172   18??           01521         BTFSC   r0x104B,0
                      01522 ;; >>> ../../../../src/pic14/gen.c:5800:SetIrp
0173   1783           01523         BSF     STATUS,7
                      01524 ;; >>> ../../../../src/pic14/gen.c:6027:emitPtrGet
0174   1283 1303      01525         BANKSEL INDF
0176   0800           01526         MOVF    INDF,W
                      01527 ;; >>> ../../../../src/pic14/gen.c:1407:movwf
                      01528 ;;      1027
                      01529 ;;      1045  _TXREG   offset=0
0177   00??           01530         MOVWF   _TXREG
                      01531 ;;; ../../../../src/pic14/gen.c:2358:resultRemat *{*
                      01532 ;; ***  genPlus  707
                      01533 ;;; ../../../../src/pic14/genarith.c:708:genPlus *{*
                      01534 ;; ***  aopForSym 324
                      01535 ;;      336 sym->rname = _ser_txoptr, size = 1
                      01536 ;;      line = 714 result AOP_DIR=_ser_txoptr, size=1, left AOP_DIR=_ser_txoptr, size=1, right AOP_LIT=0
                            x01, size=1
                      01537 ;;; ../../../../src/pic14/genarith.c:159:genPlusIncr *{*
                      01538 ;; ***  genPlusIncr  161
                      01539 ;;      result AOP_DIR, left AOP_DIR, right AOP_LIT
                      01540 ;;      genPlusIncr  173
                      01541 ;; >>> ../../../../src/pic14/genarith.c:185:genPlusIncr
                      01542 ;;      1027
                      01543 ;;      1045  _ser_txoptr   offset=0
0178   0??? 0???      01544         BANKSEL _ser_txoptr
017A   0A??           01545         INCF    _ser_txoptr,F
                      01546 ;;; ../../../../src/pic14/gen.c:2358:resultRemat *{*
                      01547 ;;; ../../../../src/pic14/gen.c:4023:genAnd *{*
                      01548 ;; ***  genAnd  4024
                      01549 ;; ***  aopForSym 324
                      01550 ;;      336 sym->rname = _ser_txoptr, size = 1
                      01551 ;;      589
                      01552 ;;      line = 4059 result AOP_DIR=_ser_txoptr, size=1, left AOP_DIR=_ser_txoptr, size=1, right AOP_LIT=
                            0x0f, size=1
                      01553 ;; >>> ../../../../src/pic14/gen.c:4232:genAnd
017B   300F           01554         MOVLW   0x0f
                      01555 ;; >>> ../../../../src/pic14/gen.c:4234:genAnd
                      01556 ;;      1027
                      01557 ;;      1045  _ser_txoptr   offset=0
017C   05??           01558         ANDWF   _ser_txoptr,F
                      01559 ;;; ../../../../src/pic14/gen.c:2358:resultRemat *{*
                      01560 ;;; ../../../../src/pic14/gen.c:3689:genCmpEq *{*
                      01561 ;; ***  genCmpEq  3690
                      01562 ;; ifx is non-null
                      01563 ;; ***  aopForSym 324
                      01564 ;;      336 sym->rname = _ser_txoptr, size = 1
                      01565 ;; ***  aopForSym 324
                      01566 ;;      336 sym->rname = _ser_txiptr, size = 1
gpasm-1.5.0 #1285 (Jul 12 2020) obj/sdcc-16f8   11/12/23  13:12:30          PAGE 31


LOC    OBJECT CODE    LINE  SOURCE TEXT
  VALUE

                      01567 ;;      line = 3701 result AOP_CRY=0x00, size=0, left AOP_DIR=_ser_txoptr, size=1, right AOP_DIR=_ser_tx
                            iptr, size=1
                      01568 ;; ***  mov2w  1395  offset=0
                      01569 ;; >>> ../../../../src/pic14/gen.c:1400:mov2w
                      01570 ;;      1027
                      01571 ;;      1041  _ser_txiptr   offset=0 - had to alloc by reg name
017D   0??? 0???      01572         BANKSEL _ser_txiptr
017F   08??           01573         MOVF    _ser_txiptr,W
                      01574 ;; >>> ../../../../src/pic14/gen.c:3801:genCmpEq
                      01575 ;;      1027
                      01576 ;;      1045  _ser_txoptr   offset=0
0180   0??? 0???      01577         BANKSEL _ser_txoptr
0182   06??           01578         XORWF   _ser_txoptr,W
0183   1D03           01579         BTFSS   STATUS,2
0184   2???           01580         GOTO    _00001_DS_
0185   0??? 0???      01581         BANKSEL _PIE1bits
0187   12??           01582         BCF     _PIE1bits,4
0188                  01583 _00001_DS_:
0188   0??? 0???      01584         BANKSEL _PIR1bits
018A   12??           01585         BCF     _PIR1bits,4
018B                  01586 _00124_DS_:
                      01587         .line   110; "LC-meter.c"       }
018B   0??? 0???      01588         BANKSEL ___sdcc_saved_fsr
018D   08??           01589         MOVF    ___sdcc_saved_fsr,W
                      01590 ;; >>> ../../../../src/pic14/gen.c:2665:genEndFunction
018E   1283 1303      01591         BANKSEL FSR
0190   0084           01592         MOVWF   FSR
                      01593 ;; >>> ../../../../src/pic14/gen.c:2667:genEndFunction
0191   08??           01594         MOVF    PSAVE,W
                      01595 ;; >>> ../../../../src/pic14/gen.c:2668:genEndFunction
0192   008A           01596         MOVWF   PCLATH
                      01597 ;; >>> ../../../../src/pic14/gen.c:2669:genEndFunction
0193   0183           01598         CLRF    STATUS
                      01599 ;; >>> ../../../../src/pic14/gen.c:2671:genEndFunction
0194   0E??           01600         SWAPF   SSAVE,W
                      01601 ;; >>> ../../../../src/pic14/gen.c:2672:genEndFunction
0195   0083           01602         MOVWF   STATUS
                      01603 ;; >>> ../../../../src/pic14/gen.c:2673:genEndFunction
0196   0E??           01604         SWAPF   WSAVE,F
                      01605 ;; >>> ../../../../src/pic14/gen.c:2674:genEndFunction
0197   0E??           01606         SWAPF   WSAVE,W
0198                  01607 END_OF_INTERRUPT:
0198   0009           01608         RETFIE  
                      01609 ;;; ../../../../src/pic14/gen.c:7677:genpic14Code *{*
                      01610 
                      01611 ;--------------------------------------------------------
                      01612 ; code
                      01613 ;--------------------------------------------------------
                      01614 code_LC_meter   code
                      01615 ;***
                      01616 ;  pBlock Stats: dbName = M
                      01617 ;***
                      01618 ;has an exit
gpasm-1.5.0 #1285 (Jul 12 2020) obj/sdcc-16f8   11/12/23  13:12:30          PAGE 32


LOC    OBJECT CODE    LINE  SOURCE TEXT
  VALUE

                      01619 ;functions called:
                      01620 ;   _timer0_init
                      01621 ;   _timer2_init
                      01622 ;   _timer2_init
                      01623 ;   _lcd_init
                      01624 ;   _lcd_begin
                      01625 ;   _delay10ms
                      01626 ;   _delay10ms
                      01627 ;   _delay10ms
                      01628 ;   _delay10ms
                      01629 ;   _ser_init
                      01630 ;   _lcd_gotoxy
                      01631 ;   _lcd_puts
                      01632 ;   _format_float
                      01633 ;   _delay10ms
                      01634 ;   _calibrate
                      01635 ;   _lcd_clear
                      01636 ;   _ser_puts
                      01637 ;   _ser_puts
                      01638 ;   _measure_capacitance
                      01639 ;   _measure_inductance
                      01640 ;   _print_indicator
                      01641 ;   _delay10ms
                      01642 ;   _print_indicator
                      01643 ;   _delay10ms
                      01644 ;   _timer0_init
                      01645 ;   _timer2_init
                      01646 ;   _timer2_init
                      01647 ;   _lcd_init
                      01648 ;   _lcd_begin
                      01649 ;   _delay10ms
                      01650 ;   _delay10ms
                      01651 ;   _delay10ms
                      01652 ;   _delay10ms
                      01653 ;   _ser_init
                      01654 ;   _lcd_gotoxy
                      01655 ;   _lcd_puts
                      01656 ;   _format_float
                      01657 ;   _delay10ms
                      01658 ;   _calibrate
                      01659 ;   _lcd_clear
                      01660 ;   _ser_puts
                      01661 ;   _ser_puts
                      01662 ;   _measure_capacitance
                      01663 ;   _measure_inductance
                      01664 ;   _print_indicator
                      01665 ;   _delay10ms
                      01666 ;   _print_indicator
                      01667 ;   _delay10ms
                      01668 ;11 compiler assigned registers:
                      01669 ;   STK00
                      01670 ;   r0x1044
                      01671 ;   r0x1045
gpasm-1.5.0 #1285 (Jul 12 2020) obj/sdcc-16f8   11/12/23  13:12:30          PAGE 33


LOC    OBJECT CODE    LINE  SOURCE TEXT
  VALUE

                      01672 ;   r0x1046
                      01673 ;   STK01
                      01674 ;   STK04
                      01675 ;   STK03
                      01676 ;   STK02
                      01677 ;   r0x1047
                      01678 ;   r0x1048
                      01679 ;   r0x1049
                      01680 ;; Starting pCode block
                      01681 ;;; ../../../../src/pic14/gen.c:2358:resultRemat *{*
                      01682 ;;; ../../../../src/pic14/gen.c:2802:genLabel *{*
                      01683 ;; ***  genLabel  2805
                      01684 ;;; ../../../../src/pic14/gen.c:2358:resultRemat *{*
                      01685 ;;; ../../../../src/pic14/gen.c:2382:genFunction *{*
                      01686 ;; ***  genFunction  2384 curr label offset=8previous max_key=60 
                      01687 S_LC_meter__main        code
0000                  01688 _main:
                      01689 ; 2 exit points
                      01690 ;;; ../../../../src/pic14/gen.c:2358:resultRemat *{*
                      01691 ;;; ../../../../src/pic14/gen.c:7159:genAssign *{*
                      01692 ;; ***  genAssign  7160
                      01693 ;; ***  aopForSym 324
                      01694 ;;      336 sym->rname = _seconds, size = 4
                      01695 ;;      line = 7169 result AOP_DIR=_seconds, size=4, left -=-, size=0, right AOP_LIT=0x00, size=4
                      01696 ;; ***  genAssign  7253
                      01697 ;; >>> ../../../../src/pic14/gen.c:7265:genAssign
                      01698 ;;      1027
                      01699 ;;      1045  _seconds   offset=0
                      01700         .line   117; "LC-meter.c"       bres = msecpart = msecs = seconds = 0;
0000   0??? 0???      01701         BANKSEL _seconds
0002   01??           01702         CLRF    _seconds
                      01703 ;; ***  genAssign  7253
                      01704 ;; >>> ../../../../src/pic14/gen.c:7265:genAssign
                      01705 ;;      1027
                      01706 ;;      1045  _seconds   offset=1
0003   01??           01707         CLRF    (_seconds + 1)
                      01708 ;; ***  genAssign  7253
                      01709 ;; >>> ../../../../src/pic14/gen.c:7265:genAssign
                      01710 ;;      1027
                      01711 ;;      1045  _seconds   offset=2
0004   01??           01712         CLRF    (_seconds + 2)
                      01713 ;; ***  genAssign  7253
                      01714 ;; >>> ../../../../src/pic14/gen.c:7265:genAssign
                      01715 ;;      1027
                      01716 ;;      1045  _seconds   offset=3
0005   01??           01717         CLRF    (_seconds + 3)
                      01718 ;;; ../../../../src/pic14/gen.c:2358:resultRemat *{*
                      01719 ;;; ../../../../src/pic14/gen.c:7159:genAssign *{*
                      01720 ;; ***  genAssign  7160
                      01721 ;; ***  aopForSym 324
                      01722 ;;      336 sym->rname = _msecs, size = 4
                      01723 ;;      line = 7169 result AOP_DIR=_msecs, size=4, left -=-, size=0, right AOP_LIT=0x00, size=4
                      01724 ;; ***  genAssign  7253
gpasm-1.5.0 #1285 (Jul 12 2020) obj/sdcc-16f8   11/12/23  13:12:30          PAGE 34


LOC    OBJECT CODE    LINE  SOURCE TEXT
  VALUE

                      01725 ;; >>> ../../../../src/pic14/gen.c:7265:genAssign
                      01726 ;;      1027
                      01727 ;;      1045  _msecs   offset=0
0006   0??? 0???      01728         BANKSEL _msecs
0008   01??           01729         CLRF    _msecs
                      01730 ;; ***  genAssign  7253
                      01731 ;; >>> ../../../../src/pic14/gen.c:7265:genAssign
                      01732 ;;      1027
                      01733 ;;      1045  _msecs   offset=1
0009   01??           01734         CLRF    (_msecs + 1)
                      01735 ;; ***  genAssign  7253
                      01736 ;; >>> ../../../../src/pic14/gen.c:7265:genAssign
                      01737 ;;      1027
                      01738 ;;      1045  _msecs   offset=2
000A   01??           01739         CLRF    (_msecs + 2)
                      01740 ;; ***  genAssign  7253
                      01741 ;; >>> ../../../../src/pic14/gen.c:7265:genAssign
                      01742 ;;      1027
                      01743 ;;      1045  _msecs   offset=3
000B   01??           01744         CLRF    (_msecs + 3)
                      01745 ;;; ../../../../src/pic14/gen.c:2358:resultRemat *{*
                      01746 ;;; ../../../../src/pic14/gen.c:7159:genAssign *{*
                      01747 ;; ***  genAssign  7160
                      01748 ;; ***  aopForSym 324
                      01749 ;;      336 sym->rname = _msecpart, size = 2
                      01750 ;;      line = 7169 result AOP_DIR=_msecpart, size=2, left -=-, size=0, right AOP_LIT=0x00, size=2
                      01751 ;; ***  genAssign  7253
                      01752 ;; >>> ../../../../src/pic14/gen.c:7265:genAssign
                      01753 ;;      1027
                      01754 ;;      1045  _msecpart   offset=0
000C   0??? 0???      01755         BANKSEL _msecpart
000E   01??           01756         CLRF    _msecpart
                      01757 ;; ***  genAssign  7253
                      01758 ;; >>> ../../../../src/pic14/gen.c:7265:genAssign
                      01759 ;;      1027
                      01760 ;;      1045  _msecpart   offset=1
000F   01??           01761         CLRF    (_msecpart + 1)
                      01762 ;;; ../../../../src/pic14/gen.c:2358:resultRemat *{*
                      01763 ;;; ../../../../src/pic14/gen.c:7159:genAssign *{*
                      01764 ;; ***  genAssign  7160
                      01765 ;; ***  aopForSym 324
                      01766 ;;      336 sym->rname = _bres, size = 4
                      01767 ;;      line = 7169 result AOP_DIR=_bres, size=4, left -=-, size=0, right AOP_LIT=0x00, size=4
                      01768 ;; ***  genAssign  7253
                      01769 ;; >>> ../../../../src/pic14/gen.c:7265:genAssign
                      01770 ;;      1027
                      01771 ;;      1045  _bres   offset=0
0010   0??? 0???      01772         BANKSEL _bres
0012   01??           01773         CLRF    _bres
                      01774 ;; ***  genAssign  7253
                      01775 ;; >>> ../../../../src/pic14/gen.c:7265:genAssign
                      01776 ;;      1027
                      01777 ;;      1045  _bres   offset=1
gpasm-1.5.0 #1285 (Jul 12 2020) obj/sdcc-16f8   11/12/23  13:12:30          PAGE 35


LOC    OBJECT CODE    LINE  SOURCE TEXT
  VALUE

0013   01??           01778         CLRF    (_bres + 1)
                      01779 ;; ***  genAssign  7253
                      01780 ;; >>> ../../../../src/pic14/gen.c:7265:genAssign
                      01781 ;;      1027
                      01782 ;;      1045  _bres   offset=2
0014   01??           01783         CLRF    (_bres + 2)
                      01784 ;; ***  genAssign  7253
                      01785 ;; >>> ../../../../src/pic14/gen.c:7265:genAssign
                      01786 ;;      1027
                      01787 ;;      1045  _bres   offset=3
0015   01??           01788         CLRF    (_bres + 3)
                      01789 ;;; ../../../../src/pic14/gen.c:2358:resultRemat *{*
                      01790 ;;; ../../../../src/pic14/gen.c:7159:genAssign *{*
                      01791 ;; ***  genAssign  7160
                      01792 ;; ***  aopForSym 324
                      01793 ;;      336 sym->rname = _mode, size = 1
                      01794 ;;      line = 7169 result AOP_DIR=_mode, size=1, left -=-, size=0, right AOP_LIT=0xff, size=1
                      01795 ;; ***  genAssign  7253
                      01796 ;; >>> ../../../../src/pic14/gen.c:7260:genAssign
                      01797         .line   118; "LC-meter.c"       mode = -1;
0016   30FF           01798         MOVLW   0xff
                      01799 ;; >>> ../../../../src/pic14/gen.c:7262:genAssign
                      01800 ;;      1027
                      01801 ;;      1045  _mode   offset=0
0017   0??? 0???      01802         BANKSEL _mode
0019   00??           01803         MOVWF   _mode
                      01804 ;;; ../../../../src/pic14/gen.c:2358:resultRemat *{*
                      01805 ;;; ../../../../src/pic14/gen.c:7159:genAssign *{*
                      01806 ;; ***  genAssign  7160
                      01807 ;; ***  aopForSym 324
                      01808 ;;      336 sym->rname = _CCal, size = 4
                      01809 ;;      line = 7169 result AOP_DIR=_CCal, size=4, left -=-, size=0, right AOP_LIT=0x00, size=4
                      01810 ;; ***  genAssign  7253
                      01811 ;; >>> ../../../../src/pic14/gen.c:7265:genAssign
                      01812 ;;      1027
                      01813 ;;      1045  _CCal   offset=0
                      01814         .line   120; "LC-meter.c"       CCal = C_CAL;
001A   0??? 0???      01815         BANKSEL _CCal
001C   01??           01816         CLRF    _CCal
                      01817 ;; ***  genAssign  7253
                      01818 ;; >>> ../../../../src/pic14/gen.c:7265:genAssign
                      01819 ;;      1027
                      01820 ;;      1045  _CCal   offset=1
001D   01??           01821         CLRF    (_CCal + 1)
                      01822 ;; ***  genAssign  7253
                      01823 ;; >>> ../../../../src/pic14/gen.c:7260:genAssign
001E   307A           01824         MOVLW   0x7a
                      01825 ;; >>> ../../../../src/pic14/gen.c:7262:genAssign
                      01826 ;;      1027
                      01827 ;;      1045  _CCal   offset=2
001F   00??           01828         MOVWF   (_CCal + 2)
                      01829 ;; ***  genAssign  7253
                      01830 ;; >>> ../../../../src/pic14/gen.c:7260:genAssign
gpasm-1.5.0 #1285 (Jul 12 2020) obj/sdcc-16f8   11/12/23  13:12:30          PAGE 36


LOC    OBJECT CODE    LINE  SOURCE TEXT
  VALUE

0020   3044           01831         MOVLW   0x44
                      01832 ;; >>> ../../../../src/pic14/gen.c:7262:genAssign
                      01833 ;;      1027
                      01834 ;;      1045  _CCal   offset=3
0021   00??           01835         MOVWF   (_CCal + 3)
                      01836 ;;; ../../../../src/pic14/gen.c:2358:resultRemat *{*
                      01837 ;;; ../../../../src/pic14/gen.c:7159:genAssign *{*
                      01838 ;; ***  genAssign  7160
                      01839 ;; ***  aopForSym 324
                      01840 ;;      336 sym->rname = _led_cycle, size = 2
                      01841 ;;      line = 7169 result AOP_DIR=_led_cycle, size=2, left -=-, size=0, right AOP_LIT=0x00, size=2
                      01842 ;; ***  genAssign  7253
                      01843 ;; >>> ../../../../src/pic14/gen.c:7265:genAssign
                      01844 ;;      1027
                      01845 ;;      1045  _led_cycle   offset=0
                      01846         .line   122; "LC-meter.c"       led_cycle = 0;
0022   0??? 0???      01847         BANKSEL _led_cycle
0024   01??           01848         CLRF    _led_cycle
                      01849 ;; ***  genAssign  7253
                      01850 ;; >>> ../../../../src/pic14/gen.c:7265:genAssign
                      01851 ;;      1027
                      01852 ;;      1045  _led_cycle   offset=1
0025   01??           01853         CLRF    (_led_cycle + 1)
                      01854 ;;; ../../../../src/pic14/gen.c:2358:resultRemat *{*
                      01855 ;;; ../../../../src/pic14/gen.c:7159:genAssign *{*
                      01856 ;; ***  genAssign  7160
                      01857 ;; ***  aopForSym 324
                      01858 ;;      336 sym->rname = _led_interval, size = 2
                      01859 ;;      line = 7169 result AOP_DIR=_led_interval, size=2, left -=-, size=0, right AOP_LIT=0xf4, size=2
                      01860 ;; ***  genAssign  7253
                      01861 ;; >>> ../../../../src/pic14/gen.c:7260:genAssign
                      01862         .line   123; "LC-meter.c"       led_interval = 500;
0026   30F4           01863         MOVLW   0xf4
                      01864 ;; >>> ../../../../src/pic14/gen.c:7262:genAssign
                      01865 ;;      1027
                      01866 ;;      1045  _led_interval   offset=0
0027   0??? 0???      01867         BANKSEL _led_interval
0029   00??           01868         MOVWF   _led_interval
                      01869 ;; ***  genAssign  7253
                      01870 ;; >>> ../../../../src/pic14/gen.c:7260:genAssign
002A   3001           01871         MOVLW   0x01
                      01872 ;; >>> ../../../../src/pic14/gen.c:7262:genAssign
                      01873 ;;      1027
                      01874 ;;      1045  _led_interval   offset=1
002B   00??           01875         MOVWF   (_led_interval + 1)
                      01876 ;;; ../../../../src/pic14/gen.c:2358:resultRemat *{*
                      01877 ;;; ../../../../src/pic14/gen.c:7159:genAssign *{*
                      01878 ;; ***  genAssign  7160
                      01879 ;; ***  aopForSym 324
                      01880 ;;      336 sym->rname = _CMCON, size = 1
                      01881 ;;      line = 7169 result AOP_DIR=_CMCON, size=1, left -=-, size=0, right AOP_LIT=0x05, size=1
                      01882 ;; ***  genAssign  7253
                      01883 ;; >>> ../../../../src/pic14/gen.c:7260:genAssign
gpasm-1.5.0 #1285 (Jul 12 2020) obj/sdcc-16f8   11/12/23  13:12:30          PAGE 37


LOC    OBJECT CODE    LINE  SOURCE TEXT
  VALUE

                      01884         .line   131; "LC-meter.c"       CMCON = 0b00000101;
002C   3005           01885         MOVLW   0x05
                      01886 ;; >>> ../../../../src/pic14/gen.c:7262:genAssign
                      01887 ;;      1027
                      01888 ;;      1045  _CMCON   offset=0
002D   0??? 0???      01889         BANKSEL _CMCON
002F   00??           01890         MOVWF   _CMCON
                      01891 ;;; ../../../../src/pic14/gen.c:2358:resultRemat *{*
                      01892 ;;; ../../../../src/pic14/gen.c:7159:genAssign *{*
                      01893 ;; ***  genAssign  7160
                      01894 ;; ***  aopForSym 324
                      01895 ;;      336 sym->rname = _TRISA, size = 1
                      01896 ;;      line = 7169 result AOP_DIR=_TRISA, size=1, left -=-, size=0, right AOP_LIT=0xcf, size=1
                      01897 ;; ***  genAssign  7253
                      01898 ;; >>> ../../../../src/pic14/gen.c:7260:genAssign
                      01899         .line   133; "LC-meter.c"       TRISA = 0b11001111;
0030   30CF           01900         MOVLW   0xcf
                      01901 ;; >>> ../../../../src/pic14/gen.c:7262:genAssign
                      01902 ;;      1027
                      01903 ;;      1045  _TRISA   offset=0
0031   00??           01904         MOVWF   _TRISA
                      01905 ;;; ../../../../src/pic14/gen.c:2358:resultRemat *{*
                      01906 ;;; ../../../../src/pic14/gen.c:4023:genAnd *{*
                      01907 ;; ***  genAnd  4024
                      01908 ;; ***  aopForSym 324
                      01909 ;;      336 sym->rname = _TRISB, size = 1
                      01910 ;;      line = 4059 result AOP_DIR=_TRISB, size=1, left AOP_DIR=_TRISB, size=1, right AOP_LIT=0x0f, size
                            =1
                      01911 ;; >>> ../../../../src/pic14/gen.c:4232:genAnd
                      01912         .line   135; "LC-meter.c"       TRISB &= 0b00001111;
0032   300F           01913         MOVLW   0x0f
                      01914 ;; >>> ../../../../src/pic14/gen.c:4234:genAnd
                      01915 ;;      1027
                      01916 ;;      1045  _TRISB   offset=0
0033   05??           01917         ANDWF   _TRISB,F
                      01918 ;;; ../../../../src/pic14/gen.c:2358:resultRemat *{*
                      01919 ;;; ../../../../src/pic14/gen.c:2358:resultRemat *{*
                      01920 ;;; ../../../../src/pic14/gen.c:2108:genCall *{*
                      01921 ;; ***  genCall  2110
                      01922 ;;      2158 left AOP_LIT
                      01923 ;;; ../../../../src/pic14/gen.c:1357:mov2w_op *{*
                      01924 ;; >>> ../../../../src/pic14/gen.c:1375:mov2w_op
                      01925         .line   138; "LC-meter.c"       timer0_init(PRESCALE_1_256 | TIMER0_FLAGS_EXTCLK | TIMER0_FLAGS_
                            8BIT);
0034   3068           01926         MOVLW   0x68
                      01927 ;; >>> ../../../../src/pic14/gen.c:2207:genCall
0035   0??? 0???      01928         PAGESEL _timer0_init
                      01929 ;; >>> ../../../../src/pic14/gen.c:2215:genCall
0037   2???           01930         CALL    _timer0_init
                      01931 ;; >>> ../../../../src/pic14/gen.c:2223:genCall
0038   0??? 0???      01932         PAGESEL $
                      01933 ;;; ../../../../src/pic14/gen.c:2358:resultRemat *{*
                      01934 ;;; ../../../../src/pic14/gen.c:2358:resultRemat *{*
gpasm-1.5.0 #1285 (Jul 12 2020) obj/sdcc-16f8   11/12/23  13:12:30          PAGE 38


LOC    OBJECT CODE    LINE  SOURCE TEXT
  VALUE

                      01935 ;;; ../../../../src/pic14/gen.c:2108:genCall *{*
                      01936 ;; ***  genCall  2110
                      01937 ;;      2158 left AOP_LIT
                      01938 ;;; ../../../../src/pic14/gen.c:1357:mov2w_op *{*
                      01939 ;; >>> ../../../../src/pic14/gen.c:1375:mov2w_op
                      01940         .line   139; "LC-meter.c"       timer2_init(TIMER2_PRESCALER | TIMER2_FLAGS_INTR);
003A   3084           01941         MOVLW   0x84
                      01942 ;; >>> ../../../../src/pic14/gen.c:2207:genCall
003B   0??? 0???      01943         PAGESEL _timer2_init
                      01944 ;; >>> ../../../../src/pic14/gen.c:2215:genCall
003D   2???           01945         CALL    _timer2_init
                      01946 ;; >>> ../../../../src/pic14/gen.c:2223:genCall
003E   0??? 0???      01947         PAGESEL $
                      01948 ;;; ../../../../src/pic14/gen.c:2358:resultRemat *{*
                      01949 ;;; ../../../../src/pic14/gen.c:4023:genAnd *{*
                      01950 ;; ***  genAnd  4024
                      01951 ;; ***  aopForSym 324
                      01952 ;;      336 sym->rname = _OPTION_REG, size = 1
                      01953 ;;      589
                      01954 ;;      line = 4059 result AOP_DIR=_OPTION_REG, size=1, left AOP_DIR=_OPTION_REG, size=1, right AOP_LIT=
                            0xdf, size=1
                      01955 ;; >>> ../../../../src/pic14/gen.c:4226:genAnd
                      01956         .line   148; "LC-meter.c"       OPTION_REG &= ~0b100000;
0040   0??? 0???      01957         BANKSEL _OPTION_REG
0042   12??           01958         BCF     _OPTION_REG,5
                      01959 ;;; ../../../../src/pic14/gen.c:2358:resultRemat *{*
                      01960 ;;; ../../../../src/pic14/gen.c:7159:genAssign *{*
                      01961 ;; ***  genAssign  7160
                      01962 ;; ***  aopForSym 324
                      01963 ;;      336 sym->rname = _TRISC, size = 1
                      01964 ;;      line = 7169 result AOP_DIR=_TRISC, size=1, left -=-, size=0, right AOP_LIT=0xb3, size=1
                      01965 ;; ***  genAssign  7253
                      01966 ;; >>> ../../../../src/pic14/gen.c:7260:genAssign
                      01967         .line   154; "LC-meter.c"       TRISC = 0b10110011;
0043   30B3           01968         MOVLW   0xb3
                      01969 ;; >>> ../../../../src/pic14/gen.c:7262:genAssign
                      01970 ;;      1027
                      01971 ;;      1045  _TRISC   offset=0
0044   00??           01972         MOVWF   _TRISC
                      01973 ;;; ../../../../src/pic14/gen.c:2358:resultRemat *{*
                      01974 ;;; ../../../../src/pic14/gen.c:2358:resultRemat *{*
                      01975 ;;; ../../../../src/pic14/gen.c:6918:genPointerSet *{*
                      01976 ;; ***  genPointerSet  6919
                      01977 ;;; ../../../../src/pic14/gen.c:6838:genNearPointerSet *{*
                      01978 ;; ***  genNearPointerSet  6839
                      01979 ;;      627
                      01980 ;;      aopForRemat 406
                      01981 ;;      432: rname _PORTCbits, val 0, const = 0
                      01982 ;; ***  genNearPointerSet  6853
                      01983 ;;      837: aopGet AOP_PCODE type PO_IMMEDIATE
                      01984 ;;      _PORTCbits
                      01985 ;;      line = 6855 result AOP_PCODE=_PORTCbits, size=2, left -=-, size=0, right AOP_LIT=0x01, size=1
                      01986 ;;; ../../../../src/pic14/gen.c:6656:genPackBits *{*
gpasm-1.5.0 #1285 (Jul 12 2020) obj/sdcc-16f8   11/12/23  13:12:30          PAGE 39


LOC    OBJECT CODE    LINE  SOURCE TEXT
  VALUE

                      01987 ;; ***  genPackBits  6657
                      01988 ;;      837: aopGet AOP_PCODE type PO_IMMEDIATE
                      01989 ;;      _PORTCbits
                      01990 ;; >>> ../../../../src/pic14/gen.c:6679:genPackBits
                      01991         .line   158; "LC-meter.c"       RC3 = HIGH;
0045   0??? 0???      01992         BANKSEL _PORTCbits
0047   15??           01993         BSF     _PORTCbits,3
                      01994 ;; ***  genNearPointerSet  6872
                      01995 ;;; ../../../../src/pic14/gen.c:2358:resultRemat *{*
                      01996 ;;; ../../../../src/pic14/gen.c:4023:genAnd *{*
                      01997 ;; ***  genAnd  4024
                      01998 ;; ***  aopForSym 324
                      01999 ;;      336 sym->rname = _TRISC, size = 1
                      02000 ;;      589
                      02001 ;;      line = 4059 result AOP_DIR=_TRISC, size=1, left AOP_DIR=_TRISC, size=1, right AOP_LIT=0xfb, size
                            =1
                      02002 ;; >>> ../../../../src/pic14/gen.c:4226:genAnd
                      02003         .line   161; "LC-meter.c"       INIT_LED();
0048   0??? 0???      02004         BANKSEL _TRISC
004A   11??           02005         BCF     _TRISC,2
                      02006 ;;; ../../../../src/pic14/gen.c:2358:resultRemat *{*
                      02007 ;;; ../../../../src/pic14/gen.c:4023:genAnd *{*
                      02008 ;; ***  genAnd  4024
                      02009 ;; ***  aopForSym 324
                      02010 ;;      336 sym->rname = _PORTC, size = 1
                      02011 ;;      589
                      02012 ;;      line = 4059 result AOP_DIR=_PORTC, size=1, left AOP_DIR=_PORTC, size=1, right AOP_LIT=0xfb, size
                            =1
                      02013 ;; >>> ../../../../src/pic14/gen.c:4226:genAnd
                      02014         .line   162; "LC-meter.c"       SET_LED(1);
004B   0??? 0???      02015         BANKSEL _PORTC
004D   11??           02016         BCF     _PORTC,2
                      02017 ;;; ../../../../src/pic14/gen.c:2358:resultRemat *{*
                      02018 ;;; ../../../../src/pic14/gen.c:4324:genOr *{*
                      02019 ;; ***  genOr  4325
                      02020 ;; ***  aopForSym 324
                      02021 ;;      336 sym->rname = _PORTC, size = 1
                      02022 ;;      589
                      02023 ;;      line = 4331 result AOP_DIR=_PORTC, size=1, left AOP_DIR=_PORTC, size=1, right AOP_LIT=0x04, size
                            =1
                      02024 ;;      line = 4357 result AOP_DIR=_PORTC, size=1, left AOP_DIR=_PORTC, size=1, right AOP_LIT=0x04, size
                            =1
                      02025 ;; >>> ../../../../src/pic14/gen.c:4508:genOr
004E   15??           02026         BSF     _PORTC,2
                      02027 ;;; ../../../../src/pic14/gen.c:2358:resultRemat *{*
                      02028 ;;; ../../../../src/pic14/gen.c:2358:resultRemat *{*
                      02029 ;;; ../../../../src/pic14/gen.c:2108:genCall *{*
                      02030 ;; ***  genCall  2110
                      02031 ;;      2158 left AOP_LIT
                      02032 ;;; ../../../../src/pic14/gen.c:1357:mov2w_op *{*
                      02033 ;; >>> ../../../../src/pic14/gen.c:1375:mov2w_op
                      02034         .line   164; "LC-meter.c"       timer2_init(PRESCALE_1_1 | TIMER2_FLAGS_INTR);
004F   3080           02035         MOVLW   0x80
gpasm-1.5.0 #1285 (Jul 12 2020) obj/sdcc-16f8   11/12/23  13:12:30          PAGE 40


LOC    OBJECT CODE    LINE  SOURCE TEXT
  VALUE

                      02036 ;; >>> ../../../../src/pic14/gen.c:2207:genCall
0050   0??? 0???      02037         PAGESEL _timer2_init
                      02038 ;; >>> ../../../../src/pic14/gen.c:2215:genCall
0052   2???           02039         CALL    _timer2_init
                      02040 ;; >>> ../../../../src/pic14/gen.c:2223:genCall
0053   0??? 0???      02041         PAGESEL $
                      02042 ;;; ../../../../src/pic14/gen.c:2358:resultRemat *{*
                      02043 ;;; ../../../../src/pic14/gen.c:2358:resultRemat *{*
                      02044 ;;; ../../../../src/pic14/gen.c:2108:genCall *{*
                      02045 ;; ***  genCall  2110
                      02046 ;;      2158 left AOP_LIT
                      02047 ;;; ../../../../src/pic14/gen.c:1357:mov2w_op *{*
                      02048 ;; >>> ../../../../src/pic14/gen.c:1375:mov2w_op
                      02049         .line   171; "LC-meter.c"       lcd_init(1);
0055   3001           02050         MOVLW   0x01
                      02051 ;; >>> ../../../../src/pic14/gen.c:2207:genCall
0056   0??? 0???      02052         PAGESEL _lcd_init
                      02053 ;; >>> ../../../../src/pic14/gen.c:2215:genCall
0058   2???           02054         CALL    _lcd_init
                      02055 ;; >>> ../../../../src/pic14/gen.c:2223:genCall
0059   0??? 0???      02056         PAGESEL $
                      02057 ;;; ../../../../src/pic14/gen.c:2358:resultRemat *{*
                      02058 ;;; ../../../../src/pic14/gen.c:2358:resultRemat *{*
                      02059 ;;; ../../../../src/pic14/gen.c:2358:resultRemat *{*
                      02060 ;;; ../../../../src/pic14/gen.c:2108:genCall *{*
                      02061 ;; ***  genCall  2110
                      02062 ;;      2158 left AOP_LIT
                      02063 ;;; ../../../../src/pic14/gen.c:1357:mov2w_op *{*
                      02064 ;; >>> ../../../../src/pic14/gen.c:1375:mov2w_op
                      02065         .line   172; "LC-meter.c"       lcd_begin(2, 1);
005B   3001           02066         MOVLW   0x01
                      02067 ;;      2158 left AOP_LIT
                      02068 ;; >>> ../../../../src/pic14/gen.c:2166:genCall
                      02069 ;; ***  popRegFromIdx,1059  , rIdx=0x7f
005C   00??           02070         MOVWF   STK00
                      02071 ;;; ../../../../src/pic14/gen.c:1357:mov2w_op *{*
                      02072 ;; >>> ../../../../src/pic14/gen.c:1375:mov2w_op
005D   3002           02073         MOVLW   0x02
                      02074 ;; >>> ../../../../src/pic14/gen.c:2207:genCall
005E   0??? 0???      02075         PAGESEL _lcd_begin
                      02076 ;; >>> ../../../../src/pic14/gen.c:2215:genCall
0060   2???           02077         CALL    _lcd_begin
                      02078 ;; >>> ../../../../src/pic14/gen.c:2223:genCall
0061   0??? 0???      02079         PAGESEL $
                      02080 ;;; ../../../../src/pic14/gen.c:2358:resultRemat *{*
                      02081 ;;; ../../../../src/pic14/gen.c:4324:genOr *{*
                      02082 ;; ***  genOr  4325
                      02083 ;; ***  aopForSym 324
                      02084 ;;      336 sym->rname = _TRISC, size = 1
                      02085 ;;      589
                      02086 ;;      line = 4331 result AOP_DIR=_TRISC, size=1, left AOP_DIR=_TRISC, size=1, right AOP_LIT=0x10, size
                            =1
                      02087 ;;      line = 4357 result AOP_DIR=_TRISC, size=1, left AOP_DIR=_TRISC, size=1, right AOP_LIT=0x10, size
gpasm-1.5.0 #1285 (Jul 12 2020) obj/sdcc-16f8   11/12/23  13:12:30          PAGE 41


LOC    OBJECT CODE    LINE  SOURCE TEXT
  VALUE

                            =1
                      02088 ;; >>> ../../../../src/pic14/gen.c:4508:genOr
                      02089         .line   175; "LC-meter.c"       LC_TRIS();
0063   0??? 0???      02090         BANKSEL _TRISC
0065   16??           02091         BSF     _TRISC,4
                      02092 ;;; ../../../../src/pic14/gen.c:2358:resultRemat *{*
                      02093 ;;; ../../../../src/pic14/gen.c:4023:genAnd *{*
                      02094 ;; ***  genAnd  4024
                      02095 ;; ***  aopForSym 324
                      02096 ;;      336 sym->rname = _TRISC, size = 1
                      02097 ;;      589
                      02098 ;;      line = 4059 result AOP_DIR=_TRISC, size=1, left AOP_DIR=_TRISC, size=1, right AOP_LIT=0xdf, size
                            =1
                      02099 ;; >>> ../../../../src/pic14/gen.c:4226:genAnd
                      02100         .line   176; "LC-meter.c"       RELAY_TRIS();
0066   12??           02101         BCF     _TRISC,5
                      02102 ;;; ../../../../src/pic14/gen.c:2358:resultRemat *{*
                      02103 ;;; ../../../../src/pic14/gen.c:4023:genAnd *{*
                      02104 ;; ***  genAnd  4024
                      02105 ;; ***  aopForSym 324
                      02106 ;;      336 sym->rname = _PORTC, size = 1
                      02107 ;;      589
                      02108 ;;      line = 4059 result AOP_DIR=_PORTC, size=1, left AOP_DIR=_PORTC, size=1, right AOP_LIT=0xdf, size
                            =1
                      02109 ;; >>> ../../../../src/pic14/gen.c:4226:genAnd
                      02110         .line   178; "LC-meter.c"       REMOVE_CCAL();
0067   0??? 0???      02111         BANKSEL _PORTC
0069   12??           02112         BCF     _PORTC,5
                      02113 ;;; ../../../../src/pic14/gen.c:2358:resultRemat *{*
                      02114 ;;; ../../../../src/pic14/gen.c:2358:resultRemat *{*
                      02115 ;;; ../../../../src/pic14/gen.c:2108:genCall *{*
                      02116 ;; ***  genCall  2110
                      02117 ;;      2158 left AOP_LIT
                      02118 ;;; ../../../../src/pic14/gen.c:1357:mov2w_op *{*
                      02119 ;; >>> ../../../../src/pic14/gen.c:1375:mov2w_op
                      02120         .line   179; "LC-meter.c"       delay10ms(50);
006A   3032           02121         MOVLW   0x32
                      02122 ;; >>> ../../../../src/pic14/gen.c:2207:genCall
006B   0??? 0???      02123         PAGESEL _delay10ms
                      02124 ;; >>> ../../../../src/pic14/gen.c:2215:genCall
006D   2???           02125         CALL    _delay10ms
                      02126 ;; >>> ../../../../src/pic14/gen.c:2223:genCall
006E   0??? 0???      02127         PAGESEL $
                      02128 ;;; ../../../../src/pic14/gen.c:2358:resultRemat *{*
                      02129 ;;; ../../../../src/pic14/gen.c:4324:genOr *{*
                      02130 ;; ***  genOr  4325
                      02131 ;; ***  aopForSym 324
                      02132 ;;      336 sym->rname = _PORTC, size = 1
                      02133 ;;      589
                      02134 ;;      line = 4331 result AOP_DIR=_PORTC, size=1, left AOP_DIR=_PORTC, size=1, right AOP_LIT=0x20, size
                            =1
                      02135 ;;      line = 4357 result AOP_DIR=_PORTC, size=1, left AOP_DIR=_PORTC, size=1, right AOP_LIT=0x20, size
                            =1
gpasm-1.5.0 #1285 (Jul 12 2020) obj/sdcc-16f8   11/12/23  13:12:30          PAGE 42


LOC    OBJECT CODE    LINE  SOURCE TEXT
  VALUE

                      02136 ;; >>> ../../../../src/pic14/gen.c:4508:genOr
                      02137         .line   180; "LC-meter.c"       ADD_CCAL();
0070   0??? 0???      02138         BANKSEL _PORTC
0072   16??           02139         BSF     _PORTC,5
                      02140 ;;; ../../../../src/pic14/gen.c:2358:resultRemat *{*
                      02141 ;;; ../../../../src/pic14/gen.c:2358:resultRemat *{*
                      02142 ;;; ../../../../src/pic14/gen.c:2108:genCall *{*
                      02143 ;; ***  genCall  2110
                      02144 ;;      2158 left AOP_LIT
                      02145 ;;; ../../../../src/pic14/gen.c:1357:mov2w_op *{*
                      02146 ;; >>> ../../../../src/pic14/gen.c:1375:mov2w_op
                      02147         .line   181; "LC-meter.c"       delay10ms(50);
0073   3032           02148         MOVLW   0x32
                      02149 ;; >>> ../../../../src/pic14/gen.c:2207:genCall
0074   0??? 0???      02150         PAGESEL _delay10ms
                      02151 ;; >>> ../../../../src/pic14/gen.c:2215:genCall
0076   2???           02152         CALL    _delay10ms
                      02153 ;; >>> ../../../../src/pic14/gen.c:2223:genCall
0077   0??? 0???      02154         PAGESEL $
                      02155 ;;; ../../../../src/pic14/gen.c:2358:resultRemat *{*
                      02156 ;;; ../../../../src/pic14/gen.c:4023:genAnd *{*
                      02157 ;; ***  genAnd  4024
                      02158 ;; ***  aopForSym 324
                      02159 ;;      336 sym->rname = _PORTC, size = 1
                      02160 ;;      589
                      02161 ;;      line = 4059 result AOP_DIR=_PORTC, size=1, left AOP_DIR=_PORTC, size=1, right AOP_LIT=0xdf, size
                            =1
                      02162 ;; >>> ../../../../src/pic14/gen.c:4226:genAnd
                      02163         .line   182; "LC-meter.c"       REMOVE_CCAL();
0079   0??? 0???      02164         BANKSEL _PORTC
007B   12??           02165         BCF     _PORTC,5
                      02166 ;;; ../../../../src/pic14/gen.c:2358:resultRemat *{*
                      02167 ;;; ../../../../src/pic14/gen.c:2358:resultRemat *{*
                      02168 ;;; ../../../../src/pic14/gen.c:2108:genCall *{*
                      02169 ;; ***  genCall  2110
                      02170 ;;      2158 left AOP_LIT
                      02171 ;;; ../../../../src/pic14/gen.c:1357:mov2w_op *{*
                      02172 ;; >>> ../../../../src/pic14/gen.c:1375:mov2w_op
                      02173         .line   183; "LC-meter.c"       delay10ms(50);
007C   3032           02174         MOVLW   0x32
                      02175 ;; >>> ../../../../src/pic14/gen.c:2207:genCall
007D   0??? 0???      02176         PAGESEL _delay10ms
                      02177 ;; >>> ../../../../src/pic14/gen.c:2215:genCall
007F   2???           02178         CALL    _delay10ms
                      02179 ;; >>> ../../../../src/pic14/gen.c:2223:genCall
0080   0??? 0???      02180         PAGESEL $
                      02181 ;;; ../../../../src/pic14/gen.c:2358:resultRemat *{*
                      02182 ;;; ../../../../src/pic14/gen.c:4324:genOr *{*
                      02183 ;; ***  genOr  4325
                      02184 ;; ***  aopForSym 324
                      02185 ;;      336 sym->rname = _PORTC, size = 1
                      02186 ;;      589
                      02187 ;;      line = 4331 result AOP_DIR=_PORTC, size=1, left AOP_DIR=_PORTC, size=1, right AOP_LIT=0x20, size
gpasm-1.5.0 #1285 (Jul 12 2020) obj/sdcc-16f8   11/12/23  13:12:30          PAGE 43


LOC    OBJECT CODE    LINE  SOURCE TEXT
  VALUE

                            =1
                      02188 ;;      line = 4357 result AOP_DIR=_PORTC, size=1, left AOP_DIR=_PORTC, size=1, right AOP_LIT=0x20, size
                            =1
                      02189 ;; >>> ../../../../src/pic14/gen.c:4508:genOr
                      02190         .line   184; "LC-meter.c"       ADD_CCAL();
0082   0??? 0???      02191         BANKSEL _PORTC
0084   16??           02192         BSF     _PORTC,5
                      02193 ;;; ../../../../src/pic14/gen.c:2358:resultRemat *{*
                      02194 ;;; ../../../../src/pic14/gen.c:2358:resultRemat *{*
                      02195 ;;; ../../../../src/pic14/gen.c:2108:genCall *{*
                      02196 ;; ***  genCall  2110
                      02197 ;;      2158 left AOP_LIT
                      02198 ;;; ../../../../src/pic14/gen.c:1357:mov2w_op *{*
                      02199 ;; >>> ../../../../src/pic14/gen.c:1375:mov2w_op
                      02200         .line   185; "LC-meter.c"       delay10ms(50);
0085   3032           02201         MOVLW   0x32
                      02202 ;; >>> ../../../../src/pic14/gen.c:2207:genCall
0086   0??? 0???      02203         PAGESEL _delay10ms
                      02204 ;; >>> ../../../../src/pic14/gen.c:2215:genCall
0088   2???           02205         CALL    _delay10ms
                      02206 ;; >>> ../../../../src/pic14/gen.c:2223:genCall
0089   0??? 0???      02207         PAGESEL $
                      02208 ;;; ../../../../src/pic14/gen.c:2358:resultRemat *{*
                      02209 ;;; ../../../../src/pic14/gen.c:4023:genAnd *{*
                      02210 ;; ***  genAnd  4024
                      02211 ;; ***  aopForSym 324
                      02212 ;;      336 sym->rname = _PORTC, size = 1
                      02213 ;;      589
                      02214 ;;      line = 4059 result AOP_DIR=_PORTC, size=1, left AOP_DIR=_PORTC, size=1, right AOP_LIT=0xdf, size
                            =1
                      02215 ;; >>> ../../../../src/pic14/gen.c:4226:genAnd
                      02216         .line   186; "LC-meter.c"       REMOVE_CCAL();
008B   0??? 0???      02217         BANKSEL _PORTC
008D   12??           02218         BCF     _PORTC,5
                      02219 ;;; ../../../../src/pic14/gen.c:2358:resultRemat *{*
                      02220 ;;; ../../../../src/pic14/gen.c:2108:genCall *{*
                      02221 ;; ***  genCall  2110
                      02222 ;; >>> ../../../../src/pic14/gen.c:2207:genCall
                      02223         .line   189; "LC-meter.c"       ser_init();
008E   0??? 0???      02224         PAGESEL _ser_init
                      02225 ;; >>> ../../../../src/pic14/gen.c:2215:genCall
0090   2???           02226         CALL    _ser_init
                      02227 ;; >>> ../../../../src/pic14/gen.c:2223:genCall
0091   0??? 0???      02228         PAGESEL $
                      02229 ;;; ../../../../src/pic14/gen.c:2358:resultRemat *{*
                      02230 ;;; ../../../../src/pic14/gen.c:4324:genOr *{*
                      02231 ;; ***  genOr  4325
                      02232 ;; ***  aopForSym 324
                      02233 ;;      336 sym->rname = _INTCON, size = 1
                      02234 ;;      589
                      02235 ;;      line = 4331 result AOP_DIR=_INTCON, size=1, left AOP_DIR=_INTCON, size=1, right AOP_LIT=0xc0, si
                            ze=1
                      02236 ;;      line = 4357 result AOP_DIR=_INTCON, size=1, left AOP_DIR=_INTCON, size=1, right AOP_LIT=0xc0, si
gpasm-1.5.0 #1285 (Jul 12 2020) obj/sdcc-16f8   11/12/23  13:12:30          PAGE 44


LOC    OBJECT CODE    LINE  SOURCE TEXT
  VALUE

                            ze=1
                      02237 ;; >>> ../../../../src/pic14/gen.c:4513:genOr
                      02238         .line   196; "LC-meter.c"       INTCON |= 0xc0; // PEIE = 1; GIE = 1;
0093   30C0           02239         MOVLW   0xc0
                      02240 ;; >>> ../../../../src/pic14/gen.c:4515:genOr
                      02241 ;;      1027
                      02242 ;;      1041  _INTCON   offset=0 - had to alloc by reg name
0094   0??? 0???      02243         BANKSEL _INTCON
0096   04??           02244         IORWF   _INTCON,F
                      02245 ;;; ../../../../src/pic14/gen.c:2358:resultRemat *{*
                      02246 ;;; ../../../../src/pic14/gen.c:2358:resultRemat *{*
                      02247 ;;; ../../../../src/pic14/gen.c:2358:resultRemat *{*
                      02248 ;;; ../../../../src/pic14/gen.c:2108:genCall *{*
                      02249 ;; ***  genCall  2110
                      02250 ;;      2158 left AOP_LIT
                      02251 ;;; ../../../../src/pic14/gen.c:1357:mov2w_op *{*
                      02252 ;; >>> ../../../../src/pic14/gen.c:1375:mov2w_op
                      02253         .line   202; "LC-meter.c"       lcd_gotoxy(0, 0);
0097   3000           02254         MOVLW   0x00
                      02255 ;;      2158 left AOP_LIT
                      02256 ;; >>> ../../../../src/pic14/gen.c:2166:genCall
                      02257 ;; ***  popRegFromIdx,1059  , rIdx=0x7f
0098   00??           02258         MOVWF   STK00
                      02259 ;;; ../../../../src/pic14/gen.c:1357:mov2w_op *{*
                      02260 ;; >>> ../../../../src/pic14/gen.c:1375:mov2w_op
0099   3000           02261         MOVLW   0x00
                      02262 ;; >>> ../../../../src/pic14/gen.c:2207:genCall
009A   0??? 0???      02263         PAGESEL _lcd_gotoxy
                      02264 ;; >>> ../../../../src/pic14/gen.c:2215:genCall
009C   2???           02265         CALL    _lcd_gotoxy
                      02266 ;; >>> ../../../../src/pic14/gen.c:2223:genCall
009D   0??? 0???      02267         PAGESEL $
                      02268 ;;; ../../../../src/pic14/gen.c:2358:resultRemat *{*
                      02269 ;;; ../../../../src/pic14/gen.c:2358:resultRemat *{*
                      02270 ;;; ../../../../src/pic14/gen.c:7353:genCast *{*
                      02271 ;; ***  genCast  7354
                      02272 ;;      627
                      02273 ;;      aopForRemat 406
                      02274 ;;      432: rname ___str_0, val 0, const = 0
                      02275 ;;      708 register type nRegs=3
                      02276 ;;      837: aopGet AOP_PCODE type PO_IMMEDIATE
                      02277 ;;      ___str_0
                      02278 ;;      line = 7362 result AOP_REG=r0x105A, size=3, left -=-, size=0, right AOP_PCODE=___str_0, size=2
                      02279 ;; ***  genCast  7408 (size=2)
                      02280 ;;; ../../../../src/pic14/gen.c:1357:mov2w_op *{*
                      02281 ;; >>> ../../../../src/pic14/gen.c:1375:mov2w_op
                      02282         .line   204; "LC-meter.c"       lcd_puts("LC-meter ");
009F   30??           02283         MOVLW   high (___str_0 + 0)
                      02284 ;; >>> ../../../../src/pic14/gen.c:1407:movwf
                      02285 ;;      1126 rIdx = r0x105B 
00A0   0??? 0???      02286         BANKSEL r0x1044
00A2   00??           02287         MOVWF   r0x1044
                      02288 ;;; ../../../../src/pic14/gen.c:1357:mov2w_op *{*
gpasm-1.5.0 #1285 (Jul 12 2020) obj/sdcc-16f8   11/12/23  13:12:30          PAGE 45


LOC    OBJECT CODE    LINE  SOURCE TEXT
  VALUE

                      02289 ;; >>> ../../../../src/pic14/gen.c:1375:mov2w_op
00A3   30??           02290         MOVLW   (___str_0 + 0)
                      02291 ;; >>> ../../../../src/pic14/gen.c:1407:movwf
                      02292 ;;      1126 rIdx = r0x105A 
00A4   00??           02293         MOVWF   r0x1045
                      02294 ;; ***  genCast  7465 (tag=128)
                      02295 ;; >>> ../../../../src/pic14/gen.c:7488:genCast
00A5   3080           02296         MOVLW   0x80
                      02297 ;; >>> ../../../../src/pic14/gen.c:1407:movwf
                      02298 ;;      1126 rIdx = r0x105C 
00A6   00??           02299         MOVWF   r0x1046
                      02300 ;; ***  addSign  1087
                      02301 ;;; ../../../../src/pic14/genarith.c:1088:addSign *{*
                      02302 ;;; ../../../../src/pic14/gen.c:2358:resultRemat *{*
                      02303 ;;; ../../../../src/pic14/gen.c:2358:resultRemat *{*
                      02304 ;;; ../../../../src/pic14/gen.c:2108:genCall *{*
                      02305 ;; ***  genCall  2110
                      02306 ;;      708 register type nRegs=3
                      02307 ;;      708 register type nRegs=3
                      02308 ;;      2158 left AOP_REG
                      02309 ;;; ../../../../src/pic14/gen.c:1357:mov2w_op *{*
                      02310 ;; ***  mov2w  1395  offset=0
                      02311 ;; >>> ../../../../src/pic14/gen.c:1400:mov2w
                      02312 ;;      1126 rIdx = r0x105A 
00A7   08??           02313         MOVF    r0x1045,W
                      02314 ;;      2158 left AOP_REG
                      02315 ;; >>> ../../../../src/pic14/gen.c:2166:genCall
                      02316 ;; ***  popRegFromIdx,1059  , rIdx=0x7e
00A8   00??           02317         MOVWF   STK01
                      02318 ;;; ../../../../src/pic14/gen.c:1357:mov2w_op *{*
                      02319 ;; ***  mov2w  1395  offset=1
                      02320 ;; >>> ../../../../src/pic14/gen.c:1400:mov2w
                      02321 ;;      1126 rIdx = r0x105B 
00A9   08??           02322         MOVF    r0x1044,W
                      02323 ;;      2158 left AOP_REG
                      02324 ;; >>> ../../../../src/pic14/gen.c:2166:genCall
                      02325 ;; ***  popRegFromIdx,1059  , rIdx=0x7f
00AA   00??           02326         MOVWF   STK00
                      02327 ;;; ../../../../src/pic14/gen.c:1357:mov2w_op *{*
                      02328 ;; ***  mov2w  1395  offset=2
                      02329 ;; >>> ../../../../src/pic14/gen.c:1400:mov2w
                      02330 ;;      1126 rIdx = r0x105C 
00AB   08??           02331         MOVF    r0x1046,W
                      02332 ;; >>> ../../../../src/pic14/gen.c:2207:genCall
00AC   0??? 0???      02333         PAGESEL _lcd_puts
                      02334 ;; >>> ../../../../src/pic14/gen.c:2215:genCall
00AE   2???           02335         CALL    _lcd_puts
                      02336 ;; >>> ../../../../src/pic14/gen.c:2223:genCall
00AF   0??? 0???      02337         PAGESEL $
                      02338 ;;; ../../../../src/pic14/gen.c:2358:resultRemat *{*
                      02339 ;;; ../../../../src/pic14/gen.c:2358:resultRemat *{*
                      02340 ;;; ../../../../src/pic14/gen.c:2358:resultRemat *{*
                      02341 ;;; ../../../../src/pic14/gen.c:2108:genCall *{*
gpasm-1.5.0 #1285 (Jul 12 2020) obj/sdcc-16f8   11/12/23  13:12:30          PAGE 46


LOC    OBJECT CODE    LINE  SOURCE TEXT
  VALUE

                      02342 ;; ***  genCall  2110
                      02343 ;; ***  aopForSym 324
                      02344 ;;      336 sym->rname = _CCal, size = 4
                      02345 ;; ***  aopForSym 324
                      02346 ;;      353 size = 2, name =_lcd_putch
                      02347 ;; ***  aopForSym 324
                      02348 ;;      336 sym->rname = _CCal, size = 4
                      02349 ;;      2158 left AOP_DIR
                      02350 ;;; ../../../../src/pic14/gen.c:1357:mov2w_op *{*
                      02351 ;; ***  mov2w  1395  offset=0
                      02352 ;; >>> ../../../../src/pic14/gen.c:1400:mov2w
                      02353 ;;      1027
                      02354 ;;      1045  _CCal   offset=0
                      02355         .line   205; "LC-meter.c"       format_float(&lcd_putch, CCal);
00B1   0??? 0???      02356         BANKSEL _CCal
00B3   08??           02357         MOVF    _CCal,W
                      02358 ;;      2158 left AOP_DIR
                      02359 ;; >>> ../../../../src/pic14/gen.c:2166:genCall
                      02360 ;; ***  popRegFromIdx,1059  , rIdx=0x7b
00B4   00??           02361         MOVWF   STK04
                      02362 ;;; ../../../../src/pic14/gen.c:1357:mov2w_op *{*
                      02363 ;; ***  mov2w  1395  offset=1
                      02364 ;; >>> ../../../../src/pic14/gen.c:1400:mov2w
                      02365 ;;      1027
                      02366 ;;      1045  _CCal   offset=1
00B5   08??           02367         MOVF    (_CCal + 1),W
                      02368 ;;      2158 left AOP_DIR
                      02369 ;; >>> ../../../../src/pic14/gen.c:2166:genCall
                      02370 ;; ***  popRegFromIdx,1059  , rIdx=0x7c
00B6   00??           02371         MOVWF   STK03
                      02372 ;;; ../../../../src/pic14/gen.c:1357:mov2w_op *{*
                      02373 ;; ***  mov2w  1395  offset=2
                      02374 ;; >>> ../../../../src/pic14/gen.c:1400:mov2w
                      02375 ;;      1027
                      02376 ;;      1045  _CCal   offset=2
00B7   08??           02377         MOVF    (_CCal + 2),W
                      02378 ;;      2158 left AOP_DIR
                      02379 ;; >>> ../../../../src/pic14/gen.c:2166:genCall
                      02380 ;; ***  popRegFromIdx,1059  , rIdx=0x7d
00B8   00??           02381         MOVWF   STK02
                      02382 ;;; ../../../../src/pic14/gen.c:1357:mov2w_op *{*
                      02383 ;; ***  mov2w  1395  offset=3
                      02384 ;; >>> ../../../../src/pic14/gen.c:1400:mov2w
                      02385 ;;      1027
                      02386 ;;      1045  _CCal   offset=3
00B9   08??           02387         MOVF    (_CCal + 3),W
                      02388 ;; ***  aopForSym 324
                      02389 ;;      353 size = 2, name =_lcd_putch
                      02390 ;;      2158 left AOP_PCODE
                      02391 ;; >>> ../../../../src/pic14/gen.c:2166:genCall
                      02392 ;; ***  popRegFromIdx,1059  , rIdx=0x7e
00BA   00??           02393         MOVWF   STK01
                      02394 ;;; ../../../../src/pic14/gen.c:1357:mov2w_op *{*
gpasm-1.5.0 #1285 (Jul 12 2020) obj/sdcc-16f8   11/12/23  13:12:30          PAGE 47


LOC    OBJECT CODE    LINE  SOURCE TEXT
  VALUE

                      02395 ;; >>> ../../../../src/pic14/gen.c:1375:mov2w_op
00BB   30??           02396         MOVLW   low (_lcd_putch+0)
                      02397 ;;      2158 left AOP_PCODE
                      02398 ;; >>> ../../../../src/pic14/gen.c:2166:genCall
                      02399 ;; ***  popRegFromIdx,1059  , rIdx=0x7f
00BC   00??           02400         MOVWF   STK00
                      02401 ;;; ../../../../src/pic14/gen.c:1357:mov2w_op *{*
                      02402 ;; >>> ../../../../src/pic14/gen.c:1375:mov2w_op
00BD   30??           02403         MOVLW   high (_lcd_putch+0)
                      02404 ;; >>> ../../../../src/pic14/gen.c:2207:genCall
00BE   0??? 0???      02405         PAGESEL _format_float
                      02406 ;; >>> ../../../../src/pic14/gen.c:2215:genCall
00C0   2???           02407         CALL    _format_float
                      02408 ;; >>> ../../../../src/pic14/gen.c:2223:genCall
00C1   0??? 0???      02409         PAGESEL $
                      02410 ;;; ../../../../src/pic14/gen.c:2358:resultRemat *{*
                      02411 ;;; ../../../../src/pic14/gen.c:2358:resultRemat *{*
                      02412 ;;; ../../../../src/pic14/gen.c:2108:genCall *{*
                      02413 ;; ***  genCall  2110
                      02414 ;;      2158 left AOP_LIT
                      02415 ;;; ../../../../src/pic14/gen.c:1357:mov2w_op *{*
                      02416 ;; >>> ../../../../src/pic14/gen.c:1375:mov2w_op
                      02417         .line   209; "LC-meter.c"       delay10ms(5);
00C3   3005           02418         MOVLW   0x05
                      02419 ;; >>> ../../../../src/pic14/gen.c:2207:genCall
00C4   0??? 0???      02420         PAGESEL _delay10ms
                      02421 ;; >>> ../../../../src/pic14/gen.c:2215:genCall
00C6   2???           02422         CALL    _delay10ms
                      02423 ;; >>> ../../../../src/pic14/gen.c:2223:genCall
00C7   0??? 0???      02424         PAGESEL $
                      02425 ;;; ../../../../src/pic14/gen.c:2358:resultRemat *{*
                      02426 ;;; ../../../../src/pic14/gen.c:2108:genCall *{*
                      02427 ;; ***  genCall  2110
                      02428 ;; >>> ../../../../src/pic14/gen.c:2207:genCall
                      02429         .line   214; "LC-meter.c"       calibrate();
00C9   0??? 0???      02430         PAGESEL _calibrate
                      02431 ;; >>> ../../../../src/pic14/gen.c:2215:genCall
00CB   2???           02432         CALL    _calibrate
                      02433 ;; >>> ../../../../src/pic14/gen.c:2223:genCall
00CC   0??? 0???      02434         PAGESEL $
                      02435 ;;; ../../../../src/pic14/gen.c:2358:resultRemat *{*
                      02436 ;;; ../../../../src/pic14/gen.c:2108:genCall *{*
                      02437 ;; ***  genCall  2110
                      02438 ;; >>> ../../../../src/pic14/gen.c:2207:genCall
                      02439         .line   217; "LC-meter.c"       lcd_clear();
00CE   0??? 0???      02440         PAGESEL _lcd_clear
                      02441 ;; >>> ../../../../src/pic14/gen.c:2215:genCall
00D0   2???           02442         CALL    _lcd_clear
                      02443 ;; >>> ../../../../src/pic14/gen.c:2223:genCall
00D1   0??? 0???      02444         PAGESEL $
                      02445 ;;; ../../../../src/pic14/gen.c:2358:resultRemat *{*
                      02446 ;;; ../../../../src/pic14/gen.c:2802:genLabel *{*
                      02447 ;; ***  genLabel  2805
gpasm-1.5.0 #1285 (Jul 12 2020) obj/sdcc-16f8   11/12/23  13:12:30          PAGE 48


LOC    OBJECT CODE    LINE  SOURCE TEXT
  VALUE

                      02448 ;;; ../../../../src/pic14/gen.c:2358:resultRemat *{*
                      02449 ;; ***  aopForSym 324
                      02450 ;;      336 sym->rname = _PORTC, size = 1
                      02451 ;;      708 register type nRegs=1
                      02452 ;; ***  mov2w  1395  offset=0
                      02453 ;; >>> ../../../../src/pic14/gen.c:1400:mov2w
                      02454 ;;      1027
                      02455 ;;      1045  _PORTC   offset=0
00D3                  02456 _00181_DS_:
                      02457         .line   226; "LC-meter.c"       char new_mode = LC_SELECT;
00D3   0??? 0???      02458         BANKSEL _PORTC
00D5   08??           02459         MOVF    _PORTC,W
                      02460 ;; >>> ../../../../src/pic14/gen.c:5051:genGetABit
00D6   3910           02461         ANDLW   0x10
                      02462 ;; >>> ../../../../src/pic14/gen.c:5061:genGetABit
00D7   1D03           02463         BTFSS   STATUS,2
                      02464 ;; >>> ../../../../src/pic14/gen.c:5062:genGetABit
00D8   3001           02465         MOVLW   0x01
                      02466 ;; >>> ../../../../src/pic14/gen.c:5067:genGetABit
                      02467 ;;      1126 rIdx = r0x105A 
00D9   0??? 0???      02468         BANKSEL r0x1045
00DB   00??           02469         MOVWF   r0x1045
                      02470 ;;; ../../../../src/pic14/gen.c:2358:resultRemat *{*
                      02471 ;;; ../../../../src/pic14/gen.c:1548:genNot *{*
                      02472 ;; ***  genNot  1550
                      02473 ;;      708 register type nRegs=1
                      02474 ;;      708 register type nRegs=1
                      02475 ;;      line = 1555 result AOP_REG=r0x105B, size=1, left AOP_REG=r0x105A, size=1, right -=-, size=0
                      02476 ;; ***  mov2w  1395  offset=0
                      02477 ;; >>> ../../../../src/pic14/gen.c:1400:mov2w
                      02478 ;;      1126 rIdx = r0x105A 
00DC   08??           02479         MOVF    r0x1045,W
                      02480 ;; >>> ../../../../src/pic14/gen.c:1582:genNot
00DD   3000           02481         MOVLW   0x00
                      02482 ;; >>> ../../../../src/pic14/gen.c:1583:genNot
00DE   1903           02483         BTFSC   STATUS,2
                      02484 ;; >>> ../../../../src/pic14/gen.c:1584:genNot
00DF   3001           02485         MOVLW   0x01
                      02486 ;; >>> ../../../../src/pic14/gen.c:1407:movwf
                      02487 ;;      1126 rIdx = r0x105B 
00E0   00??           02488         MOVWF   r0x1044
                      02489 ;;; ../../../../src/pic14/gen.c:2358:resultRemat *{*
                      02490 ;;; ../../../../src/pic14/gen.c:1548:genNot *{*
                      02491 ;; ***  genNot  1550
                      02492 ;;      708 register type nRegs=1
                      02493 ;;      708 register type nRegs=1
                      02494 ;;      line = 1555 result AOP_REG=r0x105A, size=1, left AOP_REG=r0x105B, size=1, right -=-, size=0
                      02495 ;; ***  mov2w  1395  offset=0
                      02496 ;; >>> ../../../../src/pic14/gen.c:1400:mov2w
                      02497 ;;      1126 rIdx = r0x105B 
00E1   08??           02498         MOVF    r0x1044,W
                      02499 ;; >>> ../../../../src/pic14/gen.c:1582:genNot
00E2   3000           02500         MOVLW   0x00
gpasm-1.5.0 #1285 (Jul 12 2020) obj/sdcc-16f8   11/12/23  13:12:30          PAGE 49


LOC    OBJECT CODE    LINE  SOURCE TEXT
  VALUE

                      02501 ;; >>> ../../../../src/pic14/gen.c:1583:genNot
00E3   1903           02502         BTFSC   STATUS,2
                      02503 ;; >>> ../../../../src/pic14/gen.c:1584:genNot
00E4   3001           02504         MOVLW   0x01
                      02505 ;; >>> ../../../../src/pic14/gen.c:1407:movwf
                      02506 ;;      1126 rIdx = r0x105A 
00E5   00??           02507         MOVWF   r0x1045
                      02508         .line   228; "LC-meter.c"       if(new_mode != mode) {
00E6   00??           02509         MOVWF   r0x1044
                      02510         .line   230; "LC-meter.c"       ser_puts(mode ? "- C (Unit: F) -" : "- L (Unit: H) -");
00E7   0??? 0???      02511         BANKSEL _mode
00E9   06??           02512         XORWF   _mode,W
00EA   1903           02513         BTFSC   STATUS,2
00EB   2???           02514         GOTO    _00174_DS_
00EC   08??           02515         MOVF    _mode,W
00ED   1903           02516         BTFSC   STATUS,2
                      02517 ;; >>> ../../../../src/pic14/gen.c:7046:genIfx
                      02518 ;; ***  popGetLabel  key=13, label offset 72
00EE   2???           02519         GOTO    _00185_DS_
                      02520 ;;; ../../../../src/pic14/gen.c:2358:resultRemat *{*
                      02521 ;;; ../../../../src/pic14/gen.c:7065:genAddrOf *{*
                      02522 ;; ***  genAddrOf  7066
                      02523 ;; ***  aopForSym 324
                      02524 ;;      368 size = 16, name =___str_1
                      02525 ;;      708 register type nRegs=2
                      02526 ;;      837: aopGet AOP_PCODE type PO_IMMEDIATE
                      02527 ;;      ___str_1
                      02528 ;;      line = 7075 result AOP_REG=r0x105A, size=2, left AOP_PCODE=___str_1, size=16, right AOP_LIT=0x00
                            , size=1
                      02529 ;; >>> ../../../../src/pic14/gen.c:7123:genAddrOf
00EF   30??           02530         MOVLW   (___str_1 + 0)
                      02531 ;; >>> ../../../../src/pic14/gen.c:7124:genAddrOf
                      02532 ;;      1126 rIdx = r0x105A 
00F0   0??? 0???      02533         BANKSEL r0x1045
00F2   00??           02534         MOVWF   r0x1045
                      02535 ;; >>> ../../../../src/pic14/gen.c:7123:genAddrOf
00F3   30??           02536         MOVLW   high (___str_1 + 0)
                      02537 ;; >>> ../../../../src/pic14/gen.c:7124:genAddrOf
                      02538 ;;      1126 rIdx = r0x105C 
00F4   00??           02539         MOVWF   r0x1046
                      02540 ;;; ../../../../src/pic14/gen.c:2358:resultRemat *{*
                      02541 ;;; ../../../../src/pic14/gen.c:2820:genGoto *{*
                      02542 ;; >>> ../../../../src/pic14/gen.c:2822:genGoto
                      02543 ;; ***  popGetLabel  key=14, label offset 72
00F5   2???           02544         GOTO    _00186_DS_
                      02545 ;;; ../../../../src/pic14/gen.c:2358:resultRemat *{*
                      02546 ;;; ../../../../src/pic14/gen.c:2802:genLabel *{*
                      02547 ;; ***  genLabel  2805
                      02548 ;;; ../../../../src/pic14/gen.c:2358:resultRemat *{*
                      02549 ;;; ../../../../src/pic14/gen.c:7065:genAddrOf *{*
                      02550 ;; ***  genAddrOf  7066
                      02551 ;; ***  aopForSym 324
                      02552 ;;      368 size = 16, name =___str_2
gpasm-1.5.0 #1285 (Jul 12 2020) obj/sdcc-16f8   11/12/23  13:12:30          PAGE 50


LOC    OBJECT CODE    LINE  SOURCE TEXT
  VALUE

                      02553 ;;      708 register type nRegs=2
                      02554 ;;      837: aopGet AOP_PCODE type PO_IMMEDIATE
                      02555 ;;      ___str_2
                      02556 ;;      line = 7075 result AOP_REG=r0x105A, size=2, left AOP_PCODE=___str_2, size=16, right AOP_LIT=0x00
                            , size=1
                      02557 ;; >>> ../../../../src/pic14/gen.c:7123:genAddrOf
00F6                  02558 _00185_DS_:
00F6   30??           02559         MOVLW   (___str_2 + 0)
                      02560 ;; >>> ../../../../src/pic14/gen.c:7124:genAddrOf
                      02561 ;;      1126 rIdx = r0x105A 
00F7   0??? 0???      02562         BANKSEL r0x1045
00F9   00??           02563         MOVWF   r0x1045
                      02564 ;; >>> ../../../../src/pic14/gen.c:7123:genAddrOf
00FA   30??           02565         MOVLW   high (___str_2 + 0)
                      02566 ;; >>> ../../../../src/pic14/gen.c:7124:genAddrOf
                      02567 ;;      1126 rIdx = r0x105C 
00FB   00??           02568         MOVWF   r0x1046
                      02569 ;;; ../../../../src/pic14/gen.c:2358:resultRemat *{*
                      02570 ;;; ../../../../src/pic14/gen.c:2802:genLabel *{*
                      02571 ;; ***  genLabel  2805
                      02572 ;;; ../../../../src/pic14/gen.c:2358:resultRemat *{*
                      02573 ;;; ../../../../src/pic14/gen.c:7353:genCast *{*
                      02574 ;; ***  genCast  7354
                      02575 ;;      708 register type nRegs=2
                      02576 ;;      708 register type nRegs=3
                      02577 ;;      line = 7362 result AOP_REG=r0x105D, size=3, left -=-, size=0, right AOP_REG=r0x105A, size=2
                      02578 ;; ***  genCast  7408 (size=2)
                      02579 ;; >>> ../../../../src/pic14/gen.c:7425:genCast
                      02580 ;;      1126 rIdx = r0x105C 
                      02581 ;;101   MOVF    r0x1046,W
                      02582 ;; >>> ../../../../src/pic14/gen.c:1407:movwf
                      02583 ;;      1126 rIdx = r0x105E 
                      02584 ;;99    MOVWF   r0x1047
                      02585 ;; >>> ../../../../src/pic14/gen.c:7425:genCast
                      02586 ;;      1126 rIdx = r0x105A 
                      02587 ;;103   MOVF    r0x1045,W
                      02588 ;; >>> ../../../../src/pic14/gen.c:1407:movwf
                      02589 ;;      1126 rIdx = r0x105D 
                      02590 ;; ***  genCast  7465 (tag=128)
                      02591 ;; >>> ../../../../src/pic14/gen.c:7488:genCast
00FC                  02592 _00186_DS_:
00FC   3080           02593         MOVLW   0x80
                      02594 ;; >>> ../../../../src/pic14/gen.c:1407:movwf
                      02595 ;;      1126 rIdx = r0x105F 
00FD   0??? 0???      02596         BANKSEL r0x1049
00FF   00??           02597         MOVWF   r0x1049
                      02598 ;; ***  addSign  1087
                      02599 ;;; ../../../../src/pic14/genarith.c:1088:addSign *{*
                      02600 ;;; ../../../../src/pic14/gen.c:2358:resultRemat *{*
                      02601 ;;; ../../../../src/pic14/gen.c:2358:resultRemat *{*
                      02602 ;;; ../../../../src/pic14/gen.c:2108:genCall *{*
                      02603 ;; ***  genCall  2110
                      02604 ;;      708 register type nRegs=3
gpasm-1.5.0 #1285 (Jul 12 2020) obj/sdcc-16f8   11/12/23  13:12:30          PAGE 51


LOC    OBJECT CODE    LINE  SOURCE TEXT
  VALUE

                      02605 ;;      708 register type nRegs=3
                      02606 ;;      2158 left AOP_REG
                      02607 ;;; ../../../../src/pic14/gen.c:1357:mov2w_op *{*
                      02608 ;; ***  mov2w  1395  offset=0
                      02609 ;; >>> ../../../../src/pic14/gen.c:1400:mov2w
                      02610 ;;      1126 rIdx = r0x105D 
                      02611 ;;102   MOVF    r0x1048,W
0100   08??           02612         MOVF    r0x1045,W
0101   00??           02613         MOVWF   r0x1048
                      02614 ;;      2158 left AOP_REG
                      02615 ;; >>> ../../../../src/pic14/gen.c:2166:genCall
                      02616 ;; ***  popRegFromIdx,1059  , rIdx=0x7e
0102   00??           02617         MOVWF   STK01
                      02618 ;;; ../../../../src/pic14/gen.c:1357:mov2w_op *{*
                      02619 ;; ***  mov2w  1395  offset=1
                      02620 ;; >>> ../../../../src/pic14/gen.c:1400:mov2w
                      02621 ;;      1126 rIdx = r0x105E 
                      02622 ;;100   MOVF    r0x1047,W
0103   08??           02623         MOVF    r0x1046,W
                      02624 ;;      2158 left AOP_REG
                      02625 ;; >>> ../../../../src/pic14/gen.c:2166:genCall
                      02626 ;; ***  popRegFromIdx,1059  , rIdx=0x7f
0104   00??           02627         MOVWF   STK00
                      02628 ;;; ../../../../src/pic14/gen.c:1357:mov2w_op *{*
                      02629 ;; ***  mov2w  1395  offset=2
                      02630 ;; >>> ../../../../src/pic14/gen.c:1400:mov2w
                      02631 ;;      1126 rIdx = r0x105F 
0105   08??           02632         MOVF    r0x1049,W
                      02633 ;; >>> ../../../../src/pic14/gen.c:2207:genCall
0106   0??? 0???      02634         PAGESEL _ser_puts
                      02635 ;; >>> ../../../../src/pic14/gen.c:2215:genCall
0108   2???           02636         CALL    _ser_puts
                      02637 ;; >>> ../../../../src/pic14/gen.c:2223:genCall
0109   0??? 0???      02638         PAGESEL $
                      02639 ;;; ../../../../src/pic14/gen.c:2358:resultRemat *{*
                      02640 ;;; ../../../../src/pic14/gen.c:2358:resultRemat *{*
                      02641 ;;; ../../../../src/pic14/gen.c:7353:genCast *{*
                      02642 ;; ***  genCast  7354
                      02643 ;;      627
                      02644 ;;      aopForRemat 406
                      02645 ;;      432: rname ___str_3, val 0, const = 0
                      02646 ;;      708 register type nRegs=3
                      02647 ;;      837: aopGet AOP_PCODE type PO_IMMEDIATE
                      02648 ;;      ___str_3
                      02649 ;;      line = 7362 result AOP_REG=r0x105A, size=3, left -=-, size=0, right AOP_PCODE=___str_3, size=2
                      02650 ;; ***  genCast  7408 (size=2)
                      02651 ;;; ../../../../src/pic14/gen.c:1357:mov2w_op *{*
                      02652 ;; >>> ../../../../src/pic14/gen.c:1375:mov2w_op
                      02653         .line   231; "LC-meter.c"       ser_puts("\r\n");
010B   30??           02654         MOVLW   high (___str_3 + 0)
                      02655 ;; >>> ../../../../src/pic14/gen.c:1407:movwf
                      02656 ;;      1126 rIdx = r0x105C 
010C   0??? 0???      02657         BANKSEL r0x1046
gpasm-1.5.0 #1285 (Jul 12 2020) obj/sdcc-16f8   11/12/23  13:12:30          PAGE 52


LOC    OBJECT CODE    LINE  SOURCE TEXT
  VALUE

010E   00??           02658         MOVWF   r0x1046
                      02659 ;;; ../../../../src/pic14/gen.c:1357:mov2w_op *{*
                      02660 ;; >>> ../../../../src/pic14/gen.c:1375:mov2w_op
010F   30??           02661         MOVLW   (___str_3 + 0)
                      02662 ;; >>> ../../../../src/pic14/gen.c:1407:movwf
                      02663 ;;      1126 rIdx = r0x105A 
0110   00??           02664         MOVWF   r0x1045
                      02665 ;; ***  genCast  7465 (tag=128)
                      02666 ;; >>> ../../../../src/pic14/gen.c:7488:genCast
0111   3080           02667         MOVLW   0x80
                      02668 ;; >>> ../../../../src/pic14/gen.c:1407:movwf
                      02669 ;;      1126 rIdx = r0x105D 
0112   00??           02670         MOVWF   r0x1048
                      02671 ;; ***  addSign  1087
                      02672 ;;; ../../../../src/pic14/genarith.c:1088:addSign *{*
                      02673 ;;; ../../../../src/pic14/gen.c:2358:resultRemat *{*
                      02674 ;;; ../../../../src/pic14/gen.c:2358:resultRemat *{*
                      02675 ;;; ../../../../src/pic14/gen.c:2108:genCall *{*
                      02676 ;; ***  genCall  2110
                      02677 ;;      708 register type nRegs=3
                      02678 ;;      708 register type nRegs=3
                      02679 ;;      2158 left AOP_REG
                      02680 ;;; ../../../../src/pic14/gen.c:1357:mov2w_op *{*
                      02681 ;; ***  mov2w  1395  offset=0
                      02682 ;; >>> ../../../../src/pic14/gen.c:1400:mov2w
                      02683 ;;      1126 rIdx = r0x105A 
0113   08??           02684         MOVF    r0x1045,W
                      02685 ;;      2158 left AOP_REG
                      02686 ;; >>> ../../../../src/pic14/gen.c:2166:genCall
                      02687 ;; ***  popRegFromIdx,1059  , rIdx=0x7e
0114   00??           02688         MOVWF   STK01
                      02689 ;;; ../../../../src/pic14/gen.c:1357:mov2w_op *{*
                      02690 ;; ***  mov2w  1395  offset=1
                      02691 ;; >>> ../../../../src/pic14/gen.c:1400:mov2w
                      02692 ;;      1126 rIdx = r0x105C 
0115   08??           02693         MOVF    r0x1046,W
                      02694 ;;      2158 left AOP_REG
                      02695 ;; >>> ../../../../src/pic14/gen.c:2166:genCall
                      02696 ;; ***  popRegFromIdx,1059  , rIdx=0x7f
0116   00??           02697         MOVWF   STK00
                      02698 ;;; ../../../../src/pic14/gen.c:1357:mov2w_op *{*
                      02699 ;; ***  mov2w  1395  offset=2
                      02700 ;; >>> ../../../../src/pic14/gen.c:1400:mov2w
                      02701 ;;      1126 rIdx = r0x105D 
0117   08??           02702         MOVF    r0x1048,W
                      02703 ;; >>> ../../../../src/pic14/gen.c:2207:genCall
0118   0??? 0???      02704         PAGESEL _ser_puts
                      02705 ;; >>> ../../../../src/pic14/gen.c:2215:genCall
011A   2???           02706         CALL    _ser_puts
                      02707 ;; >>> ../../../../src/pic14/gen.c:2223:genCall
011B   0??? 0???      02708         PAGESEL $
                      02709 ;;; ../../../../src/pic14/gen.c:2358:resultRemat *{*
                      02710 ;;; ../../../../src/pic14/gen.c:7159:genAssign *{*
gpasm-1.5.0 #1285 (Jul 12 2020) obj/sdcc-16f8   11/12/23  13:12:30          PAGE 53


LOC    OBJECT CODE    LINE  SOURCE TEXT
  VALUE

                      02711 ;; ***  genAssign  7160
                      02712 ;;      708 register type nRegs=1
                      02713 ;; ***  aopForSym 324
                      02714 ;;      336 sym->rname = _mode, size = 1
                      02715 ;;      line = 7169 result AOP_DIR=_mode, size=1, left -=-, size=0, right AOP_REG=r0x105B, size=1
                      02716 ;; ***  genAssign  7253
                      02717 ;;; ../../../../src/pic14/gen.c:1357:mov2w_op *{*
                      02718 ;; ***  mov2w  1395  offset=0
                      02719 ;; >>> ../../../../src/pic14/gen.c:1400:mov2w
                      02720 ;;      1126 rIdx = r0x105B 
                      02721         .line   233; "LC-meter.c"       mode = new_mode;
011D   0??? 0???      02722         BANKSEL r0x1044
011F   08??           02723         MOVF    r0x1044,W
                      02724 ;; >>> ../../../../src/pic14/gen.c:7280:genAssign
                      02725 ;;      1027
                      02726 ;;      1045  _mode   offset=0
0120   0??? 0???      02727         BANKSEL _mode
0122   00??           02728         MOVWF   _mode
                      02729 ;;; ../../../../src/pic14/gen.c:2358:resultRemat *{*
                      02730 ;;; ../../../../src/pic14/gen.c:2802:genLabel *{*
                      02731 ;; ***  genLabel  2805
                      02732 ;;; ../../../../src/pic14/gen.c:2358:resultRemat *{*
                      02733 ;;; ../../../../src/pic14/gen.c:3652:genCmpLt *{*
                      02734 ;; ***  genCmpLt  3653
                      02735 ;; ***  aopForSym 324
                      02736 ;;      336 sym->rname = _led_cycle, size = 2
                      02737 ;; ***  aopForSym 324
                      02738 ;;      336 sym->rname = _led_interval, size = 2
                      02739 ;;; ../../../../src/pic14/gen.c:3354:genCmp *{*
                      02740 ;; >>> ../../../../src/pic14/gen.c:3329:pic14_mov2w_regOrLit
                      02741 ;;      1027
                      02742 ;;      1045  _led_interval   offset=1
0123                  02743 _00174_DS_:
                      02744         .line   236; "LC-meter.c"       if(led_cycle >= led_interval)
0123   0??? 0???      02745         BANKSEL _led_interval
0125   08??           02746         MOVF    (_led_interval + 1),W
                      02747 ;; >>> ../../../../src/pic14/gen.c:3492:genCmp
                      02748 ;;      1027
                      02749 ;;      1045  _led_cycle   offset=1
0126   0??? 0???      02750         BANKSEL _led_cycle
0128   02??           02751         SUBWF   (_led_cycle + 1),W
                      02752 ;; >>> ../../../../src/pic14/gen.c:3537:genCmp
0129   1D03           02753         BTFSS   STATUS,2
                      02754 ;; >>> ../../../../src/pic14/gen.c:3545:genCmp
                      02755 ;; ***  popGetLabel  key=36, label offset 72
012A   2???           02756         GOTO    _00208_DS_
                      02757 ;; >>> ../../../../src/pic14/gen.c:3329:pic14_mov2w_regOrLit
                      02758 ;;      1027
                      02759 ;;      1045  _led_interval   offset=0
012B   0??? 0???      02760         BANKSEL _led_interval
012D   08??           02761         MOVF    _led_interval,W
                      02762 ;; >>> ../../../../src/pic14/gen.c:3549:genCmp
                      02763 ;;      1027
gpasm-1.5.0 #1285 (Jul 12 2020) obj/sdcc-16f8   11/12/23  13:12:30          PAGE 54


LOC    OBJECT CODE    LINE  SOURCE TEXT
  VALUE

                      02764 ;;      1045  _led_cycle   offset=0
012E   0??? 0???      02765         BANKSEL _led_cycle
0130   02??           02766         SUBWF   _led_cycle,W
                      02767 ;;; ../../../../src/pic14/gen.c:3297:genSkipc *{*
                      02768 ;; >>> ../../../../src/pic14/gen.c:3304:genSkipc
0131                  02769 _00208_DS_:
0131   1C03           02770         BTFSS   STATUS,0
                      02771 ;; >>> ../../../../src/pic14/gen.c:3306:genSkipc
                      02772 ;; ***  popGetLabel  key=4, label offset 72
0132   2???           02773         GOTO    _00176_DS_
                      02774 ;;genSkipc:3307: created from rifx:0x7ffdd082ffa0
                      02775 ;;; ../../../../src/pic14/gen.c:2358:resultRemat *{*
                      02776 ;;; ../../../../src/pic14/gen.c:2358:resultRemat *{*
                      02777 ;;; ../../../../src/pic14/gen.c:7159:genAssign *{*
                      02778 ;; ***  genAssign  7160
                      02779 ;; ***  aopForSym 324
                      02780 ;;      336 sym->rname = _led_cycle, size = 2
                      02781 ;;      line = 7169 result AOP_DIR=_led_cycle, size=2, left -=-, size=0, right AOP_LIT=0x00, size=2
                      02782 ;; ***  genAssign  7253
                      02783 ;; >>> ../../../../src/pic14/gen.c:7265:genAssign
                      02784 ;;      1027
                      02785 ;;      1045  _led_cycle   offset=0
                      02786         .line   237; "LC-meter.c"       led_cycle = 0;
0133   0??? 0???      02787         BANKSEL _led_cycle
0135   01??           02788         CLRF    _led_cycle
                      02789 ;; ***  genAssign  7253
                      02790 ;; >>> ../../../../src/pic14/gen.c:7265:genAssign
                      02791 ;;      1027
                      02792 ;;      1045  _led_cycle   offset=1
0136   01??           02793         CLRF    (_led_cycle + 1)
                      02794 ;;; ../../../../src/pic14/gen.c:2358:resultRemat *{*
                      02795 ;;; ../../../../src/pic14/gen.c:2802:genLabel *{*
                      02796 ;; ***  genLabel  2805
                      02797 ;;; ../../../../src/pic14/gen.c:2358:resultRemat *{*
                      02798 ;;; ../../../../src/pic14/gen.c:6991:genIfx *{*
                      02799 ;; ***  genIfx  6992
                      02800 ;; ***  aopForSym 324
                      02801 ;;      336 sym->rname = _mode, size = 1
                      02802 ;; ***  pic14_toBoolean  1515
                      02803 ;; ***  mov2w  1395  offset=0
                      02804 ;; >>> ../../../../src/pic14/gen.c:1400:mov2w
                      02805 ;;      1027
                      02806 ;;      1045  _mode   offset=0
0137                  02807 _00176_DS_:
                      02808         .line   239; "LC-meter.c"       if(mode)
0137   0??? 0???      02809         BANKSEL _mode
0139   08??           02810         MOVF    _mode,W
                      02811 ;; >>> ../../../../src/pic14/gen.c:7045:genIfx
013A   1903           02812         BTFSC   STATUS,2
                      02813 ;; >>> ../../../../src/pic14/gen.c:7046:genIfx
                      02814 ;; ***  popGetLabel  key=6, label offset 72
013B   2???           02815         GOTO    _00178_DS_
                      02816 ;;; ../../../../src/pic14/gen.c:2358:resultRemat *{*
gpasm-1.5.0 #1285 (Jul 12 2020) obj/sdcc-16f8   11/12/23  13:12:30          PAGE 55


LOC    OBJECT CODE    LINE  SOURCE TEXT
  VALUE

                      02817 ;;; ../../../../src/pic14/gen.c:2108:genCall *{*
                      02818 ;; ***  genCall  2110
                      02819 ;; >>> ../../../../src/pic14/gen.c:2207:genCall
                      02820         .line   240; "LC-meter.c"       measure_capacitance();
013C   0??? 0???      02821         PAGESEL _measure_capacitance
                      02822 ;; >>> ../../../../src/pic14/gen.c:2215:genCall
013E   2???           02823         CALL    _measure_capacitance
                      02824 ;; >>> ../../../../src/pic14/gen.c:2223:genCall
013F   0??? 0???      02825         PAGESEL $
                      02826 ;;; ../../../../src/pic14/gen.c:2358:resultRemat *{*
                      02827 ;;; ../../../../src/pic14/gen.c:2820:genGoto *{*
                      02828 ;; >>> ../../../../src/pic14/gen.c:2822:genGoto
                      02829 ;; ***  popGetLabel  key=7, label offset 72
0141   2???           02830         GOTO    _00179_DS_
                      02831 ;;; ../../../../src/pic14/gen.c:2358:resultRemat *{*
                      02832 ;;; ../../../../src/pic14/gen.c:2802:genLabel *{*
                      02833 ;; ***  genLabel  2805
                      02834 ;;; ../../../../src/pic14/gen.c:2358:resultRemat *{*
                      02835 ;;; ../../../../src/pic14/gen.c:2108:genCall *{*
                      02836 ;; ***  genCall  2110
                      02837 ;; >>> ../../../../src/pic14/gen.c:2207:genCall
0142                  02838 _00178_DS_:
                      02839         .line   242; "LC-meter.c"       measure_inductance();
0142   0??? 0???      02840         PAGESEL _measure_inductance
                      02841 ;; >>> ../../../../src/pic14/gen.c:2215:genCall
0144   2???           02842         CALL    _measure_inductance
                      02843 ;; >>> ../../../../src/pic14/gen.c:2223:genCall
0145   0??? 0???      02844         PAGESEL $
                      02845 ;;; ../../../../src/pic14/gen.c:2358:resultRemat *{*
                      02846 ;;; ../../../../src/pic14/gen.c:2802:genLabel *{*
                      02847 ;; ***  genLabel  2805
                      02848 ;;; ../../../../src/pic14/gen.c:2358:resultRemat *{*
                      02849 ;;; ../../../../src/pic14/gen.c:2358:resultRemat *{*
                      02850 ;;; ../../../../src/pic14/gen.c:2108:genCall *{*
                      02851 ;; ***  genCall  2110
                      02852 ;;      2158 left AOP_LIT
                      02853 ;;; ../../../../src/pic14/gen.c:1357:mov2w_op *{*
                      02854 ;; >>> ../../../../src/pic14/gen.c:1375:mov2w_op
0147                  02855 _00179_DS_:
                      02856         .line   244; "LC-meter.c"       print_indicator(1);
0147   3001           02857         MOVLW   0x01
                      02858 ;; >>> ../../../../src/pic14/gen.c:2207:genCall
0148   0??? 0???      02859         PAGESEL _print_indicator
                      02860 ;; >>> ../../../../src/pic14/gen.c:2215:genCall
014A   2???           02861         CALL    _print_indicator
                      02862 ;; >>> ../../../../src/pic14/gen.c:2223:genCall
014B   0??? 0???      02863         PAGESEL $
                      02864 ;;; ../../../../src/pic14/gen.c:2358:resultRemat *{*
                      02865 ;;; ../../../../src/pic14/gen.c:2358:resultRemat *{*
                      02866 ;;; ../../../../src/pic14/gen.c:2108:genCall *{*
                      02867 ;; ***  genCall  2110
                      02868 ;;      2158 left AOP_LIT
                      02869 ;;; ../../../../src/pic14/gen.c:1357:mov2w_op *{*
gpasm-1.5.0 #1285 (Jul 12 2020) obj/sdcc-16f8   11/12/23  13:12:30          PAGE 56


LOC    OBJECT CODE    LINE  SOURCE TEXT
  VALUE

                      02870 ;; >>> ../../../../src/pic14/gen.c:1375:mov2w_op
                      02871         .line   245; "LC-meter.c"       delay10ms(30);
014D   301E           02872         MOVLW   0x1e
                      02873 ;; >>> ../../../../src/pic14/gen.c:2207:genCall
014E   0??? 0???      02874         PAGESEL _delay10ms
                      02875 ;; >>> ../../../../src/pic14/gen.c:2215:genCall
0150   2???           02876         CALL    _delay10ms
                      02877 ;; >>> ../../../../src/pic14/gen.c:2223:genCall
0151   0??? 0???      02878         PAGESEL $
                      02879 ;;; ../../../../src/pic14/gen.c:2358:resultRemat *{*
                      02880 ;;; ../../../../src/pic14/gen.c:2358:resultRemat *{*
                      02881 ;;; ../../../../src/pic14/gen.c:2108:genCall *{*
                      02882 ;; ***  genCall  2110
                      02883 ;;      2158 left AOP_LIT
                      02884 ;;; ../../../../src/pic14/gen.c:1357:mov2w_op *{*
                      02885 ;; >>> ../../../../src/pic14/gen.c:1375:mov2w_op
                      02886         .line   247; "LC-meter.c"       print_indicator(0);
0153   3000           02887         MOVLW   0x00
                      02888 ;; >>> ../../../../src/pic14/gen.c:2207:genCall
0154   0??? 0???      02889         PAGESEL _print_indicator
                      02890 ;; >>> ../../../../src/pic14/gen.c:2215:genCall
0156   2???           02891         CALL    _print_indicator
                      02892 ;; >>> ../../../../src/pic14/gen.c:2223:genCall
0157   0??? 0???      02893         PAGESEL $
                      02894 ;;; ../../../../src/pic14/gen.c:2358:resultRemat *{*
                      02895 ;;; ../../../../src/pic14/gen.c:2358:resultRemat *{*
                      02896 ;;; ../../../../src/pic14/gen.c:2108:genCall *{*
                      02897 ;; ***  genCall  2110
                      02898 ;;      2158 left AOP_LIT
                      02899 ;;; ../../../../src/pic14/gen.c:1357:mov2w_op *{*
                      02900 ;; >>> ../../../../src/pic14/gen.c:1375:mov2w_op
                      02901         .line   248; "LC-meter.c"       delay10ms(20);
0159   3014           02902         MOVLW   0x14
                      02903 ;; >>> ../../../../src/pic14/gen.c:2207:genCall
015A   0??? 0???      02904         PAGESEL _delay10ms
                      02905 ;; >>> ../../../../src/pic14/gen.c:2215:genCall
015C   2???           02906         CALL    _delay10ms
                      02907 ;; >>> ../../../../src/pic14/gen.c:2223:genCall
015D   0??? 0???      02908         PAGESEL $
                      02909 ;;; ../../../../src/pic14/gen.c:2358:resultRemat *{*
                      02910 ;;; ../../../../src/pic14/gen.c:2820:genGoto *{*
                      02911 ;; >>> ../../../../src/pic14/gen.c:2822:genGoto
                      02912 ;; ***  popGetLabel  key=9, label offset 72
015F   2???           02913         GOTO    _00181_DS_
                      02914 ;;; ../../../../src/pic14/gen.c:2358:resultRemat *{*
                      02915 ;;; ../../../../src/pic14/gen.c:2802:genLabel *{*
                      02916 ;; ***  genLabel  2805
                      02917 ;;; ../../../../src/pic14/gen.c:2358:resultRemat *{*
                      02918 ;;; ../../../../src/pic14/gen.c:2570:genEndFunction *{*
                      02919 ;; ***  genEndFunction  2572
                      02920         .line   250; "LC-meter.c"       }
0160   0008           02921         RETURN  
                      02922 ; exit point of _main
gpasm-1.5.0 #1285 (Jul 12 2020) obj/sdcc-16f8   11/12/23  13:12:30          PAGE 57


LOC    OBJECT CODE    LINE  SOURCE TEXT
  VALUE

                      02923 ;;; ../../../../src/pic14/gen.c:7677:genpic14Code *{*
                      02924 
                      02925 ;***
                      02926 ;  pBlock Stats: dbName = C
                      02927 ;***
                      02928 ;has an exit
                      02929 ;functions called:
                      02930 ;   _delay10ms
                      02931 ;   _lcd_gotoxy
                      02932 ;   _lcd_puts
                      02933 ;   _lcd_gotoxy
                      02934 ;   _format_number
                      02935 ;   _lcd_gotoxy
                      02936 ;   _lcd_puts
                      02937 ;   _lcd_gotoxy
                      02938 ;   _lcd_gotoxy
                      02939 ;   _lcd_puts
                      02940 ;   _lcd_gotoxy
                      02941 ;   _lcd_puts
                      02942 ;   _lcd_putch
                      02943 ;   _format_number
                      02944 ;   _ser_puts
                      02945 ;   _delay10ms
                      02946 ;   _lcd_gotoxy
                      02947 ;   _lcd_puts
                      02948 ;   _lcd_gotoxy
                      02949 ;   _format_number
                      02950 ;   _lcd_gotoxy
                      02951 ;   _lcd_puts
                      02952 ;   _lcd_gotoxy
                      02953 ;   _lcd_gotoxy
                      02954 ;   _lcd_puts
                      02955 ;   _lcd_gotoxy
                      02956 ;   _lcd_puts
                      02957 ;   _lcd_putch
                      02958 ;   _format_number
                      02959 ;   _ser_puts
                      02960 ;10 compiler assigned registers:
                      02961 ;   r0x103F
                      02962 ;   r0x1040
                      02963 ;   STK00
                      02964 ;   r0x1041
                      02965 ;   r0x1042
                      02966 ;   r0x1043
                      02967 ;   STK01
                      02968 ;   STK04
                      02969 ;   STK03
                      02970 ;   STK02
                      02971 ;; Starting pCode block
                      02972 ;;; ../../../../src/pic14/gen.c:2358:resultRemat *{*
                      02973 ;;; ../../../../src/pic14/gen.c:2802:genLabel *{*
                      02974 ;; ***  genLabel  2805
                      02975 ;;; ../../../../src/pic14/gen.c:2358:resultRemat *{*
gpasm-1.5.0 #1285 (Jul 12 2020) obj/sdcc-16f8   11/12/23  13:12:30          PAGE 58


LOC    OBJECT CODE    LINE  SOURCE TEXT
  VALUE

                      02976 ;;; ../../../../src/pic14/gen.c:2382:genFunction *{*
                      02977 ;; ***  genFunction  2384 curr label offset=72previous max_key=36 
                      02978 S_LC_meter__testloop    code
0000                  02979 _testloop:
                      02980 ; 2 exit points
                      02981 ;;; ../../../../src/pic14/gen.c:2358:resultRemat *{*
                      02982 ;;; ../../../../src/pic14/gen.c:2358:resultRemat *{*
                      02983 ;;; ../../../../src/pic14/gen.c:2108:genCall *{*
                      02984 ;; ***  genCall  2110
                      02985 ;;      2158 left AOP_LIT
                      02986 ;;; ../../../../src/pic14/gen.c:1357:mov2w_op *{*
                      02987 ;; >>> ../../../../src/pic14/gen.c:1375:mov2w_op
                      02988         .line   259; "LC-meter.c"       delay10ms(10);
0000   300A           02989         MOVLW   0x0a
                      02990 ;; >>> ../../../../src/pic14/gen.c:2207:genCall
0001   0??? 0???      02991         PAGESEL _delay10ms
                      02992 ;; >>> ../../../../src/pic14/gen.c:2215:genCall
0003   2???           02993         CALL    _delay10ms
                      02994 ;; >>> ../../../../src/pic14/gen.c:2223:genCall
0004   0??? 0???      02995         PAGESEL $
                      02996 ;;; ../../../../src/pic14/gen.c:2358:resultRemat *{*
                      02997 ;;; ../../../../src/pic14/gen.c:4023:genAnd *{*
                      02998 ;; ***  genAnd  4024
                      02999 ;; ***  aopForSym 324
                      03000 ;;      336 sym->rname = _INTCON, size = 1
                      03001 ;;      589
                      03002 ;;      line = 4059 result AOP_DIR=_INTCON, size=1, left AOP_DIR=_INTCON, size=1, right AOP_LIT=0x7f, si
                            ze=1
                      03003 ;; >>> ../../../../src/pic14/gen.c:4226:genAnd
                      03004         .line   261; "LC-meter.c"       INTCON &= ~0x80; // GIE = 0;
0006   0??? 0???      03005         BANKSEL _INTCON
0008   13??           03006         BCF     _INTCON,7
                      03007 ;;; ../../../../src/pic14/gen.c:2358:resultRemat *{*
                      03008 ;;; ../../../../src/pic14/gen.c:7353:genCast *{*
                      03009 ;; ***  genCast  7354
                      03010 ;; ***  aopForSym 324
                      03011 ;;      336 sym->rname = _seconds, size = 4
                      03012 ;;      708 register type nRegs=2
                      03013 ;;      line = 7362 result AOP_REG=r0x1062, size=2, left -=-, size=0, right AOP_DIR=_seconds, size=4
                      03014 ;; ***  genCast  7504
                      03015 ;; >>> ../../../../src/pic14/gen.c:7528:genCast
                      03016 ;;      1027
                      03017 ;;      1045  _seconds   offset=0
                      03018         .line   262; "LC-meter.c"       s = seconds;
0009   0??? 0???      03019         BANKSEL _seconds
000B   08??           03020         MOVF    _seconds,W
                      03021 ;; >>> ../../../../src/pic14/gen.c:7529:genCast
                      03022 ;;      1126 rIdx = r0x1062 
000C   0??? 0???      03023         BANKSEL r0x103F
000E   00??           03024         MOVWF   r0x103F
                      03025 ;; >>> ../../../../src/pic14/gen.c:7528:genCast
                      03026 ;;      1027
                      03027 ;;      1045  _seconds   offset=1
gpasm-1.5.0 #1285 (Jul 12 2020) obj/sdcc-16f8   11/12/23  13:12:30          PAGE 59


LOC    OBJECT CODE    LINE  SOURCE TEXT
  VALUE

000F   0??? 0???      03028         BANKSEL _seconds
0011   08??           03029         MOVF    (_seconds + 1),W
                      03030 ;; >>> ../../../../src/pic14/gen.c:7529:genCast
                      03031 ;;      1126 rIdx = r0x1063 
0012   0??? 0???      03032         BANKSEL r0x1040
0014   00??           03033         MOVWF   r0x1040
                      03034 ;;; ../../../../src/pic14/gen.c:2358:resultRemat *{*
                      03035 ;;; ../../../../src/pic14/gen.c:4324:genOr *{*
                      03036 ;; ***  genOr  4325
                      03037 ;; ***  aopForSym 324
                      03038 ;;      336 sym->rname = _INTCON, size = 1
                      03039 ;;      589
                      03040 ;;      line = 4331 result AOP_DIR=_INTCON, size=1, left AOP_DIR=_INTCON, size=1, right AOP_LIT=0x80, si
                            ze=1
                      03041 ;;      line = 4357 result AOP_DIR=_INTCON, size=1, left AOP_DIR=_INTCON, size=1, right AOP_LIT=0x80, si
                            ze=1
                      03042 ;; >>> ../../../../src/pic14/gen.c:4508:genOr
                      03043         .line   263; "LC-meter.c"       INTCON |= 0x80; // GIE = 1;
0015   0??? 0???      03044         BANKSEL _INTCON
0017   17??           03045         BSF     _INTCON,7
                      03046 ;;; ../../../../src/pic14/gen.c:2358:resultRemat *{*
                      03047 ;;; ../../../../src/pic14/gen.c:2358:resultRemat *{*
                      03048 ;;; ../../../../src/pic14/gen.c:2358:resultRemat *{*
                      03049 ;;; ../../../../src/pic14/gen.c:2108:genCall *{*
                      03050 ;; ***  genCall  2110
                      03051 ;;      2158 left AOP_LIT
                      03052 ;;; ../../../../src/pic14/gen.c:1357:mov2w_op *{*
                      03053 ;; >>> ../../../../src/pic14/gen.c:1375:mov2w_op
                      03054         .line   273; "LC-meter.c"       lcd_gotoxy(10, 0);
0018   3000           03055         MOVLW   0x00
                      03056 ;;      2158 left AOP_LIT
                      03057 ;; >>> ../../../../src/pic14/gen.c:2166:genCall
                      03058 ;; ***  popRegFromIdx,1059  , rIdx=0x7f
0019   00??           03059         MOVWF   STK00
                      03060 ;;; ../../../../src/pic14/gen.c:1357:mov2w_op *{*
                      03061 ;; >>> ../../../../src/pic14/gen.c:1375:mov2w_op
001A   300A           03062         MOVLW   0x0a
                      03063 ;; >>> ../../../../src/pic14/gen.c:2207:genCall
001B   0??? 0???      03064         PAGESEL _lcd_gotoxy
                      03065 ;; >>> ../../../../src/pic14/gen.c:2215:genCall
001D   2???           03066         CALL    _lcd_gotoxy
                      03067 ;; >>> ../../../../src/pic14/gen.c:2223:genCall
001E   0??? 0???      03068         PAGESEL $
                      03069 ;;; ../../../../src/pic14/gen.c:2358:resultRemat *{*
                      03070 ;;; ../../../../src/pic14/gen.c:2358:resultRemat *{*
                      03071 ;;; ../../../../src/pic14/gen.c:7353:genCast *{*
                      03072 ;; ***  genCast  7354
                      03073 ;;      627
                      03074 ;;      aopForRemat 406
                      03075 ;;      432: rname ___str_4, val 0, const = 0
                      03076 ;;      708 register type nRegs=3
                      03077 ;;      837: aopGet AOP_PCODE type PO_IMMEDIATE
                      03078 ;;      ___str_4
gpasm-1.5.0 #1285 (Jul 12 2020) obj/sdcc-16f8   11/12/23  13:12:30          PAGE 60


LOC    OBJECT CODE    LINE  SOURCE TEXT
  VALUE

                      03079 ;;      line = 7362 result AOP_REG=r0x1064, size=3, left -=-, size=0, right AOP_PCODE=___str_4, size=2
                      03080 ;; ***  genCast  7408 (size=2)
                      03081 ;;; ../../../../src/pic14/gen.c:1357:mov2w_op *{*
                      03082 ;; >>> ../../../../src/pic14/gen.c:1375:mov2w_op
                      03083         .line   274; "LC-meter.c"       lcd_puts("      ");
0020   30??           03084         MOVLW   high (___str_4 + 0)
                      03085 ;; >>> ../../../../src/pic14/gen.c:1407:movwf
                      03086 ;;      1126 rIdx = r0x1065 
0021   0??? 0???      03087         BANKSEL r0x1041
0023   00??           03088         MOVWF   r0x1041
                      03089 ;;; ../../../../src/pic14/gen.c:1357:mov2w_op *{*
                      03090 ;; >>> ../../../../src/pic14/gen.c:1375:mov2w_op
0024   30??           03091         MOVLW   (___str_4 + 0)
                      03092 ;; >>> ../../../../src/pic14/gen.c:1407:movwf
                      03093 ;;      1126 rIdx = r0x1064 
0025   00??           03094         MOVWF   r0x1042
                      03095 ;; ***  genCast  7465 (tag=128)
                      03096 ;; >>> ../../../../src/pic14/gen.c:7488:genCast
0026   3080           03097         MOVLW   0x80
                      03098 ;; >>> ../../../../src/pic14/gen.c:1407:movwf
                      03099 ;;      1126 rIdx = r0x1066 
0027   00??           03100         MOVWF   r0x1043
                      03101 ;; ***  addSign  1087
                      03102 ;;; ../../../../src/pic14/genarith.c:1088:addSign *{*
                      03103 ;;; ../../../../src/pic14/gen.c:2358:resultRemat *{*
                      03104 ;;; ../../../../src/pic14/gen.c:2358:resultRemat *{*
                      03105 ;;; ../../../../src/pic14/gen.c:2108:genCall *{*
                      03106 ;; ***  genCall  2110
                      03107 ;;      708 register type nRegs=3
                      03108 ;;      708 register type nRegs=3
                      03109 ;;      2158 left AOP_REG
                      03110 ;;; ../../../../src/pic14/gen.c:1357:mov2w_op *{*
                      03111 ;; ***  mov2w  1395  offset=0
                      03112 ;; >>> ../../../../src/pic14/gen.c:1400:mov2w
                      03113 ;;      1126 rIdx = r0x1064 
0028   08??           03114         MOVF    r0x1042,W
                      03115 ;;      2158 left AOP_REG
                      03116 ;; >>> ../../../../src/pic14/gen.c:2166:genCall
                      03117 ;; ***  popRegFromIdx,1059  , rIdx=0x7e
0029   00??           03118         MOVWF   STK01
                      03119 ;;; ../../../../src/pic14/gen.c:1357:mov2w_op *{*
                      03120 ;; ***  mov2w  1395  offset=1
                      03121 ;; >>> ../../../../src/pic14/gen.c:1400:mov2w
                      03122 ;;      1126 rIdx = r0x1065 
002A   08??           03123         MOVF    r0x1041,W
                      03124 ;;      2158 left AOP_REG
                      03125 ;; >>> ../../../../src/pic14/gen.c:2166:genCall
                      03126 ;; ***  popRegFromIdx,1059  , rIdx=0x7f
002B   00??           03127         MOVWF   STK00
                      03128 ;;; ../../../../src/pic14/gen.c:1357:mov2w_op *{*
                      03129 ;; ***  mov2w  1395  offset=2
                      03130 ;; >>> ../../../../src/pic14/gen.c:1400:mov2w
                      03131 ;;      1126 rIdx = r0x1066 
gpasm-1.5.0 #1285 (Jul 12 2020) obj/sdcc-16f8   11/12/23  13:12:30          PAGE 61


LOC    OBJECT CODE    LINE  SOURCE TEXT
  VALUE

002C   08??           03132         MOVF    r0x1043,W
                      03133 ;; >>> ../../../../src/pic14/gen.c:2207:genCall
002D   0??? 0???      03134         PAGESEL _lcd_puts
                      03135 ;; >>> ../../../../src/pic14/gen.c:2215:genCall
002F   2???           03136         CALL    _lcd_puts
                      03137 ;; >>> ../../../../src/pic14/gen.c:2223:genCall
0030   0??? 0???      03138         PAGESEL $
                      03139 ;;; ../../../../src/pic14/gen.c:2358:resultRemat *{*
                      03140 ;;; ../../../../src/pic14/gen.c:2358:resultRemat *{*
                      03141 ;;; ../../../../src/pic14/gen.c:2358:resultRemat *{*
                      03142 ;;; ../../../../src/pic14/gen.c:2108:genCall *{*
                      03143 ;; ***  genCall  2110
                      03144 ;;      2158 left AOP_LIT
                      03145 ;;; ../../../../src/pic14/gen.c:1357:mov2w_op *{*
                      03146 ;; >>> ../../../../src/pic14/gen.c:1375:mov2w_op
                      03147         .line   275; "LC-meter.c"       lcd_gotoxy(10, 0);
0032   3000           03148         MOVLW   0x00
                      03149 ;;      2158 left AOP_LIT
                      03150 ;; >>> ../../../../src/pic14/gen.c:2166:genCall
                      03151 ;; ***  popRegFromIdx,1059  , rIdx=0x7f
0033   00??           03152         MOVWF   STK00
                      03153 ;;; ../../../../src/pic14/gen.c:1357:mov2w_op *{*
                      03154 ;; >>> ../../../../src/pic14/gen.c:1375:mov2w_op
0034   300A           03155         MOVLW   0x0a
                      03156 ;; >>> ../../../../src/pic14/gen.c:2207:genCall
0035   0??? 0???      03157         PAGESEL _lcd_gotoxy
                      03158 ;; >>> ../../../../src/pic14/gen.c:2215:genCall
0037   2???           03159         CALL    _lcd_gotoxy
                      03160 ;; >>> ../../../../src/pic14/gen.c:2223:genCall
0038   0??? 0???      03161         PAGESEL $
                      03162 ;;; ../../../../src/pic14/gen.c:2358:resultRemat *{*
                      03163 ;;; ../../../../src/pic14/gen.c:2358:resultRemat *{*
                      03164 ;;; ../../../../src/pic14/gen.c:2358:resultRemat *{*
                      03165 ;;; ../../../../src/pic14/gen.c:2358:resultRemat *{*
                      03166 ;;; ../../../../src/pic14/gen.c:2358:resultRemat *{*
                      03167 ;;; ../../../../src/pic14/gen.c:2108:genCall *{*
                      03168 ;; ***  genCall  2110
                      03169 ;;      708 register type nRegs=2
                      03170 ;; ***  aopForSym 324
                      03171 ;;      353 size = 2, name =_lcd_putch
                      03172 ;;      2158 left AOP_LIT
                      03173 ;;; ../../../../src/pic14/gen.c:1357:mov2w_op *{*
                      03174 ;; >>> ../../../../src/pic14/gen.c:1375:mov2w_op
                      03175         .line   277; "LC-meter.c"       format_number(&lcd_putch, s, 10, 5);
003A   3005           03176         MOVLW   0x05
                      03177 ;;      2158 left AOP_LIT
                      03178 ;; >>> ../../../../src/pic14/gen.c:2166:genCall
                      03179 ;; ***  popRegFromIdx,1059  , rIdx=0x7b
003B   00??           03180         MOVWF   STK04
                      03181 ;;; ../../../../src/pic14/gen.c:1357:mov2w_op *{*
                      03182 ;; >>> ../../../../src/pic14/gen.c:1375:mov2w_op
003C   300A           03183         MOVLW   0x0a
                      03184 ;;      708 register type nRegs=2
gpasm-1.5.0 #1285 (Jul 12 2020) obj/sdcc-16f8   11/12/23  13:12:30          PAGE 62


LOC    OBJECT CODE    LINE  SOURCE TEXT
  VALUE

                      03185 ;;      2158 left AOP_REG
                      03186 ;; >>> ../../../../src/pic14/gen.c:2166:genCall
                      03187 ;; ***  popRegFromIdx,1059  , rIdx=0x7c
003D   00??           03188         MOVWF   STK03
                      03189 ;;; ../../../../src/pic14/gen.c:1357:mov2w_op *{*
                      03190 ;; ***  mov2w  1395  offset=0
                      03191 ;; >>> ../../../../src/pic14/gen.c:1400:mov2w
                      03192 ;;      1126 rIdx = r0x1062 
003E   0??? 0???      03193         BANKSEL r0x103F
0040   08??           03194         MOVF    r0x103F,W
                      03195 ;;      2158 left AOP_REG
                      03196 ;; >>> ../../../../src/pic14/gen.c:2166:genCall
                      03197 ;; ***  popRegFromIdx,1059  , rIdx=0x7d
0041   00??           03198         MOVWF   STK02
                      03199 ;;; ../../../../src/pic14/gen.c:1357:mov2w_op *{*
                      03200 ;; ***  mov2w  1395  offset=1
                      03201 ;; >>> ../../../../src/pic14/gen.c:1400:mov2w
                      03202 ;;      1126 rIdx = r0x1063 
0042   08??           03203         MOVF    r0x1040,W
                      03204 ;; ***  aopForSym 324
                      03205 ;;      353 size = 2, name =_lcd_putch
                      03206 ;;      2158 left AOP_PCODE
                      03207 ;; >>> ../../../../src/pic14/gen.c:2166:genCall
                      03208 ;; ***  popRegFromIdx,1059  , rIdx=0x7e
0043   00??           03209         MOVWF   STK01
                      03210 ;;; ../../../../src/pic14/gen.c:1357:mov2w_op *{*
                      03211 ;; >>> ../../../../src/pic14/gen.c:1375:mov2w_op
0044   30??           03212         MOVLW   low (_lcd_putch+0)
                      03213 ;;      2158 left AOP_PCODE
                      03214 ;; >>> ../../../../src/pic14/gen.c:2166:genCall
                      03215 ;; ***  popRegFromIdx,1059  , rIdx=0x7f
0045   00??           03216         MOVWF   STK00
                      03217 ;;; ../../../../src/pic14/gen.c:1357:mov2w_op *{*
                      03218 ;; >>> ../../../../src/pic14/gen.c:1375:mov2w_op
0046   30??           03219         MOVLW   high (_lcd_putch+0)
                      03220 ;; >>> ../../../../src/pic14/gen.c:2207:genCall
0047   0??? 0???      03221         PAGESEL _format_number
                      03222 ;; >>> ../../../../src/pic14/gen.c:2215:genCall
0049   2???           03223         CALL    _format_number
                      03224 ;; >>> ../../../../src/pic14/gen.c:2223:genCall
004A   0??? 0???      03225         PAGESEL $
                      03226 ;;; ../../../../src/pic14/gen.c:2358:resultRemat *{*
                      03227 ;;; ../../../../src/pic14/gen.c:2358:resultRemat *{*
                      03228 ;;; ../../../../src/pic14/gen.c:2358:resultRemat *{*
                      03229 ;;; ../../../../src/pic14/gen.c:2108:genCall *{*
                      03230 ;; ***  genCall  2110
                      03231 ;;      2158 left AOP_LIT
                      03232 ;;; ../../../../src/pic14/gen.c:1357:mov2w_op *{*
                      03233 ;; >>> ../../../../src/pic14/gen.c:1375:mov2w_op
                      03234         .line   279; "LC-meter.c"       lcd_gotoxy(10, 1);
004C   3001           03235         MOVLW   0x01
                      03236 ;;      2158 left AOP_LIT
                      03237 ;; >>> ../../../../src/pic14/gen.c:2166:genCall
gpasm-1.5.0 #1285 (Jul 12 2020) obj/sdcc-16f8   11/12/23  13:12:30          PAGE 63


LOC    OBJECT CODE    LINE  SOURCE TEXT
  VALUE

                      03238 ;; ***  popRegFromIdx,1059  , rIdx=0x7f
004D   00??           03239         MOVWF   STK00
                      03240 ;;; ../../../../src/pic14/gen.c:1357:mov2w_op *{*
                      03241 ;; >>> ../../../../src/pic14/gen.c:1375:mov2w_op
004E   300A           03242         MOVLW   0x0a
                      03243 ;; >>> ../../../../src/pic14/gen.c:2207:genCall
004F   0??? 0???      03244         PAGESEL _lcd_gotoxy
                      03245 ;; >>> ../../../../src/pic14/gen.c:2215:genCall
0051   2???           03246         CALL    _lcd_gotoxy
                      03247 ;; >>> ../../../../src/pic14/gen.c:2223:genCall
0052   0??? 0???      03248         PAGESEL $
                      03249 ;;; ../../../../src/pic14/gen.c:2358:resultRemat *{*
                      03250 ;;; ../../../../src/pic14/gen.c:2358:resultRemat *{*
                      03251 ;;; ../../../../src/pic14/gen.c:7353:genCast *{*
                      03252 ;; ***  genCast  7354
                      03253 ;;      627
                      03254 ;;      aopForRemat 406
                      03255 ;;      432: rname ___str_4, val 0, const = 0
                      03256 ;;      708 register type nRegs=3
                      03257 ;;      837: aopGet AOP_PCODE type PO_IMMEDIATE
                      03258 ;;      ___str_4
                      03259 ;;      line = 7362 result AOP_REG=r0x1064, size=3, left -=-, size=0, right AOP_PCODE=___str_4, size=2
                      03260 ;; ***  genCast  7408 (size=2)
                      03261 ;;; ../../../../src/pic14/gen.c:1357:mov2w_op *{*
                      03262 ;; >>> ../../../../src/pic14/gen.c:1375:mov2w_op
                      03263         .line   280; "LC-meter.c"       lcd_puts("      ");
0054   30??           03264         MOVLW   high (___str_4 + 0)
                      03265 ;; >>> ../../../../src/pic14/gen.c:1407:movwf
                      03266 ;;      1126 rIdx = r0x1065 
0055   0??? 0???      03267         BANKSEL r0x1041
0057   00??           03268         MOVWF   r0x1041
                      03269 ;;; ../../../../src/pic14/gen.c:1357:mov2w_op *{*
                      03270 ;; >>> ../../../../src/pic14/gen.c:1375:mov2w_op
0058   30??           03271         MOVLW   (___str_4 + 0)
                      03272 ;; >>> ../../../../src/pic14/gen.c:1407:movwf
                      03273 ;;      1126 rIdx = r0x1064 
0059   00??           03274         MOVWF   r0x1042
                      03275 ;; ***  genCast  7465 (tag=128)
                      03276 ;; >>> ../../../../src/pic14/gen.c:7488:genCast
005A   3080           03277         MOVLW   0x80
                      03278 ;; >>> ../../../../src/pic14/gen.c:1407:movwf
                      03279 ;;      1126 rIdx = r0x1066 
005B   00??           03280         MOVWF   r0x1043
                      03281 ;; ***  addSign  1087
                      03282 ;;; ../../../../src/pic14/genarith.c:1088:addSign *{*
                      03283 ;;; ../../../../src/pic14/gen.c:2358:resultRemat *{*
                      03284 ;;; ../../../../src/pic14/gen.c:2358:resultRemat *{*
                      03285 ;;; ../../../../src/pic14/gen.c:2108:genCall *{*
                      03286 ;; ***  genCall  2110
                      03287 ;;      708 register type nRegs=3
                      03288 ;;      708 register type nRegs=3
                      03289 ;;      2158 left AOP_REG
                      03290 ;;; ../../../../src/pic14/gen.c:1357:mov2w_op *{*
gpasm-1.5.0 #1285 (Jul 12 2020) obj/sdcc-16f8   11/12/23  13:12:30          PAGE 64


LOC    OBJECT CODE    LINE  SOURCE TEXT
  VALUE

                      03291 ;; ***  mov2w  1395  offset=0
                      03292 ;; >>> ../../../../src/pic14/gen.c:1400:mov2w
                      03293 ;;      1126 rIdx = r0x1064 
005C   08??           03294         MOVF    r0x1042,W
                      03295 ;;      2158 left AOP_REG
                      03296 ;; >>> ../../../../src/pic14/gen.c:2166:genCall
                      03297 ;; ***  popRegFromIdx,1059  , rIdx=0x7e
005D   00??           03298         MOVWF   STK01
                      03299 ;;; ../../../../src/pic14/gen.c:1357:mov2w_op *{*
                      03300 ;; ***  mov2w  1395  offset=1
                      03301 ;; >>> ../../../../src/pic14/gen.c:1400:mov2w
                      03302 ;;      1126 rIdx = r0x1065 
005E   08??           03303         MOVF    r0x1041,W
                      03304 ;;      2158 left AOP_REG
                      03305 ;; >>> ../../../../src/pic14/gen.c:2166:genCall
                      03306 ;; ***  popRegFromIdx,1059  , rIdx=0x7f
005F   00??           03307         MOVWF   STK00
                      03308 ;;; ../../../../src/pic14/gen.c:1357:mov2w_op *{*
                      03309 ;; ***  mov2w  1395  offset=2
                      03310 ;; >>> ../../../../src/pic14/gen.c:1400:mov2w
                      03311 ;;      1126 rIdx = r0x1066 
0060   08??           03312         MOVF    r0x1043,W
                      03313 ;; >>> ../../../../src/pic14/gen.c:2207:genCall
0061   0??? 0???      03314         PAGESEL _lcd_puts
                      03315 ;; >>> ../../../../src/pic14/gen.c:2215:genCall
0063   2???           03316         CALL    _lcd_puts
                      03317 ;; >>> ../../../../src/pic14/gen.c:2223:genCall
0064   0??? 0???      03318         PAGESEL $
                      03319 ;;; ../../../../src/pic14/gen.c:2358:resultRemat *{*
                      03320 ;;; ../../../../src/pic14/gen.c:2358:resultRemat *{*
                      03321 ;;; ../../../../src/pic14/gen.c:2358:resultRemat *{*
                      03322 ;;; ../../../../src/pic14/gen.c:2108:genCall *{*
                      03323 ;; ***  genCall  2110
                      03324 ;;      2158 left AOP_LIT
                      03325 ;;; ../../../../src/pic14/gen.c:1357:mov2w_op *{*
                      03326 ;; >>> ../../../../src/pic14/gen.c:1375:mov2w_op
                      03327         .line   281; "LC-meter.c"       lcd_gotoxy(10, 1);
0066   3001           03328         MOVLW   0x01
                      03329 ;;      2158 left AOP_LIT
                      03330 ;; >>> ../../../../src/pic14/gen.c:2166:genCall
                      03331 ;; ***  popRegFromIdx,1059  , rIdx=0x7f
0067   00??           03332         MOVWF   STK00
                      03333 ;;; ../../../../src/pic14/gen.c:1357:mov2w_op *{*
                      03334 ;; >>> ../../../../src/pic14/gen.c:1375:mov2w_op
0068   300A           03335         MOVLW   0x0a
                      03336 ;; >>> ../../../../src/pic14/gen.c:2207:genCall
0069   0??? 0???      03337         PAGESEL _lcd_gotoxy
                      03338 ;; >>> ../../../../src/pic14/gen.c:2215:genCall
006B   2???           03339         CALL    _lcd_gotoxy
                      03340 ;; >>> ../../../../src/pic14/gen.c:2223:genCall
006C   0??? 0???      03341         PAGESEL $
                      03342 ;;; ../../../../src/pic14/gen.c:2358:resultRemat *{*
                      03343 ;;; ../../../../src/pic14/gen.c:2358:resultRemat *{*
gpasm-1.5.0 #1285 (Jul 12 2020) obj/sdcc-16f8   11/12/23  13:12:30          PAGE 65


LOC    OBJECT CODE    LINE  SOURCE TEXT
  VALUE

                      03344 ;;; ../../../../src/pic14/gen.c:2358:resultRemat *{*
                      03345 ;;; ../../../../src/pic14/gen.c:2108:genCall *{*
                      03346 ;; ***  genCall  2110
                      03347 ;;      2158 left AOP_LIT
                      03348 ;;; ../../../../src/pic14/gen.c:1357:mov2w_op *{*
                      03349 ;; >>> ../../../../src/pic14/gen.c:1375:mov2w_op
                      03350         .line   284; "LC-meter.c"       lcd_gotoxy(0, 1);
006E   3001           03351         MOVLW   0x01
                      03352 ;;      2158 left AOP_LIT
                      03353 ;; >>> ../../../../src/pic14/gen.c:2166:genCall
                      03354 ;; ***  popRegFromIdx,1059  , rIdx=0x7f
006F   00??           03355         MOVWF   STK00
                      03356 ;;; ../../../../src/pic14/gen.c:1357:mov2w_op *{*
                      03357 ;; >>> ../../../../src/pic14/gen.c:1375:mov2w_op
0070   3000           03358         MOVLW   0x00
                      03359 ;; >>> ../../../../src/pic14/gen.c:2207:genCall
0071   0??? 0???      03360         PAGESEL _lcd_gotoxy
                      03361 ;; >>> ../../../../src/pic14/gen.c:2215:genCall
0073   2???           03362         CALL    _lcd_gotoxy
                      03363 ;; >>> ../../../../src/pic14/gen.c:2223:genCall
0074   0??? 0???      03364         PAGESEL $
                      03365 ;;; ../../../../src/pic14/gen.c:2358:resultRemat *{*
                      03366 ;;; ../../../../src/pic14/gen.c:2358:resultRemat *{*
                      03367 ;;; ../../../../src/pic14/gen.c:7353:genCast *{*
                      03368 ;; ***  genCast  7354
                      03369 ;;      627
                      03370 ;;      aopForRemat 406
                      03371 ;;      432: rname ___str_5, val 0, const = 0
                      03372 ;;      708 register type nRegs=3
                      03373 ;;      837: aopGet AOP_PCODE type PO_IMMEDIATE
                      03374 ;;      ___str_5
                      03375 ;;      line = 7362 result AOP_REG=r0x1064, size=3, left -=-, size=0, right AOP_PCODE=___str_5, size=2
                      03376 ;; ***  genCast  7408 (size=2)
                      03377 ;;; ../../../../src/pic14/gen.c:1357:mov2w_op *{*
                      03378 ;; >>> ../../../../src/pic14/gen.c:1375:mov2w_op
                      03379         .line   285; "LC-meter.c"       lcd_puts("     ");
0076   30??           03380         MOVLW   high (___str_5 + 0)
                      03381 ;; >>> ../../../../src/pic14/gen.c:1407:movwf
                      03382 ;;      1126 rIdx = r0x1065 
0077   0??? 0???      03383         BANKSEL r0x1041
0079   00??           03384         MOVWF   r0x1041
                      03385 ;;; ../../../../src/pic14/gen.c:1357:mov2w_op *{*
                      03386 ;; >>> ../../../../src/pic14/gen.c:1375:mov2w_op
007A   30??           03387         MOVLW   (___str_5 + 0)
                      03388 ;; >>> ../../../../src/pic14/gen.c:1407:movwf
                      03389 ;;      1126 rIdx = r0x1064 
007B   00??           03390         MOVWF   r0x1042
                      03391 ;; ***  genCast  7465 (tag=128)
                      03392 ;; >>> ../../../../src/pic14/gen.c:7488:genCast
007C   3080           03393         MOVLW   0x80
                      03394 ;; >>> ../../../../src/pic14/gen.c:1407:movwf
                      03395 ;;      1126 rIdx = r0x1066 
007D   00??           03396         MOVWF   r0x1043
gpasm-1.5.0 #1285 (Jul 12 2020) obj/sdcc-16f8   11/12/23  13:12:30          PAGE 66


LOC    OBJECT CODE    LINE  SOURCE TEXT
  VALUE

                      03397 ;; ***  addSign  1087
                      03398 ;;; ../../../../src/pic14/genarith.c:1088:addSign *{*
                      03399 ;;; ../../../../src/pic14/gen.c:2358:resultRemat *{*
                      03400 ;;; ../../../../src/pic14/gen.c:2358:resultRemat *{*
                      03401 ;;; ../../../../src/pic14/gen.c:2108:genCall *{*
                      03402 ;; ***  genCall  2110
                      03403 ;;      708 register type nRegs=3
                      03404 ;;      708 register type nRegs=3
                      03405 ;;      2158 left AOP_REG
                      03406 ;;; ../../../../src/pic14/gen.c:1357:mov2w_op *{*
                      03407 ;; ***  mov2w  1395  offset=0
                      03408 ;; >>> ../../../../src/pic14/gen.c:1400:mov2w
                      03409 ;;      1126 rIdx = r0x1064 
007E   08??           03410         MOVF    r0x1042,W
                      03411 ;;      2158 left AOP_REG
                      03412 ;; >>> ../../../../src/pic14/gen.c:2166:genCall
                      03413 ;; ***  popRegFromIdx,1059  , rIdx=0x7e
007F   00??           03414         MOVWF   STK01
                      03415 ;;; ../../../../src/pic14/gen.c:1357:mov2w_op *{*
                      03416 ;; ***  mov2w  1395  offset=1
                      03417 ;; >>> ../../../../src/pic14/gen.c:1400:mov2w
                      03418 ;;      1126 rIdx = r0x1065 
0080   08??           03419         MOVF    r0x1041,W
                      03420 ;;      2158 left AOP_REG
                      03421 ;; >>> ../../../../src/pic14/gen.c:2166:genCall
                      03422 ;; ***  popRegFromIdx,1059  , rIdx=0x7f
0081   00??           03423         MOVWF   STK00
                      03424 ;;; ../../../../src/pic14/gen.c:1357:mov2w_op *{*
                      03425 ;; ***  mov2w  1395  offset=2
                      03426 ;; >>> ../../../../src/pic14/gen.c:1400:mov2w
                      03427 ;;      1126 rIdx = r0x1066 
0082   08??           03428         MOVF    r0x1043,W
                      03429 ;; >>> ../../../../src/pic14/gen.c:2207:genCall
0083   0??? 0???      03430         PAGESEL _lcd_puts
                      03431 ;; >>> ../../../../src/pic14/gen.c:2215:genCall
0085   2???           03432         CALL    _lcd_puts
                      03433 ;; >>> ../../../../src/pic14/gen.c:2223:genCall
0086   0??? 0???      03434         PAGESEL $
                      03435 ;;; ../../../../src/pic14/gen.c:2358:resultRemat *{*
                      03436 ;;; ../../../../src/pic14/gen.c:2358:resultRemat *{*
                      03437 ;;; ../../../../src/pic14/gen.c:2358:resultRemat *{*
                      03438 ;;; ../../../../src/pic14/gen.c:2108:genCall *{*
                      03439 ;; ***  genCall  2110
                      03440 ;;      2158 left AOP_LIT
                      03441 ;;; ../../../../src/pic14/gen.c:1357:mov2w_op *{*
                      03442 ;; >>> ../../../../src/pic14/gen.c:1375:mov2w_op
                      03443         .line   286; "LC-meter.c"       lcd_gotoxy(0, 1);
0088   3001           03444         MOVLW   0x01
                      03445 ;;      2158 left AOP_LIT
                      03446 ;; >>> ../../../../src/pic14/gen.c:2166:genCall
                      03447 ;; ***  popRegFromIdx,1059  , rIdx=0x7f
0089   00??           03448         MOVWF   STK00
                      03449 ;;; ../../../../src/pic14/gen.c:1357:mov2w_op *{*
gpasm-1.5.0 #1285 (Jul 12 2020) obj/sdcc-16f8   11/12/23  13:12:30          PAGE 67


LOC    OBJECT CODE    LINE  SOURCE TEXT
  VALUE

                      03450 ;; >>> ../../../../src/pic14/gen.c:1375:mov2w_op
008A   3000           03451         MOVLW   0x00
                      03452 ;; >>> ../../../../src/pic14/gen.c:2207:genCall
008B   0??? 0???      03453         PAGESEL _lcd_gotoxy
                      03454 ;; >>> ../../../../src/pic14/gen.c:2215:genCall
008D   2???           03455         CALL    _lcd_gotoxy
                      03456 ;; >>> ../../../../src/pic14/gen.c:2223:genCall
008E   0??? 0???      03457         PAGESEL $
                      03458 ;;; ../../../../src/pic14/gen.c:2358:resultRemat *{*
                      03459 ;;; ../../../../src/pic14/gen.c:2358:resultRemat *{*
                      03460 ;;; ../../../../src/pic14/gen.c:7353:genCast *{*
                      03461 ;; ***  genCast  7354
                      03462 ;;      627
                      03463 ;;      aopForRemat 406
                      03464 ;;      432: rname ___str_6, val 0, const = 0
                      03465 ;;      708 register type nRegs=3
                      03466 ;;      837: aopGet AOP_PCODE type PO_IMMEDIATE
                      03467 ;;      ___str_6
                      03468 ;;      line = 7362 result AOP_REG=r0x1064, size=3, left -=-, size=0, right AOP_PCODE=___str_6, size=2
                      03469 ;; ***  genCast  7408 (size=2)
                      03470 ;;; ../../../../src/pic14/gen.c:1357:mov2w_op *{*
                      03471 ;; >>> ../../../../src/pic14/gen.c:1375:mov2w_op
                      03472         .line   287; "LC-meter.c"       lcd_puts("RC4=");
0090   30??           03473         MOVLW   high (___str_6 + 0)
                      03474 ;; >>> ../../../../src/pic14/gen.c:1407:movwf
                      03475 ;;      1126 rIdx = r0x1065 
0091   0??? 0???      03476         BANKSEL r0x1041
0093   00??           03477         MOVWF   r0x1041
                      03478 ;;; ../../../../src/pic14/gen.c:1357:mov2w_op *{*
                      03479 ;; >>> ../../../../src/pic14/gen.c:1375:mov2w_op
0094   30??           03480         MOVLW   (___str_6 + 0)
                      03481 ;; >>> ../../../../src/pic14/gen.c:1407:movwf
                      03482 ;;      1126 rIdx = r0x1064 
0095   00??           03483         MOVWF   r0x1042
                      03484 ;; ***  genCast  7465 (tag=128)
                      03485 ;; >>> ../../../../src/pic14/gen.c:7488:genCast
0096   3080           03486         MOVLW   0x80
                      03487 ;; >>> ../../../../src/pic14/gen.c:1407:movwf
                      03488 ;;      1126 rIdx = r0x1066 
0097   00??           03489         MOVWF   r0x1043
                      03490 ;; ***  addSign  1087
                      03491 ;;; ../../../../src/pic14/genarith.c:1088:addSign *{*
                      03492 ;;; ../../../../src/pic14/gen.c:2358:resultRemat *{*
                      03493 ;;; ../../../../src/pic14/gen.c:2358:resultRemat *{*
                      03494 ;;; ../../../../src/pic14/gen.c:2108:genCall *{*
                      03495 ;; ***  genCall  2110
                      03496 ;;      708 register type nRegs=3
                      03497 ;;      708 register type nRegs=3
                      03498 ;;      2158 left AOP_REG
                      03499 ;;; ../../../../src/pic14/gen.c:1357:mov2w_op *{*
                      03500 ;; ***  mov2w  1395  offset=0
                      03501 ;; >>> ../../../../src/pic14/gen.c:1400:mov2w
                      03502 ;;      1126 rIdx = r0x1064 
gpasm-1.5.0 #1285 (Jul 12 2020) obj/sdcc-16f8   11/12/23  13:12:30          PAGE 68


LOC    OBJECT CODE    LINE  SOURCE TEXT
  VALUE

0098   08??           03503         MOVF    r0x1042,W
                      03504 ;;      2158 left AOP_REG
                      03505 ;; >>> ../../../../src/pic14/gen.c:2166:genCall
                      03506 ;; ***  popRegFromIdx,1059  , rIdx=0x7e
0099   00??           03507         MOVWF   STK01
                      03508 ;;; ../../../../src/pic14/gen.c:1357:mov2w_op *{*
                      03509 ;; ***  mov2w  1395  offset=1
                      03510 ;; >>> ../../../../src/pic14/gen.c:1400:mov2w
                      03511 ;;      1126 rIdx = r0x1065 
009A   08??           03512         MOVF    r0x1041,W
                      03513 ;;      2158 left AOP_REG
                      03514 ;; >>> ../../../../src/pic14/gen.c:2166:genCall
                      03515 ;; ***  popRegFromIdx,1059  , rIdx=0x7f
009B   00??           03516         MOVWF   STK00
                      03517 ;;; ../../../../src/pic14/gen.c:1357:mov2w_op *{*
                      03518 ;; ***  mov2w  1395  offset=2
                      03519 ;; >>> ../../../../src/pic14/gen.c:1400:mov2w
                      03520 ;;      1126 rIdx = r0x1066 
009C   08??           03521         MOVF    r0x1043,W
                      03522 ;; >>> ../../../../src/pic14/gen.c:2207:genCall
009D   0??? 0???      03523         PAGESEL _lcd_puts
                      03524 ;; >>> ../../../../src/pic14/gen.c:2215:genCall
009F   2???           03525         CALL    _lcd_puts
                      03526 ;; >>> ../../../../src/pic14/gen.c:2223:genCall
00A0   0??? 0???      03527         PAGESEL $
                      03528 ;;; ../../../../src/pic14/gen.c:2358:resultRemat *{*
                      03529 ;; ***  aopForSym 324
                      03530 ;;      336 sym->rname = _PORTC, size = 1
                      03531 ;;      708 register type nRegs=1
                      03532 ;; ***  mov2w  1395  offset=0
                      03533 ;; >>> ../../../../src/pic14/gen.c:1400:mov2w
                      03534 ;;      1027
                      03535 ;;      1045  _PORTC   offset=0
                      03536         .line   290; "LC-meter.c"       lcd_putch(LC_SELECT != 0 ? '1' : '0');
00A2   0??? 0???      03537         BANKSEL _PORTC
00A4   08??           03538         MOVF    _PORTC,W
                      03539 ;; >>> ../../../../src/pic14/gen.c:5051:genGetABit
00A5   3910           03540         ANDLW   0x10
                      03541 ;; >>> ../../../../src/pic14/gen.c:5061:genGetABit
00A6   1D03           03542         BTFSS   STATUS,2
                      03543 ;; >>> ../../../../src/pic14/gen.c:5062:genGetABit
00A7   3001           03544         MOVLW   0x01
                      03545 ;; >>> ../../../../src/pic14/gen.c:5067:genGetABit
                      03546 ;;      1126 rIdx = r0x1064 
00A8   0??? 0???      03547         BANKSEL r0x1042
00AA   00??           03548         MOVWF   r0x1042
                      03549 ;;; ../../../../src/pic14/gen.c:2358:resultRemat *{*
                      03550 ;;; ../../../../src/pic14/gen.c:1548:genNot *{*
                      03551 ;; ***  genNot  1550
                      03552 ;;      708 register type nRegs=1
                      03553 ;;      708 register type nRegs=1
                      03554 ;;      line = 1555 result AOP_REG=r0x1065, size=1, left AOP_REG=r0x1064, size=1, right -=-, size=0
                      03555 ;; ***  mov2w  1395  offset=0
gpasm-1.5.0 #1285 (Jul 12 2020) obj/sdcc-16f8   11/12/23  13:12:30          PAGE 69


LOC    OBJECT CODE    LINE  SOURCE TEXT
  VALUE

                      03556 ;; >>> ../../../../src/pic14/gen.c:1400:mov2w
                      03557 ;;      1126 rIdx = r0x1064 
00AB   08??           03558         MOVF    r0x1042,W
                      03559 ;; >>> ../../../../src/pic14/gen.c:1582:genNot
00AC   3000           03560         MOVLW   0x00
                      03561 ;; >>> ../../../../src/pic14/gen.c:1583:genNot
00AD   1903           03562         BTFSC   STATUS,2
                      03563 ;; >>> ../../../../src/pic14/gen.c:1584:genNot
00AE   3001           03564         MOVLW   0x01
                      03565 ;; >>> ../../../../src/pic14/gen.c:1407:movwf
                      03566 ;;      1126 rIdx = r0x1065 
00AF   00??           03567         MOVWF   r0x1041
                      03568 ;;; ../../../../src/pic14/gen.c:2358:resultRemat *{*
                      03569 ;;; ../../../../src/pic14/gen.c:6991:genIfx *{*
                      03570 ;; ***  genIfx  6992
                      03571 ;;      708 register type nRegs=1
                      03572 ;; ***  pic14_toBoolean  1515
                      03573 ;; ***  mov2w  1395  offset=0
                      03574 ;; >>> ../../../../src/pic14/gen.c:1400:mov2w
                      03575 ;;      1126 rIdx = r0x1065 
00B0   08??           03576         MOVF    r0x1041,W
                      03577 ;; >>> ../../../../src/pic14/gen.c:7040:genIfx
00B1   1D03           03578         BTFSS   STATUS,2
                      03579 ;; >>> ../../../../src/pic14/gen.c:7041:genIfx
                      03580 ;; ***  popGetLabel  key=5, label offset 112
00B2   2???           03581         GOTO    _00217_DS_
                      03582 ;;; ../../../../src/pic14/gen.c:2358:resultRemat *{*
                      03583 ;;; ../../../../src/pic14/gen.c:7159:genAssign *{*
                      03584 ;; ***  genAssign  7160
                      03585 ;;      708 register type nRegs=2
                      03586 ;;      line = 7169 result AOP_REG=r0x1064, size=2, left -=-, size=0, right AOP_LIT=0x31, size=2
                      03587 ;; ***  genAssign  7253
                      03588 ;; >>> ../../../../src/pic14/gen.c:7260:genAssign
00B3   3031           03589         MOVLW   0x31
                      03590 ;; >>> ../../../../src/pic14/gen.c:7262:genAssign
                      03591 ;;      1126 rIdx = r0x1064 
00B4   00??           03592         MOVWF   r0x1042
                      03593 ;; ***  genAssign  7253
                      03594 ;; >>> ../../../../src/pic14/gen.c:7265:genAssign
                      03595 ;;      1126 rIdx = r0x1065 
00B5   01??           03596         CLRF    r0x1041
                      03597 ;;; ../../../../src/pic14/gen.c:2358:resultRemat *{*
                      03598 ;;; ../../../../src/pic14/gen.c:2820:genGoto *{*
                      03599 ;; >>> ../../../../src/pic14/gen.c:2822:genGoto
                      03600 ;; ***  popGetLabel  key=6, label offset 112
00B6   2???           03601         GOTO    _00218_DS_
                      03602 ;;; ../../../../src/pic14/gen.c:2358:resultRemat *{*
                      03603 ;;; ../../../../src/pic14/gen.c:2802:genLabel *{*
                      03604 ;; ***  genLabel  2805
                      03605 ;;; ../../../../src/pic14/gen.c:2358:resultRemat *{*
                      03606 ;;; ../../../../src/pic14/gen.c:7159:genAssign *{*
                      03607 ;; ***  genAssign  7160
                      03608 ;;      708 register type nRegs=2
gpasm-1.5.0 #1285 (Jul 12 2020) obj/sdcc-16f8   11/12/23  13:12:30          PAGE 70


LOC    OBJECT CODE    LINE  SOURCE TEXT
  VALUE

                      03609 ;;      line = 7169 result AOP_REG=r0x1064, size=2, left -=-, size=0, right AOP_LIT=0x30, size=2
                      03610 ;; ***  genAssign  7253
                      03611 ;; >>> ../../../../src/pic14/gen.c:7260:genAssign
00B7                  03612 _00217_DS_:
00B7   3030           03613         MOVLW   0x30
                      03614 ;; >>> ../../../../src/pic14/gen.c:7262:genAssign
                      03615 ;;      1126 rIdx = r0x1064 
00B8   0??? 0???      03616         BANKSEL r0x1042
00BA   00??           03617         MOVWF   r0x1042
                      03618 ;; ***  genAssign  7253
                      03619 ;; >>> ../../../../src/pic14/gen.c:7265:genAssign
                      03620 ;;      1126 rIdx = r0x1065 
00BB   01??           03621         CLRF    r0x1041
                      03622 ;;; ../../../../src/pic14/gen.c:2358:resultRemat *{*
                      03623 ;;; ../../../../src/pic14/gen.c:2802:genLabel *{*
                      03624 ;; ***  genLabel  2805
                      03625 ;;; ../../../../src/pic14/gen.c:2358:resultRemat *{*
                      03626 ;;; ../../../../src/pic14/gen.c:7353:genCast *{*
                      03627 ;; ***  genCast  7354
                      03628 ;;      708 register type nRegs=2
                      03629 ;;      708 register type nRegs=1
                      03630 ;;      line = 7362 result AOP_REG=r0x1066, size=1, left -=-, size=0, right AOP_REG=r0x1064, size=2
                      03631 ;; ***  genCast  7504
                      03632 ;; >>> ../../../../src/pic14/gen.c:7528:genCast
                      03633 ;;      1126 rIdx = r0x1064 
00BC                  03634 _00218_DS_:
00BC   0??? 0???      03635         BANKSEL r0x1042
00BE   08??           03636         MOVF    r0x1042,W
                      03637 ;; >>> ../../../../src/pic14/gen.c:7529:genCast
                      03638 ;;      1126 rIdx = r0x1066 
00BF   00??           03639         MOVWF   r0x1043
00C0   0??? 0???      03640         PAGESEL _lcd_putch
                      03641 ;; >>> ../../../../src/pic14/gen.c:2215:genCall
00C2   2???           03642         CALL    _lcd_putch
                      03643 ;; >>> ../../../../src/pic14/gen.c:2223:genCall
00C3   0??? 0???      03644         PAGESEL $
                      03645 ;;; ../../../../src/pic14/gen.c:2358:resultRemat *{*
                      03646 ;;; ../../../../src/pic14/gen.c:3689:genCmpEq *{*
                      03647 ;; ***  genCmpEq  3690
                      03648 ;; ifx is non-null
                      03649 ;;      708 register type nRegs=2
                      03650 ;; ***  aopForSym 324
                      03651 ;;      336 sym->rname = _testloop_prev_s_65536_71, size = 2
                      03652 ;;      line = 3701 result AOP_CRY=0x00, size=0, left AOP_REG=r0x1062, size=2, right AOP_DIR=_testloop_p
                            rev_s_65536_71, size=2
                      03653 ;; ***  mov2w  1395  offset=0
                      03654 ;; >>> ../../../../src/pic14/gen.c:1400:mov2w
                      03655 ;;      1027
                      03656 ;;      1045  _testloop_prev_s_65536_71   offset=0
                      03657         .line   294; "LC-meter.c"       if(s != prev_s) {
00C5   0??? 0???      03658         BANKSEL _testloop_prev_s_65536_71
00C7   08??           03659         MOVF    _testloop_prev_s_65536_71,W
                      03660 ;; >>> ../../../../src/pic14/gen.c:3801:genCmpEq
gpasm-1.5.0 #1285 (Jul 12 2020) obj/sdcc-16f8   11/12/23  13:12:30          PAGE 71


LOC    OBJECT CODE    LINE  SOURCE TEXT
  VALUE

                      03661 ;;      1126 rIdx = r0x1062 
00C8   0??? 0???      03662         BANKSEL r0x103F
00CA   06??           03663         XORWF   r0x103F,W
                      03664 ;; >>> ../../../../src/pic14/gen.c:3803:genCmpEq
00CB   1D03           03665         BTFSS   STATUS,2
                      03666 ;; >>> ../../../../src/pic14/gen.c:3806:genCmpEq
                      03667 ;; ***  popGetLabel  key=15, label offset 112
00CC   2???           03668         GOTO    _00227_DS_
                      03669 ;; ***  mov2w  1395  offset=1
                      03670 ;; >>> ../../../../src/pic14/gen.c:1400:mov2w
                      03671 ;;      1027
                      03672 ;;      1045  _testloop_prev_s_65536_71   offset=1
00CD   0??? 0???      03673         BANKSEL _testloop_prev_s_65536_71
00CF   08??           03674         MOVF    (_testloop_prev_s_65536_71 + 1),W
                      03675 ;; >>> ../../../../src/pic14/gen.c:3801:genCmpEq
                      03676 ;;      1126 rIdx = r0x1063 
                      03677         .line   296; "LC-meter.c"       format_number(&ser_putch, s, 10, 0);
00D0   0??? 0???      03678         BANKSEL r0x1040
00D2   06??           03679         XORWF   r0x1040,W
00D3   1903           03680         BTFSC   STATUS,2
00D4   2???           03681         GOTO    _00215_DS_
00D5                  03682 _00227_DS_:
00D5   3000           03683         MOVLW   0x00
00D6   00??           03684         MOVWF   STK04
                      03685 ;;; ../../../../src/pic14/gen.c:1357:mov2w_op *{*
                      03686 ;; >>> ../../../../src/pic14/gen.c:1375:mov2w_op
00D7   300A           03687         MOVLW   0x0a
                      03688 ;;      708 register type nRegs=2
                      03689 ;;      2158 left AOP_REG
                      03690 ;; >>> ../../../../src/pic14/gen.c:2166:genCall
                      03691 ;; ***  popRegFromIdx,1059  , rIdx=0x7c
00D8   00??           03692         MOVWF   STK03
                      03693 ;;; ../../../../src/pic14/gen.c:1357:mov2w_op *{*
                      03694 ;; ***  mov2w  1395  offset=0
                      03695 ;; >>> ../../../../src/pic14/gen.c:1400:mov2w
                      03696 ;;      1126 rIdx = r0x1062 
00D9   0??? 0???      03697         BANKSEL r0x103F
00DB   08??           03698         MOVF    r0x103F,W
                      03699 ;;      2158 left AOP_REG
                      03700 ;; >>> ../../../../src/pic14/gen.c:2166:genCall
                      03701 ;; ***  popRegFromIdx,1059  , rIdx=0x7d
00DC   00??           03702         MOVWF   STK02
                      03703 ;;; ../../../../src/pic14/gen.c:1357:mov2w_op *{*
                      03704 ;; ***  mov2w  1395  offset=1
                      03705 ;; >>> ../../../../src/pic14/gen.c:1400:mov2w
                      03706 ;;      1126 rIdx = r0x1063 
00DD   08??           03707         MOVF    r0x1040,W
                      03708 ;; ***  aopForSym 324
                      03709 ;;      353 size = 2, name =_ser_putch
                      03710 ;;      2158 left AOP_PCODE
                      03711 ;; >>> ../../../../src/pic14/gen.c:2166:genCall
                      03712 ;; ***  popRegFromIdx,1059  , rIdx=0x7e
00DE   00??           03713         MOVWF   STK01
gpasm-1.5.0 #1285 (Jul 12 2020) obj/sdcc-16f8   11/12/23  13:12:30          PAGE 72


LOC    OBJECT CODE    LINE  SOURCE TEXT
  VALUE

                      03714 ;;; ../../../../src/pic14/gen.c:1357:mov2w_op *{*
                      03715 ;; >>> ../../../../src/pic14/gen.c:1375:mov2w_op
00DF   30??           03716         MOVLW   low (_ser_putch+0)
                      03717 ;;      2158 left AOP_PCODE
                      03718 ;; >>> ../../../../src/pic14/gen.c:2166:genCall
                      03719 ;; ***  popRegFromIdx,1059  , rIdx=0x7f
00E0   00??           03720         MOVWF   STK00
                      03721 ;;; ../../../../src/pic14/gen.c:1357:mov2w_op *{*
                      03722 ;; >>> ../../../../src/pic14/gen.c:1375:mov2w_op
00E1   30??           03723         MOVLW   high (_ser_putch+0)
                      03724 ;; >>> ../../../../src/pic14/gen.c:2207:genCall
00E2   0??? 0???      03725         PAGESEL _format_number
                      03726 ;; >>> ../../../../src/pic14/gen.c:2215:genCall
00E4   2???           03727         CALL    _format_number
                      03728 ;; >>> ../../../../src/pic14/gen.c:2223:genCall
00E5   0??? 0???      03729         PAGESEL $
                      03730 ;;; ../../../../src/pic14/gen.c:2358:resultRemat *{*
                      03731 ;;; ../../../../src/pic14/gen.c:2358:resultRemat *{*
                      03732 ;;; ../../../../src/pic14/gen.c:7353:genCast *{*
                      03733 ;; ***  genCast  7354
                      03734 ;;      627
                      03735 ;;      aopForRemat 406
                      03736 ;;      432: rname ___str_3, val 0, const = 0
                      03737 ;;      708 register type nRegs=3
                      03738 ;;      837: aopGet AOP_PCODE type PO_IMMEDIATE
                      03739 ;;      ___str_3
                      03740 ;;      line = 7362 result AOP_REG=r0x1064, size=3, left -=-, size=0, right AOP_PCODE=___str_3, size=2
                      03741 ;; ***  genCast  7408 (size=2)
                      03742 ;;; ../../../../src/pic14/gen.c:1357:mov2w_op *{*
                      03743 ;; >>> ../../../../src/pic14/gen.c:1375:mov2w_op
                      03744         .line   298; "LC-meter.c"       ser_puts("\r\n");
00E7   30??           03745         MOVLW   high (___str_3 + 0)
                      03746 ;; >>> ../../../../src/pic14/gen.c:1407:movwf
                      03747 ;;      1126 rIdx = r0x1065 
00E8   0??? 0???      03748         BANKSEL r0x1041
00EA   00??           03749         MOVWF   r0x1041
                      03750 ;;; ../../../../src/pic14/gen.c:1357:mov2w_op *{*
                      03751 ;; >>> ../../../../src/pic14/gen.c:1375:mov2w_op
00EB   30??           03752         MOVLW   (___str_3 + 0)
                      03753 ;; >>> ../../../../src/pic14/gen.c:1407:movwf
                      03754 ;;      1126 rIdx = r0x1064 
00EC   00??           03755         MOVWF   r0x1042
                      03756 ;; ***  genCast  7465 (tag=128)
                      03757 ;; >>> ../../../../src/pic14/gen.c:7488:genCast
00ED   3080           03758         MOVLW   0x80
                      03759 ;; >>> ../../../../src/pic14/gen.c:1407:movwf
                      03760 ;;      1126 rIdx = r0x1066 
00EE   00??           03761         MOVWF   r0x1043
                      03762 ;; ***  addSign  1087
                      03763 ;;; ../../../../src/pic14/genarith.c:1088:addSign *{*
                      03764 ;;; ../../../../src/pic14/gen.c:2358:resultRemat *{*
                      03765 ;;; ../../../../src/pic14/gen.c:2358:resultRemat *{*
                      03766 ;;; ../../../../src/pic14/gen.c:2108:genCall *{*
gpasm-1.5.0 #1285 (Jul 12 2020) obj/sdcc-16f8   11/12/23  13:12:30          PAGE 73


LOC    OBJECT CODE    LINE  SOURCE TEXT
  VALUE

                      03767 ;; ***  genCall  2110
                      03768 ;;      708 register type nRegs=3
                      03769 ;;      708 register type nRegs=3
                      03770 ;;      2158 left AOP_REG
                      03771 ;;; ../../../../src/pic14/gen.c:1357:mov2w_op *{*
                      03772 ;; ***  mov2w  1395  offset=0
                      03773 ;; >>> ../../../../src/pic14/gen.c:1400:mov2w
                      03774 ;;      1126 rIdx = r0x1064 
00EF   08??           03775         MOVF    r0x1042,W
                      03776 ;;      2158 left AOP_REG
                      03777 ;; >>> ../../../../src/pic14/gen.c:2166:genCall
                      03778 ;; ***  popRegFromIdx,1059  , rIdx=0x7e
00F0   00??           03779         MOVWF   STK01
                      03780 ;;; ../../../../src/pic14/gen.c:1357:mov2w_op *{*
                      03781 ;; ***  mov2w  1395  offset=1
                      03782 ;; >>> ../../../../src/pic14/gen.c:1400:mov2w
                      03783 ;;      1126 rIdx = r0x1065 
00F1   08??           03784         MOVF    r0x1041,W
                      03785 ;;      2158 left AOP_REG
                      03786 ;; >>> ../../../../src/pic14/gen.c:2166:genCall
                      03787 ;; ***  popRegFromIdx,1059  , rIdx=0x7f
00F2   00??           03788         MOVWF   STK00
                      03789 ;;; ../../../../src/pic14/gen.c:1357:mov2w_op *{*
                      03790 ;; ***  mov2w  1395  offset=2
                      03791 ;; >>> ../../../../src/pic14/gen.c:1400:mov2w
                      03792 ;;      1126 rIdx = r0x1066 
00F3   08??           03793         MOVF    r0x1043,W
                      03794 ;; >>> ../../../../src/pic14/gen.c:2207:genCall
00F4   0??? 0???      03795         PAGESEL _ser_puts
                      03796 ;; >>> ../../../../src/pic14/gen.c:2215:genCall
00F6   2???           03797         CALL    _ser_puts
                      03798 ;; >>> ../../../../src/pic14/gen.c:2223:genCall
00F7   0??? 0???      03799         PAGESEL $
                      03800 ;;; ../../../../src/pic14/gen.c:2358:resultRemat *{*
                      03801 ;;; ../../../../src/pic14/gen.c:7159:genAssign *{*
                      03802 ;; ***  genAssign  7160
                      03803 ;;      708 register type nRegs=2
                      03804 ;; ***  aopForSym 324
                      03805 ;;      336 sym->rname = _testloop_prev_s_65536_71, size = 2
                      03806 ;;      line = 7169 result AOP_DIR=_testloop_prev_s_65536_71, size=2, left -=-, size=0, right AOP_REG=r0
                            x1062, size=2
                      03807 ;; ***  genAssign  7253
                      03808 ;;; ../../../../src/pic14/gen.c:1357:mov2w_op *{*
                      03809 ;; ***  mov2w  1395  offset=0
                      03810 ;; >>> ../../../../src/pic14/gen.c:1400:mov2w
                      03811 ;;      1126 rIdx = r0x1062 
                      03812         .line   301; "LC-meter.c"       prev_s = s;
00F9   0??? 0???      03813         BANKSEL r0x103F
00FB   08??           03814         MOVF    r0x103F,W
                      03815 ;; >>> ../../../../src/pic14/gen.c:7280:genAssign
                      03816 ;;      1027
                      03817 ;;      1045  _testloop_prev_s_65536_71   offset=0
00FC   0??? 0???      03818         BANKSEL _testloop_prev_s_65536_71
gpasm-1.5.0 #1285 (Jul 12 2020) obj/sdcc-16f8   11/12/23  13:12:30          PAGE 74


LOC    OBJECT CODE    LINE  SOURCE TEXT
  VALUE

00FE   00??           03819         MOVWF   _testloop_prev_s_65536_71
                      03820 ;; ***  genAssign  7253
                      03821 ;;; ../../../../src/pic14/gen.c:1357:mov2w_op *{*
                      03822 ;; ***  mov2w  1395  offset=1
                      03823 ;; >>> ../../../../src/pic14/gen.c:1400:mov2w
                      03824 ;;      1126 rIdx = r0x1063 
00FF   0??? 0???      03825         BANKSEL r0x1040
0101   08??           03826         MOVF    r0x1040,W
                      03827 ;; >>> ../../../../src/pic14/gen.c:7280:genAssign
                      03828 ;;      1027
                      03829 ;;      1045  _testloop_prev_s_65536_71   offset=1
0102   0??? 0???      03830         BANKSEL _testloop_prev_s_65536_71
0104   00??           03831         MOVWF   (_testloop_prev_s_65536_71 + 1)
                      03832 ;;; ../../../../src/pic14/gen.c:2358:resultRemat *{*
                      03833 ;;; ../../../../src/pic14/gen.c:2802:genLabel *{*
                      03834 ;; ***  genLabel  2805
                      03835 ;;; ../../../../src/pic14/gen.c:2358:resultRemat *{*
                      03836 ;;; ../../../../src/pic14/gen.c:2570:genEndFunction *{*
                      03837 ;; ***  genEndFunction  2572
0105                  03838 _00215_DS_:
                      03839         .line   303; "LC-meter.c"       }
0105   0008           03840         RETURN  
                      03841 ; exit point of _testloop
                      03842 ;;      popGetExternal 990 added symbol __sdcc_gsinit_startup
                      03843 ;;      popGetExternal 1008 added extern __sdcc_gsinit_startup
                      03844 
                      03845 ;***
                      03846 ;  pBlock Stats: dbName = C
                      03847 ;***
                      03848 ;has an exit
                      03849 ;; Starting pCode block
                      03850 ;;; ../../../../src/pic14/gen.c:2358:resultRemat *{*
                      03851 ;;; ../../../../src/pic14/gen.c:2802:genLabel *{*
                      03852 ;; ***  genLabel  2805
                      03853 ;;; ../../../../src/pic14/gen.c:2358:resultRemat *{*
                      03854 ;;; ../../../../src/pic14/gen.c:2382:genFunction *{*
                      03855 ;; ***  genFunction  2384 curr label offset=0previous max_key=0 
                      03856 S_LC_meter__delay10ms   code
0000                  03857 _delay10ms:
                      03858 ; 2 exit points
                      03859 ;;; ../../../../src/pic14/gen.c:2358:resultRemat *{*
                      03860 ;;; ../../../../src/pic14/gen.c:2802:genLabel *{*
                      03861 ;; ***  genLabel  2805
                      03862 ;;; ../../../../src/pic14/gen.c:2358:resultRemat *{*
                      03863 ;;; ../../../../src/pic14/gen.c:2570:genEndFunction *{*
                      03864 ;; ***  genEndFunction  2572
                      03865         .line   68; "LC-meter.c"        }
0000   0008           03866         RETURN  
                      03867 ; exit point of _delay10ms
                      03868 ;;; ../../../../src/pic14/gen.c:7677:genpic14Code *{*
                      03869 
                      03870 
                      03871 ;       code size estimation:
gpasm-1.5.0 #1285 (Jul 12 2020) obj/sdcc-16f8   11/12/23  13:12:30          PAGE 75


LOC    OBJECT CODE    LINE  SOURCE TEXT
  VALUE

                      03872 ;         567+  227 =   794 instructions ( 2042 byte)
                      03873 
                      03874         end
gpasm-1.5.0 #1285 (Jul 12 2020) obj/sdcc-16f8   11/12/23  13:12:30          PAGE 76


SYMBOL TABLE
  LABEL                              TYPE        VALUE         VALUE          VALUE
                                                 (hex)         (dec)          (text)

ACKDT                             CONSTANT      00000005              5
ACKEN                             CONSTANT      00000004              4
ACKSTAT                           CONSTANT      00000006              6
ADCON0                            CONSTANT      0000001F             31
ADCON1                            CONSTANT      0000009F            159
ADCS0                             CONSTANT      00000006              6
ADCS1                             CONSTANT      00000007              7
ADCS2                             CONSTANT      00000006              6
ADDEN                             CONSTANT      00000003              3
ADFM                              CONSTANT      00000007              7
ADIE                              CONSTANT      00000006              6
ADIF                              CONSTANT      00000006              6
ADON                              CONSTANT      00000000              0
ADRESH                            CONSTANT      0000001E             30
ADRESL                            CONSTANT      0000009E            158
BCLIE                             CONSTANT      00000003              3
BCLIF                             CONSTANT      00000003              3
BF                                CONSTANT      00000000              0
BRGH                              CONSTANT      00000002              2
C                                 CONSTANT      00000000              0
CCPR1                             CONSTANT      00000015             21
CCPR1H                            CONSTANT      00000016             22
CCPR1L                            CONSTANT      00000015             21
CCPR2                             CONSTANT      0000001B             27
CCPR2H                            CONSTANT      0000001C             28
CCPR2L                            CONSTANT      0000001B             27
CCP1CON                           CONSTANT      00000017             23
CCP1IE                            CONSTANT      00000002              2
CCP1IF                            CONSTANT      00000002              2
CCP1M0                            CONSTANT      00000000              0
CCP1M1                            CONSTANT      00000001              1
CCP1M2                            CONSTANT      00000002              2
CCP1M3                            CONSTANT      00000003              3
CCP1X                             CONSTANT      00000005              5
CCP1Y                             CONSTANT      00000004              4
CCP2CON                           CONSTANT      0000001D             29
CCP2IE                            CONSTANT      00000000              0
CCP2IF                            CONSTANT      00000000              0
CCP2M0                            CONSTANT      00000000              0
CCP2M1                            CONSTANT      00000001              1
CCP2M2                            CONSTANT      00000002              2
CCP2M3                            CONSTANT      00000003              3
CCP2X                             CONSTANT      00000005              5
CCP2Y                             CONSTANT      00000004              4
CHS0                              CONSTANT      00000003              3
CHS1                              CONSTANT      00000004              4
CHS2                              CONSTANT      00000005              5
CIS                               CONSTANT      00000003              3
CKE                               CONSTANT      00000006              6
CKP                               CONSTANT      00000004              4
CM0                               CONSTANT      00000000              0
CMCON                             CONSTANT      0000009C            156
gpasm-1.5.0 #1285 (Jul 12 2020) obj/sdcc-16f8   11/12/23  13:12:30          PAGE 77


SYMBOL TABLE
  LABEL                              TYPE        VALUE         VALUE          VALUE
                                                 (hex)         (dec)          (text)

CMIE                              CONSTANT      00000006              6
CMIF                              CONSTANT      00000006              6
CM1                               CONSTANT      00000001              1
CM2                               CONSTANT      00000002              2
CREN                              CONSTANT      00000004              4
CSRC                              CONSTANT      00000007              7
CVR0                              CONSTANT      00000000              0
CVRCON                            CONSTANT      0000009D            157
CVREN                             CONSTANT      00000007              7
CVROE                             CONSTANT      00000006              6
CVRR                              CONSTANT      00000005              5
CVR1                              CONSTANT      00000001              1
CVR2                              CONSTANT      00000002              2
CVR3                              CONSTANT      00000003              3
C1INV                             CONSTANT      00000004              4
C1OUT                             CONSTANT      00000006              6
C2INV                             CONSTANT      00000005              5
C2OUT                             CONSTANT      00000007              7
D                                 CONSTANT      00000005              5
DATA_ADDRESS                      CONSTANT      00000005              5
DC                                CONSTANT      00000001              1
D_A                               CONSTANT      00000005              5
D_NOT_A                           CONSTANT      00000005              5
EEADR                             CONSTANT      0000010D            269
EEADRH                            CONSTANT      0000010F            271
EECON1                            CONSTANT      0000018C            396
EECON2                            CONSTANT      0000018D            397
EEDATA                            CONSTANT      0000010C            268
EEDATH                            CONSTANT      0000010E            270
EEIE                              CONSTANT      00000004              4
EEIF                              CONSTANT      00000004              4
EEPGD                             CONSTANT      00000007              7
END_OF_INTERRUPT                  ADDRESS       00000198            408
F                                 CONSTANT      00000001              1
FERR                              CONSTANT      00000002              2
FSR                               CONSTANT      00000004              4
GCEN                              CONSTANT      00000007              7
GIE                               CONSTANT      00000007              7
GO                                CONSTANT      00000002              2
GO_DONE                           CONSTANT      00000002              2
GO_NOT_DONE                       CONSTANT      00000002              2
INDF                              CONSTANT      00000000              0
INTCON                            CONSTANT      0000000B             11
INTE                              CONSTANT      00000004              4
INTEDG                            CONSTANT      00000006              6
INTF                              CONSTANT      00000001              1
IRP                               CONSTANT      00000007              7
I2C_DATA                          CONSTANT      00000005              5
I2C_READ                          CONSTANT      00000002              2
I2C_START                         CONSTANT      00000003              3
I2C_STOP                          CONSTANT      00000004              4
NOT_A                             CONSTANT      00000005              5
gpasm-1.5.0 #1285 (Jul 12 2020) obj/sdcc-16f8   11/12/23  13:12:30          PAGE 78


SYMBOL TABLE
  LABEL                              TYPE        VALUE         VALUE          VALUE
                                                 (hex)         (dec)          (text)

NOT_ADDRESS                       CONSTANT      00000005              5
NOT_BO                            CONSTANT      00000000              0
NOT_BOR                           CONSTANT      00000000              0
NOT_DONE                          CONSTANT      00000002              2
NOT_PD                            CONSTANT      00000003              3
NOT_POR                           CONSTANT      00000001              1
NOT_RBPU                          CONSTANT      00000007              7
NOT_RC8                           CONSTANT      00000006              6
NOT_TO                            CONSTANT      00000004              4
NOT_TX8                           CONSTANT      00000006              6
NOT_T1SYNC                        CONSTANT      00000002              2
NOT_W                             CONSTANT      00000002              2
NOT_WRITE                         CONSTANT      00000002              2
OERR                              CONSTANT      00000001              1
OPTION_REG                        CONSTANT      00000081            129
P                                 CONSTANT      00000004              4
PCFG0                             CONSTANT      00000000              0
PCFG1                             CONSTANT      00000001              1
PCFG2                             CONSTANT      00000002              2
PCFG3                             CONSTANT      00000003              3
PCL                               CONSTANT      00000002              2
PCLATH                            CONSTANT      0000000A             10
PCON                              CONSTANT      0000008E            142
PEIE                              CONSTANT      00000006              6
PEN                               CONSTANT      00000002              2
PIE1                              CONSTANT      0000008C            140
PIE2                              CONSTANT      0000008D            141
PIR1                              CONSTANT      0000000C             12
PIR2                              CONSTANT      0000000D             13
PORTA                             CONSTANT      00000005              5
PORTB                             CONSTANT      00000006              6
PORTC                             CONSTANT      00000007              7
PR2                               CONSTANT      00000092            146
PS0                               CONSTANT      00000000              0
PSA                               CONSTANT      00000003              3
PSAVE                             GLOBAL        00000070            112
PS1                               CONSTANT      00000001              1
PS2                               CONSTANT      00000002              2
R                                 CONSTANT      00000002              2
RA0                               CONSTANT      00000000              0
RA1                               CONSTANT      00000001              1
RA2                               CONSTANT      00000002              2
RA3                               CONSTANT      00000003              3
RA4                               CONSTANT      00000004              4
RA5                               CONSTANT      00000005              5
RB0                               CONSTANT      00000000              0
RBIE                              CONSTANT      00000003              3
RBIF                              CONSTANT      00000000              0
RB1                               CONSTANT      00000001              1
RB2                               CONSTANT      00000002              2
RB3                               CONSTANT      00000003              3
RB4                               CONSTANT      00000004              4
gpasm-1.5.0 #1285 (Jul 12 2020) obj/sdcc-16f8   11/12/23  13:12:30          PAGE 79


SYMBOL TABLE
  LABEL                              TYPE        VALUE         VALUE          VALUE
                                                 (hex)         (dec)          (text)

RB5                               CONSTANT      00000005              5
RB6                               CONSTANT      00000006              6
RB7                               CONSTANT      00000007              7
RC0                               CONSTANT      00000000              0
RCD8                              CONSTANT      00000000              0
RCEN                              CONSTANT      00000003              3
RCIE                              CONSTANT      00000005              5
RCIF                              CONSTANT      00000005              5
RCREG                             CONSTANT      0000001A             26
RCSTA                             CONSTANT      00000018             24
RC1                               CONSTANT      00000001              1
RC2                               CONSTANT      00000002              2
RC3                               CONSTANT      00000003              3
RC4                               CONSTANT      00000004              4
RC5                               CONSTANT      00000005              5
RC6                               CONSTANT      00000006              6
RC7                               CONSTANT      00000007              7
RC8_9                             CONSTANT      00000006              6
RC9                               CONSTANT      00000006              6
RD                                CONSTANT      00000000              0
READ_WRITE                        CONSTANT      00000002              2
RP0                               CONSTANT      00000005              5
RP1                               CONSTANT      00000006              6
RSEN                              CONSTANT      00000001              1
RX9                               CONSTANT      00000006              6
RX9D                              CONSTANT      00000000              0
R_NOT_W                           CONSTANT      00000002              2
R_W                               CONSTANT      00000002              2
S                                 CONSTANT      00000003              3
SEN                               CONSTANT      00000000              0
SMP                               CONSTANT      00000007              7
SPBRG                             CONSTANT      00000099            153
SPEN                              CONSTANT      00000007              7
SREN                              CONSTANT      00000005              5
SSAVE                             GLOBAL        00000071            113
SSPADD                            CONSTANT      00000093            147
SSPBUF                            CONSTANT      00000013             19
SSPCON                            CONSTANT      00000014             20
SSPCON2                           CONSTANT      00000091            145
SSPEN                             CONSTANT      00000005              5
SSPIE                             CONSTANT      00000003              3
SSPIF                             CONSTANT      00000003              3
SSPM0                             CONSTANT      00000000              0
SSPM1                             CONSTANT      00000001              1
SSPM2                             CONSTANT      00000002              2
SSPM3                             CONSTANT      00000003              3
SSPOV                             CONSTANT      00000006              6
SSPSTAT                           CONSTANT      00000094            148
STATUS                            CONSTANT      00000003              3
STK00                             GLOBAL        0000007F            127
STK01                             GLOBAL        0000007E            126
STK02                             GLOBAL        0000007D            125
gpasm-1.5.0 #1285 (Jul 12 2020) obj/sdcc-16f8   11/12/23  13:12:30          PAGE 80


SYMBOL TABLE
  LABEL                              TYPE        VALUE         VALUE          VALUE
                                                 (hex)         (dec)          (text)

STK03                             GLOBAL        0000007C            124
STK04                             GLOBAL        0000007B            123
STK05                             GLOBAL        0000007A            122
STK06                             GLOBAL        00000079            121
STK07                             GLOBAL        00000078            120
STK08                             GLOBAL        00000077            119
STK09                             GLOBAL        00000076            118
STK10                             GLOBAL        00000075            117
STK11                             GLOBAL        00000074            116
STK12                             GLOBAL        00000073            115
SYNC                              CONSTANT      00000004              4
T0CS                              CONSTANT      00000005              5
T0IE                              CONSTANT      00000005              5
T0IF                              CONSTANT      00000002              2
T0SE                              CONSTANT      00000004              4
TMR0                              CONSTANT      00000001              1
TMR0IE                            CONSTANT      00000005              5
TMR0IF                            CONSTANT      00000002              2
TMR1                              CONSTANT      0000000E             14
TMR1CS                            CONSTANT      00000001              1
TMR1H                             CONSTANT      0000000F             15
TMR1IE                            CONSTANT      00000000              0
TMR1IF                            CONSTANT      00000000              0
TMR1L                             CONSTANT      0000000E             14
TMR1ON                            CONSTANT      00000000              0
TMR2                              CONSTANT      00000011             17
TMR2IE                            CONSTANT      00000001              1
TMR2IF                            CONSTANT      00000001              1
TMR2ON                            CONSTANT      00000002              2
TOUTPS0                           CONSTANT      00000003              3
TOUTPS1                           CONSTANT      00000004              4
TOUTPS2                           CONSTANT      00000005              5
TOUTPS3                           CONSTANT      00000006              6
TRISA                             CONSTANT      00000085            133
TRISA0                            CONSTANT      00000000              0
TRISA1                            CONSTANT      00000001              1
TRISA2                            CONSTANT      00000002              2
TRISA3                            CONSTANT      00000003              3
TRISA4                            CONSTANT      00000004              4
TRISA5                            CONSTANT      00000005              5
TRISB                             CONSTANT      00000086            134
TRISB0                            CONSTANT      00000000              0
TRISB1                            CONSTANT      00000001              1
TRISB2                            CONSTANT      00000002              2
TRISB3                            CONSTANT      00000003              3
TRISB4                            CONSTANT      00000004              4
TRISB5                            CONSTANT      00000005              5
TRISB6                            CONSTANT      00000006              6
TRISB7                            CONSTANT      00000007              7
TRISC                             CONSTANT      00000087            135
TRISC0                            CONSTANT      00000000              0
TRISC1                            CONSTANT      00000001              1
gpasm-1.5.0 #1285 (Jul 12 2020) obj/sdcc-16f8   11/12/23  13:12:30          PAGE 81


SYMBOL TABLE
  LABEL                              TYPE        VALUE         VALUE          VALUE
                                                 (hex)         (dec)          (text)

TRISC2                            CONSTANT      00000002              2
TRISC3                            CONSTANT      00000003              3
TRISC4                            CONSTANT      00000004              4
TRISC5                            CONSTANT      00000005              5
TRISC6                            CONSTANT      00000006              6
TRISC7                            CONSTANT      00000007              7
TRMT                              CONSTANT      00000001              1
TXD8                              CONSTANT      00000000              0
TXEN                              CONSTANT      00000005              5
TXIE                              CONSTANT      00000004              4
TXIF                              CONSTANT      00000004              4
TXREG                             CONSTANT      00000019             25
TXSTA                             CONSTANT      00000098            152
TX8_9                             CONSTANT      00000006              6
TX9                               CONSTANT      00000006              6
TX9D                              CONSTANT      00000000              0
T1CKPS0                           CONSTANT      00000004              4
T1CKPS1                           CONSTANT      00000005              5
T1CON                             CONSTANT      00000010             16
T1INSYNC                          CONSTANT      00000002              2
T1OSCEN                           CONSTANT      00000003              3
T1SYNC                            CONSTANT      00000002              2
T2CKPS0                           CONSTANT      00000000              0
T2CKPS1                           CONSTANT      00000001              1
T2CON                             CONSTANT      00000012             18
UA                                CONSTANT      00000001              1
W                                 CONSTANT      00000000              0
WCOL                              CONSTANT      00000007              7
WR                                CONSTANT      00000001              1
WREN                              CONSTANT      00000002              2
WRERR                             CONSTANT      00000003              3
WSAVE                             GLOBAL        00000072            114
Z                                 CONSTANT      00000002              2
_00001_DS_                        ADDRESS       00000188            392
_00112_DS_                        ADDRESS       00000121            289
_00114_DS_                        ADDRESS       00000124            292
_00118_DS_                        ADDRESS       00000158            344
_00124_DS_                        ADDRESS       0000018B            395
_00127_DS_                        ADDRESS       000000A2            162
_00128_DS_                        ADDRESS       000000A6            166
_00165_DS_                        ADDRESS       00000028             40
_00166_DS_                        ADDRESS       0000009C            156
_00167_DS_                        ADDRESS       000000CE            206
_00174_DS_                        ADDRESS       00000123            291
_00176_DS_                        ADDRESS       00000137            311
_00178_DS_                        ADDRESS       00000142            322
_00179_DS_                        ADDRESS       00000147            327
_00181_DS_                        ADDRESS       000000D3            211
_00185_DS_                        ADDRESS       000000F6            246
_00186_DS_                        ADDRESS       000000FC            252
_00208_DS_                        ADDRESS       00000131            305
_00215_DS_                        ADDRESS       00000105            261
gpasm-1.5.0 #1285 (Jul 12 2020) obj/sdcc-16f8   11/12/23  13:12:30          PAGE 82


SYMBOL TABLE
  LABEL                              TYPE        VALUE         VALUE          VALUE
                                                 (hex)         (dec)          (text)

_00217_DS_                        ADDRESS       000000B7            183
_00218_DS_                        ADDRESS       000000BC            188
_00227_DS_                        ADDRESS       000000D5            213
_BODEN_OFF                        CONSTANT      00003FBF          16319
_BODEN_ON                         CONSTANT      00003FFF          16383
_BOREN_OFF                        CONSTANT      00003FBF          16319
_BOREN_ON                         CONSTANT      00003FFF          16383
_CCal                             GLOBAL        00000000              0
_CMCON                            EXTERNAL      00000000              0
_CONFIG                           CONSTANT      00002007           8199
_CPD_OFF                          CONSTANT      00003FFF          16383
_CPD_ON                           CONSTANT      00003EFF          16127
_CP_ALL                           CONSTANT      00001FFF           8191
_CP_OFF                           CONSTANT      00003FFF          16383
_CP_ON                            CONSTANT      00001FFF           8191
_DEBUG_OFF                        CONSTANT      00003FFF          16383
_DEBUG_ON                         CONSTANT      000037FF          14335
_DEVID1                           CONSTANT      00002006           8198
_FOSC_EXTRC                       CONSTANT      00003FFF          16383
_FOSC_HS                          CONSTANT      00003FFE          16382
_FOSC_LP                          CONSTANT      00003FFC          16380
_FOSC_XT                          CONSTANT      00003FFD          16381
_F1                               GLOBAL        00000000              0
_F2                               GLOBAL        00000000              0
_F3                               GLOBAL        00000000              0
_HS_OSC                           CONSTANT      00003FFE          16382
_IDLOC0                           CONSTANT      00002000           8192
_IDLOC1                           CONSTANT      00002001           8193
_IDLOC2                           CONSTANT      00002002           8194
_IDLOC3                           CONSTANT      00002003           8195
_INTCON                           EXTERNAL      00000000              0
_LP_OSC                           CONSTANT      00003FFC          16380
_LVP_OFF                          CONSTANT      00003F7F          16255
_LVP_ON                           CONSTANT      00003FFF          16383
_OPTION_REG                       EXTERNAL      00000000              0
_PIE1bits                         EXTERNAL      00000000              0
_PIR1bits                         EXTERNAL      00000000              0
_PORTC                            EXTERNAL      00000000              0
_PORTCbits                        EXTERNAL      00000000              0
_PWRTE_OFF                        CONSTANT      00003FFF          16383
_PWRTE_ON                         CONSTANT      00003FF7          16375
_RCREG                            EXTERNAL      00000000              0
_RC_OSC                           CONSTANT      00003FFF          16383
_S_LC_meter__main_0038            ADDRESS       00000038             56
_S_LC_meter__main_003E            ADDRESS       0000003E             62
_S_LC_meter__main_0053            ADDRESS       00000053             83
_S_LC_meter__main_0059            ADDRESS       00000059             89
_S_LC_meter__main_0061            ADDRESS       00000061             97
_S_LC_meter__main_006E            ADDRESS       0000006E            110
_S_LC_meter__main_0077            ADDRESS       00000077            119
_S_LC_meter__main_0080            ADDRESS       00000080            128
_S_LC_meter__main_0089            ADDRESS       00000089            137
gpasm-1.5.0 #1285 (Jul 12 2020) obj/sdcc-16f8   11/12/23  13:12:30          PAGE 83


SYMBOL TABLE
  LABEL                              TYPE        VALUE         VALUE          VALUE
                                                 (hex)         (dec)          (text)

_S_LC_meter__main_0091            ADDRESS       00000091            145
_S_LC_meter__main_009D            ADDRESS       0000009D            157
_S_LC_meter__main_00AF            ADDRESS       000000AF            175
_S_LC_meter__main_00CC            ADDRESS       000000CC            204
_S_LC_meter__main_00C1            ADDRESS       000000C1            193
_S_LC_meter__main_00C7            ADDRESS       000000C7            199
_S_LC_meter__main_00D1            ADDRESS       000000D1            209
_S_LC_meter__main_0109            ADDRESS       00000109            265
_S_LC_meter__main_011B            ADDRESS       0000011B            283
_S_LC_meter__main_013F            ADDRESS       0000013F            319
_S_LC_meter__main_0145            ADDRESS       00000145            325
_S_LC_meter__main_014B            ADDRESS       0000014B            331
_S_LC_meter__main_0151            ADDRESS       00000151            337
_S_LC_meter__main_0157            ADDRESS       00000157            343
_S_LC_meter__main_015D            ADDRESS       0000015D            349
_S_LC_meter__testloop_0004        ADDRESS       00000004              4
_S_LC_meter__testloop_001E        ADDRESS       0000001E             30
_S_LC_meter__testloop_0030        ADDRESS       00000030             48
_S_LC_meter__testloop_0038        ADDRESS       00000038             56
_S_LC_meter__testloop_004A        ADDRESS       0000004A             74
_S_LC_meter__testloop_0052        ADDRESS       00000052             82
_S_LC_meter__testloop_0064        ADDRESS       00000064            100
_S_LC_meter__testloop_006C        ADDRESS       0000006C            108
_S_LC_meter__testloop_0074        ADDRESS       00000074            116
_S_LC_meter__testloop_0086        ADDRESS       00000086            134
_S_LC_meter__testloop_008E        ADDRESS       0000008E            142
_S_LC_meter__testloop_00A0        ADDRESS       000000A0            160
_S_LC_meter__testloop_00C3        ADDRESS       000000C3            195
_S_LC_meter__testloop_00E5        ADDRESS       000000E5            229
_S_LC_meter__testloop_00F7        ADDRESS       000000F7            247
_TRISA                            EXTERNAL      00000000              0
_TRISB                            EXTERNAL      00000000              0
_TRISC                            EXTERNAL      00000000              0
_TXREG                            EXTERNAL      00000000              0
_WDTE_OFF                         CONSTANT      00003FFB          16379
_WDTE_ON                          CONSTANT      00003FFF          16383
_WDT_OFF                          CONSTANT      00003FFB          16379
_WDT_ON                           CONSTANT      00003FFF          16383
_WRT_HALF                         CONSTANT      000039FF          14847
_WRT_OFF                          CONSTANT      00003FFF          16383
_WRT_1FOURTH                      CONSTANT      00003BFF          15359
_WRT_256                          CONSTANT      00003DFF          15871
_XT_OSC                           CONSTANT      00003FFD          16381
__ACTIVE_BANK_ADDR                VARIABLE      FFFFFFFF             -1
__ACTIVE_PAGE_ADDR                VARIABLE      FFFFFFFF             -1
__ASSUMED_BANK_ADDR               VARIABLE      FFFFFFFF             -1
__BANK_0                          CONSTANT      00000000              0
__BANK_BITS                       CONSTANT      00000180            384
__BANK_FIRST                      CONSTANT      00000000              0
__BANK_INV                        CONSTANT      FFFFFFFF             -1
__BANK_LAST                       CONSTANT      00000180            384
__BANK_MASK                       CONSTANT      0000007F            127
gpasm-1.5.0 #1285 (Jul 12 2020) obj/sdcc-16f8   11/12/23  13:12:30          PAGE 84


SYMBOL TABLE
  LABEL                              TYPE        VALUE         VALUE          VALUE
                                                 (hex)         (dec)          (text)

__BANK_SHIFT                      CONSTANT      00000007              7
__BANK_SIZE                       CONSTANT      00000080            128
__BANK_1                          CONSTANT      00000080            128
__BANK_2                          CONSTANT      00000100            256
__BANK_3                          CONSTANT      00000180            384
__CODE_END                        CONSTANT      00001FFF           8191
__CODE_START                      CONSTANT      00000000              0
__COMMON_RAM_END                  CONSTANT      0000007F            127
__COMMON_RAM_START                CONSTANT      00000070            112
__CONFIG_END                      CONSTANT      00002007           8199
__CONFIG_START                    CONSTANT      00002007           8199
__EEPROM_END                      CONSTANT      000021FF           8703
__EEPROM_START                    CONSTANT      00002100           8448
__GPUTILS_SVN_VERSION             CONSTANT      00000505           1285
__GPUTILS_VERSION_MAJOR           CONSTANT      00000001              1
__GPUTILS_VERSION_MICRO           CONSTANT      00000000              0
__GPUTILS_VERSION_MINOR           CONSTANT      00000005              5
__IDLOCS_END                      CONSTANT      00002003           8195
__IDLOCS_START                    CONSTANT      00002000           8192
__NUM_BANKS                       CONSTANT      00000004              4
__NUM_PAGES                       CONSTANT      00000004              4
__PAGE_0                          CONSTANT      00000000              0
__PAGE_BITS                       CONSTANT      00001800           6144
__PAGE_FIRST                      CONSTANT      00000000              0
__PAGE_INV                        CONSTANT      FFFFFFFF             -1
__PAGE_LAST                       CONSTANT      00001800           6144
__PAGE_MASK                       CONSTANT      000007FF           2047
__PAGE_SHIFT                      CONSTANT      0000000B             11
__PAGE_SIZE                       CONSTANT      00000800           2048
__PAGE_1                          CONSTANT      00000800           2048
__PAGE_2                          CONSTANT      00001000           4096
__PAGE_3                          CONSTANT      00001800           6144
__VECTOR_INT                      CONSTANT      00000004              4
__VECTOR_RESET                    CONSTANT      00000000              0
__WHILE_LOOP_COUNT_MAX            CONSTANT      000000FF            255
___sdcc_saved_fsr                 STATIC        0000000E             14
___str_0                          ADDRESS       00000000              0
___str_1                          ADDRESS       00000000              0
___str_2                          ADDRESS       00000000              0
___str_3                          ADDRESS       00000000              0
___str_4                          ADDRESS       00000000              0
___str_5                          ADDRESS       00000000              0
___str_6                          ADDRESS       00000000              0
__divuint                         EXTERNAL      00000000              0
__sdcc_gsinit_startup             EXTERNAL      00000000              0
__sdcc_interrupt                  ADDRESS       00000004              4
__14_BIT                          CONSTANT      00000001              1
__16F876A                         CONSTANT      00000001              1
_blink                            GLOBAL        00000000              0
_bres                             GLOBAL        00000000              0
_c_interrupt_0083                 ADDRESS       00000083            131
_calibrate                        EXTERNAL      00000000              0
gpasm-1.5.0 #1285 (Jul 12 2020) obj/sdcc-16f8   11/12/23  13:12:30          PAGE 85


SYMBOL TABLE
  LABEL                              TYPE        VALUE         VALUE          VALUE
                                                 (hex)         (dec)          (text)

_delay10ms                        GLOBAL        00000000              0
_format_float                     EXTERNAL      00000000              0
_format_number                    EXTERNAL      00000000              0
_isr                              GLOBAL        00000004              4
_lcd_begin                        EXTERNAL      00000000              0
_lcd_clear                        EXTERNAL      00000000              0
_lcd_gotoxy                       EXTERNAL      00000000              0
_lcd_init                         EXTERNAL      00000000              0
_lcd_putch                        EXTERNAL      00000000              0
_lcd_puts                         EXTERNAL      00000000              0
_led_cycle                        GLOBAL        00000000              0
_led_interval                     GLOBAL        00000000              0
_main                             GLOBAL        00000000              0
_measure_capacitance              EXTERNAL      00000000              0
_measure_inductance               EXTERNAL      00000000              0
_mode                             STATIC        00000000              0
_msecpart                         GLOBAL        00000000              0
_msecs                            GLOBAL        00000000              0
_print_indicator                  EXTERNAL      00000000              0
_seconds                          GLOBAL        00000000              0
_ser_init                         EXTERNAL      00000000              0
_ser_putch                        EXTERNAL      00000000              0
_ser_puts                         EXTERNAL      00000000              0
_ser_rxfifo                       EXTERNAL      00000000              0
_ser_rxiptr                       EXTERNAL      00000000              0
_ser_rxoptr                       EXTERNAL      00000000              0
_ser_tmp                          EXTERNAL      00000000              0
_ser_txfifo                       EXTERNAL      00000000              0
_ser_txiptr                       EXTERNAL      00000000              0
_ser_txoptr                       EXTERNAL      00000000              0
_testloop                         GLOBAL        00000000              0
_testloop_led_65536_71            STATIC        00000000              0
_testloop_prev_s_65536_71         STATIC        00000000              0
_timer0_init                      EXTERNAL      00000000              0
_timer1of                         GLOBAL        00000000              0
_timer2_init                      EXTERNAL      00000000              0
r0x103F                           STATIC        00000009              9
r0x104A                           STATIC        00000000              0
r0x104B                           STATIC        00000001              1
r0x104C                           STATIC        00000002              2
r0x104D                           STATIC        00000003              3
r0x1040                           STATIC        0000000A             10
r0x1041                           STATIC        0000000C             12
r0x1042                           STATIC        0000000B             11
r0x1043                           STATIC        0000000D             13
r0x1044                           STATIC        00000005              5
r0x1045                           STATIC        00000004              4
r0x1046                           STATIC        00000006              6
r0x1048                           STATIC        00000007              7
r0x1049                           STATIC        00000008              8

Errors   :     0
gpasm-1.5.0 #1285 (Jul 12 2020) obj/sdcc-16f8   11/12/23  13:12:30          PAGE 86




Warnings :     0 reported,     0 suppressed
Messages :     0 reported,     0 suppressed

