gpasm-1.5.0 #1285 (Jul 12 2020) obj/sdcc-16f8   11/12/23  13:12:30          PAGE  1


LOC    OBJECT CODE    LINE  SOURCE TEXT
  VALUE

                      00001 ;--------------------------------------------------------
                      00002 ; File Created by SDCC : free open source ANSI-C Compiler
                      00003 ; Version 4.2.0 #13081 (Linux)
                      00004 ;--------------------------------------------------------
                      00005 ; PIC port for the 14-bit core
                      00006 ;--------------------------------------------------------
                      00007         .file   "src/measure.c"
                      00008         list    p=16f876a
                      00009         radix dec
                      00010         include "p16f876a.inc"
                      00001         LIST
                      00002 
                      00003 ;==========================================================================
                      00004 ; Build date : Oct 21 2015
                      00005 ;  MPASM PIC16F876A processor include
                      00006 ; 
                      00007 ;  (c) Copyright 1999-2015 Microchip Technology, All rights reserved
                      00008 ;==========================================================================
                      00009 
                      00525         LIST
                      00011 ;--------------------------------------------------------
                      00012 ; config word(s)
                      00013 ;--------------------------------------------------------
2007   0000           00014         __config 0x3f32
                      00015 ;--------------------------------------------------------
                      00016 ; external declarations
                      00017 ;--------------------------------------------------------
  0000                00018         extern  ___fs2uint
  0000                00019         extern  ___fsdiv
  0000                00020         extern  ___fssub
  0000                00021         extern  ___fsmul
  0000                00022         extern  ___fslt
  0000                00023         extern  ___uint2fs
  0000                00024         extern  _buffer_puts
  0000                00025         extern  _buffer_putch
  0000                00026         extern  _buffer_init
  0000                00027         extern  _timer0_read_ps
  0000                00028         extern  _format_float
  0000                00029         extern  _format_xint32
  0000                00030         extern  _format_number
  0000                00031         extern  _print_buffer
  0000                00032         extern  _print_reading
  0000                00033         extern  _print_unit
  0000                00034         extern  _put_str
  0000                00035         extern  _lcd_putch
  0000                00036         extern  _lcd_gotoxy
  0000                00037         extern  _lcd_clear
  0000                00038         extern  _ser_puts
  0000                00039         extern  _ser_put
  0000                00040         extern  _ser_putch
  0000                00041         extern  _delay10ms
  0000                00042         extern  _delay_ms
  0000                00043         extern  _TRISA
gpasm-1.5.0 #1285 (Jul 12 2020) obj/sdcc-16f8   11/12/23  13:12:30          PAGE  2


LOC    OBJECT CODE    LINE  SOURCE TEXT
  VALUE

  0000                00044         extern  _PORTC
  0000                00045         extern  _TMR0
  0000                00046         extern  _buffer
  0000                00047         extern  _CCal
  0000                00048         extern  _F3
  0000                00049         extern  _F2
  0000                00050         extern  _F1
  0000                00051         extern  _INTCONbits
                      00052 
  0000                00053         extern PSAVE
  0000                00054         extern SSAVE
  0000                00055         extern WSAVE
  0000                00056         extern STK12
  0000                00057         extern STK11
  0000                00058         extern STK10
  0000                00059         extern STK09
  0000                00060         extern STK08
  0000                00061         extern STK07
  0000                00062         extern STK06
  0000                00063         extern STK05
  0000                00064         extern STK04
  0000                00065         extern STK03
  0000                00066         extern STK02
  0000                00067         extern STK01
  0000                00068         extern STK00
                      00069 ;--------------------------------------------------------
                      00070 ; global declarations
                      00071 ;--------------------------------------------------------
  0000                00072         global  _buf_to_ser
  0000                00073         global  _calibrate
  0000                00074         global  _measure_freq
  0000                00075         global  _measure_capacitance
  0000                00076         global  _measure_inductance
                      00077 
                      00078 ;--------------------------------------------------------
                      00079 ; global definitions
                      00080 ;--------------------------------------------------------
                      00081 ;--------------------------------------------------------
                      00082 ; absolute symbol definitions
                      00083 ;--------------------------------------------------------
                      00084 ;--------------------------------------------------------
                      00085 ; compiler-defined variables
                      00086 ;--------------------------------------------------------
                      00087 UDL_measure_0   udata
0000                  00088 r0x1045 res     1
0001                  00089 r0x1044 res     1
0002                  00090 r0x1046 res     1
0003                  00091 r0x1026 res     1
0004                  00092 r0x1025 res     1
0005                  00093 r0x1028 res     1
0006                  00094 r0x1027 res     1
0007                  00095 r0x1029 res     1
0008                  00096 r0x103F res     1
gpasm-1.5.0 #1285 (Jul 12 2020) obj/sdcc-16f8   11/12/23  13:12:30          PAGE  3


LOC    OBJECT CODE    LINE  SOURCE TEXT
  VALUE

0009                  00097 r0x103E res     1
000A                  00098 r0x1041 res     1
000B                  00099 r0x1033 res     1
000C                  00100 r0x1032 res     1
000D                  00101 r0x1034 res     1
000E                  00102 r0x1035 res     1
000F                  00103 r0x1036 res     1
0010                  00104 r0x1037 res     1
0011                  00105 r0x1039 res     1
0012                  00106 r0x1038 res     1
0013                  00107 r0x103C res     1
0014                  00108 r0x103B res     1
0015                  00109 r0x103A res     1
0016                  00110 r0x102B res     1
0017                  00111 r0x102A res     1
0018                  00112 r0x102C res     1
0019                  00113 r0x102D res     1
001A                  00114 r0x1031 res     1
001B                  00115 r0x1030 res     1
001C                  00116 r0x102F res     1
001D                  00117 r0x102E res     1
001E                  00118 _measure_capacitance_Cin_65536_66       res     4
                      00119 ;--------------------------------------------------------
                      00120 ; initialized data
                      00121 ;--------------------------------------------------------
                      00122 
                      00123 IDC_measure_0   code
                      00124 ; Fmeasure___str_0_0_0 == .
0000                  00125 ___str_0
0000   3443           00126         retlw 0x43 ; 'C'
0001   3461           00127         retlw 0x61 ; 'a'
0002   346C           00128         retlw 0x6c ; 'l'
0003   3469           00129         retlw 0x69 ; 'i'
0004   3462           00130         retlw 0x62 ; 'b'
0005   3472           00131         retlw 0x72 ; 'r'
0006   3461           00132         retlw 0x61 ; 'a'
0007   3474           00133         retlw 0x74 ; 't'
0008   3469           00134         retlw 0x69 ; 'i'
0009   346E           00135         retlw 0x6e ; 'n'
000A   3467           00136         retlw 0x67 ; 'g'
000B   3400           00137         retlw 0x00 ; '.'
                      00138 
                      00139 IDC_measure_1   code
                      00140 ; Fmeasure___str_1_0_0 == .
0000                  00141 ___str_1
0000   340D           00142         retlw 0x0d ; '.'
0001   340A           00143         retlw 0x0a ; '.'
0002   3400           00144         retlw 0x00 ; '.'
                      00145 
                      00146 IDC_measure_2   code
                      00147 ; Fmeasure___str_2_0_0 == .
0000                  00148 ___str_2
0000   3470           00149         retlw 0x70 ; 'p'
gpasm-1.5.0 #1285 (Jul 12 2020) obj/sdcc-16f8   11/12/23  13:12:30          PAGE  4


LOC    OBJECT CODE    LINE  SOURCE TEXT
  VALUE

0001   346C           00150         retlw 0x6c ; 'l'
0002   3465           00151         retlw 0x65 ; 'e'
0003   3461           00152         retlw 0x61 ; 'a'
0004   3473           00153         retlw 0x73 ; 's'
0005   3465           00154         retlw 0x65 ; 'e'
0006   3420           00155         retlw 0x20 ; ' '
0007   3477           00156         retlw 0x77 ; 'w'
0008   3461           00157         retlw 0x61 ; 'a'
0009   3469           00158         retlw 0x69 ; 'i'
000A   3474           00159         retlw 0x74 ; 't'
000B   342E           00160         retlw 0x2e ; '.'
000C   342E           00161         retlw 0x2e ; '.'
000D   342E           00162         retlw 0x2e ; '.'
000E   3400           00163         retlw 0x00 ; '.'
                      00164 
                      00165 IDC_measure_3   code
                      00166 ; Fmeasure___str_3_0_0 == .
0000                  00167 ___str_3
0000   3446           00168         retlw 0x46 ; 'F'
0001   3472           00169         retlw 0x72 ; 'r'
0002   3465           00170         retlw 0x65 ; 'e'
0003   3471           00171         retlw 0x71 ; 'q'
0004   343D           00172         retlw 0x3d ; '='
0005   3400           00173         retlw 0x00 ; '.'
                      00174 
                      00175 IDC_measure_4   code
                      00176 ; Fmeasure___str_4_0_0 == .
0000                  00177 ___str_4
0000   3443           00178         retlw 0x43 ; 'C'
0001   3461           00179         retlw 0x61 ; 'a'
0002   3470           00180         retlw 0x70 ; 'p'
0003   3461           00181         retlw 0x61 ; 'a'
0004   3463           00182         retlw 0x63 ; 'c'
0005   3469           00183         retlw 0x69 ; 'i'
0006   3474           00184         retlw 0x74 ; 't'
0007   3479           00185         retlw 0x79 ; 'y'
0008   3420           00186         retlw 0x20 ; ' '
0009   3400           00187         retlw 0x00 ; '.'
                      00188 
                      00189 IDC_measure_5   code
                      00190 ; Fmeasure___str_5_0_0 == .
0000                  00191 ___str_5
0000   3476           00192         retlw 0x76 ; 'v'
0001   3461           00193         retlw 0x61 ; 'a'
0002   3472           00194         retlw 0x72 ; 'r'
0003   343D           00195         retlw 0x3d ; '='
0004   3400           00196         retlw 0x00 ; '.'
                      00197 
                      00198 IDC_measure_6   code
                      00199 ; Fmeasure___str_6_0_0 == .
0000                  00200 ___str_6
0000   340D           00201         retlw 0x0d ; '.'
0001   340A           00202         retlw 0x0a ; '.'
gpasm-1.5.0 #1285 (Jul 12 2020) obj/sdcc-16f8   11/12/23  13:12:30          PAGE  5


LOC    OBJECT CODE    LINE  SOURCE TEXT
  VALUE

0002   3446           00203         retlw 0x46 ; 'F'
0003   3431           00204         retlw 0x31 ; '1'
0004   343D           00205         retlw 0x3d ; '='
0005   3400           00206         retlw 0x00 ; '.'
                      00207 
                      00208 IDC_measure_7   code
                      00209 ; Fmeasure___str_7_0_0 == .
0000                  00210 ___str_7
0000   340D           00211         retlw 0x0d ; '.'
0001   340A           00212         retlw 0x0a ; '.'
0002   3446           00213         retlw 0x46 ; 'F'
0003   3432           00214         retlw 0x32 ; '2'
0004   343D           00215         retlw 0x3d ; '='
0005   3400           00216         retlw 0x00 ; '.'
                      00217 
                      00218 IDC_measure_8   code
                      00219 ; Fmeasure___str_8_0_0 == .
0000                  00220 ___str_8
0000   340D           00221         retlw 0x0d ; '.'
0001   340A           00222         retlw 0x0a ; '.'
0002   3446           00223         retlw 0x46 ; 'F'
0003   3433           00224         retlw 0x33 ; '3'
0004   343D           00225         retlw 0x3d ; '='
0005   3400           00226         retlw 0x00 ; '.'
                      00227 
                      00228 IDC_measure_9   code
                      00229 ; Fmeasure___str_9_0_0 == .
0000                  00230 ___str_9
0000   340D           00231         retlw 0x0d ; '.'
0001   340A           00232         retlw 0x0a ; '.'
0002   3443           00233         retlw 0x43 ; 'C'
0003   3443           00234         retlw 0x43 ; 'C'
0004   3461           00235         retlw 0x61 ; 'a'
0005   346C           00236         retlw 0x6c ; 'l'
0006   343D           00237         retlw 0x3d ; '='
0007   3400           00238         retlw 0x00 ; '.'
                      00239 
                      00240 IDC_measure_10  code
                      00241 ; Fmeasure___str_10_0_0 == .
0000                  00242 ___str_10
0000   3443           00243         retlw 0x43 ; 'C'
0001   3469           00244         retlw 0x69 ; 'i'
0002   346E           00245         retlw 0x6e ; 'n'
0003   343D           00246         retlw 0x3d ; '='
0004   3400           00247         retlw 0x00 ; '.'
                      00248 
                      00249 IDC_measure_11  code
                      00250 ; Fmeasure___str_11_0_0 == .
0000                  00251 ___str_11
0000   3449           00252         retlw 0x49 ; 'I'
0001   346E           00253         retlw 0x6e ; 'n'
0002   3464           00254         retlw 0x64 ; 'd'
0003   3475           00255         retlw 0x75 ; 'u'
gpasm-1.5.0 #1285 (Jul 12 2020) obj/sdcc-16f8   11/12/23  13:12:30          PAGE  6


LOC    OBJECT CODE    LINE  SOURCE TEXT
  VALUE

0004   3463           00256         retlw 0x63 ; 'c'
0005   3474           00257         retlw 0x74 ; 't'
0006   3469           00258         retlw 0x69 ; 'i'
0007   3476           00259         retlw 0x76 ; 'v'
0008   3469           00260         retlw 0x69 ; 'i'
0009   3474           00261         retlw 0x74 ; 't'
000A   3479           00262         retlw 0x79 ; 'y'
000B   3420           00263         retlw 0x20 ; ' '
000C   3400           00264         retlw 0x00 ; '.'
                      00265 ;--------------------------------------------------------
                      00266 ; initialized absolute data
                      00267 ;--------------------------------------------------------
                      00268 ;--------------------------------------------------------
                      00269 ; overlayable items in internal ram 
                      00270 ;--------------------------------------------------------
                      00271 ;       udata_ovr
                      00272 ;--------------------------------------------------------
                      00273 ; code
                      00274 ;--------------------------------------------------------
                      00275 code_measure    code
                      00276 ;***
                      00277 ;  pBlock Stats: dbName = C
                      00278 ;***
                      00279 ;has an exit
                      00280 ;functions called:
                      00281 ;   _lcd_gotoxy
                      00282 ;   _put_str
                      00283 ;   _measure_freq
                      00284 ;   ___uint2fs
                      00285 ;   ___fslt
                      00286 ;   ___fsmul
                      00287 ;   ___fsmul
                      00288 ;   ___fssub
                      00289 ;   ___fsmul
                      00290 ;   ___fsmul
                      00291 ;   ___fsmul
                      00292 ;   ___fsmul
                      00293 ;   ___fsmul
                      00294 ;   ___fsmul
                      00295 ;   ___fsmul
                      00296 ;   ___fsmul
                      00297 ;   ___fsmul
                      00298 ;   ___fsdiv
                      00299 ;   ___fsmul
                      00300 ;   ___fslt
                      00301 ;   ___fslt
                      00302 ;   ___fslt
                      00303 ;   ___fsdiv
                      00304 ;   ___fsdiv
                      00305 ;   ___fsdiv
                      00306 ;   ___fsmul
                      00307 ;   ___fs2uint
                      00308 ;   _print_reading
gpasm-1.5.0 #1285 (Jul 12 2020) obj/sdcc-16f8   11/12/23  13:12:30          PAGE  7


LOC    OBJECT CODE    LINE  SOURCE TEXT
  VALUE

                      00309 ;   _print_unit
                      00310 ;   _lcd_gotoxy
                      00311 ;   _put_str
                      00312 ;   _measure_freq
                      00313 ;   ___uint2fs
                      00314 ;   ___fslt
                      00315 ;   ___fsmul
                      00316 ;   ___fsmul
                      00317 ;   ___fssub
                      00318 ;   ___fsmul
                      00319 ;   ___fsmul
                      00320 ;   ___fsmul
                      00321 ;   ___fsmul
                      00322 ;   ___fsmul
                      00323 ;   ___fsmul
                      00324 ;   ___fsmul
                      00325 ;   ___fsmul
                      00326 ;   ___fsmul
                      00327 ;   ___fsdiv
                      00328 ;   ___fsmul
                      00329 ;   ___fslt
                      00330 ;   ___fslt
                      00331 ;   ___fslt
                      00332 ;   ___fsdiv
                      00333 ;   ___fsdiv
                      00334 ;   ___fsdiv
                      00335 ;   ___fsmul
                      00336 ;   ___fs2uint
                      00337 ;   _print_reading
                      00338 ;   _print_unit
                      00339 ;15 compiler assigned registers:
                      00340 ;   STK00
                      00341 ;   r0x102A
                      00342 ;   r0x102B
                      00343 ;   r0x102C
                      00344 ;   STK01
                      00345 ;   STK02
                      00346 ;   STK06
                      00347 ;   STK05
                      00348 ;   STK04
                      00349 ;   STK03
                      00350 ;   r0x102D
                      00351 ;   r0x102E
                      00352 ;   r0x102F
                      00353 ;   r0x1030
                      00354 ;   r0x1031
                      00355 ;; Starting pCode block
                      00356 ;;; ../../../../src/pic14/gen.c:2358:resultRemat *{*
                      00357 ;;; ../../../../src/pic14/gen.c:2802:genLabel *{*
                      00358 ;; ***  genLabel  2805
                      00359 ;;; ../../../../src/pic14/gen.c:2358:resultRemat *{*
                      00360 ;;; ../../../../src/pic14/gen.c:2382:genFunction *{*
                      00361 ;; ***  genFunction  2384 curr label offset=18previous max_key=11 
gpasm-1.5.0 #1285 (Jul 12 2020) obj/sdcc-16f8   11/12/23  13:12:30          PAGE  8


LOC    OBJECT CODE    LINE  SOURCE TEXT
  VALUE

                      00362 S_measure__measure_inductance   code
0000                  00363 _measure_inductance:
                      00364 ; 2 exit points
                      00365 ;;; ../../../../src/pic14/gen.c:2358:resultRemat *{*
                      00366 ;;; ../../../../src/pic14/gen.c:2358:resultRemat *{*
                      00367 ;;; ../../../../src/pic14/gen.c:2358:resultRemat *{*
                      00368 ;;; ../../../../src/pic14/gen.c:2108:genCall *{*
                      00369 ;; ***  genCall  2110
                      00370 ;;      2158 left AOP_LIT
                      00371 ;;; ../../../../src/pic14/gen.c:1357:mov2w_op *{*
                      00372 ;; >>> ../../../../src/pic14/gen.c:1375:mov2w_op
                      00373         .line   225; "src/measure.c"    lcd_gotoxy(0, 0);
0000   3000           00374         MOVLW   0x00
                      00375 ;;      2158 left AOP_LIT
                      00376 ;; >>> ../../../../src/pic14/gen.c:2166:genCall
                      00377 ;; ***  popRegFromIdx,1059  , rIdx=0x7f
0001   00??           00378         MOVWF   STK00
                      00379 ;;; ../../../../src/pic14/gen.c:1357:mov2w_op *{*
                      00380 ;; >>> ../../../../src/pic14/gen.c:1375:mov2w_op
0002   3000           00381         MOVLW   0x00
                      00382 ;; >>> ../../../../src/pic14/gen.c:2207:genCall
0003   0??? 0???      00383         PAGESEL _lcd_gotoxy
                      00384 ;; >>> ../../../../src/pic14/gen.c:2215:genCall
0005   2???           00385         CALL    _lcd_gotoxy
                      00386 ;; >>> ../../../../src/pic14/gen.c:2223:genCall
0006   0??? 0???      00387         PAGESEL $
                      00388 ;;; ../../../../src/pic14/gen.c:2358:resultRemat *{*
                      00389 ;;; ../../../../src/pic14/gen.c:2358:resultRemat *{*
                      00390 ;;; ../../../../src/pic14/gen.c:7353:genCast *{*
                      00391 ;; ***  genCast  7354
                      00392 ;;      627
                      00393 ;;      aopForRemat 406
                      00394 ;;      432: rname ___str_11, val 0, const = 0
                      00395 ;;      708 register type nRegs=3
                      00396 ;;      837: aopGet AOP_PCODE type PO_IMMEDIATE
                      00397 ;;      ___str_11
                      00398 ;;      line = 7362 result AOP_REG=r0x1065, size=3, left -=-, size=0, right AOP_PCODE=___str_11, size=2
                      00399 ;; ***  genCast  7408 (size=2)
                      00400 ;;; ../../../../src/pic14/gen.c:1357:mov2w_op *{*
                      00401 ;; >>> ../../../../src/pic14/gen.c:1375:mov2w_op
                      00402         .line   226; "src/measure.c"    put_str("Inductivity ");
0008   30??           00403         MOVLW   high (___str_11 + 0)
                      00404 ;; >>> ../../../../src/pic14/gen.c:1407:movwf
                      00405 ;;      1126 rIdx = r0x1066 
0009   0??? 0???      00406         BANKSEL r0x102A
000B   00??           00407         MOVWF   r0x102A
                      00408 ;;; ../../../../src/pic14/gen.c:1357:mov2w_op *{*
                      00409 ;; >>> ../../../../src/pic14/gen.c:1375:mov2w_op
000C   30??           00410         MOVLW   (___str_11 + 0)
                      00411 ;; >>> ../../../../src/pic14/gen.c:1407:movwf
                      00412 ;;      1126 rIdx = r0x1065 
000D   00??           00413         MOVWF   r0x102B
                      00414 ;; ***  genCast  7465 (tag=128)
gpasm-1.5.0 #1285 (Jul 12 2020) obj/sdcc-16f8   11/12/23  13:12:30          PAGE  9


LOC    OBJECT CODE    LINE  SOURCE TEXT
  VALUE

                      00415 ;; >>> ../../../../src/pic14/gen.c:7488:genCast
000E   3080           00416         MOVLW   0x80
                      00417 ;; >>> ../../../../src/pic14/gen.c:1407:movwf
                      00418 ;;      1126 rIdx = r0x1067 
000F   00??           00419         MOVWF   r0x102C
                      00420 ;; ***  addSign  1087
                      00421 ;;; ../../../../src/pic14/genarith.c:1088:addSign *{*
                      00422 ;;; ../../../../src/pic14/gen.c:2358:resultRemat *{*
                      00423 ;;; ../../../../src/pic14/gen.c:2358:resultRemat *{*
                      00424 ;;; ../../../../src/pic14/gen.c:2108:genCall *{*
                      00425 ;; ***  genCall  2110
                      00426 ;;      708 register type nRegs=3
                      00427 ;;      708 register type nRegs=3
                      00428 ;;      2158 left AOP_REG
                      00429 ;;; ../../../../src/pic14/gen.c:1357:mov2w_op *{*
                      00430 ;; ***  mov2w  1395  offset=0
                      00431 ;; >>> ../../../../src/pic14/gen.c:1400:mov2w
                      00432 ;;      1126 rIdx = r0x1065 
0010   08??           00433         MOVF    r0x102B,W
                      00434 ;;      2158 left AOP_REG
                      00435 ;; >>> ../../../../src/pic14/gen.c:2166:genCall
                      00436 ;; ***  popRegFromIdx,1059  , rIdx=0x7e
0011   00??           00437         MOVWF   STK01
                      00438 ;;; ../../../../src/pic14/gen.c:1357:mov2w_op *{*
                      00439 ;; ***  mov2w  1395  offset=1
                      00440 ;; >>> ../../../../src/pic14/gen.c:1400:mov2w
                      00441 ;;      1126 rIdx = r0x1066 
0012   08??           00442         MOVF    r0x102A,W
                      00443 ;;      2158 left AOP_REG
                      00444 ;; >>> ../../../../src/pic14/gen.c:2166:genCall
                      00445 ;; ***  popRegFromIdx,1059  , rIdx=0x7f
0013   00??           00446         MOVWF   STK00
                      00447 ;;; ../../../../src/pic14/gen.c:1357:mov2w_op *{*
                      00448 ;; ***  mov2w  1395  offset=2
                      00449 ;; >>> ../../../../src/pic14/gen.c:1400:mov2w
                      00450 ;;      1126 rIdx = r0x1067 
0014   08??           00451         MOVF    r0x102C,W
                      00452 ;; >>> ../../../../src/pic14/gen.c:2207:genCall
0015   0??? 0???      00453         PAGESEL _put_str
                      00454 ;; >>> ../../../../src/pic14/gen.c:2215:genCall
0017   2???           00455         CALL    _put_str
                      00456 ;; >>> ../../../../src/pic14/gen.c:2223:genCall
0018   0??? 0???      00457         PAGESEL $
                      00458 ;;; ../../../../src/pic14/gen.c:2358:resultRemat *{*
                      00459 ;;; ../../../../src/pic14/gen.c:2108:genCall *{*
                      00460 ;; ***  genCall  2110
                      00461 ;; >>> ../../../../src/pic14/gen.c:2207:genCall
                      00462         .line   228; "src/measure.c"    var = measure_freq();
001A   0??? 0???      00463         PAGESEL _measure_freq
                      00464 ;; >>> ../../../../src/pic14/gen.c:2215:genCall
001C   2???           00465         CALL    _measure_freq
                      00466 ;; >>> ../../../../src/pic14/gen.c:2223:genCall
001D   0??? 0???      00467         PAGESEL $
gpasm-1.5.0 #1285 (Jul 12 2020) obj/sdcc-16f8   11/12/23  13:12:30          PAGE 10


LOC    OBJECT CODE    LINE  SOURCE TEXT
  VALUE

                      00468 ;;      708 register type nRegs=2
                      00469 ;;; ../../../../src/pic14/gen.c:1929:assignResultValue *{*
                      00470 ;; ***  assignResultValue  1931
                      00471 ;;      line = 1933 result -=-, size=0, left AOP_REG=r0x1065, size=2, right -=-, size=0
                      00472 ;; >>> ../../../../src/pic14/gen.c:1407:movwf
                      00473 ;;      1126 rIdx = r0x1066 
001F   0??? 0???      00474         BANKSEL r0x102A
0021   00??           00475         MOVWF   r0x102A
                      00476 ;; >>> ../../../../src/pic14/gen.c:1437:get_returnvalue
                      00477 ;; ***  popRegFromIdx,1059  , rIdx=0x7f
0022   08??           00478         MOVF    STK00,W
                      00479 ;; >>> ../../../../src/pic14/gen.c:1407:movwf
                      00480 ;;      1126 rIdx = r0x1065 
                      00481         .line   230; "src/measure.c"    F3 = (double)var;
0023   00??           00482         MOVWF   r0x102B
0024   00??           00483         MOVWF   STK00
                      00484 ;;; ../../../../src/pic14/gen.c:1357:mov2w_op *{*
                      00485 ;; ***  mov2w  1395  offset=1
                      00486 ;; >>> ../../../../src/pic14/gen.c:1400:mov2w
                      00487 ;;      1126 rIdx = r0x1066 
0025   08??           00488         MOVF    r0x102A,W
                      00489 ;; >>> ../../../../src/pic14/gen.c:2207:genCall
0026   0??? 0???      00490         PAGESEL ___uint2fs
                      00491 ;; >>> ../../../../src/pic14/gen.c:2215:genCall
0028   2???           00492         CALL    ___uint2fs
                      00493 ;; >>> ../../../../src/pic14/gen.c:2223:genCall
0029   0??? 0???      00494         PAGESEL $
                      00495 ;; ***  aopForSym 324
                      00496 ;;      336 sym->rname = _F3, size = 4
                      00497 ;;; ../../../../src/pic14/gen.c:1929:assignResultValue *{*
                      00498 ;; ***  assignResultValue  1931
                      00499 ;;      line = 1933 result -=-, size=0, left AOP_DIR=_F3, size=4, right -=-, size=0
                      00500 ;; >>> ../../../../src/pic14/gen.c:1407:movwf
                      00501 ;;      1027
                      00502 ;;      1045  _F3   offset=3
002B   0??? 0???      00503         BANKSEL _F3
002D   00??           00504         MOVWF   (_F3 + 3)
                      00505 ;; >>> ../../../../src/pic14/gen.c:1437:get_returnvalue
                      00506 ;; ***  popRegFromIdx,1059  , rIdx=0x7f
002E   08??           00507         MOVF    STK00,W
                      00508 ;; >>> ../../../../src/pic14/gen.c:1407:movwf
                      00509 ;;      1027
                      00510 ;;      1045  _F3   offset=2
002F   00??           00511         MOVWF   (_F3 + 2)
                      00512 ;; >>> ../../../../src/pic14/gen.c:1437:get_returnvalue
                      00513 ;; ***  popRegFromIdx,1059  , rIdx=0x7e
0030   08??           00514         MOVF    STK01,W
                      00515 ;; >>> ../../../../src/pic14/gen.c:1407:movwf
                      00516 ;;      1027
                      00517 ;;      1045  _F3   offset=1
0031   00??           00518         MOVWF   (_F3 + 1)
                      00519 ;; >>> ../../../../src/pic14/gen.c:1437:get_returnvalue
                      00520 ;; ***  popRegFromIdx,1059  , rIdx=0x7d
gpasm-1.5.0 #1285 (Jul 12 2020) obj/sdcc-16f8   11/12/23  13:12:30          PAGE 11


LOC    OBJECT CODE    LINE  SOURCE TEXT
  VALUE

0032   08??           00521         MOVF    STK02,W
                      00522 ;; >>> ../../../../src/pic14/gen.c:1407:movwf
                      00523 ;;      1027
                      00524 ;;      1045  _F3   offset=0
0033   00??           00525         MOVWF   _F3
                      00526 ;;      2238 left AOP_DIR
                      00527 ;;; ../../../../src/pic14/gen.c:2358:resultRemat *{*
                      00528 ;;; ../../../../src/pic14/gen.c:2358:resultRemat *{*
                      00529 ;;; ../../../../src/pic14/gen.c:2358:resultRemat *{*
                      00530 ;;; ../../../../src/pic14/gen.c:2108:genCall *{*
                      00531 ;; ***  genCall  2110
                      00532 ;; ***  aopForSym 324
                      00533 ;;      336 sym->rname = _F3, size = 4
                      00534 ;; ***  aopForSym 324
                      00535 ;;      336 sym->rname = _F1, size = 4
                      00536 ;; ***  aopForSym 324
                      00537 ;;      336 sym->rname = _F3, size = 4
                      00538 ;;      2158 left AOP_DIR
                      00539 ;;; ../../../../src/pic14/gen.c:1357:mov2w_op *{*
                      00540 ;; ***  mov2w  1395  offset=0
                      00541 ;; >>> ../../../../src/pic14/gen.c:1400:mov2w
                      00542 ;;      1027
                      00543 ;;      1045  _F3   offset=0
                      00544         .line   231; "src/measure.c"    if(F3 > F1)
0034   08??           00545         MOVF    _F3,W
                      00546 ;;      2158 left AOP_DIR
                      00547 ;; >>> ../../../../src/pic14/gen.c:2166:genCall
                      00548 ;; ***  popRegFromIdx,1059  , rIdx=0x79
0035   00??           00549         MOVWF   STK06
                      00550 ;;; ../../../../src/pic14/gen.c:1357:mov2w_op *{*
                      00551 ;; ***  mov2w  1395  offset=1
                      00552 ;; >>> ../../../../src/pic14/gen.c:1400:mov2w
                      00553 ;;      1027
                      00554 ;;      1045  _F3   offset=1
0036   08??           00555         MOVF    (_F3 + 1),W
                      00556 ;;      2158 left AOP_DIR
                      00557 ;; >>> ../../../../src/pic14/gen.c:2166:genCall
                      00558 ;; ***  popRegFromIdx,1059  , rIdx=0x7a
0037   00??           00559         MOVWF   STK05
                      00560 ;;; ../../../../src/pic14/gen.c:1357:mov2w_op *{*
                      00561 ;; ***  mov2w  1395  offset=2
                      00562 ;; >>> ../../../../src/pic14/gen.c:1400:mov2w
                      00563 ;;      1027
                      00564 ;;      1045  _F3   offset=2
0038   08??           00565         MOVF    (_F3 + 2),W
                      00566 ;;      2158 left AOP_DIR
                      00567 ;; >>> ../../../../src/pic14/gen.c:2166:genCall
                      00568 ;; ***  popRegFromIdx,1059  , rIdx=0x7b
0039   00??           00569         MOVWF   STK04
                      00570 ;;; ../../../../src/pic14/gen.c:1357:mov2w_op *{*
                      00571 ;; ***  mov2w  1395  offset=3
                      00572 ;; >>> ../../../../src/pic14/gen.c:1400:mov2w
                      00573 ;;      1027
gpasm-1.5.0 #1285 (Jul 12 2020) obj/sdcc-16f8   11/12/23  13:12:30          PAGE 12


LOC    OBJECT CODE    LINE  SOURCE TEXT
  VALUE

                      00574 ;;      1045  _F3   offset=3
003A   08??           00575         MOVF    (_F3 + 3),W
                      00576 ;; ***  aopForSym 324
                      00577 ;;      336 sym->rname = _F1, size = 4
                      00578 ;;      2158 left AOP_DIR
                      00579 ;; >>> ../../../../src/pic14/gen.c:2166:genCall
                      00580 ;; ***  popRegFromIdx,1059  , rIdx=0x7c
003B   00??           00581         MOVWF   STK03
                      00582 ;;; ../../../../src/pic14/gen.c:1357:mov2w_op *{*
                      00583 ;; ***  mov2w  1395  offset=0
                      00584 ;; >>> ../../../../src/pic14/gen.c:1400:mov2w
                      00585 ;;      1027
                      00586 ;;      1045  _F1   offset=0
003C   0??? 0???      00587         BANKSEL _F1
003E   08??           00588         MOVF    _F1,W
                      00589 ;;      2158 left AOP_DIR
                      00590 ;; >>> ../../../../src/pic14/gen.c:2166:genCall
                      00591 ;; ***  popRegFromIdx,1059  , rIdx=0x7d
003F   00??           00592         MOVWF   STK02
                      00593 ;;; ../../../../src/pic14/gen.c:1357:mov2w_op *{*
                      00594 ;; ***  mov2w  1395  offset=1
                      00595 ;; >>> ../../../../src/pic14/gen.c:1400:mov2w
                      00596 ;;      1027
                      00597 ;;      1045  _F1   offset=1
0040   08??           00598         MOVF    (_F1 + 1),W
                      00599 ;;      2158 left AOP_DIR
                      00600 ;; >>> ../../../../src/pic14/gen.c:2166:genCall
                      00601 ;; ***  popRegFromIdx,1059  , rIdx=0x7e
0041   00??           00602         MOVWF   STK01
                      00603 ;;; ../../../../src/pic14/gen.c:1357:mov2w_op *{*
                      00604 ;; ***  mov2w  1395  offset=2
                      00605 ;; >>> ../../../../src/pic14/gen.c:1400:mov2w
                      00606 ;;      1027
                      00607 ;;      1045  _F1   offset=2
0042   08??           00608         MOVF    (_F1 + 2),W
                      00609 ;;      2158 left AOP_DIR
                      00610 ;; >>> ../../../../src/pic14/gen.c:2166:genCall
                      00611 ;; ***  popRegFromIdx,1059  , rIdx=0x7f
0043   00??           00612         MOVWF   STK00
                      00613 ;;; ../../../../src/pic14/gen.c:1357:mov2w_op *{*
                      00614 ;; ***  mov2w  1395  offset=3
                      00615 ;; >>> ../../../../src/pic14/gen.c:1400:mov2w
                      00616 ;;      1027
                      00617 ;;      1045  _F1   offset=3
0044   08??           00618         MOVF    (_F1 + 3),W
                      00619 ;; >>> ../../../../src/pic14/gen.c:2207:genCall
0045   0??? 0???      00620         PAGESEL ___fslt
                      00621 ;; >>> ../../../../src/pic14/gen.c:2215:genCall
0047   2???           00622         CALL    ___fslt
                      00623 ;; >>> ../../../../src/pic14/gen.c:2223:genCall
0048   0??? 0???      00624         PAGESEL $
                      00625 ;;      708 register type nRegs=1
                      00626 ;;; ../../../../src/pic14/gen.c:1929:assignResultValue *{*
gpasm-1.5.0 #1285 (Jul 12 2020) obj/sdcc-16f8   11/12/23  13:12:30          PAGE 13


LOC    OBJECT CODE    LINE  SOURCE TEXT
  VALUE

                      00627 ;; ***  assignResultValue  1931
                      00628 ;;      line = 1933 result -=-, size=0, left AOP_REG=r0x1065, size=1, right -=-, size=0
                      00629 ;; >>> ../../../../src/pic14/gen.c:1407:movwf
                      00630 ;;      1126 rIdx = r0x1065 
004A   0??? 0???      00631         BANKSEL r0x102B
004C   00??           00632         MOVWF   r0x102B
                      00633 ;;      2238 left AOP_REG
                      00634 ;;; ../../../../src/pic14/gen.c:2358:resultRemat *{*
                      00635 ;;; ../../../../src/pic14/gen.c:6991:genIfx *{*
                      00636 ;; ***  genIfx  6992
                      00637 ;;      708 register type nRegs=1
                      00638 ;; ***  pic14_toBoolean  1515
                      00639 ;; ***  mov2w  1395  offset=0
                      00640 ;; >>> ../../../../src/pic14/gen.c:1400:mov2w
                      00641 ;;      1126 rIdx = r0x1065 
004D   08??           00642         MOVF    r0x102B,W
                      00643 ;; >>> ../../../../src/pic14/gen.c:7045:genIfx
004E   1903           00644         BTFSC   STATUS,2
                      00645 ;; >>> ../../../../src/pic14/gen.c:7046:genIfx
                      00646 ;; ***  popGetLabel  key=2, label offset 33
004F   2???           00647         GOTO    _00135_DS_
                      00648 ;;; ../../../../src/pic14/gen.c:2358:resultRemat *{*
                      00649 ;;; ../../../../src/pic14/gen.c:7159:genAssign *{*
                      00650 ;; ***  genAssign  7160
                      00651 ;; ***  aopForSym 324
                      00652 ;;      336 sym->rname = _F1, size = 4
                      00653 ;; ***  aopForSym 324
                      00654 ;;      336 sym->rname = _F3, size = 4
                      00655 ;;      line = 7169 result AOP_DIR=_F3, size=4, left -=-, size=0, right AOP_DIR=_F1, size=4
                      00656 ;; ***  genAssign  7253
                      00657 ;;; ../../../../src/pic14/gen.c:1357:mov2w_op *{*
                      00658 ;; ***  mov2w  1395  offset=0
                      00659 ;; >>> ../../../../src/pic14/gen.c:1400:mov2w
                      00660 ;;      1027
                      00661 ;;      1045  _F1   offset=0
                      00662         .line   232; "src/measure.c"    F3 = F1; // max freq is F1;
0050   0??? 0???      00663         BANKSEL _F1
0052   08??           00664         MOVF    _F1,W
                      00665 ;; >>> ../../../../src/pic14/gen.c:7280:genAssign
                      00666 ;;      1027
                      00667 ;;      1045  _F3   offset=0
0053   0??? 0???      00668         BANKSEL _F3
0055   00??           00669         MOVWF   _F3
                      00670 ;; ***  genAssign  7253
                      00671 ;;; ../../../../src/pic14/gen.c:1357:mov2w_op *{*
                      00672 ;; ***  mov2w  1395  offset=1
                      00673 ;; >>> ../../../../src/pic14/gen.c:1400:mov2w
                      00674 ;;      1027
                      00675 ;;      1045  _F1   offset=1
0056   0??? 0???      00676         BANKSEL _F1
0058   08??           00677         MOVF    (_F1 + 1),W
                      00678 ;; >>> ../../../../src/pic14/gen.c:7280:genAssign
                      00679 ;;      1027
gpasm-1.5.0 #1285 (Jul 12 2020) obj/sdcc-16f8   11/12/23  13:12:30          PAGE 14


LOC    OBJECT CODE    LINE  SOURCE TEXT
  VALUE

                      00680 ;;      1045  _F3   offset=1
0059   0??? 0???      00681         BANKSEL _F3
005B   00??           00682         MOVWF   (_F3 + 1)
                      00683 ;; ***  genAssign  7253
                      00684 ;;; ../../../../src/pic14/gen.c:1357:mov2w_op *{*
                      00685 ;; ***  mov2w  1395  offset=2
                      00686 ;; >>> ../../../../src/pic14/gen.c:1400:mov2w
                      00687 ;;      1027
                      00688 ;;      1045  _F1   offset=2
005C   0??? 0???      00689         BANKSEL _F1
005E   08??           00690         MOVF    (_F1 + 2),W
                      00691 ;; >>> ../../../../src/pic14/gen.c:7280:genAssign
                      00692 ;;      1027
                      00693 ;;      1045  _F3   offset=2
005F   0??? 0???      00694         BANKSEL _F3
0061   00??           00695         MOVWF   (_F3 + 2)
                      00696 ;; ***  genAssign  7253
                      00697 ;;; ../../../../src/pic14/gen.c:1357:mov2w_op *{*
                      00698 ;; ***  mov2w  1395  offset=3
                      00699 ;; >>> ../../../../src/pic14/gen.c:1400:mov2w
                      00700 ;;      1027
                      00701 ;;      1045  _F1   offset=3
0062   0??? 0???      00702         BANKSEL _F1
0064   08??           00703         MOVF    (_F1 + 3),W
                      00704 ;; >>> ../../../../src/pic14/gen.c:7280:genAssign
                      00705 ;;      1027
                      00706 ;;      1045  _F3   offset=3
0065   0??? 0???      00707         BANKSEL _F3
0067   00??           00708         MOVWF   (_F3 + 3)
                      00709 ;;; ../../../../src/pic14/gen.c:2358:resultRemat *{*
                      00710 ;;; ../../../../src/pic14/gen.c:2802:genLabel *{*
                      00711 ;; ***  genLabel  2805
                      00712 ;;; ../../../../src/pic14/gen.c:2358:resultRemat *{*
                      00713 ;;; ../../../../src/pic14/gen.c:2358:resultRemat *{*
                      00714 ;;; ../../../../src/pic14/gen.c:2358:resultRemat *{*
                      00715 ;;; ../../../../src/pic14/gen.c:2108:genCall *{*
                      00716 ;; ***  genCall  2110
                      00717 ;; ***  aopForSym 324
                      00718 ;;      336 sym->rname = _F1, size = 4
                      00719 ;; ***  aopForSym 324
                      00720 ;;      336 sym->rname = _F1, size = 4
                      00721 ;; ***  aopForSym 324
                      00722 ;;      336 sym->rname = _F1, size = 4
                      00723 ;;      2158 left AOP_DIR
                      00724 ;;; ../../../../src/pic14/gen.c:1357:mov2w_op *{*
                      00725 ;; ***  mov2w  1395  offset=0
                      00726 ;; >>> ../../../../src/pic14/gen.c:1400:mov2w
                      00727 ;;      1027
                      00728 ;;      1045  _F1   offset=0
0068                  00729 _00135_DS_:
                      00730         .line   233; "src/measure.c"    numerator = ((F1 * F1) - (F3 * F3)) * ((F1 * F1) - (F2 - F2)) * 
                            (GATE_PERIOD * GATE_PERIOD);
0068   0??? 0???      00731         BANKSEL _F1
gpasm-1.5.0 #1285 (Jul 12 2020) obj/sdcc-16f8   11/12/23  13:12:30          PAGE 15


LOC    OBJECT CODE    LINE  SOURCE TEXT
  VALUE

006A   08??           00732         MOVF    _F1,W
                      00733 ;;      2158 left AOP_DIR
                      00734 ;; >>> ../../../../src/pic14/gen.c:2166:genCall
                      00735 ;; ***  popRegFromIdx,1059  , rIdx=0x79
006B   00??           00736         MOVWF   STK06
                      00737 ;;; ../../../../src/pic14/gen.c:1357:mov2w_op *{*
                      00738 ;; ***  mov2w  1395  offset=1
                      00739 ;; >>> ../../../../src/pic14/gen.c:1400:mov2w
                      00740 ;;      1027
                      00741 ;;      1045  _F1   offset=1
006C   08??           00742         MOVF    (_F1 + 1),W
                      00743 ;;      2158 left AOP_DIR
                      00744 ;; >>> ../../../../src/pic14/gen.c:2166:genCall
                      00745 ;; ***  popRegFromIdx,1059  , rIdx=0x7a
006D   00??           00746         MOVWF   STK05
                      00747 ;;; ../../../../src/pic14/gen.c:1357:mov2w_op *{*
                      00748 ;; ***  mov2w  1395  offset=2
                      00749 ;; >>> ../../../../src/pic14/gen.c:1400:mov2w
                      00750 ;;      1027
                      00751 ;;      1045  _F1   offset=2
006E   08??           00752         MOVF    (_F1 + 2),W
                      00753 ;;      2158 left AOP_DIR
                      00754 ;; >>> ../../../../src/pic14/gen.c:2166:genCall
                      00755 ;; ***  popRegFromIdx,1059  , rIdx=0x7b
006F   00??           00756         MOVWF   STK04
                      00757 ;;; ../../../../src/pic14/gen.c:1357:mov2w_op *{*
                      00758 ;; ***  mov2w  1395  offset=3
                      00759 ;; >>> ../../../../src/pic14/gen.c:1400:mov2w
                      00760 ;;      1027
                      00761 ;;      1045  _F1   offset=3
0070   08??           00762         MOVF    (_F1 + 3),W
                      00763 ;; ***  aopForSym 324
                      00764 ;;      336 sym->rname = _F1, size = 4
                      00765 ;;      2158 left AOP_DIR
                      00766 ;; >>> ../../../../src/pic14/gen.c:2166:genCall
                      00767 ;; ***  popRegFromIdx,1059  , rIdx=0x7c
0071   00??           00768         MOVWF   STK03
                      00769 ;;; ../../../../src/pic14/gen.c:1357:mov2w_op *{*
                      00770 ;; ***  mov2w  1395  offset=0
                      00771 ;; >>> ../../../../src/pic14/gen.c:1400:mov2w
                      00772 ;;      1027
                      00773 ;;      1045  _F1   offset=0
0072   08??           00774         MOVF    _F1,W
                      00775 ;;      2158 left AOP_DIR
                      00776 ;; >>> ../../../../src/pic14/gen.c:2166:genCall
                      00777 ;; ***  popRegFromIdx,1059  , rIdx=0x7d
0073   00??           00778         MOVWF   STK02
                      00779 ;;; ../../../../src/pic14/gen.c:1357:mov2w_op *{*
                      00780 ;; ***  mov2w  1395  offset=1
                      00781 ;; >>> ../../../../src/pic14/gen.c:1400:mov2w
                      00782 ;;      1027
                      00783 ;;      1045  _F1   offset=1
0074   08??           00784         MOVF    (_F1 + 1),W
gpasm-1.5.0 #1285 (Jul 12 2020) obj/sdcc-16f8   11/12/23  13:12:30          PAGE 16


LOC    OBJECT CODE    LINE  SOURCE TEXT
  VALUE

                      00785 ;;      2158 left AOP_DIR
                      00786 ;; >>> ../../../../src/pic14/gen.c:2166:genCall
                      00787 ;; ***  popRegFromIdx,1059  , rIdx=0x7e
0075   00??           00788         MOVWF   STK01
                      00789 ;;; ../../../../src/pic14/gen.c:1357:mov2w_op *{*
                      00790 ;; ***  mov2w  1395  offset=2
                      00791 ;; >>> ../../../../src/pic14/gen.c:1400:mov2w
                      00792 ;;      1027
                      00793 ;;      1045  _F1   offset=2
0076   08??           00794         MOVF    (_F1 + 2),W
                      00795 ;;      2158 left AOP_DIR
                      00796 ;; >>> ../../../../src/pic14/gen.c:2166:genCall
                      00797 ;; ***  popRegFromIdx,1059  , rIdx=0x7f
0077   00??           00798         MOVWF   STK00
                      00799 ;;; ../../../../src/pic14/gen.c:1357:mov2w_op *{*
                      00800 ;; ***  mov2w  1395  offset=3
                      00801 ;; >>> ../../../../src/pic14/gen.c:1400:mov2w
                      00802 ;;      1027
                      00803 ;;      1045  _F1   offset=3
0078   08??           00804         MOVF    (_F1 + 3),W
                      00805 ;; >>> ../../../../src/pic14/gen.c:2207:genCall
0079   0??? 0???      00806         PAGESEL ___fsmul
                      00807 ;; >>> ../../../../src/pic14/gen.c:2215:genCall
007B   2???           00808         CALL    ___fsmul
                      00809 ;; >>> ../../../../src/pic14/gen.c:2223:genCall
007C   0??? 0???      00810         PAGESEL $
                      00811 ;;      708 register type nRegs=4
                      00812 ;;; ../../../../src/pic14/gen.c:1929:assignResultValue *{*
                      00813 ;; ***  assignResultValue  1931
                      00814 ;;      line = 1933 result -=-, size=0, left AOP_REG=r0x1065, size=4, right -=-, size=0
                      00815 ;; >>> ../../../../src/pic14/gen.c:1407:movwf
                      00816 ;;      1126 rIdx = r0x1068 
007E   0??? 0???      00817         BANKSEL r0x102D
0080   00??           00818         MOVWF   r0x102D
                      00819 ;; >>> ../../../../src/pic14/gen.c:1437:get_returnvalue
                      00820 ;; ***  popRegFromIdx,1059  , rIdx=0x7f
0081   08??           00821         MOVF    STK00,W
                      00822 ;; >>> ../../../../src/pic14/gen.c:1407:movwf
                      00823 ;;      1126 rIdx = r0x1067 
0082   00??           00824         MOVWF   r0x102C
                      00825 ;; >>> ../../../../src/pic14/gen.c:1437:get_returnvalue
                      00826 ;; ***  popRegFromIdx,1059  , rIdx=0x7e
0083   08??           00827         MOVF    STK01,W
                      00828 ;; >>> ../../../../src/pic14/gen.c:1407:movwf
                      00829 ;;      1126 rIdx = r0x1066 
0084   00??           00830         MOVWF   r0x102A
                      00831 ;; >>> ../../../../src/pic14/gen.c:1437:get_returnvalue
                      00832 ;; ***  popRegFromIdx,1059  , rIdx=0x7d
0085   08??           00833         MOVF    STK02,W
                      00834 ;; >>> ../../../../src/pic14/gen.c:1407:movwf
                      00835 ;;      1126 rIdx = r0x1065 
0086   00??           00836         MOVWF   r0x102B
                      00837 ;;      2238 left AOP_REG
gpasm-1.5.0 #1285 (Jul 12 2020) obj/sdcc-16f8   11/12/23  13:12:30          PAGE 17


LOC    OBJECT CODE    LINE  SOURCE TEXT
  VALUE

                      00838 ;;; ../../../../src/pic14/gen.c:2358:resultRemat *{*
                      00839 ;;; ../../../../src/pic14/gen.c:2358:resultRemat *{*
                      00840 ;;; ../../../../src/pic14/gen.c:2358:resultRemat *{*
                      00841 ;;; ../../../../src/pic14/gen.c:2108:genCall *{*
                      00842 ;; ***  genCall  2110
                      00843 ;; ***  aopForSym 324
                      00844 ;;      336 sym->rname = _F3, size = 4
                      00845 ;; ***  aopForSym 324
                      00846 ;;      336 sym->rname = _F3, size = 4
                      00847 ;; ***  aopForSym 324
                      00848 ;;      336 sym->rname = _F3, size = 4
                      00849 ;;      2158 left AOP_DIR
                      00850 ;;; ../../../../src/pic14/gen.c:1357:mov2w_op *{*
                      00851 ;; ***  mov2w  1395  offset=0
                      00852 ;; >>> ../../../../src/pic14/gen.c:1400:mov2w
                      00853 ;;      1027
                      00854 ;;      1045  _F3   offset=0
0087   0??? 0???      00855         BANKSEL _F3
0089   08??           00856         MOVF    _F3,W
                      00857 ;;      2158 left AOP_DIR
                      00858 ;; >>> ../../../../src/pic14/gen.c:2166:genCall
                      00859 ;; ***  popRegFromIdx,1059  , rIdx=0x79
008A   00??           00860         MOVWF   STK06
                      00861 ;;; ../../../../src/pic14/gen.c:1357:mov2w_op *{*
                      00862 ;; ***  mov2w  1395  offset=1
                      00863 ;; >>> ../../../../src/pic14/gen.c:1400:mov2w
                      00864 ;;      1027
                      00865 ;;      1045  _F3   offset=1
008B   08??           00866         MOVF    (_F3 + 1),W
                      00867 ;;      2158 left AOP_DIR
                      00868 ;; >>> ../../../../src/pic14/gen.c:2166:genCall
                      00869 ;; ***  popRegFromIdx,1059  , rIdx=0x7a
008C   00??           00870         MOVWF   STK05
                      00871 ;;; ../../../../src/pic14/gen.c:1357:mov2w_op *{*
                      00872 ;; ***  mov2w  1395  offset=2
                      00873 ;; >>> ../../../../src/pic14/gen.c:1400:mov2w
                      00874 ;;      1027
                      00875 ;;      1045  _F3   offset=2
008D   08??           00876         MOVF    (_F3 + 2),W
                      00877 ;;      2158 left AOP_DIR
                      00878 ;; >>> ../../../../src/pic14/gen.c:2166:genCall
                      00879 ;; ***  popRegFromIdx,1059  , rIdx=0x7b
008E   00??           00880         MOVWF   STK04
                      00881 ;;; ../../../../src/pic14/gen.c:1357:mov2w_op *{*
                      00882 ;; ***  mov2w  1395  offset=3
                      00883 ;; >>> ../../../../src/pic14/gen.c:1400:mov2w
                      00884 ;;      1027
                      00885 ;;      1045  _F3   offset=3
008F   08??           00886         MOVF    (_F3 + 3),W
                      00887 ;; ***  aopForSym 324
                      00888 ;;      336 sym->rname = _F3, size = 4
                      00889 ;;      2158 left AOP_DIR
                      00890 ;; >>> ../../../../src/pic14/gen.c:2166:genCall
gpasm-1.5.0 #1285 (Jul 12 2020) obj/sdcc-16f8   11/12/23  13:12:30          PAGE 18


LOC    OBJECT CODE    LINE  SOURCE TEXT
  VALUE

                      00891 ;; ***  popRegFromIdx,1059  , rIdx=0x7c
0090   00??           00892         MOVWF   STK03
                      00893 ;;; ../../../../src/pic14/gen.c:1357:mov2w_op *{*
                      00894 ;; ***  mov2w  1395  offset=0
                      00895 ;; >>> ../../../../src/pic14/gen.c:1400:mov2w
                      00896 ;;      1027
                      00897 ;;      1045  _F3   offset=0
0091   08??           00898         MOVF    _F3,W
                      00899 ;;      2158 left AOP_DIR
                      00900 ;; >>> ../../../../src/pic14/gen.c:2166:genCall
                      00901 ;; ***  popRegFromIdx,1059  , rIdx=0x7d
0092   00??           00902         MOVWF   STK02
                      00903 ;;; ../../../../src/pic14/gen.c:1357:mov2w_op *{*
                      00904 ;; ***  mov2w  1395  offset=1
                      00905 ;; >>> ../../../../src/pic14/gen.c:1400:mov2w
                      00906 ;;      1027
                      00907 ;;      1045  _F3   offset=1
0093   08??           00908         MOVF    (_F3 + 1),W
                      00909 ;;      2158 left AOP_DIR
                      00910 ;; >>> ../../../../src/pic14/gen.c:2166:genCall
                      00911 ;; ***  popRegFromIdx,1059  , rIdx=0x7e
0094   00??           00912         MOVWF   STK01
                      00913 ;;; ../../../../src/pic14/gen.c:1357:mov2w_op *{*
                      00914 ;; ***  mov2w  1395  offset=2
                      00915 ;; >>> ../../../../src/pic14/gen.c:1400:mov2w
                      00916 ;;      1027
                      00917 ;;      1045  _F3   offset=2
0095   08??           00918         MOVF    (_F3 + 2),W
                      00919 ;;      2158 left AOP_DIR
                      00920 ;; >>> ../../../../src/pic14/gen.c:2166:genCall
                      00921 ;; ***  popRegFromIdx,1059  , rIdx=0x7f
0096   00??           00922         MOVWF   STK00
                      00923 ;;; ../../../../src/pic14/gen.c:1357:mov2w_op *{*
                      00924 ;; ***  mov2w  1395  offset=3
                      00925 ;; >>> ../../../../src/pic14/gen.c:1400:mov2w
                      00926 ;;      1027
                      00927 ;;      1045  _F3   offset=3
0097   08??           00928         MOVF    (_F3 + 3),W
                      00929 ;; >>> ../../../../src/pic14/gen.c:2207:genCall
0098   0??? 0???      00930         PAGESEL ___fsmul
                      00931 ;; >>> ../../../../src/pic14/gen.c:2215:genCall
009A   2???           00932         CALL    ___fsmul
                      00933 ;; >>> ../../../../src/pic14/gen.c:2223:genCall
009B   0??? 0???      00934         PAGESEL $
                      00935 ;;      708 register type nRegs=4
                      00936 ;;; ../../../../src/pic14/gen.c:1929:assignResultValue *{*
                      00937 ;; ***  assignResultValue  1931
                      00938 ;;      line = 1933 result -=-, size=0, left AOP_REG=r0x1069, size=4, right -=-, size=0
                      00939 ;; >>> ../../../../src/pic14/gen.c:1407:movwf
                      00940 ;;      1126 rIdx = r0x106C 
009D   0??? 0???      00941         BANKSEL r0x102E
009F   00??           00942         MOVWF   r0x102E
                      00943 ;; >>> ../../../../src/pic14/gen.c:1437:get_returnvalue
gpasm-1.5.0 #1285 (Jul 12 2020) obj/sdcc-16f8   11/12/23  13:12:30          PAGE 19


LOC    OBJECT CODE    LINE  SOURCE TEXT
  VALUE

                      00944 ;; ***  popRegFromIdx,1059  , rIdx=0x7f
00A0   08??           00945         MOVF    STK00,W
                      00946 ;; >>> ../../../../src/pic14/gen.c:1407:movwf
                      00947 ;;      1126 rIdx = r0x106B 
00A1   00??           00948         MOVWF   r0x102F
                      00949 ;; >>> ../../../../src/pic14/gen.c:1437:get_returnvalue
                      00950 ;; ***  popRegFromIdx,1059  , rIdx=0x7e
00A2   08??           00951         MOVF    STK01,W
                      00952 ;; >>> ../../../../src/pic14/gen.c:1407:movwf
                      00953 ;;      1126 rIdx = r0x106A 
00A3   00??           00954         MOVWF   r0x1030
                      00955 ;; >>> ../../../../src/pic14/gen.c:1437:get_returnvalue
                      00956 ;; ***  popRegFromIdx,1059  , rIdx=0x7d
00A4   08??           00957         MOVF    STK02,W
                      00958 ;; >>> ../../../../src/pic14/gen.c:1407:movwf
                      00959 ;;      1126 rIdx = r0x1069 
00A5   00??           00960         MOVWF   r0x1031
00A6   00??           00961         MOVWF   STK06
                      00962 ;;; ../../../../src/pic14/gen.c:1357:mov2w_op *{*
                      00963 ;; ***  mov2w  1395  offset=1
                      00964 ;; >>> ../../../../src/pic14/gen.c:1400:mov2w
                      00965 ;;      1126 rIdx = r0x106A 
00A7   08??           00966         MOVF    r0x1030,W
                      00967 ;;      2158 left AOP_REG
                      00968 ;; >>> ../../../../src/pic14/gen.c:2166:genCall
                      00969 ;; ***  popRegFromIdx,1059  , rIdx=0x7a
00A8   00??           00970         MOVWF   STK05
                      00971 ;;; ../../../../src/pic14/gen.c:1357:mov2w_op *{*
                      00972 ;; ***  mov2w  1395  offset=2
                      00973 ;; >>> ../../../../src/pic14/gen.c:1400:mov2w
                      00974 ;;      1126 rIdx = r0x106B 
00A9   08??           00975         MOVF    r0x102F,W
                      00976 ;;      2158 left AOP_REG
                      00977 ;; >>> ../../../../src/pic14/gen.c:2166:genCall
                      00978 ;; ***  popRegFromIdx,1059  , rIdx=0x7b
00AA   00??           00979         MOVWF   STK04
                      00980 ;;; ../../../../src/pic14/gen.c:1357:mov2w_op *{*
                      00981 ;; ***  mov2w  1395  offset=3
                      00982 ;; >>> ../../../../src/pic14/gen.c:1400:mov2w
                      00983 ;;      1126 rIdx = r0x106C 
00AB   08??           00984         MOVF    r0x102E,W
                      00985 ;;      708 register type nRegs=4
                      00986 ;;      2158 left AOP_REG
                      00987 ;; >>> ../../../../src/pic14/gen.c:2166:genCall
                      00988 ;; ***  popRegFromIdx,1059  , rIdx=0x7c
00AC   00??           00989         MOVWF   STK03
                      00990 ;;; ../../../../src/pic14/gen.c:1357:mov2w_op *{*
                      00991 ;; ***  mov2w  1395  offset=0
                      00992 ;; >>> ../../../../src/pic14/gen.c:1400:mov2w
                      00993 ;;      1126 rIdx = r0x1065 
00AD   08??           00994         MOVF    r0x102B,W
                      00995 ;;      2158 left AOP_REG
                      00996 ;; >>> ../../../../src/pic14/gen.c:2166:genCall
gpasm-1.5.0 #1285 (Jul 12 2020) obj/sdcc-16f8   11/12/23  13:12:30          PAGE 20


LOC    OBJECT CODE    LINE  SOURCE TEXT
  VALUE

                      00997 ;; ***  popRegFromIdx,1059  , rIdx=0x7d
00AE   00??           00998         MOVWF   STK02
                      00999 ;;; ../../../../src/pic14/gen.c:1357:mov2w_op *{*
                      01000 ;; ***  mov2w  1395  offset=1
                      01001 ;; >>> ../../../../src/pic14/gen.c:1400:mov2w
                      01002 ;;      1126 rIdx = r0x1066 
00AF   08??           01003         MOVF    r0x102A,W
                      01004 ;;      2158 left AOP_REG
                      01005 ;; >>> ../../../../src/pic14/gen.c:2166:genCall
                      01006 ;; ***  popRegFromIdx,1059  , rIdx=0x7e
00B0   00??           01007         MOVWF   STK01
                      01008 ;;; ../../../../src/pic14/gen.c:1357:mov2w_op *{*
                      01009 ;; ***  mov2w  1395  offset=2
                      01010 ;; >>> ../../../../src/pic14/gen.c:1400:mov2w
                      01011 ;;      1126 rIdx = r0x1067 
00B1   08??           01012         MOVF    r0x102C,W
                      01013 ;;      2158 left AOP_REG
                      01014 ;; >>> ../../../../src/pic14/gen.c:2166:genCall
                      01015 ;; ***  popRegFromIdx,1059  , rIdx=0x7f
00B2   00??           01016         MOVWF   STK00
                      01017 ;;; ../../../../src/pic14/gen.c:1357:mov2w_op *{*
                      01018 ;; ***  mov2w  1395  offset=3
                      01019 ;; >>> ../../../../src/pic14/gen.c:1400:mov2w
                      01020 ;;      1126 rIdx = r0x1068 
00B3   08??           01021         MOVF    r0x102D,W
                      01022 ;; >>> ../../../../src/pic14/gen.c:2207:genCall
00B4   0??? 0???      01023         PAGESEL ___fssub
                      01024 ;; >>> ../../../../src/pic14/gen.c:2215:genCall
00B6   2???           01025         CALL    ___fssub
                      01026 ;; >>> ../../../../src/pic14/gen.c:2223:genCall
00B7   0??? 0???      01027         PAGESEL $
                      01028 ;;      708 register type nRegs=4
                      01029 ;;; ../../../../src/pic14/gen.c:1929:assignResultValue *{*
                      01030 ;; ***  assignResultValue  1931
                      01031 ;;      line = 1933 result -=-, size=0, left AOP_REG=r0x1069, size=4, right -=-, size=0
                      01032 ;; >>> ../../../../src/pic14/gen.c:1407:movwf
                      01033 ;;      1126 rIdx = r0x106C 
00B9   0??? 0???      01034         BANKSEL r0x102E
00BB   00??           01035         MOVWF   r0x102E
                      01036 ;; >>> ../../../../src/pic14/gen.c:1437:get_returnvalue
                      01037 ;; ***  popRegFromIdx,1059  , rIdx=0x7f
00BC   08??           01038         MOVF    STK00,W
                      01039 ;; >>> ../../../../src/pic14/gen.c:1407:movwf
                      01040 ;;      1126 rIdx = r0x106B 
00BD   00??           01041         MOVWF   r0x102F
                      01042 ;; >>> ../../../../src/pic14/gen.c:1437:get_returnvalue
                      01043 ;; ***  popRegFromIdx,1059  , rIdx=0x7e
00BE   08??           01044         MOVF    STK01,W
                      01045 ;; >>> ../../../../src/pic14/gen.c:1407:movwf
                      01046 ;;      1126 rIdx = r0x106A 
00BF   00??           01047         MOVWF   r0x1030
                      01048 ;; >>> ../../../../src/pic14/gen.c:1437:get_returnvalue
                      01049 ;; ***  popRegFromIdx,1059  , rIdx=0x7d
gpasm-1.5.0 #1285 (Jul 12 2020) obj/sdcc-16f8   11/12/23  13:12:30          PAGE 21


LOC    OBJECT CODE    LINE  SOURCE TEXT
  VALUE

00C0   08??           01050         MOVF    STK02,W
                      01051 ;; >>> ../../../../src/pic14/gen.c:1407:movwf
                      01052 ;;      1126 rIdx = r0x1069 
00C1   00??           01053         MOVWF   r0x1031
                      01054 ;;      2238 left AOP_REG
                      01055 ;;; ../../../../src/pic14/gen.c:2358:resultRemat *{*
                      01056 ;;; ../../../../src/pic14/gen.c:2358:resultRemat *{*
                      01057 ;;; ../../../../src/pic14/gen.c:2358:resultRemat *{*
                      01058 ;;; ../../../../src/pic14/gen.c:2108:genCall *{*
                      01059 ;; ***  genCall  2110
                      01060 ;;      708 register type nRegs=4
                      01061 ;;      708 register type nRegs=4
                      01062 ;;      708 register type nRegs=4
                      01063 ;;      2158 left AOP_REG
                      01064 ;;; ../../../../src/pic14/gen.c:1357:mov2w_op *{*
                      01065 ;; ***  mov2w  1395  offset=0
                      01066 ;; >>> ../../../../src/pic14/gen.c:1400:mov2w
                      01067 ;;      1126 rIdx = r0x1065 
00C2   08??           01068         MOVF    r0x102B,W
                      01069 ;;      2158 left AOP_REG
                      01070 ;; >>> ../../../../src/pic14/gen.c:2166:genCall
                      01071 ;; ***  popRegFromIdx,1059  , rIdx=0x79
00C3   00??           01072         MOVWF   STK06
                      01073 ;;; ../../../../src/pic14/gen.c:1357:mov2w_op *{*
                      01074 ;; ***  mov2w  1395  offset=1
                      01075 ;; >>> ../../../../src/pic14/gen.c:1400:mov2w
                      01076 ;;      1126 rIdx = r0x1066 
00C4   08??           01077         MOVF    r0x102A,W
                      01078 ;;      2158 left AOP_REG
                      01079 ;; >>> ../../../../src/pic14/gen.c:2166:genCall
                      01080 ;; ***  popRegFromIdx,1059  , rIdx=0x7a
00C5   00??           01081         MOVWF   STK05
                      01082 ;;; ../../../../src/pic14/gen.c:1357:mov2w_op *{*
                      01083 ;; ***  mov2w  1395  offset=2
                      01084 ;; >>> ../../../../src/pic14/gen.c:1400:mov2w
                      01085 ;;      1126 rIdx = r0x1067 
00C6   08??           01086         MOVF    r0x102C,W
                      01087 ;;      2158 left AOP_REG
                      01088 ;; >>> ../../../../src/pic14/gen.c:2166:genCall
                      01089 ;; ***  popRegFromIdx,1059  , rIdx=0x7b
00C7   00??           01090         MOVWF   STK04
                      01091 ;;; ../../../../src/pic14/gen.c:1357:mov2w_op *{*
                      01092 ;; ***  mov2w  1395  offset=3
                      01093 ;; >>> ../../../../src/pic14/gen.c:1400:mov2w
                      01094 ;;      1126 rIdx = r0x1068 
00C8   08??           01095         MOVF    r0x102D,W
                      01096 ;;      708 register type nRegs=4
                      01097 ;;      2158 left AOP_REG
                      01098 ;; >>> ../../../../src/pic14/gen.c:2166:genCall
                      01099 ;; ***  popRegFromIdx,1059  , rIdx=0x7c
00C9   00??           01100         MOVWF   STK03
                      01101 ;;; ../../../../src/pic14/gen.c:1357:mov2w_op *{*
                      01102 ;; ***  mov2w  1395  offset=0
gpasm-1.5.0 #1285 (Jul 12 2020) obj/sdcc-16f8   11/12/23  13:12:30          PAGE 22


LOC    OBJECT CODE    LINE  SOURCE TEXT
  VALUE

                      01103 ;; >>> ../../../../src/pic14/gen.c:1400:mov2w
                      01104 ;;      1126 rIdx = r0x1069 
00CA   08??           01105         MOVF    r0x1031,W
                      01106 ;;      2158 left AOP_REG
                      01107 ;; >>> ../../../../src/pic14/gen.c:2166:genCall
                      01108 ;; ***  popRegFromIdx,1059  , rIdx=0x7d
00CB   00??           01109         MOVWF   STK02
                      01110 ;;; ../../../../src/pic14/gen.c:1357:mov2w_op *{*
                      01111 ;; ***  mov2w  1395  offset=1
                      01112 ;; >>> ../../../../src/pic14/gen.c:1400:mov2w
                      01113 ;;      1126 rIdx = r0x106A 
00CC   08??           01114         MOVF    r0x1030,W
                      01115 ;;      2158 left AOP_REG
                      01116 ;; >>> ../../../../src/pic14/gen.c:2166:genCall
                      01117 ;; ***  popRegFromIdx,1059  , rIdx=0x7e
00CD   00??           01118         MOVWF   STK01
                      01119 ;;; ../../../../src/pic14/gen.c:1357:mov2w_op *{*
                      01120 ;; ***  mov2w  1395  offset=2
                      01121 ;; >>> ../../../../src/pic14/gen.c:1400:mov2w
                      01122 ;;      1126 rIdx = r0x106B 
00CE   08??           01123         MOVF    r0x102F,W
                      01124 ;;      2158 left AOP_REG
                      01125 ;; >>> ../../../../src/pic14/gen.c:2166:genCall
                      01126 ;; ***  popRegFromIdx,1059  , rIdx=0x7f
00CF   00??           01127         MOVWF   STK00
                      01128 ;;; ../../../../src/pic14/gen.c:1357:mov2w_op *{*
                      01129 ;; ***  mov2w  1395  offset=3
                      01130 ;; >>> ../../../../src/pic14/gen.c:1400:mov2w
                      01131 ;;      1126 rIdx = r0x106C 
00D0   08??           01132         MOVF    r0x102E,W
                      01133 ;; >>> ../../../../src/pic14/gen.c:2207:genCall
00D1   0??? 0???      01134         PAGESEL ___fsmul
                      01135 ;; >>> ../../../../src/pic14/gen.c:2215:genCall
00D3   2???           01136         CALL    ___fsmul
                      01137 ;; >>> ../../../../src/pic14/gen.c:2223:genCall
00D4   0??? 0???      01138         PAGESEL $
                      01139 ;;      708 register type nRegs=4
                      01140 ;;; ../../../../src/pic14/gen.c:1929:assignResultValue *{*
                      01141 ;; ***  assignResultValue  1931
                      01142 ;;      line = 1933 result -=-, size=0, left AOP_REG=r0x1065, size=4, right -=-, size=0
                      01143 ;; >>> ../../../../src/pic14/gen.c:1407:movwf
                      01144 ;;      1126 rIdx = r0x1068 
00D6   0??? 0???      01145         BANKSEL r0x102D
00D8   00??           01146         MOVWF   r0x102D
                      01147 ;; >>> ../../../../src/pic14/gen.c:1437:get_returnvalue
                      01148 ;; ***  popRegFromIdx,1059  , rIdx=0x7f
00D9   08??           01149         MOVF    STK00,W
                      01150 ;; >>> ../../../../src/pic14/gen.c:1407:movwf
                      01151 ;;      1126 rIdx = r0x1067 
00DA   00??           01152         MOVWF   r0x102C
                      01153 ;; >>> ../../../../src/pic14/gen.c:1437:get_returnvalue
                      01154 ;; ***  popRegFromIdx,1059  , rIdx=0x7e
00DB   08??           01155         MOVF    STK01,W
gpasm-1.5.0 #1285 (Jul 12 2020) obj/sdcc-16f8   11/12/23  13:12:30          PAGE 23


LOC    OBJECT CODE    LINE  SOURCE TEXT
  VALUE

                      01156 ;; >>> ../../../../src/pic14/gen.c:1407:movwf
                      01157 ;;      1126 rIdx = r0x1066 
00DC   00??           01158         MOVWF   r0x102A
                      01159 ;; >>> ../../../../src/pic14/gen.c:1437:get_returnvalue
                      01160 ;; ***  popRegFromIdx,1059  , rIdx=0x7d
00DD   08??           01161         MOVF    STK02,W
                      01162 ;; >>> ../../../../src/pic14/gen.c:1407:movwf
                      01163 ;;      1126 rIdx = r0x1065 
00DE   00??           01164         MOVWF   r0x102B
00DF   00??           01165         MOVWF   STK06
                      01166 ;;; ../../../../src/pic14/gen.c:1357:mov2w_op *{*
                      01167 ;; ***  mov2w  1395  offset=1
                      01168 ;; >>> ../../../../src/pic14/gen.c:1400:mov2w
                      01169 ;;      1126 rIdx = r0x1066 
00E0   08??           01170         MOVF    r0x102A,W
                      01171 ;;      2158 left AOP_REG
                      01172 ;; >>> ../../../../src/pic14/gen.c:2166:genCall
                      01173 ;; ***  popRegFromIdx,1059  , rIdx=0x7a
00E1   00??           01174         MOVWF   STK05
                      01175 ;;; ../../../../src/pic14/gen.c:1357:mov2w_op *{*
                      01176 ;; ***  mov2w  1395  offset=2
                      01177 ;; >>> ../../../../src/pic14/gen.c:1400:mov2w
                      01178 ;;      1126 rIdx = r0x1067 
00E2   08??           01179         MOVF    r0x102C,W
                      01180 ;;      2158 left AOP_REG
                      01181 ;; >>> ../../../../src/pic14/gen.c:2166:genCall
                      01182 ;; ***  popRegFromIdx,1059  , rIdx=0x7b
00E3   00??           01183         MOVWF   STK04
                      01184 ;;; ../../../../src/pic14/gen.c:1357:mov2w_op *{*
                      01185 ;; ***  mov2w  1395  offset=3
                      01186 ;; >>> ../../../../src/pic14/gen.c:1400:mov2w
                      01187 ;;      1126 rIdx = r0x1068 
00E4   08??           01188         MOVF    r0x102D,W
                      01189 ;;      2158 left AOP_LIT
                      01190 ;; >>> ../../../../src/pic14/gen.c:2166:genCall
                      01191 ;; ***  popRegFromIdx,1059  , rIdx=0x7c
00E5   00??           01192         MOVWF   STK03
                      01193 ;;; ../../../../src/pic14/gen.c:1357:mov2w_op *{*
                      01194 ;; >>> ../../../../src/pic14/gen.c:1375:mov2w_op
00E6   3000           01195         MOVLW   0x00
                      01196 ;;      2158 left AOP_LIT
                      01197 ;; >>> ../../../../src/pic14/gen.c:2166:genCall
                      01198 ;; ***  popRegFromIdx,1059  , rIdx=0x7d
00E7   00??           01199         MOVWF   STK02
                      01200 ;;; ../../../../src/pic14/gen.c:1357:mov2w_op *{*
                      01201 ;; >>> ../../../../src/pic14/gen.c:1375:mov2w_op
00E8   3040           01202         MOVLW   0x40
                      01203 ;;      2158 left AOP_LIT
                      01204 ;; >>> ../../../../src/pic14/gen.c:2166:genCall
                      01205 ;; ***  popRegFromIdx,1059  , rIdx=0x7e
00E9   00??           01206         MOVWF   STK01
                      01207 ;;; ../../../../src/pic14/gen.c:1357:mov2w_op *{*
                      01208 ;; >>> ../../../../src/pic14/gen.c:1375:mov2w_op
gpasm-1.5.0 #1285 (Jul 12 2020) obj/sdcc-16f8   11/12/23  13:12:30          PAGE 24


LOC    OBJECT CODE    LINE  SOURCE TEXT
  VALUE

00EA   301C           01209         MOVLW   0x1c
                      01210 ;;      2158 left AOP_LIT
                      01211 ;; >>> ../../../../src/pic14/gen.c:2166:genCall
                      01212 ;; ***  popRegFromIdx,1059  , rIdx=0x7f
00EB   00??           01213         MOVWF   STK00
                      01214 ;;; ../../../../src/pic14/gen.c:1357:mov2w_op *{*
                      01215 ;; >>> ../../../../src/pic14/gen.c:1375:mov2w_op
00EC   3046           01216         MOVLW   0x46
                      01217 ;; >>> ../../../../src/pic14/gen.c:2207:genCall
00ED   0??? 0???      01218         PAGESEL ___fsmul
                      01219 ;; >>> ../../../../src/pic14/gen.c:2215:genCall
00EF   2???           01220         CALL    ___fsmul
                      01221 ;; >>> ../../../../src/pic14/gen.c:2223:genCall
00F0   0??? 0???      01222         PAGESEL $
                      01223 ;;      708 register type nRegs=4
                      01224 ;;; ../../../../src/pic14/gen.c:1929:assignResultValue *{*
                      01225 ;; ***  assignResultValue  1931
                      01226 ;;      line = 1933 result -=-, size=0, left AOP_REG=r0x1065, size=4, right -=-, size=0
                      01227 ;; >>> ../../../../src/pic14/gen.c:1407:movwf
                      01228 ;;      1126 rIdx = r0x1068 
00F2   0??? 0???      01229         BANKSEL r0x102D
00F4   00??           01230         MOVWF   r0x102D
                      01231 ;; >>> ../../../../src/pic14/gen.c:1437:get_returnvalue
                      01232 ;; ***  popRegFromIdx,1059  , rIdx=0x7f
00F5   08??           01233         MOVF    STK00,W
                      01234 ;; >>> ../../../../src/pic14/gen.c:1407:movwf
                      01235 ;;      1126 rIdx = r0x1067 
00F6   00??           01236         MOVWF   r0x102C
                      01237 ;; >>> ../../../../src/pic14/gen.c:1437:get_returnvalue
                      01238 ;; ***  popRegFromIdx,1059  , rIdx=0x7e
00F7   08??           01239         MOVF    STK01,W
                      01240 ;; >>> ../../../../src/pic14/gen.c:1407:movwf
                      01241 ;;      1126 rIdx = r0x1066 
00F8   00??           01242         MOVWF   r0x102A
                      01243 ;; >>> ../../../../src/pic14/gen.c:1437:get_returnvalue
                      01244 ;; ***  popRegFromIdx,1059  , rIdx=0x7d
00F9   08??           01245         MOVF    STK02,W
                      01246 ;; >>> ../../../../src/pic14/gen.c:1407:movwf
                      01247 ;;      1126 rIdx = r0x1065 
00FA   00??           01248         MOVWF   r0x102B
                      01249 ;;      2238 left AOP_REG
                      01250 ;;; ../../../../src/pic14/gen.c:2358:resultRemat *{*
                      01251 ;;; ../../../../src/pic14/gen.c:2358:resultRemat *{*
                      01252 ;;; ../../../../src/pic14/gen.c:2358:resultRemat *{*
                      01253 ;;; ../../../../src/pic14/gen.c:2108:genCall *{*
                      01254 ;; ***  genCall  2110
                      01255 ;; ***  aopForSym 324
                      01256 ;;      336 sym->rname = _F1, size = 4
                      01257 ;; ***  aopForSym 324
                      01258 ;;      336 sym->rname = _F1, size = 4
                      01259 ;;      2158 left AOP_DIR
                      01260 ;;; ../../../../src/pic14/gen.c:1357:mov2w_op *{*
                      01261 ;; ***  mov2w  1395  offset=0
gpasm-1.5.0 #1285 (Jul 12 2020) obj/sdcc-16f8   11/12/23  13:12:30          PAGE 25


LOC    OBJECT CODE    LINE  SOURCE TEXT
  VALUE

                      01262 ;; >>> ../../../../src/pic14/gen.c:1400:mov2w
                      01263 ;;      1027
                      01264 ;;      1045  _F1   offset=0
                      01265         .line   234; "src/measure.c"    denominator = 4 * PI * PI * F1 * F1 * F2 * F2 * F3 * F3 * CCal;
00FB   0??? 0???      01266         BANKSEL _F1
00FD   08??           01267         MOVF    _F1,W
                      01268 ;;      2158 left AOP_DIR
                      01269 ;; >>> ../../../../src/pic14/gen.c:2166:genCall
                      01270 ;; ***  popRegFromIdx,1059  , rIdx=0x79
00FE   00??           01271         MOVWF   STK06
                      01272 ;;; ../../../../src/pic14/gen.c:1357:mov2w_op *{*
                      01273 ;; ***  mov2w  1395  offset=1
                      01274 ;; >>> ../../../../src/pic14/gen.c:1400:mov2w
                      01275 ;;      1027
                      01276 ;;      1045  _F1   offset=1
00FF   08??           01277         MOVF    (_F1 + 1),W
                      01278 ;;      2158 left AOP_DIR
                      01279 ;; >>> ../../../../src/pic14/gen.c:2166:genCall
                      01280 ;; ***  popRegFromIdx,1059  , rIdx=0x7a
0100   00??           01281         MOVWF   STK05
                      01282 ;;; ../../../../src/pic14/gen.c:1357:mov2w_op *{*
                      01283 ;; ***  mov2w  1395  offset=2
                      01284 ;; >>> ../../../../src/pic14/gen.c:1400:mov2w
                      01285 ;;      1027
                      01286 ;;      1045  _F1   offset=2
0101   08??           01287         MOVF    (_F1 + 2),W
                      01288 ;;      2158 left AOP_DIR
                      01289 ;; >>> ../../../../src/pic14/gen.c:2166:genCall
                      01290 ;; ***  popRegFromIdx,1059  , rIdx=0x7b
0102   00??           01291         MOVWF   STK04
                      01292 ;;; ../../../../src/pic14/gen.c:1357:mov2w_op *{*
                      01293 ;; ***  mov2w  1395  offset=3
                      01294 ;; >>> ../../../../src/pic14/gen.c:1400:mov2w
                      01295 ;;      1027
                      01296 ;;      1045  _F1   offset=3
0103   08??           01297         MOVF    (_F1 + 3),W
                      01298 ;;      2158 left AOP_LIT
                      01299 ;; >>> ../../../../src/pic14/gen.c:2166:genCall
                      01300 ;; ***  popRegFromIdx,1059  , rIdx=0x7c
0104   00??           01301         MOVWF   STK03
                      01302 ;;; ../../../../src/pic14/gen.c:1357:mov2w_op *{*
                      01303 ;; >>> ../../../../src/pic14/gen.c:1375:mov2w_op
0105   30E6           01304         MOVLW   0xe6
                      01305 ;;      2158 left AOP_LIT
                      01306 ;; >>> ../../../../src/pic14/gen.c:2166:genCall
                      01307 ;; ***  popRegFromIdx,1059  , rIdx=0x7d
0106   00??           01308         MOVWF   STK02
                      01309 ;;; ../../../../src/pic14/gen.c:1357:mov2w_op *{*
                      01310 ;; >>> ../../../../src/pic14/gen.c:1375:mov2w_op
0107   30E9           01311         MOVLW   0xe9
                      01312 ;;      2158 left AOP_LIT
                      01313 ;; >>> ../../../../src/pic14/gen.c:2166:genCall
                      01314 ;; ***  popRegFromIdx,1059  , rIdx=0x7e
gpasm-1.5.0 #1285 (Jul 12 2020) obj/sdcc-16f8   11/12/23  13:12:30          PAGE 26


LOC    OBJECT CODE    LINE  SOURCE TEXT
  VALUE

0108   00??           01315         MOVWF   STK01
                      01316 ;;; ../../../../src/pic14/gen.c:1357:mov2w_op *{*
                      01317 ;; >>> ../../../../src/pic14/gen.c:1375:mov2w_op
0109   301D           01318         MOVLW   0x1d
                      01319 ;;      2158 left AOP_LIT
                      01320 ;; >>> ../../../../src/pic14/gen.c:2166:genCall
                      01321 ;; ***  popRegFromIdx,1059  , rIdx=0x7f
010A   00??           01322         MOVWF   STK00
                      01323 ;;; ../../../../src/pic14/gen.c:1357:mov2w_op *{*
                      01324 ;; >>> ../../../../src/pic14/gen.c:1375:mov2w_op
010B   3042           01325         MOVLW   0x42
                      01326 ;; >>> ../../../../src/pic14/gen.c:2207:genCall
010C   0??? 0???      01327         PAGESEL ___fsmul
                      01328 ;; >>> ../../../../src/pic14/gen.c:2215:genCall
010E   2???           01329         CALL    ___fsmul
                      01330 ;; >>> ../../../../src/pic14/gen.c:2223:genCall
010F   0??? 0???      01331         PAGESEL $
                      01332 ;;      708 register type nRegs=4
                      01333 ;;; ../../../../src/pic14/gen.c:1929:assignResultValue *{*
                      01334 ;; ***  assignResultValue  1931
                      01335 ;;      line = 1933 result -=-, size=0, left AOP_REG=r0x1069, size=4, right -=-, size=0
                      01336 ;; >>> ../../../../src/pic14/gen.c:1407:movwf
                      01337 ;;      1126 rIdx = r0x106C 
0111   0??? 0???      01338         BANKSEL r0x102E
0113   00??           01339         MOVWF   r0x102E
                      01340 ;; >>> ../../../../src/pic14/gen.c:1437:get_returnvalue
                      01341 ;; ***  popRegFromIdx,1059  , rIdx=0x7f
0114   08??           01342         MOVF    STK00,W
                      01343 ;; >>> ../../../../src/pic14/gen.c:1407:movwf
                      01344 ;;      1126 rIdx = r0x106B 
0115   00??           01345         MOVWF   r0x102F
                      01346 ;; >>> ../../../../src/pic14/gen.c:1437:get_returnvalue
                      01347 ;; ***  popRegFromIdx,1059  , rIdx=0x7e
0116   08??           01348         MOVF    STK01,W
                      01349 ;; >>> ../../../../src/pic14/gen.c:1407:movwf
                      01350 ;;      1126 rIdx = r0x106A 
0117   00??           01351         MOVWF   r0x1030
                      01352 ;; >>> ../../../../src/pic14/gen.c:1437:get_returnvalue
                      01353 ;; ***  popRegFromIdx,1059  , rIdx=0x7d
0118   08??           01354         MOVF    STK02,W
                      01355 ;; >>> ../../../../src/pic14/gen.c:1407:movwf
                      01356 ;;      1126 rIdx = r0x1069 
0119   00??           01357         MOVWF   r0x1031
                      01358 ;;      2238 left AOP_REG
                      01359 ;;; ../../../../src/pic14/gen.c:2358:resultRemat *{*
                      01360 ;;; ../../../../src/pic14/gen.c:2358:resultRemat *{*
                      01361 ;;; ../../../../src/pic14/gen.c:2358:resultRemat *{*
                      01362 ;;; ../../../../src/pic14/gen.c:2108:genCall *{*
                      01363 ;; ***  genCall  2110
                      01364 ;; ***  aopForSym 324
                      01365 ;;      336 sym->rname = _F1, size = 4
                      01366 ;;      708 register type nRegs=4
                      01367 ;; ***  aopForSym 324
gpasm-1.5.0 #1285 (Jul 12 2020) obj/sdcc-16f8   11/12/23  13:12:30          PAGE 27


LOC    OBJECT CODE    LINE  SOURCE TEXT
  VALUE

                      01368 ;;      336 sym->rname = _F1, size = 4
                      01369 ;;      2158 left AOP_DIR
                      01370 ;;; ../../../../src/pic14/gen.c:1357:mov2w_op *{*
                      01371 ;; ***  mov2w  1395  offset=0
                      01372 ;; >>> ../../../../src/pic14/gen.c:1400:mov2w
                      01373 ;;      1027
                      01374 ;;      1045  _F1   offset=0
011A   0??? 0???      01375         BANKSEL _F1
011C   08??           01376         MOVF    _F1,W
                      01377 ;;      2158 left AOP_DIR
                      01378 ;; >>> ../../../../src/pic14/gen.c:2166:genCall
                      01379 ;; ***  popRegFromIdx,1059  , rIdx=0x79
011D   00??           01380         MOVWF   STK06
                      01381 ;;; ../../../../src/pic14/gen.c:1357:mov2w_op *{*
                      01382 ;; ***  mov2w  1395  offset=1
                      01383 ;; >>> ../../../../src/pic14/gen.c:1400:mov2w
                      01384 ;;      1027
                      01385 ;;      1045  _F1   offset=1
011E   08??           01386         MOVF    (_F1 + 1),W
                      01387 ;;      2158 left AOP_DIR
                      01388 ;; >>> ../../../../src/pic14/gen.c:2166:genCall
                      01389 ;; ***  popRegFromIdx,1059  , rIdx=0x7a
011F   00??           01390         MOVWF   STK05
                      01391 ;;; ../../../../src/pic14/gen.c:1357:mov2w_op *{*
                      01392 ;; ***  mov2w  1395  offset=2
                      01393 ;; >>> ../../../../src/pic14/gen.c:1400:mov2w
                      01394 ;;      1027
                      01395 ;;      1045  _F1   offset=2
0120   08??           01396         MOVF    (_F1 + 2),W
                      01397 ;;      2158 left AOP_DIR
                      01398 ;; >>> ../../../../src/pic14/gen.c:2166:genCall
                      01399 ;; ***  popRegFromIdx,1059  , rIdx=0x7b
0121   00??           01400         MOVWF   STK04
                      01401 ;;; ../../../../src/pic14/gen.c:1357:mov2w_op *{*
                      01402 ;; ***  mov2w  1395  offset=3
                      01403 ;; >>> ../../../../src/pic14/gen.c:1400:mov2w
                      01404 ;;      1027
                      01405 ;;      1045  _F1   offset=3
0122   08??           01406         MOVF    (_F1 + 3),W
                      01407 ;;      708 register type nRegs=4
                      01408 ;;      2158 left AOP_REG
                      01409 ;; >>> ../../../../src/pic14/gen.c:2166:genCall
                      01410 ;; ***  popRegFromIdx,1059  , rIdx=0x7c
0123   00??           01411         MOVWF   STK03
                      01412 ;;; ../../../../src/pic14/gen.c:1357:mov2w_op *{*
                      01413 ;; ***  mov2w  1395  offset=0
                      01414 ;; >>> ../../../../src/pic14/gen.c:1400:mov2w
                      01415 ;;      1126 rIdx = r0x1069 
0124   0??? 0???      01416         BANKSEL r0x1031
0126   08??           01417         MOVF    r0x1031,W
                      01418 ;;      2158 left AOP_REG
                      01419 ;; >>> ../../../../src/pic14/gen.c:2166:genCall
                      01420 ;; ***  popRegFromIdx,1059  , rIdx=0x7d
gpasm-1.5.0 #1285 (Jul 12 2020) obj/sdcc-16f8   11/12/23  13:12:30          PAGE 28


LOC    OBJECT CODE    LINE  SOURCE TEXT
  VALUE

0127   00??           01421         MOVWF   STK02
                      01422 ;;; ../../../../src/pic14/gen.c:1357:mov2w_op *{*
                      01423 ;; ***  mov2w  1395  offset=1
                      01424 ;; >>> ../../../../src/pic14/gen.c:1400:mov2w
                      01425 ;;      1126 rIdx = r0x106A 
0128   08??           01426         MOVF    r0x1030,W
                      01427 ;;      2158 left AOP_REG
                      01428 ;; >>> ../../../../src/pic14/gen.c:2166:genCall
                      01429 ;; ***  popRegFromIdx,1059  , rIdx=0x7e
0129   00??           01430         MOVWF   STK01
                      01431 ;;; ../../../../src/pic14/gen.c:1357:mov2w_op *{*
                      01432 ;; ***  mov2w  1395  offset=2
                      01433 ;; >>> ../../../../src/pic14/gen.c:1400:mov2w
                      01434 ;;      1126 rIdx = r0x106B 
012A   08??           01435         MOVF    r0x102F,W
                      01436 ;;      2158 left AOP_REG
                      01437 ;; >>> ../../../../src/pic14/gen.c:2166:genCall
                      01438 ;; ***  popRegFromIdx,1059  , rIdx=0x7f
012B   00??           01439         MOVWF   STK00
                      01440 ;;; ../../../../src/pic14/gen.c:1357:mov2w_op *{*
                      01441 ;; ***  mov2w  1395  offset=3
                      01442 ;; >>> ../../../../src/pic14/gen.c:1400:mov2w
                      01443 ;;      1126 rIdx = r0x106C 
012C   08??           01444         MOVF    r0x102E,W
                      01445 ;; >>> ../../../../src/pic14/gen.c:2207:genCall
012D   0??? 0???      01446         PAGESEL ___fsmul
                      01447 ;; >>> ../../../../src/pic14/gen.c:2215:genCall
012F   2???           01448         CALL    ___fsmul
                      01449 ;; >>> ../../../../src/pic14/gen.c:2223:genCall
0130   0??? 0???      01450         PAGESEL $
                      01451 ;;      708 register type nRegs=4
                      01452 ;;; ../../../../src/pic14/gen.c:1929:assignResultValue *{*
                      01453 ;; ***  assignResultValue  1931
                      01454 ;;      line = 1933 result -=-, size=0, left AOP_REG=r0x1069, size=4, right -=-, size=0
                      01455 ;; >>> ../../../../src/pic14/gen.c:1407:movwf
                      01456 ;;      1126 rIdx = r0x106C 
0132   0??? 0???      01457         BANKSEL r0x102E
0134   00??           01458         MOVWF   r0x102E
                      01459 ;; >>> ../../../../src/pic14/gen.c:1437:get_returnvalue
                      01460 ;; ***  popRegFromIdx,1059  , rIdx=0x7f
0135   08??           01461         MOVF    STK00,W
                      01462 ;; >>> ../../../../src/pic14/gen.c:1407:movwf
                      01463 ;;      1126 rIdx = r0x106B 
0136   00??           01464         MOVWF   r0x102F
                      01465 ;; >>> ../../../../src/pic14/gen.c:1437:get_returnvalue
                      01466 ;; ***  popRegFromIdx,1059  , rIdx=0x7e
0137   08??           01467         MOVF    STK01,W
                      01468 ;; >>> ../../../../src/pic14/gen.c:1407:movwf
                      01469 ;;      1126 rIdx = r0x106A 
0138   00??           01470         MOVWF   r0x1030
                      01471 ;; >>> ../../../../src/pic14/gen.c:1437:get_returnvalue
                      01472 ;; ***  popRegFromIdx,1059  , rIdx=0x7d
0139   08??           01473         MOVF    STK02,W
gpasm-1.5.0 #1285 (Jul 12 2020) obj/sdcc-16f8   11/12/23  13:12:30          PAGE 29


LOC    OBJECT CODE    LINE  SOURCE TEXT
  VALUE

                      01474 ;; >>> ../../../../src/pic14/gen.c:1407:movwf
                      01475 ;;      1126 rIdx = r0x1069 
013A   00??           01476         MOVWF   r0x1031
                      01477 ;;      2238 left AOP_REG
                      01478 ;;; ../../../../src/pic14/gen.c:2358:resultRemat *{*
                      01479 ;;; ../../../../src/pic14/gen.c:2358:resultRemat *{*
                      01480 ;;; ../../../../src/pic14/gen.c:2358:resultRemat *{*
                      01481 ;;; ../../../../src/pic14/gen.c:2108:genCall *{*
                      01482 ;; ***  genCall  2110
                      01483 ;; ***  aopForSym 324
                      01484 ;;      336 sym->rname = _F2, size = 4
                      01485 ;;      708 register type nRegs=4
                      01486 ;; ***  aopForSym 324
                      01487 ;;      336 sym->rname = _F2, size = 4
                      01488 ;;      2158 left AOP_DIR
                      01489 ;;; ../../../../src/pic14/gen.c:1357:mov2w_op *{*
                      01490 ;; ***  mov2w  1395  offset=0
                      01491 ;; >>> ../../../../src/pic14/gen.c:1400:mov2w
                      01492 ;;      1027
                      01493 ;;      1045  _F2   offset=0
013B   0??? 0???      01494         BANKSEL _F2
013D   08??           01495         MOVF    _F2,W
                      01496 ;;      2158 left AOP_DIR
                      01497 ;; >>> ../../../../src/pic14/gen.c:2166:genCall
                      01498 ;; ***  popRegFromIdx,1059  , rIdx=0x79
013E   00??           01499         MOVWF   STK06
                      01500 ;;; ../../../../src/pic14/gen.c:1357:mov2w_op *{*
                      01501 ;; ***  mov2w  1395  offset=1
                      01502 ;; >>> ../../../../src/pic14/gen.c:1400:mov2w
                      01503 ;;      1027
                      01504 ;;      1045  _F2   offset=1
013F   08??           01505         MOVF    (_F2 + 1),W
                      01506 ;;      2158 left AOP_DIR
                      01507 ;; >>> ../../../../src/pic14/gen.c:2166:genCall
                      01508 ;; ***  popRegFromIdx,1059  , rIdx=0x7a
0140   00??           01509         MOVWF   STK05
                      01510 ;;; ../../../../src/pic14/gen.c:1357:mov2w_op *{*
                      01511 ;; ***  mov2w  1395  offset=2
                      01512 ;; >>> ../../../../src/pic14/gen.c:1400:mov2w
                      01513 ;;      1027
                      01514 ;;      1045  _F2   offset=2
0141   08??           01515         MOVF    (_F2 + 2),W
                      01516 ;;      2158 left AOP_DIR
                      01517 ;; >>> ../../../../src/pic14/gen.c:2166:genCall
                      01518 ;; ***  popRegFromIdx,1059  , rIdx=0x7b
0142   00??           01519         MOVWF   STK04
                      01520 ;;; ../../../../src/pic14/gen.c:1357:mov2w_op *{*
                      01521 ;; ***  mov2w  1395  offset=3
                      01522 ;; >>> ../../../../src/pic14/gen.c:1400:mov2w
                      01523 ;;      1027
                      01524 ;;      1045  _F2   offset=3
0143   08??           01525         MOVF    (_F2 + 3),W
                      01526 ;;      708 register type nRegs=4
gpasm-1.5.0 #1285 (Jul 12 2020) obj/sdcc-16f8   11/12/23  13:12:30          PAGE 30


LOC    OBJECT CODE    LINE  SOURCE TEXT
  VALUE

                      01527 ;;      2158 left AOP_REG
                      01528 ;; >>> ../../../../src/pic14/gen.c:2166:genCall
                      01529 ;; ***  popRegFromIdx,1059  , rIdx=0x7c
0144   00??           01530         MOVWF   STK03
                      01531 ;;; ../../../../src/pic14/gen.c:1357:mov2w_op *{*
                      01532 ;; ***  mov2w  1395  offset=0
                      01533 ;; >>> ../../../../src/pic14/gen.c:1400:mov2w
                      01534 ;;      1126 rIdx = r0x1069 
0145   0??? 0???      01535         BANKSEL r0x1031
0147   08??           01536         MOVF    r0x1031,W
                      01537 ;;      2158 left AOP_REG
                      01538 ;; >>> ../../../../src/pic14/gen.c:2166:genCall
                      01539 ;; ***  popRegFromIdx,1059  , rIdx=0x7d
0148   00??           01540         MOVWF   STK02
                      01541 ;;; ../../../../src/pic14/gen.c:1357:mov2w_op *{*
                      01542 ;; ***  mov2w  1395  offset=1
                      01543 ;; >>> ../../../../src/pic14/gen.c:1400:mov2w
                      01544 ;;      1126 rIdx = r0x106A 
0149   08??           01545         MOVF    r0x1030,W
                      01546 ;;      2158 left AOP_REG
                      01547 ;; >>> ../../../../src/pic14/gen.c:2166:genCall
                      01548 ;; ***  popRegFromIdx,1059  , rIdx=0x7e
014A   00??           01549         MOVWF   STK01
                      01550 ;;; ../../../../src/pic14/gen.c:1357:mov2w_op *{*
                      01551 ;; ***  mov2w  1395  offset=2
                      01552 ;; >>> ../../../../src/pic14/gen.c:1400:mov2w
                      01553 ;;      1126 rIdx = r0x106B 
014B   08??           01554         MOVF    r0x102F,W
                      01555 ;;      2158 left AOP_REG
                      01556 ;; >>> ../../../../src/pic14/gen.c:2166:genCall
                      01557 ;; ***  popRegFromIdx,1059  , rIdx=0x7f
014C   00??           01558         MOVWF   STK00
                      01559 ;;; ../../../../src/pic14/gen.c:1357:mov2w_op *{*
                      01560 ;; ***  mov2w  1395  offset=3
                      01561 ;; >>> ../../../../src/pic14/gen.c:1400:mov2w
                      01562 ;;      1126 rIdx = r0x106C 
014D   08??           01563         MOVF    r0x102E,W
                      01564 ;; >>> ../../../../src/pic14/gen.c:2207:genCall
014E   0??? 0???      01565         PAGESEL ___fsmul
                      01566 ;; >>> ../../../../src/pic14/gen.c:2215:genCall
0150   2???           01567         CALL    ___fsmul
                      01568 ;; >>> ../../../../src/pic14/gen.c:2223:genCall
0151   0??? 0???      01569         PAGESEL $
                      01570 ;;      708 register type nRegs=4
                      01571 ;;; ../../../../src/pic14/gen.c:1929:assignResultValue *{*
                      01572 ;; ***  assignResultValue  1931
                      01573 ;;      line = 1933 result -=-, size=0, left AOP_REG=r0x1069, size=4, right -=-, size=0
                      01574 ;; >>> ../../../../src/pic14/gen.c:1407:movwf
                      01575 ;;      1126 rIdx = r0x106C 
0153   0??? 0???      01576         BANKSEL r0x102E
0155   00??           01577         MOVWF   r0x102E
                      01578 ;; >>> ../../../../src/pic14/gen.c:1437:get_returnvalue
                      01579 ;; ***  popRegFromIdx,1059  , rIdx=0x7f
gpasm-1.5.0 #1285 (Jul 12 2020) obj/sdcc-16f8   11/12/23  13:12:30          PAGE 31


LOC    OBJECT CODE    LINE  SOURCE TEXT
  VALUE

0156   08??           01580         MOVF    STK00,W
                      01581 ;; >>> ../../../../src/pic14/gen.c:1407:movwf
                      01582 ;;      1126 rIdx = r0x106B 
0157   00??           01583         MOVWF   r0x102F
                      01584 ;; >>> ../../../../src/pic14/gen.c:1437:get_returnvalue
                      01585 ;; ***  popRegFromIdx,1059  , rIdx=0x7e
0158   08??           01586         MOVF    STK01,W
                      01587 ;; >>> ../../../../src/pic14/gen.c:1407:movwf
                      01588 ;;      1126 rIdx = r0x106A 
0159   00??           01589         MOVWF   r0x1030
                      01590 ;; >>> ../../../../src/pic14/gen.c:1437:get_returnvalue
                      01591 ;; ***  popRegFromIdx,1059  , rIdx=0x7d
015A   08??           01592         MOVF    STK02,W
                      01593 ;; >>> ../../../../src/pic14/gen.c:1407:movwf
                      01594 ;;      1126 rIdx = r0x1069 
015B   00??           01595         MOVWF   r0x1031
                      01596 ;;      2238 left AOP_REG
                      01597 ;;; ../../../../src/pic14/gen.c:2358:resultRemat *{*
                      01598 ;;; ../../../../src/pic14/gen.c:2358:resultRemat *{*
                      01599 ;;; ../../../../src/pic14/gen.c:2358:resultRemat *{*
                      01600 ;;; ../../../../src/pic14/gen.c:2108:genCall *{*
                      01601 ;; ***  genCall  2110
                      01602 ;; ***  aopForSym 324
                      01603 ;;      336 sym->rname = _F2, size = 4
                      01604 ;;      708 register type nRegs=4
                      01605 ;; ***  aopForSym 324
                      01606 ;;      336 sym->rname = _F2, size = 4
                      01607 ;;      2158 left AOP_DIR
                      01608 ;;; ../../../../src/pic14/gen.c:1357:mov2w_op *{*
                      01609 ;; ***  mov2w  1395  offset=0
                      01610 ;; >>> ../../../../src/pic14/gen.c:1400:mov2w
                      01611 ;;      1027
                      01612 ;;      1045  _F2   offset=0
015C   0??? 0???      01613         BANKSEL _F2
015E   08??           01614         MOVF    _F2,W
                      01615 ;;      2158 left AOP_DIR
                      01616 ;; >>> ../../../../src/pic14/gen.c:2166:genCall
                      01617 ;; ***  popRegFromIdx,1059  , rIdx=0x79
015F   00??           01618         MOVWF   STK06
                      01619 ;;; ../../../../src/pic14/gen.c:1357:mov2w_op *{*
                      01620 ;; ***  mov2w  1395  offset=1
                      01621 ;; >>> ../../../../src/pic14/gen.c:1400:mov2w
                      01622 ;;      1027
                      01623 ;;      1045  _F2   offset=1
0160   08??           01624         MOVF    (_F2 + 1),W
                      01625 ;;      2158 left AOP_DIR
                      01626 ;; >>> ../../../../src/pic14/gen.c:2166:genCall
                      01627 ;; ***  popRegFromIdx,1059  , rIdx=0x7a
0161   00??           01628         MOVWF   STK05
                      01629 ;;; ../../../../src/pic14/gen.c:1357:mov2w_op *{*
                      01630 ;; ***  mov2w  1395  offset=2
                      01631 ;; >>> ../../../../src/pic14/gen.c:1400:mov2w
                      01632 ;;      1027
gpasm-1.5.0 #1285 (Jul 12 2020) obj/sdcc-16f8   11/12/23  13:12:30          PAGE 32


LOC    OBJECT CODE    LINE  SOURCE TEXT
  VALUE

                      01633 ;;      1045  _F2   offset=2
0162   08??           01634         MOVF    (_F2 + 2),W
                      01635 ;;      2158 left AOP_DIR
                      01636 ;; >>> ../../../../src/pic14/gen.c:2166:genCall
                      01637 ;; ***  popRegFromIdx,1059  , rIdx=0x7b
0163   00??           01638         MOVWF   STK04
                      01639 ;;; ../../../../src/pic14/gen.c:1357:mov2w_op *{*
                      01640 ;; ***  mov2w  1395  offset=3
                      01641 ;; >>> ../../../../src/pic14/gen.c:1400:mov2w
                      01642 ;;      1027
                      01643 ;;      1045  _F2   offset=3
0164   08??           01644         MOVF    (_F2 + 3),W
                      01645 ;;      708 register type nRegs=4
                      01646 ;;      2158 left AOP_REG
                      01647 ;; >>> ../../../../src/pic14/gen.c:2166:genCall
                      01648 ;; ***  popRegFromIdx,1059  , rIdx=0x7c
0165   00??           01649         MOVWF   STK03
                      01650 ;;; ../../../../src/pic14/gen.c:1357:mov2w_op *{*
                      01651 ;; ***  mov2w  1395  offset=0
                      01652 ;; >>> ../../../../src/pic14/gen.c:1400:mov2w
                      01653 ;;      1126 rIdx = r0x1069 
0166   0??? 0???      01654         BANKSEL r0x1031
0168   08??           01655         MOVF    r0x1031,W
                      01656 ;;      2158 left AOP_REG
                      01657 ;; >>> ../../../../src/pic14/gen.c:2166:genCall
                      01658 ;; ***  popRegFromIdx,1059  , rIdx=0x7d
0169   00??           01659         MOVWF   STK02
                      01660 ;;; ../../../../src/pic14/gen.c:1357:mov2w_op *{*
                      01661 ;; ***  mov2w  1395  offset=1
                      01662 ;; >>> ../../../../src/pic14/gen.c:1400:mov2w
                      01663 ;;      1126 rIdx = r0x106A 
016A   08??           01664         MOVF    r0x1030,W
                      01665 ;;      2158 left AOP_REG
                      01666 ;; >>> ../../../../src/pic14/gen.c:2166:genCall
                      01667 ;; ***  popRegFromIdx,1059  , rIdx=0x7e
016B   00??           01668         MOVWF   STK01
                      01669 ;;; ../../../../src/pic14/gen.c:1357:mov2w_op *{*
                      01670 ;; ***  mov2w  1395  offset=2
                      01671 ;; >>> ../../../../src/pic14/gen.c:1400:mov2w
                      01672 ;;      1126 rIdx = r0x106B 
016C   08??           01673         MOVF    r0x102F,W
                      01674 ;;      2158 left AOP_REG
                      01675 ;; >>> ../../../../src/pic14/gen.c:2166:genCall
                      01676 ;; ***  popRegFromIdx,1059  , rIdx=0x7f
016D   00??           01677         MOVWF   STK00
                      01678 ;;; ../../../../src/pic14/gen.c:1357:mov2w_op *{*
                      01679 ;; ***  mov2w  1395  offset=3
                      01680 ;; >>> ../../../../src/pic14/gen.c:1400:mov2w
                      01681 ;;      1126 rIdx = r0x106C 
016E   08??           01682         MOVF    r0x102E,W
                      01683 ;; >>> ../../../../src/pic14/gen.c:2207:genCall
016F   0??? 0???      01684         PAGESEL ___fsmul
                      01685 ;; >>> ../../../../src/pic14/gen.c:2215:genCall
gpasm-1.5.0 #1285 (Jul 12 2020) obj/sdcc-16f8   11/12/23  13:12:30          PAGE 33


LOC    OBJECT CODE    LINE  SOURCE TEXT
  VALUE

0171   2???           01686         CALL    ___fsmul
                      01687 ;; >>> ../../../../src/pic14/gen.c:2223:genCall
0172   0??? 0???      01688         PAGESEL $
                      01689 ;;      708 register type nRegs=4
                      01690 ;;; ../../../../src/pic14/gen.c:1929:assignResultValue *{*
                      01691 ;; ***  assignResultValue  1931
                      01692 ;;      line = 1933 result -=-, size=0, left AOP_REG=r0x1069, size=4, right -=-, size=0
                      01693 ;; >>> ../../../../src/pic14/gen.c:1407:movwf
                      01694 ;;      1126 rIdx = r0x106C 
0174   0??? 0???      01695         BANKSEL r0x102E
0176   00??           01696         MOVWF   r0x102E
                      01697 ;; >>> ../../../../src/pic14/gen.c:1437:get_returnvalue
                      01698 ;; ***  popRegFromIdx,1059  , rIdx=0x7f
0177   08??           01699         MOVF    STK00,W
                      01700 ;; >>> ../../../../src/pic14/gen.c:1407:movwf
                      01701 ;;      1126 rIdx = r0x106B 
0178   00??           01702         MOVWF   r0x102F
                      01703 ;; >>> ../../../../src/pic14/gen.c:1437:get_returnvalue
                      01704 ;; ***  popRegFromIdx,1059  , rIdx=0x7e
0179   08??           01705         MOVF    STK01,W
                      01706 ;; >>> ../../../../src/pic14/gen.c:1407:movwf
                      01707 ;;      1126 rIdx = r0x106A 
017A   00??           01708         MOVWF   r0x1030
                      01709 ;; >>> ../../../../src/pic14/gen.c:1437:get_returnvalue
                      01710 ;; ***  popRegFromIdx,1059  , rIdx=0x7d
017B   08??           01711         MOVF    STK02,W
                      01712 ;; >>> ../../../../src/pic14/gen.c:1407:movwf
                      01713 ;;      1126 rIdx = r0x1069 
017C   00??           01714         MOVWF   r0x1031
                      01715 ;;      2238 left AOP_REG
                      01716 ;;; ../../../../src/pic14/gen.c:2358:resultRemat *{*
                      01717 ;;; ../../../../src/pic14/gen.c:2358:resultRemat *{*
                      01718 ;;; ../../../../src/pic14/gen.c:2358:resultRemat *{*
                      01719 ;;; ../../../../src/pic14/gen.c:2108:genCall *{*
                      01720 ;; ***  genCall  2110
                      01721 ;; ***  aopForSym 324
                      01722 ;;      336 sym->rname = _F3, size = 4
                      01723 ;;      708 register type nRegs=4
                      01724 ;; ***  aopForSym 324
                      01725 ;;      336 sym->rname = _F3, size = 4
                      01726 ;;      2158 left AOP_DIR
                      01727 ;;; ../../../../src/pic14/gen.c:1357:mov2w_op *{*
                      01728 ;; ***  mov2w  1395  offset=0
                      01729 ;; >>> ../../../../src/pic14/gen.c:1400:mov2w
                      01730 ;;      1027
                      01731 ;;      1045  _F3   offset=0
017D   0??? 0???      01732         BANKSEL _F3
017F   08??           01733         MOVF    _F3,W
                      01734 ;;      2158 left AOP_DIR
                      01735 ;; >>> ../../../../src/pic14/gen.c:2166:genCall
                      01736 ;; ***  popRegFromIdx,1059  , rIdx=0x79
0180   00??           01737         MOVWF   STK06
                      01738 ;;; ../../../../src/pic14/gen.c:1357:mov2w_op *{*
gpasm-1.5.0 #1285 (Jul 12 2020) obj/sdcc-16f8   11/12/23  13:12:30          PAGE 34


LOC    OBJECT CODE    LINE  SOURCE TEXT
  VALUE

                      01739 ;; ***  mov2w  1395  offset=1
                      01740 ;; >>> ../../../../src/pic14/gen.c:1400:mov2w
                      01741 ;;      1027
                      01742 ;;      1045  _F3   offset=1
0181   08??           01743         MOVF    (_F3 + 1),W
                      01744 ;;      2158 left AOP_DIR
                      01745 ;; >>> ../../../../src/pic14/gen.c:2166:genCall
                      01746 ;; ***  popRegFromIdx,1059  , rIdx=0x7a
0182   00??           01747         MOVWF   STK05
                      01748 ;;; ../../../../src/pic14/gen.c:1357:mov2w_op *{*
                      01749 ;; ***  mov2w  1395  offset=2
                      01750 ;; >>> ../../../../src/pic14/gen.c:1400:mov2w
                      01751 ;;      1027
                      01752 ;;      1045  _F3   offset=2
0183   08??           01753         MOVF    (_F3 + 2),W
                      01754 ;;      2158 left AOP_DIR
                      01755 ;; >>> ../../../../src/pic14/gen.c:2166:genCall
                      01756 ;; ***  popRegFromIdx,1059  , rIdx=0x7b
0184   00??           01757         MOVWF   STK04
                      01758 ;;; ../../../../src/pic14/gen.c:1357:mov2w_op *{*
                      01759 ;; ***  mov2w  1395  offset=3
                      01760 ;; >>> ../../../../src/pic14/gen.c:1400:mov2w
                      01761 ;;      1027
                      01762 ;;      1045  _F3   offset=3
0185   08??           01763         MOVF    (_F3 + 3),W
                      01764 ;;      708 register type nRegs=4
                      01765 ;;      2158 left AOP_REG
                      01766 ;; >>> ../../../../src/pic14/gen.c:2166:genCall
                      01767 ;; ***  popRegFromIdx,1059  , rIdx=0x7c
0186   00??           01768         MOVWF   STK03
                      01769 ;;; ../../../../src/pic14/gen.c:1357:mov2w_op *{*
                      01770 ;; ***  mov2w  1395  offset=0
                      01771 ;; >>> ../../../../src/pic14/gen.c:1400:mov2w
                      01772 ;;      1126 rIdx = r0x1069 
0187   0??? 0???      01773         BANKSEL r0x1031
0189   08??           01774         MOVF    r0x1031,W
                      01775 ;;      2158 left AOP_REG
                      01776 ;; >>> ../../../../src/pic14/gen.c:2166:genCall
                      01777 ;; ***  popRegFromIdx,1059  , rIdx=0x7d
018A   00??           01778         MOVWF   STK02
                      01779 ;;; ../../../../src/pic14/gen.c:1357:mov2w_op *{*
                      01780 ;; ***  mov2w  1395  offset=1
                      01781 ;; >>> ../../../../src/pic14/gen.c:1400:mov2w
                      01782 ;;      1126 rIdx = r0x106A 
018B   08??           01783         MOVF    r0x1030,W
                      01784 ;;      2158 left AOP_REG
                      01785 ;; >>> ../../../../src/pic14/gen.c:2166:genCall
                      01786 ;; ***  popRegFromIdx,1059  , rIdx=0x7e
018C   00??           01787         MOVWF   STK01
                      01788 ;;; ../../../../src/pic14/gen.c:1357:mov2w_op *{*
                      01789 ;; ***  mov2w  1395  offset=2
                      01790 ;; >>> ../../../../src/pic14/gen.c:1400:mov2w
                      01791 ;;      1126 rIdx = r0x106B 
gpasm-1.5.0 #1285 (Jul 12 2020) obj/sdcc-16f8   11/12/23  13:12:30          PAGE 35


LOC    OBJECT CODE    LINE  SOURCE TEXT
  VALUE

018D   08??           01792         MOVF    r0x102F,W
                      01793 ;;      2158 left AOP_REG
                      01794 ;; >>> ../../../../src/pic14/gen.c:2166:genCall
                      01795 ;; ***  popRegFromIdx,1059  , rIdx=0x7f
018E   00??           01796         MOVWF   STK00
                      01797 ;;; ../../../../src/pic14/gen.c:1357:mov2w_op *{*
                      01798 ;; ***  mov2w  1395  offset=3
                      01799 ;; >>> ../../../../src/pic14/gen.c:1400:mov2w
                      01800 ;;      1126 rIdx = r0x106C 
018F   08??           01801         MOVF    r0x102E,W
                      01802 ;; >>> ../../../../src/pic14/gen.c:2207:genCall
0190   0??? 0???      01803         PAGESEL ___fsmul
                      01804 ;; >>> ../../../../src/pic14/gen.c:2215:genCall
0192   2???           01805         CALL    ___fsmul
                      01806 ;; >>> ../../../../src/pic14/gen.c:2223:genCall
0193   0??? 0???      01807         PAGESEL $
                      01808 ;;      708 register type nRegs=4
                      01809 ;;; ../../../../src/pic14/gen.c:1929:assignResultValue *{*
                      01810 ;; ***  assignResultValue  1931
                      01811 ;;      line = 1933 result -=-, size=0, left AOP_REG=r0x1069, size=4, right -=-, size=0
                      01812 ;; >>> ../../../../src/pic14/gen.c:1407:movwf
                      01813 ;;      1126 rIdx = r0x106C 
0195   0??? 0???      01814         BANKSEL r0x102E
0197   00??           01815         MOVWF   r0x102E
                      01816 ;; >>> ../../../../src/pic14/gen.c:1437:get_returnvalue
                      01817 ;; ***  popRegFromIdx,1059  , rIdx=0x7f
0198   08??           01818         MOVF    STK00,W
                      01819 ;; >>> ../../../../src/pic14/gen.c:1407:movwf
                      01820 ;;      1126 rIdx = r0x106B 
0199   00??           01821         MOVWF   r0x102F
                      01822 ;; >>> ../../../../src/pic14/gen.c:1437:get_returnvalue
                      01823 ;; ***  popRegFromIdx,1059  , rIdx=0x7e
019A   08??           01824         MOVF    STK01,W
                      01825 ;; >>> ../../../../src/pic14/gen.c:1407:movwf
                      01826 ;;      1126 rIdx = r0x106A 
019B   00??           01827         MOVWF   r0x1030
                      01828 ;; >>> ../../../../src/pic14/gen.c:1437:get_returnvalue
                      01829 ;; ***  popRegFromIdx,1059  , rIdx=0x7d
019C   08??           01830         MOVF    STK02,W
                      01831 ;; >>> ../../../../src/pic14/gen.c:1407:movwf
                      01832 ;;      1126 rIdx = r0x1069 
019D   00??           01833         MOVWF   r0x1031
                      01834 ;;      2238 left AOP_REG
                      01835 ;;; ../../../../src/pic14/gen.c:2358:resultRemat *{*
                      01836 ;;; ../../../../src/pic14/gen.c:2358:resultRemat *{*
                      01837 ;;; ../../../../src/pic14/gen.c:2358:resultRemat *{*
                      01838 ;;; ../../../../src/pic14/gen.c:2108:genCall *{*
                      01839 ;; ***  genCall  2110
                      01840 ;; ***  aopForSym 324
                      01841 ;;      336 sym->rname = _F3, size = 4
                      01842 ;;      708 register type nRegs=4
                      01843 ;; ***  aopForSym 324
                      01844 ;;      336 sym->rname = _F3, size = 4
gpasm-1.5.0 #1285 (Jul 12 2020) obj/sdcc-16f8   11/12/23  13:12:30          PAGE 36


LOC    OBJECT CODE    LINE  SOURCE TEXT
  VALUE

                      01845 ;;      2158 left AOP_DIR
                      01846 ;;; ../../../../src/pic14/gen.c:1357:mov2w_op *{*
                      01847 ;; ***  mov2w  1395  offset=0
                      01848 ;; >>> ../../../../src/pic14/gen.c:1400:mov2w
                      01849 ;;      1027
                      01850 ;;      1045  _F3   offset=0
019E   0??? 0???      01851         BANKSEL _F3
01A0   08??           01852         MOVF    _F3,W
                      01853 ;;      2158 left AOP_DIR
                      01854 ;; >>> ../../../../src/pic14/gen.c:2166:genCall
                      01855 ;; ***  popRegFromIdx,1059  , rIdx=0x79
01A1   00??           01856         MOVWF   STK06
                      01857 ;;; ../../../../src/pic14/gen.c:1357:mov2w_op *{*
                      01858 ;; ***  mov2w  1395  offset=1
                      01859 ;; >>> ../../../../src/pic14/gen.c:1400:mov2w
                      01860 ;;      1027
                      01861 ;;      1045  _F3   offset=1
01A2   08??           01862         MOVF    (_F3 + 1),W
                      01863 ;;      2158 left AOP_DIR
                      01864 ;; >>> ../../../../src/pic14/gen.c:2166:genCall
                      01865 ;; ***  popRegFromIdx,1059  , rIdx=0x7a
01A3   00??           01866         MOVWF   STK05
                      01867 ;;; ../../../../src/pic14/gen.c:1357:mov2w_op *{*
                      01868 ;; ***  mov2w  1395  offset=2
                      01869 ;; >>> ../../../../src/pic14/gen.c:1400:mov2w
                      01870 ;;      1027
                      01871 ;;      1045  _F3   offset=2
01A4   08??           01872         MOVF    (_F3 + 2),W
                      01873 ;;      2158 left AOP_DIR
                      01874 ;; >>> ../../../../src/pic14/gen.c:2166:genCall
                      01875 ;; ***  popRegFromIdx,1059  , rIdx=0x7b
01A5   00??           01876         MOVWF   STK04
                      01877 ;;; ../../../../src/pic14/gen.c:1357:mov2w_op *{*
                      01878 ;; ***  mov2w  1395  offset=3
                      01879 ;; >>> ../../../../src/pic14/gen.c:1400:mov2w
                      01880 ;;      1027
                      01881 ;;      1045  _F3   offset=3
01A6   08??           01882         MOVF    (_F3 + 3),W
                      01883 ;;      708 register type nRegs=4
                      01884 ;;      2158 left AOP_REG
                      01885 ;; >>> ../../../../src/pic14/gen.c:2166:genCall
                      01886 ;; ***  popRegFromIdx,1059  , rIdx=0x7c
01A7   00??           01887         MOVWF   STK03
                      01888 ;;; ../../../../src/pic14/gen.c:1357:mov2w_op *{*
                      01889 ;; ***  mov2w  1395  offset=0
                      01890 ;; >>> ../../../../src/pic14/gen.c:1400:mov2w
                      01891 ;;      1126 rIdx = r0x1069 
01A8   0??? 0???      01892         BANKSEL r0x1031
01AA   08??           01893         MOVF    r0x1031,W
                      01894 ;;      2158 left AOP_REG
                      01895 ;; >>> ../../../../src/pic14/gen.c:2166:genCall
                      01896 ;; ***  popRegFromIdx,1059  , rIdx=0x7d
01AB   00??           01897         MOVWF   STK02
gpasm-1.5.0 #1285 (Jul 12 2020) obj/sdcc-16f8   11/12/23  13:12:30          PAGE 37


LOC    OBJECT CODE    LINE  SOURCE TEXT
  VALUE

                      01898 ;;; ../../../../src/pic14/gen.c:1357:mov2w_op *{*
                      01899 ;; ***  mov2w  1395  offset=1
                      01900 ;; >>> ../../../../src/pic14/gen.c:1400:mov2w
                      01901 ;;      1126 rIdx = r0x106A 
01AC   08??           01902         MOVF    r0x1030,W
                      01903 ;;      2158 left AOP_REG
                      01904 ;; >>> ../../../../src/pic14/gen.c:2166:genCall
                      01905 ;; ***  popRegFromIdx,1059  , rIdx=0x7e
01AD   00??           01906         MOVWF   STK01
                      01907 ;;; ../../../../src/pic14/gen.c:1357:mov2w_op *{*
                      01908 ;; ***  mov2w  1395  offset=2
                      01909 ;; >>> ../../../../src/pic14/gen.c:1400:mov2w
                      01910 ;;      1126 rIdx = r0x106B 
01AE   08??           01911         MOVF    r0x102F,W
                      01912 ;;      2158 left AOP_REG
                      01913 ;; >>> ../../../../src/pic14/gen.c:2166:genCall
                      01914 ;; ***  popRegFromIdx,1059  , rIdx=0x7f
01AF   00??           01915         MOVWF   STK00
                      01916 ;;; ../../../../src/pic14/gen.c:1357:mov2w_op *{*
                      01917 ;; ***  mov2w  1395  offset=3
                      01918 ;; >>> ../../../../src/pic14/gen.c:1400:mov2w
                      01919 ;;      1126 rIdx = r0x106C 
01B0   08??           01920         MOVF    r0x102E,W
                      01921 ;; >>> ../../../../src/pic14/gen.c:2207:genCall
01B1   0??? 0???      01922         PAGESEL ___fsmul
                      01923 ;; >>> ../../../../src/pic14/gen.c:2215:genCall
01B3   2???           01924         CALL    ___fsmul
                      01925 ;; >>> ../../../../src/pic14/gen.c:2223:genCall
01B4   0??? 0???      01926         PAGESEL $
                      01927 ;;      708 register type nRegs=4
                      01928 ;;; ../../../../src/pic14/gen.c:1929:assignResultValue *{*
                      01929 ;; ***  assignResultValue  1931
                      01930 ;;      line = 1933 result -=-, size=0, left AOP_REG=r0x1069, size=4, right -=-, size=0
                      01931 ;; >>> ../../../../src/pic14/gen.c:1407:movwf
                      01932 ;;      1126 rIdx = r0x106C 
01B6   0??? 0???      01933         BANKSEL r0x102E
01B8   00??           01934         MOVWF   r0x102E
                      01935 ;; >>> ../../../../src/pic14/gen.c:1437:get_returnvalue
                      01936 ;; ***  popRegFromIdx,1059  , rIdx=0x7f
01B9   08??           01937         MOVF    STK00,W
                      01938 ;; >>> ../../../../src/pic14/gen.c:1407:movwf
                      01939 ;;      1126 rIdx = r0x106B 
01BA   00??           01940         MOVWF   r0x102F
                      01941 ;; >>> ../../../../src/pic14/gen.c:1437:get_returnvalue
                      01942 ;; ***  popRegFromIdx,1059  , rIdx=0x7e
01BB   08??           01943         MOVF    STK01,W
                      01944 ;; >>> ../../../../src/pic14/gen.c:1407:movwf
                      01945 ;;      1126 rIdx = r0x106A 
01BC   00??           01946         MOVWF   r0x1030
                      01947 ;; >>> ../../../../src/pic14/gen.c:1437:get_returnvalue
                      01948 ;; ***  popRegFromIdx,1059  , rIdx=0x7d
01BD   08??           01949         MOVF    STK02,W
                      01950 ;; >>> ../../../../src/pic14/gen.c:1407:movwf
gpasm-1.5.0 #1285 (Jul 12 2020) obj/sdcc-16f8   11/12/23  13:12:30          PAGE 38


LOC    OBJECT CODE    LINE  SOURCE TEXT
  VALUE

                      01951 ;;      1126 rIdx = r0x1069 
01BE   00??           01952         MOVWF   r0x1031
                      01953 ;;      2238 left AOP_REG
                      01954 ;;; ../../../../src/pic14/gen.c:2358:resultRemat *{*
                      01955 ;;; ../../../../src/pic14/gen.c:2358:resultRemat *{*
                      01956 ;;; ../../../../src/pic14/gen.c:2358:resultRemat *{*
                      01957 ;;; ../../../../src/pic14/gen.c:2108:genCall *{*
                      01958 ;; ***  genCall  2110
                      01959 ;; ***  aopForSym 324
                      01960 ;;      336 sym->rname = _CCal, size = 4
                      01961 ;;      708 register type nRegs=4
                      01962 ;; ***  aopForSym 324
                      01963 ;;      336 sym->rname = _CCal, size = 4
                      01964 ;;      2158 left AOP_DIR
                      01965 ;;; ../../../../src/pic14/gen.c:1357:mov2w_op *{*
                      01966 ;; ***  mov2w  1395  offset=0
                      01967 ;; >>> ../../../../src/pic14/gen.c:1400:mov2w
                      01968 ;;      1027
                      01969 ;;      1045  _CCal   offset=0
01BF   0??? 0???      01970         BANKSEL _CCal
01C1   08??           01971         MOVF    _CCal,W
                      01972 ;;      2158 left AOP_DIR
                      01973 ;; >>> ../../../../src/pic14/gen.c:2166:genCall
                      01974 ;; ***  popRegFromIdx,1059  , rIdx=0x79
01C2   00??           01975         MOVWF   STK06
                      01976 ;;; ../../../../src/pic14/gen.c:1357:mov2w_op *{*
                      01977 ;; ***  mov2w  1395  offset=1
                      01978 ;; >>> ../../../../src/pic14/gen.c:1400:mov2w
                      01979 ;;      1027
                      01980 ;;      1045  _CCal   offset=1
01C3   08??           01981         MOVF    (_CCal + 1),W
                      01982 ;;      2158 left AOP_DIR
                      01983 ;; >>> ../../../../src/pic14/gen.c:2166:genCall
                      01984 ;; ***  popRegFromIdx,1059  , rIdx=0x7a
01C4   00??           01985         MOVWF   STK05
                      01986 ;;; ../../../../src/pic14/gen.c:1357:mov2w_op *{*
                      01987 ;; ***  mov2w  1395  offset=2
                      01988 ;; >>> ../../../../src/pic14/gen.c:1400:mov2w
                      01989 ;;      1027
                      01990 ;;      1045  _CCal   offset=2
01C5   08??           01991         MOVF    (_CCal + 2),W
                      01992 ;;      2158 left AOP_DIR
                      01993 ;; >>> ../../../../src/pic14/gen.c:2166:genCall
                      01994 ;; ***  popRegFromIdx,1059  , rIdx=0x7b
01C6   00??           01995         MOVWF   STK04
                      01996 ;;; ../../../../src/pic14/gen.c:1357:mov2w_op *{*
                      01997 ;; ***  mov2w  1395  offset=3
                      01998 ;; >>> ../../../../src/pic14/gen.c:1400:mov2w
                      01999 ;;      1027
                      02000 ;;      1045  _CCal   offset=3
01C7   08??           02001         MOVF    (_CCal + 3),W
                      02002 ;;      708 register type nRegs=4
                      02003 ;;      2158 left AOP_REG
gpasm-1.5.0 #1285 (Jul 12 2020) obj/sdcc-16f8   11/12/23  13:12:30          PAGE 39


LOC    OBJECT CODE    LINE  SOURCE TEXT
  VALUE

                      02004 ;; >>> ../../../../src/pic14/gen.c:2166:genCall
                      02005 ;; ***  popRegFromIdx,1059  , rIdx=0x7c
01C8   00??           02006         MOVWF   STK03
                      02007 ;;; ../../../../src/pic14/gen.c:1357:mov2w_op *{*
                      02008 ;; ***  mov2w  1395  offset=0
                      02009 ;; >>> ../../../../src/pic14/gen.c:1400:mov2w
                      02010 ;;      1126 rIdx = r0x1069 
01C9   0??? 0???      02011         BANKSEL r0x1031
01CB   08??           02012         MOVF    r0x1031,W
                      02013 ;;      2158 left AOP_REG
                      02014 ;; >>> ../../../../src/pic14/gen.c:2166:genCall
                      02015 ;; ***  popRegFromIdx,1059  , rIdx=0x7d
01CC   00??           02016         MOVWF   STK02
                      02017 ;;; ../../../../src/pic14/gen.c:1357:mov2w_op *{*
                      02018 ;; ***  mov2w  1395  offset=1
                      02019 ;; >>> ../../../../src/pic14/gen.c:1400:mov2w
                      02020 ;;      1126 rIdx = r0x106A 
01CD   08??           02021         MOVF    r0x1030,W
                      02022 ;;      2158 left AOP_REG
                      02023 ;; >>> ../../../../src/pic14/gen.c:2166:genCall
                      02024 ;; ***  popRegFromIdx,1059  , rIdx=0x7e
01CE   00??           02025         MOVWF   STK01
                      02026 ;;; ../../../../src/pic14/gen.c:1357:mov2w_op *{*
                      02027 ;; ***  mov2w  1395  offset=2
                      02028 ;; >>> ../../../../src/pic14/gen.c:1400:mov2w
                      02029 ;;      1126 rIdx = r0x106B 
01CF   08??           02030         MOVF    r0x102F,W
                      02031 ;;      2158 left AOP_REG
                      02032 ;; >>> ../../../../src/pic14/gen.c:2166:genCall
                      02033 ;; ***  popRegFromIdx,1059  , rIdx=0x7f
01D0   00??           02034         MOVWF   STK00
                      02035 ;;; ../../../../src/pic14/gen.c:1357:mov2w_op *{*
                      02036 ;; ***  mov2w  1395  offset=3
                      02037 ;; >>> ../../../../src/pic14/gen.c:1400:mov2w
                      02038 ;;      1126 rIdx = r0x106C 
01D1   08??           02039         MOVF    r0x102E,W
                      02040 ;; >>> ../../../../src/pic14/gen.c:2207:genCall
01D2   0??? 0???      02041         PAGESEL ___fsmul
                      02042 ;; >>> ../../../../src/pic14/gen.c:2215:genCall
01D4   2???           02043         CALL    ___fsmul
                      02044 ;; >>> ../../../../src/pic14/gen.c:2223:genCall
01D5   0??? 0???      02045         PAGESEL $
                      02046 ;;      708 register type nRegs=4
                      02047 ;;; ../../../../src/pic14/gen.c:1929:assignResultValue *{*
                      02048 ;; ***  assignResultValue  1931
                      02049 ;;      line = 1933 result -=-, size=0, left AOP_REG=r0x1069, size=4, right -=-, size=0
                      02050 ;; >>> ../../../../src/pic14/gen.c:1407:movwf
                      02051 ;;      1126 rIdx = r0x106C 
01D7   0??? 0???      02052         BANKSEL r0x102E
01D9   00??           02053         MOVWF   r0x102E
                      02054 ;; >>> ../../../../src/pic14/gen.c:1437:get_returnvalue
                      02055 ;; ***  popRegFromIdx,1059  , rIdx=0x7f
01DA   08??           02056         MOVF    STK00,W
gpasm-1.5.0 #1285 (Jul 12 2020) obj/sdcc-16f8   11/12/23  13:12:30          PAGE 40


LOC    OBJECT CODE    LINE  SOURCE TEXT
  VALUE

                      02057 ;; >>> ../../../../src/pic14/gen.c:1407:movwf
                      02058 ;;      1126 rIdx = r0x106B 
01DB   00??           02059         MOVWF   r0x102F
                      02060 ;; >>> ../../../../src/pic14/gen.c:1437:get_returnvalue
                      02061 ;; ***  popRegFromIdx,1059  , rIdx=0x7e
01DC   08??           02062         MOVF    STK01,W
                      02063 ;; >>> ../../../../src/pic14/gen.c:1407:movwf
                      02064 ;;      1126 rIdx = r0x106A 
01DD   00??           02065         MOVWF   r0x1030
                      02066 ;; >>> ../../../../src/pic14/gen.c:1437:get_returnvalue
                      02067 ;; ***  popRegFromIdx,1059  , rIdx=0x7d
01DE   08??           02068         MOVF    STK02,W
                      02069 ;; >>> ../../../../src/pic14/gen.c:1407:movwf
                      02070 ;;      1126 rIdx = r0x1069 
                      02071         .line   235; "src/measure.c"    Lin = (numerator / denominator) * 1e+15l; // scale to nH { pF/1e
                            +12 * nH/1e+09 * (s/1e+03)^2 }
01DF   00??           02072         MOVWF   r0x1031
01E0   00??           02073         MOVWF   STK06
                      02074 ;;; ../../../../src/pic14/gen.c:1357:mov2w_op *{*
                      02075 ;; ***  mov2w  1395  offset=1
                      02076 ;; >>> ../../../../src/pic14/gen.c:1400:mov2w
                      02077 ;;      1126 rIdx = r0x106A 
01E1   08??           02078         MOVF    r0x1030,W
                      02079 ;;      2158 left AOP_REG
                      02080 ;; >>> ../../../../src/pic14/gen.c:2166:genCall
                      02081 ;; ***  popRegFromIdx,1059  , rIdx=0x7a
01E2   00??           02082         MOVWF   STK05
                      02083 ;;; ../../../../src/pic14/gen.c:1357:mov2w_op *{*
                      02084 ;; ***  mov2w  1395  offset=2
                      02085 ;; >>> ../../../../src/pic14/gen.c:1400:mov2w
                      02086 ;;      1126 rIdx = r0x106B 
01E3   08??           02087         MOVF    r0x102F,W
                      02088 ;;      2158 left AOP_REG
                      02089 ;; >>> ../../../../src/pic14/gen.c:2166:genCall
                      02090 ;; ***  popRegFromIdx,1059  , rIdx=0x7b
01E4   00??           02091         MOVWF   STK04
                      02092 ;;; ../../../../src/pic14/gen.c:1357:mov2w_op *{*
                      02093 ;; ***  mov2w  1395  offset=3
                      02094 ;; >>> ../../../../src/pic14/gen.c:1400:mov2w
                      02095 ;;      1126 rIdx = r0x106C 
01E5   08??           02096         MOVF    r0x102E,W
                      02097 ;;      708 register type nRegs=4
                      02098 ;;      2158 left AOP_REG
                      02099 ;; >>> ../../../../src/pic14/gen.c:2166:genCall
                      02100 ;; ***  popRegFromIdx,1059  , rIdx=0x7c
01E6   00??           02101         MOVWF   STK03
                      02102 ;;; ../../../../src/pic14/gen.c:1357:mov2w_op *{*
                      02103 ;; ***  mov2w  1395  offset=0
                      02104 ;; >>> ../../../../src/pic14/gen.c:1400:mov2w
                      02105 ;;      1126 rIdx = r0x1065 
01E7   08??           02106         MOVF    r0x102B,W
                      02107 ;;      2158 left AOP_REG
                      02108 ;; >>> ../../../../src/pic14/gen.c:2166:genCall
gpasm-1.5.0 #1285 (Jul 12 2020) obj/sdcc-16f8   11/12/23  13:12:30          PAGE 41


LOC    OBJECT CODE    LINE  SOURCE TEXT
  VALUE

                      02109 ;; ***  popRegFromIdx,1059  , rIdx=0x7d
01E8   00??           02110         MOVWF   STK02
                      02111 ;;; ../../../../src/pic14/gen.c:1357:mov2w_op *{*
                      02112 ;; ***  mov2w  1395  offset=1
                      02113 ;; >>> ../../../../src/pic14/gen.c:1400:mov2w
                      02114 ;;      1126 rIdx = r0x1066 
01E9   08??           02115         MOVF    r0x102A,W
                      02116 ;;      2158 left AOP_REG
                      02117 ;; >>> ../../../../src/pic14/gen.c:2166:genCall
                      02118 ;; ***  popRegFromIdx,1059  , rIdx=0x7e
01EA   00??           02119         MOVWF   STK01
                      02120 ;;; ../../../../src/pic14/gen.c:1357:mov2w_op *{*
                      02121 ;; ***  mov2w  1395  offset=2
                      02122 ;; >>> ../../../../src/pic14/gen.c:1400:mov2w
                      02123 ;;      1126 rIdx = r0x1067 
01EB   08??           02124         MOVF    r0x102C,W
                      02125 ;;      2158 left AOP_REG
                      02126 ;; >>> ../../../../src/pic14/gen.c:2166:genCall
                      02127 ;; ***  popRegFromIdx,1059  , rIdx=0x7f
01EC   00??           02128         MOVWF   STK00
                      02129 ;;; ../../../../src/pic14/gen.c:1357:mov2w_op *{*
                      02130 ;; ***  mov2w  1395  offset=3
                      02131 ;; >>> ../../../../src/pic14/gen.c:1400:mov2w
                      02132 ;;      1126 rIdx = r0x1068 
01ED   08??           02133         MOVF    r0x102D,W
                      02134 ;; >>> ../../../../src/pic14/gen.c:2207:genCall
01EE   0??? 0???      02135         PAGESEL ___fsdiv
                      02136 ;; >>> ../../../../src/pic14/gen.c:2215:genCall
01F0   2???           02137         CALL    ___fsdiv
                      02138 ;; >>> ../../../../src/pic14/gen.c:2223:genCall
01F1   0??? 0???      02139         PAGESEL $
                      02140 ;;      708 register type nRegs=4
                      02141 ;;; ../../../../src/pic14/gen.c:1929:assignResultValue *{*
                      02142 ;; ***  assignResultValue  1931
                      02143 ;;      line = 1933 result -=-, size=0, left AOP_REG=r0x1065, size=4, right -=-, size=0
                      02144 ;; >>> ../../../../src/pic14/gen.c:1407:movwf
                      02145 ;;      1126 rIdx = r0x1068 
01F3   0??? 0???      02146         BANKSEL r0x102D
01F5   00??           02147         MOVWF   r0x102D
                      02148 ;; >>> ../../../../src/pic14/gen.c:1437:get_returnvalue
                      02149 ;; ***  popRegFromIdx,1059  , rIdx=0x7f
01F6   08??           02150         MOVF    STK00,W
                      02151 ;; >>> ../../../../src/pic14/gen.c:1407:movwf
                      02152 ;;      1126 rIdx = r0x1067 
01F7   00??           02153         MOVWF   r0x102C
                      02154 ;; >>> ../../../../src/pic14/gen.c:1437:get_returnvalue
                      02155 ;; ***  popRegFromIdx,1059  , rIdx=0x7e
01F8   08??           02156         MOVF    STK01,W
                      02157 ;; >>> ../../../../src/pic14/gen.c:1407:movwf
                      02158 ;;      1126 rIdx = r0x1066 
01F9   00??           02159         MOVWF   r0x102A
                      02160 ;; >>> ../../../../src/pic14/gen.c:1437:get_returnvalue
                      02161 ;; ***  popRegFromIdx,1059  , rIdx=0x7d
gpasm-1.5.0 #1285 (Jul 12 2020) obj/sdcc-16f8   11/12/23  13:12:30          PAGE 42


LOC    OBJECT CODE    LINE  SOURCE TEXT
  VALUE

01FA   08??           02162         MOVF    STK02,W
                      02163 ;; >>> ../../../../src/pic14/gen.c:1407:movwf
                      02164 ;;      1126 rIdx = r0x1065 
01FB   00??           02165         MOVWF   r0x102B
01FC   00??           02166         MOVWF   STK06
                      02167 ;;; ../../../../src/pic14/gen.c:1357:mov2w_op *{*
                      02168 ;; ***  mov2w  1395  offset=1
                      02169 ;; >>> ../../../../src/pic14/gen.c:1400:mov2w
                      02170 ;;      1126 rIdx = r0x1066 
01FD   08??           02171         MOVF    r0x102A,W
                      02172 ;;      2158 left AOP_REG
                      02173 ;; >>> ../../../../src/pic14/gen.c:2166:genCall
                      02174 ;; ***  popRegFromIdx,1059  , rIdx=0x7a
01FE   00??           02175         MOVWF   STK05
                      02176 ;;; ../../../../src/pic14/gen.c:1357:mov2w_op *{*
                      02177 ;; ***  mov2w  1395  offset=2
                      02178 ;; >>> ../../../../src/pic14/gen.c:1400:mov2w
                      02179 ;;      1126 rIdx = r0x1067 
01FF   08??           02180         MOVF    r0x102C,W
                      02181 ;;      2158 left AOP_REG
                      02182 ;; >>> ../../../../src/pic14/gen.c:2166:genCall
                      02183 ;; ***  popRegFromIdx,1059  , rIdx=0x7b
0200   00??           02184         MOVWF   STK04
                      02185 ;;; ../../../../src/pic14/gen.c:1357:mov2w_op *{*
                      02186 ;; ***  mov2w  1395  offset=3
                      02187 ;; >>> ../../../../src/pic14/gen.c:1400:mov2w
                      02188 ;;      1126 rIdx = r0x1068 
0201   08??           02189         MOVF    r0x102D,W
                      02190 ;;      2158 left AOP_LIT
                      02191 ;; >>> ../../../../src/pic14/gen.c:2166:genCall
                      02192 ;; ***  popRegFromIdx,1059  , rIdx=0x7c
0202   00??           02193         MOVWF   STK03
                      02194 ;;; ../../../../src/pic14/gen.c:1357:mov2w_op *{*
                      02195 ;; >>> ../../../../src/pic14/gen.c:1375:mov2w_op
0203   30A9           02196         MOVLW   0xa9
                      02197 ;;      2158 left AOP_LIT
                      02198 ;; >>> ../../../../src/pic14/gen.c:2166:genCall
                      02199 ;; ***  popRegFromIdx,1059  , rIdx=0x7d
0204   00??           02200         MOVWF   STK02
                      02201 ;;; ../../../../src/pic14/gen.c:1357:mov2w_op *{*
                      02202 ;; >>> ../../../../src/pic14/gen.c:1375:mov2w_op
0205   305F           02203         MOVLW   0x5f
                      02204 ;;      2158 left AOP_LIT
                      02205 ;; >>> ../../../../src/pic14/gen.c:2166:genCall
                      02206 ;; ***  popRegFromIdx,1059  , rIdx=0x7e
0206   00??           02207         MOVWF   STK01
                      02208 ;;; ../../../../src/pic14/gen.c:1357:mov2w_op *{*
                      02209 ;; >>> ../../../../src/pic14/gen.c:1375:mov2w_op
0207   3063           02210         MOVLW   0x63
                      02211 ;;      2158 left AOP_LIT
                      02212 ;; >>> ../../../../src/pic14/gen.c:2166:genCall
                      02213 ;; ***  popRegFromIdx,1059  , rIdx=0x7f
0208   00??           02214         MOVWF   STK00
gpasm-1.5.0 #1285 (Jul 12 2020) obj/sdcc-16f8   11/12/23  13:12:30          PAGE 43


LOC    OBJECT CODE    LINE  SOURCE TEXT
  VALUE

                      02215 ;;; ../../../../src/pic14/gen.c:1357:mov2w_op *{*
                      02216 ;; >>> ../../../../src/pic14/gen.c:1375:mov2w_op
0209   3058           02217         MOVLW   0x58
                      02218 ;; >>> ../../../../src/pic14/gen.c:2207:genCall
020A   0??? 0???      02219         PAGESEL ___fsmul
                      02220 ;; >>> ../../../../src/pic14/gen.c:2215:genCall
020C   2???           02221         CALL    ___fsmul
                      02222 ;; >>> ../../../../src/pic14/gen.c:2223:genCall
020D   0??? 0???      02223         PAGESEL $
                      02224 ;;      708 register type nRegs=4
                      02225 ;;; ../../../../src/pic14/gen.c:1929:assignResultValue *{*
                      02226 ;; ***  assignResultValue  1931
                      02227 ;;      line = 1933 result -=-, size=0, left AOP_REG=r0x1065, size=4, right -=-, size=0
                      02228 ;; >>> ../../../../src/pic14/gen.c:1407:movwf
                      02229 ;;      1126 rIdx = r0x1068 
020F   0??? 0???      02230         BANKSEL r0x102D
0211   00??           02231         MOVWF   r0x102D
                      02232 ;; >>> ../../../../src/pic14/gen.c:1437:get_returnvalue
                      02233 ;; ***  popRegFromIdx,1059  , rIdx=0x7f
0212   08??           02234         MOVF    STK00,W
                      02235 ;; >>> ../../../../src/pic14/gen.c:1407:movwf
                      02236 ;;      1126 rIdx = r0x1067 
0213   00??           02237         MOVWF   r0x102C
                      02238 ;; >>> ../../../../src/pic14/gen.c:1437:get_returnvalue
                      02239 ;; ***  popRegFromIdx,1059  , rIdx=0x7e
0214   08??           02240         MOVF    STK01,W
                      02241 ;; >>> ../../../../src/pic14/gen.c:1407:movwf
                      02242 ;;      1126 rIdx = r0x1066 
0215   00??           02243         MOVWF   r0x102A
                      02244 ;; >>> ../../../../src/pic14/gen.c:1437:get_returnvalue
                      02245 ;; ***  popRegFromIdx,1059  , rIdx=0x7d
0216   08??           02246         MOVF    STK02,W
                      02247 ;; >>> ../../../../src/pic14/gen.c:1407:movwf
                      02248 ;;      1126 rIdx = r0x1065 
                      02249         .line   237; "src/measure.c"    if(Lin > 999) {
0217   00??           02250         MOVWF   r0x102B
0218   00??           02251         MOVWF   STK06
                      02252 ;;; ../../../../src/pic14/gen.c:1357:mov2w_op *{*
                      02253 ;; ***  mov2w  1395  offset=1
                      02254 ;; >>> ../../../../src/pic14/gen.c:1400:mov2w
                      02255 ;;      1126 rIdx = r0x1066 
0219   08??           02256         MOVF    r0x102A,W
                      02257 ;;      2158 left AOP_REG
                      02258 ;; >>> ../../../../src/pic14/gen.c:2166:genCall
                      02259 ;; ***  popRegFromIdx,1059  , rIdx=0x7a
021A   00??           02260         MOVWF   STK05
                      02261 ;;; ../../../../src/pic14/gen.c:1357:mov2w_op *{*
                      02262 ;; ***  mov2w  1395  offset=2
                      02263 ;; >>> ../../../../src/pic14/gen.c:1400:mov2w
                      02264 ;;      1126 rIdx = r0x1067 
021B   08??           02265         MOVF    r0x102C,W
                      02266 ;;      2158 left AOP_REG
                      02267 ;; >>> ../../../../src/pic14/gen.c:2166:genCall
gpasm-1.5.0 #1285 (Jul 12 2020) obj/sdcc-16f8   11/12/23  13:12:30          PAGE 44


LOC    OBJECT CODE    LINE  SOURCE TEXT
  VALUE

                      02268 ;; ***  popRegFromIdx,1059  , rIdx=0x7b
021C   00??           02269         MOVWF   STK04
                      02270 ;;; ../../../../src/pic14/gen.c:1357:mov2w_op *{*
                      02271 ;; ***  mov2w  1395  offset=3
                      02272 ;; >>> ../../../../src/pic14/gen.c:1400:mov2w
                      02273 ;;      1126 rIdx = r0x1068 
021D   08??           02274         MOVF    r0x102D,W
                      02275 ;;      2158 left AOP_LIT
                      02276 ;; >>> ../../../../src/pic14/gen.c:2166:genCall
                      02277 ;; ***  popRegFromIdx,1059  , rIdx=0x7c
021E   00??           02278         MOVWF   STK03
                      02279 ;;; ../../../../src/pic14/gen.c:1357:mov2w_op *{*
                      02280 ;; >>> ../../../../src/pic14/gen.c:1375:mov2w_op
021F   3000           02281         MOVLW   0x00
                      02282 ;;      2158 left AOP_LIT
                      02283 ;; >>> ../../../../src/pic14/gen.c:2166:genCall
                      02284 ;; ***  popRegFromIdx,1059  , rIdx=0x7d
0220   00??           02285         MOVWF   STK02
                      02286 ;;; ../../../../src/pic14/gen.c:1357:mov2w_op *{*
                      02287 ;; >>> ../../../../src/pic14/gen.c:1375:mov2w_op
0221   30C0           02288         MOVLW   0xc0
                      02289 ;;      2158 left AOP_LIT
                      02290 ;; >>> ../../../../src/pic14/gen.c:2166:genCall
                      02291 ;; ***  popRegFromIdx,1059  , rIdx=0x7e
0222   00??           02292         MOVWF   STK01
                      02293 ;;; ../../../../src/pic14/gen.c:1357:mov2w_op *{*
                      02294 ;; >>> ../../../../src/pic14/gen.c:1375:mov2w_op
0223   3079           02295         MOVLW   0x79
                      02296 ;;      2158 left AOP_LIT
                      02297 ;; >>> ../../../../src/pic14/gen.c:2166:genCall
                      02298 ;; ***  popRegFromIdx,1059  , rIdx=0x7f
0224   00??           02299         MOVWF   STK00
                      02300 ;;; ../../../../src/pic14/gen.c:1357:mov2w_op *{*
                      02301 ;; >>> ../../../../src/pic14/gen.c:1375:mov2w_op
0225   3044           02302         MOVLW   0x44
                      02303 ;; >>> ../../../../src/pic14/gen.c:2207:genCall
0226   0??? 0???      02304         PAGESEL ___fslt
                      02305 ;; >>> ../../../../src/pic14/gen.c:2215:genCall
0228   2???           02306         CALL    ___fslt
                      02307 ;; >>> ../../../../src/pic14/gen.c:2223:genCall
0229   0??? 0???      02308         PAGESEL $
                      02309 ;;      708 register type nRegs=1
                      02310 ;;; ../../../../src/pic14/gen.c:1929:assignResultValue *{*
                      02311 ;; ***  assignResultValue  1931
                      02312 ;;      line = 1933 result -=-, size=0, left AOP_REG=r0x1069, size=1, right -=-, size=0
                      02313 ;; >>> ../../../../src/pic14/gen.c:1407:movwf
                      02314 ;;      1126 rIdx = r0x1069 
022B   0??? 0???      02315         BANKSEL r0x1031
022D   00??           02316         MOVWF   r0x1031
                      02317 ;;      2238 left AOP_REG
                      02318 ;;; ../../../../src/pic14/gen.c:2358:resultRemat *{*
                      02319 ;;; ../../../../src/pic14/gen.c:6991:genIfx *{*
                      02320 ;; ***  genIfx  6992
gpasm-1.5.0 #1285 (Jul 12 2020) obj/sdcc-16f8   11/12/23  13:12:30          PAGE 45


LOC    OBJECT CODE    LINE  SOURCE TEXT
  VALUE

                      02321 ;;      708 register type nRegs=1
                      02322 ;; ***  pic14_toBoolean  1515
                      02323 ;; ***  mov2w  1395  offset=0
                      02324 ;; >>> ../../../../src/pic14/gen.c:1400:mov2w
                      02325 ;;      1126 rIdx = r0x1069 
022E   08??           02326         MOVF    r0x1031,W
                      02327 ;; >>> ../../../../src/pic14/gen.c:7045:genIfx
022F   1903           02328         BTFSC   STATUS,2
                      02329 ;; >>> ../../../../src/pic14/gen.c:7046:genIfx
                      02330 ;; ***  popGetLabel  key=10, label offset 33
0230   2???           02331         GOTO    _00143_DS_
                      02332 ;;; ../../../../src/pic14/gen.c:2358:resultRemat *{*
                      02333 ;;; ../../../../src/pic14/gen.c:2358:resultRemat *{*
                      02334 ;;; ../../../../src/pic14/gen.c:2358:resultRemat *{*
                      02335 ;;; ../../../../src/pic14/gen.c:2108:genCall *{*
                      02336 ;; ***  genCall  2110
                      02337 ;;      708 register type nRegs=4
                      02338 ;;      708 register type nRegs=4
                      02339 ;;      2158 left AOP_REG
                      02340 ;;; ../../../../src/pic14/gen.c:1357:mov2w_op *{*
                      02341 ;; ***  mov2w  1395  offset=0
                      02342 ;; >>> ../../../../src/pic14/gen.c:1400:mov2w
                      02343 ;;      1126 rIdx = r0x1065 
                      02344         .line   238; "src/measure.c"    if(Lin > (999e+03l)) {
0231   08??           02345         MOVF    r0x102B,W
                      02346 ;;      2158 left AOP_REG
                      02347 ;; >>> ../../../../src/pic14/gen.c:2166:genCall
                      02348 ;; ***  popRegFromIdx,1059  , rIdx=0x79
0232   00??           02349         MOVWF   STK06
                      02350 ;;; ../../../../src/pic14/gen.c:1357:mov2w_op *{*
                      02351 ;; ***  mov2w  1395  offset=1
                      02352 ;; >>> ../../../../src/pic14/gen.c:1400:mov2w
                      02353 ;;      1126 rIdx = r0x1066 
0233   08??           02354         MOVF    r0x102A,W
                      02355 ;;      2158 left AOP_REG
                      02356 ;; >>> ../../../../src/pic14/gen.c:2166:genCall
                      02357 ;; ***  popRegFromIdx,1059  , rIdx=0x7a
0234   00??           02358         MOVWF   STK05
                      02359 ;;; ../../../../src/pic14/gen.c:1357:mov2w_op *{*
                      02360 ;; ***  mov2w  1395  offset=2
                      02361 ;; >>> ../../../../src/pic14/gen.c:1400:mov2w
                      02362 ;;      1126 rIdx = r0x1067 
0235   08??           02363         MOVF    r0x102C,W
                      02364 ;;      2158 left AOP_REG
                      02365 ;; >>> ../../../../src/pic14/gen.c:2166:genCall
                      02366 ;; ***  popRegFromIdx,1059  , rIdx=0x7b
0236   00??           02367         MOVWF   STK04
                      02368 ;;; ../../../../src/pic14/gen.c:1357:mov2w_op *{*
                      02369 ;; ***  mov2w  1395  offset=3
                      02370 ;; >>> ../../../../src/pic14/gen.c:1400:mov2w
                      02371 ;;      1126 rIdx = r0x1068 
0237   08??           02372         MOVF    r0x102D,W
                      02373 ;;      2158 left AOP_LIT
gpasm-1.5.0 #1285 (Jul 12 2020) obj/sdcc-16f8   11/12/23  13:12:30          PAGE 46


LOC    OBJECT CODE    LINE  SOURCE TEXT
  VALUE

                      02374 ;; >>> ../../../../src/pic14/gen.c:2166:genCall
                      02375 ;; ***  popRegFromIdx,1059  , rIdx=0x7c
0238   00??           02376         MOVWF   STK03
                      02377 ;;; ../../../../src/pic14/gen.c:1357:mov2w_op *{*
                      02378 ;; >>> ../../../../src/pic14/gen.c:1375:mov2w_op
0239   3080           02379         MOVLW   0x80
                      02380 ;;      2158 left AOP_LIT
                      02381 ;; >>> ../../../../src/pic14/gen.c:2166:genCall
                      02382 ;; ***  popRegFromIdx,1059  , rIdx=0x7d
023A   00??           02383         MOVWF   STK02
                      02384 ;;; ../../../../src/pic14/gen.c:1357:mov2w_op *{*
                      02385 ;; >>> ../../../../src/pic14/gen.c:1375:mov2w_op
023B   30E5           02386         MOVLW   0xe5
                      02387 ;;      2158 left AOP_LIT
                      02388 ;; >>> ../../../../src/pic14/gen.c:2166:genCall
                      02389 ;; ***  popRegFromIdx,1059  , rIdx=0x7e
023C   00??           02390         MOVWF   STK01
                      02391 ;;; ../../../../src/pic14/gen.c:1357:mov2w_op *{*
                      02392 ;; >>> ../../../../src/pic14/gen.c:1375:mov2w_op
023D   3073           02393         MOVLW   0x73
                      02394 ;;      2158 left AOP_LIT
                      02395 ;; >>> ../../../../src/pic14/gen.c:2166:genCall
                      02396 ;; ***  popRegFromIdx,1059  , rIdx=0x7f
023E   00??           02397         MOVWF   STK00
                      02398 ;;; ../../../../src/pic14/gen.c:1357:mov2w_op *{*
                      02399 ;; >>> ../../../../src/pic14/gen.c:1375:mov2w_op
023F   3049           02400         MOVLW   0x49
                      02401 ;; >>> ../../../../src/pic14/gen.c:2207:genCall
0240   0??? 0???      02402         PAGESEL ___fslt
                      02403 ;; >>> ../../../../src/pic14/gen.c:2215:genCall
0242   2???           02404         CALL    ___fslt
                      02405 ;; >>> ../../../../src/pic14/gen.c:2223:genCall
0243   0??? 0???      02406         PAGESEL $
                      02407 ;;      708 register type nRegs=1
                      02408 ;;; ../../../../src/pic14/gen.c:1929:assignResultValue *{*
                      02409 ;; ***  assignResultValue  1931
                      02410 ;;      line = 1933 result -=-, size=0, left AOP_REG=r0x1069, size=1, right -=-, size=0
                      02411 ;; >>> ../../../../src/pic14/gen.c:1407:movwf
                      02412 ;;      1126 rIdx = r0x1069 
0245   0??? 0???      02413         BANKSEL r0x1031
0247   00??           02414         MOVWF   r0x1031
                      02415 ;;      2238 left AOP_REG
                      02416 ;;; ../../../../src/pic14/gen.c:2358:resultRemat *{*
                      02417 ;;; ../../../../src/pic14/gen.c:6991:genIfx *{*
                      02418 ;; ***  genIfx  6992
                      02419 ;;      708 register type nRegs=1
                      02420 ;; ***  pic14_toBoolean  1515
                      02421 ;; ***  mov2w  1395  offset=0
                      02422 ;; >>> ../../../../src/pic14/gen.c:1400:mov2w
                      02423 ;;      1126 rIdx = r0x1069 
0248   08??           02424         MOVF    r0x1031,W
                      02425 ;; >>> ../../../../src/pic14/gen.c:7045:genIfx
0249   1903           02426         BTFSC   STATUS,2
gpasm-1.5.0 #1285 (Jul 12 2020) obj/sdcc-16f8   11/12/23  13:12:30          PAGE 47


LOC    OBJECT CODE    LINE  SOURCE TEXT
  VALUE

                      02427 ;; >>> ../../../../src/pic14/gen.c:7046:genIfx
                      02428 ;; ***  popGetLabel  key=7, label offset 33
024A   2???           02429         GOTO    _00140_DS_
                      02430 ;;; ../../../../src/pic14/gen.c:2358:resultRemat *{*
                      02431 ;;; ../../../../src/pic14/gen.c:2358:resultRemat *{*
                      02432 ;;; ../../../../src/pic14/gen.c:2358:resultRemat *{*
                      02433 ;;; ../../../../src/pic14/gen.c:2108:genCall *{*
                      02434 ;; ***  genCall  2110
                      02435 ;;      708 register type nRegs=4
                      02436 ;;      708 register type nRegs=4
                      02437 ;;      2158 left AOP_REG
                      02438 ;;; ../../../../src/pic14/gen.c:1357:mov2w_op *{*
                      02439 ;; ***  mov2w  1395  offset=0
                      02440 ;; >>> ../../../../src/pic14/gen.c:1400:mov2w
                      02441 ;;      1126 rIdx = r0x1065 
                      02442         .line   239; "src/measure.c"    if(Lin > (999e+06l)) {
024B   08??           02443         MOVF    r0x102B,W
                      02444 ;;      2158 left AOP_REG
                      02445 ;; >>> ../../../../src/pic14/gen.c:2166:genCall
                      02446 ;; ***  popRegFromIdx,1059  , rIdx=0x79
024C   00??           02447         MOVWF   STK06
                      02448 ;;; ../../../../src/pic14/gen.c:1357:mov2w_op *{*
                      02449 ;; ***  mov2w  1395  offset=1
                      02450 ;; >>> ../../../../src/pic14/gen.c:1400:mov2w
                      02451 ;;      1126 rIdx = r0x1066 
024D   08??           02452         MOVF    r0x102A,W
                      02453 ;;      2158 left AOP_REG
                      02454 ;; >>> ../../../../src/pic14/gen.c:2166:genCall
                      02455 ;; ***  popRegFromIdx,1059  , rIdx=0x7a
024E   00??           02456         MOVWF   STK05
                      02457 ;;; ../../../../src/pic14/gen.c:1357:mov2w_op *{*
                      02458 ;; ***  mov2w  1395  offset=2
                      02459 ;; >>> ../../../../src/pic14/gen.c:1400:mov2w
                      02460 ;;      1126 rIdx = r0x1067 
024F   08??           02461         MOVF    r0x102C,W
                      02462 ;;      2158 left AOP_REG
                      02463 ;; >>> ../../../../src/pic14/gen.c:2166:genCall
                      02464 ;; ***  popRegFromIdx,1059  , rIdx=0x7b
0250   00??           02465         MOVWF   STK04
                      02466 ;;; ../../../../src/pic14/gen.c:1357:mov2w_op *{*
                      02467 ;; ***  mov2w  1395  offset=3
                      02468 ;; >>> ../../../../src/pic14/gen.c:1400:mov2w
                      02469 ;;      1126 rIdx = r0x1068 
0251   08??           02470         MOVF    r0x102D,W
                      02471 ;;      2158 left AOP_LIT
                      02472 ;; >>> ../../../../src/pic14/gen.c:2166:genCall
                      02473 ;; ***  popRegFromIdx,1059  , rIdx=0x7c
0252   00??           02474         MOVWF   STK03
                      02475 ;;; ../../../../src/pic14/gen.c:1357:mov2w_op *{*
                      02476 ;; >>> ../../../../src/pic14/gen.c:1375:mov2w_op
0253   301F           02477         MOVLW   0x1f
                      02478 ;;      2158 left AOP_LIT
                      02479 ;; >>> ../../../../src/pic14/gen.c:2166:genCall
gpasm-1.5.0 #1285 (Jul 12 2020) obj/sdcc-16f8   11/12/23  13:12:30          PAGE 48


LOC    OBJECT CODE    LINE  SOURCE TEXT
  VALUE

                      02480 ;; ***  popRegFromIdx,1059  , rIdx=0x7d
0254   00??           02481         MOVWF   STK02
                      02482 ;;; ../../../../src/pic14/gen.c:1357:mov2w_op *{*
                      02483 ;; >>> ../../../../src/pic14/gen.c:1375:mov2w_op
0255   302E           02484         MOVLW   0x2e
                      02485 ;;      2158 left AOP_LIT
                      02486 ;; >>> ../../../../src/pic14/gen.c:2166:genCall
                      02487 ;; ***  popRegFromIdx,1059  , rIdx=0x7e
0256   00??           02488         MOVWF   STK01
                      02489 ;;; ../../../../src/pic14/gen.c:1357:mov2w_op *{*
                      02490 ;; >>> ../../../../src/pic14/gen.c:1375:mov2w_op
0257   306E           02491         MOVLW   0x6e
                      02492 ;;      2158 left AOP_LIT
                      02493 ;; >>> ../../../../src/pic14/gen.c:2166:genCall
                      02494 ;; ***  popRegFromIdx,1059  , rIdx=0x7f
0258   00??           02495         MOVWF   STK00
                      02496 ;;; ../../../../src/pic14/gen.c:1357:mov2w_op *{*
                      02497 ;; >>> ../../../../src/pic14/gen.c:1375:mov2w_op
0259   304E           02498         MOVLW   0x4e
                      02499 ;; >>> ../../../../src/pic14/gen.c:2207:genCall
025A   0??? 0???      02500         PAGESEL ___fslt
                      02501 ;; >>> ../../../../src/pic14/gen.c:2215:genCall
025C   2???           02502         CALL    ___fslt
                      02503 ;; >>> ../../../../src/pic14/gen.c:2223:genCall
025D   0??? 0???      02504         PAGESEL $
                      02505 ;;      708 register type nRegs=1
                      02506 ;;; ../../../../src/pic14/gen.c:1929:assignResultValue *{*
                      02507 ;; ***  assignResultValue  1931
                      02508 ;;      line = 1933 result -=-, size=0, left AOP_REG=r0x1069, size=1, right -=-, size=0
                      02509 ;; >>> ../../../../src/pic14/gen.c:1407:movwf
                      02510 ;;      1126 rIdx = r0x1069 
025F   0??? 0???      02511         BANKSEL r0x1031
0261   00??           02512         MOVWF   r0x1031
                      02513 ;;      2238 left AOP_REG
                      02514 ;;; ../../../../src/pic14/gen.c:2358:resultRemat *{*
                      02515 ;;; ../../../../src/pic14/gen.c:6991:genIfx *{*
                      02516 ;; ***  genIfx  6992
                      02517 ;;      708 register type nRegs=1
                      02518 ;; ***  pic14_toBoolean  1515
                      02519 ;; ***  mov2w  1395  offset=0
                      02520 ;; >>> ../../../../src/pic14/gen.c:1400:mov2w
                      02521 ;;      1126 rIdx = r0x1069 
0262   08??           02522         MOVF    r0x1031,W
                      02523 ;; >>> ../../../../src/pic14/gen.c:7045:genIfx
0263   1903           02524         BTFSC   STATUS,2
                      02525 ;; >>> ../../../../src/pic14/gen.c:7046:genIfx
                      02526 ;; ***  popGetLabel  key=4, label offset 33
0264   2???           02527         GOTO    _00137_DS_
                      02528 ;;; ../../../../src/pic14/gen.c:2358:resultRemat *{*
                      02529 ;;; ../../../../src/pic14/gen.c:2358:resultRemat *{*
                      02530 ;;; ../../../../src/pic14/gen.c:2358:resultRemat *{*
                      02531 ;;; ../../../../src/pic14/gen.c:2108:genCall *{*
                      02532 ;; ***  genCall  2110
gpasm-1.5.0 #1285 (Jul 12 2020) obj/sdcc-16f8   11/12/23  13:12:30          PAGE 49


LOC    OBJECT CODE    LINE  SOURCE TEXT
  VALUE

                      02533 ;;      708 register type nRegs=4
                      02534 ;;      2158 left AOP_LIT
                      02535 ;;; ../../../../src/pic14/gen.c:1357:mov2w_op *{*
                      02536 ;; >>> ../../../../src/pic14/gen.c:1375:mov2w_op
                      02537         .line   240; "src/measure.c"    Lin = Lin / (1e+09l);
0265   3028           02538         MOVLW   0x28
                      02539 ;;      2158 left AOP_LIT
                      02540 ;; >>> ../../../../src/pic14/gen.c:2166:genCall
                      02541 ;; ***  popRegFromIdx,1059  , rIdx=0x79
0266   00??           02542         MOVWF   STK06
                      02543 ;;; ../../../../src/pic14/gen.c:1357:mov2w_op *{*
                      02544 ;; >>> ../../../../src/pic14/gen.c:1375:mov2w_op
0267   306B           02545         MOVLW   0x6b
                      02546 ;;      2158 left AOP_LIT
                      02547 ;; >>> ../../../../src/pic14/gen.c:2166:genCall
                      02548 ;; ***  popRegFromIdx,1059  , rIdx=0x7a
0268   00??           02549         MOVWF   STK05
                      02550 ;;; ../../../../src/pic14/gen.c:1357:mov2w_op *{*
                      02551 ;; >>> ../../../../src/pic14/gen.c:1375:mov2w_op
0269   306E           02552         MOVLW   0x6e
                      02553 ;;      2158 left AOP_LIT
                      02554 ;; >>> ../../../../src/pic14/gen.c:2166:genCall
                      02555 ;; ***  popRegFromIdx,1059  , rIdx=0x7b
026A   00??           02556         MOVWF   STK04
                      02557 ;;; ../../../../src/pic14/gen.c:1357:mov2w_op *{*
                      02558 ;; >>> ../../../../src/pic14/gen.c:1375:mov2w_op
026B   304E           02559         MOVLW   0x4e
                      02560 ;;      708 register type nRegs=4
                      02561 ;;      2158 left AOP_REG
                      02562 ;; >>> ../../../../src/pic14/gen.c:2166:genCall
                      02563 ;; ***  popRegFromIdx,1059  , rIdx=0x7c
026C   00??           02564         MOVWF   STK03
                      02565 ;;; ../../../../src/pic14/gen.c:1357:mov2w_op *{*
                      02566 ;; ***  mov2w  1395  offset=0
                      02567 ;; >>> ../../../../src/pic14/gen.c:1400:mov2w
                      02568 ;;      1126 rIdx = r0x1065 
026D   08??           02569         MOVF    r0x102B,W
                      02570 ;;      2158 left AOP_REG
                      02571 ;; >>> ../../../../src/pic14/gen.c:2166:genCall
                      02572 ;; ***  popRegFromIdx,1059  , rIdx=0x7d
026E   00??           02573         MOVWF   STK02
                      02574 ;;; ../../../../src/pic14/gen.c:1357:mov2w_op *{*
                      02575 ;; ***  mov2w  1395  offset=1
                      02576 ;; >>> ../../../../src/pic14/gen.c:1400:mov2w
                      02577 ;;      1126 rIdx = r0x1066 
026F   08??           02578         MOVF    r0x102A,W
                      02579 ;;      2158 left AOP_REG
                      02580 ;; >>> ../../../../src/pic14/gen.c:2166:genCall
                      02581 ;; ***  popRegFromIdx,1059  , rIdx=0x7e
0270   00??           02582         MOVWF   STK01
                      02583 ;;; ../../../../src/pic14/gen.c:1357:mov2w_op *{*
                      02584 ;; ***  mov2w  1395  offset=2
                      02585 ;; >>> ../../../../src/pic14/gen.c:1400:mov2w
gpasm-1.5.0 #1285 (Jul 12 2020) obj/sdcc-16f8   11/12/23  13:12:30          PAGE 50


LOC    OBJECT CODE    LINE  SOURCE TEXT
  VALUE

                      02586 ;;      1126 rIdx = r0x1067 
0271   08??           02587         MOVF    r0x102C,W
                      02588 ;;      2158 left AOP_REG
                      02589 ;; >>> ../../../../src/pic14/gen.c:2166:genCall
                      02590 ;; ***  popRegFromIdx,1059  , rIdx=0x7f
0272   00??           02591         MOVWF   STK00
                      02592 ;;; ../../../../src/pic14/gen.c:1357:mov2w_op *{*
                      02593 ;; ***  mov2w  1395  offset=3
                      02594 ;; >>> ../../../../src/pic14/gen.c:1400:mov2w
                      02595 ;;      1126 rIdx = r0x1068 
0273   08??           02596         MOVF    r0x102D,W
                      02597 ;; >>> ../../../../src/pic14/gen.c:2207:genCall
0274   0??? 0???      02598         PAGESEL ___fsdiv
                      02599 ;; >>> ../../../../src/pic14/gen.c:2215:genCall
0276   2???           02600         CALL    ___fsdiv
                      02601 ;; >>> ../../../../src/pic14/gen.c:2223:genCall
0277   0??? 0???      02602         PAGESEL $
                      02603 ;;      708 register type nRegs=4
                      02604 ;;; ../../../../src/pic14/gen.c:1929:assignResultValue *{*
                      02605 ;; ***  assignResultValue  1931
                      02606 ;;      line = 1933 result -=-, size=0, left AOP_REG=r0x1065, size=4, right -=-, size=0
                      02607 ;; >>> ../../../../src/pic14/gen.c:1407:movwf
                      02608 ;;      1126 rIdx = r0x1068 
0279   0??? 0???      02609         BANKSEL r0x102D
027B   00??           02610         MOVWF   r0x102D
                      02611 ;; >>> ../../../../src/pic14/gen.c:1437:get_returnvalue
                      02612 ;; ***  popRegFromIdx,1059  , rIdx=0x7f
027C   08??           02613         MOVF    STK00,W
                      02614 ;; >>> ../../../../src/pic14/gen.c:1407:movwf
                      02615 ;;      1126 rIdx = r0x1067 
027D   00??           02616         MOVWF   r0x102C
                      02617 ;; >>> ../../../../src/pic14/gen.c:1437:get_returnvalue
                      02618 ;; ***  popRegFromIdx,1059  , rIdx=0x7e
027E   08??           02619         MOVF    STK01,W
                      02620 ;; >>> ../../../../src/pic14/gen.c:1407:movwf
                      02621 ;;      1126 rIdx = r0x1066 
027F   00??           02622         MOVWF   r0x102A
                      02623 ;; >>> ../../../../src/pic14/gen.c:1437:get_returnvalue
                      02624 ;; ***  popRegFromIdx,1059  , rIdx=0x7d
0280   08??           02625         MOVF    STK02,W
                      02626 ;; >>> ../../../../src/pic14/gen.c:1407:movwf
                      02627 ;;      1126 rIdx = r0x1065 
0281   00??           02628         MOVWF   r0x102B
                      02629 ;;      2238 left AOP_REG
                      02630 ;;; ../../../../src/pic14/gen.c:2358:resultRemat *{*
                      02631 ;;; ../../../../src/pic14/gen.c:7159:genAssign *{*
                      02632 ;; ***  genAssign  7160
                      02633 ;;      708 register type nRegs=1
                      02634 ;;      line = 7169 result AOP_REG=r0x1069, size=1, left -=-, size=0, right AOP_LIT=0x00, size=1
                      02635 ;; ***  genAssign  7253
                      02636 ;; >>> ../../../../src/pic14/gen.c:7265:genAssign
                      02637 ;;      1126 rIdx = r0x1069 
                      02638         .line   241; "src/measure.c"    unit = 0; // "H"
gpasm-1.5.0 #1285 (Jul 12 2020) obj/sdcc-16f8   11/12/23  13:12:30          PAGE 51


LOC    OBJECT CODE    LINE  SOURCE TEXT
  VALUE

0282   01??           02639         CLRF    r0x1031
                      02640 ;;; ../../../../src/pic14/gen.c:2358:resultRemat *{*
                      02641 ;;; ../../../../src/pic14/gen.c:2820:genGoto *{*
                      02642 ;; >>> ../../../../src/pic14/gen.c:2822:genGoto
                      02643 ;; ***  popGetLabel  key=11, label offset 33
0283   2???           02644         GOTO    _00144_DS_
                      02645 ;;; ../../../../src/pic14/gen.c:2358:resultRemat *{*
                      02646 ;;; ../../../../src/pic14/gen.c:2802:genLabel *{*
                      02647 ;; ***  genLabel  2805
                      02648 ;;; ../../../../src/pic14/gen.c:2358:resultRemat *{*
                      02649 ;;; ../../../../src/pic14/gen.c:2358:resultRemat *{*
                      02650 ;;; ../../../../src/pic14/gen.c:2358:resultRemat *{*
                      02651 ;;; ../../../../src/pic14/gen.c:2108:genCall *{*
                      02652 ;; ***  genCall  2110
                      02653 ;;      708 register type nRegs=4
                      02654 ;;      2158 left AOP_LIT
                      02655 ;;; ../../../../src/pic14/gen.c:1357:mov2w_op *{*
                      02656 ;; >>> ../../../../src/pic14/gen.c:1375:mov2w_op
0284                  02657 _00137_DS_:
                      02658         .line   243; "src/measure.c"    Lin = Lin / (1e+06l);
0284   3000           02659         MOVLW   0x00
                      02660 ;;      2158 left AOP_LIT
                      02661 ;; >>> ../../../../src/pic14/gen.c:2166:genCall
                      02662 ;; ***  popRegFromIdx,1059  , rIdx=0x79
0285   00??           02663         MOVWF   STK06
                      02664 ;;; ../../../../src/pic14/gen.c:1357:mov2w_op *{*
                      02665 ;; >>> ../../../../src/pic14/gen.c:1375:mov2w_op
0286   3024           02666         MOVLW   0x24
                      02667 ;;      2158 left AOP_LIT
                      02668 ;; >>> ../../../../src/pic14/gen.c:2166:genCall
                      02669 ;; ***  popRegFromIdx,1059  , rIdx=0x7a
0287   00??           02670         MOVWF   STK05
                      02671 ;;; ../../../../src/pic14/gen.c:1357:mov2w_op *{*
                      02672 ;; >>> ../../../../src/pic14/gen.c:1375:mov2w_op
0288   3074           02673         MOVLW   0x74
                      02674 ;;      2158 left AOP_LIT
                      02675 ;; >>> ../../../../src/pic14/gen.c:2166:genCall
                      02676 ;; ***  popRegFromIdx,1059  , rIdx=0x7b
0289   00??           02677         MOVWF   STK04
                      02678 ;;; ../../../../src/pic14/gen.c:1357:mov2w_op *{*
                      02679 ;; >>> ../../../../src/pic14/gen.c:1375:mov2w_op
028A   3049           02680         MOVLW   0x49
                      02681 ;;      708 register type nRegs=4
                      02682 ;;      2158 left AOP_REG
                      02683 ;; >>> ../../../../src/pic14/gen.c:2166:genCall
                      02684 ;; ***  popRegFromIdx,1059  , rIdx=0x7c
028B   00??           02685         MOVWF   STK03
                      02686 ;;; ../../../../src/pic14/gen.c:1357:mov2w_op *{*
                      02687 ;; ***  mov2w  1395  offset=0
                      02688 ;; >>> ../../../../src/pic14/gen.c:1400:mov2w
                      02689 ;;      1126 rIdx = r0x1065 
028C   0??? 0???      02690         BANKSEL r0x102B
028E   08??           02691         MOVF    r0x102B,W
gpasm-1.5.0 #1285 (Jul 12 2020) obj/sdcc-16f8   11/12/23  13:12:30          PAGE 52


LOC    OBJECT CODE    LINE  SOURCE TEXT
  VALUE

                      02692 ;;      2158 left AOP_REG
                      02693 ;; >>> ../../../../src/pic14/gen.c:2166:genCall
                      02694 ;; ***  popRegFromIdx,1059  , rIdx=0x7d
028F   00??           02695         MOVWF   STK02
                      02696 ;;; ../../../../src/pic14/gen.c:1357:mov2w_op *{*
                      02697 ;; ***  mov2w  1395  offset=1
                      02698 ;; >>> ../../../../src/pic14/gen.c:1400:mov2w
                      02699 ;;      1126 rIdx = r0x1066 
0290   08??           02700         MOVF    r0x102A,W
                      02701 ;;      2158 left AOP_REG
                      02702 ;; >>> ../../../../src/pic14/gen.c:2166:genCall
                      02703 ;; ***  popRegFromIdx,1059  , rIdx=0x7e
0291   00??           02704         MOVWF   STK01
                      02705 ;;; ../../../../src/pic14/gen.c:1357:mov2w_op *{*
                      02706 ;; ***  mov2w  1395  offset=2
                      02707 ;; >>> ../../../../src/pic14/gen.c:1400:mov2w
                      02708 ;;      1126 rIdx = r0x1067 
0292   08??           02709         MOVF    r0x102C,W
                      02710 ;;      2158 left AOP_REG
                      02711 ;; >>> ../../../../src/pic14/gen.c:2166:genCall
                      02712 ;; ***  popRegFromIdx,1059  , rIdx=0x7f
0293   00??           02713         MOVWF   STK00
                      02714 ;;; ../../../../src/pic14/gen.c:1357:mov2w_op *{*
                      02715 ;; ***  mov2w  1395  offset=3
                      02716 ;; >>> ../../../../src/pic14/gen.c:1400:mov2w
                      02717 ;;      1126 rIdx = r0x1068 
0294   08??           02718         MOVF    r0x102D,W
                      02719 ;; >>> ../../../../src/pic14/gen.c:2207:genCall
0295   0??? 0???      02720         PAGESEL ___fsdiv
                      02721 ;; >>> ../../../../src/pic14/gen.c:2215:genCall
0297   2???           02722         CALL    ___fsdiv
                      02723 ;; >>> ../../../../src/pic14/gen.c:2223:genCall
0298   0??? 0???      02724         PAGESEL $
                      02725 ;;      708 register type nRegs=4
                      02726 ;;; ../../../../src/pic14/gen.c:1929:assignResultValue *{*
                      02727 ;; ***  assignResultValue  1931
                      02728 ;;      line = 1933 result -=-, size=0, left AOP_REG=r0x1065, size=4, right -=-, size=0
                      02729 ;; >>> ../../../../src/pic14/gen.c:1407:movwf
                      02730 ;;      1126 rIdx = r0x1068 
029A   0??? 0???      02731         BANKSEL r0x102D
029C   00??           02732         MOVWF   r0x102D
                      02733 ;; >>> ../../../../src/pic14/gen.c:1437:get_returnvalue
                      02734 ;; ***  popRegFromIdx,1059  , rIdx=0x7f
029D   08??           02735         MOVF    STK00,W
                      02736 ;; >>> ../../../../src/pic14/gen.c:1407:movwf
                      02737 ;;      1126 rIdx = r0x1067 
029E   00??           02738         MOVWF   r0x102C
                      02739 ;; >>> ../../../../src/pic14/gen.c:1437:get_returnvalue
                      02740 ;; ***  popRegFromIdx,1059  , rIdx=0x7e
029F   08??           02741         MOVF    STK01,W
                      02742 ;; >>> ../../../../src/pic14/gen.c:1407:movwf
                      02743 ;;      1126 rIdx = r0x1066 
02A0   00??           02744         MOVWF   r0x102A
gpasm-1.5.0 #1285 (Jul 12 2020) obj/sdcc-16f8   11/12/23  13:12:30          PAGE 53


LOC    OBJECT CODE    LINE  SOURCE TEXT
  VALUE

                      02745 ;; >>> ../../../../src/pic14/gen.c:1437:get_returnvalue
                      02746 ;; ***  popRegFromIdx,1059  , rIdx=0x7d
02A1   08??           02747         MOVF    STK02,W
                      02748 ;; >>> ../../../../src/pic14/gen.c:1407:movwf
                      02749 ;;      1126 rIdx = r0x1065 
02A2   00??           02750         MOVWF   r0x102B
                      02751 ;;      2238 left AOP_REG
                      02752 ;;; ../../../../src/pic14/gen.c:2358:resultRemat *{*
                      02753 ;;; ../../../../src/pic14/gen.c:7159:genAssign *{*
                      02754 ;; ***  genAssign  7160
                      02755 ;;      708 register type nRegs=1
                      02756 ;;      line = 7169 result AOP_REG=r0x1069, size=1, left -=-, size=0, right AOP_LIT=0x01, size=1
                      02757 ;; ***  genAssign  7253
                      02758 ;; >>> ../../../../src/pic14/gen.c:7260:genAssign
                      02759         .line   244; "src/measure.c"    unit = 1; // "mH"
02A3   3001           02760         MOVLW   0x01
                      02761 ;; >>> ../../../../src/pic14/gen.c:7262:genAssign
                      02762 ;;      1126 rIdx = r0x1069 
02A4   00??           02763         MOVWF   r0x1031
                      02764 ;;; ../../../../src/pic14/gen.c:2358:resultRemat *{*
                      02765 ;;; ../../../../src/pic14/gen.c:2820:genGoto *{*
                      02766 ;; >>> ../../../../src/pic14/gen.c:2822:genGoto
                      02767 ;; ***  popGetLabel  key=11, label offset 33
02A5   2???           02768         GOTO    _00144_DS_
                      02769 ;;; ../../../../src/pic14/gen.c:2358:resultRemat *{*
                      02770 ;;; ../../../../src/pic14/gen.c:2802:genLabel *{*
                      02771 ;; ***  genLabel  2805
                      02772 ;;; ../../../../src/pic14/gen.c:2358:resultRemat *{*
                      02773 ;;; ../../../../src/pic14/gen.c:2358:resultRemat *{*
                      02774 ;;; ../../../../src/pic14/gen.c:2358:resultRemat *{*
                      02775 ;;; ../../../../src/pic14/gen.c:2108:genCall *{*
                      02776 ;; ***  genCall  2110
                      02777 ;;      708 register type nRegs=4
                      02778 ;;      2158 left AOP_LIT
                      02779 ;;; ../../../../src/pic14/gen.c:1357:mov2w_op *{*
                      02780 ;; >>> ../../../../src/pic14/gen.c:1375:mov2w_op
02A6                  02781 _00140_DS_:
                      02782         .line   247; "src/measure.c"    Lin = Lin / 1e+03l;
02A6   3000           02783         MOVLW   0x00
                      02784 ;;      2158 left AOP_LIT
                      02785 ;; >>> ../../../../src/pic14/gen.c:2166:genCall
                      02786 ;; ***  popRegFromIdx,1059  , rIdx=0x79
02A7   00??           02787         MOVWF   STK06
                      02788 ;;; ../../../../src/pic14/gen.c:1357:mov2w_op *{*
                      02789 ;; >>> ../../../../src/pic14/gen.c:1375:mov2w_op
02A8   3000           02790         MOVLW   0x00
                      02791 ;;      2158 left AOP_LIT
                      02792 ;; >>> ../../../../src/pic14/gen.c:2166:genCall
                      02793 ;; ***  popRegFromIdx,1059  , rIdx=0x7a
02A9   00??           02794         MOVWF   STK05
                      02795 ;;; ../../../../src/pic14/gen.c:1357:mov2w_op *{*
                      02796 ;; >>> ../../../../src/pic14/gen.c:1375:mov2w_op
02AA   307A           02797         MOVLW   0x7a
gpasm-1.5.0 #1285 (Jul 12 2020) obj/sdcc-16f8   11/12/23  13:12:30          PAGE 54


LOC    OBJECT CODE    LINE  SOURCE TEXT
  VALUE

                      02798 ;;      2158 left AOP_LIT
                      02799 ;; >>> ../../../../src/pic14/gen.c:2166:genCall
                      02800 ;; ***  popRegFromIdx,1059  , rIdx=0x7b
02AB   00??           02801         MOVWF   STK04
                      02802 ;;; ../../../../src/pic14/gen.c:1357:mov2w_op *{*
                      02803 ;; >>> ../../../../src/pic14/gen.c:1375:mov2w_op
02AC   3044           02804         MOVLW   0x44
                      02805 ;;      708 register type nRegs=4
                      02806 ;;      2158 left AOP_REG
                      02807 ;; >>> ../../../../src/pic14/gen.c:2166:genCall
                      02808 ;; ***  popRegFromIdx,1059  , rIdx=0x7c
02AD   00??           02809         MOVWF   STK03
                      02810 ;;; ../../../../src/pic14/gen.c:1357:mov2w_op *{*
                      02811 ;; ***  mov2w  1395  offset=0
                      02812 ;; >>> ../../../../src/pic14/gen.c:1400:mov2w
                      02813 ;;      1126 rIdx = r0x1065 
02AE   0??? 0???      02814         BANKSEL r0x102B
02B0   08??           02815         MOVF    r0x102B,W
                      02816 ;;      2158 left AOP_REG
                      02817 ;; >>> ../../../../src/pic14/gen.c:2166:genCall
                      02818 ;; ***  popRegFromIdx,1059  , rIdx=0x7d
02B1   00??           02819         MOVWF   STK02
                      02820 ;;; ../../../../src/pic14/gen.c:1357:mov2w_op *{*
                      02821 ;; ***  mov2w  1395  offset=1
                      02822 ;; >>> ../../../../src/pic14/gen.c:1400:mov2w
                      02823 ;;      1126 rIdx = r0x1066 
02B2   08??           02824         MOVF    r0x102A,W
                      02825 ;;      2158 left AOP_REG
                      02826 ;; >>> ../../../../src/pic14/gen.c:2166:genCall
                      02827 ;; ***  popRegFromIdx,1059  , rIdx=0x7e
02B3   00??           02828         MOVWF   STK01
                      02829 ;;; ../../../../src/pic14/gen.c:1357:mov2w_op *{*
                      02830 ;; ***  mov2w  1395  offset=2
                      02831 ;; >>> ../../../../src/pic14/gen.c:1400:mov2w
                      02832 ;;      1126 rIdx = r0x1067 
02B4   08??           02833         MOVF    r0x102C,W
                      02834 ;;      2158 left AOP_REG
                      02835 ;; >>> ../../../../src/pic14/gen.c:2166:genCall
                      02836 ;; ***  popRegFromIdx,1059  , rIdx=0x7f
02B5   00??           02837         MOVWF   STK00
                      02838 ;;; ../../../../src/pic14/gen.c:1357:mov2w_op *{*
                      02839 ;; ***  mov2w  1395  offset=3
                      02840 ;; >>> ../../../../src/pic14/gen.c:1400:mov2w
                      02841 ;;      1126 rIdx = r0x1068 
02B6   08??           02842         MOVF    r0x102D,W
                      02843 ;; >>> ../../../../src/pic14/gen.c:2207:genCall
02B7   0??? 0???      02844         PAGESEL ___fsdiv
                      02845 ;; >>> ../../../../src/pic14/gen.c:2215:genCall
02B9   2???           02846         CALL    ___fsdiv
                      02847 ;; >>> ../../../../src/pic14/gen.c:2223:genCall
02BA   0??? 0???      02848         PAGESEL $
                      02849 ;;      708 register type nRegs=4
                      02850 ;;; ../../../../src/pic14/gen.c:1929:assignResultValue *{*
gpasm-1.5.0 #1285 (Jul 12 2020) obj/sdcc-16f8   11/12/23  13:12:30          PAGE 55


LOC    OBJECT CODE    LINE  SOURCE TEXT
  VALUE

                      02851 ;; ***  assignResultValue  1931
                      02852 ;;      line = 1933 result -=-, size=0, left AOP_REG=r0x1065, size=4, right -=-, size=0
                      02853 ;; >>> ../../../../src/pic14/gen.c:1407:movwf
                      02854 ;;      1126 rIdx = r0x1068 
02BC   0??? 0???      02855         BANKSEL r0x102D
02BE   00??           02856         MOVWF   r0x102D
                      02857 ;; >>> ../../../../src/pic14/gen.c:1437:get_returnvalue
                      02858 ;; ***  popRegFromIdx,1059  , rIdx=0x7f
02BF   08??           02859         MOVF    STK00,W
                      02860 ;; >>> ../../../../src/pic14/gen.c:1407:movwf
                      02861 ;;      1126 rIdx = r0x1067 
02C0   00??           02862         MOVWF   r0x102C
                      02863 ;; >>> ../../../../src/pic14/gen.c:1437:get_returnvalue
                      02864 ;; ***  popRegFromIdx,1059  , rIdx=0x7e
02C1   08??           02865         MOVF    STK01,W
                      02866 ;; >>> ../../../../src/pic14/gen.c:1407:movwf
                      02867 ;;      1126 rIdx = r0x1066 
02C2   00??           02868         MOVWF   r0x102A
                      02869 ;; >>> ../../../../src/pic14/gen.c:1437:get_returnvalue
                      02870 ;; ***  popRegFromIdx,1059  , rIdx=0x7d
02C3   08??           02871         MOVF    STK02,W
                      02872 ;; >>> ../../../../src/pic14/gen.c:1407:movwf
                      02873 ;;      1126 rIdx = r0x1065 
02C4   00??           02874         MOVWF   r0x102B
                      02875 ;;      2238 left AOP_REG
                      02876 ;;; ../../../../src/pic14/gen.c:2358:resultRemat *{*
                      02877 ;;; ../../../../src/pic14/gen.c:7159:genAssign *{*
                      02878 ;; ***  genAssign  7160
                      02879 ;;      708 register type nRegs=1
                      02880 ;;      line = 7169 result AOP_REG=r0x1069, size=1, left -=-, size=0, right AOP_LIT=0x02, size=1
                      02881 ;; ***  genAssign  7253
                      02882 ;; >>> ../../../../src/pic14/gen.c:7260:genAssign
                      02883         .line   248; "src/measure.c"    unit = 2; // "uH"
02C5   3002           02884         MOVLW   0x02
                      02885 ;; >>> ../../../../src/pic14/gen.c:7262:genAssign
                      02886 ;;      1126 rIdx = r0x1069 
02C6   00??           02887         MOVWF   r0x1031
                      02888 ;;; ../../../../src/pic14/gen.c:2358:resultRemat *{*
                      02889 ;;; ../../../../src/pic14/gen.c:2820:genGoto *{*
                      02890 ;; >>> ../../../../src/pic14/gen.c:2822:genGoto
                      02891 ;; ***  popGetLabel  key=11, label offset 33
02C7   2???           02892         GOTO    _00144_DS_
                      02893 ;;; ../../../../src/pic14/gen.c:2358:resultRemat *{*
                      02894 ;;; ../../../../src/pic14/gen.c:2802:genLabel *{*
                      02895 ;; ***  genLabel  2805
                      02896 ;;; ../../../../src/pic14/gen.c:2358:resultRemat *{*
                      02897 ;;; ../../../../src/pic14/gen.c:7159:genAssign *{*
                      02898 ;; ***  genAssign  7160
                      02899 ;;      708 register type nRegs=1
                      02900 ;;      line = 7169 result AOP_REG=r0x1069, size=1, left -=-, size=0, right AOP_LIT=0x03, size=1
                      02901 ;; ***  genAssign  7253
                      02902 ;; >>> ../../../../src/pic14/gen.c:7260:genAssign
02C8                  02903 _00143_DS_:
gpasm-1.5.0 #1285 (Jul 12 2020) obj/sdcc-16f8   11/12/23  13:12:30          PAGE 56


LOC    OBJECT CODE    LINE  SOURCE TEXT
  VALUE

                      02904         .line   251; "src/measure.c"    unit = 3; // "nH"
02C8   3003           02905         MOVLW   0x03
                      02906 ;; >>> ../../../../src/pic14/gen.c:7262:genAssign
                      02907 ;;      1126 rIdx = r0x1069 
02C9   0??? 0???      02908         BANKSEL r0x1031
02CB   00??           02909         MOVWF   r0x1031
                      02910 ;;; ../../../../src/pic14/gen.c:2358:resultRemat *{*
                      02911 ;;; ../../../../src/pic14/gen.c:2802:genLabel *{*
                      02912 ;; ***  genLabel  2805
                      02913 ;;; ../../../../src/pic14/gen.c:2358:resultRemat *{*
                      02914 ;;; ../../../../src/pic14/gen.c:2358:resultRemat *{*
                      02915 ;;; ../../../../src/pic14/gen.c:2358:resultRemat *{*
                      02916 ;;; ../../../../src/pic14/gen.c:2108:genCall *{*
                      02917 ;; ***  genCall  2110
                      02918 ;;      708 register type nRegs=4
                      02919 ;;      708 register type nRegs=4
                      02920 ;;      2158 left AOP_REG
                      02921 ;;; ../../../../src/pic14/gen.c:1357:mov2w_op *{*
                      02922 ;; ***  mov2w  1395  offset=0
                      02923 ;; >>> ../../../../src/pic14/gen.c:1400:mov2w
                      02924 ;;      1126 rIdx = r0x1065 
02CC                  02925 _00144_DS_:
                      02926         .line   253; "src/measure.c"    Lin = Lin * 100; // scale to 2 decimal place
02CC   0??? 0???      02927         BANKSEL r0x102B
02CE   08??           02928         MOVF    r0x102B,W
                      02929 ;;      2158 left AOP_REG
                      02930 ;; >>> ../../../../src/pic14/gen.c:2166:genCall
                      02931 ;; ***  popRegFromIdx,1059  , rIdx=0x79
02CF   00??           02932         MOVWF   STK06
                      02933 ;;; ../../../../src/pic14/gen.c:1357:mov2w_op *{*
                      02934 ;; ***  mov2w  1395  offset=1
                      02935 ;; >>> ../../../../src/pic14/gen.c:1400:mov2w
                      02936 ;;      1126 rIdx = r0x1066 
02D0   08??           02937         MOVF    r0x102A,W
                      02938 ;;      2158 left AOP_REG
                      02939 ;; >>> ../../../../src/pic14/gen.c:2166:genCall
                      02940 ;; ***  popRegFromIdx,1059  , rIdx=0x7a
02D1   00??           02941         MOVWF   STK05
                      02942 ;;; ../../../../src/pic14/gen.c:1357:mov2w_op *{*
                      02943 ;; ***  mov2w  1395  offset=2
                      02944 ;; >>> ../../../../src/pic14/gen.c:1400:mov2w
                      02945 ;;      1126 rIdx = r0x1067 
02D2   08??           02946         MOVF    r0x102C,W
                      02947 ;;      2158 left AOP_REG
                      02948 ;; >>> ../../../../src/pic14/gen.c:2166:genCall
                      02949 ;; ***  popRegFromIdx,1059  , rIdx=0x7b
02D3   00??           02950         MOVWF   STK04
                      02951 ;;; ../../../../src/pic14/gen.c:1357:mov2w_op *{*
                      02952 ;; ***  mov2w  1395  offset=3
                      02953 ;; >>> ../../../../src/pic14/gen.c:1400:mov2w
                      02954 ;;      1126 rIdx = r0x1068 
02D4   08??           02955         MOVF    r0x102D,W
                      02956 ;;      2158 left AOP_LIT
gpasm-1.5.0 #1285 (Jul 12 2020) obj/sdcc-16f8   11/12/23  13:12:30          PAGE 57


LOC    OBJECT CODE    LINE  SOURCE TEXT
  VALUE

                      02957 ;; >>> ../../../../src/pic14/gen.c:2166:genCall
                      02958 ;; ***  popRegFromIdx,1059  , rIdx=0x7c
02D5   00??           02959         MOVWF   STK03
                      02960 ;;; ../../../../src/pic14/gen.c:1357:mov2w_op *{*
                      02961 ;; >>> ../../../../src/pic14/gen.c:1375:mov2w_op
02D6   3000           02962         MOVLW   0x00
                      02963 ;;      2158 left AOP_LIT
                      02964 ;; >>> ../../../../src/pic14/gen.c:2166:genCall
                      02965 ;; ***  popRegFromIdx,1059  , rIdx=0x7d
02D7   00??           02966         MOVWF   STK02
                      02967 ;;; ../../../../src/pic14/gen.c:1357:mov2w_op *{*
                      02968 ;; >>> ../../../../src/pic14/gen.c:1375:mov2w_op
02D8   3000           02969         MOVLW   0x00
                      02970 ;;      2158 left AOP_LIT
                      02971 ;; >>> ../../../../src/pic14/gen.c:2166:genCall
                      02972 ;; ***  popRegFromIdx,1059  , rIdx=0x7e
02D9   00??           02973         MOVWF   STK01
                      02974 ;;; ../../../../src/pic14/gen.c:1357:mov2w_op *{*
                      02975 ;; >>> ../../../../src/pic14/gen.c:1375:mov2w_op
02DA   30C8           02976         MOVLW   0xc8
                      02977 ;;      2158 left AOP_LIT
                      02978 ;; >>> ../../../../src/pic14/gen.c:2166:genCall
                      02979 ;; ***  popRegFromIdx,1059  , rIdx=0x7f
02DB   00??           02980         MOVWF   STK00
                      02981 ;;; ../../../../src/pic14/gen.c:1357:mov2w_op *{*
                      02982 ;; >>> ../../../../src/pic14/gen.c:1375:mov2w_op
02DC   3042           02983         MOVLW   0x42
                      02984 ;; >>> ../../../../src/pic14/gen.c:2207:genCall
02DD   0??? 0???      02985         PAGESEL ___fsmul
                      02986 ;; >>> ../../../../src/pic14/gen.c:2215:genCall
02DF   2???           02987         CALL    ___fsmul
                      02988 ;; >>> ../../../../src/pic14/gen.c:2223:genCall
02E0   0??? 0???      02989         PAGESEL $
                      02990 ;;      708 register type nRegs=4
                      02991 ;;; ../../../../src/pic14/gen.c:1929:assignResultValue *{*
                      02992 ;; ***  assignResultValue  1931
                      02993 ;;      line = 1933 result -=-, size=0, left AOP_REG=r0x1065, size=4, right -=-, size=0
                      02994 ;; >>> ../../../../src/pic14/gen.c:1407:movwf
                      02995 ;;      1126 rIdx = r0x1068 
02E2   0??? 0???      02996         BANKSEL r0x102D
02E4   00??           02997         MOVWF   r0x102D
                      02998 ;; >>> ../../../../src/pic14/gen.c:1437:get_returnvalue
                      02999 ;; ***  popRegFromIdx,1059  , rIdx=0x7f
02E5   08??           03000         MOVF    STK00,W
                      03001 ;; >>> ../../../../src/pic14/gen.c:1407:movwf
                      03002 ;;      1126 rIdx = r0x1067 
02E6   00??           03003         MOVWF   r0x102C
                      03004 ;; >>> ../../../../src/pic14/gen.c:1437:get_returnvalue
                      03005 ;; ***  popRegFromIdx,1059  , rIdx=0x7e
02E7   08??           03006         MOVF    STK01,W
                      03007 ;; >>> ../../../../src/pic14/gen.c:1407:movwf
                      03008 ;;      1126 rIdx = r0x1066 
02E8   00??           03009         MOVWF   r0x102A
gpasm-1.5.0 #1285 (Jul 12 2020) obj/sdcc-16f8   11/12/23  13:12:30          PAGE 58


LOC    OBJECT CODE    LINE  SOURCE TEXT
  VALUE

                      03010 ;; >>> ../../../../src/pic14/gen.c:1437:get_returnvalue
                      03011 ;; ***  popRegFromIdx,1059  , rIdx=0x7d
02E9   08??           03012         MOVF    STK02,W
                      03013 ;; >>> ../../../../src/pic14/gen.c:1407:movwf
                      03014 ;;      1126 rIdx = r0x1065 
                      03015         .line   254; "src/measure.c"    var = (uint16_t)Lin;
02EA   00??           03016         MOVWF   r0x102B
02EB   00??           03017         MOVWF   STK02
                      03018 ;;; ../../../../src/pic14/gen.c:1357:mov2w_op *{*
                      03019 ;; ***  mov2w  1395  offset=1
                      03020 ;; >>> ../../../../src/pic14/gen.c:1400:mov2w
                      03021 ;;      1126 rIdx = r0x1066 
02EC   08??           03022         MOVF    r0x102A,W
                      03023 ;;      2158 left AOP_REG
                      03024 ;; >>> ../../../../src/pic14/gen.c:2166:genCall
                      03025 ;; ***  popRegFromIdx,1059  , rIdx=0x7e
02ED   00??           03026         MOVWF   STK01
                      03027 ;;; ../../../../src/pic14/gen.c:1357:mov2w_op *{*
                      03028 ;; ***  mov2w  1395  offset=2
                      03029 ;; >>> ../../../../src/pic14/gen.c:1400:mov2w
                      03030 ;;      1126 rIdx = r0x1067 
02EE   08??           03031         MOVF    r0x102C,W
                      03032 ;;      2158 left AOP_REG
                      03033 ;; >>> ../../../../src/pic14/gen.c:2166:genCall
                      03034 ;; ***  popRegFromIdx,1059  , rIdx=0x7f
02EF   00??           03035         MOVWF   STK00
                      03036 ;;; ../../../../src/pic14/gen.c:1357:mov2w_op *{*
                      03037 ;; ***  mov2w  1395  offset=3
                      03038 ;; >>> ../../../../src/pic14/gen.c:1400:mov2w
                      03039 ;;      1126 rIdx = r0x1068 
02F0   08??           03040         MOVF    r0x102D,W
                      03041 ;; >>> ../../../../src/pic14/gen.c:2207:genCall
02F1   0??? 0???      03042         PAGESEL ___fs2uint
                      03043 ;; >>> ../../../../src/pic14/gen.c:2215:genCall
02F3   2???           03044         CALL    ___fs2uint
                      03045 ;; >>> ../../../../src/pic14/gen.c:2223:genCall
02F4   0??? 0???      03046         PAGESEL $
                      03047 ;;      708 register type nRegs=2
                      03048 ;;; ../../../../src/pic14/gen.c:1929:assignResultValue *{*
                      03049 ;; ***  assignResultValue  1931
                      03050 ;;      line = 1933 result -=-, size=0, left AOP_REG=r0x1065, size=2, right -=-, size=0
                      03051 ;; >>> ../../../../src/pic14/gen.c:1407:movwf
                      03052 ;;      1126 rIdx = r0x1066 
02F6   0??? 0???      03053         BANKSEL r0x102A
02F8   00??           03054         MOVWF   r0x102A
                      03055 ;; >>> ../../../../src/pic14/gen.c:1437:get_returnvalue
                      03056 ;; ***  popRegFromIdx,1059  , rIdx=0x7f
02F9   08??           03057         MOVF    STK00,W
                      03058 ;; >>> ../../../../src/pic14/gen.c:1407:movwf
                      03059 ;;      1126 rIdx = r0x1065 
                      03060         .line   256; "src/measure.c"    print_reading(var);
02FA   00??           03061         MOVWF   r0x102B
02FB   00??           03062         MOVWF   STK00
gpasm-1.5.0 #1285 (Jul 12 2020) obj/sdcc-16f8   11/12/23  13:12:30          PAGE 59


LOC    OBJECT CODE    LINE  SOURCE TEXT
  VALUE

                      03063 ;;; ../../../../src/pic14/gen.c:1357:mov2w_op *{*
                      03064 ;; ***  mov2w  1395  offset=1
                      03065 ;; >>> ../../../../src/pic14/gen.c:1400:mov2w
                      03066 ;;      1126 rIdx = r0x1066 
02FC   08??           03067         MOVF    r0x102A,W
                      03068 ;; >>> ../../../../src/pic14/gen.c:2207:genCall
02FD   0??? 0???      03069         PAGESEL _print_reading
                      03070 ;; >>> ../../../../src/pic14/gen.c:2215:genCall
02FF   2???           03071         CALL    _print_reading
                      03072 ;; >>> ../../../../src/pic14/gen.c:2223:genCall
0300   0??? 0???      03073         PAGESEL $
                      03074 ;;; ../../../../src/pic14/gen.c:2358:resultRemat *{*
                      03075 ;;; ../../../../src/pic14/gen.c:2358:resultRemat *{*
                      03076 ;;; ../../../../src/pic14/gen.c:2108:genCall *{*
                      03077 ;; ***  genCall  2110
                      03078 ;;      708 register type nRegs=1
                      03079 ;;      708 register type nRegs=1
                      03080 ;;      2158 left AOP_REG
                      03081 ;;; ../../../../src/pic14/gen.c:1357:mov2w_op *{*
                      03082 ;; ***  mov2w  1395  offset=0
                      03083 ;; >>> ../../../../src/pic14/gen.c:1400:mov2w
                      03084 ;;      1126 rIdx = r0x1069 
                      03085         .line   257; "src/measure.c"    print_unit(unit);
0302   0??? 0???      03086         BANKSEL r0x1031
0304   08??           03087         MOVF    r0x1031,W
                      03088 ;; >>> ../../../../src/pic14/gen.c:2207:genCall
0305   0??? 0???      03089         PAGESEL _print_unit
                      03090 ;; >>> ../../../../src/pic14/gen.c:2215:genCall
0307   2???           03091         CALL    _print_unit
                      03092 ;; >>> ../../../../src/pic14/gen.c:2223:genCall
0308   0??? 0???      03093         PAGESEL $
                      03094 ;;; ../../../../src/pic14/gen.c:2358:resultRemat *{*
                      03095 ;;; ../../../../src/pic14/gen.c:2802:genLabel *{*
                      03096 ;; ***  genLabel  2805
                      03097 ;;; ../../../../src/pic14/gen.c:2358:resultRemat *{*
                      03098 ;;; ../../../../src/pic14/gen.c:2570:genEndFunction *{*
                      03099 ;; ***  genEndFunction  2572
                      03100         .line   258; "src/measure.c"    }
030A   0008           03101         RETURN  
                      03102 ; exit point of _measure_inductance
                      03103 
                      03104 ;***
                      03105 ;  pBlock Stats: dbName = C
                      03106 ;***
                      03107 ;has an exit
                      03108 ;functions called:
                      03109 ;   _lcd_gotoxy
                      03110 ;   _put_str
                      03111 ;   _measure_freq
                      03112 ;   ___uint2fs
                      03113 ;   _ser_puts
                      03114 ;   _format_xint32
                      03115 ;   _ser_puts
gpasm-1.5.0 #1285 (Jul 12 2020) obj/sdcc-16f8   11/12/23  13:12:30          PAGE 60


LOC    OBJECT CODE    LINE  SOURCE TEXT
  VALUE

                      03116 ;   _format_float
                      03117 ;   _ser_putch
                      03118 ;   _format_xint32
                      03119 ;   _ser_puts
                      03120 ;   _format_float
                      03121 ;   _ser_putch
                      03122 ;   _format_xint32
                      03123 ;   _ser_puts
                      03124 ;   _format_float
                      03125 ;   _ser_putch
                      03126 ;   _format_xint32
                      03127 ;   _ser_puts
                      03128 ;   _format_float
                      03129 ;   _ser_putch
                      03130 ;   _format_xint32
                      03131 ;   _ser_puts
                      03132 ;   ___fslt
                      03133 ;   ___fsmul
                      03134 ;   ___fsmul
                      03135 ;   ___fsmul
                      03136 ;   ___fssub
                      03137 ;   ___fsmul
                      03138 ;   ___fsmul
                      03139 ;   _ser_puts
                      03140 ;   _format_float
                      03141 ;   _ser_putch
                      03142 ;   _format_xint32
                      03143 ;   _ser_puts
                      03144 ;   ___fslt
                      03145 ;   ___fslt
                      03146 ;   ___fslt
                      03147 ;   ___fsdiv
                      03148 ;   ___fsdiv
                      03149 ;   ___fsdiv
                      03150 ;   ___fsmul
                      03151 ;   ___fs2uint
                      03152 ;   _print_reading
                      03153 ;   _print_unit
                      03154 ;   _lcd_gotoxy
                      03155 ;   _put_str
                      03156 ;   _measure_freq
                      03157 ;   ___uint2fs
                      03158 ;   _ser_puts
                      03159 ;   _format_xint32
                      03160 ;   _ser_puts
                      03161 ;   _format_float
                      03162 ;   _ser_putch
                      03163 ;   _format_xint32
                      03164 ;   _ser_puts
                      03165 ;   _format_float
                      03166 ;   _ser_putch
                      03167 ;   _format_xint32
                      03168 ;   _ser_puts
gpasm-1.5.0 #1285 (Jul 12 2020) obj/sdcc-16f8   11/12/23  13:12:30          PAGE 61


LOC    OBJECT CODE    LINE  SOURCE TEXT
  VALUE

                      03169 ;   _format_float
                      03170 ;   _ser_putch
                      03171 ;   _format_xint32
                      03172 ;   _ser_puts
                      03173 ;   _format_float
                      03174 ;   _ser_putch
                      03175 ;   _format_xint32
                      03176 ;   _ser_puts
                      03177 ;   ___fslt
                      03178 ;   ___fsmul
                      03179 ;   ___fsmul
                      03180 ;   ___fsmul
                      03181 ;   ___fssub
                      03182 ;   ___fsmul
                      03183 ;   ___fsmul
                      03184 ;   _ser_puts
                      03185 ;   _format_float
                      03186 ;   _ser_putch
                      03187 ;   _format_xint32
                      03188 ;   _ser_puts
                      03189 ;   ___fslt
                      03190 ;   ___fslt
                      03191 ;   ___fslt
                      03192 ;   ___fsdiv
                      03193 ;   ___fsdiv
                      03194 ;   ___fsdiv
                      03195 ;   ___fsmul
                      03196 ;   ___fs2uint
                      03197 ;   _print_reading
                      03198 ;   _print_unit
                      03199 ;19 compiler assigned registers:
                      03200 ;   STK00
                      03201 ;   r0x1032
                      03202 ;   r0x1033
                      03203 ;   r0x1034
                      03204 ;   STK01
                      03205 ;   STK02
                      03206 ;   r0x1035
                      03207 ;   r0x1036
                      03208 ;   r0x1037
                      03209 ;   STK04
                      03210 ;   STK03
                      03211 ;   STK06
                      03212 ;   STK05
                      03213 ;   r0x1038
                      03214 ;   r0x1039
                      03215 ;   r0x103A
                      03216 ;   r0x103B
                      03217 ;   r0x103C
                      03218 ;   r0x103D
                      03219 ;; Starting pCode block
                      03220 ;;; ../../../../src/pic14/gen.c:2358:resultRemat *{*
                      03221 ;;; ../../../../src/pic14/gen.c:2802:genLabel *{*
gpasm-1.5.0 #1285 (Jul 12 2020) obj/sdcc-16f8   11/12/23  13:12:30          PAGE 62


LOC    OBJECT CODE    LINE  SOURCE TEXT
  VALUE

                      03222 ;; ***  genLabel  2805
                      03223 ;;; ../../../../src/pic14/gen.c:2358:resultRemat *{*
                      03224 ;;; ../../../../src/pic14/gen.c:2382:genFunction *{*
                      03225 ;; ***  genFunction  2384 curr label offset=14previous max_key=0 
                      03226 S_measure__measure_capacitance  code
0000                  03227 _measure_capacitance:
                      03228 ; 2 exit points
                      03229 ;;; ../../../../src/pic14/gen.c:2358:resultRemat *{*
                      03230 ;;; ../../../../src/pic14/gen.c:2358:resultRemat *{*
                      03231 ;;; ../../../../src/pic14/gen.c:2358:resultRemat *{*
                      03232 ;;; ../../../../src/pic14/gen.c:2108:genCall *{*
                      03233 ;; ***  genCall  2110
                      03234 ;;      2158 left AOP_LIT
                      03235 ;;; ../../../../src/pic14/gen.c:1357:mov2w_op *{*
                      03236 ;; >>> ../../../../src/pic14/gen.c:1375:mov2w_op
                      03237         .line   139; "src/measure.c"    lcd_gotoxy(0, 0);
0000   3000           03238         MOVLW   0x00
                      03239 ;;      2158 left AOP_LIT
                      03240 ;; >>> ../../../../src/pic14/gen.c:2166:genCall
                      03241 ;; ***  popRegFromIdx,1059  , rIdx=0x7f
0001   00??           03242         MOVWF   STK00
                      03243 ;;; ../../../../src/pic14/gen.c:1357:mov2w_op *{*
                      03244 ;; >>> ../../../../src/pic14/gen.c:1375:mov2w_op
0002   3000           03245         MOVLW   0x00
                      03246 ;; >>> ../../../../src/pic14/gen.c:2207:genCall
0003   0??? 0???      03247         PAGESEL _lcd_gotoxy
                      03248 ;; >>> ../../../../src/pic14/gen.c:2215:genCall
0005   2???           03249         CALL    _lcd_gotoxy
                      03250 ;; >>> ../../../../src/pic14/gen.c:2223:genCall
0006   0??? 0???      03251         PAGESEL $
                      03252 ;;; ../../../../src/pic14/gen.c:2358:resultRemat *{*
                      03253 ;;; ../../../../src/pic14/gen.c:2358:resultRemat *{*
                      03254 ;;; ../../../../src/pic14/gen.c:7353:genCast *{*
                      03255 ;; ***  genCast  7354
                      03256 ;;      627
                      03257 ;;      aopForRemat 406
                      03258 ;;      432: rname ___str_4, val 0, const = 0
                      03259 ;;      708 register type nRegs=3
                      03260 ;;      837: aopGet AOP_PCODE type PO_IMMEDIATE
                      03261 ;;      ___str_4
                      03262 ;;      line = 7362 result AOP_REG=r0x1058, size=3, left -=-, size=0, right AOP_PCODE=___str_4, size=2
                      03263 ;; ***  genCast  7408 (size=2)
                      03264 ;;; ../../../../src/pic14/gen.c:1357:mov2w_op *{*
                      03265 ;; >>> ../../../../src/pic14/gen.c:1375:mov2w_op
                      03266         .line   140; "src/measure.c"    put_str("Capacity ");
0008   30??           03267         MOVLW   high (___str_4 + 0)
                      03268 ;; >>> ../../../../src/pic14/gen.c:1407:movwf
                      03269 ;;      1126 rIdx = r0x1059 
0009   0??? 0???      03270         BANKSEL r0x1032
000B   00??           03271         MOVWF   r0x1032
                      03272 ;;; ../../../../src/pic14/gen.c:1357:mov2w_op *{*
                      03273 ;; >>> ../../../../src/pic14/gen.c:1375:mov2w_op
000C   30??           03274         MOVLW   (___str_4 + 0)
gpasm-1.5.0 #1285 (Jul 12 2020) obj/sdcc-16f8   11/12/23  13:12:30          PAGE 63


LOC    OBJECT CODE    LINE  SOURCE TEXT
  VALUE

                      03275 ;; >>> ../../../../src/pic14/gen.c:1407:movwf
                      03276 ;;      1126 rIdx = r0x1058 
000D   00??           03277         MOVWF   r0x1033
                      03278 ;; ***  genCast  7465 (tag=128)
                      03279 ;; >>> ../../../../src/pic14/gen.c:7488:genCast
000E   3080           03280         MOVLW   0x80
                      03281 ;; >>> ../../../../src/pic14/gen.c:1407:movwf
                      03282 ;;      1126 rIdx = r0x105A 
000F   00??           03283         MOVWF   r0x1034
                      03284 ;; ***  addSign  1087
                      03285 ;;; ../../../../src/pic14/genarith.c:1088:addSign *{*
                      03286 ;;; ../../../../src/pic14/gen.c:2358:resultRemat *{*
                      03287 ;;; ../../../../src/pic14/gen.c:2358:resultRemat *{*
                      03288 ;;; ../../../../src/pic14/gen.c:2108:genCall *{*
                      03289 ;; ***  genCall  2110
                      03290 ;;      708 register type nRegs=3
                      03291 ;;      708 register type nRegs=3
                      03292 ;;      2158 left AOP_REG
                      03293 ;;; ../../../../src/pic14/gen.c:1357:mov2w_op *{*
                      03294 ;; ***  mov2w  1395  offset=0
                      03295 ;; >>> ../../../../src/pic14/gen.c:1400:mov2w
                      03296 ;;      1126 rIdx = r0x1058 
0010   08??           03297         MOVF    r0x1033,W
                      03298 ;;      2158 left AOP_REG
                      03299 ;; >>> ../../../../src/pic14/gen.c:2166:genCall
                      03300 ;; ***  popRegFromIdx,1059  , rIdx=0x7e
0011   00??           03301         MOVWF   STK01
                      03302 ;;; ../../../../src/pic14/gen.c:1357:mov2w_op *{*
                      03303 ;; ***  mov2w  1395  offset=1
                      03304 ;; >>> ../../../../src/pic14/gen.c:1400:mov2w
                      03305 ;;      1126 rIdx = r0x1059 
0012   08??           03306         MOVF    r0x1032,W
                      03307 ;;      2158 left AOP_REG
                      03308 ;; >>> ../../../../src/pic14/gen.c:2166:genCall
                      03309 ;; ***  popRegFromIdx,1059  , rIdx=0x7f
0013   00??           03310         MOVWF   STK00
                      03311 ;;; ../../../../src/pic14/gen.c:1357:mov2w_op *{*
                      03312 ;; ***  mov2w  1395  offset=2
                      03313 ;; >>> ../../../../src/pic14/gen.c:1400:mov2w
                      03314 ;;      1126 rIdx = r0x105A 
0014   08??           03315         MOVF    r0x1034,W
                      03316 ;; >>> ../../../../src/pic14/gen.c:2207:genCall
0015   0??? 0???      03317         PAGESEL _put_str
                      03318 ;; >>> ../../../../src/pic14/gen.c:2215:genCall
0017   2???           03319         CALL    _put_str
                      03320 ;; >>> ../../../../src/pic14/gen.c:2223:genCall
0018   0??? 0???      03321         PAGESEL $
                      03322 ;;; ../../../../src/pic14/gen.c:2358:resultRemat *{*
                      03323 ;;; ../../../../src/pic14/gen.c:2108:genCall *{*
                      03324 ;; ***  genCall  2110
                      03325 ;; >>> ../../../../src/pic14/gen.c:2207:genCall
                      03326         .line   142; "src/measure.c"    var = measure_freq();
001A   0??? 0???      03327         PAGESEL _measure_freq
gpasm-1.5.0 #1285 (Jul 12 2020) obj/sdcc-16f8   11/12/23  13:12:30          PAGE 64


LOC    OBJECT CODE    LINE  SOURCE TEXT
  VALUE

                      03328 ;; >>> ../../../../src/pic14/gen.c:2215:genCall
001C   2???           03329         CALL    _measure_freq
                      03330 ;; >>> ../../../../src/pic14/gen.c:2223:genCall
001D   0??? 0???      03331         PAGESEL $
                      03332 ;;      708 register type nRegs=2
                      03333 ;;; ../../../../src/pic14/gen.c:1929:assignResultValue *{*
                      03334 ;; ***  assignResultValue  1931
                      03335 ;;      line = 1933 result -=-, size=0, left AOP_REG=r0x1058, size=2, right -=-, size=0
                      03336 ;; >>> ../../../../src/pic14/gen.c:1407:movwf
                      03337 ;;      1126 rIdx = r0x1059 
001F   0??? 0???      03338         BANKSEL r0x1032
0021   00??           03339         MOVWF   r0x1032
                      03340 ;; >>> ../../../../src/pic14/gen.c:1437:get_returnvalue
                      03341 ;; ***  popRegFromIdx,1059  , rIdx=0x7f
0022   08??           03342         MOVF    STK00,W
                      03343 ;; >>> ../../../../src/pic14/gen.c:1407:movwf
                      03344 ;;      1126 rIdx = r0x1058 
                      03345         .line   144; "src/measure.c"    F3 = (double)var;
0023   00??           03346         MOVWF   r0x1033
0024   00??           03347         MOVWF   STK00
                      03348 ;;; ../../../../src/pic14/gen.c:1357:mov2w_op *{*
                      03349 ;; ***  mov2w  1395  offset=1
                      03350 ;; >>> ../../../../src/pic14/gen.c:1400:mov2w
                      03351 ;;      1126 rIdx = r0x1059 
0025   08??           03352         MOVF    r0x1032,W
                      03353 ;; >>> ../../../../src/pic14/gen.c:2207:genCall
0026   0??? 0???      03354         PAGESEL ___uint2fs
                      03355 ;; >>> ../../../../src/pic14/gen.c:2215:genCall
0028   2???           03356         CALL    ___uint2fs
                      03357 ;; >>> ../../../../src/pic14/gen.c:2223:genCall
0029   0??? 0???      03358         PAGESEL $
                      03359 ;; ***  aopForSym 324
                      03360 ;;      336 sym->rname = _F3, size = 4
                      03361 ;;; ../../../../src/pic14/gen.c:1929:assignResultValue *{*
                      03362 ;; ***  assignResultValue  1931
                      03363 ;;      line = 1933 result -=-, size=0, left AOP_DIR=_F3, size=4, right -=-, size=0
                      03364 ;; >>> ../../../../src/pic14/gen.c:1407:movwf
                      03365 ;;      1027
                      03366 ;;      1045  _F3   offset=3
002B   0??? 0???      03367         BANKSEL _F3
002D   00??           03368         MOVWF   (_F3 + 3)
                      03369 ;; >>> ../../../../src/pic14/gen.c:1437:get_returnvalue
                      03370 ;; ***  popRegFromIdx,1059  , rIdx=0x7f
002E   08??           03371         MOVF    STK00,W
                      03372 ;; >>> ../../../../src/pic14/gen.c:1407:movwf
                      03373 ;;      1027
                      03374 ;;      1045  _F3   offset=2
002F   00??           03375         MOVWF   (_F3 + 2)
                      03376 ;; >>> ../../../../src/pic14/gen.c:1437:get_returnvalue
                      03377 ;; ***  popRegFromIdx,1059  , rIdx=0x7e
0030   08??           03378         MOVF    STK01,W
                      03379 ;; >>> ../../../../src/pic14/gen.c:1407:movwf
                      03380 ;;      1027
gpasm-1.5.0 #1285 (Jul 12 2020) obj/sdcc-16f8   11/12/23  13:12:30          PAGE 65


LOC    OBJECT CODE    LINE  SOURCE TEXT
  VALUE

                      03381 ;;      1045  _F3   offset=1
0031   00??           03382         MOVWF   (_F3 + 1)
                      03383 ;; >>> ../../../../src/pic14/gen.c:1437:get_returnvalue
                      03384 ;; ***  popRegFromIdx,1059  , rIdx=0x7d
0032   08??           03385         MOVF    STK02,W
                      03386 ;; >>> ../../../../src/pic14/gen.c:1407:movwf
                      03387 ;;      1027
                      03388 ;;      1045  _F3   offset=0
0033   00??           03389         MOVWF   _F3
                      03390 ;;      2238 left AOP_DIR
                      03391 ;;; ../../../../src/pic14/gen.c:2358:resultRemat *{*
                      03392 ;;; ../../../../src/pic14/gen.c:2358:resultRemat *{*
                      03393 ;;; ../../../../src/pic14/gen.c:7353:genCast *{*
                      03394 ;; ***  genCast  7354
                      03395 ;;      627
                      03396 ;;      aopForRemat 406
                      03397 ;;      432: rname ___str_5, val 0, const = 0
                      03398 ;;      708 register type nRegs=3
                      03399 ;;      837: aopGet AOP_PCODE type PO_IMMEDIATE
                      03400 ;;      ___str_5
                      03401 ;;      line = 7362 result AOP_REG=r0x105A, size=3, left -=-, size=0, right AOP_PCODE=___str_5, size=2
                      03402 ;; ***  genCast  7408 (size=2)
                      03403 ;;; ../../../../src/pic14/gen.c:1357:mov2w_op *{*
                      03404 ;; >>> ../../../../src/pic14/gen.c:1375:mov2w_op
                      03405         .line   147; "src/measure.c"    ser_puts("var=");
0034   30??           03406         MOVLW   high (___str_5 + 0)
                      03407 ;; >>> ../../../../src/pic14/gen.c:1407:movwf
                      03408 ;;      1126 rIdx = r0x105B 
0035   0??? 0???      03409         BANKSEL r0x1035
0037   00??           03410         MOVWF   r0x1035
                      03411 ;;; ../../../../src/pic14/gen.c:1357:mov2w_op *{*
                      03412 ;; >>> ../../../../src/pic14/gen.c:1375:mov2w_op
0038   30??           03413         MOVLW   (___str_5 + 0)
                      03414 ;; >>> ../../../../src/pic14/gen.c:1407:movwf
                      03415 ;;      1126 rIdx = r0x105A 
0039   00??           03416         MOVWF   r0x1034
                      03417 ;; ***  genCast  7465 (tag=128)
                      03418 ;; >>> ../../../../src/pic14/gen.c:7488:genCast
003A   3080           03419         MOVLW   0x80
                      03420 ;; >>> ../../../../src/pic14/gen.c:1407:movwf
                      03421 ;;      1126 rIdx = r0x105C 
003B   00??           03422         MOVWF   r0x1036
                      03423 ;; ***  addSign  1087
                      03424 ;;; ../../../../src/pic14/genarith.c:1088:addSign *{*
                      03425 ;;; ../../../../src/pic14/gen.c:2358:resultRemat *{*
                      03426 ;;; ../../../../src/pic14/gen.c:2358:resultRemat *{*
                      03427 ;;; ../../../../src/pic14/gen.c:2108:genCall *{*
                      03428 ;; ***  genCall  2110
                      03429 ;;      708 register type nRegs=3
                      03430 ;;      708 register type nRegs=3
                      03431 ;;      2158 left AOP_REG
                      03432 ;;; ../../../../src/pic14/gen.c:1357:mov2w_op *{*
                      03433 ;; ***  mov2w  1395  offset=0
gpasm-1.5.0 #1285 (Jul 12 2020) obj/sdcc-16f8   11/12/23  13:12:30          PAGE 66


LOC    OBJECT CODE    LINE  SOURCE TEXT
  VALUE

                      03434 ;; >>> ../../../../src/pic14/gen.c:1400:mov2w
                      03435 ;;      1126 rIdx = r0x105A 
003C   08??           03436         MOVF    r0x1034,W
                      03437 ;;      2158 left AOP_REG
                      03438 ;; >>> ../../../../src/pic14/gen.c:2166:genCall
                      03439 ;; ***  popRegFromIdx,1059  , rIdx=0x7e
003D   00??           03440         MOVWF   STK01
                      03441 ;;; ../../../../src/pic14/gen.c:1357:mov2w_op *{*
                      03442 ;; ***  mov2w  1395  offset=1
                      03443 ;; >>> ../../../../src/pic14/gen.c:1400:mov2w
                      03444 ;;      1126 rIdx = r0x105B 
003E   08??           03445         MOVF    r0x1035,W
                      03446 ;;      2158 left AOP_REG
                      03447 ;; >>> ../../../../src/pic14/gen.c:2166:genCall
                      03448 ;; ***  popRegFromIdx,1059  , rIdx=0x7f
003F   00??           03449         MOVWF   STK00
                      03450 ;;; ../../../../src/pic14/gen.c:1357:mov2w_op *{*
                      03451 ;; ***  mov2w  1395  offset=2
                      03452 ;; >>> ../../../../src/pic14/gen.c:1400:mov2w
                      03453 ;;      1126 rIdx = r0x105C 
0040   08??           03454         MOVF    r0x1036,W
                      03455 ;; >>> ../../../../src/pic14/gen.c:2207:genCall
0041   0??? 0???      03456         PAGESEL _ser_puts
                      03457 ;; >>> ../../../../src/pic14/gen.c:2215:genCall
0043   2???           03458         CALL    _ser_puts
                      03459 ;; >>> ../../../../src/pic14/gen.c:2223:genCall
0044   0??? 0???      03460         PAGESEL $
                      03461 ;;; ../../../../src/pic14/gen.c:2358:resultRemat *{*
                      03462 ;;; ../../../../src/pic14/gen.c:7353:genCast *{*
                      03463 ;; ***  genCast  7354
                      03464 ;;      708 register type nRegs=2
                      03465 ;;      708 register type nRegs=4
                      03466 ;;      line = 7362 result AOP_REG=r0x105A, size=4, left -=-, size=0, right AOP_REG=r0x1058, size=2
                      03467 ;; >>> ../../../../src/pic14/gen.c:7549:genCast
                      03468 ;;      1126 rIdx = r0x1058 
                      03469 ;;103   MOVF    r0x1033,W
                      03470 ;; >>> ../../../../src/pic14/gen.c:7550:genCast
                      03471 ;;      1126 rIdx = r0x105A 
                      03472 ;; >>> ../../../../src/pic14/gen.c:7549:genCast
                      03473 ;;      1126 rIdx = r0x1059 
                      03474 ;;105   MOVF    r0x1032,W
                      03475 ;; >>> ../../../../src/pic14/gen.c:7550:genCast
                      03476 ;;      1126 rIdx = r0x105B 
                      03477 ;; ***  addSign  1087
                      03478 ;;; ../../../../src/pic14/genarith.c:1088:addSign *{*
                      03479 ;; >>> ../../../../src/pic14/genarith.c:1107:addSign
                      03480 ;;      1126 rIdx = r0x105C 
                      03481         .line   148; "src/measure.c"    format_xint32(&ser_putch, var);
0046   0??? 0???      03482         BANKSEL r0x1036
0048   01??           03483         CLRF    r0x1036
                      03484 ;; >>> ../../../../src/pic14/genarith.c:1107:addSign
                      03485 ;;      1126 rIdx = r0x105D 
0049   01??           03486         CLRF    r0x1037
gpasm-1.5.0 #1285 (Jul 12 2020) obj/sdcc-16f8   11/12/23  13:12:30          PAGE 67


LOC    OBJECT CODE    LINE  SOURCE TEXT
  VALUE

                      03487 ;;; ../../../../src/pic14/gen.c:2358:resultRemat *{*
                      03488 ;;; ../../../../src/pic14/gen.c:2358:resultRemat *{*
                      03489 ;;; ../../../../src/pic14/gen.c:2358:resultRemat *{*
                      03490 ;;; ../../../../src/pic14/gen.c:2108:genCall *{*
                      03491 ;; ***  genCall  2110
                      03492 ;;      708 register type nRegs=4
                      03493 ;; ***  aopForSym 324
                      03494 ;;      353 size = 2, name =_ser_putch
                      03495 ;;      708 register type nRegs=4
                      03496 ;;      2158 left AOP_REG
                      03497 ;;; ../../../../src/pic14/gen.c:1357:mov2w_op *{*
                      03498 ;; ***  mov2w  1395  offset=0
                      03499 ;; >>> ../../../../src/pic14/gen.c:1400:mov2w
                      03500 ;;      1126 rIdx = r0x105A 
                      03501 ;;102   MOVF    r0x1034,W
004A   08??           03502         MOVF    r0x1033,W
004B   00??           03503         MOVWF   r0x1034
                      03504 ;;      2158 left AOP_REG
                      03505 ;; >>> ../../../../src/pic14/gen.c:2166:genCall
                      03506 ;; ***  popRegFromIdx,1059  , rIdx=0x7b
004C   00??           03507         MOVWF   STK04
                      03508 ;;; ../../../../src/pic14/gen.c:1357:mov2w_op *{*
                      03509 ;; ***  mov2w  1395  offset=1
                      03510 ;; >>> ../../../../src/pic14/gen.c:1400:mov2w
                      03511 ;;      1126 rIdx = r0x105B 
                      03512 ;;104   MOVF    r0x1035,W
004D   08??           03513         MOVF    r0x1032,W
004E   00??           03514         MOVWF   r0x1035
                      03515 ;;      2158 left AOP_REG
                      03516 ;; >>> ../../../../src/pic14/gen.c:2166:genCall
                      03517 ;; ***  popRegFromIdx,1059  , rIdx=0x7c
004F   00??           03518         MOVWF   STK03
                      03519 ;;; ../../../../src/pic14/gen.c:1357:mov2w_op *{*
                      03520 ;; ***  mov2w  1395  offset=2
                      03521 ;; >>> ../../../../src/pic14/gen.c:1400:mov2w
                      03522 ;;      1126 rIdx = r0x105C 
0050   3000           03523         MOVLW   0x00
                      03524 ;;      2158 left AOP_REG
                      03525 ;; >>> ../../../../src/pic14/gen.c:2166:genCall
                      03526 ;; ***  popRegFromIdx,1059  , rIdx=0x7d
0051   00??           03527         MOVWF   STK02
                      03528 ;;; ../../../../src/pic14/gen.c:1357:mov2w_op *{*
                      03529 ;; ***  mov2w  1395  offset=3
                      03530 ;; >>> ../../../../src/pic14/gen.c:1400:mov2w
                      03531 ;;      1126 rIdx = r0x105D 
0052   3000           03532         MOVLW   0x00
                      03533 ;; ***  aopForSym 324
                      03534 ;;      353 size = 2, name =_ser_putch
                      03535 ;;      2158 left AOP_PCODE
                      03536 ;; >>> ../../../../src/pic14/gen.c:2166:genCall
                      03537 ;; ***  popRegFromIdx,1059  , rIdx=0x7e
0053   00??           03538         MOVWF   STK01
                      03539 ;;; ../../../../src/pic14/gen.c:1357:mov2w_op *{*
gpasm-1.5.0 #1285 (Jul 12 2020) obj/sdcc-16f8   11/12/23  13:12:30          PAGE 68


LOC    OBJECT CODE    LINE  SOURCE TEXT
  VALUE

                      03540 ;; >>> ../../../../src/pic14/gen.c:1375:mov2w_op
0054   30??           03541         MOVLW   low (_ser_putch+0)
                      03542 ;;      2158 left AOP_PCODE
                      03543 ;; >>> ../../../../src/pic14/gen.c:2166:genCall
                      03544 ;; ***  popRegFromIdx,1059  , rIdx=0x7f
0055   00??           03545         MOVWF   STK00
                      03546 ;;; ../../../../src/pic14/gen.c:1357:mov2w_op *{*
                      03547 ;; >>> ../../../../src/pic14/gen.c:1375:mov2w_op
0056   30??           03548         MOVLW   high (_ser_putch+0)
                      03549 ;; >>> ../../../../src/pic14/gen.c:2207:genCall
0057   0??? 0???      03550         PAGESEL _format_xint32
                      03551 ;; >>> ../../../../src/pic14/gen.c:2215:genCall
0059   2???           03552         CALL    _format_xint32
                      03553 ;; >>> ../../../../src/pic14/gen.c:2223:genCall
005A   0??? 0???      03554         PAGESEL $
                      03555 ;;; ../../../../src/pic14/gen.c:2358:resultRemat *{*
                      03556 ;;; ../../../../src/pic14/gen.c:2358:resultRemat *{*
                      03557 ;;; ../../../../src/pic14/gen.c:7353:genCast *{*
                      03558 ;; ***  genCast  7354
                      03559 ;;      627
                      03560 ;;      aopForRemat 406
                      03561 ;;      432: rname ___str_6, val 0, const = 0
                      03562 ;;      708 register type nRegs=3
                      03563 ;;      837: aopGet AOP_PCODE type PO_IMMEDIATE
                      03564 ;;      ___str_6
                      03565 ;;      line = 7362 result AOP_REG=r0x1058, size=3, left -=-, size=0, right AOP_PCODE=___str_6, size=2
                      03566 ;; ***  genCast  7408 (size=2)
                      03567 ;;; ../../../../src/pic14/gen.c:1357:mov2w_op *{*
                      03568 ;; >>> ../../../../src/pic14/gen.c:1375:mov2w_op
                      03569         .line   150; "src/measure.c"    ser_puts("\r\nF1=");
005C   30??           03570         MOVLW   high (___str_6 + 0)
                      03571 ;; >>> ../../../../src/pic14/gen.c:1407:movwf
                      03572 ;;      1126 rIdx = r0x1059 
005D   0??? 0???      03573         BANKSEL r0x1032
005F   00??           03574         MOVWF   r0x1032
                      03575 ;;; ../../../../src/pic14/gen.c:1357:mov2w_op *{*
                      03576 ;; >>> ../../../../src/pic14/gen.c:1375:mov2w_op
0060   30??           03577         MOVLW   (___str_6 + 0)
                      03578 ;; >>> ../../../../src/pic14/gen.c:1407:movwf
                      03579 ;;      1126 rIdx = r0x1058 
0061   00??           03580         MOVWF   r0x1033
                      03581 ;; ***  genCast  7465 (tag=128)
                      03582 ;; >>> ../../../../src/pic14/gen.c:7488:genCast
0062   3080           03583         MOVLW   0x80
                      03584 ;; >>> ../../../../src/pic14/gen.c:1407:movwf
                      03585 ;;      1126 rIdx = r0x105A 
0063   00??           03586         MOVWF   r0x1034
                      03587 ;; ***  addSign  1087
                      03588 ;;; ../../../../src/pic14/genarith.c:1088:addSign *{*
                      03589 ;;; ../../../../src/pic14/gen.c:2358:resultRemat *{*
                      03590 ;;; ../../../../src/pic14/gen.c:2358:resultRemat *{*
                      03591 ;;; ../../../../src/pic14/gen.c:2108:genCall *{*
                      03592 ;; ***  genCall  2110
gpasm-1.5.0 #1285 (Jul 12 2020) obj/sdcc-16f8   11/12/23  13:12:30          PAGE 69


LOC    OBJECT CODE    LINE  SOURCE TEXT
  VALUE

                      03593 ;;      708 register type nRegs=3
                      03594 ;;      708 register type nRegs=3
                      03595 ;;      2158 left AOP_REG
                      03596 ;;; ../../../../src/pic14/gen.c:1357:mov2w_op *{*
                      03597 ;; ***  mov2w  1395  offset=0
                      03598 ;; >>> ../../../../src/pic14/gen.c:1400:mov2w
                      03599 ;;      1126 rIdx = r0x1058 
0064   08??           03600         MOVF    r0x1033,W
                      03601 ;;      2158 left AOP_REG
                      03602 ;; >>> ../../../../src/pic14/gen.c:2166:genCall
                      03603 ;; ***  popRegFromIdx,1059  , rIdx=0x7e
0065   00??           03604         MOVWF   STK01
                      03605 ;;; ../../../../src/pic14/gen.c:1357:mov2w_op *{*
                      03606 ;; ***  mov2w  1395  offset=1
                      03607 ;; >>> ../../../../src/pic14/gen.c:1400:mov2w
                      03608 ;;      1126 rIdx = r0x1059 
0066   08??           03609         MOVF    r0x1032,W
                      03610 ;;      2158 left AOP_REG
                      03611 ;; >>> ../../../../src/pic14/gen.c:2166:genCall
                      03612 ;; ***  popRegFromIdx,1059  , rIdx=0x7f
0067   00??           03613         MOVWF   STK00
                      03614 ;;; ../../../../src/pic14/gen.c:1357:mov2w_op *{*
                      03615 ;; ***  mov2w  1395  offset=2
                      03616 ;; >>> ../../../../src/pic14/gen.c:1400:mov2w
                      03617 ;;      1126 rIdx = r0x105A 
0068   08??           03618         MOVF    r0x1034,W
                      03619 ;; >>> ../../../../src/pic14/gen.c:2207:genCall
0069   0??? 0???      03620         PAGESEL _ser_puts
                      03621 ;; >>> ../../../../src/pic14/gen.c:2215:genCall
006B   2???           03622         CALL    _ser_puts
                      03623 ;; >>> ../../../../src/pic14/gen.c:2223:genCall
006C   0??? 0???      03624         PAGESEL $
                      03625 ;;; ../../../../src/pic14/gen.c:2358:resultRemat *{*
                      03626 ;;; ../../../../src/pic14/gen.c:2358:resultRemat *{*
                      03627 ;;; ../../../../src/pic14/gen.c:2358:resultRemat *{*
                      03628 ;;; ../../../../src/pic14/gen.c:2108:genCall *{*
                      03629 ;; ***  genCall  2110
                      03630 ;; ***  aopForSym 324
                      03631 ;;      336 sym->rname = _F1, size = 4
                      03632 ;; ***  aopForSym 324
                      03633 ;;      353 size = 2, name =_ser_putch
                      03634 ;; ***  aopForSym 324
                      03635 ;;      336 sym->rname = _F1, size = 4
                      03636 ;;      2158 left AOP_DIR
                      03637 ;;; ../../../../src/pic14/gen.c:1357:mov2w_op *{*
                      03638 ;; ***  mov2w  1395  offset=0
                      03639 ;; >>> ../../../../src/pic14/gen.c:1400:mov2w
                      03640 ;;      1027
                      03641 ;;      1045  _F1   offset=0
                      03642         .line   151; "src/measure.c"    format_float(&ser_putch, F1);
006E   0??? 0???      03643         BANKSEL _F1
0070   08??           03644         MOVF    _F1,W
                      03645 ;;      2158 left AOP_DIR
gpasm-1.5.0 #1285 (Jul 12 2020) obj/sdcc-16f8   11/12/23  13:12:30          PAGE 70


LOC    OBJECT CODE    LINE  SOURCE TEXT
  VALUE

                      03646 ;; >>> ../../../../src/pic14/gen.c:2166:genCall
                      03647 ;; ***  popRegFromIdx,1059  , rIdx=0x7b
0071   00??           03648         MOVWF   STK04
                      03649 ;;; ../../../../src/pic14/gen.c:1357:mov2w_op *{*
                      03650 ;; ***  mov2w  1395  offset=1
                      03651 ;; >>> ../../../../src/pic14/gen.c:1400:mov2w
                      03652 ;;      1027
                      03653 ;;      1045  _F1   offset=1
0072   08??           03654         MOVF    (_F1 + 1),W
                      03655 ;;      2158 left AOP_DIR
                      03656 ;; >>> ../../../../src/pic14/gen.c:2166:genCall
                      03657 ;; ***  popRegFromIdx,1059  , rIdx=0x7c
0073   00??           03658         MOVWF   STK03
                      03659 ;;; ../../../../src/pic14/gen.c:1357:mov2w_op *{*
                      03660 ;; ***  mov2w  1395  offset=2
                      03661 ;; >>> ../../../../src/pic14/gen.c:1400:mov2w
                      03662 ;;      1027
                      03663 ;;      1045  _F1   offset=2
0074   08??           03664         MOVF    (_F1 + 2),W
                      03665 ;;      2158 left AOP_DIR
                      03666 ;; >>> ../../../../src/pic14/gen.c:2166:genCall
                      03667 ;; ***  popRegFromIdx,1059  , rIdx=0x7d
0075   00??           03668         MOVWF   STK02
                      03669 ;;; ../../../../src/pic14/gen.c:1357:mov2w_op *{*
                      03670 ;; ***  mov2w  1395  offset=3
                      03671 ;; >>> ../../../../src/pic14/gen.c:1400:mov2w
                      03672 ;;      1027
                      03673 ;;      1045  _F1   offset=3
0076   08??           03674         MOVF    (_F1 + 3),W
                      03675 ;; ***  aopForSym 324
                      03676 ;;      353 size = 2, name =_ser_putch
                      03677 ;;      2158 left AOP_PCODE
                      03678 ;; >>> ../../../../src/pic14/gen.c:2166:genCall
                      03679 ;; ***  popRegFromIdx,1059  , rIdx=0x7e
0077   00??           03680         MOVWF   STK01
                      03681 ;;; ../../../../src/pic14/gen.c:1357:mov2w_op *{*
                      03682 ;; >>> ../../../../src/pic14/gen.c:1375:mov2w_op
0078   30??           03683         MOVLW   low (_ser_putch+0)
                      03684 ;;      2158 left AOP_PCODE
                      03685 ;; >>> ../../../../src/pic14/gen.c:2166:genCall
                      03686 ;; ***  popRegFromIdx,1059  , rIdx=0x7f
0079   00??           03687         MOVWF   STK00
                      03688 ;;; ../../../../src/pic14/gen.c:1357:mov2w_op *{*
                      03689 ;; >>> ../../../../src/pic14/gen.c:1375:mov2w_op
007A   30??           03690         MOVLW   high (_ser_putch+0)
                      03691 ;; >>> ../../../../src/pic14/gen.c:2207:genCall
007B   0??? 0???      03692         PAGESEL _format_float
                      03693 ;; >>> ../../../../src/pic14/gen.c:2215:genCall
007D   2???           03694         CALL    _format_float
                      03695 ;; >>> ../../../../src/pic14/gen.c:2223:genCall
007E   0??? 0???      03696         PAGESEL $
                      03697 ;;; ../../../../src/pic14/gen.c:2358:resultRemat *{*
                      03698 ;;; ../../../../src/pic14/gen.c:2358:resultRemat *{*
gpasm-1.5.0 #1285 (Jul 12 2020) obj/sdcc-16f8   11/12/23  13:12:30          PAGE 71


LOC    OBJECT CODE    LINE  SOURCE TEXT
  VALUE

                      03699 ;;; ../../../../src/pic14/gen.c:2108:genCall *{*
                      03700 ;; ***  genCall  2110
                      03701 ;;      2158 left AOP_LIT
                      03702 ;;; ../../../../src/pic14/gen.c:1357:mov2w_op *{*
                      03703 ;; >>> ../../../../src/pic14/gen.c:1375:mov2w_op
                      03704         .line   153; "src/measure.c"    ser_putch(' ');
0080   3020           03705         MOVLW   0x20
                      03706 ;; >>> ../../../../src/pic14/gen.c:2207:genCall
0081   0??? 0???      03707         PAGESEL _ser_putch
                      03708 ;; >>> ../../../../src/pic14/gen.c:2215:genCall
0083   2???           03709         CALL    _ser_putch
                      03710 ;; >>> ../../../../src/pic14/gen.c:2223:genCall
0084   0??? 0???      03711         PAGESEL $
                      03712 ;;; ../../../../src/pic14/gen.c:2358:resultRemat *{*
                      03713 ;;; ../../../../src/pic14/gen.c:2358:resultRemat *{*
                      03714 ;;; ../../../../src/pic14/gen.c:7353:genCast *{*
                      03715 ;; ***  genCast  7354
                      03716 ;;      627
                      03717 ;;      aopForRemat 406
                      03718 ;;      432: rname _F1, val 0, const = 0
                      03719 ;;      708 register type nRegs=2
                      03720 ;;      837: aopGet AOP_PCODE type PO_IMMEDIATE
                      03721 ;;      _F1
                      03722 ;;      line = 7362 result AOP_REG=r0x1058, size=2, left -=-, size=0, right AOP_PCODE=_F1, size=2
                      03723 ;; ***  genCast  7408 (size=2)
                      03724 ;;; ../../../../src/pic14/gen.c:1357:mov2w_op *{*
                      03725 ;; >>> ../../../../src/pic14/gen.c:1375:mov2w_op
                      03726         .line   154; "src/measure.c"    format_xint32(&ser_putch, *(uint32_t*)&F1);
0086   30??           03727         MOVLW   high (_F1 + 0)
                      03728 ;; >>> ../../../../src/pic14/gen.c:1407:movwf
                      03729 ;;      1126 rIdx = r0x1059 
0087   0??? 0???      03730         BANKSEL r0x1032
0089   00??           03731         MOVWF   r0x1032
                      03732 ;;; ../../../../src/pic14/gen.c:1357:mov2w_op *{*
                      03733 ;; >>> ../../../../src/pic14/gen.c:1375:mov2w_op
008A   30??           03734         MOVLW   (_F1 + 0)
                      03735 ;; >>> ../../../../src/pic14/gen.c:1407:movwf
                      03736 ;;      1126 rIdx = r0x1058 
008B   00??           03737         MOVWF   r0x1033
008C   1283 1303      03738         BANKSEL FSR
008E   0084           03739         MOVWF   FSR
                      03740 ;;; ../../../../src/pic14/gen.c:5769:SetIrp *{*
                      03741 ;; >>> ../../../../src/pic14/gen.c:5796:SetIrp
008F   1383           03742         BCF     STATUS,7
                      03743 ;; >>> ../../../../src/pic14/gen.c:5799:SetIrp
0090   0??? 0???      03744         BANKSEL r0x1032
0092   18??           03745         BTFSC   r0x1032,0
                      03746 ;; >>> ../../../../src/pic14/gen.c:5800:SetIrp
0093   1783           03747         BSF     STATUS,7
                      03748 ;; >>> ../../../../src/pic14/gen.c:6027:emitPtrGet
0094   1283 1303      03749         BANKSEL INDF
0096   0800           03750         MOVF    INDF,W
                      03751 ;; >>> ../../../../src/pic14/gen.c:1407:movwf
gpasm-1.5.0 #1285 (Jul 12 2020) obj/sdcc-16f8   11/12/23  13:12:30          PAGE 72


LOC    OBJECT CODE    LINE  SOURCE TEXT
  VALUE

                      03752 ;;      1126 rIdx = r0x105A 
0097   0??? 0???      03753         BANKSEL r0x1034
0099   00??           03754         MOVWF   r0x1034
                      03755 ;; >>> ../../../../src/pic14/gen.c:5875:inc_fsr
009A   1283 1303      03756         BANKSEL FSR
009C   0A84           03757         INCF    FSR,F
                      03758 ;; >>> ../../../../src/pic14/gen.c:6027:emitPtrGet
009D   0800           03759         MOVF    INDF,W
                      03760 ;; >>> ../../../../src/pic14/gen.c:1407:movwf
                      03761 ;;      1126 rIdx = r0x105B 
009E   0??? 0???      03762         BANKSEL r0x1035
00A0   00??           03763         MOVWF   r0x1035
                      03764 ;; >>> ../../../../src/pic14/gen.c:5875:inc_fsr
00A1   1283 1303      03765         BANKSEL FSR
00A3   0A84           03766         INCF    FSR,F
                      03767 ;; >>> ../../../../src/pic14/gen.c:6027:emitPtrGet
00A4   0800           03768         MOVF    INDF,W
                      03769 ;; >>> ../../../../src/pic14/gen.c:1407:movwf
                      03770 ;;      1126 rIdx = r0x105C 
00A5   0??? 0???      03771         BANKSEL r0x1036
00A7   00??           03772         MOVWF   r0x1036
                      03773 ;; >>> ../../../../src/pic14/gen.c:5875:inc_fsr
00A8   1283 1303      03774         BANKSEL FSR
00AA   0A84           03775         INCF    FSR,F
                      03776 ;; >>> ../../../../src/pic14/gen.c:6027:emitPtrGet
00AB   0800           03777         MOVF    INDF,W
                      03778 ;; >>> ../../../../src/pic14/gen.c:1407:movwf
                      03779 ;;      1126 rIdx = r0x105D 
00AC   0??? 0???      03780         BANKSEL r0x1037
00AE   00??           03781         MOVWF   r0x1037
                      03782 ;;; ../../../../src/pic14/gen.c:2358:resultRemat *{*
                      03783 ;;; ../../../../src/pic14/gen.c:2358:resultRemat *{*
                      03784 ;;; ../../../../src/pic14/gen.c:2358:resultRemat *{*
                      03785 ;;; ../../../../src/pic14/gen.c:2108:genCall *{*
                      03786 ;; ***  genCall  2110
                      03787 ;;      708 register type nRegs=4
                      03788 ;; ***  aopForSym 324
                      03789 ;;      353 size = 2, name =_ser_putch
                      03790 ;;      708 register type nRegs=4
                      03791 ;;      2158 left AOP_REG
                      03792 ;;; ../../../../src/pic14/gen.c:1357:mov2w_op *{*
                      03793 ;; ***  mov2w  1395  offset=0
                      03794 ;; >>> ../../../../src/pic14/gen.c:1400:mov2w
                      03795 ;;      1126 rIdx = r0x105A 
00AF   08??           03796         MOVF    r0x1034,W
                      03797 ;;      2158 left AOP_REG
                      03798 ;; >>> ../../../../src/pic14/gen.c:2166:genCall
                      03799 ;; ***  popRegFromIdx,1059  , rIdx=0x7b
00B0   00??           03800         MOVWF   STK04
                      03801 ;;; ../../../../src/pic14/gen.c:1357:mov2w_op *{*
                      03802 ;; ***  mov2w  1395  offset=1
                      03803 ;; >>> ../../../../src/pic14/gen.c:1400:mov2w
                      03804 ;;      1126 rIdx = r0x105B 
gpasm-1.5.0 #1285 (Jul 12 2020) obj/sdcc-16f8   11/12/23  13:12:30          PAGE 73


LOC    OBJECT CODE    LINE  SOURCE TEXT
  VALUE

00B1   08??           03805         MOVF    r0x1035,W
                      03806 ;;      2158 left AOP_REG
                      03807 ;; >>> ../../../../src/pic14/gen.c:2166:genCall
                      03808 ;; ***  popRegFromIdx,1059  , rIdx=0x7c
00B2   00??           03809         MOVWF   STK03
                      03810 ;;; ../../../../src/pic14/gen.c:1357:mov2w_op *{*
                      03811 ;; ***  mov2w  1395  offset=2
                      03812 ;; >>> ../../../../src/pic14/gen.c:1400:mov2w
                      03813 ;;      1126 rIdx = r0x105C 
00B3   08??           03814         MOVF    r0x1036,W
                      03815 ;;      2158 left AOP_REG
                      03816 ;; >>> ../../../../src/pic14/gen.c:2166:genCall
                      03817 ;; ***  popRegFromIdx,1059  , rIdx=0x7d
00B4   00??           03818         MOVWF   STK02
                      03819 ;;; ../../../../src/pic14/gen.c:1357:mov2w_op *{*
                      03820 ;; ***  mov2w  1395  offset=3
                      03821 ;; >>> ../../../../src/pic14/gen.c:1400:mov2w
                      03822 ;;      1126 rIdx = r0x105D 
00B5   08??           03823         MOVF    r0x1037,W
                      03824 ;; ***  aopForSym 324
                      03825 ;;      353 size = 2, name =_ser_putch
                      03826 ;;      2158 left AOP_PCODE
                      03827 ;; >>> ../../../../src/pic14/gen.c:2166:genCall
                      03828 ;; ***  popRegFromIdx,1059  , rIdx=0x7e
00B6   00??           03829         MOVWF   STK01
                      03830 ;;; ../../../../src/pic14/gen.c:1357:mov2w_op *{*
                      03831 ;; >>> ../../../../src/pic14/gen.c:1375:mov2w_op
00B7   30??           03832         MOVLW   low (_ser_putch+0)
                      03833 ;;      2158 left AOP_PCODE
                      03834 ;; >>> ../../../../src/pic14/gen.c:2166:genCall
                      03835 ;; ***  popRegFromIdx,1059  , rIdx=0x7f
00B8   00??           03836         MOVWF   STK00
                      03837 ;;; ../../../../src/pic14/gen.c:1357:mov2w_op *{*
                      03838 ;; >>> ../../../../src/pic14/gen.c:1375:mov2w_op
00B9   30??           03839         MOVLW   high (_ser_putch+0)
                      03840 ;; >>> ../../../../src/pic14/gen.c:2207:genCall
00BA   0??? 0???      03841         PAGESEL _format_xint32
                      03842 ;; >>> ../../../../src/pic14/gen.c:2215:genCall
00BC   2???           03843         CALL    _format_xint32
                      03844 ;; >>> ../../../../src/pic14/gen.c:2223:genCall
00BD   0??? 0???      03845         PAGESEL $
                      03846 ;;; ../../../../src/pic14/gen.c:2358:resultRemat *{*
                      03847 ;;; ../../../../src/pic14/gen.c:2358:resultRemat *{*
                      03848 ;;; ../../../../src/pic14/gen.c:7353:genCast *{*
                      03849 ;; ***  genCast  7354
                      03850 ;;      627
                      03851 ;;      aopForRemat 406
                      03852 ;;      432: rname ___str_7, val 0, const = 0
                      03853 ;;      708 register type nRegs=3
                      03854 ;;      837: aopGet AOP_PCODE type PO_IMMEDIATE
                      03855 ;;      ___str_7
                      03856 ;;      line = 7362 result AOP_REG=r0x1058, size=3, left -=-, size=0, right AOP_PCODE=___str_7, size=2
                      03857 ;; ***  genCast  7408 (size=2)
gpasm-1.5.0 #1285 (Jul 12 2020) obj/sdcc-16f8   11/12/23  13:12:30          PAGE 74


LOC    OBJECT CODE    LINE  SOURCE TEXT
  VALUE

                      03858 ;;; ../../../../src/pic14/gen.c:1357:mov2w_op *{*
                      03859 ;; >>> ../../../../src/pic14/gen.c:1375:mov2w_op
                      03860         .line   156; "src/measure.c"    ser_puts("\r\nF2=");
00BF   30??           03861         MOVLW   high (___str_7 + 0)
                      03862 ;; >>> ../../../../src/pic14/gen.c:1407:movwf
                      03863 ;;      1126 rIdx = r0x1059 
00C0   0??? 0???      03864         BANKSEL r0x1032
00C2   00??           03865         MOVWF   r0x1032
                      03866 ;;; ../../../../src/pic14/gen.c:1357:mov2w_op *{*
                      03867 ;; >>> ../../../../src/pic14/gen.c:1375:mov2w_op
00C3   30??           03868         MOVLW   (___str_7 + 0)
                      03869 ;; >>> ../../../../src/pic14/gen.c:1407:movwf
                      03870 ;;      1126 rIdx = r0x1058 
00C4   00??           03871         MOVWF   r0x1033
                      03872 ;; ***  genCast  7465 (tag=128)
                      03873 ;; >>> ../../../../src/pic14/gen.c:7488:genCast
00C5   3080           03874         MOVLW   0x80
                      03875 ;; >>> ../../../../src/pic14/gen.c:1407:movwf
                      03876 ;;      1126 rIdx = r0x105A 
00C6   00??           03877         MOVWF   r0x1034
                      03878 ;; ***  addSign  1087
                      03879 ;;; ../../../../src/pic14/genarith.c:1088:addSign *{*
                      03880 ;;; ../../../../src/pic14/gen.c:2358:resultRemat *{*
                      03881 ;;; ../../../../src/pic14/gen.c:2358:resultRemat *{*
                      03882 ;;; ../../../../src/pic14/gen.c:2108:genCall *{*
                      03883 ;; ***  genCall  2110
                      03884 ;;      708 register type nRegs=3
                      03885 ;;      708 register type nRegs=3
                      03886 ;;      2158 left AOP_REG
                      03887 ;;; ../../../../src/pic14/gen.c:1357:mov2w_op *{*
                      03888 ;; ***  mov2w  1395  offset=0
                      03889 ;; >>> ../../../../src/pic14/gen.c:1400:mov2w
                      03890 ;;      1126 rIdx = r0x1058 
00C7   08??           03891         MOVF    r0x1033,W
                      03892 ;;      2158 left AOP_REG
                      03893 ;; >>> ../../../../src/pic14/gen.c:2166:genCall
                      03894 ;; ***  popRegFromIdx,1059  , rIdx=0x7e
00C8   00??           03895         MOVWF   STK01
                      03896 ;;; ../../../../src/pic14/gen.c:1357:mov2w_op *{*
                      03897 ;; ***  mov2w  1395  offset=1
                      03898 ;; >>> ../../../../src/pic14/gen.c:1400:mov2w
                      03899 ;;      1126 rIdx = r0x1059 
00C9   08??           03900         MOVF    r0x1032,W
                      03901 ;;      2158 left AOP_REG
                      03902 ;; >>> ../../../../src/pic14/gen.c:2166:genCall
                      03903 ;; ***  popRegFromIdx,1059  , rIdx=0x7f
00CA   00??           03904         MOVWF   STK00
                      03905 ;;; ../../../../src/pic14/gen.c:1357:mov2w_op *{*
                      03906 ;; ***  mov2w  1395  offset=2
                      03907 ;; >>> ../../../../src/pic14/gen.c:1400:mov2w
                      03908 ;;      1126 rIdx = r0x105A 
00CB   08??           03909         MOVF    r0x1034,W
                      03910 ;; >>> ../../../../src/pic14/gen.c:2207:genCall
gpasm-1.5.0 #1285 (Jul 12 2020) obj/sdcc-16f8   11/12/23  13:12:30          PAGE 75


LOC    OBJECT CODE    LINE  SOURCE TEXT
  VALUE

00CC   0??? 0???      03911         PAGESEL _ser_puts
                      03912 ;; >>> ../../../../src/pic14/gen.c:2215:genCall
00CE   2???           03913         CALL    _ser_puts
                      03914 ;; >>> ../../../../src/pic14/gen.c:2223:genCall
00CF   0??? 0???      03915         PAGESEL $
                      03916 ;;; ../../../../src/pic14/gen.c:2358:resultRemat *{*
                      03917 ;;; ../../../../src/pic14/gen.c:2358:resultRemat *{*
                      03918 ;;; ../../../../src/pic14/gen.c:2358:resultRemat *{*
                      03919 ;;; ../../../../src/pic14/gen.c:2108:genCall *{*
                      03920 ;; ***  genCall  2110
                      03921 ;; ***  aopForSym 324
                      03922 ;;      336 sym->rname = _F2, size = 4
                      03923 ;; ***  aopForSym 324
                      03924 ;;      353 size = 2, name =_ser_putch
                      03925 ;; ***  aopForSym 324
                      03926 ;;      336 sym->rname = _F2, size = 4
                      03927 ;;      2158 left AOP_DIR
                      03928 ;;; ../../../../src/pic14/gen.c:1357:mov2w_op *{*
                      03929 ;; ***  mov2w  1395  offset=0
                      03930 ;; >>> ../../../../src/pic14/gen.c:1400:mov2w
                      03931 ;;      1027
                      03932 ;;      1045  _F2   offset=0
                      03933         .line   157; "src/measure.c"    format_float(&ser_putch, F2);
00D1   0??? 0???      03934         BANKSEL _F2
00D3   08??           03935         MOVF    _F2,W
                      03936 ;;      2158 left AOP_DIR
                      03937 ;; >>> ../../../../src/pic14/gen.c:2166:genCall
                      03938 ;; ***  popRegFromIdx,1059  , rIdx=0x7b
00D4   00??           03939         MOVWF   STK04
                      03940 ;;; ../../../../src/pic14/gen.c:1357:mov2w_op *{*
                      03941 ;; ***  mov2w  1395  offset=1
                      03942 ;; >>> ../../../../src/pic14/gen.c:1400:mov2w
                      03943 ;;      1027
                      03944 ;;      1045  _F2   offset=1
00D5   08??           03945         MOVF    (_F2 + 1),W
                      03946 ;;      2158 left AOP_DIR
                      03947 ;; >>> ../../../../src/pic14/gen.c:2166:genCall
                      03948 ;; ***  popRegFromIdx,1059  , rIdx=0x7c
00D6   00??           03949         MOVWF   STK03
                      03950 ;;; ../../../../src/pic14/gen.c:1357:mov2w_op *{*
                      03951 ;; ***  mov2w  1395  offset=2
                      03952 ;; >>> ../../../../src/pic14/gen.c:1400:mov2w
                      03953 ;;      1027
                      03954 ;;      1045  _F2   offset=2
00D7   08??           03955         MOVF    (_F2 + 2),W
                      03956 ;;      2158 left AOP_DIR
                      03957 ;; >>> ../../../../src/pic14/gen.c:2166:genCall
                      03958 ;; ***  popRegFromIdx,1059  , rIdx=0x7d
00D8   00??           03959         MOVWF   STK02
                      03960 ;;; ../../../../src/pic14/gen.c:1357:mov2w_op *{*
                      03961 ;; ***  mov2w  1395  offset=3
                      03962 ;; >>> ../../../../src/pic14/gen.c:1400:mov2w
                      03963 ;;      1027
gpasm-1.5.0 #1285 (Jul 12 2020) obj/sdcc-16f8   11/12/23  13:12:30          PAGE 76


LOC    OBJECT CODE    LINE  SOURCE TEXT
  VALUE

                      03964 ;;      1045  _F2   offset=3
00D9   08??           03965         MOVF    (_F2 + 3),W
                      03966 ;; ***  aopForSym 324
                      03967 ;;      353 size = 2, name =_ser_putch
                      03968 ;;      2158 left AOP_PCODE
                      03969 ;; >>> ../../../../src/pic14/gen.c:2166:genCall
                      03970 ;; ***  popRegFromIdx,1059  , rIdx=0x7e
00DA   00??           03971         MOVWF   STK01
                      03972 ;;; ../../../../src/pic14/gen.c:1357:mov2w_op *{*
                      03973 ;; >>> ../../../../src/pic14/gen.c:1375:mov2w_op
00DB   30??           03974         MOVLW   low (_ser_putch+0)
                      03975 ;;      2158 left AOP_PCODE
                      03976 ;; >>> ../../../../src/pic14/gen.c:2166:genCall
                      03977 ;; ***  popRegFromIdx,1059  , rIdx=0x7f
00DC   00??           03978         MOVWF   STK00
                      03979 ;;; ../../../../src/pic14/gen.c:1357:mov2w_op *{*
                      03980 ;; >>> ../../../../src/pic14/gen.c:1375:mov2w_op
00DD   30??           03981         MOVLW   high (_ser_putch+0)
                      03982 ;; >>> ../../../../src/pic14/gen.c:2207:genCall
00DE   0??? 0???      03983         PAGESEL _format_float
                      03984 ;; >>> ../../../../src/pic14/gen.c:2215:genCall
00E0   2???           03985         CALL    _format_float
                      03986 ;; >>> ../../../../src/pic14/gen.c:2223:genCall
00E1   0??? 0???      03987         PAGESEL $
                      03988 ;;; ../../../../src/pic14/gen.c:2358:resultRemat *{*
                      03989 ;;; ../../../../src/pic14/gen.c:2358:resultRemat *{*
                      03990 ;;; ../../../../src/pic14/gen.c:2108:genCall *{*
                      03991 ;; ***  genCall  2110
                      03992 ;;      2158 left AOP_LIT
                      03993 ;;; ../../../../src/pic14/gen.c:1357:mov2w_op *{*
                      03994 ;; >>> ../../../../src/pic14/gen.c:1375:mov2w_op
                      03995         .line   159; "src/measure.c"    ser_putch(' ');
00E3   3020           03996         MOVLW   0x20
                      03997 ;; >>> ../../../../src/pic14/gen.c:2207:genCall
00E4   0??? 0???      03998         PAGESEL _ser_putch
                      03999 ;; >>> ../../../../src/pic14/gen.c:2215:genCall
00E6   2???           04000         CALL    _ser_putch
                      04001 ;; >>> ../../../../src/pic14/gen.c:2223:genCall
00E7   0??? 0???      04002         PAGESEL $
                      04003 ;;; ../../../../src/pic14/gen.c:2358:resultRemat *{*
                      04004 ;;; ../../../../src/pic14/gen.c:2358:resultRemat *{*
                      04005 ;;; ../../../../src/pic14/gen.c:7353:genCast *{*
                      04006 ;; ***  genCast  7354
                      04007 ;;      627
                      04008 ;;      aopForRemat 406
                      04009 ;;      432: rname _F2, val 0, const = 0
                      04010 ;;      708 register type nRegs=2
                      04011 ;;      837: aopGet AOP_PCODE type PO_IMMEDIATE
                      04012 ;;      _F2
                      04013 ;;      line = 7362 result AOP_REG=r0x1058, size=2, left -=-, size=0, right AOP_PCODE=_F2, size=2
                      04014 ;; ***  genCast  7408 (size=2)
                      04015 ;;; ../../../../src/pic14/gen.c:1357:mov2w_op *{*
                      04016 ;; >>> ../../../../src/pic14/gen.c:1375:mov2w_op
gpasm-1.5.0 #1285 (Jul 12 2020) obj/sdcc-16f8   11/12/23  13:12:30          PAGE 77


LOC    OBJECT CODE    LINE  SOURCE TEXT
  VALUE

                      04017         .line   160; "src/measure.c"    format_xint32(&ser_putch, *(uint32_t*)&F2);
00E9   30??           04018         MOVLW   high (_F2 + 0)
                      04019 ;; >>> ../../../../src/pic14/gen.c:1407:movwf
                      04020 ;;      1126 rIdx = r0x1059 
00EA   0??? 0???      04021         BANKSEL r0x1032
00EC   00??           04022         MOVWF   r0x1032
                      04023 ;;; ../../../../src/pic14/gen.c:1357:mov2w_op *{*
                      04024 ;; >>> ../../../../src/pic14/gen.c:1375:mov2w_op
00ED   30??           04025         MOVLW   (_F2 + 0)
                      04026 ;; >>> ../../../../src/pic14/gen.c:1407:movwf
                      04027 ;;      1126 rIdx = r0x1058 
00EE   00??           04028         MOVWF   r0x1033
00EF   1283 1303      04029         BANKSEL FSR
00F1   0084           04030         MOVWF   FSR
                      04031 ;;; ../../../../src/pic14/gen.c:5769:SetIrp *{*
                      04032 ;; >>> ../../../../src/pic14/gen.c:5796:SetIrp
00F2   1383           04033         BCF     STATUS,7
                      04034 ;; >>> ../../../../src/pic14/gen.c:5799:SetIrp
00F3   0??? 0???      04035         BANKSEL r0x1032
00F5   18??           04036         BTFSC   r0x1032,0
                      04037 ;; >>> ../../../../src/pic14/gen.c:5800:SetIrp
00F6   1783           04038         BSF     STATUS,7
                      04039 ;; >>> ../../../../src/pic14/gen.c:6027:emitPtrGet
00F7   1283 1303      04040         BANKSEL INDF
00F9   0800           04041         MOVF    INDF,W
                      04042 ;; >>> ../../../../src/pic14/gen.c:1407:movwf
                      04043 ;;      1126 rIdx = r0x105A 
00FA   0??? 0???      04044         BANKSEL r0x1034
00FC   00??           04045         MOVWF   r0x1034
                      04046 ;; >>> ../../../../src/pic14/gen.c:5875:inc_fsr
00FD   1283 1303      04047         BANKSEL FSR
00FF   0A84           04048         INCF    FSR,F
                      04049 ;; >>> ../../../../src/pic14/gen.c:6027:emitPtrGet
0100   0800           04050         MOVF    INDF,W
                      04051 ;; >>> ../../../../src/pic14/gen.c:1407:movwf
                      04052 ;;      1126 rIdx = r0x105B 
0101   0??? 0???      04053         BANKSEL r0x1035
0103   00??           04054         MOVWF   r0x1035
                      04055 ;; >>> ../../../../src/pic14/gen.c:5875:inc_fsr
0104   1283 1303      04056         BANKSEL FSR
0106   0A84           04057         INCF    FSR,F
                      04058 ;; >>> ../../../../src/pic14/gen.c:6027:emitPtrGet
0107   0800           04059         MOVF    INDF,W
                      04060 ;; >>> ../../../../src/pic14/gen.c:1407:movwf
                      04061 ;;      1126 rIdx = r0x105C 
0108   0??? 0???      04062         BANKSEL r0x1036
010A   00??           04063         MOVWF   r0x1036
                      04064 ;; >>> ../../../../src/pic14/gen.c:5875:inc_fsr
010B   1283 1303      04065         BANKSEL FSR
010D   0A84           04066         INCF    FSR,F
                      04067 ;; >>> ../../../../src/pic14/gen.c:6027:emitPtrGet
010E   0800           04068         MOVF    INDF,W
                      04069 ;; >>> ../../../../src/pic14/gen.c:1407:movwf
gpasm-1.5.0 #1285 (Jul 12 2020) obj/sdcc-16f8   11/12/23  13:12:30          PAGE 78


LOC    OBJECT CODE    LINE  SOURCE TEXT
  VALUE

                      04070 ;;      1126 rIdx = r0x105D 
010F   0??? 0???      04071         BANKSEL r0x1037
0111   00??           04072         MOVWF   r0x1037
                      04073 ;;; ../../../../src/pic14/gen.c:2358:resultRemat *{*
                      04074 ;;; ../../../../src/pic14/gen.c:2358:resultRemat *{*
                      04075 ;;; ../../../../src/pic14/gen.c:2358:resultRemat *{*
                      04076 ;;; ../../../../src/pic14/gen.c:2108:genCall *{*
                      04077 ;; ***  genCall  2110
                      04078 ;;      708 register type nRegs=4
                      04079 ;; ***  aopForSym 324
                      04080 ;;      353 size = 2, name =_ser_putch
                      04081 ;;      708 register type nRegs=4
                      04082 ;;      2158 left AOP_REG
                      04083 ;;; ../../../../src/pic14/gen.c:1357:mov2w_op *{*
                      04084 ;; ***  mov2w  1395  offset=0
                      04085 ;; >>> ../../../../src/pic14/gen.c:1400:mov2w
                      04086 ;;      1126 rIdx = r0x105A 
0112   08??           04087         MOVF    r0x1034,W
                      04088 ;;      2158 left AOP_REG
                      04089 ;; >>> ../../../../src/pic14/gen.c:2166:genCall
                      04090 ;; ***  popRegFromIdx,1059  , rIdx=0x7b
0113   00??           04091         MOVWF   STK04
                      04092 ;;; ../../../../src/pic14/gen.c:1357:mov2w_op *{*
                      04093 ;; ***  mov2w  1395  offset=1
                      04094 ;; >>> ../../../../src/pic14/gen.c:1400:mov2w
                      04095 ;;      1126 rIdx = r0x105B 
0114   08??           04096         MOVF    r0x1035,W
                      04097 ;;      2158 left AOP_REG
                      04098 ;; >>> ../../../../src/pic14/gen.c:2166:genCall
                      04099 ;; ***  popRegFromIdx,1059  , rIdx=0x7c
0115   00??           04100         MOVWF   STK03
                      04101 ;;; ../../../../src/pic14/gen.c:1357:mov2w_op *{*
                      04102 ;; ***  mov2w  1395  offset=2
                      04103 ;; >>> ../../../../src/pic14/gen.c:1400:mov2w
                      04104 ;;      1126 rIdx = r0x105C 
0116   08??           04105         MOVF    r0x1036,W
                      04106 ;;      2158 left AOP_REG
                      04107 ;; >>> ../../../../src/pic14/gen.c:2166:genCall
                      04108 ;; ***  popRegFromIdx,1059  , rIdx=0x7d
0117   00??           04109         MOVWF   STK02
                      04110 ;;; ../../../../src/pic14/gen.c:1357:mov2w_op *{*
                      04111 ;; ***  mov2w  1395  offset=3
                      04112 ;; >>> ../../../../src/pic14/gen.c:1400:mov2w
                      04113 ;;      1126 rIdx = r0x105D 
0118   08??           04114         MOVF    r0x1037,W
                      04115 ;; ***  aopForSym 324
                      04116 ;;      353 size = 2, name =_ser_putch
                      04117 ;;      2158 left AOP_PCODE
                      04118 ;; >>> ../../../../src/pic14/gen.c:2166:genCall
                      04119 ;; ***  popRegFromIdx,1059  , rIdx=0x7e
0119   00??           04120         MOVWF   STK01
                      04121 ;;; ../../../../src/pic14/gen.c:1357:mov2w_op *{*
                      04122 ;; >>> ../../../../src/pic14/gen.c:1375:mov2w_op
gpasm-1.5.0 #1285 (Jul 12 2020) obj/sdcc-16f8   11/12/23  13:12:30          PAGE 79


LOC    OBJECT CODE    LINE  SOURCE TEXT
  VALUE

011A   30??           04123         MOVLW   low (_ser_putch+0)
                      04124 ;;      2158 left AOP_PCODE
                      04125 ;; >>> ../../../../src/pic14/gen.c:2166:genCall
                      04126 ;; ***  popRegFromIdx,1059  , rIdx=0x7f
011B   00??           04127         MOVWF   STK00
                      04128 ;;; ../../../../src/pic14/gen.c:1357:mov2w_op *{*
                      04129 ;; >>> ../../../../src/pic14/gen.c:1375:mov2w_op
011C   30??           04130         MOVLW   high (_ser_putch+0)
                      04131 ;; >>> ../../../../src/pic14/gen.c:2207:genCall
011D   0??? 0???      04132         PAGESEL _format_xint32
                      04133 ;; >>> ../../../../src/pic14/gen.c:2215:genCall
011F   2???           04134         CALL    _format_xint32
                      04135 ;; >>> ../../../../src/pic14/gen.c:2223:genCall
0120   0??? 0???      04136         PAGESEL $
                      04137 ;;; ../../../../src/pic14/gen.c:2358:resultRemat *{*
                      04138 ;;; ../../../../src/pic14/gen.c:2358:resultRemat *{*
                      04139 ;;; ../../../../src/pic14/gen.c:7353:genCast *{*
                      04140 ;; ***  genCast  7354
                      04141 ;;      627
                      04142 ;;      aopForRemat 406
                      04143 ;;      432: rname ___str_8, val 0, const = 0
                      04144 ;;      708 register type nRegs=3
                      04145 ;;      837: aopGet AOP_PCODE type PO_IMMEDIATE
                      04146 ;;      ___str_8
                      04147 ;;      line = 7362 result AOP_REG=r0x1058, size=3, left -=-, size=0, right AOP_PCODE=___str_8, size=2
                      04148 ;; ***  genCast  7408 (size=2)
                      04149 ;;; ../../../../src/pic14/gen.c:1357:mov2w_op *{*
                      04150 ;; >>> ../../../../src/pic14/gen.c:1375:mov2w_op
                      04151         .line   162; "src/measure.c"    ser_puts("\r\nF3=");
0122   30??           04152         MOVLW   high (___str_8 + 0)
                      04153 ;; >>> ../../../../src/pic14/gen.c:1407:movwf
                      04154 ;;      1126 rIdx = r0x1059 
0123   0??? 0???      04155         BANKSEL r0x1032
0125   00??           04156         MOVWF   r0x1032
                      04157 ;;; ../../../../src/pic14/gen.c:1357:mov2w_op *{*
                      04158 ;; >>> ../../../../src/pic14/gen.c:1375:mov2w_op
0126   30??           04159         MOVLW   (___str_8 + 0)
                      04160 ;; >>> ../../../../src/pic14/gen.c:1407:movwf
                      04161 ;;      1126 rIdx = r0x1058 
0127   00??           04162         MOVWF   r0x1033
                      04163 ;; ***  genCast  7465 (tag=128)
                      04164 ;; >>> ../../../../src/pic14/gen.c:7488:genCast
0128   3080           04165         MOVLW   0x80
                      04166 ;; >>> ../../../../src/pic14/gen.c:1407:movwf
                      04167 ;;      1126 rIdx = r0x105A 
0129   00??           04168         MOVWF   r0x1034
                      04169 ;; ***  addSign  1087
                      04170 ;;; ../../../../src/pic14/genarith.c:1088:addSign *{*
                      04171 ;;; ../../../../src/pic14/gen.c:2358:resultRemat *{*
                      04172 ;;; ../../../../src/pic14/gen.c:2358:resultRemat *{*
                      04173 ;;; ../../../../src/pic14/gen.c:2108:genCall *{*
                      04174 ;; ***  genCall  2110
                      04175 ;;      708 register type nRegs=3
gpasm-1.5.0 #1285 (Jul 12 2020) obj/sdcc-16f8   11/12/23  13:12:30          PAGE 80


LOC    OBJECT CODE    LINE  SOURCE TEXT
  VALUE

                      04176 ;;      708 register type nRegs=3
                      04177 ;;      2158 left AOP_REG
                      04178 ;;; ../../../../src/pic14/gen.c:1357:mov2w_op *{*
                      04179 ;; ***  mov2w  1395  offset=0
                      04180 ;; >>> ../../../../src/pic14/gen.c:1400:mov2w
                      04181 ;;      1126 rIdx = r0x1058 
012A   08??           04182         MOVF    r0x1033,W
                      04183 ;;      2158 left AOP_REG
                      04184 ;; >>> ../../../../src/pic14/gen.c:2166:genCall
                      04185 ;; ***  popRegFromIdx,1059  , rIdx=0x7e
012B   00??           04186         MOVWF   STK01
                      04187 ;;; ../../../../src/pic14/gen.c:1357:mov2w_op *{*
                      04188 ;; ***  mov2w  1395  offset=1
                      04189 ;; >>> ../../../../src/pic14/gen.c:1400:mov2w
                      04190 ;;      1126 rIdx = r0x1059 
012C   08??           04191         MOVF    r0x1032,W
                      04192 ;;      2158 left AOP_REG
                      04193 ;; >>> ../../../../src/pic14/gen.c:2166:genCall
                      04194 ;; ***  popRegFromIdx,1059  , rIdx=0x7f
012D   00??           04195         MOVWF   STK00
                      04196 ;;; ../../../../src/pic14/gen.c:1357:mov2w_op *{*
                      04197 ;; ***  mov2w  1395  offset=2
                      04198 ;; >>> ../../../../src/pic14/gen.c:1400:mov2w
                      04199 ;;      1126 rIdx = r0x105A 
012E   08??           04200         MOVF    r0x1034,W
                      04201 ;; >>> ../../../../src/pic14/gen.c:2207:genCall
012F   0??? 0???      04202         PAGESEL _ser_puts
                      04203 ;; >>> ../../../../src/pic14/gen.c:2215:genCall
0131   2???           04204         CALL    _ser_puts
                      04205 ;; >>> ../../../../src/pic14/gen.c:2223:genCall
0132   0??? 0???      04206         PAGESEL $
                      04207 ;;; ../../../../src/pic14/gen.c:2358:resultRemat *{*
                      04208 ;;; ../../../../src/pic14/gen.c:2358:resultRemat *{*
                      04209 ;;; ../../../../src/pic14/gen.c:2358:resultRemat *{*
                      04210 ;;; ../../../../src/pic14/gen.c:2108:genCall *{*
                      04211 ;; ***  genCall  2110
                      04212 ;; ***  aopForSym 324
                      04213 ;;      336 sym->rname = _F3, size = 4
                      04214 ;; ***  aopForSym 324
                      04215 ;;      353 size = 2, name =_ser_putch
                      04216 ;; ***  aopForSym 324
                      04217 ;;      336 sym->rname = _F3, size = 4
                      04218 ;;      2158 left AOP_DIR
                      04219 ;;; ../../../../src/pic14/gen.c:1357:mov2w_op *{*
                      04220 ;; ***  mov2w  1395  offset=0
                      04221 ;; >>> ../../../../src/pic14/gen.c:1400:mov2w
                      04222 ;;      1027
                      04223 ;;      1045  _F3   offset=0
                      04224         .line   163; "src/measure.c"    format_float(&ser_putch, F3);
0134   0??? 0???      04225         BANKSEL _F3
0136   08??           04226         MOVF    _F3,W
                      04227 ;;      2158 left AOP_DIR
                      04228 ;; >>> ../../../../src/pic14/gen.c:2166:genCall
gpasm-1.5.0 #1285 (Jul 12 2020) obj/sdcc-16f8   11/12/23  13:12:30          PAGE 81


LOC    OBJECT CODE    LINE  SOURCE TEXT
  VALUE

                      04229 ;; ***  popRegFromIdx,1059  , rIdx=0x7b
0137   00??           04230         MOVWF   STK04
                      04231 ;;; ../../../../src/pic14/gen.c:1357:mov2w_op *{*
                      04232 ;; ***  mov2w  1395  offset=1
                      04233 ;; >>> ../../../../src/pic14/gen.c:1400:mov2w
                      04234 ;;      1027
                      04235 ;;      1045  _F3   offset=1
0138   08??           04236         MOVF    (_F3 + 1),W
                      04237 ;;      2158 left AOP_DIR
                      04238 ;; >>> ../../../../src/pic14/gen.c:2166:genCall
                      04239 ;; ***  popRegFromIdx,1059  , rIdx=0x7c
0139   00??           04240         MOVWF   STK03
                      04241 ;;; ../../../../src/pic14/gen.c:1357:mov2w_op *{*
                      04242 ;; ***  mov2w  1395  offset=2
                      04243 ;; >>> ../../../../src/pic14/gen.c:1400:mov2w
                      04244 ;;      1027
                      04245 ;;      1045  _F3   offset=2
013A   08??           04246         MOVF    (_F3 + 2),W
                      04247 ;;      2158 left AOP_DIR
                      04248 ;; >>> ../../../../src/pic14/gen.c:2166:genCall
                      04249 ;; ***  popRegFromIdx,1059  , rIdx=0x7d
013B   00??           04250         MOVWF   STK02
                      04251 ;;; ../../../../src/pic14/gen.c:1357:mov2w_op *{*
                      04252 ;; ***  mov2w  1395  offset=3
                      04253 ;; >>> ../../../../src/pic14/gen.c:1400:mov2w
                      04254 ;;      1027
                      04255 ;;      1045  _F3   offset=3
013C   08??           04256         MOVF    (_F3 + 3),W
                      04257 ;; ***  aopForSym 324
                      04258 ;;      353 size = 2, name =_ser_putch
                      04259 ;;      2158 left AOP_PCODE
                      04260 ;; >>> ../../../../src/pic14/gen.c:2166:genCall
                      04261 ;; ***  popRegFromIdx,1059  , rIdx=0x7e
013D   00??           04262         MOVWF   STK01
                      04263 ;;; ../../../../src/pic14/gen.c:1357:mov2w_op *{*
                      04264 ;; >>> ../../../../src/pic14/gen.c:1375:mov2w_op
013E   30??           04265         MOVLW   low (_ser_putch+0)
                      04266 ;;      2158 left AOP_PCODE
                      04267 ;; >>> ../../../../src/pic14/gen.c:2166:genCall
                      04268 ;; ***  popRegFromIdx,1059  , rIdx=0x7f
013F   00??           04269         MOVWF   STK00
                      04270 ;;; ../../../../src/pic14/gen.c:1357:mov2w_op *{*
                      04271 ;; >>> ../../../../src/pic14/gen.c:1375:mov2w_op
0140   30??           04272         MOVLW   high (_ser_putch+0)
                      04273 ;; >>> ../../../../src/pic14/gen.c:2207:genCall
0141   0??? 0???      04274         PAGESEL _format_float
                      04275 ;; >>> ../../../../src/pic14/gen.c:2215:genCall
0143   2???           04276         CALL    _format_float
                      04277 ;; >>> ../../../../src/pic14/gen.c:2223:genCall
0144   0??? 0???      04278         PAGESEL $
                      04279 ;;; ../../../../src/pic14/gen.c:2358:resultRemat *{*
                      04280 ;;; ../../../../src/pic14/gen.c:2358:resultRemat *{*
                      04281 ;;; ../../../../src/pic14/gen.c:2108:genCall *{*
gpasm-1.5.0 #1285 (Jul 12 2020) obj/sdcc-16f8   11/12/23  13:12:30          PAGE 82


LOC    OBJECT CODE    LINE  SOURCE TEXT
  VALUE

                      04282 ;; ***  genCall  2110
                      04283 ;;      2158 left AOP_LIT
                      04284 ;;; ../../../../src/pic14/gen.c:1357:mov2w_op *{*
                      04285 ;; >>> ../../../../src/pic14/gen.c:1375:mov2w_op
                      04286         .line   165; "src/measure.c"    ser_putch(' ');
0146   3020           04287         MOVLW   0x20
                      04288 ;; >>> ../../../../src/pic14/gen.c:2207:genCall
0147   0??? 0???      04289         PAGESEL _ser_putch
                      04290 ;; >>> ../../../../src/pic14/gen.c:2215:genCall
0149   2???           04291         CALL    _ser_putch
                      04292 ;; >>> ../../../../src/pic14/gen.c:2223:genCall
014A   0??? 0???      04293         PAGESEL $
                      04294 ;;; ../../../../src/pic14/gen.c:2358:resultRemat *{*
                      04295 ;;; ../../../../src/pic14/gen.c:2358:resultRemat *{*
                      04296 ;;; ../../../../src/pic14/gen.c:7353:genCast *{*
                      04297 ;; ***  genCast  7354
                      04298 ;;      627
                      04299 ;;      aopForRemat 406
                      04300 ;;      432: rname _F3, val 0, const = 0
                      04301 ;;      708 register type nRegs=2
                      04302 ;;      837: aopGet AOP_PCODE type PO_IMMEDIATE
                      04303 ;;      _F3
                      04304 ;;      line = 7362 result AOP_REG=r0x1058, size=2, left -=-, size=0, right AOP_PCODE=_F3, size=2
                      04305 ;; ***  genCast  7408 (size=2)
                      04306 ;;; ../../../../src/pic14/gen.c:1357:mov2w_op *{*
                      04307 ;; >>> ../../../../src/pic14/gen.c:1375:mov2w_op
                      04308         .line   166; "src/measure.c"    format_xint32(&ser_putch, *(uint32_t*)&F3);
014C   30??           04309         MOVLW   high (_F3 + 0)
                      04310 ;; >>> ../../../../src/pic14/gen.c:1407:movwf
                      04311 ;;      1126 rIdx = r0x1059 
014D   0??? 0???      04312         BANKSEL r0x1032
014F   00??           04313         MOVWF   r0x1032
                      04314 ;;; ../../../../src/pic14/gen.c:1357:mov2w_op *{*
                      04315 ;; >>> ../../../../src/pic14/gen.c:1375:mov2w_op
0150   30??           04316         MOVLW   (_F3 + 0)
                      04317 ;; >>> ../../../../src/pic14/gen.c:1407:movwf
                      04318 ;;      1126 rIdx = r0x1058 
0151   00??           04319         MOVWF   r0x1033
0152   1283 1303      04320         BANKSEL FSR
0154   0084           04321         MOVWF   FSR
                      04322 ;;; ../../../../src/pic14/gen.c:5769:SetIrp *{*
                      04323 ;; >>> ../../../../src/pic14/gen.c:5796:SetIrp
0155   1383           04324         BCF     STATUS,7
                      04325 ;; >>> ../../../../src/pic14/gen.c:5799:SetIrp
0156   0??? 0???      04326         BANKSEL r0x1032
0158   18??           04327         BTFSC   r0x1032,0
                      04328 ;; >>> ../../../../src/pic14/gen.c:5800:SetIrp
0159   1783           04329         BSF     STATUS,7
                      04330 ;; >>> ../../../../src/pic14/gen.c:6027:emitPtrGet
015A   1283 1303      04331         BANKSEL INDF
015C   0800           04332         MOVF    INDF,W
                      04333 ;; >>> ../../../../src/pic14/gen.c:1407:movwf
                      04334 ;;      1126 rIdx = r0x105A 
gpasm-1.5.0 #1285 (Jul 12 2020) obj/sdcc-16f8   11/12/23  13:12:30          PAGE 83


LOC    OBJECT CODE    LINE  SOURCE TEXT
  VALUE

015D   0??? 0???      04335         BANKSEL r0x1034
015F   00??           04336         MOVWF   r0x1034
                      04337 ;; >>> ../../../../src/pic14/gen.c:5875:inc_fsr
0160   1283 1303      04338         BANKSEL FSR
0162   0A84           04339         INCF    FSR,F
                      04340 ;; >>> ../../../../src/pic14/gen.c:6027:emitPtrGet
0163   0800           04341         MOVF    INDF,W
                      04342 ;; >>> ../../../../src/pic14/gen.c:1407:movwf
                      04343 ;;      1126 rIdx = r0x105B 
0164   0??? 0???      04344         BANKSEL r0x1035
0166   00??           04345         MOVWF   r0x1035
                      04346 ;; >>> ../../../../src/pic14/gen.c:5875:inc_fsr
0167   1283 1303      04347         BANKSEL FSR
0169   0A84           04348         INCF    FSR,F
                      04349 ;; >>> ../../../../src/pic14/gen.c:6027:emitPtrGet
016A   0800           04350         MOVF    INDF,W
                      04351 ;; >>> ../../../../src/pic14/gen.c:1407:movwf
                      04352 ;;      1126 rIdx = r0x105C 
016B   0??? 0???      04353         BANKSEL r0x1036
016D   00??           04354         MOVWF   r0x1036
                      04355 ;; >>> ../../../../src/pic14/gen.c:5875:inc_fsr
016E   1283 1303      04356         BANKSEL FSR
0170   0A84           04357         INCF    FSR,F
                      04358 ;; >>> ../../../../src/pic14/gen.c:6027:emitPtrGet
0171   0800           04359         MOVF    INDF,W
                      04360 ;; >>> ../../../../src/pic14/gen.c:1407:movwf
                      04361 ;;      1126 rIdx = r0x105D 
0172   0??? 0???      04362         BANKSEL r0x1037
0174   00??           04363         MOVWF   r0x1037
                      04364 ;;; ../../../../src/pic14/gen.c:2358:resultRemat *{*
                      04365 ;;; ../../../../src/pic14/gen.c:2358:resultRemat *{*
                      04366 ;;; ../../../../src/pic14/gen.c:2358:resultRemat *{*
                      04367 ;;; ../../../../src/pic14/gen.c:2108:genCall *{*
                      04368 ;; ***  genCall  2110
                      04369 ;;      708 register type nRegs=4
                      04370 ;; ***  aopForSym 324
                      04371 ;;      353 size = 2, name =_ser_putch
                      04372 ;;      708 register type nRegs=4
                      04373 ;;      2158 left AOP_REG
                      04374 ;;; ../../../../src/pic14/gen.c:1357:mov2w_op *{*
                      04375 ;; ***  mov2w  1395  offset=0
                      04376 ;; >>> ../../../../src/pic14/gen.c:1400:mov2w
                      04377 ;;      1126 rIdx = r0x105A 
0175   08??           04378         MOVF    r0x1034,W
                      04379 ;;      2158 left AOP_REG
                      04380 ;; >>> ../../../../src/pic14/gen.c:2166:genCall
                      04381 ;; ***  popRegFromIdx,1059  , rIdx=0x7b
0176   00??           04382         MOVWF   STK04
                      04383 ;;; ../../../../src/pic14/gen.c:1357:mov2w_op *{*
                      04384 ;; ***  mov2w  1395  offset=1
                      04385 ;; >>> ../../../../src/pic14/gen.c:1400:mov2w
                      04386 ;;      1126 rIdx = r0x105B 
0177   08??           04387         MOVF    r0x1035,W
gpasm-1.5.0 #1285 (Jul 12 2020) obj/sdcc-16f8   11/12/23  13:12:30          PAGE 84


LOC    OBJECT CODE    LINE  SOURCE TEXT
  VALUE

                      04388 ;;      2158 left AOP_REG
                      04389 ;; >>> ../../../../src/pic14/gen.c:2166:genCall
                      04390 ;; ***  popRegFromIdx,1059  , rIdx=0x7c
0178   00??           04391         MOVWF   STK03
                      04392 ;;; ../../../../src/pic14/gen.c:1357:mov2w_op *{*
                      04393 ;; ***  mov2w  1395  offset=2
                      04394 ;; >>> ../../../../src/pic14/gen.c:1400:mov2w
                      04395 ;;      1126 rIdx = r0x105C 
0179   08??           04396         MOVF    r0x1036,W
                      04397 ;;      2158 left AOP_REG
                      04398 ;; >>> ../../../../src/pic14/gen.c:2166:genCall
                      04399 ;; ***  popRegFromIdx,1059  , rIdx=0x7d
017A   00??           04400         MOVWF   STK02
                      04401 ;;; ../../../../src/pic14/gen.c:1357:mov2w_op *{*
                      04402 ;; ***  mov2w  1395  offset=3
                      04403 ;; >>> ../../../../src/pic14/gen.c:1400:mov2w
                      04404 ;;      1126 rIdx = r0x105D 
017B   08??           04405         MOVF    r0x1037,W
                      04406 ;; ***  aopForSym 324
                      04407 ;;      353 size = 2, name =_ser_putch
                      04408 ;;      2158 left AOP_PCODE
                      04409 ;; >>> ../../../../src/pic14/gen.c:2166:genCall
                      04410 ;; ***  popRegFromIdx,1059  , rIdx=0x7e
017C   00??           04411         MOVWF   STK01
                      04412 ;;; ../../../../src/pic14/gen.c:1357:mov2w_op *{*
                      04413 ;; >>> ../../../../src/pic14/gen.c:1375:mov2w_op
017D   30??           04414         MOVLW   low (_ser_putch+0)
                      04415 ;;      2158 left AOP_PCODE
                      04416 ;; >>> ../../../../src/pic14/gen.c:2166:genCall
                      04417 ;; ***  popRegFromIdx,1059  , rIdx=0x7f
017E   00??           04418         MOVWF   STK00
                      04419 ;;; ../../../../src/pic14/gen.c:1357:mov2w_op *{*
                      04420 ;; >>> ../../../../src/pic14/gen.c:1375:mov2w_op
017F   30??           04421         MOVLW   high (_ser_putch+0)
                      04422 ;; >>> ../../../../src/pic14/gen.c:2207:genCall
0180   0??? 0???      04423         PAGESEL _format_xint32
                      04424 ;; >>> ../../../../src/pic14/gen.c:2215:genCall
0182   2???           04425         CALL    _format_xint32
                      04426 ;; >>> ../../../../src/pic14/gen.c:2223:genCall
0183   0??? 0???      04427         PAGESEL $
                      04428 ;;; ../../../../src/pic14/gen.c:2358:resultRemat *{*
                      04429 ;;; ../../../../src/pic14/gen.c:2358:resultRemat *{*
                      04430 ;;; ../../../../src/pic14/gen.c:7353:genCast *{*
                      04431 ;; ***  genCast  7354
                      04432 ;;      627
                      04433 ;;      aopForRemat 406
                      04434 ;;      432: rname ___str_9, val 0, const = 0
                      04435 ;;      708 register type nRegs=3
                      04436 ;;      837: aopGet AOP_PCODE type PO_IMMEDIATE
                      04437 ;;      ___str_9
                      04438 ;;      line = 7362 result AOP_REG=r0x1058, size=3, left -=-, size=0, right AOP_PCODE=___str_9, size=2
                      04439 ;; ***  genCast  7408 (size=2)
                      04440 ;;; ../../../../src/pic14/gen.c:1357:mov2w_op *{*
gpasm-1.5.0 #1285 (Jul 12 2020) obj/sdcc-16f8   11/12/23  13:12:30          PAGE 85


LOC    OBJECT CODE    LINE  SOURCE TEXT
  VALUE

                      04441 ;; >>> ../../../../src/pic14/gen.c:1375:mov2w_op
                      04442         .line   168; "src/measure.c"    ser_puts("\r\nCCal=");
0185   30??           04443         MOVLW   high (___str_9 + 0)
                      04444 ;; >>> ../../../../src/pic14/gen.c:1407:movwf
                      04445 ;;      1126 rIdx = r0x1059 
0186   0??? 0???      04446         BANKSEL r0x1032
0188   00??           04447         MOVWF   r0x1032
                      04448 ;;; ../../../../src/pic14/gen.c:1357:mov2w_op *{*
                      04449 ;; >>> ../../../../src/pic14/gen.c:1375:mov2w_op
0189   30??           04450         MOVLW   (___str_9 + 0)
                      04451 ;; >>> ../../../../src/pic14/gen.c:1407:movwf
                      04452 ;;      1126 rIdx = r0x1058 
018A   00??           04453         MOVWF   r0x1033
                      04454 ;; ***  genCast  7465 (tag=128)
                      04455 ;; >>> ../../../../src/pic14/gen.c:7488:genCast
018B   3080           04456         MOVLW   0x80
                      04457 ;; >>> ../../../../src/pic14/gen.c:1407:movwf
                      04458 ;;      1126 rIdx = r0x105A 
018C   00??           04459         MOVWF   r0x1034
                      04460 ;; ***  addSign  1087
                      04461 ;;; ../../../../src/pic14/genarith.c:1088:addSign *{*
                      04462 ;;; ../../../../src/pic14/gen.c:2358:resultRemat *{*
                      04463 ;;; ../../../../src/pic14/gen.c:2358:resultRemat *{*
                      04464 ;;; ../../../../src/pic14/gen.c:2108:genCall *{*
                      04465 ;; ***  genCall  2110
                      04466 ;;      708 register type nRegs=3
                      04467 ;;      708 register type nRegs=3
                      04468 ;;      2158 left AOP_REG
                      04469 ;;; ../../../../src/pic14/gen.c:1357:mov2w_op *{*
                      04470 ;; ***  mov2w  1395  offset=0
                      04471 ;; >>> ../../../../src/pic14/gen.c:1400:mov2w
                      04472 ;;      1126 rIdx = r0x1058 
018D   08??           04473         MOVF    r0x1033,W
                      04474 ;;      2158 left AOP_REG
                      04475 ;; >>> ../../../../src/pic14/gen.c:2166:genCall
                      04476 ;; ***  popRegFromIdx,1059  , rIdx=0x7e
018E   00??           04477         MOVWF   STK01
                      04478 ;;; ../../../../src/pic14/gen.c:1357:mov2w_op *{*
                      04479 ;; ***  mov2w  1395  offset=1
                      04480 ;; >>> ../../../../src/pic14/gen.c:1400:mov2w
                      04481 ;;      1126 rIdx = r0x1059 
018F   08??           04482         MOVF    r0x1032,W
                      04483 ;;      2158 left AOP_REG
                      04484 ;; >>> ../../../../src/pic14/gen.c:2166:genCall
                      04485 ;; ***  popRegFromIdx,1059  , rIdx=0x7f
0190   00??           04486         MOVWF   STK00
                      04487 ;;; ../../../../src/pic14/gen.c:1357:mov2w_op *{*
                      04488 ;; ***  mov2w  1395  offset=2
                      04489 ;; >>> ../../../../src/pic14/gen.c:1400:mov2w
                      04490 ;;      1126 rIdx = r0x105A 
0191   08??           04491         MOVF    r0x1034,W
                      04492 ;; >>> ../../../../src/pic14/gen.c:2207:genCall
0192   0??? 0???      04493         PAGESEL _ser_puts
gpasm-1.5.0 #1285 (Jul 12 2020) obj/sdcc-16f8   11/12/23  13:12:30          PAGE 86


LOC    OBJECT CODE    LINE  SOURCE TEXT
  VALUE

                      04494 ;; >>> ../../../../src/pic14/gen.c:2215:genCall
0194   2???           04495         CALL    _ser_puts
                      04496 ;; >>> ../../../../src/pic14/gen.c:2223:genCall
0195   0??? 0???      04497         PAGESEL $
                      04498 ;;; ../../../../src/pic14/gen.c:2358:resultRemat *{*
                      04499 ;;; ../../../../src/pic14/gen.c:2358:resultRemat *{*
                      04500 ;;; ../../../../src/pic14/gen.c:2358:resultRemat *{*
                      04501 ;;; ../../../../src/pic14/gen.c:2108:genCall *{*
                      04502 ;; ***  genCall  2110
                      04503 ;; ***  aopForSym 324
                      04504 ;;      336 sym->rname = _CCal, size = 4
                      04505 ;; ***  aopForSym 324
                      04506 ;;      353 size = 2, name =_ser_putch
                      04507 ;; ***  aopForSym 324
                      04508 ;;      336 sym->rname = _CCal, size = 4
                      04509 ;;      2158 left AOP_DIR
                      04510 ;;; ../../../../src/pic14/gen.c:1357:mov2w_op *{*
                      04511 ;; ***  mov2w  1395  offset=0
                      04512 ;; >>> ../../../../src/pic14/gen.c:1400:mov2w
                      04513 ;;      1027
                      04514 ;;      1041  _CCal   offset=0 - had to alloc by reg name
                      04515         .line   169; "src/measure.c"    format_float(&ser_putch, CCal);
0197   0??? 0???      04516         BANKSEL _CCal
0199   08??           04517         MOVF    _CCal,W
                      04518 ;;      2158 left AOP_DIR
                      04519 ;; >>> ../../../../src/pic14/gen.c:2166:genCall
                      04520 ;; ***  popRegFromIdx,1059  , rIdx=0x7b
019A   00??           04521         MOVWF   STK04
                      04522 ;;; ../../../../src/pic14/gen.c:1357:mov2w_op *{*
                      04523 ;; ***  mov2w  1395  offset=1
                      04524 ;; >>> ../../../../src/pic14/gen.c:1400:mov2w
                      04525 ;;      1027
                      04526 ;;      1045  _CCal   offset=1
019B   08??           04527         MOVF    (_CCal + 1),W
                      04528 ;;      2158 left AOP_DIR
                      04529 ;; >>> ../../../../src/pic14/gen.c:2166:genCall
                      04530 ;; ***  popRegFromIdx,1059  , rIdx=0x7c
019C   00??           04531         MOVWF   STK03
                      04532 ;;; ../../../../src/pic14/gen.c:1357:mov2w_op *{*
                      04533 ;; ***  mov2w  1395  offset=2
                      04534 ;; >>> ../../../../src/pic14/gen.c:1400:mov2w
                      04535 ;;      1027
                      04536 ;;      1045  _CCal   offset=2
019D   08??           04537         MOVF    (_CCal + 2),W
                      04538 ;;      2158 left AOP_DIR
                      04539 ;; >>> ../../../../src/pic14/gen.c:2166:genCall
                      04540 ;; ***  popRegFromIdx,1059  , rIdx=0x7d
019E   00??           04541         MOVWF   STK02
                      04542 ;;; ../../../../src/pic14/gen.c:1357:mov2w_op *{*
                      04543 ;; ***  mov2w  1395  offset=3
                      04544 ;; >>> ../../../../src/pic14/gen.c:1400:mov2w
                      04545 ;;      1027
                      04546 ;;      1045  _CCal   offset=3
gpasm-1.5.0 #1285 (Jul 12 2020) obj/sdcc-16f8   11/12/23  13:12:30          PAGE 87


LOC    OBJECT CODE    LINE  SOURCE TEXT
  VALUE

019F   08??           04547         MOVF    (_CCal + 3),W
                      04548 ;; ***  aopForSym 324
                      04549 ;;      353 size = 2, name =_ser_putch
                      04550 ;;      2158 left AOP_PCODE
                      04551 ;; >>> ../../../../src/pic14/gen.c:2166:genCall
                      04552 ;; ***  popRegFromIdx,1059  , rIdx=0x7e
01A0   00??           04553         MOVWF   STK01
                      04554 ;;; ../../../../src/pic14/gen.c:1357:mov2w_op *{*
                      04555 ;; >>> ../../../../src/pic14/gen.c:1375:mov2w_op
01A1   30??           04556         MOVLW   low (_ser_putch+0)
                      04557 ;;      2158 left AOP_PCODE
                      04558 ;; >>> ../../../../src/pic14/gen.c:2166:genCall
                      04559 ;; ***  popRegFromIdx,1059  , rIdx=0x7f
01A2   00??           04560         MOVWF   STK00
                      04561 ;;; ../../../../src/pic14/gen.c:1357:mov2w_op *{*
                      04562 ;; >>> ../../../../src/pic14/gen.c:1375:mov2w_op
01A3   30??           04563         MOVLW   high (_ser_putch+0)
                      04564 ;; >>> ../../../../src/pic14/gen.c:2207:genCall
01A4   0??? 0???      04565         PAGESEL _format_float
                      04566 ;; >>> ../../../../src/pic14/gen.c:2215:genCall
01A6   2???           04567         CALL    _format_float
                      04568 ;; >>> ../../../../src/pic14/gen.c:2223:genCall
01A7   0??? 0???      04569         PAGESEL $
                      04570 ;;; ../../../../src/pic14/gen.c:2358:resultRemat *{*
                      04571 ;;; ../../../../src/pic14/gen.c:2358:resultRemat *{*
                      04572 ;;; ../../../../src/pic14/gen.c:2108:genCall *{*
                      04573 ;; ***  genCall  2110
                      04574 ;;      2158 left AOP_LIT
                      04575 ;;; ../../../../src/pic14/gen.c:1357:mov2w_op *{*
                      04576 ;; >>> ../../../../src/pic14/gen.c:1375:mov2w_op
                      04577         .line   171; "src/measure.c"    ser_putch(' ');
01A9   3020           04578         MOVLW   0x20
                      04579 ;; >>> ../../../../src/pic14/gen.c:2207:genCall
01AA   0??? 0???      04580         PAGESEL _ser_putch
                      04581 ;; >>> ../../../../src/pic14/gen.c:2215:genCall
01AC   2???           04582         CALL    _ser_putch
                      04583 ;; >>> ../../../../src/pic14/gen.c:2223:genCall
01AD   0??? 0???      04584         PAGESEL $
                      04585 ;;; ../../../../src/pic14/gen.c:2358:resultRemat *{*
                      04586 ;;; ../../../../src/pic14/gen.c:2358:resultRemat *{*
                      04587 ;;; ../../../../src/pic14/gen.c:7353:genCast *{*
                      04588 ;; ***  genCast  7354
                      04589 ;;      627
                      04590 ;;      aopForRemat 406
                      04591 ;;      432: rname _CCal, val 0, const = 0
                      04592 ;;      708 register type nRegs=2
                      04593 ;;      837: aopGet AOP_PCODE type PO_IMMEDIATE
                      04594 ;;      _CCal
                      04595 ;;      line = 7362 result AOP_REG=r0x1058, size=2, left -=-, size=0, right AOP_PCODE=_CCal, size=2
                      04596 ;; ***  genCast  7408 (size=2)
                      04597 ;;; ../../../../src/pic14/gen.c:1357:mov2w_op *{*
                      04598 ;; >>> ../../../../src/pic14/gen.c:1375:mov2w_op
                      04599         .line   172; "src/measure.c"    format_xint32(&ser_putch, *(uint32_t*)&CCal);
gpasm-1.5.0 #1285 (Jul 12 2020) obj/sdcc-16f8   11/12/23  13:12:30          PAGE 88


LOC    OBJECT CODE    LINE  SOURCE TEXT
  VALUE

01AF   30??           04600         MOVLW   high (_CCal + 0)
                      04601 ;; >>> ../../../../src/pic14/gen.c:1407:movwf
                      04602 ;;      1126 rIdx = r0x1059 
01B0   0??? 0???      04603         BANKSEL r0x1032
01B2   00??           04604         MOVWF   r0x1032
                      04605 ;;; ../../../../src/pic14/gen.c:1357:mov2w_op *{*
                      04606 ;; >>> ../../../../src/pic14/gen.c:1375:mov2w_op
01B3   30??           04607         MOVLW   (_CCal + 0)
                      04608 ;; >>> ../../../../src/pic14/gen.c:1407:movwf
                      04609 ;;      1126 rIdx = r0x1058 
01B4   00??           04610         MOVWF   r0x1033
01B5   1283 1303      04611         BANKSEL FSR
01B7   0084           04612         MOVWF   FSR
                      04613 ;;; ../../../../src/pic14/gen.c:5769:SetIrp *{*
                      04614 ;; >>> ../../../../src/pic14/gen.c:5796:SetIrp
01B8   1383           04615         BCF     STATUS,7
                      04616 ;; >>> ../../../../src/pic14/gen.c:5799:SetIrp
01B9   0??? 0???      04617         BANKSEL r0x1032
01BB   18??           04618         BTFSC   r0x1032,0
                      04619 ;; >>> ../../../../src/pic14/gen.c:5800:SetIrp
01BC   1783           04620         BSF     STATUS,7
                      04621 ;; >>> ../../../../src/pic14/gen.c:6027:emitPtrGet
01BD   1283 1303      04622         BANKSEL INDF
01BF   0800           04623         MOVF    INDF,W
                      04624 ;; >>> ../../../../src/pic14/gen.c:1407:movwf
                      04625 ;;      1126 rIdx = r0x105A 
01C0   0??? 0???      04626         BANKSEL r0x1034
01C2   00??           04627         MOVWF   r0x1034
                      04628 ;; >>> ../../../../src/pic14/gen.c:5875:inc_fsr
01C3   1283 1303      04629         BANKSEL FSR
01C5   0A84           04630         INCF    FSR,F
                      04631 ;; >>> ../../../../src/pic14/gen.c:6027:emitPtrGet
01C6   0800           04632         MOVF    INDF,W
                      04633 ;; >>> ../../../../src/pic14/gen.c:1407:movwf
                      04634 ;;      1126 rIdx = r0x105B 
01C7   0??? 0???      04635         BANKSEL r0x1035
01C9   00??           04636         MOVWF   r0x1035
                      04637 ;; >>> ../../../../src/pic14/gen.c:5875:inc_fsr
01CA   1283 1303      04638         BANKSEL FSR
01CC   0A84           04639         INCF    FSR,F
                      04640 ;; >>> ../../../../src/pic14/gen.c:6027:emitPtrGet
01CD   0800           04641         MOVF    INDF,W
                      04642 ;; >>> ../../../../src/pic14/gen.c:1407:movwf
                      04643 ;;      1126 rIdx = r0x105C 
01CE   0??? 0???      04644         BANKSEL r0x1036
01D0   00??           04645         MOVWF   r0x1036
                      04646 ;; >>> ../../../../src/pic14/gen.c:5875:inc_fsr
01D1   1283 1303      04647         BANKSEL FSR
01D3   0A84           04648         INCF    FSR,F
                      04649 ;; >>> ../../../../src/pic14/gen.c:6027:emitPtrGet
01D4   0800           04650         MOVF    INDF,W
                      04651 ;; >>> ../../../../src/pic14/gen.c:1407:movwf
                      04652 ;;      1126 rIdx = r0x105D 
gpasm-1.5.0 #1285 (Jul 12 2020) obj/sdcc-16f8   11/12/23  13:12:30          PAGE 89


LOC    OBJECT CODE    LINE  SOURCE TEXT
  VALUE

01D5   0??? 0???      04653         BANKSEL r0x1037
01D7   00??           04654         MOVWF   r0x1037
                      04655 ;;; ../../../../src/pic14/gen.c:2358:resultRemat *{*
                      04656 ;;; ../../../../src/pic14/gen.c:2358:resultRemat *{*
                      04657 ;;; ../../../../src/pic14/gen.c:2358:resultRemat *{*
                      04658 ;;; ../../../../src/pic14/gen.c:2108:genCall *{*
                      04659 ;; ***  genCall  2110
                      04660 ;;      708 register type nRegs=4
                      04661 ;; ***  aopForSym 324
                      04662 ;;      353 size = 2, name =_ser_putch
                      04663 ;;      708 register type nRegs=4
                      04664 ;;      2158 left AOP_REG
                      04665 ;;; ../../../../src/pic14/gen.c:1357:mov2w_op *{*
                      04666 ;; ***  mov2w  1395  offset=0
                      04667 ;; >>> ../../../../src/pic14/gen.c:1400:mov2w
                      04668 ;;      1126 rIdx = r0x105A 
01D8   08??           04669         MOVF    r0x1034,W
                      04670 ;;      2158 left AOP_REG
                      04671 ;; >>> ../../../../src/pic14/gen.c:2166:genCall
                      04672 ;; ***  popRegFromIdx,1059  , rIdx=0x7b
01D9   00??           04673         MOVWF   STK04
                      04674 ;;; ../../../../src/pic14/gen.c:1357:mov2w_op *{*
                      04675 ;; ***  mov2w  1395  offset=1
                      04676 ;; >>> ../../../../src/pic14/gen.c:1400:mov2w
                      04677 ;;      1126 rIdx = r0x105B 
01DA   08??           04678         MOVF    r0x1035,W
                      04679 ;;      2158 left AOP_REG
                      04680 ;; >>> ../../../../src/pic14/gen.c:2166:genCall
                      04681 ;; ***  popRegFromIdx,1059  , rIdx=0x7c
01DB   00??           04682         MOVWF   STK03
                      04683 ;;; ../../../../src/pic14/gen.c:1357:mov2w_op *{*
                      04684 ;; ***  mov2w  1395  offset=2
                      04685 ;; >>> ../../../../src/pic14/gen.c:1400:mov2w
                      04686 ;;      1126 rIdx = r0x105C 
01DC   08??           04687         MOVF    r0x1036,W
                      04688 ;;      2158 left AOP_REG
                      04689 ;; >>> ../../../../src/pic14/gen.c:2166:genCall
                      04690 ;; ***  popRegFromIdx,1059  , rIdx=0x7d
01DD   00??           04691         MOVWF   STK02
                      04692 ;;; ../../../../src/pic14/gen.c:1357:mov2w_op *{*
                      04693 ;; ***  mov2w  1395  offset=3
                      04694 ;; >>> ../../../../src/pic14/gen.c:1400:mov2w
                      04695 ;;      1126 rIdx = r0x105D 
01DE   08??           04696         MOVF    r0x1037,W
                      04697 ;; ***  aopForSym 324
                      04698 ;;      353 size = 2, name =_ser_putch
                      04699 ;;      2158 left AOP_PCODE
                      04700 ;; >>> ../../../../src/pic14/gen.c:2166:genCall
                      04701 ;; ***  popRegFromIdx,1059  , rIdx=0x7e
01DF   00??           04702         MOVWF   STK01
                      04703 ;;; ../../../../src/pic14/gen.c:1357:mov2w_op *{*
                      04704 ;; >>> ../../../../src/pic14/gen.c:1375:mov2w_op
01E0   30??           04705         MOVLW   low (_ser_putch+0)
gpasm-1.5.0 #1285 (Jul 12 2020) obj/sdcc-16f8   11/12/23  13:12:30          PAGE 90


LOC    OBJECT CODE    LINE  SOURCE TEXT
  VALUE

                      04706 ;;      2158 left AOP_PCODE
                      04707 ;; >>> ../../../../src/pic14/gen.c:2166:genCall
                      04708 ;; ***  popRegFromIdx,1059  , rIdx=0x7f
01E1   00??           04709         MOVWF   STK00
                      04710 ;;; ../../../../src/pic14/gen.c:1357:mov2w_op *{*
                      04711 ;; >>> ../../../../src/pic14/gen.c:1375:mov2w_op
01E2   30??           04712         MOVLW   high (_ser_putch+0)
                      04713 ;; >>> ../../../../src/pic14/gen.c:2207:genCall
01E3   0??? 0???      04714         PAGESEL _format_xint32
                      04715 ;; >>> ../../../../src/pic14/gen.c:2215:genCall
01E5   2???           04716         CALL    _format_xint32
                      04717 ;; >>> ../../../../src/pic14/gen.c:2223:genCall
01E6   0??? 0???      04718         PAGESEL $
                      04719 ;;; ../../../../src/pic14/gen.c:2358:resultRemat *{*
                      04720 ;;; ../../../../src/pic14/gen.c:2358:resultRemat *{*
                      04721 ;;; ../../../../src/pic14/gen.c:7353:genCast *{*
                      04722 ;; ***  genCast  7354
                      04723 ;;      627
                      04724 ;;      aopForRemat 406
                      04725 ;;      432: rname ___str_1, val 0, const = 0
                      04726 ;;      708 register type nRegs=3
                      04727 ;;      837: aopGet AOP_PCODE type PO_IMMEDIATE
                      04728 ;;      ___str_1
                      04729 ;;      line = 7362 result AOP_REG=r0x1058, size=3, left -=-, size=0, right AOP_PCODE=___str_1, size=2
                      04730 ;; ***  genCast  7408 (size=2)
                      04731 ;;; ../../../../src/pic14/gen.c:1357:mov2w_op *{*
                      04732 ;; >>> ../../../../src/pic14/gen.c:1375:mov2w_op
                      04733         .line   174; "src/measure.c"    ser_puts("\r\n");
01E8   30??           04734         MOVLW   high (___str_1 + 0)
                      04735 ;; >>> ../../../../src/pic14/gen.c:1407:movwf
                      04736 ;;      1126 rIdx = r0x1059 
01E9   0??? 0???      04737         BANKSEL r0x1032
01EB   00??           04738         MOVWF   r0x1032
                      04739 ;;; ../../../../src/pic14/gen.c:1357:mov2w_op *{*
                      04740 ;; >>> ../../../../src/pic14/gen.c:1375:mov2w_op
01EC   30??           04741         MOVLW   (___str_1 + 0)
                      04742 ;; >>> ../../../../src/pic14/gen.c:1407:movwf
                      04743 ;;      1126 rIdx = r0x1058 
01ED   00??           04744         MOVWF   r0x1033
                      04745 ;; ***  genCast  7465 (tag=128)
                      04746 ;; >>> ../../../../src/pic14/gen.c:7488:genCast
01EE   3080           04747         MOVLW   0x80
                      04748 ;; >>> ../../../../src/pic14/gen.c:1407:movwf
                      04749 ;;      1126 rIdx = r0x105A 
01EF   00??           04750         MOVWF   r0x1034
                      04751 ;; ***  addSign  1087
                      04752 ;;; ../../../../src/pic14/genarith.c:1088:addSign *{*
                      04753 ;;; ../../../../src/pic14/gen.c:2358:resultRemat *{*
                      04754 ;;; ../../../../src/pic14/gen.c:2358:resultRemat *{*
                      04755 ;;; ../../../../src/pic14/gen.c:2108:genCall *{*
                      04756 ;; ***  genCall  2110
                      04757 ;;      708 register type nRegs=3
                      04758 ;;      708 register type nRegs=3
gpasm-1.5.0 #1285 (Jul 12 2020) obj/sdcc-16f8   11/12/23  13:12:30          PAGE 91


LOC    OBJECT CODE    LINE  SOURCE TEXT
  VALUE

                      04759 ;;      2158 left AOP_REG
                      04760 ;;; ../../../../src/pic14/gen.c:1357:mov2w_op *{*
                      04761 ;; ***  mov2w  1395  offset=0
                      04762 ;; >>> ../../../../src/pic14/gen.c:1400:mov2w
                      04763 ;;      1126 rIdx = r0x1058 
01F0   08??           04764         MOVF    r0x1033,W
                      04765 ;;      2158 left AOP_REG
                      04766 ;; >>> ../../../../src/pic14/gen.c:2166:genCall
                      04767 ;; ***  popRegFromIdx,1059  , rIdx=0x7e
01F1   00??           04768         MOVWF   STK01
                      04769 ;;; ../../../../src/pic14/gen.c:1357:mov2w_op *{*
                      04770 ;; ***  mov2w  1395  offset=1
                      04771 ;; >>> ../../../../src/pic14/gen.c:1400:mov2w
                      04772 ;;      1126 rIdx = r0x1059 
01F2   08??           04773         MOVF    r0x1032,W
                      04774 ;;      2158 left AOP_REG
                      04775 ;; >>> ../../../../src/pic14/gen.c:2166:genCall
                      04776 ;; ***  popRegFromIdx,1059  , rIdx=0x7f
01F3   00??           04777         MOVWF   STK00
                      04778 ;;; ../../../../src/pic14/gen.c:1357:mov2w_op *{*
                      04779 ;; ***  mov2w  1395  offset=2
                      04780 ;; >>> ../../../../src/pic14/gen.c:1400:mov2w
                      04781 ;;      1126 rIdx = r0x105A 
01F4   08??           04782         MOVF    r0x1034,W
                      04783 ;; >>> ../../../../src/pic14/gen.c:2207:genCall
01F5   0??? 0???      04784         PAGESEL _ser_puts
                      04785 ;; >>> ../../../../src/pic14/gen.c:2215:genCall
01F7   2???           04786         CALL    _ser_puts
                      04787 ;; >>> ../../../../src/pic14/gen.c:2223:genCall
01F8   0??? 0???      04788         PAGESEL $
                      04789 ;;; ../../../../src/pic14/gen.c:2358:resultRemat *{*
                      04790 ;;; ../../../../src/pic14/gen.c:2358:resultRemat *{*
                      04791 ;;; ../../../../src/pic14/gen.c:2358:resultRemat *{*
                      04792 ;;; ../../../../src/pic14/gen.c:2108:genCall *{*
                      04793 ;; ***  genCall  2110
                      04794 ;; ***  aopForSym 324
                      04795 ;;      336 sym->rname = _F3, size = 4
                      04796 ;; ***  aopForSym 324
                      04797 ;;      336 sym->rname = _F1, size = 4
                      04798 ;; ***  aopForSym 324
                      04799 ;;      336 sym->rname = _F3, size = 4
                      04800 ;;      2158 left AOP_DIR
                      04801 ;;; ../../../../src/pic14/gen.c:1357:mov2w_op *{*
                      04802 ;; ***  mov2w  1395  offset=0
                      04803 ;; >>> ../../../../src/pic14/gen.c:1400:mov2w
                      04804 ;;      1027
                      04805 ;;      1045  _F3   offset=0
                      04806         .line   178; "src/measure.c"    if(F3 > F1)
01FA   0??? 0???      04807         BANKSEL _F3
01FC   08??           04808         MOVF    _F3,W
                      04809 ;;      2158 left AOP_DIR
                      04810 ;; >>> ../../../../src/pic14/gen.c:2166:genCall
                      04811 ;; ***  popRegFromIdx,1059  , rIdx=0x79
gpasm-1.5.0 #1285 (Jul 12 2020) obj/sdcc-16f8   11/12/23  13:12:30          PAGE 92


LOC    OBJECT CODE    LINE  SOURCE TEXT
  VALUE

01FD   00??           04812         MOVWF   STK06
                      04813 ;;; ../../../../src/pic14/gen.c:1357:mov2w_op *{*
                      04814 ;; ***  mov2w  1395  offset=1
                      04815 ;; >>> ../../../../src/pic14/gen.c:1400:mov2w
                      04816 ;;      1027
                      04817 ;;      1045  _F3   offset=1
01FE   08??           04818         MOVF    (_F3 + 1),W
                      04819 ;;      2158 left AOP_DIR
                      04820 ;; >>> ../../../../src/pic14/gen.c:2166:genCall
                      04821 ;; ***  popRegFromIdx,1059  , rIdx=0x7a
01FF   00??           04822         MOVWF   STK05
                      04823 ;;; ../../../../src/pic14/gen.c:1357:mov2w_op *{*
                      04824 ;; ***  mov2w  1395  offset=2
                      04825 ;; >>> ../../../../src/pic14/gen.c:1400:mov2w
                      04826 ;;      1027
                      04827 ;;      1045  _F3   offset=2
0200   08??           04828         MOVF    (_F3 + 2),W
                      04829 ;;      2158 left AOP_DIR
                      04830 ;; >>> ../../../../src/pic14/gen.c:2166:genCall
                      04831 ;; ***  popRegFromIdx,1059  , rIdx=0x7b
0201   00??           04832         MOVWF   STK04
                      04833 ;;; ../../../../src/pic14/gen.c:1357:mov2w_op *{*
                      04834 ;; ***  mov2w  1395  offset=3
                      04835 ;; >>> ../../../../src/pic14/gen.c:1400:mov2w
                      04836 ;;      1027
                      04837 ;;      1045  _F3   offset=3
0202   08??           04838         MOVF    (_F3 + 3),W
                      04839 ;; ***  aopForSym 324
                      04840 ;;      336 sym->rname = _F1, size = 4
                      04841 ;;      2158 left AOP_DIR
                      04842 ;; >>> ../../../../src/pic14/gen.c:2166:genCall
                      04843 ;; ***  popRegFromIdx,1059  , rIdx=0x7c
0203   00??           04844         MOVWF   STK03
                      04845 ;;; ../../../../src/pic14/gen.c:1357:mov2w_op *{*
                      04846 ;; ***  mov2w  1395  offset=0
                      04847 ;; >>> ../../../../src/pic14/gen.c:1400:mov2w
                      04848 ;;      1027
                      04849 ;;      1045  _F1   offset=0
0204   0??? 0???      04850         BANKSEL _F1
0206   08??           04851         MOVF    _F1,W
                      04852 ;;      2158 left AOP_DIR
                      04853 ;; >>> ../../../../src/pic14/gen.c:2166:genCall
                      04854 ;; ***  popRegFromIdx,1059  , rIdx=0x7d
0207   00??           04855         MOVWF   STK02
                      04856 ;;; ../../../../src/pic14/gen.c:1357:mov2w_op *{*
                      04857 ;; ***  mov2w  1395  offset=1
                      04858 ;; >>> ../../../../src/pic14/gen.c:1400:mov2w
                      04859 ;;      1027
                      04860 ;;      1045  _F1   offset=1
0208   08??           04861         MOVF    (_F1 + 1),W
                      04862 ;;      2158 left AOP_DIR
                      04863 ;; >>> ../../../../src/pic14/gen.c:2166:genCall
                      04864 ;; ***  popRegFromIdx,1059  , rIdx=0x7e
gpasm-1.5.0 #1285 (Jul 12 2020) obj/sdcc-16f8   11/12/23  13:12:30          PAGE 93


LOC    OBJECT CODE    LINE  SOURCE TEXT
  VALUE

0209   00??           04865         MOVWF   STK01
                      04866 ;;; ../../../../src/pic14/gen.c:1357:mov2w_op *{*
                      04867 ;; ***  mov2w  1395  offset=2
                      04868 ;; >>> ../../../../src/pic14/gen.c:1400:mov2w
                      04869 ;;      1027
                      04870 ;;      1045  _F1   offset=2
020A   08??           04871         MOVF    (_F1 + 2),W
                      04872 ;;      2158 left AOP_DIR
                      04873 ;; >>> ../../../../src/pic14/gen.c:2166:genCall
                      04874 ;; ***  popRegFromIdx,1059  , rIdx=0x7f
020B   00??           04875         MOVWF   STK00
                      04876 ;;; ../../../../src/pic14/gen.c:1357:mov2w_op *{*
                      04877 ;; ***  mov2w  1395  offset=3
                      04878 ;; >>> ../../../../src/pic14/gen.c:1400:mov2w
                      04879 ;;      1027
                      04880 ;;      1045  _F1   offset=3
020C   08??           04881         MOVF    (_F1 + 3),W
                      04882 ;; >>> ../../../../src/pic14/gen.c:2207:genCall
020D   0??? 0???      04883         PAGESEL ___fslt
                      04884 ;; >>> ../../../../src/pic14/gen.c:2215:genCall
020F   2???           04885         CALL    ___fslt
                      04886 ;; >>> ../../../../src/pic14/gen.c:2223:genCall
0210   0??? 0???      04887         PAGESEL $
                      04888 ;;      708 register type nRegs=1
                      04889 ;;; ../../../../src/pic14/gen.c:1929:assignResultValue *{*
                      04890 ;; ***  assignResultValue  1931
                      04891 ;;      line = 1933 result -=-, size=0, left AOP_REG=r0x1058, size=1, right -=-, size=0
                      04892 ;; >>> ../../../../src/pic14/gen.c:1407:movwf
                      04893 ;;      1126 rIdx = r0x1058 
0212   0??? 0???      04894         BANKSEL r0x1033
0214   00??           04895         MOVWF   r0x1033
                      04896 ;;      2238 left AOP_REG
                      04897 ;;; ../../../../src/pic14/gen.c:2358:resultRemat *{*
                      04898 ;;; ../../../../src/pic14/gen.c:6991:genIfx *{*
                      04899 ;; ***  genIfx  6992
                      04900 ;;      708 register type nRegs=1
                      04901 ;; ***  pic14_toBoolean  1515
                      04902 ;; ***  mov2w  1395  offset=0
                      04903 ;; >>> ../../../../src/pic14/gen.c:1400:mov2w
                      04904 ;;      1126 rIdx = r0x1058 
0215   08??           04905         MOVF    r0x1033,W
                      04906 ;; >>> ../../../../src/pic14/gen.c:7045:genIfx
0216   1903           04907         BTFSC   STATUS,2
                      04908 ;; >>> ../../../../src/pic14/gen.c:7046:genIfx
                      04909 ;; ***  popGetLabel  key=2, label offset 18
0217   2???           04910         GOTO    _00120_DS_
                      04911 ;;; ../../../../src/pic14/gen.c:2358:resultRemat *{*
                      04912 ;;; ../../../../src/pic14/gen.c:7159:genAssign *{*
                      04913 ;; ***  genAssign  7160
                      04914 ;; ***  aopForSym 324
                      04915 ;;      336 sym->rname = _F1, size = 4
                      04916 ;; ***  aopForSym 324
                      04917 ;;      336 sym->rname = _F3, size = 4
gpasm-1.5.0 #1285 (Jul 12 2020) obj/sdcc-16f8   11/12/23  13:12:30          PAGE 94


LOC    OBJECT CODE    LINE  SOURCE TEXT
  VALUE

                      04918 ;;      line = 7169 result AOP_DIR=_F3, size=4, left -=-, size=0, right AOP_DIR=_F1, size=4
                      04919 ;; ***  genAssign  7253
                      04920 ;;; ../../../../src/pic14/gen.c:1357:mov2w_op *{*
                      04921 ;; ***  mov2w  1395  offset=0
                      04922 ;; >>> ../../../../src/pic14/gen.c:1400:mov2w
                      04923 ;;      1027
                      04924 ;;      1045  _F1   offset=0
                      04925         .line   179; "src/measure.c"    F3 = F1; // max freq is F1;
0218   0??? 0???      04926         BANKSEL _F1
021A   08??           04927         MOVF    _F1,W
                      04928 ;; >>> ../../../../src/pic14/gen.c:7280:genAssign
                      04929 ;;      1027
                      04930 ;;      1045  _F3   offset=0
021B   0??? 0???      04931         BANKSEL _F3
021D   00??           04932         MOVWF   _F3
                      04933 ;; ***  genAssign  7253
                      04934 ;;; ../../../../src/pic14/gen.c:1357:mov2w_op *{*
                      04935 ;; ***  mov2w  1395  offset=1
                      04936 ;; >>> ../../../../src/pic14/gen.c:1400:mov2w
                      04937 ;;      1027
                      04938 ;;      1045  _F1   offset=1
021E   0??? 0???      04939         BANKSEL _F1
0220   08??           04940         MOVF    (_F1 + 1),W
                      04941 ;; >>> ../../../../src/pic14/gen.c:7280:genAssign
                      04942 ;;      1027
                      04943 ;;      1045  _F3   offset=1
0221   0??? 0???      04944         BANKSEL _F3
0223   00??           04945         MOVWF   (_F3 + 1)
                      04946 ;; ***  genAssign  7253
                      04947 ;;; ../../../../src/pic14/gen.c:1357:mov2w_op *{*
                      04948 ;; ***  mov2w  1395  offset=2
                      04949 ;; >>> ../../../../src/pic14/gen.c:1400:mov2w
                      04950 ;;      1027
                      04951 ;;      1045  _F1   offset=2
0224   0??? 0???      04952         BANKSEL _F1
0226   08??           04953         MOVF    (_F1 + 2),W
                      04954 ;; >>> ../../../../src/pic14/gen.c:7280:genAssign
                      04955 ;;      1027
                      04956 ;;      1045  _F3   offset=2
0227   0??? 0???      04957         BANKSEL _F3
0229   00??           04958         MOVWF   (_F3 + 2)
                      04959 ;; ***  genAssign  7253
                      04960 ;;; ../../../../src/pic14/gen.c:1357:mov2w_op *{*
                      04961 ;; ***  mov2w  1395  offset=3
                      04962 ;; >>> ../../../../src/pic14/gen.c:1400:mov2w
                      04963 ;;      1027
                      04964 ;;      1045  _F1   offset=3
022A   0??? 0???      04965         BANKSEL _F1
022C   08??           04966         MOVF    (_F1 + 3),W
                      04967 ;; >>> ../../../../src/pic14/gen.c:7280:genAssign
                      04968 ;;      1027
                      04969 ;;      1045  _F3   offset=3
022D   0??? 0???      04970         BANKSEL _F3
gpasm-1.5.0 #1285 (Jul 12 2020) obj/sdcc-16f8   11/12/23  13:12:30          PAGE 95


LOC    OBJECT CODE    LINE  SOURCE TEXT
  VALUE

022F   00??           04971         MOVWF   (_F3 + 3)
                      04972 ;;; ../../../../src/pic14/gen.c:2358:resultRemat *{*
                      04973 ;;; ../../../../src/pic14/gen.c:2802:genLabel *{*
                      04974 ;; ***  genLabel  2805
                      04975 ;;; ../../../../src/pic14/gen.c:2358:resultRemat *{*
                      04976 ;;; ../../../../src/pic14/gen.c:2358:resultRemat *{*
                      04977 ;;; ../../../../src/pic14/gen.c:2358:resultRemat *{*
                      04978 ;;; ../../../../src/pic14/gen.c:2108:genCall *{*
                      04979 ;; ***  genCall  2110
                      04980 ;; ***  aopForSym 324
                      04981 ;;      336 sym->rname = _F2, size = 4
                      04982 ;; ***  aopForSym 324
                      04983 ;;      336 sym->rname = _F2, size = 4
                      04984 ;; ***  aopForSym 324
                      04985 ;;      336 sym->rname = _F2, size = 4
                      04986 ;;      2158 left AOP_DIR
                      04987 ;;; ../../../../src/pic14/gen.c:1357:mov2w_op *{*
                      04988 ;; ***  mov2w  1395  offset=0
                      04989 ;; >>> ../../../../src/pic14/gen.c:1400:mov2w
                      04990 ;;      1027
                      04991 ;;      1045  _F2   offset=0
0230                  04992 _00120_DS_:
                      04993         .line   181; "src/measure.c"    Cin = F2 * F2 * (F1 * F1 - F3 * F3) * CCal;
0230   0??? 0???      04994         BANKSEL _F2
0232   08??           04995         MOVF    _F2,W
                      04996 ;;      2158 left AOP_DIR
                      04997 ;; >>> ../../../../src/pic14/gen.c:2166:genCall
                      04998 ;; ***  popRegFromIdx,1059  , rIdx=0x79
0233   00??           04999         MOVWF   STK06
                      05000 ;;; ../../../../src/pic14/gen.c:1357:mov2w_op *{*
                      05001 ;; ***  mov2w  1395  offset=1
                      05002 ;; >>> ../../../../src/pic14/gen.c:1400:mov2w
                      05003 ;;      1027
                      05004 ;;      1045  _F2   offset=1
0234   08??           05005         MOVF    (_F2 + 1),W
                      05006 ;;      2158 left AOP_DIR
                      05007 ;; >>> ../../../../src/pic14/gen.c:2166:genCall
                      05008 ;; ***  popRegFromIdx,1059  , rIdx=0x7a
0235   00??           05009         MOVWF   STK05
                      05010 ;;; ../../../../src/pic14/gen.c:1357:mov2w_op *{*
                      05011 ;; ***  mov2w  1395  offset=2
                      05012 ;; >>> ../../../../src/pic14/gen.c:1400:mov2w
                      05013 ;;      1027
                      05014 ;;      1045  _F2   offset=2
0236   08??           05015         MOVF    (_F2 + 2),W
                      05016 ;;      2158 left AOP_DIR
                      05017 ;; >>> ../../../../src/pic14/gen.c:2166:genCall
                      05018 ;; ***  popRegFromIdx,1059  , rIdx=0x7b
0237   00??           05019         MOVWF   STK04
                      05020 ;;; ../../../../src/pic14/gen.c:1357:mov2w_op *{*
                      05021 ;; ***  mov2w  1395  offset=3
                      05022 ;; >>> ../../../../src/pic14/gen.c:1400:mov2w
                      05023 ;;      1027
gpasm-1.5.0 #1285 (Jul 12 2020) obj/sdcc-16f8   11/12/23  13:12:30          PAGE 96


LOC    OBJECT CODE    LINE  SOURCE TEXT
  VALUE

                      05024 ;;      1045  _F2   offset=3
0238   08??           05025         MOVF    (_F2 + 3),W
                      05026 ;; ***  aopForSym 324
                      05027 ;;      336 sym->rname = _F2, size = 4
                      05028 ;;      2158 left AOP_DIR
                      05029 ;; >>> ../../../../src/pic14/gen.c:2166:genCall
                      05030 ;; ***  popRegFromIdx,1059  , rIdx=0x7c
0239   00??           05031         MOVWF   STK03
                      05032 ;;; ../../../../src/pic14/gen.c:1357:mov2w_op *{*
                      05033 ;; ***  mov2w  1395  offset=0
                      05034 ;; >>> ../../../../src/pic14/gen.c:1400:mov2w
                      05035 ;;      1027
                      05036 ;;      1045  _F2   offset=0
023A   08??           05037         MOVF    _F2,W
                      05038 ;;      2158 left AOP_DIR
                      05039 ;; >>> ../../../../src/pic14/gen.c:2166:genCall
                      05040 ;; ***  popRegFromIdx,1059  , rIdx=0x7d
023B   00??           05041         MOVWF   STK02
                      05042 ;;; ../../../../src/pic14/gen.c:1357:mov2w_op *{*
                      05043 ;; ***  mov2w  1395  offset=1
                      05044 ;; >>> ../../../../src/pic14/gen.c:1400:mov2w
                      05045 ;;      1027
                      05046 ;;      1045  _F2   offset=1
023C   08??           05047         MOVF    (_F2 + 1),W
                      05048 ;;      2158 left AOP_DIR
                      05049 ;; >>> ../../../../src/pic14/gen.c:2166:genCall
                      05050 ;; ***  popRegFromIdx,1059  , rIdx=0x7e
023D   00??           05051         MOVWF   STK01
                      05052 ;;; ../../../../src/pic14/gen.c:1357:mov2w_op *{*
                      05053 ;; ***  mov2w  1395  offset=2
                      05054 ;; >>> ../../../../src/pic14/gen.c:1400:mov2w
                      05055 ;;      1027
                      05056 ;;      1045  _F2   offset=2
023E   08??           05057         MOVF    (_F2 + 2),W
                      05058 ;;      2158 left AOP_DIR
                      05059 ;; >>> ../../../../src/pic14/gen.c:2166:genCall
                      05060 ;; ***  popRegFromIdx,1059  , rIdx=0x7f
023F   00??           05061         MOVWF   STK00
                      05062 ;;; ../../../../src/pic14/gen.c:1357:mov2w_op *{*
                      05063 ;; ***  mov2w  1395  offset=3
                      05064 ;; >>> ../../../../src/pic14/gen.c:1400:mov2w
                      05065 ;;      1027
                      05066 ;;      1045  _F2   offset=3
0240   08??           05067         MOVF    (_F2 + 3),W
                      05068 ;; >>> ../../../../src/pic14/gen.c:2207:genCall
0241   0??? 0???      05069         PAGESEL ___fsmul
                      05070 ;; >>> ../../../../src/pic14/gen.c:2215:genCall
0243   2???           05071         CALL    ___fsmul
                      05072 ;; >>> ../../../../src/pic14/gen.c:2223:genCall
0244   0??? 0???      05073         PAGESEL $
                      05074 ;;      708 register type nRegs=4
                      05075 ;;; ../../../../src/pic14/gen.c:1929:assignResultValue *{*
                      05076 ;; ***  assignResultValue  1931
gpasm-1.5.0 #1285 (Jul 12 2020) obj/sdcc-16f8   11/12/23  13:12:30          PAGE 97


LOC    OBJECT CODE    LINE  SOURCE TEXT
  VALUE

                      05077 ;;      line = 1933 result -=-, size=0, left AOP_REG=r0x1058, size=4, right -=-, size=0
                      05078 ;; >>> ../../../../src/pic14/gen.c:1407:movwf
                      05079 ;;      1126 rIdx = r0x105B 
0246   0??? 0???      05080         BANKSEL r0x1035
0248   00??           05081         MOVWF   r0x1035
                      05082 ;; >>> ../../../../src/pic14/gen.c:1437:get_returnvalue
                      05083 ;; ***  popRegFromIdx,1059  , rIdx=0x7f
0249   08??           05084         MOVF    STK00,W
                      05085 ;; >>> ../../../../src/pic14/gen.c:1407:movwf
                      05086 ;;      1126 rIdx = r0x105A 
024A   00??           05087         MOVWF   r0x1034
                      05088 ;; >>> ../../../../src/pic14/gen.c:1437:get_returnvalue
                      05089 ;; ***  popRegFromIdx,1059  , rIdx=0x7e
024B   08??           05090         MOVF    STK01,W
                      05091 ;; >>> ../../../../src/pic14/gen.c:1407:movwf
                      05092 ;;      1126 rIdx = r0x1059 
024C   00??           05093         MOVWF   r0x1032
                      05094 ;; >>> ../../../../src/pic14/gen.c:1437:get_returnvalue
                      05095 ;; ***  popRegFromIdx,1059  , rIdx=0x7d
024D   08??           05096         MOVF    STK02,W
                      05097 ;; >>> ../../../../src/pic14/gen.c:1407:movwf
                      05098 ;;      1126 rIdx = r0x1058 
024E   00??           05099         MOVWF   r0x1033
                      05100 ;;      2238 left AOP_REG
                      05101 ;;; ../../../../src/pic14/gen.c:2358:resultRemat *{*
                      05102 ;;; ../../../../src/pic14/gen.c:2358:resultRemat *{*
                      05103 ;;; ../../../../src/pic14/gen.c:2358:resultRemat *{*
                      05104 ;;; ../../../../src/pic14/gen.c:2108:genCall *{*
                      05105 ;; ***  genCall  2110
                      05106 ;; ***  aopForSym 324
                      05107 ;;      336 sym->rname = _F1, size = 4
                      05108 ;; ***  aopForSym 324
                      05109 ;;      336 sym->rname = _F1, size = 4
                      05110 ;; ***  aopForSym 324
                      05111 ;;      336 sym->rname = _F1, size = 4
                      05112 ;;      2158 left AOP_DIR
                      05113 ;;; ../../../../src/pic14/gen.c:1357:mov2w_op *{*
                      05114 ;; ***  mov2w  1395  offset=0
                      05115 ;; >>> ../../../../src/pic14/gen.c:1400:mov2w
                      05116 ;;      1027
                      05117 ;;      1045  _F1   offset=0
024F   0??? 0???      05118         BANKSEL _F1
0251   08??           05119         MOVF    _F1,W
                      05120 ;;      2158 left AOP_DIR
                      05121 ;; >>> ../../../../src/pic14/gen.c:2166:genCall
                      05122 ;; ***  popRegFromIdx,1059  , rIdx=0x79
0252   00??           05123         MOVWF   STK06
                      05124 ;;; ../../../../src/pic14/gen.c:1357:mov2w_op *{*
                      05125 ;; ***  mov2w  1395  offset=1
                      05126 ;; >>> ../../../../src/pic14/gen.c:1400:mov2w
                      05127 ;;      1027
                      05128 ;;      1045  _F1   offset=1
0253   08??           05129         MOVF    (_F1 + 1),W
gpasm-1.5.0 #1285 (Jul 12 2020) obj/sdcc-16f8   11/12/23  13:12:30          PAGE 98


LOC    OBJECT CODE    LINE  SOURCE TEXT
  VALUE

                      05130 ;;      2158 left AOP_DIR
                      05131 ;; >>> ../../../../src/pic14/gen.c:2166:genCall
                      05132 ;; ***  popRegFromIdx,1059  , rIdx=0x7a
0254   00??           05133         MOVWF   STK05
                      05134 ;;; ../../../../src/pic14/gen.c:1357:mov2w_op *{*
                      05135 ;; ***  mov2w  1395  offset=2
                      05136 ;; >>> ../../../../src/pic14/gen.c:1400:mov2w
                      05137 ;;      1027
                      05138 ;;      1045  _F1   offset=2
0255   08??           05139         MOVF    (_F1 + 2),W
                      05140 ;;      2158 left AOP_DIR
                      05141 ;; >>> ../../../../src/pic14/gen.c:2166:genCall
                      05142 ;; ***  popRegFromIdx,1059  , rIdx=0x7b
0256   00??           05143         MOVWF   STK04
                      05144 ;;; ../../../../src/pic14/gen.c:1357:mov2w_op *{*
                      05145 ;; ***  mov2w  1395  offset=3
                      05146 ;; >>> ../../../../src/pic14/gen.c:1400:mov2w
                      05147 ;;      1027
                      05148 ;;      1045  _F1   offset=3
0257   08??           05149         MOVF    (_F1 + 3),W
                      05150 ;; ***  aopForSym 324
                      05151 ;;      336 sym->rname = _F1, size = 4
                      05152 ;;      2158 left AOP_DIR
                      05153 ;; >>> ../../../../src/pic14/gen.c:2166:genCall
                      05154 ;; ***  popRegFromIdx,1059  , rIdx=0x7c
0258   00??           05155         MOVWF   STK03
                      05156 ;;; ../../../../src/pic14/gen.c:1357:mov2w_op *{*
                      05157 ;; ***  mov2w  1395  offset=0
                      05158 ;; >>> ../../../../src/pic14/gen.c:1400:mov2w
                      05159 ;;      1027
                      05160 ;;      1045  _F1   offset=0
0259   08??           05161         MOVF    _F1,W
                      05162 ;;      2158 left AOP_DIR
                      05163 ;; >>> ../../../../src/pic14/gen.c:2166:genCall
                      05164 ;; ***  popRegFromIdx,1059  , rIdx=0x7d
025A   00??           05165         MOVWF   STK02
                      05166 ;;; ../../../../src/pic14/gen.c:1357:mov2w_op *{*
                      05167 ;; ***  mov2w  1395  offset=1
                      05168 ;; >>> ../../../../src/pic14/gen.c:1400:mov2w
                      05169 ;;      1027
                      05170 ;;      1045  _F1   offset=1
025B   08??           05171         MOVF    (_F1 + 1),W
                      05172 ;;      2158 left AOP_DIR
                      05173 ;; >>> ../../../../src/pic14/gen.c:2166:genCall
                      05174 ;; ***  popRegFromIdx,1059  , rIdx=0x7e
025C   00??           05175         MOVWF   STK01
                      05176 ;;; ../../../../src/pic14/gen.c:1357:mov2w_op *{*
                      05177 ;; ***  mov2w  1395  offset=2
                      05178 ;; >>> ../../../../src/pic14/gen.c:1400:mov2w
                      05179 ;;      1027
                      05180 ;;      1045  _F1   offset=2
025D   08??           05181         MOVF    (_F1 + 2),W
                      05182 ;;      2158 left AOP_DIR
gpasm-1.5.0 #1285 (Jul 12 2020) obj/sdcc-16f8   11/12/23  13:12:30          PAGE 99


LOC    OBJECT CODE    LINE  SOURCE TEXT
  VALUE

                      05183 ;; >>> ../../../../src/pic14/gen.c:2166:genCall
                      05184 ;; ***  popRegFromIdx,1059  , rIdx=0x7f
025E   00??           05185         MOVWF   STK00
                      05186 ;;; ../../../../src/pic14/gen.c:1357:mov2w_op *{*
                      05187 ;; ***  mov2w  1395  offset=3
                      05188 ;; >>> ../../../../src/pic14/gen.c:1400:mov2w
                      05189 ;;      1027
                      05190 ;;      1045  _F1   offset=3
025F   08??           05191         MOVF    (_F1 + 3),W
                      05192 ;; >>> ../../../../src/pic14/gen.c:2207:genCall
0260   0??? 0???      05193         PAGESEL ___fsmul
                      05194 ;; >>> ../../../../src/pic14/gen.c:2215:genCall
0262   2???           05195         CALL    ___fsmul
                      05196 ;; >>> ../../../../src/pic14/gen.c:2223:genCall
0263   0??? 0???      05197         PAGESEL $
                      05198 ;;      708 register type nRegs=4
                      05199 ;;; ../../../../src/pic14/gen.c:1929:assignResultValue *{*
                      05200 ;; ***  assignResultValue  1931
                      05201 ;;      line = 1933 result -=-, size=0, left AOP_REG=r0x105C, size=4, right -=-, size=0
                      05202 ;; >>> ../../../../src/pic14/gen.c:1407:movwf
                      05203 ;;      1126 rIdx = r0x105F 
0265   0??? 0???      05204         BANKSEL r0x1038
0267   00??           05205         MOVWF   r0x1038
                      05206 ;; >>> ../../../../src/pic14/gen.c:1437:get_returnvalue
                      05207 ;; ***  popRegFromIdx,1059  , rIdx=0x7f
0268   08??           05208         MOVF    STK00,W
                      05209 ;; >>> ../../../../src/pic14/gen.c:1407:movwf
                      05210 ;;      1126 rIdx = r0x105E 
0269   00??           05211         MOVWF   r0x1039
                      05212 ;; >>> ../../../../src/pic14/gen.c:1437:get_returnvalue
                      05213 ;; ***  popRegFromIdx,1059  , rIdx=0x7e
026A   08??           05214         MOVF    STK01,W
                      05215 ;; >>> ../../../../src/pic14/gen.c:1407:movwf
                      05216 ;;      1126 rIdx = r0x105D 
026B   00??           05217         MOVWF   r0x1037
                      05218 ;; >>> ../../../../src/pic14/gen.c:1437:get_returnvalue
                      05219 ;; ***  popRegFromIdx,1059  , rIdx=0x7d
026C   08??           05220         MOVF    STK02,W
                      05221 ;; >>> ../../../../src/pic14/gen.c:1407:movwf
                      05222 ;;      1126 rIdx = r0x105C 
026D   00??           05223         MOVWF   r0x1036
                      05224 ;;      2238 left AOP_REG
                      05225 ;;; ../../../../src/pic14/gen.c:2358:resultRemat *{*
                      05226 ;;; ../../../../src/pic14/gen.c:2358:resultRemat *{*
                      05227 ;;; ../../../../src/pic14/gen.c:2358:resultRemat *{*
                      05228 ;;; ../../../../src/pic14/gen.c:2108:genCall *{*
                      05229 ;; ***  genCall  2110
                      05230 ;; ***  aopForSym 324
                      05231 ;;      336 sym->rname = _F3, size = 4
                      05232 ;; ***  aopForSym 324
                      05233 ;;      336 sym->rname = _F3, size = 4
                      05234 ;; ***  aopForSym 324
                      05235 ;;      336 sym->rname = _F3, size = 4
gpasm-1.5.0 #1285 (Jul 12 2020) obj/sdcc-16f8   11/12/23  13:12:30          PAGE 100


LOC    OBJECT CODE    LINE  SOURCE TEXT
  VALUE

                      05236 ;;      2158 left AOP_DIR
                      05237 ;;; ../../../../src/pic14/gen.c:1357:mov2w_op *{*
                      05238 ;; ***  mov2w  1395  offset=0
                      05239 ;; >>> ../../../../src/pic14/gen.c:1400:mov2w
                      05240 ;;      1027
                      05241 ;;      1045  _F3   offset=0
026E   0??? 0???      05242         BANKSEL _F3
0270   08??           05243         MOVF    _F3,W
                      05244 ;;      2158 left AOP_DIR
                      05245 ;; >>> ../../../../src/pic14/gen.c:2166:genCall
                      05246 ;; ***  popRegFromIdx,1059  , rIdx=0x79
0271   00??           05247         MOVWF   STK06
                      05248 ;;; ../../../../src/pic14/gen.c:1357:mov2w_op *{*
                      05249 ;; ***  mov2w  1395  offset=1
                      05250 ;; >>> ../../../../src/pic14/gen.c:1400:mov2w
                      05251 ;;      1027
                      05252 ;;      1045  _F3   offset=1
0272   08??           05253         MOVF    (_F3 + 1),W
                      05254 ;;      2158 left AOP_DIR
                      05255 ;; >>> ../../../../src/pic14/gen.c:2166:genCall
                      05256 ;; ***  popRegFromIdx,1059  , rIdx=0x7a
0273   00??           05257         MOVWF   STK05
                      05258 ;;; ../../../../src/pic14/gen.c:1357:mov2w_op *{*
                      05259 ;; ***  mov2w  1395  offset=2
                      05260 ;; >>> ../../../../src/pic14/gen.c:1400:mov2w
                      05261 ;;      1027
                      05262 ;;      1045  _F3   offset=2
0274   08??           05263         MOVF    (_F3 + 2),W
                      05264 ;;      2158 left AOP_DIR
                      05265 ;; >>> ../../../../src/pic14/gen.c:2166:genCall
                      05266 ;; ***  popRegFromIdx,1059  , rIdx=0x7b
0275   00??           05267         MOVWF   STK04
                      05268 ;;; ../../../../src/pic14/gen.c:1357:mov2w_op *{*
                      05269 ;; ***  mov2w  1395  offset=3
                      05270 ;; >>> ../../../../src/pic14/gen.c:1400:mov2w
                      05271 ;;      1027
                      05272 ;;      1045  _F3   offset=3
0276   08??           05273         MOVF    (_F3 + 3),W
                      05274 ;; ***  aopForSym 324
                      05275 ;;      336 sym->rname = _F3, size = 4
                      05276 ;;      2158 left AOP_DIR
                      05277 ;; >>> ../../../../src/pic14/gen.c:2166:genCall
                      05278 ;; ***  popRegFromIdx,1059  , rIdx=0x7c
0277   00??           05279         MOVWF   STK03
                      05280 ;;; ../../../../src/pic14/gen.c:1357:mov2w_op *{*
                      05281 ;; ***  mov2w  1395  offset=0
                      05282 ;; >>> ../../../../src/pic14/gen.c:1400:mov2w
                      05283 ;;      1027
                      05284 ;;      1045  _F3   offset=0
0278   08??           05285         MOVF    _F3,W
                      05286 ;;      2158 left AOP_DIR
                      05287 ;; >>> ../../../../src/pic14/gen.c:2166:genCall
                      05288 ;; ***  popRegFromIdx,1059  , rIdx=0x7d
gpasm-1.5.0 #1285 (Jul 12 2020) obj/sdcc-16f8   11/12/23  13:12:30          PAGE 101


LOC    OBJECT CODE    LINE  SOURCE TEXT
  VALUE

0279   00??           05289         MOVWF   STK02
                      05290 ;;; ../../../../src/pic14/gen.c:1357:mov2w_op *{*
                      05291 ;; ***  mov2w  1395  offset=1
                      05292 ;; >>> ../../../../src/pic14/gen.c:1400:mov2w
                      05293 ;;      1027
                      05294 ;;      1045  _F3   offset=1
027A   08??           05295         MOVF    (_F3 + 1),W
                      05296 ;;      2158 left AOP_DIR
                      05297 ;; >>> ../../../../src/pic14/gen.c:2166:genCall
                      05298 ;; ***  popRegFromIdx,1059  , rIdx=0x7e
027B   00??           05299         MOVWF   STK01
                      05300 ;;; ../../../../src/pic14/gen.c:1357:mov2w_op *{*
                      05301 ;; ***  mov2w  1395  offset=2
                      05302 ;; >>> ../../../../src/pic14/gen.c:1400:mov2w
                      05303 ;;      1027
                      05304 ;;      1045  _F3   offset=2
027C   08??           05305         MOVF    (_F3 + 2),W
                      05306 ;;      2158 left AOP_DIR
                      05307 ;; >>> ../../../../src/pic14/gen.c:2166:genCall
                      05308 ;; ***  popRegFromIdx,1059  , rIdx=0x7f
027D   00??           05309         MOVWF   STK00
                      05310 ;;; ../../../../src/pic14/gen.c:1357:mov2w_op *{*
                      05311 ;; ***  mov2w  1395  offset=3
                      05312 ;; >>> ../../../../src/pic14/gen.c:1400:mov2w
                      05313 ;;      1027
                      05314 ;;      1045  _F3   offset=3
027E   08??           05315         MOVF    (_F3 + 3),W
                      05316 ;; >>> ../../../../src/pic14/gen.c:2207:genCall
027F   0??? 0???      05317         PAGESEL ___fsmul
                      05318 ;; >>> ../../../../src/pic14/gen.c:2215:genCall
0281   2???           05319         CALL    ___fsmul
                      05320 ;; >>> ../../../../src/pic14/gen.c:2223:genCall
0282   0??? 0???      05321         PAGESEL $
                      05322 ;;      708 register type nRegs=4
                      05323 ;;; ../../../../src/pic14/gen.c:1929:assignResultValue *{*
                      05324 ;; ***  assignResultValue  1931
                      05325 ;;      line = 1933 result -=-, size=0, left AOP_REG=r0x1060, size=4, right -=-, size=0
                      05326 ;; >>> ../../../../src/pic14/gen.c:1407:movwf
                      05327 ;;      1126 rIdx = r0x1063 
0284   0??? 0???      05328         BANKSEL r0x103A
0286   00??           05329         MOVWF   r0x103A
                      05330 ;; >>> ../../../../src/pic14/gen.c:1437:get_returnvalue
                      05331 ;; ***  popRegFromIdx,1059  , rIdx=0x7f
0287   08??           05332         MOVF    STK00,W
                      05333 ;; >>> ../../../../src/pic14/gen.c:1407:movwf
                      05334 ;;      1126 rIdx = r0x1062 
0288   00??           05335         MOVWF   r0x103B
                      05336 ;; >>> ../../../../src/pic14/gen.c:1437:get_returnvalue
                      05337 ;; ***  popRegFromIdx,1059  , rIdx=0x7e
0289   08??           05338         MOVF    STK01,W
                      05339 ;; >>> ../../../../src/pic14/gen.c:1407:movwf
                      05340 ;;      1126 rIdx = r0x1061 
028A   00??           05341         MOVWF   r0x103C
gpasm-1.5.0 #1285 (Jul 12 2020) obj/sdcc-16f8   11/12/23  13:12:30          PAGE 102


LOC    OBJECT CODE    LINE  SOURCE TEXT
  VALUE

                      05342 ;; >>> ../../../../src/pic14/gen.c:1437:get_returnvalue
                      05343 ;; ***  popRegFromIdx,1059  , rIdx=0x7d
028B   08??           05344         MOVF    STK02,W
                      05345 ;; >>> ../../../../src/pic14/gen.c:1407:movwf
                      05346 ;;      1126 rIdx = r0x1060 
                      05347 ;;1     MOVWF   r0x103D
028C   00??           05348         MOVWF   STK06
                      05349 ;;; ../../../../src/pic14/gen.c:1357:mov2w_op *{*
                      05350 ;; ***  mov2w  1395  offset=1
                      05351 ;; >>> ../../../../src/pic14/gen.c:1400:mov2w
                      05352 ;;      1126 rIdx = r0x1061 
028D   08??           05353         MOVF    r0x103C,W
                      05354 ;;      2158 left AOP_REG
                      05355 ;; >>> ../../../../src/pic14/gen.c:2166:genCall
                      05356 ;; ***  popRegFromIdx,1059  , rIdx=0x7a
028E   00??           05357         MOVWF   STK05
                      05358 ;;; ../../../../src/pic14/gen.c:1357:mov2w_op *{*
                      05359 ;; ***  mov2w  1395  offset=2
                      05360 ;; >>> ../../../../src/pic14/gen.c:1400:mov2w
                      05361 ;;      1126 rIdx = r0x1062 
028F   08??           05362         MOVF    r0x103B,W
                      05363 ;;      2158 left AOP_REG
                      05364 ;; >>> ../../../../src/pic14/gen.c:2166:genCall
                      05365 ;; ***  popRegFromIdx,1059  , rIdx=0x7b
0290   00??           05366         MOVWF   STK04
                      05367 ;;; ../../../../src/pic14/gen.c:1357:mov2w_op *{*
                      05368 ;; ***  mov2w  1395  offset=3
                      05369 ;; >>> ../../../../src/pic14/gen.c:1400:mov2w
                      05370 ;;      1126 rIdx = r0x1063 
0291   08??           05371         MOVF    r0x103A,W
                      05372 ;;      708 register type nRegs=4
                      05373 ;;      2158 left AOP_REG
                      05374 ;; >>> ../../../../src/pic14/gen.c:2166:genCall
                      05375 ;; ***  popRegFromIdx,1059  , rIdx=0x7c
0292   00??           05376         MOVWF   STK03
                      05377 ;;; ../../../../src/pic14/gen.c:1357:mov2w_op *{*
                      05378 ;; ***  mov2w  1395  offset=0
                      05379 ;; >>> ../../../../src/pic14/gen.c:1400:mov2w
                      05380 ;;      1126 rIdx = r0x105C 
0293   08??           05381         MOVF    r0x1036,W
                      05382 ;;      2158 left AOP_REG
                      05383 ;; >>> ../../../../src/pic14/gen.c:2166:genCall
                      05384 ;; ***  popRegFromIdx,1059  , rIdx=0x7d
0294   00??           05385         MOVWF   STK02
                      05386 ;;; ../../../../src/pic14/gen.c:1357:mov2w_op *{*
                      05387 ;; ***  mov2w  1395  offset=1
                      05388 ;; >>> ../../../../src/pic14/gen.c:1400:mov2w
                      05389 ;;      1126 rIdx = r0x105D 
0295   08??           05390         MOVF    r0x1037,W
                      05391 ;;      2158 left AOP_REG
                      05392 ;; >>> ../../../../src/pic14/gen.c:2166:genCall
                      05393 ;; ***  popRegFromIdx,1059  , rIdx=0x7e
0296   00??           05394         MOVWF   STK01
gpasm-1.5.0 #1285 (Jul 12 2020) obj/sdcc-16f8   11/12/23  13:12:30          PAGE 103


LOC    OBJECT CODE    LINE  SOURCE TEXT
  VALUE

                      05395 ;;; ../../../../src/pic14/gen.c:1357:mov2w_op *{*
                      05396 ;; ***  mov2w  1395  offset=2
                      05397 ;; >>> ../../../../src/pic14/gen.c:1400:mov2w
                      05398 ;;      1126 rIdx = r0x105E 
0297   08??           05399         MOVF    r0x1039,W
                      05400 ;;      2158 left AOP_REG
                      05401 ;; >>> ../../../../src/pic14/gen.c:2166:genCall
                      05402 ;; ***  popRegFromIdx,1059  , rIdx=0x7f
0298   00??           05403         MOVWF   STK00
                      05404 ;;; ../../../../src/pic14/gen.c:1357:mov2w_op *{*
                      05405 ;; ***  mov2w  1395  offset=3
                      05406 ;; >>> ../../../../src/pic14/gen.c:1400:mov2w
                      05407 ;;      1126 rIdx = r0x105F 
0299   08??           05408         MOVF    r0x1038,W
                      05409 ;; >>> ../../../../src/pic14/gen.c:2207:genCall
029A   0??? 0???      05410         PAGESEL ___fssub
                      05411 ;; >>> ../../../../src/pic14/gen.c:2215:genCall
029C   2???           05412         CALL    ___fssub
                      05413 ;; >>> ../../../../src/pic14/gen.c:2223:genCall
029D   0??? 0???      05414         PAGESEL $
                      05415 ;;      708 register type nRegs=4
                      05416 ;;; ../../../../src/pic14/gen.c:1929:assignResultValue *{*
                      05417 ;; ***  assignResultValue  1931
                      05418 ;;      line = 1933 result -=-, size=0, left AOP_REG=r0x105C, size=4, right -=-, size=0
                      05419 ;; >>> ../../../../src/pic14/gen.c:1407:movwf
                      05420 ;;      1126 rIdx = r0x105F 
029F   0??? 0???      05421         BANKSEL r0x1038
02A1   00??           05422         MOVWF   r0x1038
                      05423 ;; >>> ../../../../src/pic14/gen.c:1437:get_returnvalue
                      05424 ;; ***  popRegFromIdx,1059  , rIdx=0x7f
02A2   08??           05425         MOVF    STK00,W
                      05426 ;; >>> ../../../../src/pic14/gen.c:1407:movwf
                      05427 ;;      1126 rIdx = r0x105E 
02A3   00??           05428         MOVWF   r0x1039
                      05429 ;; >>> ../../../../src/pic14/gen.c:1437:get_returnvalue
                      05430 ;; ***  popRegFromIdx,1059  , rIdx=0x7e
02A4   08??           05431         MOVF    STK01,W
                      05432 ;; >>> ../../../../src/pic14/gen.c:1407:movwf
                      05433 ;;      1126 rIdx = r0x105D 
02A5   00??           05434         MOVWF   r0x1037
                      05435 ;; >>> ../../../../src/pic14/gen.c:1437:get_returnvalue
                      05436 ;; ***  popRegFromIdx,1059  , rIdx=0x7d
02A6   08??           05437         MOVF    STK02,W
                      05438 ;; >>> ../../../../src/pic14/gen.c:1407:movwf
                      05439 ;;      1126 rIdx = r0x105C 
02A7   00??           05440         MOVWF   r0x1036
02A8   00??           05441         MOVWF   STK06
                      05442 ;;; ../../../../src/pic14/gen.c:1357:mov2w_op *{*
                      05443 ;; ***  mov2w  1395  offset=1
                      05444 ;; >>> ../../../../src/pic14/gen.c:1400:mov2w
                      05445 ;;      1126 rIdx = r0x105D 
02A9   08??           05446         MOVF    r0x1037,W
                      05447 ;;      2158 left AOP_REG
gpasm-1.5.0 #1285 (Jul 12 2020) obj/sdcc-16f8   11/12/23  13:12:30          PAGE 104


LOC    OBJECT CODE    LINE  SOURCE TEXT
  VALUE

                      05448 ;; >>> ../../../../src/pic14/gen.c:2166:genCall
                      05449 ;; ***  popRegFromIdx,1059  , rIdx=0x7a
02AA   00??           05450         MOVWF   STK05
                      05451 ;;; ../../../../src/pic14/gen.c:1357:mov2w_op *{*
                      05452 ;; ***  mov2w  1395  offset=2
                      05453 ;; >>> ../../../../src/pic14/gen.c:1400:mov2w
                      05454 ;;      1126 rIdx = r0x105E 
02AB   08??           05455         MOVF    r0x1039,W
                      05456 ;;      2158 left AOP_REG
                      05457 ;; >>> ../../../../src/pic14/gen.c:2166:genCall
                      05458 ;; ***  popRegFromIdx,1059  , rIdx=0x7b
02AC   00??           05459         MOVWF   STK04
                      05460 ;;; ../../../../src/pic14/gen.c:1357:mov2w_op *{*
                      05461 ;; ***  mov2w  1395  offset=3
                      05462 ;; >>> ../../../../src/pic14/gen.c:1400:mov2w
                      05463 ;;      1126 rIdx = r0x105F 
02AD   08??           05464         MOVF    r0x1038,W
                      05465 ;;      708 register type nRegs=4
                      05466 ;;      2158 left AOP_REG
                      05467 ;; >>> ../../../../src/pic14/gen.c:2166:genCall
                      05468 ;; ***  popRegFromIdx,1059  , rIdx=0x7c
02AE   00??           05469         MOVWF   STK03
                      05470 ;;; ../../../../src/pic14/gen.c:1357:mov2w_op *{*
                      05471 ;; ***  mov2w  1395  offset=0
                      05472 ;; >>> ../../../../src/pic14/gen.c:1400:mov2w
                      05473 ;;      1126 rIdx = r0x1058 
02AF   08??           05474         MOVF    r0x1033,W
                      05475 ;;      2158 left AOP_REG
                      05476 ;; >>> ../../../../src/pic14/gen.c:2166:genCall
                      05477 ;; ***  popRegFromIdx,1059  , rIdx=0x7d
02B0   00??           05478         MOVWF   STK02
                      05479 ;;; ../../../../src/pic14/gen.c:1357:mov2w_op *{*
                      05480 ;; ***  mov2w  1395  offset=1
                      05481 ;; >>> ../../../../src/pic14/gen.c:1400:mov2w
                      05482 ;;      1126 rIdx = r0x1059 
02B1   08??           05483         MOVF    r0x1032,W
                      05484 ;;      2158 left AOP_REG
                      05485 ;; >>> ../../../../src/pic14/gen.c:2166:genCall
                      05486 ;; ***  popRegFromIdx,1059  , rIdx=0x7e
02B2   00??           05487         MOVWF   STK01
                      05488 ;;; ../../../../src/pic14/gen.c:1357:mov2w_op *{*
                      05489 ;; ***  mov2w  1395  offset=2
                      05490 ;; >>> ../../../../src/pic14/gen.c:1400:mov2w
                      05491 ;;      1126 rIdx = r0x105A 
02B3   08??           05492         MOVF    r0x1034,W
                      05493 ;;      2158 left AOP_REG
                      05494 ;; >>> ../../../../src/pic14/gen.c:2166:genCall
                      05495 ;; ***  popRegFromIdx,1059  , rIdx=0x7f
02B4   00??           05496         MOVWF   STK00
                      05497 ;;; ../../../../src/pic14/gen.c:1357:mov2w_op *{*
                      05498 ;; ***  mov2w  1395  offset=3
                      05499 ;; >>> ../../../../src/pic14/gen.c:1400:mov2w
                      05500 ;;      1126 rIdx = r0x105B 
gpasm-1.5.0 #1285 (Jul 12 2020) obj/sdcc-16f8   11/12/23  13:12:30          PAGE 105


LOC    OBJECT CODE    LINE  SOURCE TEXT
  VALUE

02B5   08??           05501         MOVF    r0x1035,W
                      05502 ;; >>> ../../../../src/pic14/gen.c:2207:genCall
02B6   0??? 0???      05503         PAGESEL ___fsmul
                      05504 ;; >>> ../../../../src/pic14/gen.c:2215:genCall
02B8   2???           05505         CALL    ___fsmul
                      05506 ;; >>> ../../../../src/pic14/gen.c:2223:genCall
02B9   0??? 0???      05507         PAGESEL $
                      05508 ;;      708 register type nRegs=4
                      05509 ;;; ../../../../src/pic14/gen.c:1929:assignResultValue *{*
                      05510 ;; ***  assignResultValue  1931
                      05511 ;;      line = 1933 result -=-, size=0, left AOP_REG=r0x1058, size=4, right -=-, size=0
                      05512 ;; >>> ../../../../src/pic14/gen.c:1407:movwf
                      05513 ;;      1126 rIdx = r0x105B 
02BB   0??? 0???      05514         BANKSEL r0x1035
02BD   00??           05515         MOVWF   r0x1035
                      05516 ;; >>> ../../../../src/pic14/gen.c:1437:get_returnvalue
                      05517 ;; ***  popRegFromIdx,1059  , rIdx=0x7f
02BE   08??           05518         MOVF    STK00,W
                      05519 ;; >>> ../../../../src/pic14/gen.c:1407:movwf
                      05520 ;;      1126 rIdx = r0x105A 
02BF   00??           05521         MOVWF   r0x1034
                      05522 ;; >>> ../../../../src/pic14/gen.c:1437:get_returnvalue
                      05523 ;; ***  popRegFromIdx,1059  , rIdx=0x7e
02C0   08??           05524         MOVF    STK01,W
                      05525 ;; >>> ../../../../src/pic14/gen.c:1407:movwf
                      05526 ;;      1126 rIdx = r0x1059 
02C1   00??           05527         MOVWF   r0x1032
                      05528 ;; >>> ../../../../src/pic14/gen.c:1437:get_returnvalue
                      05529 ;; ***  popRegFromIdx,1059  , rIdx=0x7d
02C2   08??           05530         MOVF    STK02,W
                      05531 ;; >>> ../../../../src/pic14/gen.c:1407:movwf
                      05532 ;;      1126 rIdx = r0x1058 
02C3   00??           05533         MOVWF   r0x1033
                      05534 ;;      2238 left AOP_REG
                      05535 ;;; ../../../../src/pic14/gen.c:2358:resultRemat *{*
                      05536 ;;; ../../../../src/pic14/gen.c:2358:resultRemat *{*
                      05537 ;;; ../../../../src/pic14/gen.c:2358:resultRemat *{*
                      05538 ;;; ../../../../src/pic14/gen.c:2108:genCall *{*
                      05539 ;; ***  genCall  2110
                      05540 ;; ***  aopForSym 324
                      05541 ;;      336 sym->rname = _CCal, size = 4
                      05542 ;;      708 register type nRegs=4
                      05543 ;; ***  aopForSym 324
                      05544 ;;      336 sym->rname = _CCal, size = 4
                      05545 ;;      2158 left AOP_DIR
                      05546 ;;; ../../../../src/pic14/gen.c:1357:mov2w_op *{*
                      05547 ;; ***  mov2w  1395  offset=0
                      05548 ;; >>> ../../../../src/pic14/gen.c:1400:mov2w
                      05549 ;;      1027
                      05550 ;;      1045  _CCal   offset=0
02C4   0??? 0???      05551         BANKSEL _CCal
02C6   08??           05552         MOVF    _CCal,W
                      05553 ;;      2158 left AOP_DIR
gpasm-1.5.0 #1285 (Jul 12 2020) obj/sdcc-16f8   11/12/23  13:12:30          PAGE 106


LOC    OBJECT CODE    LINE  SOURCE TEXT
  VALUE

                      05554 ;; >>> ../../../../src/pic14/gen.c:2166:genCall
                      05555 ;; ***  popRegFromIdx,1059  , rIdx=0x79
02C7   00??           05556         MOVWF   STK06
                      05557 ;;; ../../../../src/pic14/gen.c:1357:mov2w_op *{*
                      05558 ;; ***  mov2w  1395  offset=1
                      05559 ;; >>> ../../../../src/pic14/gen.c:1400:mov2w
                      05560 ;;      1027
                      05561 ;;      1045  _CCal   offset=1
02C8   08??           05562         MOVF    (_CCal + 1),W
                      05563 ;;      2158 left AOP_DIR
                      05564 ;; >>> ../../../../src/pic14/gen.c:2166:genCall
                      05565 ;; ***  popRegFromIdx,1059  , rIdx=0x7a
02C9   00??           05566         MOVWF   STK05
                      05567 ;;; ../../../../src/pic14/gen.c:1357:mov2w_op *{*
                      05568 ;; ***  mov2w  1395  offset=2
                      05569 ;; >>> ../../../../src/pic14/gen.c:1400:mov2w
                      05570 ;;      1027
                      05571 ;;      1045  _CCal   offset=2
02CA   08??           05572         MOVF    (_CCal + 2),W
                      05573 ;;      2158 left AOP_DIR
                      05574 ;; >>> ../../../../src/pic14/gen.c:2166:genCall
                      05575 ;; ***  popRegFromIdx,1059  , rIdx=0x7b
02CB   00??           05576         MOVWF   STK04
                      05577 ;;; ../../../../src/pic14/gen.c:1357:mov2w_op *{*
                      05578 ;; ***  mov2w  1395  offset=3
                      05579 ;; >>> ../../../../src/pic14/gen.c:1400:mov2w
                      05580 ;;      1027
                      05581 ;;      1045  _CCal   offset=3
02CC   08??           05582         MOVF    (_CCal + 3),W
                      05583 ;;      708 register type nRegs=4
                      05584 ;;      2158 left AOP_REG
                      05585 ;; >>> ../../../../src/pic14/gen.c:2166:genCall
                      05586 ;; ***  popRegFromIdx,1059  , rIdx=0x7c
02CD   00??           05587         MOVWF   STK03
                      05588 ;;; ../../../../src/pic14/gen.c:1357:mov2w_op *{*
                      05589 ;; ***  mov2w  1395  offset=0
                      05590 ;; >>> ../../../../src/pic14/gen.c:1400:mov2w
                      05591 ;;      1126 rIdx = r0x1058 
02CE   0??? 0???      05592         BANKSEL r0x1033
02D0   08??           05593         MOVF    r0x1033,W
                      05594 ;;      2158 left AOP_REG
                      05595 ;; >>> ../../../../src/pic14/gen.c:2166:genCall
                      05596 ;; ***  popRegFromIdx,1059  , rIdx=0x7d
02D1   00??           05597         MOVWF   STK02
                      05598 ;;; ../../../../src/pic14/gen.c:1357:mov2w_op *{*
                      05599 ;; ***  mov2w  1395  offset=1
                      05600 ;; >>> ../../../../src/pic14/gen.c:1400:mov2w
                      05601 ;;      1126 rIdx = r0x1059 
02D2   08??           05602         MOVF    r0x1032,W
                      05603 ;;      2158 left AOP_REG
                      05604 ;; >>> ../../../../src/pic14/gen.c:2166:genCall
                      05605 ;; ***  popRegFromIdx,1059  , rIdx=0x7e
02D3   00??           05606         MOVWF   STK01
gpasm-1.5.0 #1285 (Jul 12 2020) obj/sdcc-16f8   11/12/23  13:12:30          PAGE 107


LOC    OBJECT CODE    LINE  SOURCE TEXT
  VALUE

                      05607 ;;; ../../../../src/pic14/gen.c:1357:mov2w_op *{*
                      05608 ;; ***  mov2w  1395  offset=2
                      05609 ;; >>> ../../../../src/pic14/gen.c:1400:mov2w
                      05610 ;;      1126 rIdx = r0x105A 
02D4   08??           05611         MOVF    r0x1034,W
                      05612 ;;      2158 left AOP_REG
                      05613 ;; >>> ../../../../src/pic14/gen.c:2166:genCall
                      05614 ;; ***  popRegFromIdx,1059  , rIdx=0x7f
02D5   00??           05615         MOVWF   STK00
                      05616 ;;; ../../../../src/pic14/gen.c:1357:mov2w_op *{*
                      05617 ;; ***  mov2w  1395  offset=3
                      05618 ;; >>> ../../../../src/pic14/gen.c:1400:mov2w
                      05619 ;;      1126 rIdx = r0x105B 
02D6   08??           05620         MOVF    r0x1035,W
                      05621 ;; >>> ../../../../src/pic14/gen.c:2207:genCall
02D7   0??? 0???      05622         PAGESEL ___fsmul
                      05623 ;; >>> ../../../../src/pic14/gen.c:2215:genCall
02D9   2???           05624         CALL    ___fsmul
                      05625 ;; >>> ../../../../src/pic14/gen.c:2223:genCall
02DA   0??? 0???      05626         PAGESEL $
                      05627 ;; ***  aopForSym 324
                      05628 ;;      336 sym->rname = _measure_capacitance_Cin_65536_66, size = 4
                      05629 ;;; ../../../../src/pic14/gen.c:1929:assignResultValue *{*
                      05630 ;; ***  assignResultValue  1931
                      05631 ;;      line = 1933 result -=-, size=0, left AOP_DIR=_measure_capacitance_Cin_65536_66, size=4, right -=
                            -, size=0
                      05632 ;; >>> ../../../../src/pic14/gen.c:1407:movwf
                      05633 ;;      1027
                      05634 ;;      1045  _measure_capacitance_Cin_65536_66   offset=3
02DC   0??? 0???      05635         BANKSEL _measure_capacitance_Cin_65536_66
02DE   00??           05636         MOVWF   (_measure_capacitance_Cin_65536_66 + 3)
                      05637 ;; >>> ../../../../src/pic14/gen.c:1437:get_returnvalue
                      05638 ;; ***  popRegFromIdx,1059  , rIdx=0x7f
02DF   08??           05639         MOVF    STK00,W
                      05640 ;; >>> ../../../../src/pic14/gen.c:1407:movwf
                      05641 ;;      1027
                      05642 ;;      1045  _measure_capacitance_Cin_65536_66   offset=2
02E0   00??           05643         MOVWF   (_measure_capacitance_Cin_65536_66 + 2)
                      05644 ;; >>> ../../../../src/pic14/gen.c:1437:get_returnvalue
                      05645 ;; ***  popRegFromIdx,1059  , rIdx=0x7e
02E1   08??           05646         MOVF    STK01,W
                      05647 ;; >>> ../../../../src/pic14/gen.c:1407:movwf
                      05648 ;;      1027
                      05649 ;;      1045  _measure_capacitance_Cin_65536_66   offset=1
02E2   00??           05650         MOVWF   (_measure_capacitance_Cin_65536_66 + 1)
                      05651 ;; >>> ../../../../src/pic14/gen.c:1437:get_returnvalue
                      05652 ;; ***  popRegFromIdx,1059  , rIdx=0x7d
02E3   08??           05653         MOVF    STK02,W
                      05654 ;; >>> ../../../../src/pic14/gen.c:1407:movwf
                      05655 ;;      1027
                      05656 ;;      1045  _measure_capacitance_Cin_65536_66   offset=0
02E4   00??           05657         MOVWF   _measure_capacitance_Cin_65536_66
                      05658 ;;      2238 left AOP_DIR
gpasm-1.5.0 #1285 (Jul 12 2020) obj/sdcc-16f8   11/12/23  13:12:30          PAGE 108


LOC    OBJECT CODE    LINE  SOURCE TEXT
  VALUE

                      05659 ;;; ../../../../src/pic14/gen.c:2358:resultRemat *{*
                      05660 ;;; ../../../../src/pic14/gen.c:2358:resultRemat *{*
                      05661 ;;; ../../../../src/pic14/gen.c:7353:genCast *{*
                      05662 ;; ***  genCast  7354
                      05663 ;;      627
                      05664 ;;      aopForRemat 406
                      05665 ;;      432: rname ___str_10, val 0, const = 0
                      05666 ;;      708 register type nRegs=3
                      05667 ;;      837: aopGet AOP_PCODE type PO_IMMEDIATE
                      05668 ;;      ___str_10
                      05669 ;;      line = 7362 result AOP_REG=r0x1058, size=3, left -=-, size=0, right AOP_PCODE=___str_10, size=2
                      05670 ;; ***  genCast  7408 (size=2)
                      05671 ;;; ../../../../src/pic14/gen.c:1357:mov2w_op *{*
                      05672 ;; >>> ../../../../src/pic14/gen.c:1375:mov2w_op
                      05673         .line   185; "src/measure.c"    ser_puts("Cin=");
02E5   30??           05674         MOVLW   high (___str_10 + 0)
                      05675 ;; >>> ../../../../src/pic14/gen.c:1407:movwf
                      05676 ;;      1126 rIdx = r0x1059 
02E6   0??? 0???      05677         BANKSEL r0x1032
02E8   00??           05678         MOVWF   r0x1032
                      05679 ;;; ../../../../src/pic14/gen.c:1357:mov2w_op *{*
                      05680 ;; >>> ../../../../src/pic14/gen.c:1375:mov2w_op
02E9   30??           05681         MOVLW   (___str_10 + 0)
                      05682 ;; >>> ../../../../src/pic14/gen.c:1407:movwf
                      05683 ;;      1126 rIdx = r0x1058 
02EA   00??           05684         MOVWF   r0x1033
                      05685 ;; ***  genCast  7465 (tag=128)
                      05686 ;; >>> ../../../../src/pic14/gen.c:7488:genCast
02EB   3080           05687         MOVLW   0x80
                      05688 ;; >>> ../../../../src/pic14/gen.c:1407:movwf
                      05689 ;;      1126 rIdx = r0x105A 
02EC   00??           05690         MOVWF   r0x1034
                      05691 ;; ***  addSign  1087
                      05692 ;;; ../../../../src/pic14/genarith.c:1088:addSign *{*
                      05693 ;;; ../../../../src/pic14/gen.c:2358:resultRemat *{*
                      05694 ;;; ../../../../src/pic14/gen.c:2358:resultRemat *{*
                      05695 ;;; ../../../../src/pic14/gen.c:2108:genCall *{*
                      05696 ;; ***  genCall  2110
                      05697 ;;      708 register type nRegs=3
                      05698 ;;      708 register type nRegs=3
                      05699 ;;      2158 left AOP_REG
                      05700 ;;; ../../../../src/pic14/gen.c:1357:mov2w_op *{*
                      05701 ;; ***  mov2w  1395  offset=0
                      05702 ;; >>> ../../../../src/pic14/gen.c:1400:mov2w
                      05703 ;;      1126 rIdx = r0x1058 
02ED   08??           05704         MOVF    r0x1033,W
                      05705 ;;      2158 left AOP_REG
                      05706 ;; >>> ../../../../src/pic14/gen.c:2166:genCall
                      05707 ;; ***  popRegFromIdx,1059  , rIdx=0x7e
02EE   00??           05708         MOVWF   STK01
                      05709 ;;; ../../../../src/pic14/gen.c:1357:mov2w_op *{*
                      05710 ;; ***  mov2w  1395  offset=1
                      05711 ;; >>> ../../../../src/pic14/gen.c:1400:mov2w
gpasm-1.5.0 #1285 (Jul 12 2020) obj/sdcc-16f8   11/12/23  13:12:30          PAGE 109


LOC    OBJECT CODE    LINE  SOURCE TEXT
  VALUE

                      05712 ;;      1126 rIdx = r0x1059 
02EF   08??           05713         MOVF    r0x1032,W
                      05714 ;;      2158 left AOP_REG
                      05715 ;; >>> ../../../../src/pic14/gen.c:2166:genCall
                      05716 ;; ***  popRegFromIdx,1059  , rIdx=0x7f
02F0   00??           05717         MOVWF   STK00
                      05718 ;;; ../../../../src/pic14/gen.c:1357:mov2w_op *{*
                      05719 ;; ***  mov2w  1395  offset=2
                      05720 ;; >>> ../../../../src/pic14/gen.c:1400:mov2w
                      05721 ;;      1126 rIdx = r0x105A 
02F1   08??           05722         MOVF    r0x1034,W
                      05723 ;; >>> ../../../../src/pic14/gen.c:2207:genCall
02F2   0??? 0???      05724         PAGESEL _ser_puts
                      05725 ;; >>> ../../../../src/pic14/gen.c:2215:genCall
02F4   2???           05726         CALL    _ser_puts
                      05727 ;; >>> ../../../../src/pic14/gen.c:2223:genCall
02F5   0??? 0???      05728         PAGESEL $
                      05729 ;;; ../../../../src/pic14/gen.c:2358:resultRemat *{*
                      05730 ;;; ../../../../src/pic14/gen.c:2358:resultRemat *{*
                      05731 ;;; ../../../../src/pic14/gen.c:2358:resultRemat *{*
                      05732 ;;; ../../../../src/pic14/gen.c:2108:genCall *{*
                      05733 ;; ***  genCall  2110
                      05734 ;; ***  aopForSym 324
                      05735 ;;      336 sym->rname = _measure_capacitance_Cin_65536_66, size = 4
                      05736 ;; ***  aopForSym 324
                      05737 ;;      353 size = 2, name =_ser_putch
                      05738 ;; ***  aopForSym 324
                      05739 ;;      336 sym->rname = _measure_capacitance_Cin_65536_66, size = 4
                      05740 ;;      2158 left AOP_DIR
                      05741 ;;; ../../../../src/pic14/gen.c:1357:mov2w_op *{*
                      05742 ;; ***  mov2w  1395  offset=0
                      05743 ;; >>> ../../../../src/pic14/gen.c:1400:mov2w
                      05744 ;;      1027
                      05745 ;;      1045  _measure_capacitance_Cin_65536_66   offset=0
                      05746         .line   186; "src/measure.c"    format_float(&ser_putch, Cin);
02F7   0??? 0???      05747         BANKSEL _measure_capacitance_Cin_65536_66
02F9   08??           05748         MOVF    _measure_capacitance_Cin_65536_66,W
                      05749 ;;      2158 left AOP_DIR
                      05750 ;; >>> ../../../../src/pic14/gen.c:2166:genCall
                      05751 ;; ***  popRegFromIdx,1059  , rIdx=0x7b
02FA   00??           05752         MOVWF   STK04
                      05753 ;;; ../../../../src/pic14/gen.c:1357:mov2w_op *{*
                      05754 ;; ***  mov2w  1395  offset=1
                      05755 ;; >>> ../../../../src/pic14/gen.c:1400:mov2w
                      05756 ;;      1027
                      05757 ;;      1045  _measure_capacitance_Cin_65536_66   offset=1
02FB   08??           05758         MOVF    (_measure_capacitance_Cin_65536_66 + 1),W
                      05759 ;;      2158 left AOP_DIR
                      05760 ;; >>> ../../../../src/pic14/gen.c:2166:genCall
                      05761 ;; ***  popRegFromIdx,1059  , rIdx=0x7c
02FC   00??           05762         MOVWF   STK03
                      05763 ;;; ../../../../src/pic14/gen.c:1357:mov2w_op *{*
                      05764 ;; ***  mov2w  1395  offset=2
gpasm-1.5.0 #1285 (Jul 12 2020) obj/sdcc-16f8   11/12/23  13:12:30          PAGE 110


LOC    OBJECT CODE    LINE  SOURCE TEXT
  VALUE

                      05765 ;; >>> ../../../../src/pic14/gen.c:1400:mov2w
                      05766 ;;      1027
                      05767 ;;      1045  _measure_capacitance_Cin_65536_66   offset=2
02FD   08??           05768         MOVF    (_measure_capacitance_Cin_65536_66 + 2),W
                      05769 ;;      2158 left AOP_DIR
                      05770 ;; >>> ../../../../src/pic14/gen.c:2166:genCall
                      05771 ;; ***  popRegFromIdx,1059  , rIdx=0x7d
02FE   00??           05772         MOVWF   STK02
                      05773 ;;; ../../../../src/pic14/gen.c:1357:mov2w_op *{*
                      05774 ;; ***  mov2w  1395  offset=3
                      05775 ;; >>> ../../../../src/pic14/gen.c:1400:mov2w
                      05776 ;;      1027
                      05777 ;;      1045  _measure_capacitance_Cin_65536_66   offset=3
02FF   08??           05778         MOVF    (_measure_capacitance_Cin_65536_66 + 3),W
                      05779 ;; ***  aopForSym 324
                      05780 ;;      353 size = 2, name =_ser_putch
                      05781 ;;      2158 left AOP_PCODE
                      05782 ;; >>> ../../../../src/pic14/gen.c:2166:genCall
                      05783 ;; ***  popRegFromIdx,1059  , rIdx=0x7e
0300   00??           05784         MOVWF   STK01
                      05785 ;;; ../../../../src/pic14/gen.c:1357:mov2w_op *{*
                      05786 ;; >>> ../../../../src/pic14/gen.c:1375:mov2w_op
0301   30??           05787         MOVLW   low (_ser_putch+0)
                      05788 ;;      2158 left AOP_PCODE
                      05789 ;; >>> ../../../../src/pic14/gen.c:2166:genCall
                      05790 ;; ***  popRegFromIdx,1059  , rIdx=0x7f
0302   00??           05791         MOVWF   STK00
                      05792 ;;; ../../../../src/pic14/gen.c:1357:mov2w_op *{*
                      05793 ;; >>> ../../../../src/pic14/gen.c:1375:mov2w_op
0303   30??           05794         MOVLW   high (_ser_putch+0)
                      05795 ;; >>> ../../../../src/pic14/gen.c:2207:genCall
0304   0??? 0???      05796         PAGESEL _format_float
                      05797 ;; >>> ../../../../src/pic14/gen.c:2215:genCall
0306   2???           05798         CALL    _format_float
                      05799 ;; >>> ../../../../src/pic14/gen.c:2223:genCall
0307   0??? 0???      05800         PAGESEL $
                      05801 ;;; ../../../../src/pic14/gen.c:2358:resultRemat *{*
                      05802 ;;; ../../../../src/pic14/gen.c:2358:resultRemat *{*
                      05803 ;;; ../../../../src/pic14/gen.c:2108:genCall *{*
                      05804 ;; ***  genCall  2110
                      05805 ;;      2158 left AOP_LIT
                      05806 ;;; ../../../../src/pic14/gen.c:1357:mov2w_op *{*
                      05807 ;; >>> ../../../../src/pic14/gen.c:1375:mov2w_op
                      05808         .line   187; "src/measure.c"    ser_putch(' ');
0309   3020           05809         MOVLW   0x20
                      05810 ;; >>> ../../../../src/pic14/gen.c:2207:genCall
030A   0??? 0???      05811         PAGESEL _ser_putch
                      05812 ;; >>> ../../../../src/pic14/gen.c:2215:genCall
030C   2???           05813         CALL    _ser_putch
                      05814 ;; >>> ../../../../src/pic14/gen.c:2223:genCall
030D   0??? 0???      05815         PAGESEL $
                      05816 ;;; ../../../../src/pic14/gen.c:2358:resultRemat *{*
                      05817 ;;; ../../../../src/pic14/gen.c:2358:resultRemat *{*
gpasm-1.5.0 #1285 (Jul 12 2020) obj/sdcc-16f8   11/12/23  13:12:30          PAGE 111


LOC    OBJECT CODE    LINE  SOURCE TEXT
  VALUE

                      05818 ;;; ../../../../src/pic14/gen.c:7353:genCast *{*
                      05819 ;; ***  genCast  7354
                      05820 ;;      627
                      05821 ;;      aopForRemat 406
                      05822 ;;      432: rname _measure_capacitance_Cin_65536_66, val 0, const = 0
                      05823 ;;      708 register type nRegs=2
                      05824 ;;      837: aopGet AOP_PCODE type PO_IMMEDIATE
                      05825 ;;      _measure_capacitance_Cin_65536_66
                      05826 ;;      line = 7362 result AOP_REG=r0x1058, size=2, left -=-, size=0, right AOP_PCODE=_measure_capacitan
                            ce_Cin_65536_66, size=2
                      05827 ;; ***  genCast  7408 (size=2)
                      05828 ;;; ../../../../src/pic14/gen.c:1357:mov2w_op *{*
                      05829 ;; >>> ../../../../src/pic14/gen.c:1375:mov2w_op
                      05830         .line   188; "src/measure.c"    format_xint32(&ser_putch, *(uint32_t*)&Cin);
030F   30??           05831         MOVLW   high (_measure_capacitance_Cin_65536_66 + 0)
                      05832 ;; >>> ../../../../src/pic14/gen.c:1407:movwf
                      05833 ;;      1126 rIdx = r0x1059 
0310   0??? 0???      05834         BANKSEL r0x1032
0312   00??           05835         MOVWF   r0x1032
                      05836 ;;; ../../../../src/pic14/gen.c:1357:mov2w_op *{*
                      05837 ;; >>> ../../../../src/pic14/gen.c:1375:mov2w_op
0313   30??           05838         MOVLW   (_measure_capacitance_Cin_65536_66 + 0)
                      05839 ;; >>> ../../../../src/pic14/gen.c:1407:movwf
                      05840 ;;      1126 rIdx = r0x1058 
0314   00??           05841         MOVWF   r0x1033
0315   1283 1303      05842         BANKSEL FSR
0317   0084           05843         MOVWF   FSR
                      05844 ;;; ../../../../src/pic14/gen.c:5769:SetIrp *{*
                      05845 ;; >>> ../../../../src/pic14/gen.c:5796:SetIrp
0318   1383           05846         BCF     STATUS,7
                      05847 ;; >>> ../../../../src/pic14/gen.c:5799:SetIrp
0319   0??? 0???      05848         BANKSEL r0x1032
031B   18??           05849         BTFSC   r0x1032,0
                      05850 ;; >>> ../../../../src/pic14/gen.c:5800:SetIrp
031C   1783           05851         BSF     STATUS,7
                      05852 ;; >>> ../../../../src/pic14/gen.c:6027:emitPtrGet
031D   1283 1303      05853         BANKSEL INDF
031F   0800           05854         MOVF    INDF,W
                      05855 ;; >>> ../../../../src/pic14/gen.c:1407:movwf
                      05856 ;;      1126 rIdx = r0x105A 
0320   0??? 0???      05857         BANKSEL r0x1034
0322   00??           05858         MOVWF   r0x1034
                      05859 ;; >>> ../../../../src/pic14/gen.c:5875:inc_fsr
0323   1283 1303      05860         BANKSEL FSR
0325   0A84           05861         INCF    FSR,F
                      05862 ;; >>> ../../../../src/pic14/gen.c:6027:emitPtrGet
0326   0800           05863         MOVF    INDF,W
                      05864 ;; >>> ../../../../src/pic14/gen.c:1407:movwf
                      05865 ;;      1126 rIdx = r0x105B 
0327   0??? 0???      05866         BANKSEL r0x1035
0329   00??           05867         MOVWF   r0x1035
                      05868 ;; >>> ../../../../src/pic14/gen.c:5875:inc_fsr
032A   1283 1303      05869         BANKSEL FSR
gpasm-1.5.0 #1285 (Jul 12 2020) obj/sdcc-16f8   11/12/23  13:12:30          PAGE 112


LOC    OBJECT CODE    LINE  SOURCE TEXT
  VALUE

032C   0A84           05870         INCF    FSR,F
                      05871 ;; >>> ../../../../src/pic14/gen.c:6027:emitPtrGet
032D   0800           05872         MOVF    INDF,W
                      05873 ;; >>> ../../../../src/pic14/gen.c:1407:movwf
                      05874 ;;      1126 rIdx = r0x105C 
032E   0??? 0???      05875         BANKSEL r0x1036
0330   00??           05876         MOVWF   r0x1036
                      05877 ;; >>> ../../../../src/pic14/gen.c:5875:inc_fsr
0331   1283 1303      05878         BANKSEL FSR
0333   0A84           05879         INCF    FSR,F
                      05880 ;; >>> ../../../../src/pic14/gen.c:6027:emitPtrGet
0334   0800           05881         MOVF    INDF,W
                      05882 ;; >>> ../../../../src/pic14/gen.c:1407:movwf
                      05883 ;;      1126 rIdx = r0x105D 
0335   0??? 0???      05884         BANKSEL r0x1037
0337   00??           05885         MOVWF   r0x1037
                      05886 ;;; ../../../../src/pic14/gen.c:2358:resultRemat *{*
                      05887 ;;; ../../../../src/pic14/gen.c:2358:resultRemat *{*
                      05888 ;;; ../../../../src/pic14/gen.c:2358:resultRemat *{*
                      05889 ;;; ../../../../src/pic14/gen.c:2108:genCall *{*
                      05890 ;; ***  genCall  2110
                      05891 ;;      708 register type nRegs=4
                      05892 ;; ***  aopForSym 324
                      05893 ;;      353 size = 2, name =_ser_putch
                      05894 ;;      708 register type nRegs=4
                      05895 ;;      2158 left AOP_REG
                      05896 ;;; ../../../../src/pic14/gen.c:1357:mov2w_op *{*
                      05897 ;; ***  mov2w  1395  offset=0
                      05898 ;; >>> ../../../../src/pic14/gen.c:1400:mov2w
                      05899 ;;      1126 rIdx = r0x105A 
0338   08??           05900         MOVF    r0x1034,W
                      05901 ;;      2158 left AOP_REG
                      05902 ;; >>> ../../../../src/pic14/gen.c:2166:genCall
                      05903 ;; ***  popRegFromIdx,1059  , rIdx=0x7b
0339   00??           05904         MOVWF   STK04
                      05905 ;;; ../../../../src/pic14/gen.c:1357:mov2w_op *{*
                      05906 ;; ***  mov2w  1395  offset=1
                      05907 ;; >>> ../../../../src/pic14/gen.c:1400:mov2w
                      05908 ;;      1126 rIdx = r0x105B 
033A   08??           05909         MOVF    r0x1035,W
                      05910 ;;      2158 left AOP_REG
                      05911 ;; >>> ../../../../src/pic14/gen.c:2166:genCall
                      05912 ;; ***  popRegFromIdx,1059  , rIdx=0x7c
033B   00??           05913         MOVWF   STK03
                      05914 ;;; ../../../../src/pic14/gen.c:1357:mov2w_op *{*
                      05915 ;; ***  mov2w  1395  offset=2
                      05916 ;; >>> ../../../../src/pic14/gen.c:1400:mov2w
                      05917 ;;      1126 rIdx = r0x105C 
033C   08??           05918         MOVF    r0x1036,W
                      05919 ;;      2158 left AOP_REG
                      05920 ;; >>> ../../../../src/pic14/gen.c:2166:genCall
                      05921 ;; ***  popRegFromIdx,1059  , rIdx=0x7d
033D   00??           05922         MOVWF   STK02
gpasm-1.5.0 #1285 (Jul 12 2020) obj/sdcc-16f8   11/12/23  13:12:30          PAGE 113


LOC    OBJECT CODE    LINE  SOURCE TEXT
  VALUE

                      05923 ;;; ../../../../src/pic14/gen.c:1357:mov2w_op *{*
                      05924 ;; ***  mov2w  1395  offset=3
                      05925 ;; >>> ../../../../src/pic14/gen.c:1400:mov2w
                      05926 ;;      1126 rIdx = r0x105D 
033E   08??           05927         MOVF    r0x1037,W
                      05928 ;; ***  aopForSym 324
                      05929 ;;      353 size = 2, name =_ser_putch
                      05930 ;;      2158 left AOP_PCODE
                      05931 ;; >>> ../../../../src/pic14/gen.c:2166:genCall
                      05932 ;; ***  popRegFromIdx,1059  , rIdx=0x7e
033F   00??           05933         MOVWF   STK01
                      05934 ;;; ../../../../src/pic14/gen.c:1357:mov2w_op *{*
                      05935 ;; >>> ../../../../src/pic14/gen.c:1375:mov2w_op
0340   30??           05936         MOVLW   low (_ser_putch+0)
                      05937 ;;      2158 left AOP_PCODE
                      05938 ;; >>> ../../../../src/pic14/gen.c:2166:genCall
                      05939 ;; ***  popRegFromIdx,1059  , rIdx=0x7f
0341   00??           05940         MOVWF   STK00
                      05941 ;;; ../../../../src/pic14/gen.c:1357:mov2w_op *{*
                      05942 ;; >>> ../../../../src/pic14/gen.c:1375:mov2w_op
0342   30??           05943         MOVLW   high (_ser_putch+0)
                      05944 ;; >>> ../../../../src/pic14/gen.c:2207:genCall
0343   0??? 0???      05945         PAGESEL _format_xint32
                      05946 ;; >>> ../../../../src/pic14/gen.c:2215:genCall
0345   2???           05947         CALL    _format_xint32
                      05948 ;; >>> ../../../../src/pic14/gen.c:2223:genCall
0346   0??? 0???      05949         PAGESEL $
                      05950 ;;; ../../../../src/pic14/gen.c:2358:resultRemat *{*
                      05951 ;;; ../../../../src/pic14/gen.c:2358:resultRemat *{*
                      05952 ;;; ../../../../src/pic14/gen.c:7353:genCast *{*
                      05953 ;; ***  genCast  7354
                      05954 ;;      627
                      05955 ;;      aopForRemat 406
                      05956 ;;      432: rname ___str_1, val 0, const = 0
                      05957 ;;      708 register type nRegs=3
                      05958 ;;      837: aopGet AOP_PCODE type PO_IMMEDIATE
                      05959 ;;      ___str_1
                      05960 ;;      line = 7362 result AOP_REG=r0x1058, size=3, left -=-, size=0, right AOP_PCODE=___str_1, size=2
                      05961 ;; ***  genCast  7408 (size=2)
                      05962 ;;; ../../../../src/pic14/gen.c:1357:mov2w_op *{*
                      05963 ;; >>> ../../../../src/pic14/gen.c:1375:mov2w_op
                      05964         .line   189; "src/measure.c"    ser_puts("\r\n");
0348   30??           05965         MOVLW   high (___str_1 + 0)
                      05966 ;; >>> ../../../../src/pic14/gen.c:1407:movwf
                      05967 ;;      1126 rIdx = r0x1059 
0349   0??? 0???      05968         BANKSEL r0x1032
034B   00??           05969         MOVWF   r0x1032
                      05970 ;;; ../../../../src/pic14/gen.c:1357:mov2w_op *{*
                      05971 ;; >>> ../../../../src/pic14/gen.c:1375:mov2w_op
034C   30??           05972         MOVLW   (___str_1 + 0)
                      05973 ;; >>> ../../../../src/pic14/gen.c:1407:movwf
                      05974 ;;      1126 rIdx = r0x1058 
034D   00??           05975         MOVWF   r0x1033
gpasm-1.5.0 #1285 (Jul 12 2020) obj/sdcc-16f8   11/12/23  13:12:30          PAGE 114


LOC    OBJECT CODE    LINE  SOURCE TEXT
  VALUE

                      05976 ;; ***  genCast  7465 (tag=128)
                      05977 ;; >>> ../../../../src/pic14/gen.c:7488:genCast
034E   3080           05978         MOVLW   0x80
                      05979 ;; >>> ../../../../src/pic14/gen.c:1407:movwf
                      05980 ;;      1126 rIdx = r0x105A 
034F   00??           05981         MOVWF   r0x1034
                      05982 ;; ***  addSign  1087
                      05983 ;;; ../../../../src/pic14/genarith.c:1088:addSign *{*
                      05984 ;;; ../../../../src/pic14/gen.c:2358:resultRemat *{*
                      05985 ;;; ../../../../src/pic14/gen.c:2358:resultRemat *{*
                      05986 ;;; ../../../../src/pic14/gen.c:2108:genCall *{*
                      05987 ;; ***  genCall  2110
                      05988 ;;      708 register type nRegs=3
                      05989 ;;      708 register type nRegs=3
                      05990 ;;      2158 left AOP_REG
                      05991 ;;; ../../../../src/pic14/gen.c:1357:mov2w_op *{*
                      05992 ;; ***  mov2w  1395  offset=0
                      05993 ;; >>> ../../../../src/pic14/gen.c:1400:mov2w
                      05994 ;;      1126 rIdx = r0x1058 
0350   08??           05995         MOVF    r0x1033,W
                      05996 ;;      2158 left AOP_REG
                      05997 ;; >>> ../../../../src/pic14/gen.c:2166:genCall
                      05998 ;; ***  popRegFromIdx,1059  , rIdx=0x7e
0351   00??           05999         MOVWF   STK01
                      06000 ;;; ../../../../src/pic14/gen.c:1357:mov2w_op *{*
                      06001 ;; ***  mov2w  1395  offset=1
                      06002 ;; >>> ../../../../src/pic14/gen.c:1400:mov2w
                      06003 ;;      1126 rIdx = r0x1059 
0352   08??           06004         MOVF    r0x1032,W
                      06005 ;;      2158 left AOP_REG
                      06006 ;; >>> ../../../../src/pic14/gen.c:2166:genCall
                      06007 ;; ***  popRegFromIdx,1059  , rIdx=0x7f
0353   00??           06008         MOVWF   STK00
                      06009 ;;; ../../../../src/pic14/gen.c:1357:mov2w_op *{*
                      06010 ;; ***  mov2w  1395  offset=2
                      06011 ;; >>> ../../../../src/pic14/gen.c:1400:mov2w
                      06012 ;;      1126 rIdx = r0x105A 
0354   08??           06013         MOVF    r0x1034,W
                      06014 ;; >>> ../../../../src/pic14/gen.c:2207:genCall
0355   0??? 0???      06015         PAGESEL _ser_puts
                      06016 ;; >>> ../../../../src/pic14/gen.c:2215:genCall
0357   2???           06017         CALL    _ser_puts
                      06018 ;; >>> ../../../../src/pic14/gen.c:2223:genCall
0358   0??? 0???      06019         PAGESEL $
                      06020 ;;; ../../../../src/pic14/gen.c:2358:resultRemat *{*
                      06021 ;;; ../../../../src/pic14/gen.c:2358:resultRemat *{*
                      06022 ;;; ../../../../src/pic14/gen.c:2358:resultRemat *{*
                      06023 ;;; ../../../../src/pic14/gen.c:2108:genCall *{*
                      06024 ;; ***  genCall  2110
                      06025 ;; ***  aopForSym 324
                      06026 ;;      336 sym->rname = _measure_capacitance_Cin_65536_66, size = 4
                      06027 ;; ***  aopForSym 324
                      06028 ;;      336 sym->rname = _measure_capacitance_Cin_65536_66, size = 4
gpasm-1.5.0 #1285 (Jul 12 2020) obj/sdcc-16f8   11/12/23  13:12:30          PAGE 115


LOC    OBJECT CODE    LINE  SOURCE TEXT
  VALUE

                      06029 ;;      2158 left AOP_DIR
                      06030 ;;; ../../../../src/pic14/gen.c:1357:mov2w_op *{*
                      06031 ;; ***  mov2w  1395  offset=0
                      06032 ;; >>> ../../../../src/pic14/gen.c:1400:mov2w
                      06033 ;;      1027
                      06034 ;;      1045  _measure_capacitance_Cin_65536_66   offset=0
                      06035         .line   191; "src/measure.c"    if(Cin > 999) {
035A   0??? 0???      06036         BANKSEL _measure_capacitance_Cin_65536_66
035C   08??           06037         MOVF    _measure_capacitance_Cin_65536_66,W
                      06038 ;;      2158 left AOP_DIR
                      06039 ;; >>> ../../../../src/pic14/gen.c:2166:genCall
                      06040 ;; ***  popRegFromIdx,1059  , rIdx=0x79
035D   00??           06041         MOVWF   STK06
                      06042 ;;; ../../../../src/pic14/gen.c:1357:mov2w_op *{*
                      06043 ;; ***  mov2w  1395  offset=1
                      06044 ;; >>> ../../../../src/pic14/gen.c:1400:mov2w
                      06045 ;;      1027
                      06046 ;;      1045  _measure_capacitance_Cin_65536_66   offset=1
035E   08??           06047         MOVF    (_measure_capacitance_Cin_65536_66 + 1),W
                      06048 ;;      2158 left AOP_DIR
                      06049 ;; >>> ../../../../src/pic14/gen.c:2166:genCall
                      06050 ;; ***  popRegFromIdx,1059  , rIdx=0x7a
035F   00??           06051         MOVWF   STK05
                      06052 ;;; ../../../../src/pic14/gen.c:1357:mov2w_op *{*
                      06053 ;; ***  mov2w  1395  offset=2
                      06054 ;; >>> ../../../../src/pic14/gen.c:1400:mov2w
                      06055 ;;      1027
                      06056 ;;      1045  _measure_capacitance_Cin_65536_66   offset=2
0360   08??           06057         MOVF    (_measure_capacitance_Cin_65536_66 + 2),W
                      06058 ;;      2158 left AOP_DIR
                      06059 ;; >>> ../../../../src/pic14/gen.c:2166:genCall
                      06060 ;; ***  popRegFromIdx,1059  , rIdx=0x7b
0361   00??           06061         MOVWF   STK04
                      06062 ;;; ../../../../src/pic14/gen.c:1357:mov2w_op *{*
                      06063 ;; ***  mov2w  1395  offset=3
                      06064 ;; >>> ../../../../src/pic14/gen.c:1400:mov2w
                      06065 ;;      1027
                      06066 ;;      1045  _measure_capacitance_Cin_65536_66   offset=3
0362   08??           06067         MOVF    (_measure_capacitance_Cin_65536_66 + 3),W
                      06068 ;;      2158 left AOP_LIT
                      06069 ;; >>> ../../../../src/pic14/gen.c:2166:genCall
                      06070 ;; ***  popRegFromIdx,1059  , rIdx=0x7c
0363   00??           06071         MOVWF   STK03
                      06072 ;;; ../../../../src/pic14/gen.c:1357:mov2w_op *{*
                      06073 ;; >>> ../../../../src/pic14/gen.c:1375:mov2w_op
0364   3000           06074         MOVLW   0x00
                      06075 ;;      2158 left AOP_LIT
                      06076 ;; >>> ../../../../src/pic14/gen.c:2166:genCall
                      06077 ;; ***  popRegFromIdx,1059  , rIdx=0x7d
0365   00??           06078         MOVWF   STK02
                      06079 ;;; ../../../../src/pic14/gen.c:1357:mov2w_op *{*
                      06080 ;; >>> ../../../../src/pic14/gen.c:1375:mov2w_op
0366   30C0           06081         MOVLW   0xc0
gpasm-1.5.0 #1285 (Jul 12 2020) obj/sdcc-16f8   11/12/23  13:12:30          PAGE 116


LOC    OBJECT CODE    LINE  SOURCE TEXT
  VALUE

                      06082 ;;      2158 left AOP_LIT
                      06083 ;; >>> ../../../../src/pic14/gen.c:2166:genCall
                      06084 ;; ***  popRegFromIdx,1059  , rIdx=0x7e
0367   00??           06085         MOVWF   STK01
                      06086 ;;; ../../../../src/pic14/gen.c:1357:mov2w_op *{*
                      06087 ;; >>> ../../../../src/pic14/gen.c:1375:mov2w_op
0368   3079           06088         MOVLW   0x79
                      06089 ;;      2158 left AOP_LIT
                      06090 ;; >>> ../../../../src/pic14/gen.c:2166:genCall
                      06091 ;; ***  popRegFromIdx,1059  , rIdx=0x7f
0369   00??           06092         MOVWF   STK00
                      06093 ;;; ../../../../src/pic14/gen.c:1357:mov2w_op *{*
                      06094 ;; >>> ../../../../src/pic14/gen.c:1375:mov2w_op
036A   3044           06095         MOVLW   0x44
                      06096 ;; >>> ../../../../src/pic14/gen.c:2207:genCall
036B   0??? 0???      06097         PAGESEL ___fslt
                      06098 ;; >>> ../../../../src/pic14/gen.c:2215:genCall
036D   2???           06099         CALL    ___fslt
                      06100 ;; >>> ../../../../src/pic14/gen.c:2223:genCall
036E   0??? 0???      06101         PAGESEL $
                      06102 ;;      708 register type nRegs=1
                      06103 ;;; ../../../../src/pic14/gen.c:1929:assignResultValue *{*
                      06104 ;; ***  assignResultValue  1931
                      06105 ;;      line = 1933 result -=-, size=0, left AOP_REG=r0x1058, size=1, right -=-, size=0
                      06106 ;; >>> ../../../../src/pic14/gen.c:1407:movwf
                      06107 ;;      1126 rIdx = r0x1058 
0370   0??? 0???      06108         BANKSEL r0x1033
0372   00??           06109         MOVWF   r0x1033
                      06110 ;;      2238 left AOP_REG
                      06111 ;;; ../../../../src/pic14/gen.c:2358:resultRemat *{*
                      06112 ;;; ../../../../src/pic14/gen.c:6991:genIfx *{*
                      06113 ;; ***  genIfx  6992
                      06114 ;;      708 register type nRegs=1
                      06115 ;; ***  pic14_toBoolean  1515
                      06116 ;; ***  mov2w  1395  offset=0
                      06117 ;; >>> ../../../../src/pic14/gen.c:1400:mov2w
                      06118 ;;      1126 rIdx = r0x1058 
0373   08??           06119         MOVF    r0x1033,W
                      06120 ;; >>> ../../../../src/pic14/gen.c:7045:genIfx
0374   1903           06121         BTFSC   STATUS,2
                      06122 ;; >>> ../../../../src/pic14/gen.c:7046:genIfx
                      06123 ;; ***  popGetLabel  key=10, label offset 18
0375   2???           06124         GOTO    _00128_DS_
                      06125 ;;; ../../../../src/pic14/gen.c:2358:resultRemat *{*
                      06126 ;;; ../../../../src/pic14/gen.c:2358:resultRemat *{*
                      06127 ;;; ../../../../src/pic14/gen.c:2358:resultRemat *{*
                      06128 ;;; ../../../../src/pic14/gen.c:2108:genCall *{*
                      06129 ;; ***  genCall  2110
                      06130 ;; ***  aopForSym 324
                      06131 ;;      336 sym->rname = _measure_capacitance_Cin_65536_66, size = 4
                      06132 ;; ***  aopForSym 324
                      06133 ;;      336 sym->rname = _measure_capacitance_Cin_65536_66, size = 4
                      06134 ;;      2158 left AOP_DIR
gpasm-1.5.0 #1285 (Jul 12 2020) obj/sdcc-16f8   11/12/23  13:12:30          PAGE 117


LOC    OBJECT CODE    LINE  SOURCE TEXT
  VALUE

                      06135 ;;; ../../../../src/pic14/gen.c:1357:mov2w_op *{*
                      06136 ;; ***  mov2w  1395  offset=0
                      06137 ;; >>> ../../../../src/pic14/gen.c:1400:mov2w
                      06138 ;;      1027
                      06139 ;;      1045  _measure_capacitance_Cin_65536_66   offset=0
                      06140         .line   192; "src/measure.c"    if(Cin > (999e+03l)) {
0376   0??? 0???      06141         BANKSEL _measure_capacitance_Cin_65536_66
0378   08??           06142         MOVF    _measure_capacitance_Cin_65536_66,W
                      06143 ;;      2158 left AOP_DIR
                      06144 ;; >>> ../../../../src/pic14/gen.c:2166:genCall
                      06145 ;; ***  popRegFromIdx,1059  , rIdx=0x79
0379   00??           06146         MOVWF   STK06
                      06147 ;;; ../../../../src/pic14/gen.c:1357:mov2w_op *{*
                      06148 ;; ***  mov2w  1395  offset=1
                      06149 ;; >>> ../../../../src/pic14/gen.c:1400:mov2w
                      06150 ;;      1027
                      06151 ;;      1045  _measure_capacitance_Cin_65536_66   offset=1
037A   08??           06152         MOVF    (_measure_capacitance_Cin_65536_66 + 1),W
                      06153 ;;      2158 left AOP_DIR
                      06154 ;; >>> ../../../../src/pic14/gen.c:2166:genCall
                      06155 ;; ***  popRegFromIdx,1059  , rIdx=0x7a
037B   00??           06156         MOVWF   STK05
                      06157 ;;; ../../../../src/pic14/gen.c:1357:mov2w_op *{*
                      06158 ;; ***  mov2w  1395  offset=2
                      06159 ;; >>> ../../../../src/pic14/gen.c:1400:mov2w
                      06160 ;;      1027
                      06161 ;;      1045  _measure_capacitance_Cin_65536_66   offset=2
037C   08??           06162         MOVF    (_measure_capacitance_Cin_65536_66 + 2),W
                      06163 ;;      2158 left AOP_DIR
                      06164 ;; >>> ../../../../src/pic14/gen.c:2166:genCall
                      06165 ;; ***  popRegFromIdx,1059  , rIdx=0x7b
037D   00??           06166         MOVWF   STK04
                      06167 ;;; ../../../../src/pic14/gen.c:1357:mov2w_op *{*
                      06168 ;; ***  mov2w  1395  offset=3
                      06169 ;; >>> ../../../../src/pic14/gen.c:1400:mov2w
                      06170 ;;      1027
                      06171 ;;      1045  _measure_capacitance_Cin_65536_66   offset=3
037E   08??           06172         MOVF    (_measure_capacitance_Cin_65536_66 + 3),W
                      06173 ;;      2158 left AOP_LIT
                      06174 ;; >>> ../../../../src/pic14/gen.c:2166:genCall
                      06175 ;; ***  popRegFromIdx,1059  , rIdx=0x7c
037F   00??           06176         MOVWF   STK03
                      06177 ;;; ../../../../src/pic14/gen.c:1357:mov2w_op *{*
                      06178 ;; >>> ../../../../src/pic14/gen.c:1375:mov2w_op
0380   3080           06179         MOVLW   0x80
                      06180 ;;      2158 left AOP_LIT
                      06181 ;; >>> ../../../../src/pic14/gen.c:2166:genCall
                      06182 ;; ***  popRegFromIdx,1059  , rIdx=0x7d
0381   00??           06183         MOVWF   STK02
                      06184 ;;; ../../../../src/pic14/gen.c:1357:mov2w_op *{*
                      06185 ;; >>> ../../../../src/pic14/gen.c:1375:mov2w_op
0382   30E5           06186         MOVLW   0xe5
                      06187 ;;      2158 left AOP_LIT
gpasm-1.5.0 #1285 (Jul 12 2020) obj/sdcc-16f8   11/12/23  13:12:30          PAGE 118


LOC    OBJECT CODE    LINE  SOURCE TEXT
  VALUE

                      06188 ;; >>> ../../../../src/pic14/gen.c:2166:genCall
                      06189 ;; ***  popRegFromIdx,1059  , rIdx=0x7e
0383   00??           06190         MOVWF   STK01
                      06191 ;;; ../../../../src/pic14/gen.c:1357:mov2w_op *{*
                      06192 ;; >>> ../../../../src/pic14/gen.c:1375:mov2w_op
0384   3073           06193         MOVLW   0x73
                      06194 ;;      2158 left AOP_LIT
                      06195 ;; >>> ../../../../src/pic14/gen.c:2166:genCall
                      06196 ;; ***  popRegFromIdx,1059  , rIdx=0x7f
0385   00??           06197         MOVWF   STK00
                      06198 ;;; ../../../../src/pic14/gen.c:1357:mov2w_op *{*
                      06199 ;; >>> ../../../../src/pic14/gen.c:1375:mov2w_op
0386   3049           06200         MOVLW   0x49
                      06201 ;; >>> ../../../../src/pic14/gen.c:2207:genCall
0387   0??? 0???      06202         PAGESEL ___fslt
                      06203 ;; >>> ../../../../src/pic14/gen.c:2215:genCall
0389   2???           06204         CALL    ___fslt
                      06205 ;; >>> ../../../../src/pic14/gen.c:2223:genCall
038A   0??? 0???      06206         PAGESEL $
                      06207 ;;      708 register type nRegs=1
                      06208 ;;; ../../../../src/pic14/gen.c:1929:assignResultValue *{*
                      06209 ;; ***  assignResultValue  1931
                      06210 ;;      line = 1933 result -=-, size=0, left AOP_REG=r0x1058, size=1, right -=-, size=0
                      06211 ;; >>> ../../../../src/pic14/gen.c:1407:movwf
                      06212 ;;      1126 rIdx = r0x1058 
038C   0??? 0???      06213         BANKSEL r0x1033
038E   00??           06214         MOVWF   r0x1033
                      06215 ;;      2238 left AOP_REG
                      06216 ;;; ../../../../src/pic14/gen.c:2358:resultRemat *{*
                      06217 ;;; ../../../../src/pic14/gen.c:6991:genIfx *{*
                      06218 ;; ***  genIfx  6992
                      06219 ;;      708 register type nRegs=1
                      06220 ;; ***  pic14_toBoolean  1515
                      06221 ;; ***  mov2w  1395  offset=0
                      06222 ;; >>> ../../../../src/pic14/gen.c:1400:mov2w
                      06223 ;;      1126 rIdx = r0x1058 
038F   08??           06224         MOVF    r0x1033,W
                      06225 ;; >>> ../../../../src/pic14/gen.c:7045:genIfx
0390   1903           06226         BTFSC   STATUS,2
                      06227 ;; >>> ../../../../src/pic14/gen.c:7046:genIfx
                      06228 ;; ***  popGetLabel  key=7, label offset 18
0391   2???           06229         GOTO    _00125_DS_
                      06230 ;;; ../../../../src/pic14/gen.c:2358:resultRemat *{*
                      06231 ;;; ../../../../src/pic14/gen.c:2358:resultRemat *{*
                      06232 ;;; ../../../../src/pic14/gen.c:2358:resultRemat *{*
                      06233 ;;; ../../../../src/pic14/gen.c:2108:genCall *{*
                      06234 ;; ***  genCall  2110
                      06235 ;; ***  aopForSym 324
                      06236 ;;      336 sym->rname = _measure_capacitance_Cin_65536_66, size = 4
                      06237 ;; ***  aopForSym 324
                      06238 ;;      336 sym->rname = _measure_capacitance_Cin_65536_66, size = 4
                      06239 ;;      2158 left AOP_DIR
                      06240 ;;; ../../../../src/pic14/gen.c:1357:mov2w_op *{*
gpasm-1.5.0 #1285 (Jul 12 2020) obj/sdcc-16f8   11/12/23  13:12:30          PAGE 119


LOC    OBJECT CODE    LINE  SOURCE TEXT
  VALUE

                      06241 ;; ***  mov2w  1395  offset=0
                      06242 ;; >>> ../../../../src/pic14/gen.c:1400:mov2w
                      06243 ;;      1027
                      06244 ;;      1045  _measure_capacitance_Cin_65536_66   offset=0
                      06245         .line   193; "src/measure.c"    if(Cin > (999e+06l)) {
0392   0??? 0???      06246         BANKSEL _measure_capacitance_Cin_65536_66
0394   08??           06247         MOVF    _measure_capacitance_Cin_65536_66,W
                      06248 ;;      2158 left AOP_DIR
                      06249 ;; >>> ../../../../src/pic14/gen.c:2166:genCall
                      06250 ;; ***  popRegFromIdx,1059  , rIdx=0x79
0395   00??           06251         MOVWF   STK06
                      06252 ;;; ../../../../src/pic14/gen.c:1357:mov2w_op *{*
                      06253 ;; ***  mov2w  1395  offset=1
                      06254 ;; >>> ../../../../src/pic14/gen.c:1400:mov2w
                      06255 ;;      1027
                      06256 ;;      1045  _measure_capacitance_Cin_65536_66   offset=1
0396   08??           06257         MOVF    (_measure_capacitance_Cin_65536_66 + 1),W
                      06258 ;;      2158 left AOP_DIR
                      06259 ;; >>> ../../../../src/pic14/gen.c:2166:genCall
                      06260 ;; ***  popRegFromIdx,1059  , rIdx=0x7a
0397   00??           06261         MOVWF   STK05
                      06262 ;;; ../../../../src/pic14/gen.c:1357:mov2w_op *{*
                      06263 ;; ***  mov2w  1395  offset=2
                      06264 ;; >>> ../../../../src/pic14/gen.c:1400:mov2w
                      06265 ;;      1027
                      06266 ;;      1045  _measure_capacitance_Cin_65536_66   offset=2
0398   08??           06267         MOVF    (_measure_capacitance_Cin_65536_66 + 2),W
                      06268 ;;      2158 left AOP_DIR
                      06269 ;; >>> ../../../../src/pic14/gen.c:2166:genCall
                      06270 ;; ***  popRegFromIdx,1059  , rIdx=0x7b
0399   00??           06271         MOVWF   STK04
                      06272 ;;; ../../../../src/pic14/gen.c:1357:mov2w_op *{*
                      06273 ;; ***  mov2w  1395  offset=3
                      06274 ;; >>> ../../../../src/pic14/gen.c:1400:mov2w
                      06275 ;;      1027
                      06276 ;;      1045  _measure_capacitance_Cin_65536_66   offset=3
039A   08??           06277         MOVF    (_measure_capacitance_Cin_65536_66 + 3),W
                      06278 ;;      2158 left AOP_LIT
                      06279 ;; >>> ../../../../src/pic14/gen.c:2166:genCall
                      06280 ;; ***  popRegFromIdx,1059  , rIdx=0x7c
039B   00??           06281         MOVWF   STK03
                      06282 ;;; ../../../../src/pic14/gen.c:1357:mov2w_op *{*
                      06283 ;; >>> ../../../../src/pic14/gen.c:1375:mov2w_op
039C   301F           06284         MOVLW   0x1f
                      06285 ;;      2158 left AOP_LIT
                      06286 ;; >>> ../../../../src/pic14/gen.c:2166:genCall
                      06287 ;; ***  popRegFromIdx,1059  , rIdx=0x7d
039D   00??           06288         MOVWF   STK02
                      06289 ;;; ../../../../src/pic14/gen.c:1357:mov2w_op *{*
                      06290 ;; >>> ../../../../src/pic14/gen.c:1375:mov2w_op
039E   302E           06291         MOVLW   0x2e
                      06292 ;;      2158 left AOP_LIT
                      06293 ;; >>> ../../../../src/pic14/gen.c:2166:genCall
gpasm-1.5.0 #1285 (Jul 12 2020) obj/sdcc-16f8   11/12/23  13:12:30          PAGE 120


LOC    OBJECT CODE    LINE  SOURCE TEXT
  VALUE

                      06294 ;; ***  popRegFromIdx,1059  , rIdx=0x7e
039F   00??           06295         MOVWF   STK01
                      06296 ;;; ../../../../src/pic14/gen.c:1357:mov2w_op *{*
                      06297 ;; >>> ../../../../src/pic14/gen.c:1375:mov2w_op
03A0   306E           06298         MOVLW   0x6e
                      06299 ;;      2158 left AOP_LIT
                      06300 ;; >>> ../../../../src/pic14/gen.c:2166:genCall
                      06301 ;; ***  popRegFromIdx,1059  , rIdx=0x7f
03A1   00??           06302         MOVWF   STK00
                      06303 ;;; ../../../../src/pic14/gen.c:1357:mov2w_op *{*
                      06304 ;; >>> ../../../../src/pic14/gen.c:1375:mov2w_op
03A2   304E           06305         MOVLW   0x4e
                      06306 ;; >>> ../../../../src/pic14/gen.c:2207:genCall
03A3   0??? 0???      06307         PAGESEL ___fslt
                      06308 ;; >>> ../../../../src/pic14/gen.c:2215:genCall
03A5   2???           06309         CALL    ___fslt
                      06310 ;; >>> ../../../../src/pic14/gen.c:2223:genCall
03A6   0??? 0???      06311         PAGESEL $
                      06312 ;;      708 register type nRegs=1
                      06313 ;;; ../../../../src/pic14/gen.c:1929:assignResultValue *{*
                      06314 ;; ***  assignResultValue  1931
                      06315 ;;      line = 1933 result -=-, size=0, left AOP_REG=r0x1058, size=1, right -=-, size=0
                      06316 ;; >>> ../../../../src/pic14/gen.c:1407:movwf
                      06317 ;;      1126 rIdx = r0x1058 
03A8   0??? 0???      06318         BANKSEL r0x1033
03AA   00??           06319         MOVWF   r0x1033
                      06320 ;;      2238 left AOP_REG
                      06321 ;;; ../../../../src/pic14/gen.c:2358:resultRemat *{*
                      06322 ;;; ../../../../src/pic14/gen.c:6991:genIfx *{*
                      06323 ;; ***  genIfx  6992
                      06324 ;;      708 register type nRegs=1
                      06325 ;; ***  pic14_toBoolean  1515
                      06326 ;; ***  mov2w  1395  offset=0
                      06327 ;; >>> ../../../../src/pic14/gen.c:1400:mov2w
                      06328 ;;      1126 rIdx = r0x1058 
03AB   08??           06329         MOVF    r0x1033,W
                      06330 ;; >>> ../../../../src/pic14/gen.c:7045:genIfx
03AC   1903           06331         BTFSC   STATUS,2
                      06332 ;; >>> ../../../../src/pic14/gen.c:7046:genIfx
                      06333 ;; ***  popGetLabel  key=4, label offset 18
03AD   2???           06334         GOTO    _00122_DS_
                      06335 ;;; ../../../../src/pic14/gen.c:2358:resultRemat *{*
                      06336 ;;; ../../../../src/pic14/gen.c:2358:resultRemat *{*
                      06337 ;;; ../../../../src/pic14/gen.c:2358:resultRemat *{*
                      06338 ;;; ../../../../src/pic14/gen.c:2108:genCall *{*
                      06339 ;; ***  genCall  2110
                      06340 ;; ***  aopForSym 324
                      06341 ;;      336 sym->rname = _measure_capacitance_Cin_65536_66, size = 4
                      06342 ;;      2158 left AOP_LIT
                      06343 ;;; ../../../../src/pic14/gen.c:1357:mov2w_op *{*
                      06344 ;; >>> ../../../../src/pic14/gen.c:1375:mov2w_op
                      06345         .line   194; "src/measure.c"    Cin = Cin / (1e+09);
03AE   3028           06346         MOVLW   0x28
gpasm-1.5.0 #1285 (Jul 12 2020) obj/sdcc-16f8   11/12/23  13:12:30          PAGE 121


LOC    OBJECT CODE    LINE  SOURCE TEXT
  VALUE

                      06347 ;;      2158 left AOP_LIT
                      06348 ;; >>> ../../../../src/pic14/gen.c:2166:genCall
                      06349 ;; ***  popRegFromIdx,1059  , rIdx=0x79
03AF   00??           06350         MOVWF   STK06
                      06351 ;;; ../../../../src/pic14/gen.c:1357:mov2w_op *{*
                      06352 ;; >>> ../../../../src/pic14/gen.c:1375:mov2w_op
03B0   306B           06353         MOVLW   0x6b
                      06354 ;;      2158 left AOP_LIT
                      06355 ;; >>> ../../../../src/pic14/gen.c:2166:genCall
                      06356 ;; ***  popRegFromIdx,1059  , rIdx=0x7a
03B1   00??           06357         MOVWF   STK05
                      06358 ;;; ../../../../src/pic14/gen.c:1357:mov2w_op *{*
                      06359 ;; >>> ../../../../src/pic14/gen.c:1375:mov2w_op
03B2   306E           06360         MOVLW   0x6e
                      06361 ;;      2158 left AOP_LIT
                      06362 ;; >>> ../../../../src/pic14/gen.c:2166:genCall
                      06363 ;; ***  popRegFromIdx,1059  , rIdx=0x7b
03B3   00??           06364         MOVWF   STK04
                      06365 ;;; ../../../../src/pic14/gen.c:1357:mov2w_op *{*
                      06366 ;; >>> ../../../../src/pic14/gen.c:1375:mov2w_op
03B4   304E           06367         MOVLW   0x4e
                      06368 ;; ***  aopForSym 324
                      06369 ;;      336 sym->rname = _measure_capacitance_Cin_65536_66, size = 4
                      06370 ;;      2158 left AOP_DIR
                      06371 ;; >>> ../../../../src/pic14/gen.c:2166:genCall
                      06372 ;; ***  popRegFromIdx,1059  , rIdx=0x7c
03B5   00??           06373         MOVWF   STK03
                      06374 ;;; ../../../../src/pic14/gen.c:1357:mov2w_op *{*
                      06375 ;; ***  mov2w  1395  offset=0
                      06376 ;; >>> ../../../../src/pic14/gen.c:1400:mov2w
                      06377 ;;      1027
                      06378 ;;      1045  _measure_capacitance_Cin_65536_66   offset=0
03B6   0??? 0???      06379         BANKSEL _measure_capacitance_Cin_65536_66
03B8   08??           06380         MOVF    _measure_capacitance_Cin_65536_66,W
                      06381 ;;      2158 left AOP_DIR
                      06382 ;; >>> ../../../../src/pic14/gen.c:2166:genCall
                      06383 ;; ***  popRegFromIdx,1059  , rIdx=0x7d
03B9   00??           06384         MOVWF   STK02
                      06385 ;;; ../../../../src/pic14/gen.c:1357:mov2w_op *{*
                      06386 ;; ***  mov2w  1395  offset=1
                      06387 ;; >>> ../../../../src/pic14/gen.c:1400:mov2w
                      06388 ;;      1027
                      06389 ;;      1045  _measure_capacitance_Cin_65536_66   offset=1
03BA   08??           06390         MOVF    (_measure_capacitance_Cin_65536_66 + 1),W
                      06391 ;;      2158 left AOP_DIR
                      06392 ;; >>> ../../../../src/pic14/gen.c:2166:genCall
                      06393 ;; ***  popRegFromIdx,1059  , rIdx=0x7e
03BB   00??           06394         MOVWF   STK01
                      06395 ;;; ../../../../src/pic14/gen.c:1357:mov2w_op *{*
                      06396 ;; ***  mov2w  1395  offset=2
                      06397 ;; >>> ../../../../src/pic14/gen.c:1400:mov2w
                      06398 ;;      1027
                      06399 ;;      1045  _measure_capacitance_Cin_65536_66   offset=2
gpasm-1.5.0 #1285 (Jul 12 2020) obj/sdcc-16f8   11/12/23  13:12:30          PAGE 122


LOC    OBJECT CODE    LINE  SOURCE TEXT
  VALUE

03BC   08??           06400         MOVF    (_measure_capacitance_Cin_65536_66 + 2),W
                      06401 ;;      2158 left AOP_DIR
                      06402 ;; >>> ../../../../src/pic14/gen.c:2166:genCall
                      06403 ;; ***  popRegFromIdx,1059  , rIdx=0x7f
03BD   00??           06404         MOVWF   STK00
                      06405 ;;; ../../../../src/pic14/gen.c:1357:mov2w_op *{*
                      06406 ;; ***  mov2w  1395  offset=3
                      06407 ;; >>> ../../../../src/pic14/gen.c:1400:mov2w
                      06408 ;;      1027
                      06409 ;;      1045  _measure_capacitance_Cin_65536_66   offset=3
03BE   08??           06410         MOVF    (_measure_capacitance_Cin_65536_66 + 3),W
                      06411 ;; >>> ../../../../src/pic14/gen.c:2207:genCall
03BF   0??? 0???      06412         PAGESEL ___fsdiv
                      06413 ;; >>> ../../../../src/pic14/gen.c:2215:genCall
03C1   2???           06414         CALL    ___fsdiv
                      06415 ;; >>> ../../../../src/pic14/gen.c:2223:genCall
03C2   0??? 0???      06416         PAGESEL $
                      06417 ;; ***  aopForSym 324
                      06418 ;;      336 sym->rname = _measure_capacitance_Cin_65536_66, size = 4
                      06419 ;;; ../../../../src/pic14/gen.c:1929:assignResultValue *{*
                      06420 ;; ***  assignResultValue  1931
                      06421 ;;      line = 1933 result -=-, size=0, left AOP_DIR=_measure_capacitance_Cin_65536_66, size=4, right -=
                            -, size=0
                      06422 ;; >>> ../../../../src/pic14/gen.c:1407:movwf
                      06423 ;;      1027
                      06424 ;;      1045  _measure_capacitance_Cin_65536_66   offset=3
03C4   0??? 0???      06425         BANKSEL _measure_capacitance_Cin_65536_66
03C6   00??           06426         MOVWF   (_measure_capacitance_Cin_65536_66 + 3)
                      06427 ;; >>> ../../../../src/pic14/gen.c:1437:get_returnvalue
                      06428 ;; ***  popRegFromIdx,1059  , rIdx=0x7f
03C7   08??           06429         MOVF    STK00,W
                      06430 ;; >>> ../../../../src/pic14/gen.c:1407:movwf
                      06431 ;;      1027
                      06432 ;;      1045  _measure_capacitance_Cin_65536_66   offset=2
03C8   00??           06433         MOVWF   (_measure_capacitance_Cin_65536_66 + 2)
                      06434 ;; >>> ../../../../src/pic14/gen.c:1437:get_returnvalue
                      06435 ;; ***  popRegFromIdx,1059  , rIdx=0x7e
03C9   08??           06436         MOVF    STK01,W
                      06437 ;; >>> ../../../../src/pic14/gen.c:1407:movwf
                      06438 ;;      1027
                      06439 ;;      1045  _measure_capacitance_Cin_65536_66   offset=1
03CA   00??           06440         MOVWF   (_measure_capacitance_Cin_65536_66 + 1)
                      06441 ;; >>> ../../../../src/pic14/gen.c:1437:get_returnvalue
                      06442 ;; ***  popRegFromIdx,1059  , rIdx=0x7d
03CB   08??           06443         MOVF    STK02,W
                      06444 ;; >>> ../../../../src/pic14/gen.c:1407:movwf
                      06445 ;;      1027
                      06446 ;;      1045  _measure_capacitance_Cin_65536_66   offset=0
03CC   00??           06447         MOVWF   _measure_capacitance_Cin_65536_66
                      06448 ;;      2238 left AOP_DIR
                      06449 ;;; ../../../../src/pic14/gen.c:2358:resultRemat *{*
                      06450 ;;; ../../../../src/pic14/gen.c:7159:genAssign *{*
                      06451 ;; ***  genAssign  7160
gpasm-1.5.0 #1285 (Jul 12 2020) obj/sdcc-16f8   11/12/23  13:12:30          PAGE 123


LOC    OBJECT CODE    LINE  SOURCE TEXT
  VALUE

                      06452 ;;      708 register type nRegs=1
                      06453 ;;      line = 7169 result AOP_REG=r0x1058, size=1, left -=-, size=0, right AOP_LIT=0x04, size=1
                      06454 ;; ***  genAssign  7253
                      06455 ;; >>> ../../../../src/pic14/gen.c:7260:genAssign
                      06456         .line   195; "src/measure.c"    unit = 4; //"mF"
03CD   3004           06457         MOVLW   0x04
                      06458 ;; >>> ../../../../src/pic14/gen.c:7262:genAssign
                      06459 ;;      1126 rIdx = r0x1058 
03CE   0??? 0???      06460         BANKSEL r0x1033
03D0   00??           06461         MOVWF   r0x1033
                      06462 ;;; ../../../../src/pic14/gen.c:2358:resultRemat *{*
                      06463 ;;; ../../../../src/pic14/gen.c:2820:genGoto *{*
                      06464 ;; >>> ../../../../src/pic14/gen.c:2822:genGoto
                      06465 ;; ***  popGetLabel  key=11, label offset 18
03D1   2???           06466         GOTO    _00129_DS_
                      06467 ;;; ../../../../src/pic14/gen.c:2358:resultRemat *{*
                      06468 ;;; ../../../../src/pic14/gen.c:2802:genLabel *{*
                      06469 ;; ***  genLabel  2805
                      06470 ;;; ../../../../src/pic14/gen.c:2358:resultRemat *{*
                      06471 ;;; ../../../../src/pic14/gen.c:2358:resultRemat *{*
                      06472 ;;; ../../../../src/pic14/gen.c:2358:resultRemat *{*
                      06473 ;;; ../../../../src/pic14/gen.c:2108:genCall *{*
                      06474 ;; ***  genCall  2110
                      06475 ;; ***  aopForSym 324
                      06476 ;;      336 sym->rname = _measure_capacitance_Cin_65536_66, size = 4
                      06477 ;;      2158 left AOP_LIT
                      06478 ;;; ../../../../src/pic14/gen.c:1357:mov2w_op *{*
                      06479 ;; >>> ../../../../src/pic14/gen.c:1375:mov2w_op
03D2                  06480 _00122_DS_:
                      06481         .line   197; "src/measure.c"    Cin = Cin / (1e+06);
03D2   3000           06482         MOVLW   0x00
                      06483 ;;      2158 left AOP_LIT
                      06484 ;; >>> ../../../../src/pic14/gen.c:2166:genCall
                      06485 ;; ***  popRegFromIdx,1059  , rIdx=0x79
03D3   00??           06486         MOVWF   STK06
                      06487 ;;; ../../../../src/pic14/gen.c:1357:mov2w_op *{*
                      06488 ;; >>> ../../../../src/pic14/gen.c:1375:mov2w_op
03D4   3024           06489         MOVLW   0x24
                      06490 ;;      2158 left AOP_LIT
                      06491 ;; >>> ../../../../src/pic14/gen.c:2166:genCall
                      06492 ;; ***  popRegFromIdx,1059  , rIdx=0x7a
03D5   00??           06493         MOVWF   STK05
                      06494 ;;; ../../../../src/pic14/gen.c:1357:mov2w_op *{*
                      06495 ;; >>> ../../../../src/pic14/gen.c:1375:mov2w_op
03D6   3074           06496         MOVLW   0x74
                      06497 ;;      2158 left AOP_LIT
                      06498 ;; >>> ../../../../src/pic14/gen.c:2166:genCall
                      06499 ;; ***  popRegFromIdx,1059  , rIdx=0x7b
03D7   00??           06500         MOVWF   STK04
                      06501 ;;; ../../../../src/pic14/gen.c:1357:mov2w_op *{*
                      06502 ;; >>> ../../../../src/pic14/gen.c:1375:mov2w_op
03D8   3049           06503         MOVLW   0x49
                      06504 ;; ***  aopForSym 324
gpasm-1.5.0 #1285 (Jul 12 2020) obj/sdcc-16f8   11/12/23  13:12:30          PAGE 124


LOC    OBJECT CODE    LINE  SOURCE TEXT
  VALUE

                      06505 ;;      336 sym->rname = _measure_capacitance_Cin_65536_66, size = 4
                      06506 ;;      2158 left AOP_DIR
                      06507 ;; >>> ../../../../src/pic14/gen.c:2166:genCall
                      06508 ;; ***  popRegFromIdx,1059  , rIdx=0x7c
03D9   00??           06509         MOVWF   STK03
                      06510 ;;; ../../../../src/pic14/gen.c:1357:mov2w_op *{*
                      06511 ;; ***  mov2w  1395  offset=0
                      06512 ;; >>> ../../../../src/pic14/gen.c:1400:mov2w
                      06513 ;;      1027
                      06514 ;;      1045  _measure_capacitance_Cin_65536_66   offset=0
03DA   0??? 0???      06515         BANKSEL _measure_capacitance_Cin_65536_66
03DC   08??           06516         MOVF    _measure_capacitance_Cin_65536_66,W
                      06517 ;;      2158 left AOP_DIR
                      06518 ;; >>> ../../../../src/pic14/gen.c:2166:genCall
                      06519 ;; ***  popRegFromIdx,1059  , rIdx=0x7d
03DD   00??           06520         MOVWF   STK02
                      06521 ;;; ../../../../src/pic14/gen.c:1357:mov2w_op *{*
                      06522 ;; ***  mov2w  1395  offset=1
                      06523 ;; >>> ../../../../src/pic14/gen.c:1400:mov2w
                      06524 ;;      1027
                      06525 ;;      1045  _measure_capacitance_Cin_65536_66   offset=1
03DE   08??           06526         MOVF    (_measure_capacitance_Cin_65536_66 + 1),W
                      06527 ;;      2158 left AOP_DIR
                      06528 ;; >>> ../../../../src/pic14/gen.c:2166:genCall
                      06529 ;; ***  popRegFromIdx,1059  , rIdx=0x7e
03DF   00??           06530         MOVWF   STK01
                      06531 ;;; ../../../../src/pic14/gen.c:1357:mov2w_op *{*
                      06532 ;; ***  mov2w  1395  offset=2
                      06533 ;; >>> ../../../../src/pic14/gen.c:1400:mov2w
                      06534 ;;      1027
                      06535 ;;      1045  _measure_capacitance_Cin_65536_66   offset=2
03E0   08??           06536         MOVF    (_measure_capacitance_Cin_65536_66 + 2),W
                      06537 ;;      2158 left AOP_DIR
                      06538 ;; >>> ../../../../src/pic14/gen.c:2166:genCall
                      06539 ;; ***  popRegFromIdx,1059  , rIdx=0x7f
03E1   00??           06540         MOVWF   STK00
                      06541 ;;; ../../../../src/pic14/gen.c:1357:mov2w_op *{*
                      06542 ;; ***  mov2w  1395  offset=3
                      06543 ;; >>> ../../../../src/pic14/gen.c:1400:mov2w
                      06544 ;;      1027
                      06545 ;;      1045  _measure_capacitance_Cin_65536_66   offset=3
03E2   08??           06546         MOVF    (_measure_capacitance_Cin_65536_66 + 3),W
                      06547 ;; >>> ../../../../src/pic14/gen.c:2207:genCall
03E3   0??? 0???      06548         PAGESEL ___fsdiv
                      06549 ;; >>> ../../../../src/pic14/gen.c:2215:genCall
03E5   2???           06550         CALL    ___fsdiv
                      06551 ;; >>> ../../../../src/pic14/gen.c:2223:genCall
03E6   0??? 0???      06552         PAGESEL $
                      06553 ;; ***  aopForSym 324
                      06554 ;;      336 sym->rname = _measure_capacitance_Cin_65536_66, size = 4
                      06555 ;;; ../../../../src/pic14/gen.c:1929:assignResultValue *{*
                      06556 ;; ***  assignResultValue  1931
                      06557 ;;      line = 1933 result -=-, size=0, left AOP_DIR=_measure_capacitance_Cin_65536_66, size=4, right -=
gpasm-1.5.0 #1285 (Jul 12 2020) obj/sdcc-16f8   11/12/23  13:12:30          PAGE 125


LOC    OBJECT CODE    LINE  SOURCE TEXT
  VALUE

                            -, size=0
                      06558 ;; >>> ../../../../src/pic14/gen.c:1407:movwf
                      06559 ;;      1027
                      06560 ;;      1045  _measure_capacitance_Cin_65536_66   offset=3
03E8   0??? 0???      06561         BANKSEL _measure_capacitance_Cin_65536_66
03EA   00??           06562         MOVWF   (_measure_capacitance_Cin_65536_66 + 3)
                      06563 ;; >>> ../../../../src/pic14/gen.c:1437:get_returnvalue
                      06564 ;; ***  popRegFromIdx,1059  , rIdx=0x7f
03EB   08??           06565         MOVF    STK00,W
                      06566 ;; >>> ../../../../src/pic14/gen.c:1407:movwf
                      06567 ;;      1027
                      06568 ;;      1045  _measure_capacitance_Cin_65536_66   offset=2
03EC   00??           06569         MOVWF   (_measure_capacitance_Cin_65536_66 + 2)
                      06570 ;; >>> ../../../../src/pic14/gen.c:1437:get_returnvalue
                      06571 ;; ***  popRegFromIdx,1059  , rIdx=0x7e
03ED   08??           06572         MOVF    STK01,W
                      06573 ;; >>> ../../../../src/pic14/gen.c:1407:movwf
                      06574 ;;      1027
                      06575 ;;      1045  _measure_capacitance_Cin_65536_66   offset=1
03EE   00??           06576         MOVWF   (_measure_capacitance_Cin_65536_66 + 1)
                      06577 ;; >>> ../../../../src/pic14/gen.c:1437:get_returnvalue
                      06578 ;; ***  popRegFromIdx,1059  , rIdx=0x7d
03EF   08??           06579         MOVF    STK02,W
                      06580 ;; >>> ../../../../src/pic14/gen.c:1407:movwf
                      06581 ;;      1027
                      06582 ;;      1045  _measure_capacitance_Cin_65536_66   offset=0
03F0   00??           06583         MOVWF   _measure_capacitance_Cin_65536_66
                      06584 ;;      2238 left AOP_DIR
                      06585 ;;; ../../../../src/pic14/gen.c:2358:resultRemat *{*
                      06586 ;;; ../../../../src/pic14/gen.c:7159:genAssign *{*
                      06587 ;; ***  genAssign  7160
                      06588 ;;      708 register type nRegs=1
                      06589 ;;      line = 7169 result AOP_REG=r0x1058, size=1, left -=-, size=0, right AOP_LIT=0x05, size=1
                      06590 ;; ***  genAssign  7253
                      06591 ;; >>> ../../../../src/pic14/gen.c:7260:genAssign
                      06592         .line   198; "src/measure.c"    unit = 5; //"uF"
03F1   3005           06593         MOVLW   0x05
                      06594 ;; >>> ../../../../src/pic14/gen.c:7262:genAssign
                      06595 ;;      1126 rIdx = r0x1058 
03F2   0??? 0???      06596         BANKSEL r0x1033
03F4   00??           06597         MOVWF   r0x1033
                      06598 ;;; ../../../../src/pic14/gen.c:2358:resultRemat *{*
                      06599 ;;; ../../../../src/pic14/gen.c:2820:genGoto *{*
                      06600 ;; >>> ../../../../src/pic14/gen.c:2822:genGoto
                      06601 ;; ***  popGetLabel  key=11, label offset 18
03F5   2???           06602         GOTO    _00129_DS_
                      06603 ;;; ../../../../src/pic14/gen.c:2358:resultRemat *{*
                      06604 ;;; ../../../../src/pic14/gen.c:2802:genLabel *{*
                      06605 ;; ***  genLabel  2805
                      06606 ;;; ../../../../src/pic14/gen.c:2358:resultRemat *{*
                      06607 ;;; ../../../../src/pic14/gen.c:2358:resultRemat *{*
                      06608 ;;; ../../../../src/pic14/gen.c:2358:resultRemat *{*
                      06609 ;;; ../../../../src/pic14/gen.c:2108:genCall *{*
gpasm-1.5.0 #1285 (Jul 12 2020) obj/sdcc-16f8   11/12/23  13:12:30          PAGE 126


LOC    OBJECT CODE    LINE  SOURCE TEXT
  VALUE

                      06610 ;; ***  genCall  2110
                      06611 ;; ***  aopForSym 324
                      06612 ;;      336 sym->rname = _measure_capacitance_Cin_65536_66, size = 4
                      06613 ;;      2158 left AOP_LIT
                      06614 ;;; ../../../../src/pic14/gen.c:1357:mov2w_op *{*
                      06615 ;; >>> ../../../../src/pic14/gen.c:1375:mov2w_op
03F6                  06616 _00125_DS_:
                      06617         .line   201; "src/measure.c"    Cin = Cin / 1e+03;
03F6   3000           06618         MOVLW   0x00
                      06619 ;;      2158 left AOP_LIT
                      06620 ;; >>> ../../../../src/pic14/gen.c:2166:genCall
                      06621 ;; ***  popRegFromIdx,1059  , rIdx=0x79
03F7   00??           06622         MOVWF   STK06
                      06623 ;;; ../../../../src/pic14/gen.c:1357:mov2w_op *{*
                      06624 ;; >>> ../../../../src/pic14/gen.c:1375:mov2w_op
03F8   3000           06625         MOVLW   0x00
                      06626 ;;      2158 left AOP_LIT
                      06627 ;; >>> ../../../../src/pic14/gen.c:2166:genCall
                      06628 ;; ***  popRegFromIdx,1059  , rIdx=0x7a
03F9   00??           06629         MOVWF   STK05
                      06630 ;;; ../../../../src/pic14/gen.c:1357:mov2w_op *{*
                      06631 ;; >>> ../../../../src/pic14/gen.c:1375:mov2w_op
03FA   307A           06632         MOVLW   0x7a
                      06633 ;;      2158 left AOP_LIT
                      06634 ;; >>> ../../../../src/pic14/gen.c:2166:genCall
                      06635 ;; ***  popRegFromIdx,1059  , rIdx=0x7b
03FB   00??           06636         MOVWF   STK04
                      06637 ;;; ../../../../src/pic14/gen.c:1357:mov2w_op *{*
                      06638 ;; >>> ../../../../src/pic14/gen.c:1375:mov2w_op
03FC   3044           06639         MOVLW   0x44
                      06640 ;; ***  aopForSym 324
                      06641 ;;      336 sym->rname = _measure_capacitance_Cin_65536_66, size = 4
                      06642 ;;      2158 left AOP_DIR
                      06643 ;; >>> ../../../../src/pic14/gen.c:2166:genCall
                      06644 ;; ***  popRegFromIdx,1059  , rIdx=0x7c
03FD   00??           06645         MOVWF   STK03
                      06646 ;;; ../../../../src/pic14/gen.c:1357:mov2w_op *{*
                      06647 ;; ***  mov2w  1395  offset=0
                      06648 ;; >>> ../../../../src/pic14/gen.c:1400:mov2w
                      06649 ;;      1027
                      06650 ;;      1045  _measure_capacitance_Cin_65536_66   offset=0
03FE   0??? 0???      06651         BANKSEL _measure_capacitance_Cin_65536_66
0400   08??           06652         MOVF    _measure_capacitance_Cin_65536_66,W
                      06653 ;;      2158 left AOP_DIR
                      06654 ;; >>> ../../../../src/pic14/gen.c:2166:genCall
                      06655 ;; ***  popRegFromIdx,1059  , rIdx=0x7d
0401   00??           06656         MOVWF   STK02
                      06657 ;;; ../../../../src/pic14/gen.c:1357:mov2w_op *{*
                      06658 ;; ***  mov2w  1395  offset=1
                      06659 ;; >>> ../../../../src/pic14/gen.c:1400:mov2w
                      06660 ;;      1027
                      06661 ;;      1045  _measure_capacitance_Cin_65536_66   offset=1
0402   08??           06662         MOVF    (_measure_capacitance_Cin_65536_66 + 1),W
gpasm-1.5.0 #1285 (Jul 12 2020) obj/sdcc-16f8   11/12/23  13:12:30          PAGE 127


LOC    OBJECT CODE    LINE  SOURCE TEXT
  VALUE

                      06663 ;;      2158 left AOP_DIR
                      06664 ;; >>> ../../../../src/pic14/gen.c:2166:genCall
                      06665 ;; ***  popRegFromIdx,1059  , rIdx=0x7e
0403   00??           06666         MOVWF   STK01
                      06667 ;;; ../../../../src/pic14/gen.c:1357:mov2w_op *{*
                      06668 ;; ***  mov2w  1395  offset=2
                      06669 ;; >>> ../../../../src/pic14/gen.c:1400:mov2w
                      06670 ;;      1027
                      06671 ;;      1045  _measure_capacitance_Cin_65536_66   offset=2
0404   08??           06672         MOVF    (_measure_capacitance_Cin_65536_66 + 2),W
                      06673 ;;      2158 left AOP_DIR
                      06674 ;; >>> ../../../../src/pic14/gen.c:2166:genCall
                      06675 ;; ***  popRegFromIdx,1059  , rIdx=0x7f
0405   00??           06676         MOVWF   STK00
                      06677 ;;; ../../../../src/pic14/gen.c:1357:mov2w_op *{*
                      06678 ;; ***  mov2w  1395  offset=3
                      06679 ;; >>> ../../../../src/pic14/gen.c:1400:mov2w
                      06680 ;;      1027
                      06681 ;;      1045  _measure_capacitance_Cin_65536_66   offset=3
0406   08??           06682         MOVF    (_measure_capacitance_Cin_65536_66 + 3),W
                      06683 ;; >>> ../../../../src/pic14/gen.c:2207:genCall
0407   0??? 0???      06684         PAGESEL ___fsdiv
                      06685 ;; >>> ../../../../src/pic14/gen.c:2215:genCall
0409   2???           06686         CALL    ___fsdiv
                      06687 ;; >>> ../../../../src/pic14/gen.c:2223:genCall
040A   0??? 0???      06688         PAGESEL $
                      06689 ;; ***  aopForSym 324
                      06690 ;;      336 sym->rname = _measure_capacitance_Cin_65536_66, size = 4
                      06691 ;;; ../../../../src/pic14/gen.c:1929:assignResultValue *{*
                      06692 ;; ***  assignResultValue  1931
                      06693 ;;      line = 1933 result -=-, size=0, left AOP_DIR=_measure_capacitance_Cin_65536_66, size=4, right -=
                            -, size=0
                      06694 ;; >>> ../../../../src/pic14/gen.c:1407:movwf
                      06695 ;;      1027
                      06696 ;;      1045  _measure_capacitance_Cin_65536_66   offset=3
040C   0??? 0???      06697         BANKSEL _measure_capacitance_Cin_65536_66
040E   00??           06698         MOVWF   (_measure_capacitance_Cin_65536_66 + 3)
                      06699 ;; >>> ../../../../src/pic14/gen.c:1437:get_returnvalue
                      06700 ;; ***  popRegFromIdx,1059  , rIdx=0x7f
040F   08??           06701         MOVF    STK00,W
                      06702 ;; >>> ../../../../src/pic14/gen.c:1407:movwf
                      06703 ;;      1027
                      06704 ;;      1045  _measure_capacitance_Cin_65536_66   offset=2
0410   00??           06705         MOVWF   (_measure_capacitance_Cin_65536_66 + 2)
                      06706 ;; >>> ../../../../src/pic14/gen.c:1437:get_returnvalue
                      06707 ;; ***  popRegFromIdx,1059  , rIdx=0x7e
0411   08??           06708         MOVF    STK01,W
                      06709 ;; >>> ../../../../src/pic14/gen.c:1407:movwf
                      06710 ;;      1027
                      06711 ;;      1045  _measure_capacitance_Cin_65536_66   offset=1
0412   00??           06712         MOVWF   (_measure_capacitance_Cin_65536_66 + 1)
                      06713 ;; >>> ../../../../src/pic14/gen.c:1437:get_returnvalue
                      06714 ;; ***  popRegFromIdx,1059  , rIdx=0x7d
gpasm-1.5.0 #1285 (Jul 12 2020) obj/sdcc-16f8   11/12/23  13:12:30          PAGE 128


LOC    OBJECT CODE    LINE  SOURCE TEXT
  VALUE

0413   08??           06715         MOVF    STK02,W
                      06716 ;; >>> ../../../../src/pic14/gen.c:1407:movwf
                      06717 ;;      1027
                      06718 ;;      1045  _measure_capacitance_Cin_65536_66   offset=0
0414   00??           06719         MOVWF   _measure_capacitance_Cin_65536_66
                      06720 ;;      2238 left AOP_DIR
                      06721 ;;; ../../../../src/pic14/gen.c:2358:resultRemat *{*
                      06722 ;;; ../../../../src/pic14/gen.c:7159:genAssign *{*
                      06723 ;; ***  genAssign  7160
                      06724 ;;      708 register type nRegs=1
                      06725 ;;      line = 7169 result AOP_REG=r0x1058, size=1, left -=-, size=0, right AOP_LIT=0x06, size=1
                      06726 ;; ***  genAssign  7253
                      06727 ;; >>> ../../../../src/pic14/gen.c:7260:genAssign
                      06728         .line   202; "src/measure.c"    unit = 6; //"nF"
0415   3006           06729         MOVLW   0x06
                      06730 ;; >>> ../../../../src/pic14/gen.c:7262:genAssign
                      06731 ;;      1126 rIdx = r0x1058 
0416   0??? 0???      06732         BANKSEL r0x1033
0418   00??           06733         MOVWF   r0x1033
                      06734 ;;; ../../../../src/pic14/gen.c:2358:resultRemat *{*
                      06735 ;;; ../../../../src/pic14/gen.c:2820:genGoto *{*
                      06736 ;; >>> ../../../../src/pic14/gen.c:2822:genGoto
                      06737 ;; ***  popGetLabel  key=11, label offset 18
0419   2???           06738         GOTO    _00129_DS_
                      06739 ;;; ../../../../src/pic14/gen.c:2358:resultRemat *{*
                      06740 ;;; ../../../../src/pic14/gen.c:2802:genLabel *{*
                      06741 ;; ***  genLabel  2805
                      06742 ;;; ../../../../src/pic14/gen.c:2358:resultRemat *{*
                      06743 ;;; ../../../../src/pic14/gen.c:7159:genAssign *{*
                      06744 ;; ***  genAssign  7160
                      06745 ;;      708 register type nRegs=1
                      06746 ;;      line = 7169 result AOP_REG=r0x1058, size=1, left -=-, size=0, right AOP_LIT=0x07, size=1
                      06747 ;; ***  genAssign  7253
                      06748 ;; >>> ../../../../src/pic14/gen.c:7260:genAssign
041A                  06749 _00128_DS_:
                      06750         .line   205; "src/measure.c"    unit = 7; //"pF"
041A   3007           06751         MOVLW   0x07
                      06752 ;; >>> ../../../../src/pic14/gen.c:7262:genAssign
                      06753 ;;      1126 rIdx = r0x1058 
041B   0??? 0???      06754         BANKSEL r0x1033
041D   00??           06755         MOVWF   r0x1033
                      06756 ;;; ../../../../src/pic14/gen.c:2358:resultRemat *{*
                      06757 ;;; ../../../../src/pic14/gen.c:2802:genLabel *{*
                      06758 ;; ***  genLabel  2805
                      06759 ;;; ../../../../src/pic14/gen.c:2358:resultRemat *{*
                      06760 ;;; ../../../../src/pic14/gen.c:2358:resultRemat *{*
                      06761 ;;; ../../../../src/pic14/gen.c:2358:resultRemat *{*
                      06762 ;;; ../../../../src/pic14/gen.c:2108:genCall *{*
                      06763 ;; ***  genCall  2110
                      06764 ;; ***  aopForSym 324
                      06765 ;;      336 sym->rname = _measure_capacitance_Cin_65536_66, size = 4
                      06766 ;; ***  aopForSym 324
                      06767 ;;      336 sym->rname = _measure_capacitance_Cin_65536_66, size = 4
gpasm-1.5.0 #1285 (Jul 12 2020) obj/sdcc-16f8   11/12/23  13:12:30          PAGE 129


LOC    OBJECT CODE    LINE  SOURCE TEXT
  VALUE

                      06768 ;;      2158 left AOP_DIR
                      06769 ;;; ../../../../src/pic14/gen.c:1357:mov2w_op *{*
                      06770 ;; ***  mov2w  1395  offset=0
                      06771 ;; >>> ../../../../src/pic14/gen.c:1400:mov2w
                      06772 ;;      1027
                      06773 ;;      1045  _measure_capacitance_Cin_65536_66   offset=0
041E                  06774 _00129_DS_:
                      06775         .line   207; "src/measure.c"    Cin = Cin * 100; // scale to 2 decimal place
041E   0??? 0???      06776         BANKSEL _measure_capacitance_Cin_65536_66
0420   08??           06777         MOVF    _measure_capacitance_Cin_65536_66,W
                      06778 ;;      2158 left AOP_DIR
                      06779 ;; >>> ../../../../src/pic14/gen.c:2166:genCall
                      06780 ;; ***  popRegFromIdx,1059  , rIdx=0x79
0421   00??           06781         MOVWF   STK06
                      06782 ;;; ../../../../src/pic14/gen.c:1357:mov2w_op *{*
                      06783 ;; ***  mov2w  1395  offset=1
                      06784 ;; >>> ../../../../src/pic14/gen.c:1400:mov2w
                      06785 ;;      1027
                      06786 ;;      1045  _measure_capacitance_Cin_65536_66   offset=1
0422   08??           06787         MOVF    (_measure_capacitance_Cin_65536_66 + 1),W
                      06788 ;;      2158 left AOP_DIR
                      06789 ;; >>> ../../../../src/pic14/gen.c:2166:genCall
                      06790 ;; ***  popRegFromIdx,1059  , rIdx=0x7a
0423   00??           06791         MOVWF   STK05
                      06792 ;;; ../../../../src/pic14/gen.c:1357:mov2w_op *{*
                      06793 ;; ***  mov2w  1395  offset=2
                      06794 ;; >>> ../../../../src/pic14/gen.c:1400:mov2w
                      06795 ;;      1027
                      06796 ;;      1045  _measure_capacitance_Cin_65536_66   offset=2
0424   08??           06797         MOVF    (_measure_capacitance_Cin_65536_66 + 2),W
                      06798 ;;      2158 left AOP_DIR
                      06799 ;; >>> ../../../../src/pic14/gen.c:2166:genCall
                      06800 ;; ***  popRegFromIdx,1059  , rIdx=0x7b
0425   00??           06801         MOVWF   STK04
                      06802 ;;; ../../../../src/pic14/gen.c:1357:mov2w_op *{*
                      06803 ;; ***  mov2w  1395  offset=3
                      06804 ;; >>> ../../../../src/pic14/gen.c:1400:mov2w
                      06805 ;;      1027
                      06806 ;;      1045  _measure_capacitance_Cin_65536_66   offset=3
0426   08??           06807         MOVF    (_measure_capacitance_Cin_65536_66 + 3),W
                      06808 ;;      2158 left AOP_LIT
                      06809 ;; >>> ../../../../src/pic14/gen.c:2166:genCall
                      06810 ;; ***  popRegFromIdx,1059  , rIdx=0x7c
0427   00??           06811         MOVWF   STK03
                      06812 ;;; ../../../../src/pic14/gen.c:1357:mov2w_op *{*
                      06813 ;; >>> ../../../../src/pic14/gen.c:1375:mov2w_op
0428   3000           06814         MOVLW   0x00
                      06815 ;;      2158 left AOP_LIT
                      06816 ;; >>> ../../../../src/pic14/gen.c:2166:genCall
                      06817 ;; ***  popRegFromIdx,1059  , rIdx=0x7d
0429   00??           06818         MOVWF   STK02
                      06819 ;;; ../../../../src/pic14/gen.c:1357:mov2w_op *{*
                      06820 ;; >>> ../../../../src/pic14/gen.c:1375:mov2w_op
gpasm-1.5.0 #1285 (Jul 12 2020) obj/sdcc-16f8   11/12/23  13:12:30          PAGE 130


LOC    OBJECT CODE    LINE  SOURCE TEXT
  VALUE

042A   3000           06821         MOVLW   0x00
                      06822 ;;      2158 left AOP_LIT
                      06823 ;; >>> ../../../../src/pic14/gen.c:2166:genCall
                      06824 ;; ***  popRegFromIdx,1059  , rIdx=0x7e
042B   00??           06825         MOVWF   STK01
                      06826 ;;; ../../../../src/pic14/gen.c:1357:mov2w_op *{*
                      06827 ;; >>> ../../../../src/pic14/gen.c:1375:mov2w_op
042C   30C8           06828         MOVLW   0xc8
                      06829 ;;      2158 left AOP_LIT
                      06830 ;; >>> ../../../../src/pic14/gen.c:2166:genCall
                      06831 ;; ***  popRegFromIdx,1059  , rIdx=0x7f
042D   00??           06832         MOVWF   STK00
                      06833 ;;; ../../../../src/pic14/gen.c:1357:mov2w_op *{*
                      06834 ;; >>> ../../../../src/pic14/gen.c:1375:mov2w_op
042E   3042           06835         MOVLW   0x42
                      06836 ;; >>> ../../../../src/pic14/gen.c:2207:genCall
042F   0??? 0???      06837         PAGESEL ___fsmul
                      06838 ;; >>> ../../../../src/pic14/gen.c:2215:genCall
0431   2???           06839         CALL    ___fsmul
                      06840 ;; >>> ../../../../src/pic14/gen.c:2223:genCall
0432   0??? 0???      06841         PAGESEL $
                      06842 ;; ***  aopForSym 324
                      06843 ;;      336 sym->rname = _measure_capacitance_Cin_65536_66, size = 4
                      06844 ;;; ../../../../src/pic14/gen.c:1929:assignResultValue *{*
                      06845 ;; ***  assignResultValue  1931
                      06846 ;;      line = 1933 result -=-, size=0, left AOP_DIR=_measure_capacitance_Cin_65536_66, size=4, right -=
                            -, size=0
                      06847 ;; >>> ../../../../src/pic14/gen.c:1407:movwf
                      06848 ;;      1027
                      06849 ;;      1045  _measure_capacitance_Cin_65536_66   offset=3
0434   0??? 0???      06850         BANKSEL _measure_capacitance_Cin_65536_66
0436   00??           06851         MOVWF   (_measure_capacitance_Cin_65536_66 + 3)
                      06852 ;; >>> ../../../../src/pic14/gen.c:1437:get_returnvalue
                      06853 ;; ***  popRegFromIdx,1059  , rIdx=0x7f
0437   08??           06854         MOVF    STK00,W
                      06855 ;; >>> ../../../../src/pic14/gen.c:1407:movwf
                      06856 ;;      1027
                      06857 ;;      1045  _measure_capacitance_Cin_65536_66   offset=2
0438   00??           06858         MOVWF   (_measure_capacitance_Cin_65536_66 + 2)
                      06859 ;; >>> ../../../../src/pic14/gen.c:1437:get_returnvalue
                      06860 ;; ***  popRegFromIdx,1059  , rIdx=0x7e
0439   08??           06861         MOVF    STK01,W
                      06862 ;; >>> ../../../../src/pic14/gen.c:1407:movwf
                      06863 ;;      1027
                      06864 ;;      1045  _measure_capacitance_Cin_65536_66   offset=1
043A   00??           06865         MOVWF   (_measure_capacitance_Cin_65536_66 + 1)
                      06866 ;; >>> ../../../../src/pic14/gen.c:1437:get_returnvalue
                      06867 ;; ***  popRegFromIdx,1059  , rIdx=0x7d
043B   08??           06868         MOVF    STK02,W
                      06869 ;; >>> ../../../../src/pic14/gen.c:1407:movwf
                      06870 ;;      1027
                      06871 ;;      1045  _measure_capacitance_Cin_65536_66   offset=0
043C   00??           06872         MOVWF   _measure_capacitance_Cin_65536_66
gpasm-1.5.0 #1285 (Jul 12 2020) obj/sdcc-16f8   11/12/23  13:12:30          PAGE 131


LOC    OBJECT CODE    LINE  SOURCE TEXT
  VALUE

                      06873 ;;      2238 left AOP_DIR
                      06874 ;;; ../../../../src/pic14/gen.c:2358:resultRemat *{*
                      06875 ;;; ../../../../src/pic14/gen.c:2358:resultRemat *{*
                      06876 ;;; ../../../../src/pic14/gen.c:2108:genCall *{*
                      06877 ;; ***  genCall  2110
                      06878 ;; ***  aopForSym 324
                      06879 ;;      336 sym->rname = _measure_capacitance_Cin_65536_66, size = 4
                      06880 ;; ***  aopForSym 324
                      06881 ;;      336 sym->rname = _measure_capacitance_Cin_65536_66, size = 4
                      06882 ;;      2158 left AOP_DIR
                      06883 ;;; ../../../../src/pic14/gen.c:1357:mov2w_op *{*
                      06884 ;; ***  mov2w  1395  offset=0
                      06885 ;; >>> ../../../../src/pic14/gen.c:1400:mov2w
                      06886 ;;      1027
                      06887 ;;      1045  _measure_capacitance_Cin_65536_66   offset=0
                      06888         .line   208; "src/measure.c"    var = (uint16_t)Cin;
043D   08??           06889         MOVF    _measure_capacitance_Cin_65536_66,W
                      06890 ;;      2158 left AOP_DIR
                      06891 ;; >>> ../../../../src/pic14/gen.c:2166:genCall
                      06892 ;; ***  popRegFromIdx,1059  , rIdx=0x7d
043E   00??           06893         MOVWF   STK02
                      06894 ;;; ../../../../src/pic14/gen.c:1357:mov2w_op *{*
                      06895 ;; ***  mov2w  1395  offset=1
                      06896 ;; >>> ../../../../src/pic14/gen.c:1400:mov2w
                      06897 ;;      1027
                      06898 ;;      1045  _measure_capacitance_Cin_65536_66   offset=1
043F   08??           06899         MOVF    (_measure_capacitance_Cin_65536_66 + 1),W
                      06900 ;;      2158 left AOP_DIR
                      06901 ;; >>> ../../../../src/pic14/gen.c:2166:genCall
                      06902 ;; ***  popRegFromIdx,1059  , rIdx=0x7e
0440   00??           06903         MOVWF   STK01
                      06904 ;;; ../../../../src/pic14/gen.c:1357:mov2w_op *{*
                      06905 ;; ***  mov2w  1395  offset=2
                      06906 ;; >>> ../../../../src/pic14/gen.c:1400:mov2w
                      06907 ;;      1027
                      06908 ;;      1045  _measure_capacitance_Cin_65536_66   offset=2
0441   08??           06909         MOVF    (_measure_capacitance_Cin_65536_66 + 2),W
                      06910 ;;      2158 left AOP_DIR
                      06911 ;; >>> ../../../../src/pic14/gen.c:2166:genCall
                      06912 ;; ***  popRegFromIdx,1059  , rIdx=0x7f
0442   00??           06913         MOVWF   STK00
                      06914 ;;; ../../../../src/pic14/gen.c:1357:mov2w_op *{*
                      06915 ;; ***  mov2w  1395  offset=3
                      06916 ;; >>> ../../../../src/pic14/gen.c:1400:mov2w
                      06917 ;;      1027
                      06918 ;;      1045  _measure_capacitance_Cin_65536_66   offset=3
0443   08??           06919         MOVF    (_measure_capacitance_Cin_65536_66 + 3),W
                      06920 ;; >>> ../../../../src/pic14/gen.c:2207:genCall
0444   0??? 0???      06921         PAGESEL ___fs2uint
                      06922 ;; >>> ../../../../src/pic14/gen.c:2215:genCall
0446   2???           06923         CALL    ___fs2uint
                      06924 ;; >>> ../../../../src/pic14/gen.c:2223:genCall
0447   0??? 0???      06925         PAGESEL $
gpasm-1.5.0 #1285 (Jul 12 2020) obj/sdcc-16f8   11/12/23  13:12:30          PAGE 132


LOC    OBJECT CODE    LINE  SOURCE TEXT
  VALUE

                      06926 ;;      708 register type nRegs=2
                      06927 ;;; ../../../../src/pic14/gen.c:1929:assignResultValue *{*
                      06928 ;; ***  assignResultValue  1931
                      06929 ;;      line = 1933 result -=-, size=0, left AOP_REG=r0x1059, size=2, right -=-, size=0
                      06930 ;; >>> ../../../../src/pic14/gen.c:1407:movwf
                      06931 ;;      1126 rIdx = r0x105A 
0449   0??? 0???      06932         BANKSEL r0x1034
044B   00??           06933         MOVWF   r0x1034
                      06934 ;; >>> ../../../../src/pic14/gen.c:1437:get_returnvalue
                      06935 ;; ***  popRegFromIdx,1059  , rIdx=0x7f
044C   08??           06936         MOVF    STK00,W
                      06937 ;; >>> ../../../../src/pic14/gen.c:1407:movwf
                      06938 ;;      1126 rIdx = r0x1059 
                      06939         .line   210; "src/measure.c"    print_reading(var);
044D   00??           06940         MOVWF   r0x1032
044E   00??           06941         MOVWF   STK00
                      06942 ;;; ../../../../src/pic14/gen.c:1357:mov2w_op *{*
                      06943 ;; ***  mov2w  1395  offset=1
                      06944 ;; >>> ../../../../src/pic14/gen.c:1400:mov2w
                      06945 ;;      1126 rIdx = r0x105A 
044F   08??           06946         MOVF    r0x1034,W
                      06947 ;; >>> ../../../../src/pic14/gen.c:2207:genCall
0450   0??? 0???      06948         PAGESEL _print_reading
                      06949 ;; >>> ../../../../src/pic14/gen.c:2215:genCall
0452   2???           06950         CALL    _print_reading
                      06951 ;; >>> ../../../../src/pic14/gen.c:2223:genCall
0453   0??? 0???      06952         PAGESEL $
                      06953 ;;; ../../../../src/pic14/gen.c:2358:resultRemat *{*
                      06954 ;;; ../../../../src/pic14/gen.c:2358:resultRemat *{*
                      06955 ;;; ../../../../src/pic14/gen.c:2108:genCall *{*
                      06956 ;; ***  genCall  2110
                      06957 ;;      708 register type nRegs=1
                      06958 ;;      708 register type nRegs=1
                      06959 ;;      2158 left AOP_REG
                      06960 ;;; ../../../../src/pic14/gen.c:1357:mov2w_op *{*
                      06961 ;; ***  mov2w  1395  offset=0
                      06962 ;; >>> ../../../../src/pic14/gen.c:1400:mov2w
                      06963 ;;      1126 rIdx = r0x1058 
                      06964         .line   211; "src/measure.c"    print_unit(unit);
0455   0??? 0???      06965         BANKSEL r0x1033
0457   08??           06966         MOVF    r0x1033,W
                      06967 ;; >>> ../../../../src/pic14/gen.c:2207:genCall
0458   0??? 0???      06968         PAGESEL _print_unit
                      06969 ;; >>> ../../../../src/pic14/gen.c:2215:genCall
045A   2???           06970         CALL    _print_unit
                      06971 ;; >>> ../../../../src/pic14/gen.c:2223:genCall
045B   0??? 0???      06972         PAGESEL $
                      06973 ;;; ../../../../src/pic14/gen.c:2358:resultRemat *{*
                      06974 ;;; ../../../../src/pic14/gen.c:2802:genLabel *{*
                      06975 ;; ***  genLabel  2805
                      06976 ;;; ../../../../src/pic14/gen.c:2358:resultRemat *{*
                      06977 ;;; ../../../../src/pic14/gen.c:2570:genEndFunction *{*
                      06978 ;; ***  genEndFunction  2572
gpasm-1.5.0 #1285 (Jul 12 2020) obj/sdcc-16f8   11/12/23  13:12:30          PAGE 133


LOC    OBJECT CODE    LINE  SOURCE TEXT
  VALUE

                      06979         .line   212; "src/measure.c"    }
045D   0008           06980         RETURN  
                      06981 ; exit point of _measure_capacitance
                      06982 ;;; ../../../../src/pic14/gen.c:7677:genpic14Code *{*
                      06983 
                      06984 ;***
                      06985 ;  pBlock Stats: dbName = C
                      06986 ;***
                      06987 ;has an exit
                      06988 ;functions called:
                      06989 ;   _ser_put
                      06990 ;   _ser_put
                      06991 ;10 compiler assigned registers:
                      06992 ;   r0x103E
                      06993 ;   r0x103F
                      06994 ;   r0x1040
                      06995 ;   r0x1041
                      06996 ;   r0x1042
                      06997 ;   r0x1043
                      06998 ;   STK03
                      06999 ;   STK02
                      07000 ;   STK01
                      07001 ;   STK00
                      07002 ;; Starting pCode block
                      07003 ;;; ../../../../src/pic14/gen.c:2358:resultRemat *{*
                      07004 ;;; ../../../../src/pic14/gen.c:2802:genLabel *{*
                      07005 ;; ***  genLabel  2805
                      07006 ;;; ../../../../src/pic14/gen.c:2358:resultRemat *{*
                      07007 ;;; ../../../../src/pic14/gen.c:2382:genFunction *{*
                      07008 ;; ***  genFunction  2384 curr label offset=10previous max_key=0 
                      07009 S_measure__buf_to_ser   code
0000                  07010 _buf_to_ser:
                      07011 ; 2 exit points
                      07012 ;;; ../../../../src/pic14/gen.c:2358:resultRemat *{*
                      07013 ;;; ../../../../src/pic14/gen.c:2358:resultRemat *{*
                      07014 ;;; ../../../../src/pic14/gen.c:7353:genCast *{*
                      07015 ;; ***  genCast  7354
                      07016 ;;      627
                      07017 ;;      aopForRemat 406
                      07018 ;;      432: rname _buffer, val 0, const = 0
                      07019 ;;      708 register type nRegs=3
                      07020 ;;      837: aopGet AOP_PCODE type PO_IMMEDIATE
                      07021 ;;      _buffer
                      07022 ;;      line = 7362 result AOP_REG=r0x104F, size=3, left -=-, size=0, right AOP_PCODE=_buffer, size=2
                      07023 ;; ***  genCast  7408 (size=2)
                      07024 ;;; ../../../../src/pic14/gen.c:1357:mov2w_op *{*
                      07025 ;; >>> ../../../../src/pic14/gen.c:1375:mov2w_op
                      07026         .line   122; "src/measure.c"    ser_put(buffer.x, buffer.n);
0000   30??           07027         MOVLW   high (_buffer + 0)
                      07028 ;; >>> ../../../../src/pic14/gen.c:1407:movwf
                      07029 ;;      1126 rIdx = r0x1050 
0001   0??? 0???      07030         BANKSEL r0x103E
0003   00??           07031         MOVWF   r0x103E
gpasm-1.5.0 #1285 (Jul 12 2020) obj/sdcc-16f8   11/12/23  13:12:30          PAGE 134


LOC    OBJECT CODE    LINE  SOURCE TEXT
  VALUE

                      07032 ;;; ../../../../src/pic14/gen.c:1357:mov2w_op *{*
                      07033 ;; >>> ../../../../src/pic14/gen.c:1375:mov2w_op
0004   30??           07034         MOVLW   (_buffer + 0)
                      07035 ;; >>> ../../../../src/pic14/gen.c:1407:movwf
                      07036 ;;      1126 rIdx = r0x104F 
0005   00??           07037         MOVWF   r0x103F
                      07038 ;; ***  genCast  7465 (tag=0)
                      07039 ;; >>> ../../../../src/pic14/gen.c:7484:genCast
                      07040 ;;      1126 rIdx = r0x1051 
                      07041 ;;1     CLRF    r0x1040
                      07042 ;; ***  addSign  1087
                      07043 ;;; ../../../../src/pic14/genarith.c:1088:addSign *{*
                      07044 ;;; ../../../../src/pic14/gen.c:2358:resultRemat *{*
                      07045 ;;; ../../../../src/pic14/gen.c:2358:resultRemat *{*
                      07046 ;;; ../../../../src/pic14/gen.c:2358:resultRemat *{*
                      07047 ;;; ../../../../src/pic14/gen.c:6366:genPointerGet *{*
                      07048 ;; ***  genPointerGet  6367
                      07049 ;;; ../../../../src/pic14/gen.c:6252:genNearPointerGet *{*
                      07050 ;; ***  genNearPointerGet  6253
                      07051 ;;      627
                      07052 ;;      aopForRemat 406
                      07053 ;;      432: rname _buffer, val 16, const = 0
                      07054 ;; ***  genNearPointerGet  6269
                      07055 ;;      708 register type nRegs=1
                      07056 ;;; ../../../../src/pic14/gen.c:6110:genUnpackBits *{*
                      07057 ;; ***  genUnpackBits  6111
                      07058 ;; >>> ../../../../src/pic14/gen.c:6012:emitPtrGet
                      07059 ;;      popGet AOP_PCODE (PO_IMMEDIATE + 0) 1147 _buffer
0006   0??? 0???      07060         BANKSEL _buffer
0008   08??           07061         MOVF    (_buffer + 16),W
                      07062 ;; >>> ../../../../src/pic14/gen.c:6014:emitPtrGet
0009   39F0           07063         ANDLW   0xf0
                      07064 ;; >>> ../../../../src/pic14/gen.c:1407:movwf
                      07065 ;;      1126 rIdx = r0x1052 
000A   0??? 0???      07066         BANKSEL r0x1041
000C   00??           07067         MOVWF   r0x1041
                      07068 ;;      1126 rIdx = r0x1052 
                      07069 ;;; ../../../../src/pic14/gen.c:5140:AccRsh *{*
                      07070 ;; ***  AccRsh  5141
                      07071 ;; >>> ../../../../src/pic14/gen.c:5186:AccRsh
000D   0E??           07072         SWAPF   r0x1041,F
                      07073 ;; >>> ../../../../src/pic14/gen.c:5222:AccRsh
000E   300F           07074         MOVLW   0x0f
                      07075 ;; >>> ../../../../src/pic14/gen.c:5223:AccRsh
000F   05??           07076         ANDWF   r0x1041,F
                      07077 ;;; ../../../../src/pic14/gen.c:2358:resultRemat *{*
                      07078 ;;; ../../../../src/pic14/gen.c:7353:genCast *{*
                      07079 ;; ***  genCast  7354
                      07080 ;;      708 register type nRegs=1
                      07081 ;;      708 register type nRegs=2
                      07082 ;;      line = 7362 result AOP_REG=r0x1053, size=2, left -=-, size=0, right AOP_REG=r0x1052, size=1
                      07083 ;; >>> ../../../../src/pic14/gen.c:7549:genCast
                      07084 ;;      1126 rIdx = r0x1052 
gpasm-1.5.0 #1285 (Jul 12 2020) obj/sdcc-16f8   11/12/23  13:12:30          PAGE 135


LOC    OBJECT CODE    LINE  SOURCE TEXT
  VALUE

                      07085 ;;101   MOVF    r0x1041,W
                      07086 ;; >>> ../../../../src/pic14/gen.c:7550:genCast
                      07087 ;;      1126 rIdx = r0x1053 
                      07088 ;;99    MOVWF   r0x1042
                      07089 ;; ***  addSign  1087
                      07090 ;;; ../../../../src/pic14/genarith.c:1088:addSign *{*
                      07091 ;; >>> ../../../../src/pic14/genarith.c:1107:addSign
                      07092 ;;      1126 rIdx = r0x1054 
                      07093 ;;1     CLRF    r0x1043
                      07094 ;;; ../../../../src/pic14/gen.c:2358:resultRemat *{*
                      07095 ;;; ../../../../src/pic14/gen.c:2358:resultRemat *{*
                      07096 ;;; ../../../../src/pic14/gen.c:2358:resultRemat *{*
                      07097 ;;; ../../../../src/pic14/gen.c:2108:genCall *{*
                      07098 ;; ***  genCall  2110
                      07099 ;;      708 register type nRegs=2
                      07100 ;;      708 register type nRegs=3
                      07101 ;;      708 register type nRegs=2
                      07102 ;;      2158 left AOP_REG
                      07103 ;;; ../../../../src/pic14/gen.c:1357:mov2w_op *{*
                      07104 ;; ***  mov2w  1395  offset=0
                      07105 ;; >>> ../../../../src/pic14/gen.c:1400:mov2w
                      07106 ;;      1126 rIdx = r0x1053 
                      07107 ;;100   MOVF    r0x1042,W
0010   08??           07108         MOVF    r0x1041,W
                      07109 ;;      2158 left AOP_REG
                      07110 ;; >>> ../../../../src/pic14/gen.c:2166:genCall
                      07111 ;; ***  popRegFromIdx,1059  , rIdx=0x7c
0011   00??           07112         MOVWF   STK03
                      07113 ;;; ../../../../src/pic14/gen.c:1357:mov2w_op *{*
                      07114 ;; ***  mov2w  1395  offset=1
                      07115 ;; >>> ../../../../src/pic14/gen.c:1400:mov2w
                      07116 ;;      1126 rIdx = r0x1054 
0012   3000           07117         MOVLW   0x00
                      07118 ;;      708 register type nRegs=3
                      07119 ;;      2158 left AOP_REG
                      07120 ;; >>> ../../../../src/pic14/gen.c:2166:genCall
                      07121 ;; ***  popRegFromIdx,1059  , rIdx=0x7d
0013   00??           07122         MOVWF   STK02
                      07123 ;;; ../../../../src/pic14/gen.c:1357:mov2w_op *{*
                      07124 ;; ***  mov2w  1395  offset=0
                      07125 ;; >>> ../../../../src/pic14/gen.c:1400:mov2w
                      07126 ;;      1126 rIdx = r0x104F 
0014   08??           07127         MOVF    r0x103F,W
                      07128 ;;      2158 left AOP_REG
                      07129 ;; >>> ../../../../src/pic14/gen.c:2166:genCall
                      07130 ;; ***  popRegFromIdx,1059  , rIdx=0x7e
0015   00??           07131         MOVWF   STK01
                      07132 ;;; ../../../../src/pic14/gen.c:1357:mov2w_op *{*
                      07133 ;; ***  mov2w  1395  offset=1
                      07134 ;; >>> ../../../../src/pic14/gen.c:1400:mov2w
                      07135 ;;      1126 rIdx = r0x1050 
0016   08??           07136         MOVF    r0x103E,W
                      07137 ;;      2158 left AOP_REG
gpasm-1.5.0 #1285 (Jul 12 2020) obj/sdcc-16f8   11/12/23  13:12:30          PAGE 136


LOC    OBJECT CODE    LINE  SOURCE TEXT
  VALUE

                      07138 ;; >>> ../../../../src/pic14/gen.c:2166:genCall
                      07139 ;; ***  popRegFromIdx,1059  , rIdx=0x7f
0017   00??           07140         MOVWF   STK00
                      07141 ;;; ../../../../src/pic14/gen.c:1357:mov2w_op *{*
                      07142 ;; ***  mov2w  1395  offset=2
                      07143 ;; >>> ../../../../src/pic14/gen.c:1400:mov2w
                      07144 ;;      1126 rIdx = r0x1051 
0018   3000           07145         MOVLW   0x00
                      07146 ;; >>> ../../../../src/pic14/gen.c:2207:genCall
0019   0??? 0???      07147         PAGESEL _ser_put
                      07148 ;; >>> ../../../../src/pic14/gen.c:2215:genCall
001B   2???           07149         CALL    _ser_put
                      07150 ;; >>> ../../../../src/pic14/gen.c:2223:genCall
001C   0??? 0???      07151         PAGESEL $
                      07152 ;;; ../../../../src/pic14/gen.c:2358:resultRemat *{*
                      07153 ;;; ../../../../src/pic14/gen.c:2358:resultRemat *{*
                      07154 ;;; ../../../../src/pic14/gen.c:6918:genPointerSet *{*
                      07155 ;; ***  genPointerSet  6919
                      07156 ;;; ../../../../src/pic14/gen.c:6838:genNearPointerSet *{*
                      07157 ;; ***  genNearPointerSet  6839
                      07158 ;;      627
                      07159 ;;      aopForRemat 406
                      07160 ;;      432: rname _buffer, val 16, const = 0
                      07161 ;; ***  genNearPointerSet  6853
                      07162 ;;      837: aopGet AOP_PCODE type PO_IMMEDIATE
                      07163 ;;      _buffer offset 16
                      07164 ;;      line = 6855 result AOP_PCODE=(_buffer+16), size=2, left -=-, size=0, right AOP_LIT=0x00, size=1
                      07165 ;;; ../../../../src/pic14/gen.c:6656:genPackBits *{*
                      07166 ;; ***  genPackBits  6657
                      07167 ;; >>> ../../../../src/pic14/gen.c:6537:emitPtrPut
                      07168 ;;      popGet AOP_PCODE (PO_IMMEDIATE + 0) 1147 _buffer
                      07169         .line   123; "src/measure.c"    BUFFER_CLEAR();
001E   0??? 0???      07170         BANKSEL _buffer
0020   08??           07171         MOVF    (_buffer + 16),W
                      07172 ;; >>> ../../../../src/pic14/gen.c:6541:emitPtrPut
0021   39F0           07173         ANDLW   0xf0
                      07174 ;; >>> ../../../../src/pic14/gen.c:1407:movwf
                      07175 ;;      popGet AOP_PCODE (PO_IMMEDIATE + 0) 1147 _buffer
0022   00??           07176         MOVWF   (_buffer + 16)
0023   390F           07177         ANDLW   0x0f
                      07178 ;; >>> ../../../../src/pic14/gen.c:1407:movwf
                      07179 ;;      popGet AOP_PCODE (PO_IMMEDIATE + 0) 1147 _buffer
0024   00??           07180         MOVWF   (_buffer + 16)
                      07181 ;; ***  genNearPointerSet  6872
                      07182 ;;; ../../../../src/pic14/gen.c:2358:resultRemat *{*
                      07183 ;;; ../../../../src/pic14/gen.c:2802:genLabel *{*
                      07184 ;; ***  genLabel  2805
                      07185 ;;; ../../../../src/pic14/gen.c:2358:resultRemat *{*
                      07186 ;;; ../../../../src/pic14/gen.c:2570:genEndFunction *{*
                      07187 ;; ***  genEndFunction  2572
                      07188         .line   124; "src/measure.c"    }
0025   0008           07189         RETURN  
                      07190 ; exit point of _buf_to_ser
gpasm-1.5.0 #1285 (Jul 12 2020) obj/sdcc-16f8   11/12/23  13:12:30          PAGE 137


LOC    OBJECT CODE    LINE  SOURCE TEXT
  VALUE

                      07191 ;;; ../../../../src/pic14/gen.c:7677:genpic14Code *{*
                      07192 
                      07193 ;***
                      07194 ;  pBlock Stats: dbName = C
                      07195 ;***
                      07196 ;has an exit
                      07197 ;functions called:
                      07198 ;   _delay_ms
                      07199 ;   _delay_ms
                      07200 ;   _delay_ms
                      07201 ;   _delay_ms
                      07202 ;   _delay_ms
                      07203 ;   _delay_ms
                      07204 ;   _delay_ms
                      07205 ;   _delay_ms
                      07206 ;   _delay_ms
                      07207 ;   _delay_ms
                      07208 ;   _delay_ms
                      07209 ;   _timer0_read_ps
                      07210 ;   _lcd_gotoxy
                      07211 ;   _buffer_init
                      07212 ;   _buffer_puts
                      07213 ;   _format_number
                      07214 ;   _print_buffer
                      07215 ;   _delay_ms
                      07216 ;   _delay_ms
                      07217 ;   _delay_ms
                      07218 ;   _delay_ms
                      07219 ;   _delay_ms
                      07220 ;   _delay_ms
                      07221 ;   _delay_ms
                      07222 ;   _delay_ms
                      07223 ;   _delay_ms
                      07224 ;   _delay_ms
                      07225 ;   _delay_ms
                      07226 ;   _timer0_read_ps
                      07227 ;   _lcd_gotoxy
                      07228 ;   _buffer_init
                      07229 ;   _buffer_puts
                      07230 ;   _format_number
                      07231 ;   _print_buffer
                      07232 ;10 compiler assigned registers:
                      07233 ;   STK00
                      07234 ;   r0x1025
                      07235 ;   r0x1026
                      07236 ;   r0x1027
                      07237 ;   r0x1028
                      07238 ;   r0x1029
                      07239 ;   STK01
                      07240 ;   STK04
                      07241 ;   STK03
                      07242 ;   STK02
                      07243 ;; Starting pCode block
gpasm-1.5.0 #1285 (Jul 12 2020) obj/sdcc-16f8   11/12/23  13:12:30          PAGE 138


LOC    OBJECT CODE    LINE  SOURCE TEXT
  VALUE

                      07244 ;;; ../../../../src/pic14/gen.c:2358:resultRemat *{*
                      07245 ;;; ../../../../src/pic14/gen.c:2802:genLabel *{*
                      07246 ;; ***  genLabel  2805
                      07247 ;;; ../../../../src/pic14/gen.c:2358:resultRemat *{*
                      07248 ;;; ../../../../src/pic14/gen.c:2382:genFunction *{*
                      07249 ;; ***  genFunction  2384 curr label offset=4previous max_key=2 
                      07250 S_measure__measure_freq code
0000                  07251 _measure_freq:
                      07252 ; 2 exit points
                      07253 ;;; ../../../../src/pic14/gen.c:2358:resultRemat *{*
                      07254 ;;; ../../../../src/pic14/gen.c:2358:resultRemat *{*
                      07255 ;;; ../../../../src/pic14/gen.c:6918:genPointerSet *{*
                      07256 ;; ***  genPointerSet  6919
                      07257 ;;; ../../../../src/pic14/gen.c:6838:genNearPointerSet *{*
                      07258 ;; ***  genNearPointerSet  6839
                      07259 ;;      627
                      07260 ;;      aopForRemat 406
                      07261 ;;      432: rname _INTCONbits, val 0, const = 0
                      07262 ;; ***  genNearPointerSet  6853
                      07263 ;;      837: aopGet AOP_PCODE type PO_IMMEDIATE
                      07264 ;;      _INTCONbits
                      07265 ;;      line = 6855 result AOP_PCODE=_INTCONbits, size=2, left -=-, size=0, right AOP_LIT=0x00, size=1
                      07266 ;;; ../../../../src/pic14/gen.c:6656:genPackBits *{*
                      07267 ;; ***  genPackBits  6657
                      07268 ;;      837: aopGet AOP_PCODE type PO_IMMEDIATE
                      07269 ;;      _INTCONbits
                      07270 ;; >>> ../../../../src/pic14/gen.c:6679:genPackBits
                      07271         .line   76; "src/measure.c"     TMR0IF = 0;
0000   0??? 0???      07272         BANKSEL _INTCONbits
0002   11??           07273         BCF     _INTCONbits,2
                      07274 ;; ***  genNearPointerSet  6872
                      07275 ;;; ../../../../src/pic14/gen.c:2358:resultRemat *{*
                      07276 ;;; ../../../../src/pic14/gen.c:4023:genAnd *{*
                      07277 ;; ***  genAnd  4024
                      07278 ;; ***  aopForSym 324
                      07279 ;;      336 sym->rname = _TRISA, size = 1
                      07280 ;;      589
                      07281 ;;      line = 4059 result AOP_DIR=_TRISA, size=1, left AOP_DIR=_TRISA, size=1, right AOP_LIT=0xef, size
                            =1
                      07282 ;; >>> ../../../../src/pic14/gen.c:4226:genAnd
                      07283         .line   80; "src/measure.c"     TRISA &= ~0b00010000;
0003   0??? 0???      07284         BANKSEL _TRISA
0005   12??           07285         BCF     _TRISA,4
                      07286 ;;; ../../../../src/pic14/gen.c:2358:resultRemat *{*
                      07287 ;;; ../../../../src/pic14/gen.c:2358:resultRemat *{*
                      07288 ;;; ../../../../src/pic14/gen.c:2108:genCall *{*
                      07289 ;; ***  genCall  2110
                      07290 ;;      2158 left AOP_LIT
                      07291 ;;; ../../../../src/pic14/gen.c:1357:mov2w_op *{*
                      07292 ;; >>> ../../../../src/pic14/gen.c:1375:mov2w_op
                      07293         .line   82; "src/measure.c"     delay_ms(20); // stablize oscillator
0006   3014           07294         MOVLW   0x14
                      07295 ;;      2158 left AOP_LIT
gpasm-1.5.0 #1285 (Jul 12 2020) obj/sdcc-16f8   11/12/23  13:12:30          PAGE 139


LOC    OBJECT CODE    LINE  SOURCE TEXT
  VALUE

                      07296 ;; >>> ../../../../src/pic14/gen.c:2166:genCall
                      07297 ;; ***  popRegFromIdx,1059  , rIdx=0x7f
0007   00??           07298         MOVWF   STK00
                      07299 ;;; ../../../../src/pic14/gen.c:1357:mov2w_op *{*
                      07300 ;; >>> ../../../../src/pic14/gen.c:1375:mov2w_op
0008   3000           07301         MOVLW   0x00
                      07302 ;; >>> ../../../../src/pic14/gen.c:2207:genCall
0009   0??? 0???      07303         PAGESEL _delay_ms
                      07304 ;; >>> ../../../../src/pic14/gen.c:2215:genCall
000B   2???           07305         CALL    _delay_ms
                      07306 ;; >>> ../../../../src/pic14/gen.c:2223:genCall
000C   0??? 0???      07307         PAGESEL $
                      07308 ;;; ../../../../src/pic14/gen.c:2358:resultRemat *{*
                      07309 ;;; ../../../../src/pic14/gen.c:7159:genAssign *{*
                      07310 ;; ***  genAssign  7160
                      07311 ;; ***  aopForSym 324
                      07312 ;;      336 sym->rname = _TMR0, size = 1
                      07313 ;;      line = 7169 result AOP_DIR=_TMR0, size=1, left -=-, size=0, right AOP_LIT=0x00, size=1
                      07314 ;; ***  genAssign  7253
                      07315 ;; >>> ../../../../src/pic14/gen.c:7265:genAssign
                      07316 ;;      1027
                      07317 ;;      1045  _TMR0   offset=0
                      07318         .line   85; "src/measure.c"     TMR0 = 0x00;
000E   0??? 0???      07319         BANKSEL _TMR0
0010   01??           07320         CLRF    _TMR0
                      07321 ;;; ../../../../src/pic14/gen.c:2358:resultRemat *{*
                      07322 ;;; ../../../../src/pic14/gen.c:2358:resultRemat *{*
                      07323 ;;; ../../../../src/pic14/gen.c:2108:genCall *{*
                      07324 ;; ***  genCall  2110
                      07325 ;;      2158 left AOP_LIT
                      07326 ;;; ../../../../src/pic14/gen.c:1357:mov2w_op *{*
                      07327 ;; >>> ../../../../src/pic14/gen.c:1375:mov2w_op
                      07328         .line   90; "src/measure.c"     delay_ms(10);
0011   300A           07329         MOVLW   0x0a
                      07330 ;;      2158 left AOP_LIT
                      07331 ;; >>> ../../../../src/pic14/gen.c:2166:genCall
                      07332 ;; ***  popRegFromIdx,1059  , rIdx=0x7f
0012   00??           07333         MOVWF   STK00
                      07334 ;;; ../../../../src/pic14/gen.c:1357:mov2w_op *{*
                      07335 ;; >>> ../../../../src/pic14/gen.c:1375:mov2w_op
0013   3000           07336         MOVLW   0x00
                      07337 ;; >>> ../../../../src/pic14/gen.c:2207:genCall
0014   0??? 0???      07338         PAGESEL _delay_ms
                      07339 ;; >>> ../../../../src/pic14/gen.c:2215:genCall
0016   2???           07340         CALL    _delay_ms
                      07341 ;; >>> ../../../../src/pic14/gen.c:2223:genCall
0017   0??? 0???      07342         PAGESEL $
                      07343 ;;; ../../../../src/pic14/gen.c:2358:resultRemat *{*
                      07344 ;;; ../../../../src/pic14/gen.c:2358:resultRemat *{*
                      07345 ;;; ../../../../src/pic14/gen.c:2108:genCall *{*
                      07346 ;; ***  genCall  2110
                      07347 ;;      2158 left AOP_LIT
                      07348 ;;; ../../../../src/pic14/gen.c:1357:mov2w_op *{*
gpasm-1.5.0 #1285 (Jul 12 2020) obj/sdcc-16f8   11/12/23  13:12:30          PAGE 140


LOC    OBJECT CODE    LINE  SOURCE TEXT
  VALUE

                      07349 ;; >>> ../../../../src/pic14/gen.c:1375:mov2w_op
                      07350         .line   91; "src/measure.c"     delay_ms(10);
0019   300A           07351         MOVLW   0x0a
                      07352 ;;      2158 left AOP_LIT
                      07353 ;; >>> ../../../../src/pic14/gen.c:2166:genCall
                      07354 ;; ***  popRegFromIdx,1059  , rIdx=0x7f
001A   00??           07355         MOVWF   STK00
                      07356 ;;; ../../../../src/pic14/gen.c:1357:mov2w_op *{*
                      07357 ;; >>> ../../../../src/pic14/gen.c:1375:mov2w_op
001B   3000           07358         MOVLW   0x00
                      07359 ;; >>> ../../../../src/pic14/gen.c:2207:genCall
001C   0??? 0???      07360         PAGESEL _delay_ms
                      07361 ;; >>> ../../../../src/pic14/gen.c:2215:genCall
001E   2???           07362         CALL    _delay_ms
                      07363 ;; >>> ../../../../src/pic14/gen.c:2223:genCall
001F   0??? 0???      07364         PAGESEL $
                      07365 ;;; ../../../../src/pic14/gen.c:2358:resultRemat *{*
                      07366 ;;; ../../../../src/pic14/gen.c:2358:resultRemat *{*
                      07367 ;;; ../../../../src/pic14/gen.c:2108:genCall *{*
                      07368 ;; ***  genCall  2110
                      07369 ;;      2158 left AOP_LIT
                      07370 ;;; ../../../../src/pic14/gen.c:1357:mov2w_op *{*
                      07371 ;; >>> ../../../../src/pic14/gen.c:1375:mov2w_op
                      07372         .line   92; "src/measure.c"     delay_ms(10);
0021   300A           07373         MOVLW   0x0a
                      07374 ;;      2158 left AOP_LIT
                      07375 ;; >>> ../../../../src/pic14/gen.c:2166:genCall
                      07376 ;; ***  popRegFromIdx,1059  , rIdx=0x7f
0022   00??           07377         MOVWF   STK00
                      07378 ;;; ../../../../src/pic14/gen.c:1357:mov2w_op *{*
                      07379 ;; >>> ../../../../src/pic14/gen.c:1375:mov2w_op
0023   3000           07380         MOVLW   0x00
                      07381 ;; >>> ../../../../src/pic14/gen.c:2207:genCall
0024   0??? 0???      07382         PAGESEL _delay_ms
                      07383 ;; >>> ../../../../src/pic14/gen.c:2215:genCall
0026   2???           07384         CALL    _delay_ms
                      07385 ;; >>> ../../../../src/pic14/gen.c:2223:genCall
0027   0??? 0???      07386         PAGESEL $
                      07387 ;;; ../../../../src/pic14/gen.c:2358:resultRemat *{*
                      07388 ;;; ../../../../src/pic14/gen.c:2358:resultRemat *{*
                      07389 ;;; ../../../../src/pic14/gen.c:2108:genCall *{*
                      07390 ;; ***  genCall  2110
                      07391 ;;      2158 left AOP_LIT
                      07392 ;;; ../../../../src/pic14/gen.c:1357:mov2w_op *{*
                      07393 ;; >>> ../../../../src/pic14/gen.c:1375:mov2w_op
                      07394         .line   93; "src/measure.c"     delay_ms(10);
0029   300A           07395         MOVLW   0x0a
                      07396 ;;      2158 left AOP_LIT
                      07397 ;; >>> ../../../../src/pic14/gen.c:2166:genCall
                      07398 ;; ***  popRegFromIdx,1059  , rIdx=0x7f
002A   00??           07399         MOVWF   STK00
                      07400 ;;; ../../../../src/pic14/gen.c:1357:mov2w_op *{*
                      07401 ;; >>> ../../../../src/pic14/gen.c:1375:mov2w_op
gpasm-1.5.0 #1285 (Jul 12 2020) obj/sdcc-16f8   11/12/23  13:12:30          PAGE 141


LOC    OBJECT CODE    LINE  SOURCE TEXT
  VALUE

002B   3000           07402         MOVLW   0x00
                      07403 ;; >>> ../../../../src/pic14/gen.c:2207:genCall
002C   0??? 0???      07404         PAGESEL _delay_ms
                      07405 ;; >>> ../../../../src/pic14/gen.c:2215:genCall
002E   2???           07406         CALL    _delay_ms
                      07407 ;; >>> ../../../../src/pic14/gen.c:2223:genCall
002F   0??? 0???      07408         PAGESEL $
                      07409 ;;; ../../../../src/pic14/gen.c:2358:resultRemat *{*
                      07410 ;;; ../../../../src/pic14/gen.c:2358:resultRemat *{*
                      07411 ;;; ../../../../src/pic14/gen.c:2108:genCall *{*
                      07412 ;; ***  genCall  2110
                      07413 ;;      2158 left AOP_LIT
                      07414 ;;; ../../../../src/pic14/gen.c:1357:mov2w_op *{*
                      07415 ;; >>> ../../../../src/pic14/gen.c:1375:mov2w_op
                      07416         .line   94; "src/measure.c"     delay_ms(10);
0031   300A           07417         MOVLW   0x0a
                      07418 ;;      2158 left AOP_LIT
                      07419 ;; >>> ../../../../src/pic14/gen.c:2166:genCall
                      07420 ;; ***  popRegFromIdx,1059  , rIdx=0x7f
0032   00??           07421         MOVWF   STK00
                      07422 ;;; ../../../../src/pic14/gen.c:1357:mov2w_op *{*
                      07423 ;; >>> ../../../../src/pic14/gen.c:1375:mov2w_op
0033   3000           07424         MOVLW   0x00
                      07425 ;; >>> ../../../../src/pic14/gen.c:2207:genCall
0034   0??? 0???      07426         PAGESEL _delay_ms
                      07427 ;; >>> ../../../../src/pic14/gen.c:2215:genCall
0036   2???           07428         CALL    _delay_ms
                      07429 ;; >>> ../../../../src/pic14/gen.c:2223:genCall
0037   0??? 0???      07430         PAGESEL $
                      07431 ;;; ../../../../src/pic14/gen.c:2358:resultRemat *{*
                      07432 ;;; ../../../../src/pic14/gen.c:2358:resultRemat *{*
                      07433 ;;; ../../../../src/pic14/gen.c:2108:genCall *{*
                      07434 ;; ***  genCall  2110
                      07435 ;;      2158 left AOP_LIT
                      07436 ;;; ../../../../src/pic14/gen.c:1357:mov2w_op *{*
                      07437 ;; >>> ../../../../src/pic14/gen.c:1375:mov2w_op
                      07438         .line   95; "src/measure.c"     delay_ms(10);
0039   300A           07439         MOVLW   0x0a
                      07440 ;;      2158 left AOP_LIT
                      07441 ;; >>> ../../../../src/pic14/gen.c:2166:genCall
                      07442 ;; ***  popRegFromIdx,1059  , rIdx=0x7f
003A   00??           07443         MOVWF   STK00
                      07444 ;;; ../../../../src/pic14/gen.c:1357:mov2w_op *{*
                      07445 ;; >>> ../../../../src/pic14/gen.c:1375:mov2w_op
003B   3000           07446         MOVLW   0x00
                      07447 ;; >>> ../../../../src/pic14/gen.c:2207:genCall
003C   0??? 0???      07448         PAGESEL _delay_ms
                      07449 ;; >>> ../../../../src/pic14/gen.c:2215:genCall
003E   2???           07450         CALL    _delay_ms
                      07451 ;; >>> ../../../../src/pic14/gen.c:2223:genCall
003F   0??? 0???      07452         PAGESEL $
                      07453 ;;; ../../../../src/pic14/gen.c:2358:resultRemat *{*
                      07454 ;;; ../../../../src/pic14/gen.c:2358:resultRemat *{*
gpasm-1.5.0 #1285 (Jul 12 2020) obj/sdcc-16f8   11/12/23  13:12:30          PAGE 142


LOC    OBJECT CODE    LINE  SOURCE TEXT
  VALUE

                      07455 ;;; ../../../../src/pic14/gen.c:2108:genCall *{*
                      07456 ;; ***  genCall  2110
                      07457 ;;      2158 left AOP_LIT
                      07458 ;;; ../../../../src/pic14/gen.c:1357:mov2w_op *{*
                      07459 ;; >>> ../../../../src/pic14/gen.c:1375:mov2w_op
                      07460         .line   96; "src/measure.c"     delay_ms(10);
0041   300A           07461         MOVLW   0x0a
                      07462 ;;      2158 left AOP_LIT
                      07463 ;; >>> ../../../../src/pic14/gen.c:2166:genCall
                      07464 ;; ***  popRegFromIdx,1059  , rIdx=0x7f
0042   00??           07465         MOVWF   STK00
                      07466 ;;; ../../../../src/pic14/gen.c:1357:mov2w_op *{*
                      07467 ;; >>> ../../../../src/pic14/gen.c:1375:mov2w_op
0043   3000           07468         MOVLW   0x00
                      07469 ;; >>> ../../../../src/pic14/gen.c:2207:genCall
0044   0??? 0???      07470         PAGESEL _delay_ms
                      07471 ;; >>> ../../../../src/pic14/gen.c:2215:genCall
0046   2???           07472         CALL    _delay_ms
                      07473 ;; >>> ../../../../src/pic14/gen.c:2223:genCall
0047   0??? 0???      07474         PAGESEL $
                      07475 ;;; ../../../../src/pic14/gen.c:2358:resultRemat *{*
                      07476 ;;; ../../../../src/pic14/gen.c:2358:resultRemat *{*
                      07477 ;;; ../../../../src/pic14/gen.c:2108:genCall *{*
                      07478 ;; ***  genCall  2110
                      07479 ;;      2158 left AOP_LIT
                      07480 ;;; ../../../../src/pic14/gen.c:1357:mov2w_op *{*
                      07481 ;; >>> ../../../../src/pic14/gen.c:1375:mov2w_op
                      07482         .line   97; "src/measure.c"     delay_ms(10);
0049   300A           07483         MOVLW   0x0a
                      07484 ;;      2158 left AOP_LIT
                      07485 ;; >>> ../../../../src/pic14/gen.c:2166:genCall
                      07486 ;; ***  popRegFromIdx,1059  , rIdx=0x7f
004A   00??           07487         MOVWF   STK00
                      07488 ;;; ../../../../src/pic14/gen.c:1357:mov2w_op *{*
                      07489 ;; >>> ../../../../src/pic14/gen.c:1375:mov2w_op
004B   3000           07490         MOVLW   0x00
                      07491 ;; >>> ../../../../src/pic14/gen.c:2207:genCall
004C   0??? 0???      07492         PAGESEL _delay_ms
                      07493 ;; >>> ../../../../src/pic14/gen.c:2215:genCall
004E   2???           07494         CALL    _delay_ms
                      07495 ;; >>> ../../../../src/pic14/gen.c:2223:genCall
004F   0??? 0???      07496         PAGESEL $
                      07497 ;;; ../../../../src/pic14/gen.c:2358:resultRemat *{*
                      07498 ;;; ../../../../src/pic14/gen.c:2358:resultRemat *{*
                      07499 ;;; ../../../../src/pic14/gen.c:2108:genCall *{*
                      07500 ;; ***  genCall  2110
                      07501 ;;      2158 left AOP_LIT
                      07502 ;;; ../../../../src/pic14/gen.c:1357:mov2w_op *{*
                      07503 ;; >>> ../../../../src/pic14/gen.c:1375:mov2w_op
                      07504         .line   98; "src/measure.c"     delay_ms(10);
0051   300A           07505         MOVLW   0x0a
                      07506 ;;      2158 left AOP_LIT
                      07507 ;; >>> ../../../../src/pic14/gen.c:2166:genCall
gpasm-1.5.0 #1285 (Jul 12 2020) obj/sdcc-16f8   11/12/23  13:12:30          PAGE 143


LOC    OBJECT CODE    LINE  SOURCE TEXT
  VALUE

                      07508 ;; ***  popRegFromIdx,1059  , rIdx=0x7f
0052   00??           07509         MOVWF   STK00
                      07510 ;;; ../../../../src/pic14/gen.c:1357:mov2w_op *{*
                      07511 ;; >>> ../../../../src/pic14/gen.c:1375:mov2w_op
0053   3000           07512         MOVLW   0x00
                      07513 ;; >>> ../../../../src/pic14/gen.c:2207:genCall
0054   0??? 0???      07514         PAGESEL _delay_ms
                      07515 ;; >>> ../../../../src/pic14/gen.c:2215:genCall
0056   2???           07516         CALL    _delay_ms
                      07517 ;; >>> ../../../../src/pic14/gen.c:2223:genCall
0057   0??? 0???      07518         PAGESEL $
                      07519 ;;; ../../../../src/pic14/gen.c:2358:resultRemat *{*
                      07520 ;;; ../../../../src/pic14/gen.c:2358:resultRemat *{*
                      07521 ;;; ../../../../src/pic14/gen.c:2108:genCall *{*
                      07522 ;; ***  genCall  2110
                      07523 ;;      2158 left AOP_LIT
                      07524 ;;; ../../../../src/pic14/gen.c:1357:mov2w_op *{*
                      07525 ;; >>> ../../../../src/pic14/gen.c:1375:mov2w_op
                      07526         .line   99; "src/measure.c"     delay_ms(10);
0059   300A           07527         MOVLW   0x0a
                      07528 ;;      2158 left AOP_LIT
                      07529 ;; >>> ../../../../src/pic14/gen.c:2166:genCall
                      07530 ;; ***  popRegFromIdx,1059  , rIdx=0x7f
005A   00??           07531         MOVWF   STK00
                      07532 ;;; ../../../../src/pic14/gen.c:1357:mov2w_op *{*
                      07533 ;; >>> ../../../../src/pic14/gen.c:1375:mov2w_op
005B   3000           07534         MOVLW   0x00
                      07535 ;; >>> ../../../../src/pic14/gen.c:2207:genCall
005C   0??? 0???      07536         PAGESEL _delay_ms
                      07537 ;; >>> ../../../../src/pic14/gen.c:2215:genCall
005E   2???           07538         CALL    _delay_ms
                      07539 ;; >>> ../../../../src/pic14/gen.c:2223:genCall
005F   0??? 0???      07540         PAGESEL $
                      07541 ;;; ../../../../src/pic14/gen.c:2358:resultRemat *{*
                      07542 ;;; ../../../../src/pic14/gen.c:4324:genOr *{*
                      07543 ;; ***  genOr  4325
                      07544 ;; ***  aopForSym 324
                      07545 ;;      336 sym->rname = _TRISA, size = 1
                      07546 ;;      589
                      07547 ;;      line = 4331 result AOP_DIR=_TRISA, size=1, left AOP_DIR=_TRISA, size=1, right AOP_LIT=0x10, size
                            =1
                      07548 ;;      line = 4357 result AOP_DIR=_TRISA, size=1, left AOP_DIR=_TRISA, size=1, right AOP_LIT=0x10, size
                            =1
                      07549 ;; >>> ../../../../src/pic14/gen.c:4508:genOr
                      07550         .line   104; "src/measure.c"    TRISA |= 0b00010000;
0061   0??? 0???      07551         BANKSEL _TRISA
0063   16??           07552         BSF     _TRISA,4
                      07553 ;;; ../../../../src/pic14/gen.c:2358:resultRemat *{*
                      07554 ;;; ../../../../src/pic14/gen.c:2108:genCall *{*
                      07555 ;; ***  genCall  2110
                      07556 ;; >>> ../../../../src/pic14/gen.c:2207:genCall
                      07557         .line   107; "src/measure.c"    count = timer0_read_ps();
0064   0??? 0???      07558         PAGESEL _timer0_read_ps
gpasm-1.5.0 #1285 (Jul 12 2020) obj/sdcc-16f8   11/12/23  13:12:30          PAGE 144


LOC    OBJECT CODE    LINE  SOURCE TEXT
  VALUE

                      07559 ;; >>> ../../../../src/pic14/gen.c:2215:genCall
0066   2???           07560         CALL    _timer0_read_ps
                      07561 ;; >>> ../../../../src/pic14/gen.c:2223:genCall
0067   0??? 0???      07562         PAGESEL $
                      07563 ;;      708 register type nRegs=2
                      07564 ;;; ../../../../src/pic14/gen.c:1929:assignResultValue *{*
                      07565 ;; ***  assignResultValue  1931
                      07566 ;;      line = 1933 result -=-, size=0, left AOP_REG=r0x104A, size=2, right -=-, size=0
                      07567 ;; >>> ../../../../src/pic14/gen.c:1407:movwf
                      07568 ;;      1126 rIdx = r0x104B 
0069   0??? 0???      07569         BANKSEL r0x1025
006B   00??           07570         MOVWF   r0x1025
                      07571 ;; >>> ../../../../src/pic14/gen.c:1437:get_returnvalue
                      07572 ;; ***  popRegFromIdx,1059  , rIdx=0x7f
006C   08??           07573         MOVF    STK00,W
                      07574 ;; >>> ../../../../src/pic14/gen.c:1407:movwf
                      07575 ;;      1126 rIdx = r0x104A 
006D   00??           07576         MOVWF   r0x1026
                      07577 ;;      2238 left AOP_REG
                      07578 ;;; ../../../../src/pic14/gen.c:2358:resultRemat *{*
                      07579 ;;; ../../../../src/pic14/gen.c:2358:resultRemat *{*
                      07580 ;;; ../../../../src/pic14/gen.c:2358:resultRemat *{*
                      07581 ;;; ../../../../src/pic14/gen.c:2108:genCall *{*
                      07582 ;; ***  genCall  2110
                      07583 ;;      2158 left AOP_LIT
                      07584 ;;; ../../../../src/pic14/gen.c:1357:mov2w_op *{*
                      07585 ;; >>> ../../../../src/pic14/gen.c:1375:mov2w_op
                      07586         .line   110; "src/measure.c"    lcd_gotoxy(0, 1);
006E   3001           07587         MOVLW   0x01
                      07588 ;;      2158 left AOP_LIT
                      07589 ;; >>> ../../../../src/pic14/gen.c:2166:genCall
                      07590 ;; ***  popRegFromIdx,1059  , rIdx=0x7f
006F   00??           07591         MOVWF   STK00
                      07592 ;;; ../../../../src/pic14/gen.c:1357:mov2w_op *{*
                      07593 ;; >>> ../../../../src/pic14/gen.c:1375:mov2w_op
0070   3000           07594         MOVLW   0x00
                      07595 ;; >>> ../../../../src/pic14/gen.c:2207:genCall
0071   0??? 0???      07596         PAGESEL _lcd_gotoxy
                      07597 ;; >>> ../../../../src/pic14/gen.c:2215:genCall
0073   2???           07598         CALL    _lcd_gotoxy
                      07599 ;; >>> ../../../../src/pic14/gen.c:2223:genCall
0074   0??? 0???      07600         PAGESEL $
                      07601 ;;; ../../../../src/pic14/gen.c:2358:resultRemat *{*
                      07602 ;;; ../../../../src/pic14/gen.c:2108:genCall *{*
                      07603 ;; ***  genCall  2110
                      07604 ;; >>> ../../../../src/pic14/gen.c:2207:genCall
                      07605         .line   112; "src/measure.c"    buffer_init();
0076   0??? 0???      07606         PAGESEL _buffer_init
                      07607 ;; >>> ../../../../src/pic14/gen.c:2215:genCall
0078   2???           07608         CALL    _buffer_init
                      07609 ;; >>> ../../../../src/pic14/gen.c:2223:genCall
0079   0??? 0???      07610         PAGESEL $
                      07611 ;;; ../../../../src/pic14/gen.c:2358:resultRemat *{*
gpasm-1.5.0 #1285 (Jul 12 2020) obj/sdcc-16f8   11/12/23  13:12:30          PAGE 145


LOC    OBJECT CODE    LINE  SOURCE TEXT
  VALUE

                      07612 ;;; ../../../../src/pic14/gen.c:2358:resultRemat *{*
                      07613 ;;; ../../../../src/pic14/gen.c:7353:genCast *{*
                      07614 ;; ***  genCast  7354
                      07615 ;;      627
                      07616 ;;      aopForRemat 406
                      07617 ;;      432: rname ___str_3, val 0, const = 0
                      07618 ;;      708 register type nRegs=3
                      07619 ;;      837: aopGet AOP_PCODE type PO_IMMEDIATE
                      07620 ;;      ___str_3
                      07621 ;;      line = 7362 result AOP_REG=r0x104C, size=3, left -=-, size=0, right AOP_PCODE=___str_3, size=2
                      07622 ;; ***  genCast  7408 (size=2)
                      07623 ;;; ../../../../src/pic14/gen.c:1357:mov2w_op *{*
                      07624 ;; >>> ../../../../src/pic14/gen.c:1375:mov2w_op
                      07625         .line   113; "src/measure.c"    buffer_puts("Freq=");
007B   30??           07626         MOVLW   high (___str_3 + 0)
                      07627 ;; >>> ../../../../src/pic14/gen.c:1407:movwf
                      07628 ;;      1126 rIdx = r0x104D 
007C   0??? 0???      07629         BANKSEL r0x1027
007E   00??           07630         MOVWF   r0x1027
                      07631 ;;; ../../../../src/pic14/gen.c:1357:mov2w_op *{*
                      07632 ;; >>> ../../../../src/pic14/gen.c:1375:mov2w_op
007F   30??           07633         MOVLW   (___str_3 + 0)
                      07634 ;; >>> ../../../../src/pic14/gen.c:1407:movwf
                      07635 ;;      1126 rIdx = r0x104C 
0080   00??           07636         MOVWF   r0x1028
                      07637 ;; ***  genCast  7465 (tag=128)
                      07638 ;; >>> ../../../../src/pic14/gen.c:7488:genCast
0081   3080           07639         MOVLW   0x80
                      07640 ;; >>> ../../../../src/pic14/gen.c:1407:movwf
                      07641 ;;      1126 rIdx = r0x104E 
0082   00??           07642         MOVWF   r0x1029
                      07643 ;; ***  addSign  1087
                      07644 ;;; ../../../../src/pic14/genarith.c:1088:addSign *{*
                      07645 ;;; ../../../../src/pic14/gen.c:2358:resultRemat *{*
                      07646 ;;; ../../../../src/pic14/gen.c:2358:resultRemat *{*
                      07647 ;;; ../../../../src/pic14/gen.c:2108:genCall *{*
                      07648 ;; ***  genCall  2110
                      07649 ;;      708 register type nRegs=3
                      07650 ;;      708 register type nRegs=3
                      07651 ;;      2158 left AOP_REG
                      07652 ;;; ../../../../src/pic14/gen.c:1357:mov2w_op *{*
                      07653 ;; ***  mov2w  1395  offset=0
                      07654 ;; >>> ../../../../src/pic14/gen.c:1400:mov2w
                      07655 ;;      1126 rIdx = r0x104C 
0083   08??           07656         MOVF    r0x1028,W
                      07657 ;;      2158 left AOP_REG
                      07658 ;; >>> ../../../../src/pic14/gen.c:2166:genCall
                      07659 ;; ***  popRegFromIdx,1059  , rIdx=0x7e
0084   00??           07660         MOVWF   STK01
                      07661 ;;; ../../../../src/pic14/gen.c:1357:mov2w_op *{*
                      07662 ;; ***  mov2w  1395  offset=1
                      07663 ;; >>> ../../../../src/pic14/gen.c:1400:mov2w
                      07664 ;;      1126 rIdx = r0x104D 
gpasm-1.5.0 #1285 (Jul 12 2020) obj/sdcc-16f8   11/12/23  13:12:30          PAGE 146


LOC    OBJECT CODE    LINE  SOURCE TEXT
  VALUE

0085   08??           07665         MOVF    r0x1027,W
                      07666 ;;      2158 left AOP_REG
                      07667 ;; >>> ../../../../src/pic14/gen.c:2166:genCall
                      07668 ;; ***  popRegFromIdx,1059  , rIdx=0x7f
0086   00??           07669         MOVWF   STK00
                      07670 ;;; ../../../../src/pic14/gen.c:1357:mov2w_op *{*
                      07671 ;; ***  mov2w  1395  offset=2
                      07672 ;; >>> ../../../../src/pic14/gen.c:1400:mov2w
                      07673 ;;      1126 rIdx = r0x104E 
0087   08??           07674         MOVF    r0x1029,W
                      07675 ;; >>> ../../../../src/pic14/gen.c:2207:genCall
0088   0??? 0???      07676         PAGESEL _buffer_puts
                      07677 ;; >>> ../../../../src/pic14/gen.c:2215:genCall
008A   2???           07678         CALL    _buffer_puts
                      07679 ;; >>> ../../../../src/pic14/gen.c:2223:genCall
008B   0??? 0???      07680         PAGESEL $
                      07681 ;;; ../../../../src/pic14/gen.c:2358:resultRemat *{*
                      07682 ;;; ../../../../src/pic14/gen.c:2358:resultRemat *{*
                      07683 ;;; ../../../../src/pic14/gen.c:2358:resultRemat *{*
                      07684 ;;; ../../../../src/pic14/gen.c:2358:resultRemat *{*
                      07685 ;;; ../../../../src/pic14/gen.c:2358:resultRemat *{*
                      07686 ;;; ../../../../src/pic14/gen.c:2108:genCall *{*
                      07687 ;; ***  genCall  2110
                      07688 ;;      708 register type nRegs=2
                      07689 ;; ***  aopForSym 324
                      07690 ;;      353 size = 2, name =_buffer_putch
                      07691 ;;      2158 left AOP_LIT
                      07692 ;;; ../../../../src/pic14/gen.c:1357:mov2w_op *{*
                      07693 ;; >>> ../../../../src/pic14/gen.c:1375:mov2w_op
                      07694         .line   114; "src/measure.c"    format_number(&buffer_putch, count, 10, 5);
008D   3005           07695         MOVLW   0x05
                      07696 ;;      2158 left AOP_LIT
                      07697 ;; >>> ../../../../src/pic14/gen.c:2166:genCall
                      07698 ;; ***  popRegFromIdx,1059  , rIdx=0x7b
008E   00??           07699         MOVWF   STK04
                      07700 ;;; ../../../../src/pic14/gen.c:1357:mov2w_op *{*
                      07701 ;; >>> ../../../../src/pic14/gen.c:1375:mov2w_op
008F   300A           07702         MOVLW   0x0a
                      07703 ;;      708 register type nRegs=2
                      07704 ;;      2158 left AOP_REG
                      07705 ;; >>> ../../../../src/pic14/gen.c:2166:genCall
                      07706 ;; ***  popRegFromIdx,1059  , rIdx=0x7c
0090   00??           07707         MOVWF   STK03
                      07708 ;;; ../../../../src/pic14/gen.c:1357:mov2w_op *{*
                      07709 ;; ***  mov2w  1395  offset=0
                      07710 ;; >>> ../../../../src/pic14/gen.c:1400:mov2w
                      07711 ;;      1126 rIdx = r0x104A 
0091   0??? 0???      07712         BANKSEL r0x1026
0093   08??           07713         MOVF    r0x1026,W
                      07714 ;;      2158 left AOP_REG
                      07715 ;; >>> ../../../../src/pic14/gen.c:2166:genCall
                      07716 ;; ***  popRegFromIdx,1059  , rIdx=0x7d
0094   00??           07717         MOVWF   STK02
gpasm-1.5.0 #1285 (Jul 12 2020) obj/sdcc-16f8   11/12/23  13:12:30          PAGE 147


LOC    OBJECT CODE    LINE  SOURCE TEXT
  VALUE

                      07718 ;;; ../../../../src/pic14/gen.c:1357:mov2w_op *{*
                      07719 ;; ***  mov2w  1395  offset=1
                      07720 ;; >>> ../../../../src/pic14/gen.c:1400:mov2w
                      07721 ;;      1126 rIdx = r0x104B 
0095   08??           07722         MOVF    r0x1025,W
                      07723 ;; ***  aopForSym 324
                      07724 ;;      353 size = 2, name =_buffer_putch
                      07725 ;;      2158 left AOP_PCODE
                      07726 ;; >>> ../../../../src/pic14/gen.c:2166:genCall
                      07727 ;; ***  popRegFromIdx,1059  , rIdx=0x7e
0096   00??           07728         MOVWF   STK01
                      07729 ;;; ../../../../src/pic14/gen.c:1357:mov2w_op *{*
                      07730 ;; >>> ../../../../src/pic14/gen.c:1375:mov2w_op
0097   30??           07731         MOVLW   low (_buffer_putch+0)
                      07732 ;;      2158 left AOP_PCODE
                      07733 ;; >>> ../../../../src/pic14/gen.c:2166:genCall
                      07734 ;; ***  popRegFromIdx,1059  , rIdx=0x7f
0098   00??           07735         MOVWF   STK00
                      07736 ;;; ../../../../src/pic14/gen.c:1357:mov2w_op *{*
                      07737 ;; >>> ../../../../src/pic14/gen.c:1375:mov2w_op
0099   30??           07738         MOVLW   high (_buffer_putch+0)
                      07739 ;; >>> ../../../../src/pic14/gen.c:2207:genCall
009A   0??? 0???      07740         PAGESEL _format_number
                      07741 ;; >>> ../../../../src/pic14/gen.c:2215:genCall
009C   2???           07742         CALL    _format_number
                      07743 ;; >>> ../../../../src/pic14/gen.c:2223:genCall
009D   0??? 0???      07744         PAGESEL $
                      07745 ;;; ../../../../src/pic14/gen.c:2358:resultRemat *{*
                      07746 ;;; ../../../../src/pic14/gen.c:2108:genCall *{*
                      07747 ;; ***  genCall  2110
                      07748 ;; >>> ../../../../src/pic14/gen.c:2207:genCall
                      07749         .line   115; "src/measure.c"    print_buffer();
009F   0??? 0???      07750         PAGESEL _print_buffer
                      07751 ;; >>> ../../../../src/pic14/gen.c:2215:genCall
00A1   2???           07752         CALL    _print_buffer
                      07753 ;; >>> ../../../../src/pic14/gen.c:2223:genCall
00A2   0??? 0???      07754         PAGESEL $
                      07755 ;;; ../../../../src/pic14/gen.c:2358:resultRemat *{*
                      07756 ;;; ../../../../src/pic14/gen.c:2725:genRet *{*
                      07757 ;; ***  genRet  2727
                      07758 ;;      708 register type nRegs=2
                      07759 ;;; ../../../../src/pic14/gen.c:1357:mov2w_op *{*
                      07760 ;; ***  mov2w  1395  offset=0
                      07761 ;; >>> ../../../../src/pic14/gen.c:1400:mov2w
                      07762 ;;      1126 rIdx = r0x104A 
                      07763         .line   117; "src/measure.c"    return count;
00A4   0??? 0???      07764         BANKSEL r0x1026
00A6   08??           07765         MOVF    r0x1026,W
                      07766 ;; >>> ../../../../src/pic14/gen.c:1430:pass_argument
                      07767 ;; ***  popRegFromIdx,1059  , rIdx=0x7f
00A7   00??           07768         MOVWF   STK00
                      07769 ;;; ../../../../src/pic14/gen.c:1357:mov2w_op *{*
                      07770 ;; ***  mov2w  1395  offset=1
gpasm-1.5.0 #1285 (Jul 12 2020) obj/sdcc-16f8   11/12/23  13:12:30          PAGE 148


LOC    OBJECT CODE    LINE  SOURCE TEXT
  VALUE

                      07771 ;; >>> ../../../../src/pic14/gen.c:1400:mov2w
                      07772 ;;      1126 rIdx = r0x104B 
00A8   08??           07773         MOVF    r0x1025,W
                      07774 ;;; ../../../../src/pic14/gen.c:2358:resultRemat *{*
                      07775 ;;; ../../../../src/pic14/gen.c:2802:genLabel *{*
                      07776 ;; ***  genLabel  2805
                      07777 ;;; ../../../../src/pic14/gen.c:2358:resultRemat *{*
                      07778 ;;; ../../../../src/pic14/gen.c:2570:genEndFunction *{*
                      07779 ;; ***  genEndFunction  2572
                      07780         .line   118; "src/measure.c"    }
00A9   0008           07781         RETURN  
                      07782 ; exit point of _measure_freq
                      07783 ;;; ../../../../src/pic14/gen.c:7677:genpic14Code *{*
                      07784 
                      07785 ;***
                      07786 ;  pBlock Stats: dbName = C
                      07787 ;***
                      07788 ;has an exit
                      07789 ;functions called:
                      07790 ;   _lcd_clear
                      07791 ;   _lcd_gotoxy
                      07792 ;   _put_str
                      07793 ;   _lcd_gotoxy
                      07794 ;   _ser_puts
                      07795 ;   _put_str
                      07796 ;   _measure_freq
                      07797 ;   ___uint2fs
                      07798 ;   _delay10ms
                      07799 ;   _measure_freq
                      07800 ;   ___uint2fs
                      07801 ;   _measure_freq
                      07802 ;   ___uint2fs
                      07803 ;   _delay10ms
                      07804 ;   _measure_freq
                      07805 ;   ___uint2fs
                      07806 ;   _lcd_gotoxy
                      07807 ;   _lcd_putch
                      07808 ;   _delay10ms
                      07809 ;   _ser_puts
                      07810 ;   _lcd_clear
                      07811 ;   _lcd_gotoxy
                      07812 ;   _put_str
                      07813 ;   _lcd_gotoxy
                      07814 ;   _ser_puts
                      07815 ;   _put_str
                      07816 ;   _measure_freq
                      07817 ;   ___uint2fs
                      07818 ;   _delay10ms
                      07819 ;   _measure_freq
                      07820 ;   ___uint2fs
                      07821 ;   _measure_freq
                      07822 ;   ___uint2fs
                      07823 ;   _delay10ms
gpasm-1.5.0 #1285 (Jul 12 2020) obj/sdcc-16f8   11/12/23  13:12:30          PAGE 149


LOC    OBJECT CODE    LINE  SOURCE TEXT
  VALUE

                      07824 ;   _measure_freq
                      07825 ;   ___uint2fs
                      07826 ;   _lcd_gotoxy
                      07827 ;   _lcd_putch
                      07828 ;   _delay10ms
                      07829 ;   _ser_puts
                      07830 ;6 compiler assigned registers:
                      07831 ;   STK00
                      07832 ;   r0x1044
                      07833 ;   r0x1045
                      07834 ;   r0x1046
                      07835 ;   STK01
                      07836 ;   STK02
                      07837 ;; Starting pCode block
                      07838 ;;; ../../../../src/pic14/gen.c:2358:resultRemat *{*
                      07839 ;;; ../../../../src/pic14/gen.c:2802:genLabel *{*
                      07840 ;; ***  genLabel  2805
                      07841 ;;; ../../../../src/pic14/gen.c:2358:resultRemat *{*
                      07842 ;;; ../../../../src/pic14/gen.c:2382:genFunction *{*
                      07843 ;; ***  genFunction  2384 curr label offset=0previous max_key=0 
                      07844 S_measure__calibrate    code
0000                  07845 _calibrate:
                      07846 ; 2 exit points
                      07847 ;;; ../../../../src/pic14/gen.c:2358:resultRemat *{*
                      07848 ;;; ../../../../src/pic14/gen.c:2108:genCall *{*
                      07849 ;; ***  genCall  2110
                      07850 ;; >>> ../../../../src/pic14/gen.c:2207:genCall
                      07851         .line   30; "src/measure.c"     lcd_clear();
0000   0??? 0???      07852         PAGESEL _lcd_clear
                      07853 ;; >>> ../../../../src/pic14/gen.c:2215:genCall
0002   2???           07854         CALL    _lcd_clear
                      07855 ;; >>> ../../../../src/pic14/gen.c:2223:genCall
0003   0??? 0???      07856         PAGESEL $
                      07857 ;;; ../../../../src/pic14/gen.c:2358:resultRemat *{*
                      07858 ;;; ../../../../src/pic14/gen.c:2358:resultRemat *{*
                      07859 ;;; ../../../../src/pic14/gen.c:2358:resultRemat *{*
                      07860 ;;; ../../../../src/pic14/gen.c:2108:genCall *{*
                      07861 ;; ***  genCall  2110
                      07862 ;;      2158 left AOP_LIT
                      07863 ;;; ../../../../src/pic14/gen.c:1357:mov2w_op *{*
                      07864 ;; >>> ../../../../src/pic14/gen.c:1375:mov2w_op
                      07865         .line   32; "src/measure.c"     lcd_gotoxy(0, 0);
0005   3000           07866         MOVLW   0x00
                      07867 ;;      2158 left AOP_LIT
                      07868 ;; >>> ../../../../src/pic14/gen.c:2166:genCall
                      07869 ;; ***  popRegFromIdx,1059  , rIdx=0x7f
0006   00??           07870         MOVWF   STK00
                      07871 ;;; ../../../../src/pic14/gen.c:1357:mov2w_op *{*
                      07872 ;; >>> ../../../../src/pic14/gen.c:1375:mov2w_op
0007   3000           07873         MOVLW   0x00
                      07874 ;; >>> ../../../../src/pic14/gen.c:2207:genCall
0008   0??? 0???      07875         PAGESEL _lcd_gotoxy
                      07876 ;; >>> ../../../../src/pic14/gen.c:2215:genCall
gpasm-1.5.0 #1285 (Jul 12 2020) obj/sdcc-16f8   11/12/23  13:12:30          PAGE 150


LOC    OBJECT CODE    LINE  SOURCE TEXT
  VALUE

000A   2???           07877         CALL    _lcd_gotoxy
                      07878 ;; >>> ../../../../src/pic14/gen.c:2223:genCall
000B   0??? 0???      07879         PAGESEL $
                      07880 ;;; ../../../../src/pic14/gen.c:2358:resultRemat *{*
                      07881 ;;; ../../../../src/pic14/gen.c:2358:resultRemat *{*
                      07882 ;;; ../../../../src/pic14/gen.c:7353:genCast *{*
                      07883 ;; ***  genCast  7354
                      07884 ;;      627
                      07885 ;;      aopForRemat 406
                      07886 ;;      432: rname ___str_0, val 0, const = 0
                      07887 ;;      708 register type nRegs=3
                      07888 ;;      837: aopGet AOP_PCODE type PO_IMMEDIATE
                      07889 ;;      ___str_0
                      07890 ;;      line = 7362 result AOP_REG=r0x1047, size=3, left -=-, size=0, right AOP_PCODE=___str_0, size=2
                      07891 ;; ***  genCast  7408 (size=2)
                      07892 ;;; ../../../../src/pic14/gen.c:1357:mov2w_op *{*
                      07893 ;; >>> ../../../../src/pic14/gen.c:1375:mov2w_op
                      07894         .line   33; "src/measure.c"     put_str("Calibrating");
000D   30??           07895         MOVLW   high (___str_0 + 0)
                      07896 ;; >>> ../../../../src/pic14/gen.c:1407:movwf
                      07897 ;;      1126 rIdx = r0x1048 
000E   0??? 0???      07898         BANKSEL r0x1044
0010   00??           07899         MOVWF   r0x1044
                      07900 ;;; ../../../../src/pic14/gen.c:1357:mov2w_op *{*
                      07901 ;; >>> ../../../../src/pic14/gen.c:1375:mov2w_op
0011   30??           07902         MOVLW   (___str_0 + 0)
                      07903 ;; >>> ../../../../src/pic14/gen.c:1407:movwf
                      07904 ;;      1126 rIdx = r0x1047 
0012   00??           07905         MOVWF   r0x1045
                      07906 ;; ***  genCast  7465 (tag=128)
                      07907 ;; >>> ../../../../src/pic14/gen.c:7488:genCast
0013   3080           07908         MOVLW   0x80
                      07909 ;; >>> ../../../../src/pic14/gen.c:1407:movwf
                      07910 ;;      1126 rIdx = r0x1049 
0014   00??           07911         MOVWF   r0x1046
                      07912 ;; ***  addSign  1087
                      07913 ;;; ../../../../src/pic14/genarith.c:1088:addSign *{*
                      07914 ;;; ../../../../src/pic14/gen.c:2358:resultRemat *{*
                      07915 ;;; ../../../../src/pic14/gen.c:2358:resultRemat *{*
                      07916 ;;; ../../../../src/pic14/gen.c:2108:genCall *{*
                      07917 ;; ***  genCall  2110
                      07918 ;;      708 register type nRegs=3
                      07919 ;;      708 register type nRegs=3
                      07920 ;;      2158 left AOP_REG
                      07921 ;;; ../../../../src/pic14/gen.c:1357:mov2w_op *{*
                      07922 ;; ***  mov2w  1395  offset=0
                      07923 ;; >>> ../../../../src/pic14/gen.c:1400:mov2w
                      07924 ;;      1126 rIdx = r0x1047 
0015   08??           07925         MOVF    r0x1045,W
                      07926 ;;      2158 left AOP_REG
                      07927 ;; >>> ../../../../src/pic14/gen.c:2166:genCall
                      07928 ;; ***  popRegFromIdx,1059  , rIdx=0x7e
0016   00??           07929         MOVWF   STK01
gpasm-1.5.0 #1285 (Jul 12 2020) obj/sdcc-16f8   11/12/23  13:12:30          PAGE 151


LOC    OBJECT CODE    LINE  SOURCE TEXT
  VALUE

                      07930 ;;; ../../../../src/pic14/gen.c:1357:mov2w_op *{*
                      07931 ;; ***  mov2w  1395  offset=1
                      07932 ;; >>> ../../../../src/pic14/gen.c:1400:mov2w
                      07933 ;;      1126 rIdx = r0x1048 
0017   08??           07934         MOVF    r0x1044,W
                      07935 ;;      2158 left AOP_REG
                      07936 ;; >>> ../../../../src/pic14/gen.c:2166:genCall
                      07937 ;; ***  popRegFromIdx,1059  , rIdx=0x7f
0018   00??           07938         MOVWF   STK00
                      07939 ;;; ../../../../src/pic14/gen.c:1357:mov2w_op *{*
                      07940 ;; ***  mov2w  1395  offset=2
                      07941 ;; >>> ../../../../src/pic14/gen.c:1400:mov2w
                      07942 ;;      1126 rIdx = r0x1049 
0019   08??           07943         MOVF    r0x1046,W
                      07944 ;; >>> ../../../../src/pic14/gen.c:2207:genCall
001A   0??? 0???      07945         PAGESEL _put_str
                      07946 ;; >>> ../../../../src/pic14/gen.c:2215:genCall
001C   2???           07947         CALL    _put_str
                      07948 ;; >>> ../../../../src/pic14/gen.c:2223:genCall
001D   0??? 0???      07949         PAGESEL $
                      07950 ;;; ../../../../src/pic14/gen.c:2358:resultRemat *{*
                      07951 ;;; ../../../../src/pic14/gen.c:2358:resultRemat *{*
                      07952 ;;; ../../../../src/pic14/gen.c:2358:resultRemat *{*
                      07953 ;;; ../../../../src/pic14/gen.c:2108:genCall *{*
                      07954 ;; ***  genCall  2110
                      07955 ;;      2158 left AOP_LIT
                      07956 ;;; ../../../../src/pic14/gen.c:1357:mov2w_op *{*
                      07957 ;; >>> ../../../../src/pic14/gen.c:1375:mov2w_op
                      07958         .line   35; "src/measure.c"     lcd_gotoxy(0, 1);
001F   3001           07959         MOVLW   0x01
                      07960 ;;      2158 left AOP_LIT
                      07961 ;; >>> ../../../../src/pic14/gen.c:2166:genCall
                      07962 ;; ***  popRegFromIdx,1059  , rIdx=0x7f
0020   00??           07963         MOVWF   STK00
                      07964 ;;; ../../../../src/pic14/gen.c:1357:mov2w_op *{*
                      07965 ;; >>> ../../../../src/pic14/gen.c:1375:mov2w_op
0021   3000           07966         MOVLW   0x00
                      07967 ;; >>> ../../../../src/pic14/gen.c:2207:genCall
0022   0??? 0???      07968         PAGESEL _lcd_gotoxy
                      07969 ;; >>> ../../../../src/pic14/gen.c:2215:genCall
0024   2???           07970         CALL    _lcd_gotoxy
                      07971 ;; >>> ../../../../src/pic14/gen.c:2223:genCall
0025   0??? 0???      07972         PAGESEL $
                      07973 ;;; ../../../../src/pic14/gen.c:2358:resultRemat *{*
                      07974 ;;; ../../../../src/pic14/gen.c:2358:resultRemat *{*
                      07975 ;;; ../../../../src/pic14/gen.c:7353:genCast *{*
                      07976 ;; ***  genCast  7354
                      07977 ;;      627
                      07978 ;;      aopForRemat 406
                      07979 ;;      432: rname ___str_1, val 0, const = 0
                      07980 ;;      708 register type nRegs=3
                      07981 ;;      837: aopGet AOP_PCODE type PO_IMMEDIATE
                      07982 ;;      ___str_1
gpasm-1.5.0 #1285 (Jul 12 2020) obj/sdcc-16f8   11/12/23  13:12:30          PAGE 152


LOC    OBJECT CODE    LINE  SOURCE TEXT
  VALUE

                      07983 ;;      line = 7362 result AOP_REG=r0x1047, size=3, left -=-, size=0, right AOP_PCODE=___str_1, size=2
                      07984 ;; ***  genCast  7408 (size=2)
                      07985 ;;; ../../../../src/pic14/gen.c:1357:mov2w_op *{*
                      07986 ;; >>> ../../../../src/pic14/gen.c:1375:mov2w_op
                      07987         .line   37; "src/measure.c"     ser_puts("\r\n");
0027   30??           07988         MOVLW   high (___str_1 + 0)
                      07989 ;; >>> ../../../../src/pic14/gen.c:1407:movwf
                      07990 ;;      1126 rIdx = r0x1048 
0028   0??? 0???      07991         BANKSEL r0x1044
002A   00??           07992         MOVWF   r0x1044
                      07993 ;;; ../../../../src/pic14/gen.c:1357:mov2w_op *{*
                      07994 ;; >>> ../../../../src/pic14/gen.c:1375:mov2w_op
002B   30??           07995         MOVLW   (___str_1 + 0)
                      07996 ;; >>> ../../../../src/pic14/gen.c:1407:movwf
                      07997 ;;      1126 rIdx = r0x1047 
002C   00??           07998         MOVWF   r0x1045
                      07999 ;; ***  genCast  7465 (tag=128)
                      08000 ;; >>> ../../../../src/pic14/gen.c:7488:genCast
002D   3080           08001         MOVLW   0x80
                      08002 ;; >>> ../../../../src/pic14/gen.c:1407:movwf
                      08003 ;;      1126 rIdx = r0x1049 
002E   00??           08004         MOVWF   r0x1046
                      08005 ;; ***  addSign  1087
                      08006 ;;; ../../../../src/pic14/genarith.c:1088:addSign *{*
                      08007 ;;; ../../../../src/pic14/gen.c:2358:resultRemat *{*
                      08008 ;;; ../../../../src/pic14/gen.c:2358:resultRemat *{*
                      08009 ;;; ../../../../src/pic14/gen.c:2108:genCall *{*
                      08010 ;; ***  genCall  2110
                      08011 ;;      708 register type nRegs=3
                      08012 ;;      708 register type nRegs=3
                      08013 ;;      2158 left AOP_REG
                      08014 ;;; ../../../../src/pic14/gen.c:1357:mov2w_op *{*
                      08015 ;; ***  mov2w  1395  offset=0
                      08016 ;; >>> ../../../../src/pic14/gen.c:1400:mov2w
                      08017 ;;      1126 rIdx = r0x1047 
002F   08??           08018         MOVF    r0x1045,W
                      08019 ;;      2158 left AOP_REG
                      08020 ;; >>> ../../../../src/pic14/gen.c:2166:genCall
                      08021 ;; ***  popRegFromIdx,1059  , rIdx=0x7e
0030   00??           08022         MOVWF   STK01
                      08023 ;;; ../../../../src/pic14/gen.c:1357:mov2w_op *{*
                      08024 ;; ***  mov2w  1395  offset=1
                      08025 ;; >>> ../../../../src/pic14/gen.c:1400:mov2w
                      08026 ;;      1126 rIdx = r0x1048 
0031   08??           08027         MOVF    r0x1044,W
                      08028 ;;      2158 left AOP_REG
                      08029 ;; >>> ../../../../src/pic14/gen.c:2166:genCall
                      08030 ;; ***  popRegFromIdx,1059  , rIdx=0x7f
0032   00??           08031         MOVWF   STK00
                      08032 ;;; ../../../../src/pic14/gen.c:1357:mov2w_op *{*
                      08033 ;; ***  mov2w  1395  offset=2
                      08034 ;; >>> ../../../../src/pic14/gen.c:1400:mov2w
                      08035 ;;      1126 rIdx = r0x1049 
gpasm-1.5.0 #1285 (Jul 12 2020) obj/sdcc-16f8   11/12/23  13:12:30          PAGE 153


LOC    OBJECT CODE    LINE  SOURCE TEXT
  VALUE

0033   08??           08036         MOVF    r0x1046,W
                      08037 ;; >>> ../../../../src/pic14/gen.c:2207:genCall
0034   0??? 0???      08038         PAGESEL _ser_puts
                      08039 ;; >>> ../../../../src/pic14/gen.c:2215:genCall
0036   2???           08040         CALL    _ser_puts
                      08041 ;; >>> ../../../../src/pic14/gen.c:2223:genCall
0037   0??? 0???      08042         PAGESEL $
                      08043 ;;; ../../../../src/pic14/gen.c:2358:resultRemat *{*
                      08044 ;;; ../../../../src/pic14/gen.c:2358:resultRemat *{*
                      08045 ;;; ../../../../src/pic14/gen.c:7353:genCast *{*
                      08046 ;; ***  genCast  7354
                      08047 ;;      627
                      08048 ;;      aopForRemat 406
                      08049 ;;      432: rname ___str_2, val 0, const = 0
                      08050 ;;      708 register type nRegs=3
                      08051 ;;      837: aopGet AOP_PCODE type PO_IMMEDIATE
                      08052 ;;      ___str_2
                      08053 ;;      line = 7362 result AOP_REG=r0x1047, size=3, left -=-, size=0, right AOP_PCODE=___str_2, size=2
                      08054 ;; ***  genCast  7408 (size=2)
                      08055 ;;; ../../../../src/pic14/gen.c:1357:mov2w_op *{*
                      08056 ;; >>> ../../../../src/pic14/gen.c:1375:mov2w_op
                      08057         .line   39; "src/measure.c"     put_str("please wait...");
0039   30??           08058         MOVLW   high (___str_2 + 0)
                      08059 ;; >>> ../../../../src/pic14/gen.c:1407:movwf
                      08060 ;;      1126 rIdx = r0x1048 
003A   0??? 0???      08061         BANKSEL r0x1044
003C   00??           08062         MOVWF   r0x1044
                      08063 ;;; ../../../../src/pic14/gen.c:1357:mov2w_op *{*
                      08064 ;; >>> ../../../../src/pic14/gen.c:1375:mov2w_op
003D   30??           08065         MOVLW   (___str_2 + 0)
                      08066 ;; >>> ../../../../src/pic14/gen.c:1407:movwf
                      08067 ;;      1126 rIdx = r0x1047 
003E   00??           08068         MOVWF   r0x1045
                      08069 ;; ***  genCast  7465 (tag=128)
                      08070 ;; >>> ../../../../src/pic14/gen.c:7488:genCast
003F   3080           08071         MOVLW   0x80
                      08072 ;; >>> ../../../../src/pic14/gen.c:1407:movwf
                      08073 ;;      1126 rIdx = r0x1049 
0040   00??           08074         MOVWF   r0x1046
                      08075 ;; ***  addSign  1087
                      08076 ;;; ../../../../src/pic14/genarith.c:1088:addSign *{*
                      08077 ;;; ../../../../src/pic14/gen.c:2358:resultRemat *{*
                      08078 ;;; ../../../../src/pic14/gen.c:2358:resultRemat *{*
                      08079 ;;; ../../../../src/pic14/gen.c:2108:genCall *{*
                      08080 ;; ***  genCall  2110
                      08081 ;;      708 register type nRegs=3
                      08082 ;;      708 register type nRegs=3
                      08083 ;;      2158 left AOP_REG
                      08084 ;;; ../../../../src/pic14/gen.c:1357:mov2w_op *{*
                      08085 ;; ***  mov2w  1395  offset=0
                      08086 ;; >>> ../../../../src/pic14/gen.c:1400:mov2w
                      08087 ;;      1126 rIdx = r0x1047 
0041   08??           08088         MOVF    r0x1045,W
gpasm-1.5.0 #1285 (Jul 12 2020) obj/sdcc-16f8   11/12/23  13:12:30          PAGE 154


LOC    OBJECT CODE    LINE  SOURCE TEXT
  VALUE

                      08089 ;;      2158 left AOP_REG
                      08090 ;; >>> ../../../../src/pic14/gen.c:2166:genCall
                      08091 ;; ***  popRegFromIdx,1059  , rIdx=0x7e
0042   00??           08092         MOVWF   STK01
                      08093 ;;; ../../../../src/pic14/gen.c:1357:mov2w_op *{*
                      08094 ;; ***  mov2w  1395  offset=1
                      08095 ;; >>> ../../../../src/pic14/gen.c:1400:mov2w
                      08096 ;;      1126 rIdx = r0x1048 
0043   08??           08097         MOVF    r0x1044,W
                      08098 ;;      2158 left AOP_REG
                      08099 ;; >>> ../../../../src/pic14/gen.c:2166:genCall
                      08100 ;; ***  popRegFromIdx,1059  , rIdx=0x7f
0044   00??           08101         MOVWF   STK00
                      08102 ;;; ../../../../src/pic14/gen.c:1357:mov2w_op *{*
                      08103 ;; ***  mov2w  1395  offset=2
                      08104 ;; >>> ../../../../src/pic14/gen.c:1400:mov2w
                      08105 ;;      1126 rIdx = r0x1049 
0045   08??           08106         MOVF    r0x1046,W
                      08107 ;; >>> ../../../../src/pic14/gen.c:2207:genCall
0046   0??? 0???      08108         PAGESEL _put_str
                      08109 ;; >>> ../../../../src/pic14/gen.c:2215:genCall
0048   2???           08110         CALL    _put_str
                      08111 ;; >>> ../../../../src/pic14/gen.c:2223:genCall
0049   0??? 0???      08112         PAGESEL $
                      08113 ;;; ../../../../src/pic14/gen.c:2358:resultRemat *{*
                      08114 ;;; ../../../../src/pic14/gen.c:4023:genAnd *{*
                      08115 ;; ***  genAnd  4024
                      08116 ;; ***  aopForSym 324
                      08117 ;;      336 sym->rname = _PORTC, size = 1
                      08118 ;;      589
                      08119 ;;      line = 4059 result AOP_DIR=_PORTC, size=1, left AOP_DIR=_PORTC, size=1, right AOP_LIT=0xdf, size
                            =1
                      08120 ;; >>> ../../../../src/pic14/gen.c:4226:genAnd
                      08121         .line   42; "src/measure.c"     REMOVE_CCAL();
004B   0??? 0???      08122         BANKSEL _PORTC
004D   12??           08123         BCF     _PORTC,5
                      08124 ;;; ../../../../src/pic14/gen.c:2358:resultRemat *{*
                      08125 ;;; ../../../../src/pic14/gen.c:2108:genCall *{*
                      08126 ;; ***  genCall  2110
                      08127 ;; >>> ../../../../src/pic14/gen.c:2207:genCall
                      08128         .line   44; "src/measure.c"     F1 = (double)measure_freq(); // dummy reading to stabilize oscil
                            lator
004E   0??? 0???      08129         PAGESEL _measure_freq
                      08130 ;; >>> ../../../../src/pic14/gen.c:2215:genCall
0050   2???           08131         CALL    _measure_freq
                      08132 ;; >>> ../../../../src/pic14/gen.c:2223:genCall
0051   0??? 0???      08133         PAGESEL $
                      08134 ;;      708 register type nRegs=2
                      08135 ;;; ../../../../src/pic14/gen.c:1929:assignResultValue *{*
                      08136 ;; ***  assignResultValue  1931
                      08137 ;;      line = 1933 result -=-, size=0, left AOP_REG=r0x1047, size=2, right -=-, size=0
                      08138 ;; >>> ../../../../src/pic14/gen.c:1407:movwf
                      08139 ;;      1126 rIdx = r0x1048 
gpasm-1.5.0 #1285 (Jul 12 2020) obj/sdcc-16f8   11/12/23  13:12:30          PAGE 155


LOC    OBJECT CODE    LINE  SOURCE TEXT
  VALUE

0053   0??? 0???      08140         BANKSEL r0x1044
0055   00??           08141         MOVWF   r0x1044
                      08142 ;; >>> ../../../../src/pic14/gen.c:1437:get_returnvalue
                      08143 ;; ***  popRegFromIdx,1059  , rIdx=0x7f
0056   08??           08144         MOVF    STK00,W
                      08145 ;; >>> ../../../../src/pic14/gen.c:1407:movwf
                      08146 ;;      1126 rIdx = r0x1047 
0057   00??           08147         MOVWF   r0x1045
0058   00??           08148         MOVWF   STK00
                      08149 ;;; ../../../../src/pic14/gen.c:1357:mov2w_op *{*
                      08150 ;; ***  mov2w  1395  offset=1
                      08151 ;; >>> ../../../../src/pic14/gen.c:1400:mov2w
                      08152 ;;      1126 rIdx = r0x1048 
0059   08??           08153         MOVF    r0x1044,W
                      08154 ;; >>> ../../../../src/pic14/gen.c:2207:genCall
005A   0??? 0???      08155         PAGESEL ___uint2fs
                      08156 ;; >>> ../../../../src/pic14/gen.c:2215:genCall
005C   2???           08157         CALL    ___uint2fs
                      08158 ;; >>> ../../../../src/pic14/gen.c:2223:genCall
005D   0??? 0???      08159         PAGESEL $
                      08160 ;; ***  aopForSym 324
                      08161 ;;      336 sym->rname = _F1, size = 4
                      08162 ;;; ../../../../src/pic14/gen.c:1929:assignResultValue *{*
                      08163 ;; ***  assignResultValue  1931
                      08164 ;;      line = 1933 result -=-, size=0, left AOP_DIR=_F1, size=4, right -=-, size=0
                      08165 ;; >>> ../../../../src/pic14/gen.c:1407:movwf
                      08166 ;;      1027
                      08167 ;;      1045  _F1   offset=3
005F   0??? 0???      08168         BANKSEL _F1
0061   00??           08169         MOVWF   (_F1 + 3)
                      08170 ;; >>> ../../../../src/pic14/gen.c:1437:get_returnvalue
                      08171 ;; ***  popRegFromIdx,1059  , rIdx=0x7f
0062   08??           08172         MOVF    STK00,W
                      08173 ;; >>> ../../../../src/pic14/gen.c:1407:movwf
                      08174 ;;      1027
                      08175 ;;      1045  _F1   offset=2
0063   00??           08176         MOVWF   (_F1 + 2)
                      08177 ;; >>> ../../../../src/pic14/gen.c:1437:get_returnvalue
                      08178 ;; ***  popRegFromIdx,1059  , rIdx=0x7e
0064   08??           08179         MOVF    STK01,W
                      08180 ;; >>> ../../../../src/pic14/gen.c:1407:movwf
                      08181 ;;      1027
                      08182 ;;      1045  _F1   offset=1
0065   00??           08183         MOVWF   (_F1 + 1)
                      08184 ;; >>> ../../../../src/pic14/gen.c:1437:get_returnvalue
                      08185 ;; ***  popRegFromIdx,1059  , rIdx=0x7d
0066   08??           08186         MOVF    STK02,W
                      08187 ;; >>> ../../../../src/pic14/gen.c:1407:movwf
                      08188 ;;      1027
                      08189 ;;      1045  _F1   offset=0
0067   00??           08190         MOVWF   _F1
                      08191 ;;      2238 left AOP_DIR
                      08192 ;;; ../../../../src/pic14/gen.c:2358:resultRemat *{*
gpasm-1.5.0 #1285 (Jul 12 2020) obj/sdcc-16f8   11/12/23  13:12:30          PAGE 156


LOC    OBJECT CODE    LINE  SOURCE TEXT
  VALUE

                      08193 ;;; ../../../../src/pic14/gen.c:2358:resultRemat *{*
                      08194 ;;; ../../../../src/pic14/gen.c:2108:genCall *{*
                      08195 ;; ***  genCall  2110
                      08196 ;;      2158 left AOP_LIT
                      08197 ;;; ../../../../src/pic14/gen.c:1357:mov2w_op *{*
                      08198 ;; >>> ../../../../src/pic14/gen.c:1375:mov2w_op
                      08199         .line   45; "src/measure.c"     delay10ms(50);
0068   3032           08200         MOVLW   0x32
                      08201 ;; >>> ../../../../src/pic14/gen.c:2207:genCall
0069   0??? 0???      08202         PAGESEL _delay10ms
                      08203 ;; >>> ../../../../src/pic14/gen.c:2215:genCall
006B   2???           08204         CALL    _delay10ms
                      08205 ;; >>> ../../../../src/pic14/gen.c:2223:genCall
006C   0??? 0???      08206         PAGESEL $
                      08207 ;;; ../../../../src/pic14/gen.c:2358:resultRemat *{*
                      08208 ;;; ../../../../src/pic14/gen.c:2108:genCall *{*
                      08209 ;; ***  genCall  2110
                      08210 ;; >>> ../../../../src/pic14/gen.c:2207:genCall
                      08211         .line   47; "src/measure.c"     F1 = (double)measure_freq();
006E   0??? 0???      08212         PAGESEL _measure_freq
                      08213 ;; >>> ../../../../src/pic14/gen.c:2215:genCall
0070   2???           08214         CALL    _measure_freq
                      08215 ;; >>> ../../../../src/pic14/gen.c:2223:genCall
0071   0??? 0???      08216         PAGESEL $
                      08217 ;;      708 register type nRegs=2
                      08218 ;;; ../../../../src/pic14/gen.c:1929:assignResultValue *{*
                      08219 ;; ***  assignResultValue  1931
                      08220 ;;      line = 1933 result -=-, size=0, left AOP_REG=r0x1047, size=2, right -=-, size=0
                      08221 ;; >>> ../../../../src/pic14/gen.c:1407:movwf
                      08222 ;;      1126 rIdx = r0x1048 
0073   0??? 0???      08223         BANKSEL r0x1044
0075   00??           08224         MOVWF   r0x1044
                      08225 ;; >>> ../../../../src/pic14/gen.c:1437:get_returnvalue
                      08226 ;; ***  popRegFromIdx,1059  , rIdx=0x7f
0076   08??           08227         MOVF    STK00,W
                      08228 ;; >>> ../../../../src/pic14/gen.c:1407:movwf
                      08229 ;;      1126 rIdx = r0x1047 
0077   00??           08230         MOVWF   r0x1045
0078   00??           08231         MOVWF   STK00
                      08232 ;;; ../../../../src/pic14/gen.c:1357:mov2w_op *{*
                      08233 ;; ***  mov2w  1395  offset=1
                      08234 ;; >>> ../../../../src/pic14/gen.c:1400:mov2w
                      08235 ;;      1126 rIdx = r0x1048 
0079   08??           08236         MOVF    r0x1044,W
                      08237 ;; >>> ../../../../src/pic14/gen.c:2207:genCall
007A   0??? 0???      08238         PAGESEL ___uint2fs
                      08239 ;; >>> ../../../../src/pic14/gen.c:2215:genCall
007C   2???           08240         CALL    ___uint2fs
                      08241 ;; >>> ../../../../src/pic14/gen.c:2223:genCall
007D   0??? 0???      08242         PAGESEL $
                      08243 ;; ***  aopForSym 324
                      08244 ;;      336 sym->rname = _F1, size = 4
                      08245 ;;; ../../../../src/pic14/gen.c:1929:assignResultValue *{*
gpasm-1.5.0 #1285 (Jul 12 2020) obj/sdcc-16f8   11/12/23  13:12:30          PAGE 157


LOC    OBJECT CODE    LINE  SOURCE TEXT
  VALUE

                      08246 ;; ***  assignResultValue  1931
                      08247 ;;      line = 1933 result -=-, size=0, left AOP_DIR=_F1, size=4, right -=-, size=0
                      08248 ;; >>> ../../../../src/pic14/gen.c:1407:movwf
                      08249 ;;      1027
                      08250 ;;      1045  _F1   offset=3
007F   0??? 0???      08251         BANKSEL _F1
0081   00??           08252         MOVWF   (_F1 + 3)
                      08253 ;; >>> ../../../../src/pic14/gen.c:1437:get_returnvalue
                      08254 ;; ***  popRegFromIdx,1059  , rIdx=0x7f
0082   08??           08255         MOVF    STK00,W
                      08256 ;; >>> ../../../../src/pic14/gen.c:1407:movwf
                      08257 ;;      1027
                      08258 ;;      1045  _F1   offset=2
0083   00??           08259         MOVWF   (_F1 + 2)
                      08260 ;; >>> ../../../../src/pic14/gen.c:1437:get_returnvalue
                      08261 ;; ***  popRegFromIdx,1059  , rIdx=0x7e
0084   08??           08262         MOVF    STK01,W
                      08263 ;; >>> ../../../../src/pic14/gen.c:1407:movwf
                      08264 ;;      1027
                      08265 ;;      1045  _F1   offset=1
0085   00??           08266         MOVWF   (_F1 + 1)
                      08267 ;; >>> ../../../../src/pic14/gen.c:1437:get_returnvalue
                      08268 ;; ***  popRegFromIdx,1059  , rIdx=0x7d
0086   08??           08269         MOVF    STK02,W
                      08270 ;; >>> ../../../../src/pic14/gen.c:1407:movwf
                      08271 ;;      1027
                      08272 ;;      1045  _F1   offset=0
0087   00??           08273         MOVWF   _F1
                      08274 ;;      2238 left AOP_DIR
                      08275 ;;; ../../../../src/pic14/gen.c:2358:resultRemat *{*
                      08276 ;;; ../../../../src/pic14/gen.c:4324:genOr *{*
                      08277 ;; ***  genOr  4325
                      08278 ;; ***  aopForSym 324
                      08279 ;;      336 sym->rname = _PORTC, size = 1
                      08280 ;;      589
                      08281 ;;      line = 4331 result AOP_DIR=_PORTC, size=1, left AOP_DIR=_PORTC, size=1, right AOP_LIT=0x20, size
                            =1
                      08282 ;;      line = 4357 result AOP_DIR=_PORTC, size=1, left AOP_DIR=_PORTC, size=1, right AOP_LIT=0x20, size
                            =1
                      08283 ;; >>> ../../../../src/pic14/gen.c:4508:genOr
                      08284         .line   48; "src/measure.c"     ADD_CCAL();
0088   0??? 0???      08285         BANKSEL _PORTC
008A   16??           08286         BSF     _PORTC,5
                      08287 ;;; ../../../../src/pic14/gen.c:2358:resultRemat *{*
                      08288 ;;; ../../../../src/pic14/gen.c:2108:genCall *{*
                      08289 ;; ***  genCall  2110
                      08290 ;; >>> ../../../../src/pic14/gen.c:2207:genCall
                      08291         .line   50; "src/measure.c"     F2 = (double)measure_freq(); // dummy reading to stabilize oscil
                            lator
008B   0??? 0???      08292         PAGESEL _measure_freq
                      08293 ;; >>> ../../../../src/pic14/gen.c:2215:genCall
008D   2???           08294         CALL    _measure_freq
                      08295 ;; >>> ../../../../src/pic14/gen.c:2223:genCall
gpasm-1.5.0 #1285 (Jul 12 2020) obj/sdcc-16f8   11/12/23  13:12:30          PAGE 158


LOC    OBJECT CODE    LINE  SOURCE TEXT
  VALUE

008E   0??? 0???      08296         PAGESEL $
                      08297 ;;      708 register type nRegs=2
                      08298 ;;; ../../../../src/pic14/gen.c:1929:assignResultValue *{*
                      08299 ;; ***  assignResultValue  1931
                      08300 ;;      line = 1933 result -=-, size=0, left AOP_REG=r0x1047, size=2, right -=-, size=0
                      08301 ;; >>> ../../../../src/pic14/gen.c:1407:movwf
                      08302 ;;      1126 rIdx = r0x1048 
0090   0??? 0???      08303         BANKSEL r0x1044
0092   00??           08304         MOVWF   r0x1044
                      08305 ;; >>> ../../../../src/pic14/gen.c:1437:get_returnvalue
                      08306 ;; ***  popRegFromIdx,1059  , rIdx=0x7f
0093   08??           08307         MOVF    STK00,W
                      08308 ;; >>> ../../../../src/pic14/gen.c:1407:movwf
                      08309 ;;      1126 rIdx = r0x1047 
0094   00??           08310         MOVWF   r0x1045
0095   00??           08311         MOVWF   STK00
                      08312 ;;; ../../../../src/pic14/gen.c:1357:mov2w_op *{*
                      08313 ;; ***  mov2w  1395  offset=1
                      08314 ;; >>> ../../../../src/pic14/gen.c:1400:mov2w
                      08315 ;;      1126 rIdx = r0x1048 
0096   08??           08316         MOVF    r0x1044,W
                      08317 ;; >>> ../../../../src/pic14/gen.c:2207:genCall
0097   0??? 0???      08318         PAGESEL ___uint2fs
                      08319 ;; >>> ../../../../src/pic14/gen.c:2215:genCall
0099   2???           08320         CALL    ___uint2fs
                      08321 ;; >>> ../../../../src/pic14/gen.c:2223:genCall
009A   0??? 0???      08322         PAGESEL $
                      08323 ;; ***  aopForSym 324
                      08324 ;;      336 sym->rname = _F2, size = 4
                      08325 ;;; ../../../../src/pic14/gen.c:1929:assignResultValue *{*
                      08326 ;; ***  assignResultValue  1931
                      08327 ;;      line = 1933 result -=-, size=0, left AOP_DIR=_F2, size=4, right -=-, size=0
                      08328 ;; >>> ../../../../src/pic14/gen.c:1407:movwf
                      08329 ;;      1027
                      08330 ;;      1045  _F2   offset=3
009C   0??? 0???      08331         BANKSEL _F2
009E   00??           08332         MOVWF   (_F2 + 3)
                      08333 ;; >>> ../../../../src/pic14/gen.c:1437:get_returnvalue
                      08334 ;; ***  popRegFromIdx,1059  , rIdx=0x7f
009F   08??           08335         MOVF    STK00,W
                      08336 ;; >>> ../../../../src/pic14/gen.c:1407:movwf
                      08337 ;;      1027
                      08338 ;;      1045  _F2   offset=2
00A0   00??           08339         MOVWF   (_F2 + 2)
                      08340 ;; >>> ../../../../src/pic14/gen.c:1437:get_returnvalue
                      08341 ;; ***  popRegFromIdx,1059  , rIdx=0x7e
00A1   08??           08342         MOVF    STK01,W
                      08343 ;; >>> ../../../../src/pic14/gen.c:1407:movwf
                      08344 ;;      1027
                      08345 ;;      1045  _F2   offset=1
00A2   00??           08346         MOVWF   (_F2 + 1)
                      08347 ;; >>> ../../../../src/pic14/gen.c:1437:get_returnvalue
                      08348 ;; ***  popRegFromIdx,1059  , rIdx=0x7d
gpasm-1.5.0 #1285 (Jul 12 2020) obj/sdcc-16f8   11/12/23  13:12:30          PAGE 159


LOC    OBJECT CODE    LINE  SOURCE TEXT
  VALUE

00A3   08??           08349         MOVF    STK02,W
                      08350 ;; >>> ../../../../src/pic14/gen.c:1407:movwf
                      08351 ;;      1027
                      08352 ;;      1045  _F2   offset=0
00A4   00??           08353         MOVWF   _F2
                      08354 ;;      2238 left AOP_DIR
                      08355 ;;; ../../../../src/pic14/gen.c:2358:resultRemat *{*
                      08356 ;;; ../../../../src/pic14/gen.c:2358:resultRemat *{*
                      08357 ;;; ../../../../src/pic14/gen.c:2108:genCall *{*
                      08358 ;; ***  genCall  2110
                      08359 ;;      2158 left AOP_LIT
                      08360 ;;; ../../../../src/pic14/gen.c:1357:mov2w_op *{*
                      08361 ;; >>> ../../../../src/pic14/gen.c:1375:mov2w_op
                      08362         .line   51; "src/measure.c"     delay10ms(50);
00A5   3032           08363         MOVLW   0x32
                      08364 ;; >>> ../../../../src/pic14/gen.c:2207:genCall
00A6   0??? 0???      08365         PAGESEL _delay10ms
                      08366 ;; >>> ../../../../src/pic14/gen.c:2215:genCall
00A8   2???           08367         CALL    _delay10ms
                      08368 ;; >>> ../../../../src/pic14/gen.c:2223:genCall
00A9   0??? 0???      08369         PAGESEL $
                      08370 ;;; ../../../../src/pic14/gen.c:2358:resultRemat *{*
                      08371 ;;; ../../../../src/pic14/gen.c:2108:genCall *{*
                      08372 ;; ***  genCall  2110
                      08373 ;; >>> ../../../../src/pic14/gen.c:2207:genCall
                      08374         .line   53; "src/measure.c"     F2 = (double)measure_freq();
00AB   0??? 0???      08375         PAGESEL _measure_freq
                      08376 ;; >>> ../../../../src/pic14/gen.c:2215:genCall
00AD   2???           08377         CALL    _measure_freq
                      08378 ;; >>> ../../../../src/pic14/gen.c:2223:genCall
00AE   0??? 0???      08379         PAGESEL $
                      08380 ;;      708 register type nRegs=2
                      08381 ;;; ../../../../src/pic14/gen.c:1929:assignResultValue *{*
                      08382 ;; ***  assignResultValue  1931
                      08383 ;;      line = 1933 result -=-, size=0, left AOP_REG=r0x1047, size=2, right -=-, size=0
                      08384 ;; >>> ../../../../src/pic14/gen.c:1407:movwf
                      08385 ;;      1126 rIdx = r0x1048 
00B0   0??? 0???      08386         BANKSEL r0x1044
00B2   00??           08387         MOVWF   r0x1044
                      08388 ;; >>> ../../../../src/pic14/gen.c:1437:get_returnvalue
                      08389 ;; ***  popRegFromIdx,1059  , rIdx=0x7f
00B3   08??           08390         MOVF    STK00,W
                      08391 ;; >>> ../../../../src/pic14/gen.c:1407:movwf
                      08392 ;;      1126 rIdx = r0x1047 
00B4   00??           08393         MOVWF   r0x1045
00B5   00??           08394         MOVWF   STK00
                      08395 ;;; ../../../../src/pic14/gen.c:1357:mov2w_op *{*
                      08396 ;; ***  mov2w  1395  offset=1
                      08397 ;; >>> ../../../../src/pic14/gen.c:1400:mov2w
                      08398 ;;      1126 rIdx = r0x1048 
00B6   08??           08399         MOVF    r0x1044,W
                      08400 ;; >>> ../../../../src/pic14/gen.c:2207:genCall
00B7   0??? 0???      08401         PAGESEL ___uint2fs
gpasm-1.5.0 #1285 (Jul 12 2020) obj/sdcc-16f8   11/12/23  13:12:30          PAGE 160


LOC    OBJECT CODE    LINE  SOURCE TEXT
  VALUE

                      08402 ;; >>> ../../../../src/pic14/gen.c:2215:genCall
00B9   2???           08403         CALL    ___uint2fs
                      08404 ;; >>> ../../../../src/pic14/gen.c:2223:genCall
00BA   0??? 0???      08405         PAGESEL $
                      08406 ;; ***  aopForSym 324
                      08407 ;;      336 sym->rname = _F2, size = 4
                      08408 ;;; ../../../../src/pic14/gen.c:1929:assignResultValue *{*
                      08409 ;; ***  assignResultValue  1931
                      08410 ;;      line = 1933 result -=-, size=0, left AOP_DIR=_F2, size=4, right -=-, size=0
                      08411 ;; >>> ../../../../src/pic14/gen.c:1407:movwf
                      08412 ;;      1027
                      08413 ;;      1045  _F2   offset=3
00BC   0??? 0???      08414         BANKSEL _F2
00BE   00??           08415         MOVWF   (_F2 + 3)
                      08416 ;; >>> ../../../../src/pic14/gen.c:1437:get_returnvalue
                      08417 ;; ***  popRegFromIdx,1059  , rIdx=0x7f
00BF   08??           08418         MOVF    STK00,W
                      08419 ;; >>> ../../../../src/pic14/gen.c:1407:movwf
                      08420 ;;      1027
                      08421 ;;      1045  _F2   offset=2
00C0   00??           08422         MOVWF   (_F2 + 2)
                      08423 ;; >>> ../../../../src/pic14/gen.c:1437:get_returnvalue
                      08424 ;; ***  popRegFromIdx,1059  , rIdx=0x7e
00C1   08??           08425         MOVF    STK01,W
                      08426 ;; >>> ../../../../src/pic14/gen.c:1407:movwf
                      08427 ;;      1027
                      08428 ;;      1045  _F2   offset=1
00C2   00??           08429         MOVWF   (_F2 + 1)
                      08430 ;; >>> ../../../../src/pic14/gen.c:1437:get_returnvalue
                      08431 ;; ***  popRegFromIdx,1059  , rIdx=0x7d
00C3   08??           08432         MOVF    STK02,W
                      08433 ;; >>> ../../../../src/pic14/gen.c:1407:movwf
                      08434 ;;      1027
                      08435 ;;      1045  _F2   offset=0
00C4   00??           08436         MOVWF   _F2
                      08437 ;;      2238 left AOP_DIR
                      08438 ;;; ../../../../src/pic14/gen.c:2358:resultRemat *{*
                      08439 ;;; ../../../../src/pic14/gen.c:4023:genAnd *{*
                      08440 ;; ***  genAnd  4024
                      08441 ;; ***  aopForSym 324
                      08442 ;;      336 sym->rname = _PORTC, size = 1
                      08443 ;;      589
                      08444 ;;      line = 4059 result AOP_DIR=_PORTC, size=1, left AOP_DIR=_PORTC, size=1, right AOP_LIT=0xdf, size
                            =1
                      08445 ;; >>> ../../../../src/pic14/gen.c:4226:genAnd
                      08446         .line   54; "src/measure.c"     REMOVE_CCAL();
00C5   0??? 0???      08447         BANKSEL _PORTC
00C7   12??           08448         BCF     _PORTC,5
                      08449 ;;; ../../../../src/pic14/gen.c:2358:resultRemat *{*
                      08450 ;;; ../../../../src/pic14/gen.c:2358:resultRemat *{*
                      08451 ;;; ../../../../src/pic14/gen.c:2358:resultRemat *{*
                      08452 ;;; ../../../../src/pic14/gen.c:2108:genCall *{*
                      08453 ;; ***  genCall  2110
gpasm-1.5.0 #1285 (Jul 12 2020) obj/sdcc-16f8   11/12/23  13:12:30          PAGE 161


LOC    OBJECT CODE    LINE  SOURCE TEXT
  VALUE

                      08454 ;;      2158 left AOP_LIT
                      08455 ;;; ../../../../src/pic14/gen.c:1357:mov2w_op *{*
                      08456 ;; >>> ../../../../src/pic14/gen.c:1375:mov2w_op
                      08457         .line   57; "src/measure.c"     lcd_gotoxy(11, 0);
00C8   3000           08458         MOVLW   0x00
                      08459 ;;      2158 left AOP_LIT
                      08460 ;; >>> ../../../../src/pic14/gen.c:2166:genCall
                      08461 ;; ***  popRegFromIdx,1059  , rIdx=0x7f
00C9   00??           08462         MOVWF   STK00
                      08463 ;;; ../../../../src/pic14/gen.c:1357:mov2w_op *{*
                      08464 ;; >>> ../../../../src/pic14/gen.c:1375:mov2w_op
00CA   300B           08465         MOVLW   0x0b
                      08466 ;; >>> ../../../../src/pic14/gen.c:2207:genCall
00CB   0??? 0???      08467         PAGESEL _lcd_gotoxy
                      08468 ;; >>> ../../../../src/pic14/gen.c:2215:genCall
00CD   2???           08469         CALL    _lcd_gotoxy
                      08470 ;; >>> ../../../../src/pic14/gen.c:2223:genCall
00CE   0??? 0???      08471         PAGESEL $
                      08472 ;;; ../../../../src/pic14/gen.c:2358:resultRemat *{*
                      08473 ;;; ../../../../src/pic14/gen.c:7159:genAssign *{*
                      08474 ;; ***  genAssign  7160
                      08475 ;;      708 register type nRegs=1
                      08476 ;;      line = 7169 result AOP_REG=r0x1047, size=1, left -=-, size=0, right AOP_LIT=0x00, size=1
                      08477 ;; ***  genAssign  7253
                      08478 ;; >>> ../../../../src/pic14/gen.c:7265:genAssign
                      08479 ;;      1126 rIdx = r0x1047 
                      08480         .line   58; "src/measure.c"     for(i = 0; i < 6; i++) { // show progress bar
00D0   0??? 0???      08481         BANKSEL r0x1045
00D2   01??           08482         CLRF    r0x1045
                      08483 ;;; ../../../../src/pic14/gen.c:2358:resultRemat *{*
                      08484 ;;; ../../../../src/pic14/gen.c:2802:genLabel *{*
                      08485 ;; ***  genLabel  2805
                      08486 ;;; ../../../../src/pic14/gen.c:2358:resultRemat *{*
                      08487 ;;; ../../../../src/pic14/gen.c:2358:resultRemat *{*
                      08488 ;;; ../../../../src/pic14/gen.c:2108:genCall *{*
                      08489 ;; ***  genCall  2110
                      08490 ;;      2158 left AOP_LIT
                      08491 ;;; ../../../../src/pic14/gen.c:1357:mov2w_op *{*
                      08492 ;; >>> ../../../../src/pic14/gen.c:1375:mov2w_op
00D3                  08493 _00106_DS_:
                      08494         .line   59; "src/measure.c"     lcd_putch('=');
00D3   303D           08495         MOVLW   0x3d
                      08496 ;; >>> ../../../../src/pic14/gen.c:2207:genCall
00D4   0??? 0???      08497         PAGESEL _lcd_putch
                      08498 ;; >>> ../../../../src/pic14/gen.c:2215:genCall
00D6   2???           08499         CALL    _lcd_putch
                      08500 ;; >>> ../../../../src/pic14/gen.c:2223:genCall
00D7   0??? 0???      08501         PAGESEL $
                      08502 ;;; ../../../../src/pic14/gen.c:2358:resultRemat *{*
                      08503 ;;; ../../../../src/pic14/gen.c:2358:resultRemat *{*
                      08504 ;;; ../../../../src/pic14/gen.c:2108:genCall *{*
                      08505 ;; ***  genCall  2110
                      08506 ;;      2158 left AOP_LIT
gpasm-1.5.0 #1285 (Jul 12 2020) obj/sdcc-16f8   11/12/23  13:12:30          PAGE 162


LOC    OBJECT CODE    LINE  SOURCE TEXT
  VALUE

                      08507 ;;; ../../../../src/pic14/gen.c:1357:mov2w_op *{*
                      08508 ;; >>> ../../../../src/pic14/gen.c:1375:mov2w_op
                      08509         .line   61; "src/measure.c"     delay10ms(28);
00D9   301C           08510         MOVLW   0x1c
                      08511 ;; >>> ../../../../src/pic14/gen.c:2207:genCall
00DA   0??? 0???      08512         PAGESEL _delay10ms
                      08513 ;; >>> ../../../../src/pic14/gen.c:2215:genCall
00DC   2???           08514         CALL    _delay10ms
                      08515 ;; >>> ../../../../src/pic14/gen.c:2223:genCall
00DD   0??? 0???      08516         PAGESEL $
                      08517 ;;; ../../../../src/pic14/gen.c:2358:resultRemat *{*
                      08518 ;; ***  genPlus  707
                      08519 ;;; ../../../../src/pic14/genarith.c:708:genPlus *{*
                      08520 ;;      708 register type nRegs=1
                      08521 ;;      589
                      08522 ;;      line = 714 result AOP_REG=r0x1047, size=1, left AOP_REG=r0x1047, size=1, right AOP_LIT=0x01, siz
                            e=1
                      08523 ;;; ../../../../src/pic14/genarith.c:159:genPlusIncr *{*
                      08524 ;; ***  genPlusIncr  161
                      08525 ;;      result AOP_REG, left AOP_REG, right AOP_LIT
                      08526 ;;      genPlusIncr  173
                      08527 ;; >>> ../../../../src/pic14/genarith.c:185:genPlusIncr
                      08528 ;;      1126 rIdx = r0x1047 
                      08529         .line   58; "src/measure.c"     for(i = 0; i < 6; i++) { // show progress bar
00DF   0??? 0???      08530         BANKSEL r0x1045
00E1   0A??           08531         INCF    r0x1045,F
                      08532 ;;; ../../../../src/pic14/gen.c:2358:resultRemat *{*
                      08533 ;;; ../../../../src/pic14/gen.c:3652:genCmpLt *{*
                      08534 ;; ***  genCmpLt  3653
                      08535 ;;      708 register type nRegs=1
                      08536 ;;; ../../../../src/pic14/gen.c:3354:genCmp *{*
                      08537 ;;unsigned compare: left < lit(0x6=6), size=1
                      08538 ;; >>> ../../../../src/pic14/gen.c:3325:pic14_mov2w_regOrLit
00E2   3006           08539         MOVLW   0x06
                      08540 ;; >>> ../../../../src/pic14/gen.c:3492:genCmp
                      08541 ;;      1126 rIdx = r0x1047 
00E3   02??           08542         SUBWF   r0x1045,W
                      08543 ;;; ../../../../src/pic14/gen.c:3297:genSkipc *{*
                      08544 ;; >>> ../../../../src/pic14/gen.c:3304:genSkipc
00E4   1C03           08545         BTFSS   STATUS,0
                      08546 ;; >>> ../../../../src/pic14/gen.c:3306:genSkipc
                      08547 ;; ***  popGetLabel  key=2, label offset 4
00E5   2???           08548         GOTO    _00106_DS_
                      08549 ;;genSkipc:3307: created from rifx:0x7ffef9e7b340
                      08550 ;;; ../../../../src/pic14/gen.c:2358:resultRemat *{*
                      08551 ;;; ../../../../src/pic14/gen.c:2358:resultRemat *{*
                      08552 ;;; ../../../../src/pic14/gen.c:2358:resultRemat *{*
                      08553 ;;; ../../../../src/pic14/gen.c:7353:genCast *{*
                      08554 ;; ***  genCast  7354
                      08555 ;;      627
                      08556 ;;      aopForRemat 406
                      08557 ;;      432: rname ___str_1, val 0, const = 0
                      08558 ;;      708 register type nRegs=3
gpasm-1.5.0 #1285 (Jul 12 2020) obj/sdcc-16f8   11/12/23  13:12:30          PAGE 163


LOC    OBJECT CODE    LINE  SOURCE TEXT
  VALUE

                      08559 ;;      837: aopGet AOP_PCODE type PO_IMMEDIATE
                      08560 ;;      ___str_1
                      08561 ;;      line = 7362 result AOP_REG=r0x1047, size=3, left -=-, size=0, right AOP_PCODE=___str_1, size=2
                      08562 ;; ***  genCast  7408 (size=2)
                      08563 ;;; ../../../../src/pic14/gen.c:1357:mov2w_op *{*
                      08564 ;; >>> ../../../../src/pic14/gen.c:1375:mov2w_op
                      08565         .line   65; "src/measure.c"     ser_puts("\r\n");
00E6   30??           08566         MOVLW   high (___str_1 + 0)
                      08567 ;; >>> ../../../../src/pic14/gen.c:1407:movwf
                      08568 ;;      1126 rIdx = r0x1048 
00E7   00??           08569         MOVWF   r0x1044
                      08570 ;;; ../../../../src/pic14/gen.c:1357:mov2w_op *{*
                      08571 ;; >>> ../../../../src/pic14/gen.c:1375:mov2w_op
00E8   30??           08572         MOVLW   (___str_1 + 0)
                      08573 ;; >>> ../../../../src/pic14/gen.c:1407:movwf
                      08574 ;;      1126 rIdx = r0x1047 
00E9   00??           08575         MOVWF   r0x1045
                      08576 ;; ***  genCast  7465 (tag=128)
                      08577 ;; >>> ../../../../src/pic14/gen.c:7488:genCast
00EA   3080           08578         MOVLW   0x80
                      08579 ;; >>> ../../../../src/pic14/gen.c:1407:movwf
                      08580 ;;      1126 rIdx = r0x1049 
00EB   00??           08581         MOVWF   r0x1046
                      08582 ;; ***  addSign  1087
                      08583 ;;; ../../../../src/pic14/genarith.c:1088:addSign *{*
                      08584 ;;; ../../../../src/pic14/gen.c:2358:resultRemat *{*
                      08585 ;;; ../../../../src/pic14/gen.c:2358:resultRemat *{*
                      08586 ;;; ../../../../src/pic14/gen.c:2108:genCall *{*
                      08587 ;; ***  genCall  2110
                      08588 ;;      708 register type nRegs=3
                      08589 ;;      708 register type nRegs=3
                      08590 ;;      2158 left AOP_REG
                      08591 ;;; ../../../../src/pic14/gen.c:1357:mov2w_op *{*
                      08592 ;; ***  mov2w  1395  offset=0
                      08593 ;; >>> ../../../../src/pic14/gen.c:1400:mov2w
                      08594 ;;      1126 rIdx = r0x1047 
00EC   08??           08595         MOVF    r0x1045,W
                      08596 ;;      2158 left AOP_REG
                      08597 ;; >>> ../../../../src/pic14/gen.c:2166:genCall
                      08598 ;; ***  popRegFromIdx,1059  , rIdx=0x7e
00ED   00??           08599         MOVWF   STK01
                      08600 ;;; ../../../../src/pic14/gen.c:1357:mov2w_op *{*
                      08601 ;; ***  mov2w  1395  offset=1
                      08602 ;; >>> ../../../../src/pic14/gen.c:1400:mov2w
                      08603 ;;      1126 rIdx = r0x1048 
00EE   08??           08604         MOVF    r0x1044,W
                      08605 ;;      2158 left AOP_REG
                      08606 ;; >>> ../../../../src/pic14/gen.c:2166:genCall
                      08607 ;; ***  popRegFromIdx,1059  , rIdx=0x7f
00EF   00??           08608         MOVWF   STK00
                      08609 ;;; ../../../../src/pic14/gen.c:1357:mov2w_op *{*
                      08610 ;; ***  mov2w  1395  offset=2
                      08611 ;; >>> ../../../../src/pic14/gen.c:1400:mov2w
gpasm-1.5.0 #1285 (Jul 12 2020) obj/sdcc-16f8   11/12/23  13:12:30          PAGE 164


LOC    OBJECT CODE    LINE  SOURCE TEXT
  VALUE

                      08612 ;;      1126 rIdx = r0x1049 
00F0   08??           08613         MOVF    r0x1046,W
                      08614 ;; >>> ../../../../src/pic14/gen.c:2207:genCall
00F1   0??? 0???      08615         PAGESEL _ser_puts
                      08616 ;; >>> ../../../../src/pic14/gen.c:2215:genCall
00F3   2???           08617         CALL    _ser_puts
                      08618 ;; >>> ../../../../src/pic14/gen.c:2223:genCall
00F4   0??? 0???      08619         PAGESEL $
                      08620 ;;; ../../../../src/pic14/gen.c:2358:resultRemat *{*
                      08621 ;;; ../../../../src/pic14/gen.c:2802:genLabel *{*
                      08622 ;; ***  genLabel  2805
                      08623 ;;; ../../../../src/pic14/gen.c:2358:resultRemat *{*
                      08624 ;;; ../../../../src/pic14/gen.c:2570:genEndFunction *{*
                      08625 ;; ***  genEndFunction  2572
                      08626         .line   67; "src/measure.c"     }
00F6   0008           08627         RETURN  
                      08628 ; exit point of _calibrate
                      08629 ;;; ../../../../src/pic14/gen.c:7677:genpic14Code *{*
                      08630 
                      08631 
                      08632 ;       code size estimation:
                      08633 ;        1510+  421 =  1931 instructions ( 4704 byte)
                      08634 
                      08635         end
gpasm-1.5.0 #1285 (Jul 12 2020) obj/sdcc-16f8   11/12/23  13:12:30          PAGE 165


SYMBOL TABLE
  LABEL                              TYPE        VALUE         VALUE          VALUE
                                                 (hex)         (dec)          (text)

ACKDT                             CONSTANT      00000005              5
ACKEN                             CONSTANT      00000004              4
ACKSTAT                           CONSTANT      00000006              6
ADCON0                            CONSTANT      0000001F             31
ADCON1                            CONSTANT      0000009F            159
ADCS0                             CONSTANT      00000006              6
ADCS1                             CONSTANT      00000007              7
ADCS2                             CONSTANT      00000006              6
ADDEN                             CONSTANT      00000003              3
ADFM                              CONSTANT      00000007              7
ADIE                              CONSTANT      00000006              6
ADIF                              CONSTANT      00000006              6
ADON                              CONSTANT      00000000              0
ADRESH                            CONSTANT      0000001E             30
ADRESL                            CONSTANT      0000009E            158
BCLIE                             CONSTANT      00000003              3
BCLIF                             CONSTANT      00000003              3
BF                                CONSTANT      00000000              0
BRGH                              CONSTANT      00000002              2
C                                 CONSTANT      00000000              0
CCPR1                             CONSTANT      00000015             21
CCPR1H                            CONSTANT      00000016             22
CCPR1L                            CONSTANT      00000015             21
CCPR2                             CONSTANT      0000001B             27
CCPR2H                            CONSTANT      0000001C             28
CCPR2L                            CONSTANT      0000001B             27
CCP1CON                           CONSTANT      00000017             23
CCP1IE                            CONSTANT      00000002              2
CCP1IF                            CONSTANT      00000002              2
CCP1M0                            CONSTANT      00000000              0
CCP1M1                            CONSTANT      00000001              1
CCP1M2                            CONSTANT      00000002              2
CCP1M3                            CONSTANT      00000003              3
CCP1X                             CONSTANT      00000005              5
CCP1Y                             CONSTANT      00000004              4
CCP2CON                           CONSTANT      0000001D             29
CCP2IE                            CONSTANT      00000000              0
CCP2IF                            CONSTANT      00000000              0
CCP2M0                            CONSTANT      00000000              0
CCP2M1                            CONSTANT      00000001              1
CCP2M2                            CONSTANT      00000002              2
CCP2M3                            CONSTANT      00000003              3
CCP2X                             CONSTANT      00000005              5
CCP2Y                             CONSTANT      00000004              4
CHS0                              CONSTANT      00000003              3
CHS1                              CONSTANT      00000004              4
CHS2                              CONSTANT      00000005              5
CIS                               CONSTANT      00000003              3
CKE                               CONSTANT      00000006              6
CKP                               CONSTANT      00000004              4
CM0                               CONSTANT      00000000              0
CMCON                             CONSTANT      0000009C            156
gpasm-1.5.0 #1285 (Jul 12 2020) obj/sdcc-16f8   11/12/23  13:12:30          PAGE 166


SYMBOL TABLE
  LABEL                              TYPE        VALUE         VALUE          VALUE
                                                 (hex)         (dec)          (text)

CMIE                              CONSTANT      00000006              6
CMIF                              CONSTANT      00000006              6
CM1                               CONSTANT      00000001              1
CM2                               CONSTANT      00000002              2
CREN                              CONSTANT      00000004              4
CSRC                              CONSTANT      00000007              7
CVR0                              CONSTANT      00000000              0
CVRCON                            CONSTANT      0000009D            157
CVREN                             CONSTANT      00000007              7
CVROE                             CONSTANT      00000006              6
CVRR                              CONSTANT      00000005              5
CVR1                              CONSTANT      00000001              1
CVR2                              CONSTANT      00000002              2
CVR3                              CONSTANT      00000003              3
C1INV                             CONSTANT      00000004              4
C1OUT                             CONSTANT      00000006              6
C2INV                             CONSTANT      00000005              5
C2OUT                             CONSTANT      00000007              7
D                                 CONSTANT      00000005              5
DATA_ADDRESS                      CONSTANT      00000005              5
DC                                CONSTANT      00000001              1
D_A                               CONSTANT      00000005              5
D_NOT_A                           CONSTANT      00000005              5
EEADR                             CONSTANT      0000010D            269
EEADRH                            CONSTANT      0000010F            271
EECON1                            CONSTANT      0000018C            396
EECON2                            CONSTANT      0000018D            397
EEDATA                            CONSTANT      0000010C            268
EEDATH                            CONSTANT      0000010E            270
EEIE                              CONSTANT      00000004              4
EEIF                              CONSTANT      00000004              4
EEPGD                             CONSTANT      00000007              7
F                                 CONSTANT      00000001              1
FERR                              CONSTANT      00000002              2
FSR                               CONSTANT      00000004              4
GCEN                              CONSTANT      00000007              7
GIE                               CONSTANT      00000007              7
GO                                CONSTANT      00000002              2
GO_DONE                           CONSTANT      00000002              2
GO_NOT_DONE                       CONSTANT      00000002              2
INDF                              CONSTANT      00000000              0
INTCON                            CONSTANT      0000000B             11
INTE                              CONSTANT      00000004              4
INTEDG                            CONSTANT      00000006              6
INTF                              CONSTANT      00000001              1
IRP                               CONSTANT      00000007              7
I2C_DATA                          CONSTANT      00000005              5
I2C_READ                          CONSTANT      00000002              2
I2C_START                         CONSTANT      00000003              3
I2C_STOP                          CONSTANT      00000004              4
NOT_A                             CONSTANT      00000005              5
NOT_ADDRESS                       CONSTANT      00000005              5
gpasm-1.5.0 #1285 (Jul 12 2020) obj/sdcc-16f8   11/12/23  13:12:30          PAGE 167


SYMBOL TABLE
  LABEL                              TYPE        VALUE         VALUE          VALUE
                                                 (hex)         (dec)          (text)

NOT_BO                            CONSTANT      00000000              0
NOT_BOR                           CONSTANT      00000000              0
NOT_DONE                          CONSTANT      00000002              2
NOT_PD                            CONSTANT      00000003              3
NOT_POR                           CONSTANT      00000001              1
NOT_RBPU                          CONSTANT      00000007              7
NOT_RC8                           CONSTANT      00000006              6
NOT_TO                            CONSTANT      00000004              4
NOT_TX8                           CONSTANT      00000006              6
NOT_T1SYNC                        CONSTANT      00000002              2
NOT_W                             CONSTANT      00000002              2
NOT_WRITE                         CONSTANT      00000002              2
OERR                              CONSTANT      00000001              1
OPTION_REG                        CONSTANT      00000081            129
P                                 CONSTANT      00000004              4
PCFG0                             CONSTANT      00000000              0
PCFG1                             CONSTANT      00000001              1
PCFG2                             CONSTANT      00000002              2
PCFG3                             CONSTANT      00000003              3
PCL                               CONSTANT      00000002              2
PCLATH                            CONSTANT      0000000A             10
PCON                              CONSTANT      0000008E            142
PEIE                              CONSTANT      00000006              6
PEN                               CONSTANT      00000002              2
PIE1                              CONSTANT      0000008C            140
PIE2                              CONSTANT      0000008D            141
PIR1                              CONSTANT      0000000C             12
PIR2                              CONSTANT      0000000D             13
PORTA                             CONSTANT      00000005              5
PORTB                             CONSTANT      00000006              6
PORTC                             CONSTANT      00000007              7
PR2                               CONSTANT      00000092            146
PS0                               CONSTANT      00000000              0
PSA                               CONSTANT      00000003              3
PSAVE                             EXTERNAL      00000000              0
PS1                               CONSTANT      00000001              1
PS2                               CONSTANT      00000002              2
R                                 CONSTANT      00000002              2
RA0                               CONSTANT      00000000              0
RA1                               CONSTANT      00000001              1
RA2                               CONSTANT      00000002              2
RA3                               CONSTANT      00000003              3
RA4                               CONSTANT      00000004              4
RA5                               CONSTANT      00000005              5
RB0                               CONSTANT      00000000              0
RBIE                              CONSTANT      00000003              3
RBIF                              CONSTANT      00000000              0
RB1                               CONSTANT      00000001              1
RB2                               CONSTANT      00000002              2
RB3                               CONSTANT      00000003              3
RB4                               CONSTANT      00000004              4
RB5                               CONSTANT      00000005              5
gpasm-1.5.0 #1285 (Jul 12 2020) obj/sdcc-16f8   11/12/23  13:12:30          PAGE 168


SYMBOL TABLE
  LABEL                              TYPE        VALUE         VALUE          VALUE
                                                 (hex)         (dec)          (text)

RB6                               CONSTANT      00000006              6
RB7                               CONSTANT      00000007              7
RC0                               CONSTANT      00000000              0
RCD8                              CONSTANT      00000000              0
RCEN                              CONSTANT      00000003              3
RCIE                              CONSTANT      00000005              5
RCIF                              CONSTANT      00000005              5
RCREG                             CONSTANT      0000001A             26
RCSTA                             CONSTANT      00000018             24
RC1                               CONSTANT      00000001              1
RC2                               CONSTANT      00000002              2
RC3                               CONSTANT      00000003              3
RC4                               CONSTANT      00000004              4
RC5                               CONSTANT      00000005              5
RC6                               CONSTANT      00000006              6
RC7                               CONSTANT      00000007              7
RC8_9                             CONSTANT      00000006              6
RC9                               CONSTANT      00000006              6
RD                                CONSTANT      00000000              0
READ_WRITE                        CONSTANT      00000002              2
RP0                               CONSTANT      00000005              5
RP1                               CONSTANT      00000006              6
RSEN                              CONSTANT      00000001              1
RX9                               CONSTANT      00000006              6
RX9D                              CONSTANT      00000000              0
R_NOT_W                           CONSTANT      00000002              2
R_W                               CONSTANT      00000002              2
S                                 CONSTANT      00000003              3
SEN                               CONSTANT      00000000              0
SMP                               CONSTANT      00000007              7
SPBRG                             CONSTANT      00000099            153
SPEN                              CONSTANT      00000007              7
SREN                              CONSTANT      00000005              5
SSAVE                             EXTERNAL      00000000              0
SSPADD                            CONSTANT      00000093            147
SSPBUF                            CONSTANT      00000013             19
SSPCON                            CONSTANT      00000014             20
SSPCON2                           CONSTANT      00000091            145
SSPEN                             CONSTANT      00000005              5
SSPIE                             CONSTANT      00000003              3
SSPIF                             CONSTANT      00000003              3
SSPM0                             CONSTANT      00000000              0
SSPM1                             CONSTANT      00000001              1
SSPM2                             CONSTANT      00000002              2
SSPM3                             CONSTANT      00000003              3
SSPOV                             CONSTANT      00000006              6
SSPSTAT                           CONSTANT      00000094            148
STATUS                            CONSTANT      00000003              3
STK00                             EXTERNAL      00000000              0
STK01                             EXTERNAL      00000000              0
STK02                             EXTERNAL      00000000              0
STK03                             EXTERNAL      00000000              0
gpasm-1.5.0 #1285 (Jul 12 2020) obj/sdcc-16f8   11/12/23  13:12:30          PAGE 169


SYMBOL TABLE
  LABEL                              TYPE        VALUE         VALUE          VALUE
                                                 (hex)         (dec)          (text)

STK04                             EXTERNAL      00000000              0
STK05                             EXTERNAL      00000000              0
STK06                             EXTERNAL      00000000              0
STK07                             EXTERNAL      00000000              0
STK08                             EXTERNAL      00000000              0
STK09                             EXTERNAL      00000000              0
STK10                             EXTERNAL      00000000              0
STK11                             EXTERNAL      00000000              0
STK12                             EXTERNAL      00000000              0
SYNC                              CONSTANT      00000004              4
T0CS                              CONSTANT      00000005              5
T0IE                              CONSTANT      00000005              5
T0IF                              CONSTANT      00000002              2
T0SE                              CONSTANT      00000004              4
TMR0                              CONSTANT      00000001              1
TMR0IE                            CONSTANT      00000005              5
TMR0IF                            CONSTANT      00000002              2
TMR1                              CONSTANT      0000000E             14
TMR1CS                            CONSTANT      00000001              1
TMR1H                             CONSTANT      0000000F             15
TMR1IE                            CONSTANT      00000000              0
TMR1IF                            CONSTANT      00000000              0
TMR1L                             CONSTANT      0000000E             14
TMR1ON                            CONSTANT      00000000              0
TMR2                              CONSTANT      00000011             17
TMR2IE                            CONSTANT      00000001              1
TMR2IF                            CONSTANT      00000001              1
TMR2ON                            CONSTANT      00000002              2
TOUTPS0                           CONSTANT      00000003              3
TOUTPS1                           CONSTANT      00000004              4
TOUTPS2                           CONSTANT      00000005              5
TOUTPS3                           CONSTANT      00000006              6
TRISA                             CONSTANT      00000085            133
TRISA0                            CONSTANT      00000000              0
TRISA1                            CONSTANT      00000001              1
TRISA2                            CONSTANT      00000002              2
TRISA3                            CONSTANT      00000003              3
TRISA4                            CONSTANT      00000004              4
TRISA5                            CONSTANT      00000005              5
TRISB                             CONSTANT      00000086            134
TRISB0                            CONSTANT      00000000              0
TRISB1                            CONSTANT      00000001              1
TRISB2                            CONSTANT      00000002              2
TRISB3                            CONSTANT      00000003              3
TRISB4                            CONSTANT      00000004              4
TRISB5                            CONSTANT      00000005              5
TRISB6                            CONSTANT      00000006              6
TRISB7                            CONSTANT      00000007              7
TRISC                             CONSTANT      00000087            135
TRISC0                            CONSTANT      00000000              0
TRISC1                            CONSTANT      00000001              1
TRISC2                            CONSTANT      00000002              2
gpasm-1.5.0 #1285 (Jul 12 2020) obj/sdcc-16f8   11/12/23  13:12:30          PAGE 170


SYMBOL TABLE
  LABEL                              TYPE        VALUE         VALUE          VALUE
                                                 (hex)         (dec)          (text)

TRISC3                            CONSTANT      00000003              3
TRISC4                            CONSTANT      00000004              4
TRISC5                            CONSTANT      00000005              5
TRISC6                            CONSTANT      00000006              6
TRISC7                            CONSTANT      00000007              7
TRMT                              CONSTANT      00000001              1
TXD8                              CONSTANT      00000000              0
TXEN                              CONSTANT      00000005              5
TXIE                              CONSTANT      00000004              4
TXIF                              CONSTANT      00000004              4
TXREG                             CONSTANT      00000019             25
TXSTA                             CONSTANT      00000098            152
TX8_9                             CONSTANT      00000006              6
TX9                               CONSTANT      00000006              6
TX9D                              CONSTANT      00000000              0
T1CKPS0                           CONSTANT      00000004              4
T1CKPS1                           CONSTANT      00000005              5
T1CON                             CONSTANT      00000010             16
T1INSYNC                          CONSTANT      00000002              2
T1OSCEN                           CONSTANT      00000003              3
T1SYNC                            CONSTANT      00000002              2
T2CKPS0                           CONSTANT      00000000              0
T2CKPS1                           CONSTANT      00000001              1
T2CON                             CONSTANT      00000012             18
UA                                CONSTANT      00000001              1
W                                 CONSTANT      00000000              0
WCOL                              CONSTANT      00000007              7
WR                                CONSTANT      00000001              1
WREN                              CONSTANT      00000002              2
WRERR                             CONSTANT      00000003              3
WSAVE                             EXTERNAL      00000000              0
Z                                 CONSTANT      00000002              2
_00106_DS_                        ADDRESS       000000D3            211
_00120_DS_                        ADDRESS       00000230            560
_00122_DS_                        ADDRESS       000003D2            978
_00125_DS_                        ADDRESS       000003F6           1014
_00128_DS_                        ADDRESS       0000041A           1050
_00129_DS_                        ADDRESS       0000041E           1054
_00135_DS_                        ADDRESS       00000068            104
_00137_DS_                        ADDRESS       00000284            644
_00140_DS_                        ADDRESS       000002A6            678
_00143_DS_                        ADDRESS       000002C8            712
_00144_DS_                        ADDRESS       000002CC            716
_BODEN_OFF                        CONSTANT      00003FBF          16319
_BODEN_ON                         CONSTANT      00003FFF          16383
_BOREN_OFF                        CONSTANT      00003FBF          16319
_BOREN_ON                         CONSTANT      00003FFF          16383
_CCal                             EXTERNAL      00000000              0
_CONFIG                           CONSTANT      00002007           8199
_CPD_OFF                          CONSTANT      00003FFF          16383
_CPD_ON                           CONSTANT      00003EFF          16127
_CP_ALL                           CONSTANT      00001FFF           8191
gpasm-1.5.0 #1285 (Jul 12 2020) obj/sdcc-16f8   11/12/23  13:12:30          PAGE 171


SYMBOL TABLE
  LABEL                              TYPE        VALUE         VALUE          VALUE
                                                 (hex)         (dec)          (text)

_CP_OFF                           CONSTANT      00003FFF          16383
_CP_ON                            CONSTANT      00001FFF           8191
_DEBUG_OFF                        CONSTANT      00003FFF          16383
_DEBUG_ON                         CONSTANT      000037FF          14335
_DEVID1                           CONSTANT      00002006           8198
_FOSC_EXTRC                       CONSTANT      00003FFF          16383
_FOSC_HS                          CONSTANT      00003FFE          16382
_FOSC_LP                          CONSTANT      00003FFC          16380
_FOSC_XT                          CONSTANT      00003FFD          16381
_F1                               EXTERNAL      00000000              0
_F2                               EXTERNAL      00000000              0
_F3                               EXTERNAL      00000000              0
_HS_OSC                           CONSTANT      00003FFE          16382
_IDLOC0                           CONSTANT      00002000           8192
_IDLOC1                           CONSTANT      00002001           8193
_IDLOC2                           CONSTANT      00002002           8194
_IDLOC3                           CONSTANT      00002003           8195
_INTCONbits                       EXTERNAL      00000000              0
_LP_OSC                           CONSTANT      00003FFC          16380
_LVP_OFF                          CONSTANT      00003F7F          16255
_LVP_ON                           CONSTANT      00003FFF          16383
_PORTC                            EXTERNAL      00000000              0
_PWRTE_OFF                        CONSTANT      00003FFF          16383
_PWRTE_ON                         CONSTANT      00003FF7          16375
_RC_OSC                           CONSTANT      00003FFF          16383
_S_measure__buf_to_ser_001C       ADDRESS       0000001C             28
_S_measure__calibrate_0003        ADDRESS       00000003              3
_S_measure__calibrate_000B        ADDRESS       0000000B             11
_S_measure__calibrate_001D        ADDRESS       0000001D             29
_S_measure__calibrate_0025        ADDRESS       00000025             37
_S_measure__calibrate_0037        ADDRESS       00000037             55
_S_measure__calibrate_0049        ADDRESS       00000049             73
_S_measure__calibrate_0051        ADDRESS       00000051             81
_S_measure__calibrate_005D        ADDRESS       0000005D             93
_S_measure__calibrate_006C        ADDRESS       0000006C            108
_S_measure__calibrate_0071        ADDRESS       00000071            113
_S_measure__calibrate_007D        ADDRESS       0000007D            125
_S_measure__calibrate_008E        ADDRESS       0000008E            142
_S_measure__calibrate_009A        ADDRESS       0000009A            154
_S_measure__calibrate_00AE        ADDRESS       000000AE            174
_S_measure__calibrate_00A9        ADDRESS       000000A9            169
_S_measure__calibrate_00BA        ADDRESS       000000BA            186
_S_measure__calibrate_00CE        ADDRESS       000000CE            206
_S_measure__calibrate_00DD        ADDRESS       000000DD            221
_S_measure__calibrate_00D7        ADDRESS       000000D7            215
_S_measure__calibrate_00F4        ADDRESS       000000F4            244
_S_measure__measure_capacitance_0006  ADDRESS       00000006              6
_S_measure__measure_capacitance_0018  ADDRESS       00000018             24
_S_measure__measure_capacitance_001D  ADDRESS       0000001D             29
_S_measure__measure_capacitance_0029  ADDRESS       00000029             41
_S_measure__measure_capacitance_0044  ADDRESS       00000044             68
_S_measure__measure_capacitance_005A  ADDRESS       0000005A             90
gpasm-1.5.0 #1285 (Jul 12 2020) obj/sdcc-16f8   11/12/23  13:12:30          PAGE 172


SYMBOL TABLE
  LABEL                              TYPE        VALUE         VALUE          VALUE
                                                 (hex)         (dec)          (text)

_S_measure__measure_capacitance_006C  ADDRESS       0000006C            108
_S_measure__measure_capacitance_007E  ADDRESS       0000007E            126
_S_measure__measure_capacitance_0084  ADDRESS       00000084            132
_S_measure__measure_capacitance_00BD  ADDRESS       000000BD            189
_S_measure__measure_capacitance_00CF  ADDRESS       000000CF            207
_S_measure__measure_capacitance_00E1  ADDRESS       000000E1            225
_S_measure__measure_capacitance_00E7  ADDRESS       000000E7            231
_S_measure__measure_capacitance_0120  ADDRESS       00000120            288
_S_measure__measure_capacitance_0132  ADDRESS       00000132            306
_S_measure__measure_capacitance_0144  ADDRESS       00000144            324
_S_measure__measure_capacitance_014A  ADDRESS       0000014A            330
_S_measure__measure_capacitance_0183  ADDRESS       00000183            387
_S_measure__measure_capacitance_0195  ADDRESS       00000195            405
_S_measure__measure_capacitance_01AD  ADDRESS       000001AD            429
_S_measure__measure_capacitance_01A7  ADDRESS       000001A7            423
_S_measure__measure_capacitance_01E6  ADDRESS       000001E6            486
_S_measure__measure_capacitance_01F8  ADDRESS       000001F8            504
_S_measure__measure_capacitance_0210  ADDRESS       00000210            528
_S_measure__measure_capacitance_0244  ADDRESS       00000244            580
_S_measure__measure_capacitance_0263  ADDRESS       00000263            611
_S_measure__measure_capacitance_0282  ADDRESS       00000282            642
_S_measure__measure_capacitance_029D  ADDRESS       0000029D            669
_S_measure__measure_capacitance_02B9  ADDRESS       000002B9            697
_S_measure__measure_capacitance_02DA  ADDRESS       000002DA            730
_S_measure__measure_capacitance_02F5  ADDRESS       000002F5            757
_S_measure__measure_capacitance_0307  ADDRESS       00000307            775
_S_measure__measure_capacitance_030D  ADDRESS       0000030D            781
_S_measure__measure_capacitance_0346  ADDRESS       00000346            838
_S_measure__measure_capacitance_0358  ADDRESS       00000358            856
_S_measure__measure_capacitance_036E  ADDRESS       0000036E            878
_S_measure__measure_capacitance_038A  ADDRESS       0000038A            906
_S_measure__measure_capacitance_03A6  ADDRESS       000003A6            934
_S_measure__measure_capacitance_03C2  ADDRESS       000003C2            962
_S_measure__measure_capacitance_03E6  ADDRESS       000003E6            998
_S_measure__measure_capacitance_040A  ADDRESS       0000040A           1034
_S_measure__measure_capacitance_0432  ADDRESS       00000432           1074
_S_measure__measure_capacitance_0447  ADDRESS       00000447           1095
_S_measure__measure_capacitance_0453  ADDRESS       00000453           1107
_S_measure__measure_capacitance_045B  ADDRESS       0000045B           1115
_S_measure__measure_freq_000C     ADDRESS       0000000C             12
_S_measure__measure_freq_0017     ADDRESS       00000017             23
_S_measure__measure_freq_001F     ADDRESS       0000001F             31
_S_measure__measure_freq_0027     ADDRESS       00000027             39
_S_measure__measure_freq_002F     ADDRESS       0000002F             47
_S_measure__measure_freq_0037     ADDRESS       00000037             55
_S_measure__measure_freq_003F     ADDRESS       0000003F             63
_S_measure__measure_freq_0047     ADDRESS       00000047             71
_S_measure__measure_freq_004F     ADDRESS       0000004F             79
_S_measure__measure_freq_0057     ADDRESS       00000057             87
_S_measure__measure_freq_005F     ADDRESS       0000005F             95
_S_measure__measure_freq_0067     ADDRESS       00000067            103
_S_measure__measure_freq_0074     ADDRESS       00000074            116
gpasm-1.5.0 #1285 (Jul 12 2020) obj/sdcc-16f8   11/12/23  13:12:30          PAGE 173


SYMBOL TABLE
  LABEL                              TYPE        VALUE         VALUE          VALUE
                                                 (hex)         (dec)          (text)

_S_measure__measure_freq_0079     ADDRESS       00000079            121
_S_measure__measure_freq_008B     ADDRESS       0000008B            139
_S_measure__measure_freq_009D     ADDRESS       0000009D            157
_S_measure__measure_freq_00A2     ADDRESS       000000A2            162
_S_measure__measure_inductance_0006  ADDRESS       00000006              6
_S_measure__measure_inductance_0018  ADDRESS       00000018             24
_S_measure__measure_inductance_001D  ADDRESS       0000001D             29
_S_measure__measure_inductance_0029  ADDRESS       00000029             41
_S_measure__measure_inductance_0048  ADDRESS       00000048             72
_S_measure__measure_inductance_007C  ADDRESS       0000007C            124
_S_measure__measure_inductance_009B  ADDRESS       0000009B            155
_S_measure__measure_inductance_00B7  ADDRESS       000000B7            183
_S_measure__measure_inductance_00D4  ADDRESS       000000D4            212
_S_measure__measure_inductance_00F0  ADDRESS       000000F0            240
_S_measure__measure_inductance_010F  ADDRESS       0000010F            271
_S_measure__measure_inductance_0130  ADDRESS       00000130            304
_S_measure__measure_inductance_0151  ADDRESS       00000151            337
_S_measure__measure_inductance_0172  ADDRESS       00000172            370
_S_measure__measure_inductance_0193  ADDRESS       00000193            403
_S_measure__measure_inductance_01B4  ADDRESS       000001B4            436
_S_measure__measure_inductance_01D5  ADDRESS       000001D5            469
_S_measure__measure_inductance_01F1  ADDRESS       000001F1            497
_S_measure__measure_inductance_020D  ADDRESS       0000020D            525
_S_measure__measure_inductance_0229  ADDRESS       00000229            553
_S_measure__measure_inductance_0243  ADDRESS       00000243            579
_S_measure__measure_inductance_025D  ADDRESS       0000025D            605
_S_measure__measure_inductance_0277  ADDRESS       00000277            631
_S_measure__measure_inductance_0298  ADDRESS       00000298            664
_S_measure__measure_inductance_02BA  ADDRESS       000002BA            698
_S_measure__measure_inductance_02E0  ADDRESS       000002E0            736
_S_measure__measure_inductance_02F4  ADDRESS       000002F4            756
_S_measure__measure_inductance_0300  ADDRESS       00000300            768
_S_measure__measure_inductance_0308  ADDRESS       00000308            776
_TMR0                             EXTERNAL      00000000              0
_TRISA                            EXTERNAL      00000000              0
_WDTE_OFF                         CONSTANT      00003FFB          16379
_WDTE_ON                          CONSTANT      00003FFF          16383
_WDT_OFF                          CONSTANT      00003FFB          16379
_WDT_ON                           CONSTANT      00003FFF          16383
_WRT_HALF                         CONSTANT      000039FF          14847
_WRT_OFF                          CONSTANT      00003FFF          16383
_WRT_1FOURTH                      CONSTANT      00003BFF          15359
_WRT_256                          CONSTANT      00003DFF          15871
_XT_OSC                           CONSTANT      00003FFD          16381
__ACTIVE_BANK_ADDR                VARIABLE      FFFFFFFF             -1
__ACTIVE_PAGE_ADDR                VARIABLE      FFFFFFFF             -1
__ASSUMED_BANK_ADDR               VARIABLE      FFFFFFFF             -1
__BANK_0                          CONSTANT      00000000              0
__BANK_BITS                       CONSTANT      00000180            384
__BANK_FIRST                      CONSTANT      00000000              0
__BANK_INV                        CONSTANT      FFFFFFFF             -1
__BANK_LAST                       CONSTANT      00000180            384
gpasm-1.5.0 #1285 (Jul 12 2020) obj/sdcc-16f8   11/12/23  13:12:30          PAGE 174


SYMBOL TABLE
  LABEL                              TYPE        VALUE         VALUE          VALUE
                                                 (hex)         (dec)          (text)

__BANK_MASK                       CONSTANT      0000007F            127
__BANK_SHIFT                      CONSTANT      00000007              7
__BANK_SIZE                       CONSTANT      00000080            128
__BANK_1                          CONSTANT      00000080            128
__BANK_2                          CONSTANT      00000100            256
__BANK_3                          CONSTANT      00000180            384
__CODE_END                        CONSTANT      00001FFF           8191
__CODE_START                      CONSTANT      00000000              0
__COMMON_RAM_END                  CONSTANT      0000007F            127
__COMMON_RAM_START                CONSTANT      00000070            112
__CONFIG_END                      CONSTANT      00002007           8199
__CONFIG_START                    CONSTANT      00002007           8199
__EEPROM_END                      CONSTANT      000021FF           8703
__EEPROM_START                    CONSTANT      00002100           8448
__GPUTILS_SVN_VERSION             CONSTANT      00000505           1285
__GPUTILS_VERSION_MAJOR           CONSTANT      00000001              1
__GPUTILS_VERSION_MICRO           CONSTANT      00000000              0
__GPUTILS_VERSION_MINOR           CONSTANT      00000005              5
__IDLOCS_END                      CONSTANT      00002003           8195
__IDLOCS_START                    CONSTANT      00002000           8192
__NUM_BANKS                       CONSTANT      00000004              4
__NUM_PAGES                       CONSTANT      00000004              4
__PAGE_0                          CONSTANT      00000000              0
__PAGE_BITS                       CONSTANT      00001800           6144
__PAGE_FIRST                      CONSTANT      00000000              0
__PAGE_INV                        CONSTANT      FFFFFFFF             -1
__PAGE_LAST                       CONSTANT      00001800           6144
__PAGE_MASK                       CONSTANT      000007FF           2047
__PAGE_SHIFT                      CONSTANT      0000000B             11
__PAGE_SIZE                       CONSTANT      00000800           2048
__PAGE_1                          CONSTANT      00000800           2048
__PAGE_2                          CONSTANT      00001000           4096
__PAGE_3                          CONSTANT      00001800           6144
__VECTOR_INT                      CONSTANT      00000004              4
__VECTOR_RESET                    CONSTANT      00000000              0
__WHILE_LOOP_COUNT_MAX            CONSTANT      000000FF            255
___fsdiv                          EXTERNAL      00000000              0
___fslt                           EXTERNAL      00000000              0
___fsmul                          EXTERNAL      00000000              0
___fssub                          EXTERNAL      00000000              0
___fs2uint                        EXTERNAL      00000000              0
___str_0                          ADDRESS       00000000              0
___str_1                          ADDRESS       00000000              0
___str_2                          ADDRESS       00000000              0
___str_3                          ADDRESS       00000000              0
___str_4                          ADDRESS       00000000              0
___str_5                          ADDRESS       00000000              0
___str_6                          ADDRESS       00000000              0
___str_7                          ADDRESS       00000000              0
___str_8                          ADDRESS       00000000              0
___str_9                          ADDRESS       00000000              0
___str_10                         ADDRESS       00000000              0
gpasm-1.5.0 #1285 (Jul 12 2020) obj/sdcc-16f8   11/12/23  13:12:30          PAGE 175


SYMBOL TABLE
  LABEL                              TYPE        VALUE         VALUE          VALUE
                                                 (hex)         (dec)          (text)

___str_11                         ADDRESS       00000000              0
___uint2fs                        EXTERNAL      00000000              0
__14_BIT                          CONSTANT      00000001              1
__16F876A                         CONSTANT      00000001              1
_buf_to_ser                       GLOBAL        00000000              0
_buffer                           EXTERNAL      00000000              0
_buffer_init                      EXTERNAL      00000000              0
_buffer_putch                     EXTERNAL      00000000              0
_buffer_puts                      EXTERNAL      00000000              0
_calibrate                        GLOBAL        00000000              0
_delay_ms                         EXTERNAL      00000000              0
_delay10ms                        EXTERNAL      00000000              0
_format_float                     EXTERNAL      00000000              0
_format_number                    EXTERNAL      00000000              0
_format_xint32                    EXTERNAL      00000000              0
_lcd_clear                        EXTERNAL      00000000              0
_lcd_gotoxy                       EXTERNAL      00000000              0
_lcd_putch                        EXTERNAL      00000000              0
_measure_capacitance              GLOBAL        00000000              0
_measure_capacitance_Cin_65536_66  STATIC        0000001E             30
_measure_freq                     GLOBAL        00000000              0
_measure_inductance               GLOBAL        00000000              0
_print_buffer                     EXTERNAL      00000000              0
_print_reading                    EXTERNAL      00000000              0
_print_unit                       EXTERNAL      00000000              0
_put_str                          EXTERNAL      00000000              0
_ser_put                          EXTERNAL      00000000              0
_ser_putch                        EXTERNAL      00000000              0
_ser_puts                         EXTERNAL      00000000              0
_timer0_read_ps                   EXTERNAL      00000000              0
r0x102A                           STATIC        00000017             23
r0x102B                           STATIC        00000016             22
r0x102C                           STATIC        00000018             24
r0x102D                           STATIC        00000019             25
r0x102E                           STATIC        0000001D             29
r0x102F                           STATIC        0000001C             28
r0x103A                           STATIC        00000015             21
r0x103B                           STATIC        00000014             20
r0x103C                           STATIC        00000013             19
r0x103E                           STATIC        00000009              9
r0x103F                           STATIC        00000008              8
r0x1025                           STATIC        00000004              4
r0x1026                           STATIC        00000003              3
r0x1027                           STATIC        00000006              6
r0x1028                           STATIC        00000005              5
r0x1029                           STATIC        00000007              7
r0x1030                           STATIC        0000001B             27
r0x1031                           STATIC        0000001A             26
r0x1032                           STATIC        0000000C             12
r0x1033                           STATIC        0000000B             11
r0x1034                           STATIC        0000000D             13
r0x1035                           STATIC        0000000E             14
gpasm-1.5.0 #1285 (Jul 12 2020) obj/sdcc-16f8   11/12/23  13:12:30          PAGE 176


SYMBOL TABLE
  LABEL                              TYPE        VALUE         VALUE          VALUE
                                                 (hex)         (dec)          (text)

r0x1036                           STATIC        0000000F             15
r0x1037                           STATIC        00000010             16
r0x1038                           STATIC        00000012             18
r0x1039                           STATIC        00000011             17
r0x1041                           STATIC        0000000A             10
r0x1044                           STATIC        00000001              1
r0x1045                           STATIC        00000000              0
r0x1046                           STATIC        00000002              2

Errors   :     0
Warnings :     0 reported,     0 suppressed
Messages :     0 reported,     0 suppressed

