

HI-TECH Software PIC PRO Macro Assembler V9.83 build 10920 
                                                                                               Wed Oct 26 08:36:06 2016

HI-TECH Software Omniscient Code Generator (PRO mode) build 10920
     1                           	processor	16F876A
     2                           	opt	pw 120
     3                           	opt	pm
     4                           	psect	config,global,class=CONFIG,delta=2
     5                           	psect	stringtext,global,reloc=256,class=STRCODE,delta=2
     6                           	psect	cinit,global,class=CODE,delta=2
     7                           	psect	bssCOMMON,global,class=COMMON,space=1,delta=1
     8                           	psect	bssBANK0,global,class=BANK0,space=1,delta=1
     9                           	psect	bssBANK1,global,class=BANK1,space=1,delta=1
    10                           	psect	clrtext,global,class=CODE,delta=2
    11                           	psect	cstackCOMMON,global,class=COMMON,space=1,delta=1
    12                           	psect	cstackBANK0,global,class=BANK0,space=1,delta=1
    13                           	psect	maintext,global,class=CODE,delta=2
    14                           	psect	text487,local,class=CODE,delta=2
    15                           	psect	text494,local,class=CODE,delta=2
    16                           	psect	text502,local,class=CODE,delta=2
    17                           	psect	intentry,global,class=CODE,delta=2
    18                           	psect	functab,global,reloc=256,class=CODE,delta=2
    19                           	psect	pa_nodes,global,class=CODE,delta=2
    20                           	dabs	1,0x7E,2
    21  000A                     	;#
    22                           
    23                           	psect	config
    24  0000' FF71               	dw	65393	;#
    25                           
    26                           	psect	stringtext
    27  0000'                    __pstringtext:	
    28  0000'                    stringtab:	
    29                           ;	global	stringtab,__stringbase
    30                           
    31                           
    32                           ;	String table - string pointers are 2 bytes each
    33  0000' 1BFF               	btfsc	btemp+1,7
    34  0001' 2800'              	ljmp	stringcode
    35  0002' 1383               	bcf	3,7
    36  0003' 187F               	btfsc	btemp+1,0
    37  0004' 1783               	bsf	3,7
    38  0005' 0800               	movf	0,w
    39  0006' 0A84               	incf	4,f
    40  0007' 1903               	skipnz
    41  0008' 0AFF               	incf	btemp+1,f
    42  0009' 0008               	return
    43  000A'                    stringcode:	
    44  000A' 087F               	movf	btemp+1,w
    45  000B' 397F               	andlw	127
    46  000C' 008A               	movwf	10
    47  000D' 0804               	movf	4,w
    48  000E' 0A84               	incf	4,f
    49  000F' 1903               	skipnz
    50  0010' 0AFF               	incf	btemp+1,f
    51  0011' 0082               	movwf	2
    52  0012'                    __stringbase:	
    53  0012'                    _lcd_font:	
    54  0012' 3400               	retlw	0
    55  0013' 3400               	retlw	0
    56  0014' 3400               	retlw	0
    57  0015' 3400               	retlw	0
    58  0016' 3400               	retlw	0
    59  0017' 3400               	retlw	0
    60  0018' 3400               	retlw	0
    61  0019' 342F               	retlw	47
    62  001A' 3400               	retlw	0
    63  001B' 3400               	retlw	0
    64  001C' 3400               	retlw	0
    65  001D' 3407               	retlw	7
    66  001E' 3400               	retlw	0
    67  001F' 3407               	retlw	7
    68  0020' 3400               	retlw	0
    69  0021' 3414               	retlw	20
    70  0022' 347F               	retlw	127
    71  0023' 3414               	retlw	20
    72  0024' 347F               	retlw	127
    73  0025' 3414               	retlw	20
    74  0026' 3424               	retlw	36
    75  0027' 342A               	retlw	42
    76  0028' 347F               	retlw	127
    77  0029' 342A               	retlw	42
    78  002A' 3412               	retlw	18
    79  002B' 3423               	retlw	35
    80  002C' 3413               	retlw	19
    81  002D' 3408               	retlw	8
    82  002E' 3464               	retlw	100
    83  002F' 3462               	retlw	98
    84  0030' 3436               	retlw	54
    85  0031' 3449               	retlw	73
    86  0032' 3455               	retlw	85
    87  0033' 3422               	retlw	34
    88  0034' 3450               	retlw	80
    89  0035' 3400               	retlw	0
    90  0036' 3405               	retlw	5
    91  0037' 3403               	retlw	3
    92  0038' 3400               	retlw	0
    93  0039' 3400               	retlw	0
    94  003A' 3400               	retlw	0
    95  003B' 341C               	retlw	28
    96  003C' 3422               	retlw	34
    97  003D' 3441               	retlw	65
    98  003E' 3400               	retlw	0
    99  003F' 3400               	retlw	0
   100  0040' 3441               	retlw	65
   101  0041' 3422               	retlw	34
   102  0042' 341C               	retlw	28
   103  0043' 3400               	retlw	0
   104  0044' 3414               	retlw	20
   105  0045' 3408               	retlw	8
   106  0046' 343E               	retlw	62
   107  0047' 3408               	retlw	8
   108  0048' 3414               	retlw	20
   109  0049' 3408               	retlw	8
   110  004A' 3408               	retlw	8
   111  004B' 343E               	retlw	62
   112  004C' 3408               	retlw	8
   113  004D' 3408               	retlw	8
   114  004E' 3400               	retlw	0
   115  004F' 3400               	retlw	0
   116  0050' 3450               	retlw	80
   117  0051' 3430               	retlw	48
   118  0052' 3400               	retlw	0
   119  0053' 3410               	retlw	16
   120  0054' 3410               	retlw	16
   121  0055' 3410               	retlw	16
   122  0056' 3410               	retlw	16
   123  0057' 3410               	retlw	16
   124  0058' 3400               	retlw	0
   125  0059' 3460               	retlw	96
   126  005A' 3460               	retlw	96
   127  005B' 3400               	retlw	0
   128  005C' 3400               	retlw	0
   129  005D' 3420               	retlw	32
   130  005E' 3410               	retlw	16
   131  005F' 3408               	retlw	8
   132  0060' 3404               	retlw	4
   133  0061' 3402               	retlw	2
   134  0062' 343E               	retlw	62
   135  0063' 3451               	retlw	81
   136  0064' 3449               	retlw	73
   137  0065' 3445               	retlw	69
   138  0066' 343E               	retlw	62
   139  0067' 3400               	retlw	0
   140  0068' 3442               	retlw	66
   141  0069' 347F               	retlw	127
   142  006A' 3440               	retlw	64
   143  006B' 3400               	retlw	0
   144  006C' 3442               	retlw	66
   145  006D' 3461               	retlw	97
   146  006E' 3451               	retlw	81
   147  006F' 3449               	retlw	73
   148  0070' 3446               	retlw	70
   149  0071' 3421               	retlw	33
   150  0072' 3441               	retlw	65
   151  0073' 3445               	retlw	69
   152  0074' 344B               	retlw	75
   153  0075' 3431               	retlw	49
   154  0076' 3418               	retlw	24
   155  0077' 3414               	retlw	20
   156  0078' 3412               	retlw	18
   157  0079' 347F               	retlw	127
   158  007A' 3410               	retlw	16
   159  007B' 3427               	retlw	39
   160  007C' 3445               	retlw	69
   161  007D' 3445               	retlw	69
   162  007E' 3445               	retlw	69
   163  007F' 3439               	retlw	57
   164  0080' 343C               	retlw	60
   165  0081' 344A               	retlw	74
   166  0082' 3449               	retlw	73
   167  0083' 3449               	retlw	73
   168  0084' 3430               	retlw	48
   169  0085' 3401               	retlw	1
   170  0086' 3471               	retlw	113
   171  0087' 3409               	retlw	9
   172  0088' 3405               	retlw	5
   173  0089' 3403               	retlw	3
   174  008A' 3436               	retlw	54
   175  008B' 3449               	retlw	73
   176  008C' 3449               	retlw	73
   177  008D' 3449               	retlw	73
   178  008E' 3436               	retlw	54
   179  008F' 3406               	retlw	6
   180  0090' 3449               	retlw	73
   181  0091' 3449               	retlw	73
   182  0092' 3429               	retlw	41
   183  0093' 341E               	retlw	30
   184  0094' 3400               	retlw	0
   185  0095' 3436               	retlw	54
   186  0096' 3436               	retlw	54
   187  0097' 3400               	retlw	0
   188  0098' 3400               	retlw	0
   189  0099' 3400               	retlw	0
   190  009A' 3456               	retlw	86
   191  009B' 3436               	retlw	54
   192  009C' 3400               	retlw	0
   193  009D' 3400               	retlw	0
   194  009E' 3408               	retlw	8
   195  009F' 3414               	retlw	20
   196  00A0' 3422               	retlw	34
   197  00A1' 3441               	retlw	65
   198  00A2' 3400               	retlw	0
   199  00A3' 3414               	retlw	20
   200  00A4' 3414               	retlw	20
   201  00A5' 3414               	retlw	20
   202  00A6' 3414               	retlw	20
   203  00A7' 3414               	retlw	20
   204  00A8' 3400               	retlw	0
   205  00A9' 3441               	retlw	65
   206  00AA' 3422               	retlw	34
   207  00AB' 3414               	retlw	20
   208  00AC' 3408               	retlw	8
   209  00AD' 3402               	retlw	2
   210  00AE' 3401               	retlw	1
   211  00AF' 3451               	retlw	81
   212  00B0' 3409               	retlw	9
   213  00B1' 3406               	retlw	6
   214  00B2' 3432               	retlw	50
   215  00B3' 3449               	retlw	73
   216  00B4' 3459               	retlw	89
   217  00B5' 3451               	retlw	81
   218  00B6' 343E               	retlw	62
   219  00B7' 347E               	retlw	126
   220  00B8' 3411               	retlw	17
   221  00B9' 3411               	retlw	17
   222  00BA' 3411               	retlw	17
   223  00BB' 347E               	retlw	126
   224  00BC' 347F               	retlw	127
   225  00BD' 3449               	retlw	73
   226  00BE' 3449               	retlw	73
   227  00BF' 3449               	retlw	73
   228  00C0' 3436               	retlw	54
   229  00C1' 343E               	retlw	62
   230  00C2' 3441               	retlw	65
   231  00C3' 3441               	retlw	65
   232  00C4' 3441               	retlw	65
   233  00C5' 3422               	retlw	34
   234  00C6' 347F               	retlw	127
   235  00C7' 3441               	retlw	65
   236  00C8' 3441               	retlw	65
   237  00C9' 3422               	retlw	34
   238  00CA' 341C               	retlw	28
   239  00CB' 347F               	retlw	127
   240  00CC' 3449               	retlw	73
   241  00CD' 3449               	retlw	73
   242  00CE' 3449               	retlw	73
   243  00CF' 3441               	retlw	65
   244  00D0' 347F               	retlw	127
   245  00D1' 3409               	retlw	9
   246  00D2' 3409               	retlw	9
   247  00D3' 3409               	retlw	9
   248  00D4' 3401               	retlw	1
   249  00D5' 343E               	retlw	62
   250  00D6' 3441               	retlw	65
   251  00D7' 3449               	retlw	73
   252  00D8' 3449               	retlw	73
   253  00D9' 347A               	retlw	122
   254  00DA' 347F               	retlw	127
   255  00DB' 3408               	retlw	8
   256  00DC' 3408               	retlw	8
   257  00DD' 3408               	retlw	8
   258  00DE' 347F               	retlw	127
   259  00DF' 3400               	retlw	0
   260  00E0' 3441               	retlw	65
   261  00E1' 347F               	retlw	127
   262  00E2' 3441               	retlw	65
   263  00E3' 3400               	retlw	0
   264  00E4' 3420               	retlw	32
   265  00E5' 3440               	retlw	64
   266  00E6' 3441               	retlw	65
   267  00E7' 343F               	retlw	63
   268  00E8' 3401               	retlw	1
   269  00E9' 347F               	retlw	127
   270  00EA' 3408               	retlw	8
   271  00EB' 3414               	retlw	20
   272  00EC' 3422               	retlw	34
   273  00ED' 3441               	retlw	65
   274  00EE' 347F               	retlw	127
   275  00EF' 3440               	retlw	64
   276  00F0' 3440               	retlw	64
   277  00F1' 3440               	retlw	64
   278  00F2' 3440               	retlw	64
   279  00F3' 347F               	retlw	127
   280  00F4' 3402               	retlw	2
   281  00F5' 340C               	retlw	12
   282  00F6' 3402               	retlw	2
   283  00F7' 347F               	retlw	127
   284  00F8' 347F               	retlw	127
   285  00F9' 3404               	retlw	4
   286  00FA' 3408               	retlw	8
   287  00FB' 3410               	retlw	16
   288  00FC' 347F               	retlw	127
   289  00FD' 343E               	retlw	62
   290  00FE' 3441               	retlw	65
   291  00FF' 3441               	retlw	65
   292  0100' 3441               	retlw	65
   293  0101' 343E               	retlw	62
   294  0102' 347F               	retlw	127
   295  0103' 3409               	retlw	9
   296  0104' 3409               	retlw	9
   297  0105' 3409               	retlw	9
   298  0106' 3406               	retlw	6
   299  0107' 343E               	retlw	62
   300  0108' 3441               	retlw	65
   301  0109' 3451               	retlw	81
   302  010A' 3421               	retlw	33
   303  010B' 345E               	retlw	94
   304  010C' 347F               	retlw	127
   305  010D' 3409               	retlw	9
   306  010E' 3419               	retlw	25
   307  010F' 3429               	retlw	41
   308  0110' 3446               	retlw	70
   309  0111' 3446               	retlw	70
   310  0112' 3449               	retlw	73
   311  0113' 3449               	retlw	73
   312  0114' 3449               	retlw	73
   313  0115' 3431               	retlw	49
   314  0116' 3401               	retlw	1
   315  0117' 3401               	retlw	1
   316  0118' 347F               	retlw	127
   317  0119' 3401               	retlw	1
   318  011A' 3401               	retlw	1
   319  011B' 343F               	retlw	63
   320  011C' 3440               	retlw	64
   321  011D' 3440               	retlw	64
   322  011E' 3440               	retlw	64
   323  011F' 343F               	retlw	63
   324  0120' 341F               	retlw	31
   325  0121' 3420               	retlw	32
   326  0122' 3440               	retlw	64
   327  0123' 3420               	retlw	32
   328  0124' 341F               	retlw	31
   329  0125' 343F               	retlw	63
   330  0126' 3440               	retlw	64
   331  0127' 3438               	retlw	56
   332  0128' 3440               	retlw	64
   333  0129' 343F               	retlw	63
   334  012A' 3463               	retlw	99
   335  012B' 3414               	retlw	20
   336  012C' 3408               	retlw	8
   337  012D' 3414               	retlw	20
   338  012E' 3463               	retlw	99
   339  012F' 3407               	retlw	7
   340  0130' 3408               	retlw	8
   341  0131' 3470               	retlw	112
   342  0132' 3408               	retlw	8
   343  0133' 3407               	retlw	7
   344  0134' 3461               	retlw	97
   345  0135' 3451               	retlw	81
   346  0136' 3449               	retlw	73
   347  0137' 3445               	retlw	69
   348  0138' 3443               	retlw	67
   349  0139' 3400               	retlw	0
   350  013A' 347F               	retlw	127
   351  013B' 3441               	retlw	65
   352  013C' 3441               	retlw	65
   353  013D' 3400               	retlw	0
   354  013E' 3455               	retlw	85
   355  013F' 342A               	retlw	42
   356  0140' 3455               	retlw	85
   357  0141' 342A               	retlw	42
   358  0142' 3455               	retlw	85
   359  0143' 3400               	retlw	0
   360  0144' 3441               	retlw	65
   361  0145' 3441               	retlw	65
   362  0146' 347F               	retlw	127
   363  0147' 3400               	retlw	0
   364  0148' 3404               	retlw	4
   365  0149' 3402               	retlw	2
   366  014A' 3401               	retlw	1
   367  014B' 3402               	retlw	2
   368  014C' 3404               	retlw	4
   369  014D' 3440               	retlw	64
   370  014E' 3440               	retlw	64
   371  014F' 3440               	retlw	64
   372  0150' 3440               	retlw	64
   373  0151' 3440               	retlw	64
   374  0152' 3400               	retlw	0
   375  0153' 3401               	retlw	1
   376  0154' 3402               	retlw	2
   377  0155' 3404               	retlw	4
   378  0156' 3400               	retlw	0
   379  0157' 3420               	retlw	32
   380  0158' 3454               	retlw	84
   381  0159' 3454               	retlw	84
   382  015A' 3454               	retlw	84
   383  015B' 3478               	retlw	120
   384  015C' 347F               	retlw	127
   385  015D' 3448               	retlw	72
   386  015E' 3444               	retlw	68
   387  015F' 3444               	retlw	68
   388  0160' 3438               	retlw	56
   389  0161' 3438               	retlw	56
   390  0162' 3444               	retlw	68
   391  0163' 3444               	retlw	68
   392  0164' 3444               	retlw	68
   393  0165' 3420               	retlw	32
   394  0166' 3438               	retlw	56
   395  0167' 3444               	retlw	68
   396  0168' 3444               	retlw	68
   397  0169' 3448               	retlw	72
   398  016A' 347F               	retlw	127
   399  016B' 3438               	retlw	56
   400  016C' 3454               	retlw	84
   401  016D' 3454               	retlw	84
   402  016E' 3454               	retlw	84
   403  016F' 3418               	retlw	24
   404  0170' 3408               	retlw	8
   405  0171' 347E               	retlw	126
   406  0172' 3409               	retlw	9
   407  0173' 3401               	retlw	1
   408  0174' 3402               	retlw	2
   409  0175' 340C               	retlw	12
   410  0176' 3452               	retlw	82
   411  0177' 3452               	retlw	82
   412  0178' 3452               	retlw	82
   413  0179' 343E               	retlw	62
   414  017A' 347F               	retlw	127
   415  017B' 3408               	retlw	8
   416  017C' 3404               	retlw	4
   417  017D' 3404               	retlw	4
   418  017E' 3478               	retlw	120
   419  017F' 3400               	retlw	0
   420  0180' 3444               	retlw	68
   421  0181' 347D               	retlw	125
   422  0182' 3440               	retlw	64
   423  0183' 3400               	retlw	0
   424  0184' 3420               	retlw	32
   425  0185' 3440               	retlw	64
   426  0186' 3444               	retlw	68
   427  0187' 343D               	retlw	61
   428  0188' 3400               	retlw	0
   429  0189' 347F               	retlw	127
   430  018A' 3410               	retlw	16
   431  018B' 3428               	retlw	40
   432  018C' 3444               	retlw	68
   433  018D' 3400               	retlw	0
   434  018E' 3400               	retlw	0
   435  018F' 3441               	retlw	65
   436  0190' 347F               	retlw	127
   437  0191' 3440               	retlw	64
   438  0192' 3400               	retlw	0
   439  0193' 347C               	retlw	124
   440  0194' 3404               	retlw	4
   441  0195' 3418               	retlw	24
   442  0196' 3404               	retlw	4
   443  0197' 3478               	retlw	120
   444  0198' 347C               	retlw	124
   445  0199' 3408               	retlw	8
   446  019A' 3404               	retlw	4
   447  019B' 3404               	retlw	4
   448  019C' 3478               	retlw	120
   449  019D' 3438               	retlw	56
   450  019E' 3444               	retlw	68
   451  019F' 3444               	retlw	68
   452  01A0' 3444               	retlw	68
   453  01A1' 3438               	retlw	56
   454  01A2' 347C               	retlw	124
   455  01A3' 3414               	retlw	20
   456  01A4' 3414               	retlw	20
   457  01A5' 3414               	retlw	20
   458  01A6' 3408               	retlw	8
   459  01A7' 3408               	retlw	8
   460  01A8' 3414               	retlw	20
   461  01A9' 3414               	retlw	20
   462  01AA' 3418               	retlw	24
   463  01AB' 347C               	retlw	124
   464  01AC' 347C               	retlw	124
   465  01AD' 3408               	retlw	8
   466  01AE' 3404               	retlw	4
   467  01AF' 3404               	retlw	4
   468  01B0' 3408               	retlw	8
   469  01B1' 3448               	retlw	72
   470  01B2' 3454               	retlw	84
   471  01B3' 3454               	retlw	84
   472  01B4' 3454               	retlw	84
   473  01B5' 3420               	retlw	32
   474  01B6' 3404               	retlw	4
   475  01B7' 343F               	retlw	63
   476  01B8' 3444               	retlw	68
   477  01B9' 3440               	retlw	64
   478  01BA' 3420               	retlw	32
   479  01BB' 343C               	retlw	60
   480  01BC' 3440               	retlw	64
   481  01BD' 3440               	retlw	64
   482  01BE' 3420               	retlw	32
   483  01BF' 347C               	retlw	124
   484  01C0' 341C               	retlw	28
   485  01C1' 3420               	retlw	32
   486  01C2' 3440               	retlw	64
   487  01C3' 3420               	retlw	32
   488  01C4' 341C               	retlw	28
   489  01C5' 343C               	retlw	60
   490  01C6' 3440               	retlw	64
   491  01C7' 3430               	retlw	48
   492  01C8' 3440               	retlw	64
   493  01C9' 343C               	retlw	60
   494  01CA' 3444               	retlw	68
   495  01CB' 3428               	retlw	40
   496  01CC' 3410               	retlw	16
   497  01CD' 3428               	retlw	40
   498  01CE' 3444               	retlw	68
   499  01CF' 340C               	retlw	12
   500  01D0' 3450               	retlw	80
   501  01D1' 3450               	retlw	80
   502  01D2' 3450               	retlw	80
   503  01D3' 343C               	retlw	60
   504  01D4' 3444               	retlw	68
   505  01D5' 3464               	retlw	100
   506  01D6' 3454               	retlw	84
   507  01D7' 344C               	retlw	76
   508  01D8' 3444               	retlw	68
   509  001A                     _RCREG	set	26
   510  0019                     _TXREG	set	25
   511  00C4                     _CREN	set	196
   512  005F                     _GIE	set	95
   513  005E                     _PEIE	set	94
   514  002A                     _RA2	set	42
   515  0039                     _RC1	set	57
   516  003A                     _RC2	set	58
   517  003B                     _RC3	set	59
   518  003C                     _RC4	set	60
   519  003D                     _RC5	set	61
   520  0065                     _RCIF	set	101
   521  00C6                     _RX9	set	198
   522  00C7                     _SPEN	set	199
   523  00A5                     _SSPEN	set	165
   524  005D                     _T0IE	set	93
   525  005A                     _T0IF	set	90
   526  0064                     _TXIF	set	100
   527  0081                     _OPTION_REGbits	set	129
   528  0099                     _SPBRG	set	153
   529  0085                     _TRISA	set	133
   530  0087                     _TRISC	set	135
   531  04C2                     _BRGH	set	1218
   532  04E0                     _CM0	set	1248
   533  04E1                     _CM1	set	1249
   534  04E2                     _CM2	set	1250
   535  040B                     _PSA	set	1035
   536  0465                     _RCIE	set	1125
   537  04C4                     _SYNC	set	1220
   538  040D                     _T0CS	set	1037
   539  042A                     _TRISA2	set	1066
   540  043B                     _TRISC3	set	1083
   541  043C                     _TRISC4	set	1084
   542  043D                     _TRISC5	set	1085
   543  04C6                     _TX9	set	1222
   544  04C5                     _TXEN	set	1221
   545  0464                     _TXIE	set	1124
   546  040F                     _nRBPU	set	1039
   547  01D9'                    STR_4:	
   548  01D9' 344C               	retlw	76	;'L'
   549  01DA' 3443               	retlw	67	;'C'
   550  01DB' 342D               	retlw	45	;'-'
   551  01DC' 346D               	retlw	109	;'m'
   552  01DD' 3465               	retlw	101	;'e'
   553  01DE' 3474               	retlw	116	;'t'
   554  01DF' 3465               	retlw	101	;'e'
   555  01E0' 3472               	retlw	114	;'r'
   556  01E1' 3400               	retlw	0
   557  01E2'                    STR_5:	
   558  01E2' 340D               	retlw	13
   559  01E3' 340A               	retlw	10
   560  01E4' 3400               	retlw	0
   561  01E5'                    STR_1:	
   562  01E5' 3420               	retlw	32	;' '
   563  01E6' 3400               	retlw	0
   564  01E5'                    
   565                           	psect	cinit
   566  0000'                    start_initialization:	
   567                           
   568                           ; Clear objects allocated to COMMON
   569  0000' 0180'              	clrf	__pbssCOMMON& (0+127)
   570  0001' 0180'              	clrf	(__pbssCOMMON+1)& (0+127)
   571  0002' 0180'              	clrf	(__pbssCOMMON+2)& (0+127)
   572                           
   573                           ; Clear objects allocated to BANK0
   574  0003' 1383               	bcf	3,7	;select IRP bank0
   575  0004' 3000'              	movlw	low __pbssBANK0
   576  0005' 0084               	movwf	4
   577  0006' 3000'              	movlw	low (__pbssBANK0+20)
   578  0007' 120A' 118A' 2000'  	fcall	clear_ram
      +       120A' 118A'        
   579                           
   580                           ; Clear objects allocated to BANK1
   581  000C' 3000'              	movlw	low __pbssBANK1
   582  000D' 0084               	movwf	4
   583  000E' 3000'              	movlw	low (__pbssBANK1+32)
   584  000F' 120A' 118A' 2000'  	fcall	clear_ram
   585  0012'                    end_of_initialization:	
   586                           ;End of C runtime variable initialization code
   587                           
   588  0012' 0183               	clrf	3
   589  0013' 120A' 118A' 2800'  	ljmp	_main	;jump to C main() function
   590                           
   591                           	psect	bssCOMMON
   592  0000'                    __pbssCOMMON:	
   593  0000'                    _rxiptr:	
   594  0000'                    	ds	1
   595  0001'                    _txiptr:	
   596  0001'                    	ds	1
   597  0002'                    _txoptr:	
   598  0002'                    	ds	1
   599                           
   600                           	psect	bssBANK0
   601  0000'                    __pbssBANK0:	
   602  0000'                    _ccp1t:	
   603  0000'                    	ds	8
   604  0008'                    _ccp1t_lr:	
   605  0008'                    	ds	4
   606  000C'                    _bres:	
   607  000C'                    	ds	2
   608  000E'                    _seconds:	
   609  000E'                    	ds	2
   610  0010'                    _tmr0_overflow:	
   611  0010'                    	ds	2
   612  0012'                    _rxoptr:	
   613  0012'                    	ds	1
   614  0013'                    _ser_tmp:	
   615  0013'                    	ds	1
   616                           
   617                           	psect	bssBANK1
   618  0000'                    __pbssBANK1:	
   619  0000'                    _rxfifo:	
   620  0000'                    	ds	16
   621  0010'                    _txfifo:	
   622  0010'                    	ds	16
   623                           
   624                           	psect	clrtext
   625  0000'                    clear_ram:	
   626                           ;	Called with FSR containing the base address, and
   627                           ;	W with the last address+1
   628                           
   629  0000' 0064               	clrwdt	;clear the watchdog before getting into this loop
   630  0001'                    clrloop:	
   631  0001' 0180               	clrf	0	;clear RAM location pointed to by FSR
   632  0002' 0A84               	incf	4,f	;increment pointer
   633  0003' 0604               	xorwf	4,w	;XOR with final address
   634  0004' 1903               	btfsc	3,2	;have we reached the end yet?
   635  0005' 3400               	retlw	0	;all done for this memory range, return
   636  0006' 0604               	xorwf	4,w	;XOR again to restore value
   637  0007' 2800'              	goto	clrloop	;do the next byte
   638                           
   639                           	psect	cstackCOMMON
   640  0000'                    __pcstackCOMMON:	
   641  0000'                    ?_lcd_putch:	
   642  0000'                    ?_initialize:	
   643                           ; 0 bytes @ 0x0
   644                           
   645  0000'                    ?_lcd_init:	
   646                           ; 0 bytes @ 0x0
   647                           
   648  0000'                    ?_lcd_clear:	
   649                           ; 0 bytes @ 0x0
   650                           
   651  0000'                    ?_ser_init:	
   652                           ; 0 bytes @ 0x0
   653                           
   654  0000'                    ?_setup_timer0:	
   655                           ; 0 bytes @ 0x0
   656                           
   657  0000'                    ??_isr:	
   658                           ; 0 bytes @ 0x0
   659                           
   660  0000'                    ?_main:	
   661                           ; 0 bytes @ 0x0
   662                           
   663  0000'                    ?_isr:	
   664                           ; 0 bytes @ 0x0
   665                           
   666                           
   667                           ; 2 bytes @ 0x0
   668  0000'                    	ds	3
   669  0003'                    ?_ser_putch:	
   670  0003'                    ??_ser_init:	
   671                           ; 0 bytes @ 0x3
   672                           
   673  0003'                    ??_setup_timer0:	
   674                           ; 0 bytes @ 0x3
   675                           
   676  0003'                    ?_lcd_set_cursor:	
   677                           ; 0 bytes @ 0x3
   678                           
   679  0003'                    ?_lcd_print:	
   680                           ; 2 bytes @ 0x3
   681                           
   682  0003'                    ?___wmul:	
   683                           ; 2 bytes @ 0x3
   684                           
   685  0003'                    ?___lwdiv:	
   686                           ; 2 bytes @ 0x3
   687                           
   688  0003'                    ?___lwmod:	
   689                           ; 2 bytes @ 0x3
   690                           
   691  0003'                    ser_putch@c:	
   692                           ; 2 bytes @ 0x3
   693                           
   694  0003'                    ___wmul@multiplier:	
   695                           ; 1 bytes @ 0x3
   696                           
   697  0003'                    ___lwdiv@divisor:	
   698                           ; 2 bytes @ 0x3
   699                           
   700  0003'                    ___lwmod@divisor:	
   701                           ; 2 bytes @ 0x3
   702                           
   703                           
   704                           ; 2 bytes @ 0x3
   705  0003'                    	ds	1
   706  0004'                    ??_ser_putch:	
   707  0004'                    ?_ser_puts:	
   708                           ; 0 bytes @ 0x4
   709                           
   710  0004'                    ser_puts@s:	
   711                           ; 0 bytes @ 0x4
   712                           
   713                           
   714                           ; 2 bytes @ 0x4
   715  0004'                    	ds	1
   716  0005'                    ??_lcd_print:	
   717  0005'                    ___wmul@multiplicand:	
   718                           ; 0 bytes @ 0x5
   719                           
   720  0005'                    ___lwdiv@dividend:	
   721                           ; 2 bytes @ 0x5
   722                           
   723  0005'                    ___lwmod@dividend:	
   724                           ; 2 bytes @ 0x5
   725                           
   726                           
   727                           ; 2 bytes @ 0x5
   728  0005'                    	ds	1
   729  0006'                    ??_ser_puts:	
   730                           
   731                           ; 0 bytes @ 0x6
   732  0006'                    	ds	1
   733  0007'                    ?_lcd_send:	
   734  0007'                    ??_lcd_set_cursor:	
   735                           ; 0 bytes @ 0x7
   736                           
   737  0007'                    ??___wmul:	
   738                           ; 0 bytes @ 0x7
   739                           
   740  0007'                    ??___lwdiv:	
   741                           ; 0 bytes @ 0x7
   742                           
   743  0007'                    ??___lwmod:	
   744                           ; 0 bytes @ 0x7
   745                           
   746  0007'                    lcd_send@cmd:	
   747                           ; 0 bytes @ 0x7
   748                           
   749  0007'                    ___lwmod@counter:	
   750                           ; 1 bytes @ 0x7
   751                           
   752                           
   753                           ; 1 bytes @ 0x7
   754  0007'                    	ds	1
   755  0008'                    ??_lcd_gotoxy:	
   756  0008'                    ??_lcd_send:	
   757                           ; 0 bytes @ 0x8
   758                           
   759  0008'                    ??_lcd_putch:	
   760                           ; 0 bytes @ 0x8
   761                           
   762  0008'                    ??_initialize:	
   763                           ; 0 bytes @ 0x8
   764                           
   765  0008'                    ??_lcd_clear:	
   766                           ; 0 bytes @ 0x8
   767                           
   768  0008'                    ??_main:	
   769                           ; 0 bytes @ 0x8
   770                           
   771                           
   772                           	psect	cstackBANK0
   773  0000'                    __pcstackBANK0:	
   774                           ; 0 bytes @ 0x8
   775                           
   776  0000'                    ___lwdiv@counter:	
   777  0000'                    ___wmul@product:	
   778                           ; 1 bytes @ 0x0
   779                           
   780                           
   781                           ; 2 bytes @ 0x0
   782  0000'                    	ds	1
   783  0001'                    ___lwdiv@quotient:	
   784                           
   785                           ; 2 bytes @ 0x1
   786  0001'                    	ds	1
   787  0002'                    lcd_send@a:	
   788                           
   789                           ; 1 bytes @ 0x2
   790  0002'                    	ds	1
   791  0003'                    ?_lcd_gotoxy:	
   792  0003'                    ??_lcd_init:	
   793                           ; 0 bytes @ 0x3
   794                           
   795  0003'                    ?_format_number:	
   796                           ; 0 bytes @ 0x3
   797                           
   798  0003'                    lcd_putch@c:	
   799                           ; 0 bytes @ 0x3
   800                           
   801  0003'                    format_number@n:	
   802                           ; 1 bytes @ 0x3
   803                           
   804  0003'                    lcd_gotoxy@y:	
   805                           ; 2 bytes @ 0x3
   806                           
   807                           
   808                           ; 2 bytes @ 0x3
   809  0003'                    	ds	1
   810  0004'                    ?_display_print_number:	
   811  0004'                    display_print_number@n:	
   812                           ; 0 bytes @ 0x4
   813                           
   814                           
   815                           ; 2 bytes @ 0x4
   816  0004'                    	ds	1
   817  0005'                    format_number@base:	
   818  0005'                    lcd_gotoxy@x:	
   819                           ; 1 bytes @ 0x5
   820                           
   821                           
   822                           ; 1 bytes @ 0x5
   823  0005'                    	ds	1
   824  0006'                    format_number@pad:	
   825  0006'                    display_print_number@base:	
   826                           ; 1 bytes @ 0x6
   827                           
   828  0006'                    lcd_clear@i:	
   829                           ; 1 bytes @ 0x6
   830                           
   831                           
   832                           ; 2 bytes @ 0x6
   833  0006'                    	ds	1
   834  0007'                    ??_format_number:	
   835  0007'                    display_print_number@pad:	
   836                           ; 0 bytes @ 0x7
   837                           
   838                           
   839                           ; 1 bytes @ 0x7
   840  0007'                    	ds	1
   841  0008'                    ??_display_print_number:	
   842  0008'                    format_number@buf:	
   843                           ; 0 bytes @ 0x8
   844                           
   845                           
   846                           ; 32 bytes @ 0x8
   847  0008'                    	ds	3
   848  000B'                    display_print_number@buf:	
   849                           
   850                           ; 32 bytes @ 0xB
   851  000B'                    	ds	29
   852  0028'                    format_number@padchar:	
   853                           
   854                           ; 1 bytes @ 0x28
   855  0028'                    	ds	1
   856  0029'                    _format_number$1902:	
   857                           
   858                           ; 2 bytes @ 0x29
   859  0029'                    	ds	2
   860  002B'                    format_number@putchar:	
   861  002B'                    _display_print_number$4972:	
   862                           ; 1 bytes @ 0x2B
   863                           
   864                           
   865                           ; 2 bytes @ 0x2B
   866  002B'                    	ds	1
   867  002C'                    format_number@di:	
   868                           
   869                           ; 1 bytes @ 0x2C
   870  002C'                    	ds	1
   871  002D'                    format_number@i:	
   872  002D'                    display_print_number@di:	
   873                           ; 1 bytes @ 0x2D
   874                           
   875                           
   876                           ; 1 bytes @ 0x2D
   877  002D'                    	ds	1
   878  002E'                    display_print_number@i:	
   879                           
   880                           ; 1 bytes @ 0x2E
   881  002E'                    	ds	1
   882  002F'                    main@prev_seconds:	
   883                           
   884                           ; 2 bytes @ 0x2F
   885  002F'                    	ds	2
   886                           
   887                           	psect	maintext
   888  0000'                    __pmaintext:	
   889 ;;Data sizes: Strings 14, constant 455, data 0, bss 55, persistent 0 stack 0
   890 ;;Auto spaces:   Size  Autos    Used
   891 ;; COMMON          14      8      11
   892 ;; BANK0           80     49      69
   893 ;; BANK1           80      0      32
   894 ;; BANK3           96      0       0
   895 ;; BANK2           96      0       0
   896 ;;
   897 ;; Pointer list with targets:
   898 ;; ?_lcd_print	int  size(2) Largest target is 9
   899 ;;		 -> STR_4(CODE[9]), 
   900 ;;
   901 ;; ?___wmul	unsigned int  size(1) Largest target is 0
   902 ;;
   903 ;; ?___lwdiv	unsigned int  size(1) Largest target is 0
   904 ;;
   905 ;; ?___lwmod	unsigned int  size(1) Largest target is 0
   906 ;;
   907 ;; ser_puts@s	PTR const unsigned char  size(2) Largest target is 3
   908 ;;		 -> STR_5(CODE[3]), 
   909 ;;
   910 ;; format_number@putchar	PTR FTN(unsigned char ,)void  size(1) Largest target is 0
   911 ;;		 -> ser_putch(), 
   912 ;;
   913 ;;
   914 ;; Critical Paths under _main in COMMON
   915 ;;
   916 ;;   _lcd_clear->_lcd_send
   917 ;;   _display_print_number->___lwmod
   918 ;;   _lcd_init->_lcd_send
   919 ;;   _lcd_putch->_lcd_send
   920 ;;   _lcd_gotoxy->_lcd_send
   921 ;;   _lcd_send->___wmul
   922 ;;   _ser_puts->_ser_putch
   923 ;;   _format_number->___lwmod
   924 ;;
   925 ;; Critical Paths under _isr in COMMON
   926 ;;
   927 ;;   None.
   928 ;;
   929 ;; Critical Paths under _main in BANK0
   930 ;;
   931 ;;   _main->_display_print_number
   932 ;;   _initialize->_lcd_clear
   933 ;;   _lcd_clear->_lcd_gotoxy
   934 ;;   _display_print_number->_lcd_putch
   935 ;;   _lcd_init->_lcd_send
   936 ;;   _lcd_putch->_lcd_send
   937 ;;   _lcd_gotoxy->_lcd_send
   938 ;;   _lcd_send->___wmul
   939 ;;   _format_number->___lwdiv
   940 ;;
   941 ;; Critical Paths under _isr in BANK0
   942 ;;
   943 ;;   None.
   944 ;;
   945 ;; Critical Paths under _main in BANK1
   946 ;;
   947 ;;   None.
   948 ;;
   949 ;; Critical Paths under _isr in BANK1
   950 ;;
   951 ;;   None.
   952 ;;
   953 ;; Critical Paths under _main in BANK3
   954 ;;
   955 ;;   None.
   956 ;;
   957 ;; Critical Paths under _isr in BANK3
   958 ;;
   959 ;;   None.
   960 ;;
   961 ;; Critical Paths under _main in BANK2
   962 ;;
   963 ;;   None.
   964 ;;
   965 ;; Critical Paths under _isr in BANK2
   966 ;;
   967 ;;   None.
   968 ;;
   969 ;;Main: autosize = 0, tempsize = 0, incstack = 0, save=0
   970 ;;
   971 ;;
   972 ;;Call Graph Tables:
   973 ;;
   974 ;; ---------------------------------------------------------------------------------
   975 ;; (Depth) Function   	        Calls       Base Space   Used Autos Params    Refs
   976 ;; ---------------------------------------------------------------------------------
   977 ;; (0) _main                                                 3     3      0    3815
   978 ;;                                             47 BANK0      2     2      0
   979 ;;                         _initialize
   980 ;;                     _lcd_set_cursor
   981 ;;                          _lcd_print
   982 ;;               _display_print_number
   983 ;;                      _format_number
   984 ;;                           _ser_puts
   985 ;; ---------------------------------------------------------------------------------
   986 ;; (1) _initialize                                           0     0      0     967
   987 ;;                       _setup_timer0
   988 ;;                           _ser_init
   989 ;;                           _lcd_init
   990 ;;                          _lcd_clear
   991 ;; ---------------------------------------------------------------------------------
   992 ;; (2) _lcd_clear                                            2     2      0     688
   993 ;;                                              6 BANK0      2     2      0
   994 ;;                         _lcd_gotoxy
   995 ;;                           _lcd_send
   996 ;; ---------------------------------------------------------------------------------
   997 ;; (1) _display_print_number                                43    39      4    1595
   998 ;;                                              4 BANK0     43    39      4
   999 ;;                            ___lwmod
  1000 ;;                            ___lwdiv
  1001 ;;                          _lcd_putch
  1002 ;; ---------------------------------------------------------------------------------
  1003 ;; (2) _lcd_init                                             2     2      0     279
  1004 ;;                                              3 BANK0      2     2      0
  1005 ;;                           _lcd_send
  1006 ;; ---------------------------------------------------------------------------------
  1007 ;; (2) _lcd_putch                                            1     1      0     632
  1008 ;;                                              3 BANK0      1     1      0
  1009 ;;                             ___wmul
  1010 ;;                           _lcd_send
  1011 ;; ---------------------------------------------------------------------------------
  1012 ;; (3) _lcd_gotoxy                                           3     1      2     341
  1013 ;;                                              3 BANK0      3     1      2
  1014 ;;                           _lcd_send
  1015 ;; ---------------------------------------------------------------------------------
  1016 ;; (3) _lcd_send                                             2     1      1     279
  1017 ;;                                              7 COMMON     1     0      1
  1018 ;;                                              2 BANK0      1     1      0
  1019 ;;                             ___wmul (ARG)
  1020 ;; ---------------------------------------------------------------------------------
  1021 ;; (1) _ser_puts                                             2     0      2      67
  1022 ;;                                              4 COMMON     2     0      2
  1023 ;;                          _ser_putch
  1024 ;; ---------------------------------------------------------------------------------
  1025 ;; (1) _format_number                                       43    39      4    1149
  1026 ;;                                              3 BANK0     43    39      4
  1027 ;;                            ___lwmod
  1028 ;;                            ___lwdiv
  1029 ;;                          _ser_putch
  1030 ;; ---------------------------------------------------------------------------------
  1031 ;; (2) ___lwmod                                              5     1      4     159
  1032 ;;                                              3 COMMON     5     1      4
  1033 ;; ---------------------------------------------------------------------------------
  1034 ;; (2) ___lwdiv                                              7     3      4     241
  1035 ;;                                              3 COMMON     4     0      4
  1036 ;;                                              0 BANK0      3     3      0
  1037 ;; ---------------------------------------------------------------------------------
  1038 ;; (3) ___wmul                                               6     2      4     136
  1039 ;;                                              3 COMMON     4     0      4
  1040 ;;                                              0 BANK0      2     2      0
  1041 ;; ---------------------------------------------------------------------------------
  1042 ;; (1) _lcd_print                                            2     0      2       0
  1043 ;;                                              3 COMMON     2     0      2
  1044 ;; ---------------------------------------------------------------------------------
  1045 ;; (1) _lcd_set_cursor                                       4     0      4       0
  1046 ;;                                              3 COMMON     4     0      4
  1047 ;; ---------------------------------------------------------------------------------
  1048 ;; (2) _setup_timer0                                         0     0      0       0
  1049 ;; ---------------------------------------------------------------------------------
  1050 ;; (2) _ser_init                                             0     0      0       0
  1051 ;; ---------------------------------------------------------------------------------
  1052 ;; (2) _ser_putch                                            1     0      1      22
  1053 ;;                                              3 COMMON     1     0      1
  1054 ;; ---------------------------------------------------------------------------------
  1055 ;; Estimated maximum stack depth 3
  1056 ;; ---------------------------------------------------------------------------------
  1057 ;; (Depth) Function   	        Calls       Base Space   Used Autos Params    Refs
  1058 ;; ---------------------------------------------------------------------------------
  1059 ;; (5) _isr                                                  3     3      0       0
  1060 ;;                                              0 COMMON     3     3      0
  1061 ;; ---------------------------------------------------------------------------------
  1062 ;; Estimated maximum stack depth 5
  1063 ;; ---------------------------------------------------------------------------------
  1064 ;; Call Graph Graphs:
  1065 ;; _main (ROOT)
  1066 ;;   _initialize
  1067 ;;     _setup_timer0
  1068 ;;     _ser_init
  1069 ;;     _lcd_init
  1070 ;;       _lcd_send
  1071 ;;         ___wmul (ARG)
  1072 ;;     _lcd_clear
  1073 ;;       _lcd_gotoxy
  1074 ;;         _lcd_send
  1075 ;;           ___wmul (ARG)
  1076 ;;       _lcd_send
  1077 ;;         ___wmul (ARG)
  1078 ;;   _lcd_set_cursor
  1079 ;;   _lcd_print
  1080 ;;   _display_print_number
  1081 ;;     ___lwmod
  1082 ;;     ___lwdiv
  1083 ;;     _lcd_putch
  1084 ;;       ___wmul
  1085 ;;       _lcd_send
  1086 ;;         ___wmul (ARG)
  1087 ;;   _format_number
  1088 ;;     ___lwmod
  1089 ;;     ___lwdiv
  1090 ;;     _ser_putch
  1091 ;;   _ser_puts
  1092 ;;     _ser_putch
  1093 ;;
  1094 ;; _isr (ROOT)
  1095 ;;
  1096 ;; Address spaces:
  1097 ;;Name               Size   Autos  Total    Cost      Usage
  1098 ;;BITCOMMON            E      0       0       0        0.0%
  1099 ;;EEDATA             100      0       0       0        0.0%
  1100 ;;NULL                 0      0       0       0        0.0%
  1101 ;;CODE                 0      0       0       0        0.0%
  1102 ;;COMMON               E      8       B       1       78.6%
  1103 ;;BITSFR0              0      0       0       1        0.0%
  1104 ;;SFR0                 0      0       0       1        0.0%
  1105 ;;BITSFR1              0      0       0       2        0.0%
  1106 ;;SFR1                 0      0       0       2        0.0%
  1107 ;;STACK                0      0       4       2        0.0%
  1108 ;;ABS                  0      0      70       3        0.0%
  1109 ;;BITBANK0            50      0       0       4        0.0%
  1110 ;;BITSFR3              0      0       0       4        0.0%
  1111 ;;SFR3                 0      0       0       4        0.0%
  1112 ;;BANK0               50     31      45       5       86.3%
  1113 ;;BITSFR2              0      0       0       5        0.0%
  1114 ;;SFR2                 0      0       0       5        0.0%
  1115 ;;BITBANK1            50      0       0       6        0.0%
  1116 ;;BANK1               50      0      20       7       40.0%
  1117 ;;BITBANK3            60      0       0       8        0.0%
  1118 ;;BANK3               60      0       0       9        0.0%
  1119 ;;BITBANK2            60      0       0      10        0.0%
  1120 ;;BANK2               60      0       0      11        0.0%
  1121 ;;DATA                 0      0      74      12        0.0%
  1122                           
  1123                           
  1124 ;; *************** function _main *****************
  1125 ;; Defined at:
  1126 ;;		line 101 in file "../../../src/LC-meter.c"
  1127 ;; Parameters:    Size  Location     Type
  1128 ;;		None
  1129 ;; Auto vars:     Size  Location     Type
  1130 ;;  led_value       1    0        unsigned char 
  1131 ;;  prev_seconds    2   47[BANK0 ] unsigned int 
  1132 ;; Return value:  Size  Location     Type
  1133 ;;		None               void
  1134 ;; Registers used:
  1135 ;;		wreg, fsr0l, fsr0h, fsr1l, fsr1h, status,2, status,0, btemp+1, pclath, cstack
  1136 ;; Tracked objects:
  1137 ;;		On entry : 17F/0
  1138 ;;		On exit  : 60/0
  1139 ;;		Unchanged: 0/0
  1140 ;; Data sizes:     COMMON   BANK0   BANK1   BANK3   BANK2
  1141 ;;      Params:         0       0       0       0       0
  1142 ;;      Locals:         0       2       0       0       0
  1143 ;;      Temps:          0       0       0       0       0
  1144 ;;      Totals:         0       2       0       0       0
  1145 ;;Total ram usage:        2 bytes
  1146 ;; Hardware stack levels required when called:    5
  1147 ;; This function calls:
  1148 ;;		_initialize
  1149 ;;		_lcd_set_cursor
  1150 ;;		_lcd_print
  1151 ;;		_display_print_number
  1152 ;;		_format_number
  1153 ;;		_ser_puts
  1154 ;; This function is called by:
  1155 ;;		Startup code after reset
  1156 ;; This function uses a non-reentrant model
  1157 ;;
  1158  0000'                    _main:	
  1159                           
  1160                           ;LC-meter.c: 109: initialize();
  1161                           
  1162                           ; Regs used in _main: [allreg]
  1163  0000' 120A' 118A' 2000'  	fcall	_initialize
      +       120A' 118A'        
  1164                           
  1165                           ;LC-meter.c: 112: lcd_set_cursor(0, 0);
  1166  0005' 0183'              	clrf	?_lcd_set_cursor
  1167  0006' 0184'              	clrf	?_lcd_set_cursor+1
  1168  0007' 0185'              	clrf	?_lcd_set_cursor+2
  1169  0008' 0186'              	clrf	?_lcd_set_cursor+3
  1170  0009' 120A' 118A' 2000'  	fcall	_lcd_set_cursor
      +       120A' 118A'        
  1171                           
  1172                           ;LC-meter.c: 114: lcd_print("LC-meter");
  1173  000E' 3000'              	movlw	low (STR_4| (0+32768))
  1174  000F' 0083'              	movwf	?_lcd_print
  1175  0010' 3000'              	movlw	high (STR_4| (0+32768))
  1176  0011' 0084'              	movwf	?_lcd_print+1
  1177  0012' 120A' 118A' 2000'  	fcall	_lcd_print
      +       120A' 118A'        
  1178                           
  1179                           ;LC-meter.c: 128: {
  1180                           ;LC-meter.c: 129: uint16_t prev_seconds = 0xffff;
  1181  0017' 30FF               	movlw	255
  1182  0018' 1283               	bcf	3,5	;RP0=0, select bank0
  1183  0019' 1303               	bcf	3,6	;RP1=0, select bank0
  1184  001A' 00AF'              	movwf	main@prev_seconds
  1185  001B' 00B0'              	movwf	main@prev_seconds+1
  1186  001C'                    l7692:	
  1187                           
  1188                           ;LC-meter.c: 136: lcd_set_cursor(0, 1);
  1189  001C' 0183'              	clrf	?_lcd_set_cursor
  1190  001D' 0184'              	clrf	?_lcd_set_cursor+1
  1191  001E' 0185'              	clrf	?_lcd_set_cursor+2
  1192  001F' 0A85'              	incf	?_lcd_set_cursor+2,f
  1193  0020' 0186'              	clrf	?_lcd_set_cursor+3
  1194  0021' 120A' 118A' 2000'  	fcall	_lcd_set_cursor
      +       120A' 118A'        
  1195                           
  1196                           ;LC-meter.c: 137: display_print_number(ccp1t[1] - ccp1t_lr, 16, -4);
  1197  0026' 1283               	bcf	3,5	;RP0=0, select bank0
  1198  0027' 1303               	bcf	3,6	;RP1=0, select bank0
  1199  0028' 0805'              	movf	_ccp1t+5,w	;volatile
  1200  0029' 0085'              	movwf	?_display_print_number+1
  1201  002A' 0804'              	movf	_ccp1t+4,w	;volatile
  1202  002B' 0084'              	movwf	?_display_print_number
  1203  002C' 0808'              	movf	_ccp1t_lr,w	;volatile
  1204  002D' 0284'              	subwf	?_display_print_number,f
  1205  002E' 0809'              	movf	_ccp1t_lr+1,w	;volatile
  1206  002F' 1C03               	skipc
  1207  0030' 0385'              	decf	?_display_print_number+1,f
  1208  0031' 0285'              	subwf	?_display_print_number+1,f
  1209  0032' 3010               	movlw	16
  1210  0033' 0086'              	movwf	?_display_print_number+2
  1211  0034' 30FC               	movlw	-4
  1212  0035' 0087'              	movwf	?_display_print_number+3
  1213  0036' 120A' 118A' 2000'  	fcall	_display_print_number
      +       120A' 118A'        
  1214                           
  1215                           ;LC-meter.c: 141: if(seconds != prev_seconds)
  1216  003B' 0830'              	movf	main@prev_seconds+1,w
  1217  003C' 060F'              	xorwf	_seconds+1,w	;volatile
  1218  003D' 1D03               	skipz
  1219  003E' 2800'              	goto	u1225
  1220  003F' 082F'              	movf	main@prev_seconds,w
  1221  0040' 060E'              	xorwf	_seconds,w	;volatile
  1222  0041'                    u1225:	
  1223  0041' 1903               	skipnz
  1224  0042' 2800'              	goto	l7692
  1225                           
  1226                           ;LC-meter.c: 142: {
  1227                           ;LC-meter.c: 144: format_number(ser_putch, seconds, 10, 0);
  1228  0043' 080F'              	movf	_seconds+1,w	;volatile
  1229  0044' 0084'              	movwf	?_format_number+1
  1230  0045' 080E'              	movf	_seconds,w	;volatile
  1231  0046' 0083'              	movwf	?_format_number
  1232  0047' 300A               	movlw	10
  1233  0048' 0085'              	movwf	?_format_number+2
  1234  0049' 3001               	movlw	(fp__ser_putch-fpbase)& (0+255)
  1235  004A' 0186'              	clrf	?_format_number+3
  1236  004B' 120A' 118A' 2000'  	fcall	_format_number
      +       120A' 118A'        
  1237                           
  1238                           ;LC-meter.c: 146: ser_puts("\r\n");
  1239  0050' 3000'              	movlw	low (STR_5| (0+32768))
  1240  0051' 0084'              	movwf	?_ser_puts
  1241  0052' 3000'              	movlw	high (STR_5| (0+32768))
  1242  0053' 0085'              	movwf	?_ser_puts+1
  1243  0054' 120A' 118A' 2000'  	fcall	_ser_puts
      +       120A' 118A'        
  1244                           
  1245                           ;LC-meter.c: 148: prev_seconds = seconds;
  1246  0059' 080F'              	movf	_seconds+1,w	;volatile
  1247  005A' 00B0'              	movwf	main@prev_seconds+1
  1248  005B' 080E'              	movf	_seconds,w	;volatile
  1249  005C' 00AF'              	movwf	main@prev_seconds
  1250  005D' 2800'              	goto	l7692
  1251  005E'                    __end_of_main:	
  1252                           
  1253                           	psect	text487
  1254  0000'                    __ptext487:	
  1255 ;; =============== function _main ends ============
  1256                           
  1257                           
  1258 ;; *************** function _initialize *****************
  1259 ;; Defined at:
  1260 ;;		line 169 in file "../../../src/LC-meter.c"
  1261 ;; Parameters:    Size  Location     Type
  1262 ;;		None
  1263 ;; Auto vars:     Size  Location     Type
  1264 ;;		None
  1265 ;; Return value:  Size  Location     Type
  1266 ;;		None               void
  1267 ;; Registers used:
  1268 ;;		wreg, status,2, status,0, pclath, cstack
  1269 ;; Tracked objects:
  1270 ;;		On entry : 17F/0
  1271 ;;		On exit  : 60/0
  1272 ;;		Unchanged: 0/0
  1273 ;; Data sizes:     COMMON   BANK0   BANK1   BANK3   BANK2
  1274 ;;      Params:         0       0       0       0       0
  1275 ;;      Locals:         0       0       0       0       0
  1276 ;;      Temps:          0       0       0       0       0
  1277 ;;      Totals:         0       0       0       0       0
  1278 ;;Total ram usage:        0 bytes
  1279 ;; Hardware stack levels used:    1
  1280 ;; Hardware stack levels required when called:    4
  1281 ;; This function calls:
  1282 ;;		_setup_timer0
  1283 ;;		_ser_init
  1284 ;;		_lcd_init
  1285 ;;		_lcd_clear
  1286 ;; This function is called by:
  1287 ;;		_main
  1288 ;; This function uses a non-reentrant model
  1289 ;;
  1290  0000'                    _initialize:	
  1291                           
  1292                           ;LC-meter.c: 171: CM0 = 1;
  1293                           
  1294                           ; Regs used in _initialize: [wreg+status,2+status,0+pclath+cstack]
  1295  0000' 1683               	bsf	3,5	;RP0=1, select bank1
  1296  0001' 30CF               	movlw	207
  1297  0002' 141C               	bsf	28,0
  1298                           
  1299                           ;LC-meter.c: 172: CM1 = 0;
  1300  0003' 109C               	bcf	28,1
  1301                           
  1302                           ;LC-meter.c: 173: CM2 = 1;
  1303  0004' 151C               	bsf	28,2
  1304                           
  1305                           ;LC-meter.c: 175: TRISA = 0b11001111;
  1306  0005' 0085               	movwf	5	;volatile
  1307                           
  1308                           ;LC-meter.c: 177: setup_timer0();
  1309  0006' 2000' 120A' 118A'  	fcall	_setup_timer0
  1310                           
  1311                           ;LC-meter.c: 178: T0IE = 1;
  1312  0009' 168B               	bsf	11,5
  1313                           
  1314                           ;LC-meter.c: 179: T0IF = 0;
  1315  000A' 110B               	bcf	11,2
  1316                           
  1317                           ;LC-meter.c: 186: SSPEN = 0;
  1318  000B' 1283               	bcf	3,5	;RP0=0, select bank0
  1319  000C' 1294               	bcf	20,5
  1320                           
  1321                           ;LC-meter.c: 191: TRISC4 = 1;
  1322  000D' 1683               	bsf	3,5	;RP0=1, select bank1
  1323  000E' 1607               	bsf	7,4
  1324                           
  1325                           ;LC-meter.c: 192: nRBPU = 1;
  1326  000F' 1781               	bsf	1,7
  1327                           
  1328                           ;LC-meter.c: 197: TRISA2 = TRISC3 = 0;
  1329  0010' 1187               	bcf	7,3
  1330  0011' 1105               	bcf	5,2
  1331                           
  1332                           ;LC-meter.c: 198: RA2 = RC3 = 1;
  1333  0012' 1283               	bcf	3,5	;RP0=0, select bank0
  1334  0013' 1587               	bsf	7,3
  1335  0014' 1D87               	btfss	7,3
  1336  0015' 2800'              	goto	u1200
  1337  0016' 1283               	bcf	3,5	;RP0=0, select bank0
  1338  0017' 1303               	bcf	3,6	;RP1=0, select bank0
  1339  0018' 1505               	bsf	5,2
  1340  0019' 2800'              	goto	l7672
  1341  001A'                    u1200:	
  1342  001A' 1283               	bcf	3,5	;RP0=0, select bank0
  1343  001B' 1303               	bcf	3,6	;RP1=0, select bank0
  1344  001C' 1105               	bcf	5,2
  1345  001D'                    l7672:	
  1346                           
  1347                           ;LC-meter.c: 201: ser_init();
  1348  001D' 2000' 120A' 118A'  	fcall	_ser_init
  1349                           
  1350                           ;LC-meter.c: 204: TRISC5 = 0;
  1351  0020' 1683               	bsf	3,5	;RP0=1, select bank1
  1352  0021' 1287               	bcf	7,5
  1353                           
  1354                           ;LC-meter.c: 207: PEIE = 1;
  1355  0022' 170B               	bsf	11,6
  1356                           
  1357                           ;LC-meter.c: 208: GIE = 1;
  1358  0023' 178B               	bsf	11,7
  1359                           
  1360                           ;LC-meter.c: 212: lcd_init();
  1361  0024' 2000' 120A' 118A'  	fcall	_lcd_init
  1362                           
  1363                           ;LC-meter.c: 213: lcd_clear();
  1364  0027' 2800'              	ljmp	l7638
  1365  0028'                    __end_of_initialize:	
  1366  0028'                    __ptext500:	
  1367 ;; =============== function _setup_timer0 ends ============
  1368                           
  1369                           
  1370 ;; *************** function _ser_init *****************
  1371 ;; Defined at:
  1372 ;;		line 119 in file "../../../lib/ser.c"
  1373 ;; Parameters:    Size  Location     Type
  1374 ;;		None
  1375 ;; Auto vars:     Size  Location     Type
  1376 ;;		None
  1377 ;; Return value:  Size  Location     Type
  1378 ;;		None               void
  1379 ;; Registers used:
  1380 ;;		wreg, status,2
  1381 ;; Tracked objects:
  1382 ;;		On entry : 60/0
  1383 ;;		On exit  : 60/0
  1384 ;;		Unchanged: FFF9F/0
  1385 ;; Data sizes:     COMMON   BANK0   BANK1   BANK3   BANK2
  1386 ;;      Params:         0       0       0       0       0
  1387 ;;      Locals:         0       0       0       0       0
  1388 ;;      Temps:          0       0       0       0       0
  1389 ;;      Totals:         0       0       0       0       0
  1390 ;;Total ram usage:        0 bytes
  1391 ;; Hardware stack levels used:    1
  1392 ;; Hardware stack levels required when called:    1
  1393 ;; This function calls:
  1394 ;;		Nothing
  1395 ;; This function is called by:
  1396 ;;		_initialize
  1397 ;; This function uses a non-reentrant model
  1398 ;;
  1399  0028'                    _ser_init:	
  1400                           
  1401                           ;ser.c: 120: BRGH = 1;
  1402                           
  1403                           ; Regs used in _ser_init: [wreg+status,2]
  1404  0028' 1683               	bsf	3,5	;RP0=1, select bank1
  1405  0029' 301F               	movlw	31
  1406  002A' 1518               	bsf	24,2
  1407                           
  1408                           ;ser.c: 125: SPBRG = ser_brg;
  1409  002B' 0099               	movwf	25	;volatile
  1410                           
  1411                           ;ser.c: 128: TX9 = 0;
  1412  002C' 1318               	bcf	24,6
  1413                           
  1414                           ;ser.c: 129: RX9 = 0;
  1415  002D' 1283               	bcf	3,5	;RP0=0, select bank0
  1416  002E' 1318               	bcf	24,6
  1417                           
  1418                           ;ser.c: 131: SYNC = 0;
  1419  002F' 1683               	bsf	3,5	;RP0=1, select bank1
  1420  0030' 1218               	bcf	24,4
  1421                           
  1422                           ;ser.c: 132: SPEN = 1;
  1423  0031' 1283               	bcf	3,5	;RP0=0, select bank0
  1424  0032' 1798               	bsf	24,7
  1425                           
  1426                           ;ser.c: 133: CREN = 1;
  1427  0033' 1618               	bsf	24,4
  1428                           
  1429                           ;ser.c: 134: TXIE = 0;
  1430  0034' 1683               	bsf	3,5	;RP0=1, select bank1
  1431  0035' 120C               	bcf	12,4
  1432                           
  1433                           ;ser.c: 135: RCIE = 1;
  1434  0036' 168C               	bsf	12,5
  1435                           
  1436                           ;ser.c: 136: TXEN = 1;
  1437  0037' 1698               	bsf	24,5
  1438                           
  1439                           ;ser.c: 137: PEIE = 1;
  1440  0038' 170B               	bsf	11,6
  1441                           
  1442                           ;ser.c: 139: rxiptr = rxoptr = txiptr = txoptr = 0;
  1443  0039' 0182'              	clrf	_txoptr	;volatile
  1444  003A' 0181'              	clrf	_txiptr	;volatile
  1445  003B' 1283               	bcf	3,5	;RP0=0, select bank0
  1446  003C' 0192'              	clrf	_rxoptr	;volatile
  1447  003D' 0180'              	clrf	_rxiptr	;volatile
  1448  003E' 0008               	return
  1449  003F'                    __end_of_ser_init:	
  1450  003F'                    __ptext499:	
  1451 ;; =============== function ___wmul ends ============
  1452                           
  1453                           
  1454 ;; *************** function _setup_timer0 *****************
  1455 ;; Defined at:
  1456 ;;		line 8 in file "../../../lib/timer.c"
  1457 ;; Parameters:    Size  Location     Type
  1458 ;;		None
  1459 ;; Auto vars:     Size  Location     Type
  1460 ;;		None
  1461 ;; Return value:  Size  Location     Type
  1462 ;;		None               void
  1463 ;; Registers used:
  1464 ;;		wreg, status,2, status,0
  1465 ;; Tracked objects:
  1466 ;;		On entry : 17F/20
  1467 ;;		On exit  : 17F/20
  1468 ;;		Unchanged: FFE80/0
  1469 ;; Data sizes:     COMMON   BANK0   BANK1   BANK3   BANK2
  1470 ;;      Params:         0       0       0       0       0
  1471 ;;      Locals:         0       0       0       0       0
  1472 ;;      Temps:          0       0       0       0       0
  1473 ;;      Totals:         0       0       0       0       0
  1474 ;;Total ram usage:        0 bytes
  1475 ;; Hardware stack levels used:    1
  1476 ;; Hardware stack levels required when called:    1
  1477 ;; This function calls:
  1478 ;;		Nothing
  1479 ;; This function is called by:
  1480 ;;		_initialize
  1481 ;; This function uses a non-reentrant model
  1482 ;;
  1483  003F'                    _setup_timer0:	
  1484  003F' 3007               	movlw	7
  1485                           
  1486                           ;timer.c: 11: T0CS = 0;
  1487                           
  1488                           ; Regs used in _setup_timer0: [wreg+status,2+status,0]
  1489  0040' 1281               	bcf	1,5
  1490                           
  1491                           ;timer.c: 22: PSA = (0 == 0);
  1492  0041' 1581               	bsf	1,3
  1493                           
  1494                           ;timer.c: 25: OPTION_REGbits.PS = 0 - 1;
  1495  0042' 0481               	iorwf	1,f	;volatile
  1496  0043' 0008               	return
  1497  0044'                    __end_of_setup_timer0:	
  1498  0044'                    __ptext488:	
  1499 ;; =============== function _initialize ends ============
  1500                           
  1501                           
  1502 ;; *************** function _lcd_clear *****************
  1503 ;; Defined at:
  1504 ;;		line 227 in file "../../../lib/lcd3310.c"
  1505 ;; Parameters:    Size  Location     Type
  1506 ;;		None
  1507 ;; Auto vars:     Size  Location     Type
  1508 ;;  i               2    6[BANK0 ] unsigned int 
  1509 ;; Return value:  Size  Location     Type
  1510 ;;		None               void
  1511 ;; Registers used:
  1512 ;;		wreg, status,2, status,0, pclath, cstack
  1513 ;; Tracked objects:
  1514 ;;		On entry : 60/0
  1515 ;;		On exit  : 60/0
  1516 ;;		Unchanged: 0/0
  1517 ;; Data sizes:     COMMON   BANK0   BANK1   BANK3   BANK2
  1518 ;;      Params:         0       0       0       0       0
  1519 ;;      Locals:         0       2       0       0       0
  1520 ;;      Temps:          0       0       0       0       0
  1521 ;;      Totals:         0       2       0       0       0
  1522 ;;Total ram usage:        2 bytes
  1523 ;; Hardware stack levels used:    1
  1524 ;; Hardware stack levels required when called:    3
  1525 ;; This function calls:
  1526 ;;		_lcd_gotoxy
  1527 ;;		_lcd_send
  1528 ;; This function is called by:
  1529 ;;		_initialize
  1530 ;; This function uses a non-reentrant model
  1531 ;;
  1532  0044'                    _lcd_clear:	
  1533  0044'                    l7638:	
  1534                           ; Regs used in _lcd_clear: [wreg+status,2+status,0+pclath+cstack]
  1535                           
  1536  0044' 3000               	movlw	0
  1537                           
  1538                           ;lcd3310.c: 228: uint16_t i;
  1539                           ;lcd3310.c: 229: lcd_gotoxy(0, 0);
  1540  0045' 0183'              	clrf	?_lcd_gotoxy
  1541  0046' 0184'              	clrf	?_lcd_gotoxy+1
  1542  0047' 2000' 120A' 118A'  	fcall	_lcd_gotoxy
  1543                           
  1544                           ;lcd3310.c: 230: for(i = 0; i < 504; ++i)
  1545  004A' 0186'              	clrf	lcd_clear@i
  1546  004B' 0187'              	clrf	lcd_clear@i+1
  1547  004C'                    l7646:	
  1548  004C' 3000               	movlw	0
  1549                           
  1550                           ;lcd3310.c: 231: {
  1551                           ;lcd3310.c: 232: lcd_send(0, 1);
  1552  004D' 0187'              	clrf	?_lcd_send
  1553  004E' 0A87'              	incf	?_lcd_send,f
  1554  004F' 2000' 120A' 118A'  	fcall	_lcd_send
  1555  0052' 0A86'              	incf	lcd_clear@i,f
  1556  0053' 1903               	skipnz
  1557  0054' 0A87'              	incf	lcd_clear@i+1,f
  1558  0055' 3001               	movlw	1
  1559  0056' 0207'              	subwf	lcd_clear@i+1,w
  1560  0057' 30F8               	movlw	248
  1561  0058' 1903               	skipnz
  1562  0059' 0206'              	subwf	lcd_clear@i,w
  1563  005A' 1803               	btfsc	3,0
  1564  005B' 0008               	return
  1565  005C' 2800'              	goto	l7646
  1566  005D'                    __end_of_lcd_clear:	
  1567  005D'                    __ptext492:	
  1568 ;; =============== function _lcd_putch ends ============
  1569                           
  1570                           
  1571 ;; *************** function _lcd_gotoxy *****************
  1572 ;; Defined at:
  1573 ;;		line 239 in file "../../../lib/lcd3310.c"
  1574 ;; Parameters:    Size  Location     Type
  1575 ;;  x               1    wreg     unsigned char 
  1576 ;;  y               2    3[BANK0 ] unsigned int 
  1577 ;; Auto vars:     Size  Location     Type
  1578 ;;  x               1    5[BANK0 ] unsigned char 
  1579 ;; Return value:  Size  Location     Type
  1580 ;;		None               void
  1581 ;; Registers used:
  1582 ;;		wreg, status,2, status,0, pclath, cstack
  1583 ;; Tracked objects:
  1584 ;;		On entry : 60/0
  1585 ;;		On exit  : 60/0
  1586 ;;		Unchanged: 0/0
  1587 ;; Data sizes:     COMMON   BANK0   BANK1   BANK3   BANK2
  1588 ;;      Params:         0       2       0       0       0
  1589 ;;      Locals:         0       1       0       0       0
  1590 ;;      Temps:          0       0       0       0       0
  1591 ;;      Totals:         0       3       0       0       0
  1592 ;;Total ram usage:        3 bytes
  1593 ;; Hardware stack levels used:    1
  1594 ;; Hardware stack levels required when called:    2
  1595 ;; This function calls:
  1596 ;;		_lcd_send
  1597 ;; This function is called by:
  1598 ;;		_lcd_clear
  1599 ;; This function uses a non-reentrant model
  1600 ;;
  1601  005D'                    _lcd_gotoxy:	
  1602                           
  1603                           ; Regs used in _lcd_gotoxy: [wreg+status,2+status,0+pclath+cstack]
  1604                           ;lcd_gotoxy@x stored from wreg
  1605  005D' 0085'              	movwf	lcd_gotoxy@x
  1606                           
  1607                           ;lcd3310.c: 240: lcd_send(x | 0b10000000, 0);
  1608  005E' 0187'              	clrf	?_lcd_send
  1609  005F' 3880               	iorlw	128
  1610  0060' 2000' 120A' 118A'  	fcall	_lcd_send
  1611                           
  1612                           ;lcd3310.c: 241: lcd_send((y & 0b00000111) | 0b01000000, 0);
  1613  0063' 0187'              	clrf	?_lcd_send
  1614  0064' 0803'              	movf	lcd_gotoxy@y,w
  1615  0065' 3907               	andlw	7
  1616  0066' 3840               	iorlw	64
  1617  0067' 2800'              	ljmp	_lcd_send
  1618  0068'                    __end_of_lcd_gotoxy:	
  1619  0068'                    __ptext489:	
  1620 ;; =============== function _lcd_clear ends ============
  1621                           
  1622                           
  1623 ;; *************** function _display_print_number *****************
  1624 ;; Defined at:
  1625 ;;		line 164 in file "../../../src/display.c"
  1626 ;; Parameters:    Size  Location     Type
  1627 ;;  n               2    4[BANK0 ] unsigned int 
  1628 ;;  base            1    6[BANK0 ] unsigned char 
  1629 ;;  pad             1    7[BANK0 ] char 
  1630 ;; Auto vars:     Size  Location     Type
  1631 ;;  buf            32   11[BANK0 ] unsigned char [32]
  1632 ;;  i               1   46[BANK0 ] unsigned char 
  1633 ;;  di              1   45[BANK0 ] unsigned char 
  1634 ;; Return value:  Size  Location     Type
  1635 ;;		None               void
  1636 ;; Registers used:
  1637 ;;		wreg, fsr0l, fsr0h, status,2, status,0, btemp+1, pclath, cstack
  1638 ;; Tracked objects:
  1639 ;;		On entry : 60/0
  1640 ;;		On exit  : 60/0
  1641 ;;		Unchanged: 0/0
  1642 ;; Data sizes:     COMMON   BANK0   BANK1   BANK3   BANK2
  1643 ;;      Params:         0       4       0       0       0
  1644 ;;      Locals:         0      36       0       0       0
  1645 ;;      Temps:          0       3       0       0       0
  1646 ;;      Totals:         0      43       0       0       0
  1647 ;;Total ram usage:       43 bytes
  1648 ;; Hardware stack levels used:    1
  1649 ;; Hardware stack levels required when called:    3
  1650 ;; This function calls:
  1651 ;;		___lwmod
  1652 ;;		___lwdiv
  1653 ;;		_lcd_putch
  1654 ;; This function is called by:
  1655 ;;		_main
  1656 ;; This function uses a non-reentrant model
  1657 ;;
  1658  0068'                    _display_print_number:	
  1659                           
  1660                           ;display.c: 165: uint8_t buf[8 * sizeof(long)];
  1661                           ;display.c: 166: uint8_t di;
  1662                           ;display.c: 167: uint8_t i = 0;
  1663                           
  1664                           ; Regs used in _display_print_number: [wreg-fsr0h+status,2+status,0+btemp+1+pclath+cstac
      +                          k]
  1665  0068' 01AE'              	clrf	display_print_number@i
  1666  0069'                    l7608:	
  1667                           
  1668                           ;display.c: 175: {
  1669                           ;display.c: 179: di = n % base;
  1670  0069' 0806'              	movf	display_print_number@base,w
  1671  006A' 0083'              	movwf	?___lwmod
  1672  006B' 0184'              	clrf	?___lwmod+1
  1673  006C' 0805'              	movf	display_print_number@n+1,w
  1674  006D' 0086'              	movwf	?___lwmod+3
  1675  006E' 0804'              	movf	display_print_number@n,w
  1676  006F' 0085'              	movwf	?___lwmod+2
  1677  0070' 2000' 120A' 118A'  	fcall	___lwmod
  1678  0073' 0803'              	movf	?___lwmod,w
  1679  0074' 00AD'              	movwf	display_print_number@di
  1680                           
  1681                           ;display.c: 180: buf[i++] = (di < 10 ? (uint8_t)'0' + di : (uint8_t)'A' + di - 10);
  1682  0075' 300A               	movlw	10
  1683  0076' 022D'              	subwf	display_print_number@di,w
  1684  0077' 082D'              	movf	display_print_number@di,w
  1685  0078' 00AB'              	movwf	_display_print_number$4972
  1686  0079' 1C03               	skipc
  1687  007A' 2800'              	goto	L2
  1688  007B' 3037               	movlw	55
  1689  007C' 2800'              	goto	L1
  1690  007D'                    L2:	
  1691  007D' 3030               	movlw	48
  1692  007E'                    L1:	
  1693  007E' 01AC'              	clrf	_display_print_number$4972+1
  1694  007F' 07AB'              	addwf	_display_print_number$4972,f
  1695  0080' 1803               	skipnc
  1696  0081' 0AAC'              	incf	_display_print_number$4972+1,f
  1697  0082' 082E'              	movf	display_print_number@i,w
  1698  0083' 3E00'              	addlw	display_print_number@buf& (0+255)
  1699  0084' 0084               	movwf	4
  1700  0085' 082B'              	movf	_display_print_number$4972,w
  1701  0086' 1383               	bcf	3,7	;select IRP bank0
  1702  0087' 0080               	movwf	0
  1703  0088' 0AAE'              	incf	display_print_number@i,f
  1704                           
  1705                           ;display.c: 182: n /= base;
  1706  0089' 0806'              	movf	display_print_number@base,w
  1707  008A' 0083'              	movwf	?___lwdiv
  1708  008B' 0184'              	clrf	?___lwdiv+1
  1709  008C' 0805'              	movf	display_print_number@n+1,w
  1710  008D' 0086'              	movwf	?___lwdiv+3
  1711  008E' 0804'              	movf	display_print_number@n,w
  1712  008F' 0085'              	movwf	?___lwdiv+2
  1713  0090' 2000' 120A' 118A'  	fcall	___lwdiv
  1714  0093' 0804'              	movf	?___lwdiv+1,w
  1715  0094' 0085'              	movwf	display_print_number@n+1
  1716  0095' 0803'              	movf	?___lwdiv,w
  1717  0096' 0084'              	movwf	display_print_number@n
  1718                           
  1719                           ;display.c: 183: }
  1720                           ;display.c: 184: while(n > 0);
  1721  0097' 0405'              	iorwf	display_print_number@n+1,w
  1722  0098' 1903               	btfsc	3,2
  1723  0099' 2800'              	goto	l7626
  1724  009A' 2800'              	goto	l7608
  1725  009B'                    l7624:	
  1726                           
  1727                           ;display.c: 187: lcd_putch(' ');
  1728  009B' 3020               	movlw	32
  1729  009C' 2000' 120A' 118A'  	fcall	_lcd_putch
  1730  009F'                    l7626:	
  1731  009F' 0807'              	movf	display_print_number@pad,w
  1732  00A0' 0387'              	decf	display_print_number@pad,f
  1733  00A1' 0088'              	movwf	??_display_print_number
  1734  00A2' 0189'              	clrf	??_display_print_number+1
  1735  00A3' 1B88'              	btfsc	??_display_print_number,7
  1736  00A4' 0389'              	decf	??_display_print_number+1,f
  1737  00A5' 0809'              	movf	??_display_print_number+1,w
  1738  00A6' 3A80               	xorlw	128
  1739  00A7' 008A'              	movwf	??_display_print_number+2
  1740  00A8' 3080               	movlw	128
  1741  00A9' 020A'              	subwf	??_display_print_number+2,w
  1742  00AA' 1D03               	skipz
  1743  00AB' 2800'              	goto	u1175
  1744  00AC' 082E'              	movf	display_print_number@i,w
  1745  00AD' 0208'              	subwf	??_display_print_number,w
  1746  00AE'                    u1175:	
  1747  00AE' 1803               	skipnc
  1748  00AF' 2800'              	goto	l7624
  1749  00B0'                    l7628:	
  1750                           
  1751                           ;display.c: 189: for(; i > 0; i--)
  1752  00B0' 1283               	bcf	3,5	;RP0=0, select bank0
  1753  00B1' 1303               	bcf	3,6	;RP1=0, select bank0
  1754  00B2' 08AE'              	movf	display_print_number@i,f
  1755  00B3' 1903               	btfsc	3,2
  1756  00B4' 0008               	return
  1757                           
  1758                           ;display.c: 190: lcd_putch((uint8_t)buf[(int16_t)i - 1]);
  1759  00B5' 082E'              	movf	display_print_number@i,w
  1760  00B6' 3EFF               	addlw	255
  1761  00B7' 3E00'              	addlw	display_print_number@buf& (0+255)
  1762  00B8' 0084               	movwf	4
  1763  00B9' 1383               	bcf	3,7	;select IRP bank0
  1764  00BA' 0800               	movf	0,w
  1765  00BB' 2000' 120A' 118A'  	fcall	_lcd_putch
  1766  00BE' 03AE'              	decf	display_print_number@i,f
  1767  00BF' 2800'              	goto	l7628
  1768  00C0'                    __end_of_display_print_number:	
  1769  00C0'                    __ptext495:	
  1770 ;; =============== function _ser_puts ends ============
  1771                           
  1772                           
  1773 ;; *************** function _format_number *****************
  1774 ;; Defined at:
  1775 ;;		line 6 in file "../../../lib/format.c"
  1776 ;; Parameters:    Size  Location     Type
  1777 ;;  putchar         1    wreg     PTR FTN(unsigned char ,)
  1778 ;;		 -> ser_putch(0), 
  1779 ;;  n               2    3[BANK0 ] unsigned int 
  1780 ;;  base            1    5[BANK0 ] unsigned char 
  1781 ;;  pad             1    6[BANK0 ] char 
  1782 ;; Auto vars:     Size  Location     Type
  1783 ;;  putchar         1   43[BANK0 ] PTR FTN(unsigned char ,)
  1784 ;;		 -> ser_putch(0), 
  1785 ;;  buf            32    8[BANK0 ] unsigned char [32]
  1786 ;;  i               1   45[BANK0 ] char 
  1787 ;;  di              1   44[BANK0 ] unsigned char 
  1788 ;;  padchar         1   40[BANK0 ] unsigned char 
  1789 ;; Return value:  Size  Location     Type
  1790 ;;		None               void
  1791 ;; Registers used:
  1792 ;;		wreg, fsr0l, fsr0h, status,2, status,0, pclath, cstack
  1793 ;; Tracked objects:
  1794 ;;		On entry : 60/0
  1795 ;;		On exit  : 160/0
  1796 ;;		Unchanged: FFE9F/0
  1797 ;; Data sizes:     COMMON   BANK0   BANK1   BANK3   BANK2
  1798 ;;      Params:         0       4       0       0       0
  1799 ;;      Locals:         0      38       0       0       0
  1800 ;;      Temps:          0       1       0       0       0
  1801 ;;      Totals:         0      43       0       0       0
  1802 ;;Total ram usage:       43 bytes
  1803 ;; Hardware stack levels used:    1
  1804 ;; Hardware stack levels required when called:    2
  1805 ;; This function calls:
  1806 ;;		___lwmod
  1807 ;;		___lwdiv
  1808 ;;		_ser_putch
  1809 ;; This function is called by:
  1810 ;;		_main
  1811 ;; This function uses a non-reentrant model
  1812 ;;
  1813  00C0'                    _format_number:	
  1814                           
  1815                           ; Regs used in _format_number: [wreg-fsr0h+status,2+status,0+pclath+cstack]
  1816                           ;format_number@putchar stored from wreg
  1817  00C0' 00AB'              	movwf	format_number@putchar
  1818  00C1' 3020               	movlw	32
  1819                           
  1820                           ;format.c: 7: uint8_t buf[8 * sizeof(long)];
  1821                           ;format.c: 8: uint8_t di;
  1822                           ;format.c: 9: int8_t i = 0;
  1823  00C2' 01AD'              	clrf	format_number@i
  1824                           
  1825                           ;format.c: 10: char padchar = ' ';
  1826  00C3' 00A8'              	movwf	format_number@padchar
  1827                           
  1828                           ;format.c: 12: if(pad < 0)
  1829  00C4' 1F86'              	btfss	format_number@pad,7
  1830  00C5' 2800'              	goto	l7504
  1831  00C6' 3030               	movlw	48
  1832                           
  1833                           ;format.c: 13: {
  1834                           ;format.c: 14: pad = -pad;
  1835  00C7' 0986'              	comf	format_number@pad,f
  1836  00C8' 0A86'              	incf	format_number@pad,f
  1837                           
  1838                           ;format.c: 15: padchar = '0';
  1839  00C9' 00A8'              	movwf	format_number@padchar
  1840  00CA'                    l7504:	
  1841                           
  1842                           ;format.c: 24: {
  1843                           ;format.c: 28: di = n % base;
  1844  00CA' 0805'              	movf	format_number@base,w
  1845  00CB' 0083'              	movwf	?___lwmod
  1846  00CC' 0184'              	clrf	?___lwmod+1
  1847  00CD' 0804'              	movf	format_number@n+1,w
  1848  00CE' 0086'              	movwf	?___lwmod+3
  1849  00CF' 0803'              	movf	format_number@n,w
  1850  00D0' 0085'              	movwf	?___lwmod+2
  1851  00D1' 2000' 120A' 118A'  	fcall	___lwmod
  1852  00D4' 0803'              	movf	?___lwmod,w
  1853  00D5' 00AC'              	movwf	format_number@di
  1854                           
  1855                           ;format.c: 29: buf[i++] = (di < 10 ? (uint8_t)'0' + di : (uint8_t)'A' + di - 10);
  1856  00D6' 300A               	movlw	10
  1857  00D7' 022C'              	subwf	format_number@di,w
  1858  00D8' 082C'              	movf	format_number@di,w
  1859  00D9' 00A9'              	movwf	_format_number$1902
  1860  00DA' 1C03               	skipc
  1861  00DB' 2800'              	goto	L4
  1862  00DC' 3037               	movlw	55
  1863  00DD' 2800'              	goto	L3
  1864  00DE'                    L4:	
  1865  00DE' 3030               	movlw	48
  1866  00DF'                    L3:	
  1867  00DF' 01AA'              	clrf	_format_number$1902+1
  1868  00E0' 07A9'              	addwf	_format_number$1902,f
  1869  00E1' 1803               	skipnc
  1870  00E2' 0AAA'              	incf	_format_number$1902+1,f
  1871  00E3' 082D'              	movf	format_number@i,w
  1872  00E4' 3E00'              	addlw	format_number@buf& (0+255)
  1873  00E5' 0084               	movwf	4
  1874  00E6' 0829'              	movf	_format_number$1902,w
  1875  00E7' 1383               	bcf	3,7	;select IRP bank0
  1876  00E8' 0080               	movwf	0
  1877  00E9' 0AAD'              	incf	format_number@i,f
  1878                           
  1879                           ;format.c: 31: n /= base;
  1880  00EA' 0805'              	movf	format_number@base,w
  1881  00EB' 0083'              	movwf	?___lwdiv
  1882  00EC' 0184'              	clrf	?___lwdiv+1
  1883  00ED' 0804'              	movf	format_number@n+1,w
  1884  00EE' 0086'              	movwf	?___lwdiv+3
  1885  00EF' 0803'              	movf	format_number@n,w
  1886  00F0' 0085'              	movwf	?___lwdiv+2
  1887  00F1' 2000' 120A' 118A'  	fcall	___lwdiv
  1888  00F4' 0804'              	movf	?___lwdiv+1,w
  1889  00F5' 0084'              	movwf	format_number@n+1
  1890  00F6' 0803'              	movf	?___lwdiv,w
  1891  00F7' 0083'              	movwf	format_number@n
  1892                           
  1893                           ;format.c: 32: }
  1894                           ;format.c: 33: while(n > 0);
  1895  00F8' 0404'              	iorwf	format_number@n+1,w
  1896  00F9' 1903               	btfsc	3,2
  1897  00FA' 2800'              	goto	l7522
  1898  00FB' 2800'              	goto	l7504
  1899  00FC'                    l7520:	
  1900                           
  1901                           ;format.c: 36: putchar(padchar);
  1902  00FC' 0828'              	movf	format_number@padchar,w
  1903  00FD' 0083'              	movwf	?_ser_putch
  1904  00FE' 082B'              	movf	format_number@putchar,w
  1905  00FF' 120A' 118A' 2000'  	fcall	fptable
      +       120A' 118A'        
  1906  0104'                    l7522:	
  1907  0104' 1283               	bcf	3,5	;RP0=0, select bank0
  1908  0105' 0806'              	movf	format_number@pad,w
  1909  0106' 0386'              	decf	format_number@pad,f
  1910  0107' 3A80               	xorlw	128
  1911  0108' 0087'              	movwf	??_format_number
  1912  0109' 082D'              	movf	format_number@i,w
  1913  010A' 3A80               	xorlw	128
  1914  010B' 0287'              	subwf	??_format_number,f
  1915  010C' 1803               	skipnc
  1916  010D' 2800'              	goto	l7520
  1917  010E'                    l7524:	
  1918                           
  1919                           ;format.c: 38: for(; i > 0; i--)
  1920  010E' 082D'              	movf	format_number@i,w
  1921  010F' 3A80               	xorlw	128
  1922  0110' 3E7F               	addlw	-129
  1923  0111' 1C03               	btfss	3,0
  1924  0112' 0008               	return
  1925                           
  1926                           ;format.c: 39: putchar((char)buf[(int16_t)i - 1]);
  1927  0113' 082D'              	movf	format_number@i,w
  1928  0114' 3EFF               	addlw	255
  1929  0115' 3E00'              	addlw	format_number@buf& (0+255)
  1930  0116' 0084               	movwf	4
  1931  0117' 0800               	movf	0,w
  1932  0118' 0083'              	movwf	?_ser_putch
  1933  0119' 082B'              	movf	format_number@putchar,w
  1934  011A' 120A' 118A' 2000'  	fcall	fptable
      +       120A' 118A'        
  1935  011F' 1283               	bcf	3,5	;RP0=0, select bank0
  1936  0120' 03AD'              	decf	format_number@i,f
  1937  0121' 2800'              	goto	l7524
  1938  0122'                    __end_of_format_number:	
  1939  0122'                    __ptext497:	
  1940 ;; =============== function ___lwmod ends ============
  1941                           
  1942                           
  1943 ;; *************** function ___lwdiv *****************
  1944 ;; Defined at:
  1945 ;;		line 5 in file "C:\Program Files (x86)\HI-TECH Software\PICC\9.83\sources\lwdiv.c"
  1946 ;; Parameters:    Size  Location     Type
  1947 ;;  divisor         2    3[COMMON] unsigned int 
  1948 ;;  dividend        2    5[COMMON] unsigned int 
  1949 ;; Auto vars:     Size  Location     Type
  1950 ;;  quotient        2    1[BANK0 ] unsigned int 
  1951 ;;  counter         1    0[BANK0 ] unsigned char 
  1952 ;; Return value:  Size  Location     Type
  1953 ;;                  2    3[COMMON] unsigned int 
  1954 ;; Registers used:
  1955 ;;		wreg, status,2, status,0
  1956 ;; Tracked objects:
  1957 ;;		On entry : 160/0
  1958 ;;		On exit  : 160/0
  1959 ;;		Unchanged: FFE9F/0
  1960 ;; Data sizes:     COMMON   BANK0   BANK1   BANK3   BANK2
  1961 ;;      Params:         4       0       0       0       0
  1962 ;;      Locals:         0       3       0       0       0
  1963 ;;      Temps:          0       0       0       0       0
  1964 ;;      Totals:         4       3       0       0       0
  1965 ;;Total ram usage:        7 bytes
  1966 ;; Hardware stack levels used:    1
  1967 ;; Hardware stack levels required when called:    1
  1968 ;; This function calls:
  1969 ;;		Nothing
  1970 ;; This function is called by:
  1971 ;;		_format_number
  1972 ;;		_display_print_number
  1973 ;; This function uses a non-reentrant model
  1974 ;;
  1975  0122'                    ___lwdiv:	
  1976                           
  1977                           ; Regs used in ___lwdiv: [wreg+status,2+status,0]
  1978  0122' 0181'              	clrf	___lwdiv@quotient
  1979  0123' 0182'              	clrf	___lwdiv@quotient+1
  1980  0124' 0804'              	movf	___lwdiv@divisor+1,w
  1981  0125' 0403'              	iorwf	___lwdiv@divisor,w
  1982  0126' 1903               	skipnz
  1983  0127' 2800'              	goto	l7490
  1984  0128' 0180'              	clrf	___lwdiv@counter
  1985  0129'                    L7:	
  1986  0129' 0A80'              	incf	___lwdiv@counter,f
  1987  012A' 1B84'              	btfsc	___lwdiv@divisor+1,7
  1988  012B' 2800'              	goto	l7478
  1989  012C' 1003               	clrc
  1990  012D' 0D83'              	rlf	___lwdiv@divisor,f
  1991  012E' 0D84'              	rlf	___lwdiv@divisor+1,f
  1992  012F' 2800'              	goto	L7
  1993  0130'                    l7478:	
  1994  0130' 1003               	clrc
  1995  0131' 0D81'              	rlf	___lwdiv@quotient,f
  1996  0132' 0D82'              	rlf	___lwdiv@quotient+1,f
  1997  0133' 0804'              	movf	___lwdiv@divisor+1,w
  1998  0134' 0206'              	subwf	___lwdiv@dividend+1,w
  1999  0135' 1D03               	skipz
  2000  0136' 2800'              	goto	u975
  2001  0137' 0803'              	movf	___lwdiv@divisor,w
  2002  0138' 0205'              	subwf	___lwdiv@dividend,w
  2003  0139'                    u975:	
  2004  0139' 1C03               	skipc
  2005  013A' 2800'              	goto	L8
  2006  013B' 0803'              	movf	___lwdiv@divisor,w
  2007  013C' 0285'              	subwf	___lwdiv@dividend,f
  2008  013D' 0804'              	movf	___lwdiv@divisor+1,w
  2009  013E' 1C03               	skipc
  2010  013F' 0386'              	decf	___lwdiv@dividend+1,f
  2011  0140' 0286'              	subwf	___lwdiv@dividend+1,f
  2012  0141' 1401'              	bsf	___lwdiv@quotient,0
  2013  0142' 1003               	clrc
  2014  0143'                    L8:	
  2015  0143' 0C84'              	rrf	___lwdiv@divisor+1,f
  2016  0144' 0C83'              	rrf	___lwdiv@divisor,f
  2017  0145' 0B80'              	decfsz	___lwdiv@counter,f
  2018  0146' 2800'              	goto	l7478
  2019  0147'                    l7490:	
  2020  0147' 0802'              	movf	___lwdiv@quotient+1,w
  2021  0148' 0084'              	movwf	?___lwdiv+1
  2022  0149' 0801'              	movf	___lwdiv@quotient,w
  2023  014A' 0083'              	movwf	?___lwdiv
  2024  014B' 0008               	return
  2025  014C'                    __end_of___lwdiv:	
  2026  014C'                    __ptext496:	
  2027 ;; =============== function _format_number ends ============
  2028                           
  2029                           
  2030 ;; *************** function ___lwmod *****************
  2031 ;; Defined at:
  2032 ;;		line 5 in file "C:\Program Files (x86)\HI-TECH Software\PICC\9.83\sources\lwmod.c"
  2033 ;; Parameters:    Size  Location     Type
  2034 ;;  divisor         2    3[COMMON] unsigned int 
  2035 ;;  dividend        2    5[COMMON] unsigned int 
  2036 ;; Auto vars:     Size  Location     Type
  2037 ;;  counter         1    7[COMMON] unsigned char 
  2038 ;; Return value:  Size  Location     Type
  2039 ;;                  2    3[COMMON] unsigned int 
  2040 ;; Registers used:
  2041 ;;		wreg, status,2, status,0
  2042 ;; Tracked objects:
  2043 ;;		On entry : 60/0
  2044 ;;		On exit  : 60/0
  2045 ;;		Unchanged: FFF9F/0
  2046 ;; Data sizes:     COMMON   BANK0   BANK1   BANK3   BANK2
  2047 ;;      Params:         4       0       0       0       0
  2048 ;;      Locals:         1       0       0       0       0
  2049 ;;      Temps:          0       0       0       0       0
  2050 ;;      Totals:         5       0       0       0       0
  2051 ;;Total ram usage:        5 bytes
  2052 ;; Hardware stack levels used:    1
  2053 ;; Hardware stack levels required when called:    1
  2054 ;; This function calls:
  2055 ;;		Nothing
  2056 ;; This function is called by:
  2057 ;;		_format_number
  2058 ;;		_display_print_number
  2059 ;; This function uses a non-reentrant model
  2060 ;;
  2061  014C'                    ___lwmod:	
  2062                           
  2063                           ; Regs used in ___lwmod: [wreg+status,2+status,0]
  2064  014C' 0804'              	movf	___lwmod@divisor+1,w
  2065  014D' 0403'              	iorwf	___lwmod@divisor,w
  2066  014E' 1903               	skipnz
  2067  014F' 2800'              	goto	l7212
  2068  0150' 0187'              	clrf	___lwmod@counter
  2069  0151'                    L5:	
  2070  0151' 0A87'              	incf	___lwmod@counter,f
  2071  0152' 1B84'              	btfsc	___lwmod@divisor+1,7
  2072  0153' 2800'              	goto	l7204
  2073  0154' 1003               	clrc
  2074  0155' 0D83'              	rlf	___lwmod@divisor,f
  2075  0156' 0D84'              	rlf	___lwmod@divisor+1,f
  2076  0157' 2800'              	goto	L5
  2077  0158'                    l7204:	
  2078  0158' 0804'              	movf	___lwmod@divisor+1,w
  2079  0159' 0206'              	subwf	___lwmod@dividend+1,w
  2080  015A' 1D03               	skipz
  2081  015B' 2800'              	goto	u665
  2082  015C' 0803'              	movf	___lwmod@divisor,w
  2083  015D' 0205'              	subwf	___lwmod@dividend,w
  2084  015E'                    u665:	
  2085  015E' 1C03               	skipc
  2086  015F' 2800'              	goto	L6
  2087  0160' 0803'              	movf	___lwmod@divisor,w
  2088  0161' 0285'              	subwf	___lwmod@dividend,f
  2089  0162' 0804'              	movf	___lwmod@divisor+1,w
  2090  0163' 1C03               	skipc
  2091  0164' 0386'              	decf	___lwmod@dividend+1,f
  2092  0165' 0286'              	subwf	___lwmod@dividend+1,f
  2093  0166' 1003               	clrc
  2094  0167'                    L6:	
  2095  0167' 0C84'              	rrf	___lwmod@divisor+1,f
  2096  0168' 0C83'              	rrf	___lwmod@divisor,f
  2097  0169' 0B87'              	decfsz	___lwmod@counter,f
  2098  016A' 2800'              	goto	l7204
  2099  016B'                    l7212:	
  2100  016B' 0806'              	movf	___lwmod@dividend+1,w
  2101  016C' 0084'              	movwf	?___lwmod+1
  2102  016D' 0805'              	movf	___lwmod@dividend,w
  2103  016E' 0083'              	movwf	?___lwmod
  2104  016F' 0008               	return
  2105  0170'                    __end_of___lwmod:	
  2106  0170'                    __ptext490:	
  2107 ;; =============== function _display_print_number ends ============
  2108                           
  2109                           
  2110 ;; *************** function _lcd_init *****************
  2111 ;; Defined at:
  2112 ;;		line 169 in file "../../../lib/lcd3310.c"
  2113 ;; Parameters:    Size  Location     Type
  2114 ;;		None
  2115 ;; Auto vars:     Size  Location     Type
  2116 ;;		None
  2117 ;; Return value:  Size  Location     Type
  2118 ;;		None               void
  2119 ;; Registers used:
  2120 ;;		wreg, status,2, status,0, pclath, cstack
  2121 ;; Tracked objects:
  2122 ;;		On entry : 60/20
  2123 ;;		On exit  : 60/0
  2124 ;;		Unchanged: 0/0
  2125 ;; Data sizes:     COMMON   BANK0   BANK1   BANK3   BANK2
  2126 ;;      Params:         0       0       0       0       0
  2127 ;;      Locals:         0       0       0       0       0
  2128 ;;      Temps:          0       2       0       0       0
  2129 ;;      Totals:         0       2       0       0       0
  2130 ;;Total ram usage:        2 bytes
  2131 ;; Hardware stack levels used:    1
  2132 ;; Hardware stack levels required when called:    2
  2133 ;; This function calls:
  2134 ;;		_lcd_send
  2135 ;; This function is called by:
  2136 ;;		_initialize
  2137 ;; This function uses a non-reentrant model
  2138 ;;
  2139  0170'                    _lcd_init:	
  2140                           
  2141                           ;lcd3310.c: 170: TRISC &= 0x00;
  2142                           
  2143                           ; Regs used in _lcd_init: [wreg+status,2+status,0+pclath+cstack]
  2144  0170' 0187               	clrf	7	;volatile
  2145                           
  2146                           ;lcd3310.c: 171: _delay((unsigned long)((20)*(20000000/4000.0)));
  2147  0171' 3082               	movlw	130
  2148  0172' 1283               	bcf	3,5	;RP0=0, select bank0
  2149  0173' 0084'              	movwf	??_lcd_init+1
  2150  0174' 30DD               	movlw	221
  2151  0175' 0083'              	movwf	??_lcd_init
  2152  0176'                    u1237:	
  2153  0176' 0B83'              	decfsz	??_lcd_init,f
  2154  0177' 2800'              	goto	u1237
  2155  0178' 0B84'              	decfsz	??_lcd_init+1,f
  2156  0179' 2800'              	goto	u1237
  2157  017A' 2800'              	nop2
  2158                           
  2159                           ;lcd3310.c: 173: _nop();
  2160  017B' 0000               	nop
  2161                           
  2162                           ;lcd3310.c: 174: RC5 = 0;
  2163  017C' 1283               	bcf	3,5	;RP0=0, select bank0
  2164  017D' 1303               	bcf	3,6	;RP1=0, select bank0
  2165  017E' 1287               	bcf	7,5
  2166                           
  2167                           ;lcd3310.c: 175: _nop();
  2168  017F' 0000               	nop
  2169                           
  2170                           ;lcd3310.c: 176: RC4 = 1;
  2171  0180' 1283               	bcf	3,5	;RP0=0, select bank0
  2172  0181' 1303               	bcf	3,6	;RP1=0, select bank0
  2173  0182' 1607               	bsf	7,4
  2174                           
  2175                           ;lcd3310.c: 177: _nop();
  2176  0183' 0000               	nop
  2177                           
  2178                           ;lcd3310.c: 178: RC1 = 0;
  2179  0184' 1283               	bcf	3,5	;RP0=0, select bank0
  2180  0185' 1303               	bcf	3,6	;RP1=0, select bank0
  2181  0186' 1087               	bcf	7,1
  2182                           
  2183                           ;lcd3310.c: 179: _nop();
  2184  0187' 0000               	nop
  2185                           
  2186                           ;lcd3310.c: 180: RC2 = 1;
  2187  0188' 1283               	bcf	3,5	;RP0=0, select bank0
  2188  0189' 1303               	bcf	3,6	;RP1=0, select bank0
  2189  018A' 1507               	bsf	7,2
  2190                           
  2191                           ;lcd3310.c: 181: _nop();
  2192  018B' 0000               	nop
  2193                           
  2194                           ;lcd3310.c: 183: RC3 = 0;
  2195  018C' 1283               	bcf	3,5	;RP0=0, select bank0
  2196  018D' 1303               	bcf	3,6	;RP1=0, select bank0
  2197  018E' 3082               	movlw	130
  2198  018F' 1187               	bcf	7,3
  2199                           
  2200                           ;lcd3310.c: 184: _delay((unsigned long)((20)*(20000000/4000.0)));
  2201  0190' 0084'              	movwf	??_lcd_init+1
  2202  0191' 30DD               	movlw	221
  2203  0192' 0083'              	movwf	??_lcd_init
  2204  0193'                    u1247:	
  2205  0193' 0B83'              	decfsz	??_lcd_init,f
  2206  0194' 2800'              	goto	u1247
  2207  0195' 0B84'              	decfsz	??_lcd_init+1,f
  2208  0196' 2800'              	goto	u1247
  2209  0197' 2800'              	nop2
  2210                           
  2211                           ;lcd3310.c: 186: RC3 = 1;
  2212  0198' 1283               	bcf	3,5	;RP0=0, select bank0
  2213  0199' 1303               	bcf	3,6	;RP1=0, select bank0
  2214  019A' 3021               	movlw	33
  2215  019B' 1587               	bsf	7,3
  2216  019C' 0187'              	clrf	?_lcd_send
  2217  019D' 2000' 120A' 118A'  	fcall	_lcd_send
  2218  01A0' 30C8               	movlw	200
  2219                           
  2220                           ;lcd3310.c: 189: lcd_send(0xC8, 0);
  2221  01A1' 0187'              	clrf	?_lcd_send
  2222  01A2' 2000' 120A' 118A'  	fcall	_lcd_send
  2223  01A5' 3006               	movlw	6
  2224                           
  2225                           ;lcd3310.c: 190: lcd_send(0x06, 0);
  2226  01A6' 0187'              	clrf	?_lcd_send
  2227  01A7' 2000' 120A' 118A'  	fcall	_lcd_send
  2228  01AA' 3013               	movlw	19
  2229                           
  2230                           ;lcd3310.c: 191: lcd_send(0x13, 0);
  2231  01AB' 0187'              	clrf	?_lcd_send
  2232  01AC' 2000' 120A' 118A'  	fcall	_lcd_send
  2233  01AF' 3020               	movlw	32
  2234                           
  2235                           ;lcd3310.c: 192: lcd_send(0x20, 0);
  2236  01B0' 0187'              	clrf	?_lcd_send
  2237  01B1' 2000' 120A' 118A'  	fcall	_lcd_send
  2238  01B4' 300C               	movlw	12
  2239                           
  2240                           ;lcd3310.c: 193: lcd_send(0x0C, 0);
  2241  01B5' 0187'              	clrf	?_lcd_send
  2242  01B6' 2800'              	ljmp	_lcd_send
  2243  01B7'                    __end_of_lcd_init:	
  2244  01B7'                    __ptext491:	
  2245 ;; =============== function _lcd_init ends ============
  2246                           
  2247                           
  2248 ;; *************** function _lcd_putch *****************
  2249 ;; Defined at:
  2250 ;;		line 247 in file "../../../lib/lcd3310.c"
  2251 ;; Parameters:    Size  Location     Type
  2252 ;;  c               1    wreg     unsigned char 
  2253 ;; Auto vars:     Size  Location     Type
  2254 ;;  c               1    3[BANK0 ] unsigned char 
  2255 ;; Return value:  Size  Location     Type
  2256 ;;		None               void
  2257 ;; Registers used:
  2258 ;;		wreg, fsr0l, fsr0h, status,2, status,0, btemp+1, pclath, cstack
  2259 ;; Tracked objects:
  2260 ;;		On entry : 0/0
  2261 ;;		On exit  : 60/0
  2262 ;;		Unchanged: 0/0
  2263 ;; Data sizes:     COMMON   BANK0   BANK1   BANK3   BANK2
  2264 ;;      Params:         0       0       0       0       0
  2265 ;;      Locals:         0       1       0       0       0
  2266 ;;      Temps:          0       0       0       0       0
  2267 ;;      Totals:         0       1       0       0       0
  2268 ;;Total ram usage:        1 bytes
  2269 ;; Hardware stack levels used:    1
  2270 ;; Hardware stack levels required when called:    2
  2271 ;; This function calls:
  2272 ;;		___wmul
  2273 ;;		_lcd_send
  2274 ;; This function is called by:
  2275 ;;		_display_print_number
  2276 ;; This function uses a non-reentrant model
  2277 ;;
  2278  01B7'                    _lcd_putch:	
  2279                           
  2280                           ; Regs used in _lcd_putch: [wreg-fsr0h+status,2+status,0+btemp+1+pclath+cstack]
  2281                           ;lcd_putch@c stored from wreg
  2282  01B7' 1283               	bcf	3,5	;RP0=0, select bank0
  2283  01B8' 1303               	bcf	3,6	;RP1=0, select bank0
  2284  01B9' 0083'              	movwf	lcd_putch@c
  2285                           
  2286                           ;lcd3310.c: 248: if(c > 'z' || c < 32)
  2287  01BA' 307B               	movlw	123
  2288  01BB' 0203'              	subwf	lcd_putch@c,w
  2289  01BC' 1803               	skipnc
  2290  01BD' 0008               	return
  2291  01BE' 3020               	movlw	32
  2292  01BF' 0203'              	subwf	lcd_putch@c,w
  2293  01C0' 1C03               	btfss	3,0
  2294  01C1' 0008               	return
  2295                           
  2296                           ;lcd3310.c: 251: }
  2297                           ;lcd3310.c: 252: lcd_send(lcd_font[c - 32][0], 1);
  2298  01C2' 0187'              	clrf	?_lcd_send
  2299  01C3' 0A87'              	incf	?_lcd_send,f
  2300  01C4' 0803'              	movf	lcd_putch@c,w
  2301  01C5' 0083'              	movwf	?___wmul
  2302  01C6' 3005               	movlw	5
  2303  01C7' 0184'              	clrf	?___wmul+1
  2304  01C8' 0085'              	movwf	?___wmul+2
  2305  01C9' 0186'              	clrf	?___wmul+3
  2306  01CA' 2000'              	fcall	___wmul
  2307  01CB' 3000'              	movlw	high ((_lcd_font| (0+32768)+65376))
  2308  01CC' 0704'              	addwf	?___wmul+1,w
  2309  01CD' 00FF               	movwf	127
  2310  01CE' 3000'              	movlw	low ((_lcd_font| (0+32768)+65376))
  2311  01CF' 0703'              	addwf	?___wmul,w
  2312  01D0' 0084               	movwf	4
  2313  01D1' 1803               	skipnc
  2314  01D2' 0AFF               	incf	127,f
  2315  01D3' 120A' 118A' 2000'  	fcall	stringtab
      +       120A' 118A'        
  2316  01D8' 2000' 120A' 118A'  	fcall	_lcd_send
  2317                           
  2318                           ;lcd3310.c: 253: lcd_send(lcd_font[c - 32][1], 1);
  2319  01DB' 0187'              	clrf	?_lcd_send
  2320  01DC' 0A87'              	incf	?_lcd_send,f
  2321  01DD' 0803'              	movf	lcd_putch@c,w
  2322  01DE' 0083'              	movwf	?___wmul
  2323  01DF' 3005               	movlw	5
  2324  01E0' 0184'              	clrf	?___wmul+1
  2325  01E1' 0085'              	movwf	?___wmul+2
  2326  01E2' 0186'              	clrf	?___wmul+3
  2327  01E3' 2000'              	fcall	___wmul
  2328  01E4' 3000'              	movlw	high ((_lcd_font| (0+32768)+65377))
  2329  01E5' 0704'              	addwf	?___wmul+1,w
  2330  01E6' 00FF               	movwf	127
  2331  01E7' 3000'              	movlw	low ((_lcd_font| (0+32768)+65377))
  2332  01E8' 0703'              	addwf	?___wmul,w
  2333  01E9' 0084               	movwf	4
  2334  01EA' 1803               	skipnc
  2335  01EB' 0AFF               	incf	127,f
  2336  01EC' 120A' 118A' 2000'  	fcall	stringtab
      +       120A' 118A'        
  2337  01F1' 2000' 120A' 118A'  	fcall	_lcd_send
  2338                           
  2339                           ;lcd3310.c: 254: lcd_send(lcd_font[c - 32][2], 1);
  2340  01F4' 0187'              	clrf	?_lcd_send
  2341  01F5' 0A87'              	incf	?_lcd_send,f
  2342  01F6' 0803'              	movf	lcd_putch@c,w
  2343  01F7' 0083'              	movwf	?___wmul
  2344  01F8' 3005               	movlw	5
  2345  01F9' 0184'              	clrf	?___wmul+1
  2346  01FA' 0085'              	movwf	?___wmul+2
  2347  01FB' 0186'              	clrf	?___wmul+3
  2348  01FC' 2000'              	fcall	___wmul
  2349  01FD' 3000'              	movlw	high ((_lcd_font| (0+32768)+65378))
  2350  01FE' 0704'              	addwf	?___wmul+1,w
  2351  01FF' 00FF               	movwf	127
  2352  0200' 3000'              	movlw	low ((_lcd_font| (0+32768)+65378))
  2353  0201' 0703'              	addwf	?___wmul,w
  2354  0202' 0084               	movwf	4
  2355  0203' 1803               	skipnc
  2356  0204' 0AFF               	incf	127,f
  2357  0205' 120A' 118A' 2000'  	fcall	stringtab
      +       120A' 118A'        
  2358  020A' 2000' 120A' 118A'  	fcall	_lcd_send
  2359                           
  2360                           ;lcd3310.c: 255: lcd_send(lcd_font[c - 32][3], 1);
  2361  020D' 0187'              	clrf	?_lcd_send
  2362  020E' 0A87'              	incf	?_lcd_send,f
  2363  020F' 0803'              	movf	lcd_putch@c,w
  2364  0210' 0083'              	movwf	?___wmul
  2365  0211' 3005               	movlw	5
  2366  0212' 0184'              	clrf	?___wmul+1
  2367  0213' 0085'              	movwf	?___wmul+2
  2368  0214' 0186'              	clrf	?___wmul+3
  2369  0215' 2000'              	fcall	___wmul
  2370  0216' 3000'              	movlw	high ((_lcd_font| (0+32768)+65379))
  2371  0217' 0704'              	addwf	?___wmul+1,w
  2372  0218' 00FF               	movwf	127
  2373  0219' 3000'              	movlw	low ((_lcd_font| (0+32768)+65379))
  2374  021A' 0703'              	addwf	?___wmul,w
  2375  021B' 0084               	movwf	4
  2376  021C' 1803               	skipnc
  2377  021D' 0AFF               	incf	127,f
  2378  021E' 120A' 118A' 2000'  	fcall	stringtab
      +       120A' 118A'        
  2379  0223' 2000' 120A' 118A'  	fcall	_lcd_send
  2380                           
  2381                           ;lcd3310.c: 256: lcd_send(lcd_font[c - 32][4], 1);
  2382  0226' 0187'              	clrf	?_lcd_send
  2383  0227' 0A87'              	incf	?_lcd_send,f
  2384  0228' 0803'              	movf	lcd_putch@c,w
  2385  0229' 0083'              	movwf	?___wmul
  2386  022A' 3005               	movlw	5
  2387  022B' 0184'              	clrf	?___wmul+1
  2388  022C' 0085'              	movwf	?___wmul+2
  2389  022D' 0186'              	clrf	?___wmul+3
  2390  022E' 2000'              	fcall	___wmul
  2391  022F' 3000'              	movlw	high ((_lcd_font| (0+32768)+65380))
  2392  0230' 0704'              	addwf	?___wmul+1,w
  2393  0231' 00FF               	movwf	127
  2394  0232' 3000'              	movlw	low ((_lcd_font| (0+32768)+65380))
  2395  0233' 0703'              	addwf	?___wmul,w
  2396  0234' 0084               	movwf	4
  2397  0235' 1803               	skipnc
  2398  0236' 0AFF               	incf	127,f
  2399  0237' 120A' 118A' 2000'  	fcall	stringtab
      +       120A' 118A'        
  2400  023C' 2000' 120A' 118A'  	fcall	_lcd_send
  2401  023F' 3000               	movlw	0
  2402                           
  2403                           ;lcd3310.c: 257: lcd_send(0, 1);
  2404  0240' 0187'              	clrf	?_lcd_send
  2405  0241' 0A87'              	incf	?_lcd_send,f
  2406  0242' 2800'              	ljmp	_lcd_send
  2407  0243'                    __end_of_lcd_putch:	
  2408  0243'                    __ptext498:	
  2409 ;; =============== function ___lwdiv ends ============
  2410                           
  2411                           
  2412 ;; *************** function ___wmul *****************
  2413 ;; Defined at:
  2414 ;;		line 3 in file "C:\Program Files (x86)\HI-TECH Software\PICC\9.83\sources\wmul.c"
  2415 ;; Parameters:    Size  Location     Type
  2416 ;;  multiplier      2    3[COMMON] unsigned int 
  2417 ;;  multiplicand    2    5[COMMON] unsigned int 
  2418 ;; Auto vars:     Size  Location     Type
  2419 ;;  product         2    0[BANK0 ] unsigned int 
  2420 ;; Return value:  Size  Location     Type
  2421 ;;                  2    3[COMMON] unsigned int 
  2422 ;; Registers used:
  2423 ;;		wreg, status,2, status,0
  2424 ;; Tracked objects:
  2425 ;;		On entry : 60/0
  2426 ;;		On exit  : 60/0
  2427 ;;		Unchanged: FFF9F/0
  2428 ;; Data sizes:     COMMON   BANK0   BANK1   BANK3   BANK2
  2429 ;;      Params:         4       0       0       0       0
  2430 ;;      Locals:         0       2       0       0       0
  2431 ;;      Temps:          0       0       0       0       0
  2432 ;;      Totals:         4       2       0       0       0
  2433 ;;Total ram usage:        6 bytes
  2434 ;; Hardware stack levels used:    1
  2435 ;; Hardware stack levels required when called:    1
  2436 ;; This function calls:
  2437 ;;		Nothing
  2438 ;; This function is called by:
  2439 ;;		_lcd_putch
  2440 ;; This function uses a non-reentrant model
  2441 ;;
  2442  0243'                    ___wmul:	
  2443                           
  2444                           ; Regs used in ___wmul: [wreg+status,2+status,0]
  2445  0243' 0180'              	clrf	___wmul@product
  2446  0244' 0181'              	clrf	___wmul@product+1
  2447  0245'                    l7454:	
  2448  0245' 1C03'              	btfss	___wmul@multiplier,0
  2449  0246' 2800'              	goto	l7458
  2450  0247' 0805'              	movf	___wmul@multiplicand,w
  2451  0248' 0780'              	addwf	___wmul@product,f
  2452  0249' 1803               	skipnc
  2453  024A' 0A81'              	incf	___wmul@product+1,f
  2454  024B' 0806'              	movf	___wmul@multiplicand+1,w
  2455  024C' 0781'              	addwf	___wmul@product+1,f
  2456  024D'                    l7458:	
  2457  024D' 1003               	clrc
  2458  024E' 0D85'              	rlf	___wmul@multiplicand,f
  2459  024F' 0D86'              	rlf	___wmul@multiplicand+1,f
  2460  0250' 1003               	clrc
  2461  0251' 0C84'              	rrf	___wmul@multiplier+1,f
  2462  0252' 0C83'              	rrf	___wmul@multiplier,f
  2463  0253' 0804'              	movf	___wmul@multiplier+1,w
  2464  0254' 0403'              	iorwf	___wmul@multiplier,w
  2465  0255' 1D03               	skipz
  2466  0256' 2800'              	goto	l7454
  2467  0257' 0801'              	movf	___wmul@product+1,w
  2468  0258' 0084'              	movwf	?___wmul+1
  2469  0259' 0800'              	movf	___wmul@product,w
  2470  025A' 0083'              	movwf	?___wmul
  2471  025B' 0008               	return
  2472  025C'                    __end_of___wmul:	
  2473  025C'                    __ptext493:	
  2474 ;; =============== function _lcd_gotoxy ends ============
  2475                           
  2476                           
  2477 ;; *************** function _lcd_send *****************
  2478 ;; Defined at:
  2479 ;;		line 144 in file "../../../lib/lcd3310.c"
  2480 ;; Parameters:    Size  Location     Type
  2481 ;;  a               1    wreg     unsigned char 
  2482 ;;  cmd             1    7[COMMON] unsigned char 
  2483 ;; Auto vars:     Size  Location     Type
  2484 ;;  a               1    2[BANK0 ] unsigned char 
  2485 ;; Return value:  Size  Location     Type
  2486 ;;		None               void
  2487 ;; Registers used:
  2488 ;;		wreg, status,2, status,0
  2489 ;; Tracked objects:
  2490 ;;		On entry : 60/0
  2491 ;;		On exit  : 60/0
  2492 ;;		Unchanged: 0/0
  2493 ;; Data sizes:     COMMON   BANK0   BANK1   BANK3   BANK2
  2494 ;;      Params:         1       0       0       0       0
  2495 ;;      Locals:         0       1       0       0       0
  2496 ;;      Temps:          0       0       0       0       0
  2497 ;;      Totals:         1       1       0       0       0
  2498 ;;Total ram usage:        2 bytes
  2499 ;; Hardware stack levels used:    1
  2500 ;; Hardware stack levels required when called:    1
  2501 ;; This function calls:
  2502 ;;		Nothing
  2503 ;; This function is called by:
  2504 ;;		_lcd_init
  2505 ;;		_lcd_clear
  2506 ;;		_lcd_gotoxy
  2507 ;;		_lcd_putch
  2508 ;; This function uses a non-reentrant model
  2509 ;;
  2510  025C'                    _lcd_send:	
  2511                           
  2512                           ; Regs used in _lcd_send: [wreg+status,2+status,0]
  2513                           ;lcd_send@a stored from wreg
  2514  025C' 0082'              	movwf	lcd_send@a
  2515                           
  2516                           ;lcd3310.c: 146: RC1 = 1;
  2517  025D' 1487               	bsf	7,1
  2518                           
  2519                           ;lcd3310.c: 147: if(cmd == 0)
  2520  025E' 0887'              	movf	lcd_send@cmd,f
  2521  025F' 1903               	btfsc	3,2
  2522                           
  2523                           ;lcd3310.c: 148: {
  2524                           ;lcd3310.c: 149: RC1 = 0;
  2525  0260' 1087               	bcf	7,1
  2526                           
  2527                           ;lcd3310.c: 150: }
  2528                           ;lcd3310.c: 151: _nop();
  2529  0261' 0000               	nop
  2530                           
  2531                           ;lcd3310.c: 152: RC2 = 0;
  2532  0262' 1283               	bcf	3,5	;RP0=0, select bank0
  2533  0263' 1303               	bcf	3,6	;RP1=0, select bank0
  2534  0264' 1107               	bcf	7,2
  2535                           
  2536                           ;lcd3310.c: 154: _nop(); RC5=0; _nop(); RC4=0; if((a) & (0b10000000)) { RC4=1; } _nop();
      +                           RC5=1;
  2537  0265' 0000               	nop
  2538  0266' 1283               	bcf	3,5	;RP0=0, select bank0
  2539  0267' 1303               	bcf	3,6	;RP1=0, select bank0
  2540  0268' 1287               	bcf	7,5
  2541  0269' 0000               	nop
  2542  026A' 1283               	bcf	3,5	;RP0=0, select bank0
  2543  026B' 1303               	bcf	3,6	;RP1=0, select bank0
  2544  026C' 1207               	bcf	7,4
  2545  026D' 1B82'              	btfsc	lcd_send@a,7
  2546  026E' 1607               	bsf	7,4
  2547  026F' 0000               	nop
  2548  0270' 1283               	bcf	3,5	;RP0=0, select bank0
  2549  0271' 1303               	bcf	3,6	;RP1=0, select bank0
  2550  0272' 1687               	bsf	7,5
  2551                           
  2552                           ;lcd3310.c: 155: _nop(); RC5=0; _nop(); RC4=0; if((a) & (0b01000000)) { RC4=1; } _nop();
      +                           RC5=1;
  2553  0273' 0000               	nop
  2554  0274' 1283               	bcf	3,5	;RP0=0, select bank0
  2555  0275' 1303               	bcf	3,6	;RP1=0, select bank0
  2556  0276' 1287               	bcf	7,5
  2557  0277' 0000               	nop
  2558  0278' 1283               	bcf	3,5	;RP0=0, select bank0
  2559  0279' 1303               	bcf	3,6	;RP1=0, select bank0
  2560  027A' 1207               	bcf	7,4
  2561  027B' 1B02'              	btfsc	lcd_send@a,6
  2562  027C' 1607               	bsf	7,4
  2563  027D' 0000               	nop
  2564  027E' 1283               	bcf	3,5	;RP0=0, select bank0
  2565  027F' 1303               	bcf	3,6	;RP1=0, select bank0
  2566  0280' 1687               	bsf	7,5
  2567                           
  2568                           ;lcd3310.c: 156: _nop(); RC5=0; _nop(); RC4=0; if((a) & (0b00100000)) { RC4=1; } _nop();
      +                           RC5=1;
  2569  0281' 0000               	nop
  2570  0282' 1283               	bcf	3,5	;RP0=0, select bank0
  2571  0283' 1303               	bcf	3,6	;RP1=0, select bank0
  2572  0284' 1287               	bcf	7,5
  2573  0285' 0000               	nop
  2574  0286' 1283               	bcf	3,5	;RP0=0, select bank0
  2575  0287' 1303               	bcf	3,6	;RP1=0, select bank0
  2576  0288' 1207               	bcf	7,4
  2577  0289' 1A82'              	btfsc	lcd_send@a,5
  2578  028A' 1607               	bsf	7,4
  2579  028B' 0000               	nop
  2580  028C' 1283               	bcf	3,5	;RP0=0, select bank0
  2581  028D' 1303               	bcf	3,6	;RP1=0, select bank0
  2582  028E' 1687               	bsf	7,5
  2583                           
  2584                           ;lcd3310.c: 157: _nop(); RC5=0; _nop(); RC4=0; if((a) & (0b00010000)) { RC4=1; } _nop();
      +                           RC5=1;
  2585  028F' 0000               	nop
  2586  0290' 1283               	bcf	3,5	;RP0=0, select bank0
  2587  0291' 1303               	bcf	3,6	;RP1=0, select bank0
  2588  0292' 1287               	bcf	7,5
  2589  0293' 0000               	nop
  2590  0294' 1283               	bcf	3,5	;RP0=0, select bank0
  2591  0295' 1303               	bcf	3,6	;RP1=0, select bank0
  2592  0296' 1207               	bcf	7,4
  2593  0297' 1A02'              	btfsc	lcd_send@a,4
  2594  0298' 1607               	bsf	7,4
  2595  0299' 0000               	nop
  2596  029A' 1283               	bcf	3,5	;RP0=0, select bank0
  2597  029B' 1303               	bcf	3,6	;RP1=0, select bank0
  2598  029C' 1687               	bsf	7,5
  2599                           
  2600                           ;lcd3310.c: 158: _nop(); RC5=0; _nop(); RC4=0; if((a) & (0b00001000)) { RC4=1; } _nop();
      +                           RC5=1;
  2601  029D' 0000               	nop
  2602  029E' 1283               	bcf	3,5	;RP0=0, select bank0
  2603  029F' 1303               	bcf	3,6	;RP1=0, select bank0
  2604  02A0' 1287               	bcf	7,5
  2605  02A1' 0000               	nop
  2606  02A2' 1283               	bcf	3,5	;RP0=0, select bank0
  2607  02A3' 1303               	bcf	3,6	;RP1=0, select bank0
  2608  02A4' 1207               	bcf	7,4
  2609  02A5' 1982'              	btfsc	lcd_send@a,3
  2610  02A6' 1607               	bsf	7,4
  2611  02A7' 0000               	nop
  2612  02A8' 1283               	bcf	3,5	;RP0=0, select bank0
  2613  02A9' 1303               	bcf	3,6	;RP1=0, select bank0
  2614  02AA' 1687               	bsf	7,5
  2615                           
  2616                           ;lcd3310.c: 159: _nop(); RC5=0; _nop(); RC4=0; if((a) & (0b00000100)) { RC4=1; } _nop();
      +                           RC5=1;
  2617  02AB' 0000               	nop
  2618  02AC' 1283               	bcf	3,5	;RP0=0, select bank0
  2619  02AD' 1303               	bcf	3,6	;RP1=0, select bank0
  2620  02AE' 1287               	bcf	7,5
  2621  02AF' 0000               	nop
  2622  02B0' 1283               	bcf	3,5	;RP0=0, select bank0
  2623  02B1' 1303               	bcf	3,6	;RP1=0, select bank0
  2624  02B2' 1207               	bcf	7,4
  2625  02B3' 1902'              	btfsc	lcd_send@a,2
  2626  02B4' 1607               	bsf	7,4
  2627  02B5' 0000               	nop
  2628  02B6' 1283               	bcf	3,5	;RP0=0, select bank0
  2629  02B7' 1303               	bcf	3,6	;RP1=0, select bank0
  2630  02B8' 1687               	bsf	7,5
  2631                           
  2632                           ;lcd3310.c: 160: _nop(); RC5=0; _nop(); RC4=0; if((a) & (0b00000010)) { RC4=1; } _nop();
      +                           RC5=1;
  2633  02B9' 0000               	nop
  2634  02BA' 1283               	bcf	3,5	;RP0=0, select bank0
  2635  02BB' 1303               	bcf	3,6	;RP1=0, select bank0
  2636  02BC' 1287               	bcf	7,5
  2637  02BD' 0000               	nop
  2638  02BE' 1283               	bcf	3,5	;RP0=0, select bank0
  2639  02BF' 1303               	bcf	3,6	;RP1=0, select bank0
  2640  02C0' 1207               	bcf	7,4
  2641  02C1' 1882'              	btfsc	lcd_send@a,1
  2642  02C2' 1607               	bsf	7,4
  2643  02C3' 0000               	nop
  2644  02C4' 1283               	bcf	3,5	;RP0=0, select bank0
  2645  02C5' 1303               	bcf	3,6	;RP1=0, select bank0
  2646  02C6' 1687               	bsf	7,5
  2647                           
  2648                           ;lcd3310.c: 161: _nop(); RC5=0; _nop(); RC4=0; if((a) & (0b00000001)) { RC4=1; } _nop();
      +                           RC5=1;
  2649  02C7' 0000               	nop
  2650  02C8' 1283               	bcf	3,5	;RP0=0, select bank0
  2651  02C9' 1303               	bcf	3,6	;RP1=0, select bank0
  2652  02CA' 1287               	bcf	7,5
  2653  02CB' 0000               	nop
  2654  02CC' 1283               	bcf	3,5	;RP0=0, select bank0
  2655  02CD' 1303               	bcf	3,6	;RP1=0, select bank0
  2656  02CE' 1207               	bcf	7,4
  2657  02CF' 1802'              	btfsc	lcd_send@a,0
  2658  02D0' 1607               	bsf	7,4
  2659  02D1' 0000               	nop
  2660  02D2' 1283               	bcf	3,5	;RP0=0, select bank0
  2661  02D3' 1303               	bcf	3,6	;RP1=0, select bank0
  2662  02D4' 1687               	bsf	7,5
  2663                           
  2664                           ;lcd3310.c: 162: _nop();
  2665  02D5' 0000               	nop
  2666                           
  2667                           ;lcd3310.c: 163: RC2 = 1;
  2668  02D6' 1283               	bcf	3,5	;RP0=0, select bank0
  2669  02D7' 1303               	bcf	3,6	;RP1=0, select bank0
  2670  02D8' 1507               	bsf	7,2
  2671  02D9' 0008               	return
  2672  02DA'                    __end_of_lcd_send:	
  2673                           
  2674                           	psect	text494
  2675  0000'                    __ptext494:	
  2676 ;; =============== function _lcd_send ends ============
  2677                           
  2678                           
  2679 ;; *************** function _ser_puts *****************
  2680 ;; Defined at:
  2681 ;;		line 90 in file "../../../lib/ser.c"
  2682 ;; Parameters:    Size  Location     Type
  2683 ;;  s               2    4[COMMON] PTR const unsigned char 
  2684 ;;		 -> STR_5(3), 
  2685 ;; Auto vars:     Size  Location     Type
  2686 ;;		None
  2687 ;; Return value:  Size  Location     Type
  2688 ;;		None               void
  2689 ;; Registers used:
  2690 ;;		wreg, fsr0l, fsr0h, status,2, status,0, btemp+1, pclath, cstack
  2691 ;; Tracked objects:
  2692 ;;		On entry : 160/0
  2693 ;;		On exit  : 60/0
  2694 ;;		Unchanged: FFE9F/0
  2695 ;; Data sizes:     COMMON   BANK0   BANK1   BANK3   BANK2
  2696 ;;      Params:         2       0       0       0       0
  2697 ;;      Locals:         0       0       0       0       0
  2698 ;;      Temps:          0       0       0       0       0
  2699 ;;      Totals:         2       0       0       0       0
  2700 ;;Total ram usage:        2 bytes
  2701 ;; Hardware stack levels used:    1
  2702 ;; Hardware stack levels required when called:    2
  2703 ;; This function calls:
  2704 ;;		_ser_putch
  2705 ;; This function is called by:
  2706 ;;		_main
  2707 ;; This function uses a non-reentrant model
  2708 ;;
  2709  0000'                    _ser_puts:	
  2710  0000'                    l7262:	
  2711                           ;ser.c: 91: while(*s)
  2712                           
  2713                           ; Regs used in _ser_puts: [wreg-fsr0h+status,2+status,0+btemp+1+pclath+cstack]
  2714                           
  2715  0000' 0805'              	movf	ser_puts@s+1,w
  2716  0001' 1283               	bcf	3,5	;RP0=0, select bank0
  2717  0002' 00FF               	movwf	127
  2718  0003' 0804'              	movf	ser_puts@s,w
  2719  0004' 0084               	movwf	4
  2720  0005' 120A' 118A' 2000'  	fcall	stringtab
      +       120A' 118A'        
  2721  000A' 3800               	iorlw	0
  2722  000B' 1903               	btfsc	3,2
  2723  000C' 0008               	return
  2724                           
  2725                           ;ser.c: 92: ser_putch(*s++);
  2726  000D' 0805'              	movf	ser_puts@s+1,w
  2727  000E' 00FF               	movwf	127
  2728  000F' 0804'              	movf	ser_puts@s,w
  2729  0010' 0084               	movwf	4
  2730  0011' 120A' 118A' 2000'  	fcall	stringtab
      +       120A' 118A'        
  2731  0016' 0083'              	movwf	?_ser_putch
  2732  0017' 2000' 120A' 118A'  	fcall	_ser_putch
  2733  001A' 0A84'              	incf	ser_puts@s,f
  2734  001B' 1903               	skipnz
  2735  001C' 0A85'              	incf	ser_puts@s+1,f
  2736  001D' 2800'              	goto	l7262
  2737  001E'                    __end_of_ser_puts:	
  2738  001E'                    __ptext501:	
  2739 ;; =============== function _ser_init ends ============
  2740                           
  2741                           
  2742 ;; *************** function _ser_putch *****************
  2743 ;; Defined at:
  2744 ;;		line 80 in file "../../../lib/ser.c"
  2745 ;; Parameters:    Size  Location     Type
  2746 ;;  c               1    3[COMMON] unsigned char 
  2747 ;; Auto vars:     Size  Location     Type
  2748 ;;		None
  2749 ;; Return value:  Size  Location     Type
  2750 ;;		None               void
  2751 ;; Registers used:
  2752 ;;		wreg, fsr0l, fsr0h, status,2, status,0
  2753 ;; Tracked objects:
  2754 ;;		On entry : 60/0
  2755 ;;		On exit  : 160/20
  2756 ;;		Unchanged: FFE9F/0
  2757 ;; Data sizes:     COMMON   BANK0   BANK1   BANK3   BANK2
  2758 ;;      Params:         1       0       0       0       0
  2759 ;;      Locals:         0       0       0       0       0
  2760 ;;      Temps:          0       0       0       0       0
  2761 ;;      Totals:         1       0       0       0       0
  2762 ;;Total ram usage:        1 bytes
  2763 ;; Hardware stack levels used:    1
  2764 ;; Hardware stack levels required when called:    1
  2765 ;; This function calls:
  2766 ;;		Nothing
  2767 ;; This function is called by:
  2768 ;;		_ser_puts
  2769 ;;		_main
  2770 ;;		_format_number
  2771 ;; This function uses a non-reentrant model
  2772 ;;
  2773  001E'                    _ser_putch:	
  2774  001E'                    l7076:	
  2775                           ;ser.c: 81: while(((txiptr + 1) & (16-1)) == txoptr)
  2776                           
  2777                           ; Regs used in _ser_putch: [wreg-fsr0h+status,2+status,0]
  2778                           
  2779  001E' 0A01'              	incf	_txiptr,w	;volatile
  2780  001F' 390F               	andlw	15
  2781  0020' 0602'              	xorwf	_txoptr,w	;volatile
  2782  0021' 1903               	skipnz
  2783  0022' 2800'              	goto	l7076
  2784                           
  2785                           ;ser.c: 83: GIE = 0;
  2786  0023' 138B               	bcf	11,7
  2787                           
  2788                           ;ser.c: 84: txfifo[txiptr] = c;
  2789  0024' 0801'              	movf	_txiptr,w
  2790  0025' 3E00'              	addlw	_txfifo& (0+255)
  2791  0026' 0084               	movwf	4
  2792  0027' 0803'              	movf	ser_putch@c,w
  2793  0028' 1383               	bcf	3,7	;select IRP bank1
  2794  0029' 0080               	movwf	0
  2795                           
  2796                           ;ser.c: 85: txiptr = (txiptr + 1) & (16-1);
  2797  002A' 0A81'              	incf	_txiptr,f	;volatile
  2798  002B' 300F               	movlw	15
  2799  002C' 0581'              	andwf	_txiptr,f	;volatile
  2800                           
  2801                           ;ser.c: 86: TXIE = 1;
  2802  002D' 1683               	bsf	3,5	;RP0=1, select bank1
  2803  002E' 160C               	bsf	12,4
  2804                           
  2805                           ;ser.c: 87: GIE = 1;
  2806  002F' 178B               	bsf	11,7
  2807  0030' 0008               	return
  2808  0031'                    __end_of_ser_putch:	
  2809                           
  2810                           	psect	text502
  2811  0000'                    __ptext502:	
  2812 ;; =============== function _ser_putch ends ============
  2813                           
  2814                           
  2815 ;; *************** function _isr *****************
  2816 ;; Defined at:
  2817 ;;		line 50 in file "../../../src/LC-meter.c"
  2818 ;; Parameters:    Size  Location     Type
  2819 ;;		None
  2820 ;; Auto vars:     Size  Location     Type
  2821 ;;		None
  2822 ;; Return value:  Size  Location     Type
  2823 ;;                  2  4505[COMMON] int 
  2824 ;; Registers used:
  2825 ;;		wreg, fsr0l, fsr0h, status,2, status,0
  2826 ;; Tracked objects:
  2827 ;;		On entry : 0/0
  2828 ;;		On exit  : 40/0
  2829 ;;		Unchanged: FFE00/0
  2830 ;; Data sizes:     COMMON   BANK0   BANK1   BANK3   BANK2
  2831 ;;      Params:         0       0       0       0       0
  2832 ;;      Locals:         0       0       0       0       0
  2833 ;;      Temps:          3       0       0       0       0
  2834 ;;      Totals:         3       0       0       0       0
  2835 ;;Total ram usage:        3 bytes
  2836 ;; Hardware stack levels used:    1
  2837 ;; This function calls:
  2838 ;;		Nothing
  2839 ;; This function is called by:
  2840 ;;		Interrupt level 1
  2841 ;; This function uses a non-reentrant model
  2842 ;;
  2843  0000'                    _isr:	
  2844                           
  2845                           ;LC-meter.c: 62: if(T0IF)
  2846  0000' 1D0B               	btfss	11,2
  2847  0001' 2800'              	goto	i1l7128
  2848                           
  2849                           ;LC-meter.c: 63: {
  2850                           ;LC-meter.c: 66: bres += 256;
  2851  0002' 3001               	movlw	1
  2852  0003' 1283               	bcf	3,5	;RP0=0, select bank0
  2853  0004' 1303               	bcf	3,6	;RP1=0, select bank0
  2854  0005' 078D'              	addwf	_bres+1,f	;volatile
  2855                           
  2856                           ;LC-meter.c: 67: if(bres >= 5000)
  2857  0006' 3013               	movlw	19
  2858  0007' 020D'              	subwf	_bres+1,w	;volatile
  2859  0008' 3088               	movlw	136
  2860  0009' 1903               	skipnz
  2861  000A' 020C'              	subwf	_bres,w	;volatile
  2862  000B' 1C03               	skipc
  2863  000C' 2800'              	goto	i1l7126
  2864                           
  2865                           ;LC-meter.c: 68: {
  2866                           ;LC-meter.c: 69: bres -= 5000;
  2867  000D' 3088               	movlw	136
  2868  000E' 028C'              	subwf	_bres,f	;volatile
  2869  000F' 3013               	movlw	19
  2870  0010' 1C03               	skipc
  2871  0011' 038D'              	decf	_bres+1,f	;volatile
  2872  0012' 028D'              	subwf	_bres+1,f	;volatile
  2873                           
  2874                           ;LC-meter.c: 70: seconds++;
  2875  0013' 0A8E'              	incf	_seconds,f	;volatile
  2876  0014' 1903               	skipnz
  2877  0015' 0A8F'              	incf	_seconds+1,f	;volatile
  2878  0016' 180E'              	btfsc	_seconds,0	;volatile
  2879  0017' 2800'              	goto	u50_20
  2880  0018' 1283               	bcf	3,5	;RP0=0, select bank0
  2881  0019' 1303               	bcf	3,6	;RP1=0, select bank0
  2882  001A' 1587               	bsf	7,3
  2883  001B' 2800'              	goto	u51_24
  2884  001C'                    u50_20:	
  2885  001C' 1283               	bcf	3,5	;RP0=0, select bank0
  2886  001D' 1303               	bcf	3,6	;RP1=0, select bank0
  2887  001E' 1187               	bcf	7,3
  2888  001F'                    u51_24:	
  2889  001F' 1D87               	btfss	7,3
  2890  0020' 2800'              	goto	u51_20
  2891  0021' 1283               	bcf	3,5	;RP0=0, select bank0
  2892  0022' 1303               	bcf	3,6	;RP1=0, select bank0
  2893  0023' 1505               	bsf	5,2
  2894  0024' 2800'              	goto	i1l7126
  2895  0025'                    u51_20:	
  2896  0025' 1283               	bcf	3,5	;RP0=0, select bank0
  2897  0026' 1303               	bcf	3,6	;RP1=0, select bank0
  2898  0027' 1105               	bcf	5,2
  2899  0028'                    i1l7126:	
  2900                           
  2901                           ;LC-meter.c: 73: }
  2902                           ;LC-meter.c: 75: T0IF = 0;
  2903  0028' 110B               	bcf	11,2
  2904  0029'                    i1l7128:	
  2905                           
  2906                           ;LC-meter.c: 76: }
  2907                           ;LC-meter.c: 95: if (RCIF) { rxfifo[rxiptr]=RCREG; ser_tmp=(rxiptr+1) & (16-1); if (ser_
      +                          tmp!=rxoptr) rxiptr=ser_tmp; } if (TXIF && TXIE) { TXREG = txfifo[txoptr]; ++txoptr; txo
      +                          ptr &= (16-1); if (txoptr==txiptr) { TXIE = 0; } };
  2908  0029' 1283               	bcf	3,5	;RP0=0, select bank0
  2909  002A' 1303               	bcf	3,6	;RP1=0, select bank0
  2910  002B' 1E8C               	btfss	12,5
  2911  002C' 2800'              	goto	i1l7140
  2912  002D' 0800'              	movf	_rxiptr,w
  2913  002E' 3E00'              	addlw	_rxfifo& (0+255)
  2914  002F' 0084               	movwf	4
  2915  0030' 081A               	movf	26,w	;volatile
  2916  0031' 1383               	bcf	3,7	;select IRP bank1
  2917  0032' 0080               	movwf	0
  2918  0033' 0A00'              	incf	_rxiptr,w	;volatile
  2919  0034' 0093'              	movwf	_ser_tmp
  2920  0035' 300F               	movlw	15
  2921  0036' 0593'              	andwf	_ser_tmp,f
  2922  0037' 0813'              	movf	_ser_tmp,w
  2923  0038' 0612'              	xorwf	_rxoptr,w	;volatile
  2924  0039' 1903               	skipnz
  2925  003A' 2800'              	goto	i1l7140
  2926  003B' 0813'              	movf	_ser_tmp,w
  2927  003C' 0080'              	movwf	_rxiptr	;volatile
  2928  003D'                    i1l7140:	
  2929  003D' 1E0C               	btfss	12,4
  2930  003E' 2800'              	goto	i1l4514
  2931  003F' 1683               	bsf	3,5	;RP0=1, select bank1
  2932  0040' 1E0C               	btfss	12,4
  2933  0041' 2800'              	goto	i1l4514
  2934  0042' 0802'              	movf	_txoptr,w
  2935  0043' 3E00'              	addlw	_txfifo& (0+255)
  2936  0044' 0084               	movwf	4
  2937  0045' 1383               	bcf	3,7	;select IRP bank1
  2938  0046' 0800               	movf	0,w
  2939  0047' 1283               	bcf	3,5	;RP0=0, select bank0
  2940  0048' 0099               	movwf	25	;volatile
  2941  0049' 0A82'              	incf	_txoptr,f	;volatile
  2942  004A' 300F               	movlw	15
  2943  004B' 0582'              	andwf	_txoptr,f	;volatile
  2944  004C' 0802'              	movf	_txoptr,w	;volatile
  2945  004D' 0601'              	xorwf	_txiptr,w	;volatile
  2946  004E' 1683               	bsf	3,5	;RP0=1, select bank1
  2947  004F' 1903               	btfsc	3,2
  2948  0050' 120C               	bcf	12,4
  2949  0051'                    i1l4514:	
  2950  0051' 0802'              	movf	??_isr+2,w
  2951  0052' 008A               	movwf	10
  2952  0053' 0801'              	movf	??_isr+1,w
  2953  0054' 0084               	movwf	4
  2954  0055' 0E00'              	swapf	??_isr^(0+-128),w
  2955  0056' 0083               	movwf	3
  2956  0057' 0EFE               	swapf	126,f
  2957  0058' 0E7E               	swapf	126,w
  2958  0059' 0009               	retfie
  2959  005A'                    __end_of_isr:	
  2960                           
  2961 ;; =============== function _isr ends ============
  2962  0002                     
  2963                           	psect	intentry
  2964  0000'                    __pintentry:	
  2965                           ; Regs used in _isr: [wreg-fsr0h+status,2+status,0]
  2966                           
  2967  0000'                    interrupt_function:	
  2968  007E                     saved_w	set	btemp
  2969  0000' 00FE               	movwf	btemp
  2970  0001' 0E03               	swapf	3,w
  2971  0002' 0080'              	movwf	??_isr
  2972  0003' 0804               	movf	4,w
  2973  0004' 0081'              	movwf	??_isr+1
  2974  0005' 080A               	movf	10,w
  2975  0006' 0082'              	movwf	??_isr+2
  2976  0007' 120A' 118A' 2800'  	ljmp	_isr
  2977                           
  2978                           	psect	functab
  2979  0000'                    __pfunctab:	
  2980  0000'                    fptable:	
  2981  0000' 00FF               	movwf	(btemp+1)& (0+127)
  2982  0001' 3000'              	movlw	high fptable
  2983  0002' 008A               	movwf	10
  2984  0003' 087F               	movf	(btemp+1)& (0+127),w
  2985  0004' 0782               	addwf	2,f
  2986  0005'                    fpbase:	
  2987  0005' 2800'              	goto	fpbase	; Call via a null pointer and you will get stuck here.
  2988  0006'                    fp__ser_putch:	
  2989  0006'                    entry__ser_putch:	
  2990  0006' 120A' 118A' 2800'  	ljmp	_ser_putch
  2991  007E                     btemp	set	126	;btemp
  2992  007E                     wtemp0	set	126


HI-TECH Software PICC Macro Assembler V9.83 build 10920 
Symbol Table                                                                                   Wed Oct 26 08:36:06 2016

                            pc 0002                             fsr 0004            ___wmul@multiplicand 0005  
                          _CM0 04E0                            _CM1 04E1                            _CM2 04E2  
                          _GIE 005F                            _RA2 002A                            _RC1 0039  
                          _RC2 003A                            _RC3 003B                            _RC4 003C  
                          _RC5 003D                            _PSA 040B                            u665 015E  
                          _RX9 00C6                            u975 0139                            _TX9 04C6  
                          _isr 0000                            fsr0 0004                            indf 0000  
                  lcd_gotoxy@x 0005                    lcd_gotoxy@y 0003                    lcd_send@cmd 0007  
              ?_lcd_set_cursor 0003                   fp__ser_putch 0006                           l2546 0000  
                         l1931 0000                           l1915 0000                           l1909 0000  
                         l7100 0000                           l5181 0000                           l7110 0000  
                         l7102 0000                           l4526 0000                           l7104 0000  
                         l7112 0000                           l5184 0000                           l7106 0000  
                         l7114 0000                           l7210 0000                           l5194 0000  
                         l7108 0000                           l7204 0158                           l7212 016B  
                         l5197 0000                           l7080 0000                           l7082 0000  
                         l7074 0000                           l7090 0000                           l7084 0000  
                         l7076 001E                           l7092 0000                           l7260 0000  
                         l7086 0000                           l7078 0000                           l7094 0000  
                         l7502 0000                           l7262 0000                           l7096 0000  
                         l7088 0000                           l7520 00FC                           l7504 00CA  
                         l7256 0000                           l7600 0000                           l7098 0000  
                         l7530 0000                           l7522 0104                           l7514 0000  
                         l7506 0000                           l7602 0000                           l7610 0000  
                         l7460 0000                           l7452 0000                           l7196 0000  
                         l7524 010E                           l7516 0000                           l7604 0000  
                         l7620 0000                           l7700 0000                           ?_isr 0000  
                         l7462 0000                           l7454 0245                           l7470 0000  
                         l7518 0000                           l7534 0000                           l7622 0000  
                         l7606 0000                           l7702 0000                           l5864 0000  
                         l7480 0000                           l7536 0000                           l7624 009B  
                         l7608 0069                           l7640 0000                           l7458 024D  
                         l5874 0000                           l7490 0147                           l7570 0000  
                         l7634 0000                           l7626 009F                           l7618 0000  
                         l7650 0000                           l7484 0000                           l7468 0000  
                         l5884 0000                           l7556 0000                           l7564 0000  
                         l7580 0000                           l7572 0000                           l7628 00B0  
                         l7660 0000                           l7652 0000                           l7478 0130  
                         l7494 0000                           l7558 0000                           l7590 0000  
                         l7582 0000                           l7574 0000                           l7566 0000  
                         l7646 004C                           l7638 0044                           l7670 0000  
                         l7662 0000                           l7654 0000                           l7488 0000  
                         l7496 0000                           l7592 0000                           l7584 0000  
                         l7576 0000                           l7568 0000                           l7648 0000  
                         l7680 0000                           l7672 001D                           l7664 0000  
                         l7656 0000                           l7498 0000                           l7594 0000  
                         l7586 0000                           l7578 0000                           l7682 0000  
                         l7674 0000                           l7666 0000                           l7658 0000  
                         l7690 0000                           l7596 0000                           l7588 0000  
                         l7676 0000                           l7668 0000                           l7692 001C  
                         l7684 0000                           l7598 0000                           l7678 0000  
                         l7694 0000                           l7686 0000                           l7696 0000  
                         l7688 0000                           STR_1 01E5                           STR_4 01D9  
                         STR_5 01E2                           _BRGH 04C2                           _T0IE 005D  
                         _T0IF 005A                           _CREN 00C4                           _T0CS 040D  
                         u1200 001A                           u1225 0041                           u1237 0176  
                         u1247 0193                           u1175 00AE                           _PEIE 005E  
                         _RCIE 0465                           _RCIF 0065                           _SPEN 00C7  
                         _TXIE 0464                           _TXEN 04C5                           _TXIF 0064  
                         _SYNC 04C4                           _bres 000C                           _main 0000  
                         btemp 007E                           start 0000*          _display_print_number 0068  
     display_print_number@base 0006                          ??_isr 0000                          ?_main 0000  
              __end_of___lwdiv 014C                __end_of___lwmod 0170                          _RCREG 001A  
                        u50_20 001C                          _SPBRG 0099                          u51_20 0025  
                        u51_24 001F                          _TRISA 0085                          _TRISC 0087  
                        _SSPEN 00A5                          _TXREG 0019                          _nRBPU 040F  
                        _ccp1t 0000                          fpbase 0005                          pclath 000A  
              format_number@di 002C                          status 0003                          wtemp0 007E  
        ?_display_print_number 0004             _format_number$1902 0029                   __end_of_main 005E  
                       ??_main 0008         __size_of_format_number 0062                         i1l4514 0051  
                       i1l7122 0000                         i1l7132 0000                         i1l7140 003D  
                       i1l7124 0000                         i1l7116 0000                         i1l7150 0000  
                       i1l7134 0000                         i1l7126 0028                         i1l7136 0000  
                       i1l7128 0029                         i1l7146 0000                         i1l7148 0000  
                       _TRISA2 042A                         _TRISC3 043B                         _TRISC4 043C  
                       _TRISC5 043D               __end_of_lcd_init 01B7               __end_of_lcd_send 02DA  
                       ___wmul 0243                      ??___lwdiv 0007                      ??___lwmod 0007  
                       _rxfifo 0000                         clrloop 0001                         _txfifo 0010  
                       _rxiptr 0000                         _rxoptr 0012                         _txiptr 0001  
                       _txoptr 0002                         fptable 0000               __end_of_ser_init 003F  
                       fptotal 0002               __end_of_ser_puts 001E                         saved_w 007E  
             format_number@buf 0008               format_number@pad 0006         ??_display_print_number 0008  
                _format_number 00C0                 __pcstackCOMMON 0000               ??_lcd_set_cursor 0007  
               _OPTION_REGbits 0081             __size_of_lcd_clear 0019             __size_of_lcd_putch 008C  
                   __pbssBANK0 0000                     __pbssBANK1 0000                 ?_format_number 0003  
                   __pmaintext 0000                        ?___wmul 0003                     __pintentry 0000  
           __size_of_ser_putch 0013                     _lcd_gotoxy 005D                entry__ser_putch 0006  
                    ?_lcd_init 0000                      ?_lcd_send 0007          display_print_number@i 002E  
        display_print_number@n 0004                      ?_ser_init 0000                      ?_ser_puts 0004  
            __end_of_lcd_clear 005D              __end_of_lcd_putch 0243                __size_of___wmul 0019  
                      ___lwdiv 0122                        ___lwmod 014C                     _initialize 0000  
                 __size_of_isr 005A                        _seconds 000E                        _ser_tmp 0013  
                   ??_lcd_init 0003                     ??_lcd_send 0008           end_of_initialization 0012  
              ??_format_number 0007              __end_of_ser_putch 0031                     ??_ser_init 0003  
                   ??_ser_puts 0006              format_number@base 0005                   __pstringtext 0000  
                ?_setup_timer0 0000                    ?_lcd_gotoxy 0003                     lcd_clear@i 0006  
    _display_print_number$4972 002B                     lcd_putch@c 0003        display_print_number@buf 000B  
      display_print_number@pad 0007                 __end_of___wmul 025C                    ?_initialize 0000  
               format_number@i 002D                 format_number@n 0003                 ??_setup_timer0 0003  
          start_initialization 0000                    __end_of_isr 005A  __size_of_display_print_number 0058  
          __size_of_lcd_gotoxy 000B                       ??___wmul 0007                  _tmr0_overflow 0010  
                  __pbssCOMMON 0000                  __pcstackBANK0 0000              __size_of_lcd_init 0047  
            __size_of_lcd_send 007E            __size_of_initialize 0028               ___lwdiv@dividend 0005  
                    __pfunctab 0000                      __ptext500 0028                      __ptext501 001E  
                    __ptext502 0000                      __ptext490 0170                      __ptext491 01B7  
                    __ptext492 005D                      __ptext493 025C                      __ptext494 0000  
                    __ptext495 00C0                      __ptext487 0000                      __ptext496 014C  
                    __ptext488 0044                      __ptext497 0122                      __ptext489 0068  
                    __ptext498 0243                      __ptext499 003F              __size_of_ser_init 0017  
                     ?___lwdiv 0003                       ?___lwmod 0003              __size_of_ser_puts 001E  
                    _lcd_clear 0044                      _lcd_print 0000*                     _lcd_putch 01B7  
             ___lwdiv@quotient 0001              interrupt_function 0000                 ___wmul@product 0000  
                   ser_putch@c 0003           __end_of_setup_timer0 0044                      _ser_putch 001E  
                   ?_lcd_clear 0000                     ?_lcd_print 0003                     ?_lcd_putch 0000  
                  __stringbase 0012              ___wmul@multiplier 0003                      lcd_send@a 0002  
                 ??_lcd_gotoxy 0008         display_print_number@di 002D           format_number@padchar 0028  
        __end_of_format_number 0122           format_number@putchar 002B                     ?_ser_putch 0003  
             main@prev_seconds 002F             __end_of_lcd_gotoxy 0068               __size_of___lwdiv 002A  
             __size_of___lwmod 0024                   ??_initialize 0008                       _ccp1t_lr 0008  
              ___lwdiv@divisor 0003                ___lwdiv@counter 0000                       _lcd_font 0012  
                     _lcd_init 0170                       _lcd_send 025C                  __size_of_main 005E  
           __end_of_initialize 0028                      ser_puts@s 0004                       clear_ram 0000  
                     _ser_init 0028                       _ser_puts 0000                    ??_lcd_clear 0008  
                  ??_lcd_print 0005                    ??_lcd_putch 0008   __end_of_display_print_number 00C0  
                     intlevel1 0000*                _lcd_set_cursor 0000*         __size_of_setup_timer0 0005  
             ___lwmod@dividend 0005                      stringcode 000A                    ??_ser_putch 0004  
              ___lwmod@divisor 0003                ___lwmod@counter 0007                       stringtab 0000  
                 _setup_timer0 003F  
