HI-TECH Software C Compiler 

Linker command line:

-W3 --edf=C:\Program Files (x86)\HI-TECH Software\PICC\9.83\dat\en_msgs.txt \
  -cs -h+dist/default/production\LC-meter-Nokia3310.X.production.sym -z -w9 \
  --norlf -Q16F876A \
  -Mdist/default/production/LC-meter-Nokia3310.X.production.map -E1 \
  -ACONST=00h-0FFhx32 -ACODE=00h-07FFhx4 -ASTRCODE=00h-01FFFh \
  -AENTRY=00h-0FFhx32 -ASTRING=00h-0FFhx32 -ABANK0=020h-06Fh \
  -ABANK1=0A0h-0EFh -ABANK2=0110h-016Fh -ABANK3=0190h-01EFh \
  -ARAM=020h-06Fh,0A0h-0EFh,0110h-016Fh,0190h-01EFh \
  -AABS1=020h-07Fh,0A0h-0EFh,0110h-016Fh,0190h-01EFh -ACOMMON=070h-07Fh \
  -ASFR0=00h-01Fh -ASFR1=080h-09Fh -ASFR2=0100h-010Fh -ASFR3=0180h-018Fh \
  -preset_vec=00h,intentry=04h,init,end_init -ppowerup=CODE -pfunctab=CODE \
  -ACONFIG=02007h-02007h -pconfig=CONFIG -DCONFIG=2 -AIDLOC=02000h-02003h \
  -pidloc=IDLOC -DIDLOC=2 -AEEDATA=00h-0FFh/02100h -peeprom_data=EEDATA \
  -DEEDATA=2 -DCODE=2 -DSTRCODE=2 -DSTRING=2 -DCONST=2 -DENTRY=2 -k \
  dist/default/production\startup.obj \
  dist/default/production\LC-meter-Nokia3310.X.production.obj 

Object code version is 3.10

Machine type is 16F876A



                Name                               Link     Load   Length Selector   Space Scale
dist/default/production\startup.obj
                end_init                              E        E        3        8       0
                reset_vec                             0        0        3        0       0
dist/default/production\LC-meter-Nokia3310.X.production.obj
                functab                             100      100        9        2       0
                intentry                              4        4        A        8       0
                config                             2007     2007        1     400E       0
                text502                             645      645       5A      BCE       0
                text494                             69F      69F       31      BCE       0
                text487                             109      109      2DA        2       0
                maintext                            5E7      5E7       5E      BCE       0
                cstackBANK0                          20       20       31       20       1
                cstackCOMMON                         70       70        8       70       1
                clrtext                             6E6      6E6        8      BCE       0
                bssBANK1                             A0       A0       20       A0       1
                bssBANK0                             51       51       14       20       1
                bssCOMMON                            78       78        3       70       1
                cinit                               6D0      6D0       16      BCE       0
                stringtext                          400      400      1E7        8       0

TOTAL           Name                               Link     Load   Length     Space
        CLASS   CONST          

        CLASS   CODE           
                end_init                              E        E        3         0
                functab                             100      100        9         0
                intentry                              4        4        A         0
                reset_vec                             0        0        3         0
                text502                             645      645       5A         0
                text494                             69F      69F       31         0
                text487                             109      109      2DA         0
                maintext                            5E7      5E7       5E         0
                clrtext                             6E6      6E6        8         0
                cinit                               6D0      6D0       16         0

        CLASS   STRCODE        
                stringtext                          400      400      1E7         0

        CLASS   ENTRY          

        CLASS   STRING         

        CLASS   BANK0          
                cstackBANK0                          20       20       31         1
                bssBANK0                             51       51       14         1

        CLASS   BANK1          
                bssBANK1                             A0       A0       20         1

        CLASS   BANK2          

        CLASS   BANK3          

        CLASS   RAM            

        CLASS   ABS1           
                abs_s1                               7E       7E        2         1

        CLASS   COMMON         
                cstackCOMMON                         70       70        8         1
                bssCOMMON                            78       78        3         1

        CLASS   SFR0           

        CLASS   SFR1           

        CLASS   SFR2           

        CLASS   SFR3           

        CLASS   CONFIG         
                config                             2007     2007        1         0

        CLASS   IDLOC          

        CLASS   EEDATA         



SEGMENTS        Name                           Load    Length   Top    Selector   Space  Class     Delta

                reset_vec                      000000  000003  000003         0       0  CODE        2
                intentry                       000004  00000D  000011         8       0  CODE        2
                cstackBANK0                    000020  000045  000065        20       1  BANK0       1
                cstackCOMMON                   000070  00000B  00007B        70       1  COMMON      1
                bssBANK1                       0000A0  000020  0000C0        A0       1  BANK1       1
                functab                        000100  0002E3  0003E3         2       0  CODE        2
                stringtext                     000400  0001E7  0005E7         8       0  STRCODE     2
                maintext                       0005E7  000107  0006EE       BCE       0  CODE        2
                config                         002007  000001  002008      400E       0  CONFIG      2


UNUSED ADDRESS RANGES

        Name                Unused          Largest block    Delta
        BANK0            0065-006F              B           1
        BANK1            00C0-00EF             30           1
        BANK2            0110-016F             60           1
        BANK3            0190-01EF             60           1
        CODE             0003-0003              1           2
                         0011-00FF             EF
                         03E3-03FF             1D
                         06EE-1FFF            800
        COMMON           007B-007D              3           1
        CONST            0003-0003              1           2
                         0011-00FF             EF
                         03E3-03FF             1D
                         06EE-1FFF            100
        EEDATA           2100-21FF            100           2
        ENTRY            0003-0003              1           2
                         0011-00FF             EF
                         03E3-03FF             1D
                         06EE-1FFF            100
        IDLOC            2000-2003              4           2
        RAM              0065-006F              B           1
                         00C0-00EF             30
                         0110-016F             60
                         0190-01EF             60
        SFR0             0000-001F             20           1
        SFR1             0080-009F             20           1
        SFR2             0100-010F             10           1
        SFR3             0180-018F             10           1
        STRCODE          0003-0003              1           2
                         0011-00FF             EF
                         03E3-03FF             1D
                         06EE-1FFF           1912
        STRING           0003-0003              1           2
                         0011-00FF             EF
                         03E3-03FF             1D
                         06EE-1FFF            100

                                  Symbol Table

__Habs1                        abs1         0000
__Hbank0                       bank0        0000
__Hbank1                       bank1        0000
__Hbank2                       bank2        0000
__Hbank3                       bank3        0000
__HbssBANK0                    bssBANK0     0000
__HbssBANK1                    bssBANK1     0000
__HbssCOMMON                   bssCOMMON    0000
__Hcinit                       cinit        0000
__Hclrtext                     clrtext      0000
__Hcode                        code         0000
__Hcommon                      common       0000
__HcstackBANK0                 cstackBANK0  0000
__HcstackCOMMON                cstackCOMMON 0000
__Heeprom_data                 eeprom_data  0000
__Hidloc                       idloc        0000
__Hmaintext                    maintext     0000
__Hpa_nodes                    pa_nodes     0000
__Hpowerup                     powerup      0000
__Hram                         ram          0000
__Hsfr0                        sfr0         0000
__Hsfr1                        sfr1         0000
__Hsfr2                        sfr2         0000
__Hsfr3                        sfr3         0000
__Hstrings                     strings      0000
__Hstringtext                  stringtext   0000
__Htext                        text         0000
__Labs1                        abs1         0000
__Lbank0                       bank0        0000
__Lbank1                       bank1        0000
__Lbank2                       bank2        0000
__Lbank3                       bank3        0000
__LbssBANK0                    bssBANK0     0000
__LbssBANK1                    bssBANK1     0000
__LbssCOMMON                   bssCOMMON    0000
__Lcinit                       cinit        0000
__Lclrtext                     clrtext      0000
__Lcode                        code         0000
__Lcommon                      common       0000
__LcstackBANK0                 cstackBANK0  0000
__LcstackCOMMON                cstackCOMMON 0000
__Leeprom_data                 eeprom_data  0000
__Lidloc                       idloc        0000
__Lmaintext                    maintext     0000
__Lpa_nodes                    pa_nodes     0000
__Lpowerup                     powerup      0000
__Lram                         ram          0000
__Lreset_vec                   reset_vec    0000
__Lsfr0                        sfr0         0000
__Lsfr1                        sfr1         0000
__Lsfr2                        sfr2         0000
__Lsfr3                        sfr3         0000
__Lstrings                     strings      0000
__Lstringtext                  stringtext   0000
__Ltext                        text         0000
__S2                           (abs)        0000
__size_of___lwdiv              (abs)        0000
__size_of___lwmod              (abs)        0000
__size_of___wmul               (abs)        0000
__size_of_display_print_number (abs)        0000
__size_of_format_number        (abs)        0000
__size_of_initialize           (abs)        0000
__size_of_isr                  (abs)        0000
__size_of_lcd_clear            (abs)        0000
__size_of_lcd_gotoxy           (abs)        0000
__size_of_lcd_init             (abs)        0000
__size_of_lcd_putch            (abs)        0000
__size_of_lcd_send             (abs)        0000
__size_of_main                 (abs)        0000
__size_of_ser_init             (abs)        0000
__size_of_ser_putch            (abs)        0000
__size_of_ser_puts             (abs)        0000
__size_of_setup_timer0         (abs)        0000
_lcd_print                                      
_lcd_set_cursor                                 
reset_vec                      reset_vec    0000
fptotal                        (abs)        0002
__Hreset_vec                   reset_vec    0003
__Lintentry                    intentry     0004
__pintentry                    intentry     0004
interrupt_function             intentry     0004
_TXREG                         (abs)        0019
_RCREG                         (abs)        001A
__Hinit                        init         000E
__Hintentry                    intentry     000E
__Lend_init                    end_init     000E
__Linit                        init         000E
_exit                          init         000E
___lwdiv@counter               cstackBANK0  0020
___wmul@product                cstackBANK0  0020
__pcstackBANK0                 cstackBANK0  0020
___lwdiv@quotient              cstackBANK0  0021
__Hend_init                    end_init     0011
??_lcd_init                    cstackBANK0  0023
?_format_number                cstackBANK0  0023
?_lcd_gotoxy                   cstackBANK0  0023
?_display_print_number         cstackBANK0  0024
??_format_number               cstackBANK0  0027
??_display_print_number        cstackBANK0  0028
start                          init         000E
lcd_send@a                     cstackBANK0  0022
format_number@n                cstackBANK0  0023
lcd_gotoxy@y                   cstackBANK0  0023
lcd_putch@c                    cstackBANK0  0023
display_print_number@n         cstackBANK0  0024
format_number@base             cstackBANK0  0025
lcd_gotoxy@x                   cstackBANK0  0025
display_print_number@base      cstackBANK0  0026
format_number@pad              cstackBANK0  0026
lcd_clear@i                    cstackBANK0  0026
display_print_number@pad       cstackBANK0  0027
format_number@buf              cstackBANK0  0028
_RA2                           (abs)        002A
display_print_number@buf       cstackBANK0  002B
_RC1                           (abs)        0039
_RC2                           (abs)        003A
_RC3                           (abs)        003B
_RC4                           (abs)        003C
_RC5                           (abs)        003D
format_number@padchar          cstackBANK0  0048
_format_number$1902            cstackBANK0  0049
_display_print_number$4972     cstackBANK0  004B
format_number@putchar          cstackBANK0  004B
format_number@di               cstackBANK0  004C
display_print_number@di        cstackBANK0  004D
format_number@i                cstackBANK0  004D
display_print_number@i         cstackBANK0  004E
main@prev_seconds              cstackBANK0  004F
__pbssBANK0                    bssBANK0     0051
_ccp1t                         bssBANK0     0051
_ccp1t_lr                      bssBANK0     0059
_T0IF                          (abs)        005A
_T0IE                          (abs)        005D
_bres                          bssBANK0     005D
_PEIE                          (abs)        005E
_GIE                           (abs)        005F
_seconds                       bssBANK0     005F
_tmr0_overflow                 bssBANK0     0061
_rxoptr                        bssBANK0     0063
_TXIF                          (abs)        0064
_ser_tmp                       bssBANK0     0064
_RCIF                          (abs)        0065
??_isr                         cstackCOMMON 0070
?_initialize                   cstackCOMMON 0070
?_isr                          cstackCOMMON 0070
?_lcd_clear                    cstackCOMMON 0070
?_lcd_init                     cstackCOMMON 0070
?_lcd_putch                    cstackCOMMON 0070
?_main                         cstackCOMMON 0070
?_ser_init                     cstackCOMMON 0070
?_setup_timer0                 cstackCOMMON 0070
__pcstackCOMMON                cstackCOMMON 0070
??_ser_init                    cstackCOMMON 0073
??_setup_timer0                cstackCOMMON 0073
?___lwdiv                      cstackCOMMON 0073
?___lwmod                      cstackCOMMON 0073
?___wmul                       cstackCOMMON 0073
?_lcd_print                    cstackCOMMON 0073
?_lcd_set_cursor               cstackCOMMON 0073
?_ser_putch                    cstackCOMMON 0073
___lwdiv@divisor               cstackCOMMON 0073
___lwmod@divisor               cstackCOMMON 0073
___wmul@multiplier             cstackCOMMON 0073
??_ser_putch                   cstackCOMMON 0074
?_ser_puts                     cstackCOMMON 0074
??_lcd_print                   cstackCOMMON 0075
___lwdiv@dividend              cstackCOMMON 0075
___lwmod@dividend              cstackCOMMON 0075
___wmul@multiplicand           cstackCOMMON 0075
??_ser_puts                    cstackCOMMON 0076
??___lwdiv                     cstackCOMMON 0077
??___lwmod                     cstackCOMMON 0077
??___wmul                      cstackCOMMON 0077
??_lcd_set_cursor              cstackCOMMON 0077
?_lcd_send                     cstackCOMMON 0077
___lwmod@counter               cstackCOMMON 0077
lcd_send@cmd                   cstackCOMMON 0077
??_initialize                  cstackCOMMON 0078
??_lcd_clear                   cstackCOMMON 0078
??_lcd_gotoxy                  cstackCOMMON 0078
??_lcd_putch                   cstackCOMMON 0078
??_lcd_send                    cstackCOMMON 0078
??_main                        cstackCOMMON 0078
__pbssCOMMON                   bssCOMMON    0078
_rxiptr                        bssCOMMON    0078
_txiptr                        bssCOMMON    0079
_txoptr                        bssCOMMON    007A
btemp                          (abs)        007E
_OPTION_REGbits                (abs)        0081
_TRISA                         (abs)        0085
_TRISC                         (abs)        0087
_SPBRG                         (abs)        0099
__pbssBANK1                    bssBANK1     00A0
_rxfifo                        bssBANK1     00A0
_SSPEN                         (abs)        00A5
_txfifo                        bssBANK1     00B0
__S1                           (abs)        00C0
_CREN                          (abs)        00C4
_RX9                           (abs)        00C6
_SPEN                          (abs)        00C7
__Lfunctab                     functab      0100
__pfunctab                     functab      0100
fptable                        functab      0100
intlevel0                      functab      0100
intlevel1                      functab      0100
intlevel2                      functab      0100
intlevel3                      functab      0100
intlevel4                      functab      0100
intlevel5                      functab      0100
fpbase                         functab      0105
entry__ser_putch               functab      0106
__Hfunctab                     functab      0109
__ptext487                     text487      0109
_initialize                    text487      0109
__end_of_initialize            text487      0131
__ptext500                     text487      0131
_ser_init                      text487      0131
__end_of_ser_init              text487      0148
__ptext499                     text487      0148
_setup_timer0                  text487      0148
__end_of_setup_timer0          text487      014D
__ptext488                     text487      014D
_lcd_clear                     text487      014D
__end_of_lcd_clear             text487      0166
__ptext492                     text487      0166
_lcd_gotoxy                    text487      0166
__end_of_lcd_gotoxy            text487      0171
__ptext489                     text487      0171
_display_print_number          text487      0171
__end_of_display_print_number  text487      01C9
__ptext495                     text487      01C9
_format_number                 text487      01C9
_PSA                           (abs)        040B
_T0CS                          (abs)        040D
_nRBPU                         (abs)        040F
_TRISA2                        (abs)        042A
_TRISC3                        (abs)        043B
_TRISC4                        (abs)        043C
_TRISC5                        (abs)        043D
___lwdiv                       text487      022B
__end_of_format_number         text487      022B
__ptext497                     text487      022B
_TXIE                          (abs)        0464
_RCIE                          (abs)        0465
___lwmod                       text487      0255
__end_of___lwdiv               text487      0255
__ptext496                     text487      0255
_BRGH                          (abs)        04C2
_SYNC                          (abs)        04C4
_TXEN                          (abs)        04C5
_TX9                           (abs)        04C6
_CM0                           (abs)        04E0
_CM1                           (abs)        04E1
_CM2                           (abs)        04E2
__end_of___lwmod               text487      0279
__ptext490                     text487      0279
_lcd_init                      text487      0279
__end_of_lcd_init              text487      02C0
__ptext491                     text487      02C0
_lcd_putch                     text487      02C0
___wmul                        text487      034C
__end_of_lcd_putch             text487      034C
__ptext498                     text487      034C
__end_of___wmul                text487      0365
__ptext493                     text487      0365
_lcd_send                      text487      0365
__end_of_lcd_send              text487      03E3
__pstringtext                  stringtext   0400
_lcd_font                      stringtext   0412
__pmaintext                    maintext     05E7
_main                          maintext     05E7
__end_of_main                  maintext     0645
__ptext502                     text502      0645
_isr                           text502      0645
__end_of_isr                   text502      069F
__ptext494                     text494      069F
_ser_puts                      text494      069F
__end_of_ser_puts              text494      06BD
__ptext501                     text494      06BD
_ser_putch                     text494      06BD
__end_of_ser_putch             text494      06D0
end_of_initialization          cinit        06E2
clear_ram                      clrtext      06E6
__S0                           (abs)        2008
__Lconfig                      config       2007
__Hconfig                      config       2008
ser_putch@c                    cstackCOMMON 0073
ser_puts@s                     cstackCOMMON 0074
saved_w                        (abs)        007E
wtemp0                         (abs)        007E
start_initialization           cinit        06D0
