gpasm-1.5.2 #0 (Sep 16 2019) build/default/pr   9-16-2019  10:40:44         PAGE  1


LOC    OBJECT CODE    LINE  SOURCE TEXT
  VALUE

                      00001 ;--------------------------------------------------------
                      00002 ; File Created by SDCC : free open source ANSI-C Compiler
                      00003 ; Version 3.9.3 #11377 (MINGW64)
                      00004 ;--------------------------------------------------------
                      00005 ; PIC port for the 14-bit core
                      00006 ;--------------------------------------------------------
                      00007 ;       .file   "../../../src/measure.c"
                      00008         list    p=16f876a
                      00009         radix dec
                      00010         include "p16f876a.inc"
                      00001         LIST
                      00002 
                      00003 ;==========================================================================
                      00004 ; Build date : Oct 21 2015
                      00005 ;  MPASM PIC16F876A processor include
                      00006 ; 
                      00007 ;  (c) Copyright 1999-2015 Microchip Technology, All rights reserved
                      00008 ;==========================================================================
                      00009 
                      00525         LIST
                      00011 ;--------------------------------------------------------
                      00012 ; external declarations
                      00013 ;--------------------------------------------------------
  0000                00014         extern  ___uchar2fs
  0000                00015         extern  ___schar2fs
  0000                00016         extern  ___uint2fs
  0000                00017         extern  ___sint2fs
  0000                00018         extern  ___ulong2fs
  0000                00019         extern  ___slong2fs
  0000                00020         extern  ___fs2uchar
  0000                00021         extern  ___fs2schar
  0000                00022         extern  ___fs2uint
  0000                00023         extern  ___fs2sint
  0000                00024         extern  ___fs2ulong
  0000                00025         extern  ___fs2slong
  0000                00026         extern  ___fsadd
  0000                00027         extern  ___fssub
  0000                00028         extern  ___fsmul
  0000                00029         extern  ___fsdiv
  0000                00030         extern  ___fslt
  0000                00031         extern  ___fseq
  0000                00032         extern  ___fsgt
  0000                00033         extern  _delay10ms
  0000                00034         extern  _cycle_eater
  0000                00035         extern  _delay_ms
  0000                00036         extern  _delay_us
  0000                00037         extern  _Delay100TCYx
  0000                00038         extern  _Delay10KTCYx
  0000                00039         extern  _Delay10TCYx
  0000                00040         extern  _Delay1KTCYx
  0000                00041         extern  _uart_putch
  0000                00042         extern  _uart_getch
  0000                00043         extern  _uart_poll
gpasm-1.5.2 #0 (Sep 16 2019) build/default/pr   9-16-2019  10:40:44         PAGE  2


LOC    OBJECT CODE    LINE  SOURCE TEXT
  VALUE

  0000                00044         extern  _uart_init
  0000                00045         extern  _uart_isr
  0000                00046         extern  _uart_enable
  0000                00047         extern  _uart_disable
  0000                00048         extern  _uart_puts
  0000                00049         extern  _uart_puts2
  0000                00050         extern  _put_str
  0000                00051         extern  _output_putch
  0000                00052         extern  _lcd_puts
  0000                00053         extern  _print_digit
  0000                00054         extern  _print_unit
  0000                00055         extern  _print_reading
  0000                00056         extern  _indicator
  0000                00057         extern  _print_print_float
  0000                00058         extern  _format_number
  0000                00059         extern  _format_xint32
  0000                00060         extern  _format_double
  0000                00061         extern  _timer0_init
  0000                00062         extern  _timer0_read_ps
  0000                00063         extern  _timer2_init
  0000                00064         extern  _STATUSbits
  0000                00065         extern  _PORTAbits
  0000                00066         extern  _PORTBbits
  0000                00067         extern  _PORTCbits
  0000                00068         extern  _INTCONbits
  0000                00069         extern  _PIR1bits
  0000                00070         extern  _PIR2bits
  0000                00071         extern  _T1CONbits
  0000                00072         extern  _T2CONbits
  0000                00073         extern  _SSPCONbits
  0000                00074         extern  _CCP1CONbits
  0000                00075         extern  _RCSTAbits
  0000                00076         extern  _CCP2CONbits
  0000                00077         extern  _ADCON0bits
  0000                00078         extern  _OPTION_REGbits
  0000                00079         extern  _TRISAbits
  0000                00080         extern  _TRISBbits
  0000                00081         extern  _TRISCbits
  0000                00082         extern  _PIE1bits
  0000                00083         extern  _PIE2bits
  0000                00084         extern  _PCONbits
  0000                00085         extern  _SSPCON2bits
  0000                00086         extern  _SSPSTATbits
  0000                00087         extern  _TXSTAbits
  0000                00088         extern  _CMCONbits
  0000                00089         extern  _CVRCONbits
  0000                00090         extern  _ADCON1bits
  0000                00091         extern  _EECON1bits
  0000                00092         extern  _F1
  0000                00093         extern  _F2
  0000                00094         extern  _F3
  0000                00095         extern  _CCal
  0000                00096         extern  _dvar
gpasm-1.5.2 #0 (Sep 16 2019) build/default/pr   9-16-2019  10:40:44         PAGE  3


LOC    OBJECT CODE    LINE  SOURCE TEXT
  VALUE

  0000                00097         extern  _putchar_ptr
  0000                00098         extern  _uart_brg
  0000                00099         extern  _logo_image
  0000                00100         extern  _INDF
  0000                00101         extern  _TMR0
  0000                00102         extern  _PCL
  0000                00103         extern  _STATUS
  0000                00104         extern  _FSR
  0000                00105         extern  _PORTA
  0000                00106         extern  _PORTB
  0000                00107         extern  _PORTC
  0000                00108         extern  _PCLATH
  0000                00109         extern  _INTCON
  0000                00110         extern  _PIR1
  0000                00111         extern  _PIR2
  0000                00112         extern  _TMR1
  0000                00113         extern  _TMR1L
  0000                00114         extern  _TMR1H
  0000                00115         extern  _T1CON
  0000                00116         extern  _TMR2
  0000                00117         extern  _T2CON
  0000                00118         extern  _SSPBUF
  0000                00119         extern  _SSPCON
  0000                00120         extern  _CCPR1
  0000                00121         extern  _CCPR1L
  0000                00122         extern  _CCPR1H
  0000                00123         extern  _CCP1CON
  0000                00124         extern  _RCSTA
  0000                00125         extern  _TXREG
  0000                00126         extern  _RCREG
  0000                00127         extern  _CCPR2
  0000                00128         extern  _CCPR2L
  0000                00129         extern  _CCPR2H
  0000                00130         extern  _CCP2CON
  0000                00131         extern  _ADRESH
  0000                00132         extern  _ADCON0
  0000                00133         extern  _OPTION_REG
  0000                00134         extern  _TRISA
  0000                00135         extern  _TRISB
  0000                00136         extern  _TRISC
  0000                00137         extern  _PIE1
  0000                00138         extern  _PIE2
  0000                00139         extern  _PCON
  0000                00140         extern  _SSPCON2
  0000                00141         extern  _PR2
  0000                00142         extern  _SSPADD
  0000                00143         extern  _SSPSTAT
  0000                00144         extern  _TXSTA
  0000                00145         extern  _SPBRG
  0000                00146         extern  _CMCON
  0000                00147         extern  _CVRCON
  0000                00148         extern  _ADRESL
  0000                00149         extern  _ADCON1
gpasm-1.5.2 #0 (Sep 16 2019) build/default/pr   9-16-2019  10:40:44         PAGE  4


LOC    OBJECT CODE    LINE  SOURCE TEXT
  VALUE

  0000                00150         extern  _EEDATA
  0000                00151         extern  _EEADR
  0000                00152         extern  _EEDATH
  0000                00153         extern  _EEADRH
  0000                00154         extern  _EECON1
  0000                00155         extern  _EECON2
                      00156 
  0000                00157         extern PSAVE
  0000                00158         extern SSAVE
  0000                00159         extern WSAVE
  0000                00160         extern STK12
  0000                00161         extern STK11
  0000                00162         extern STK10
  0000                00163         extern STK09
  0000                00164         extern STK08
  0000                00165         extern STK07
  0000                00166         extern STK06
  0000                00167         extern STK05
  0000                00168         extern STK04
  0000                00169         extern STK03
  0000                00170         extern STK02
  0000                00171         extern STK01
  0000                00172         extern STK00
                      00173 ;--------------------------------------------------------
                      00174 ; global declarations
                      00175 ;--------------------------------------------------------
  0000                00176         global  _measure_inductance
  0000                00177         global  _measure_capacitance
  0000                00178         global  _measure_freq
  0000                00179         global  _calibrate
                      00180 
                      00181 ;--------------------------------------------------------
                      00182 ; global definitions
                      00183 ;--------------------------------------------------------
                      00184 ;--------------------------------------------------------
                      00185 ; absolute symbol definitions
                      00186 ;--------------------------------------------------------
                      00187 ;--------------------------------------------------------
                      00188 ; compiler-defined variables
                      00189 ;--------------------------------------------------------
                      00190 UDL_measure_0   udata
0000                  00191 r0x1029 res     1
0001                  00192 r0x1028 res     1
0002                  00193 r0x102A res     1
0003                  00194 r0x1012 res     1
0004                  00195 r0x101D res     1
0005                  00196 r0x101C res     1
0006                  00197 r0x101F res     1
0007                  00198 r0x101E res     1
0008                  00199 r0x1023 res     1
0009                  00200 r0x1022 res     1
000A                  00201 r0x1021 res     1
000B                  00202 r0x1020 res     1
gpasm-1.5.2 #0 (Sep 16 2019) build/default/pr   9-16-2019  10:40:44         PAGE  5


LOC    OBJECT CODE    LINE  SOURCE TEXT
  VALUE

000C                  00203 r0x1026 res     1
000D                  00204 r0x1025 res     1
000E                  00205 r0x1024 res     1
000F                  00206 r0x1015 res     1
0010                  00207 r0x1014 res     1
0011                  00208 r0x1017 res     1
0012                  00209 r0x1016 res     1
0013                  00210 r0x101B res     1
0014                  00211 r0x101A res     1
0015                  00212 r0x1019 res     1
0016                  00213 r0x1018 res     1
                      00214 ;--------------------------------------------------------
                      00215 ; initialized data
                      00216 ;--------------------------------------------------------
                      00217 
                      00218 ID_measure_0    code
0000                  00219 ___str_0
0000   340D           00220         retlw 0x0d ; '.'
0001   340A           00221         retlw 0x0a ; '.'
0002   3400           00222         retlw 0x00 ; '.'
                      00223 ;--------------------------------------------------------
                      00224 ; overlayable items in internal ram 
                      00225 ;--------------------------------------------------------
                      00226 ;       udata_ovr
                      00227 ;--------------------------------------------------------
                      00228 ; code
                      00229 ;--------------------------------------------------------
                      00230 code_measure    code
                      00231 ;***
                      00232 ;  pBlock Stats: dbName = C
                      00233 ;***
                      00234 ;has an exit
                      00235 ;functions called:
                      00236 ;   _measure_freq
                      00237 ;   ___uint2fs
                      00238 ;   ___fslt
                      00239 ;   ___fsmul
                      00240 ;   ___fsmul
                      00241 ;   ___fssub
                      00242 ;   ___fsmul
                      00243 ;   ___fsmul
                      00244 ;   ___fsmul
                      00245 ;   ___fsmul
                      00246 ;   ___fsmul
                      00247 ;   ___fsmul
                      00248 ;   ___fsmul
                      00249 ;   ___fsmul
                      00250 ;   ___fsmul
                      00251 ;   ___fsdiv
                      00252 ;   ___fsmul
                      00253 ;   ___fslt
                      00254 ;   ___fslt
                      00255 ;   ___fslt
gpasm-1.5.2 #0 (Sep 16 2019) build/default/pr   9-16-2019  10:40:44         PAGE  6


LOC    OBJECT CODE    LINE  SOURCE TEXT
  VALUE

                      00256 ;   ___fsdiv
                      00257 ;   ___fsdiv
                      00258 ;   ___fsdiv
                      00259 ;   ___fsmul
                      00260 ;   ___fs2uint
                      00261 ;   _print_reading
                      00262 ;   _print_unit
                      00263 ;   _measure_freq
                      00264 ;   ___uint2fs
                      00265 ;   ___fslt
                      00266 ;   ___fsmul
                      00267 ;   ___fsmul
                      00268 ;   ___fssub
                      00269 ;   ___fsmul
                      00270 ;   ___fsmul
                      00271 ;   ___fsmul
                      00272 ;   ___fsmul
                      00273 ;   ___fsmul
                      00274 ;   ___fsmul
                      00275 ;   ___fsmul
                      00276 ;   ___fsmul
                      00277 ;   ___fsmul
                      00278 ;   ___fsdiv
                      00279 ;   ___fsmul
                      00280 ;   ___fslt
                      00281 ;   ___fslt
                      00282 ;   ___fslt
                      00283 ;   ___fsdiv
                      00284 ;   ___fsdiv
                      00285 ;   ___fsdiv
                      00286 ;   ___fsmul
                      00287 ;   ___fs2uint
                      00288 ;   _print_reading
                      00289 ;   _print_unit
                      00290 ;15 compiler assigned registers:
                      00291 ;   r0x1014
                      00292 ;   STK00
                      00293 ;   r0x1015
                      00294 ;   STK01
                      00295 ;   STK02
                      00296 ;   STK06
                      00297 ;   STK05
                      00298 ;   STK04
                      00299 ;   STK03
                      00300 ;   r0x1016
                      00301 ;   r0x1017
                      00302 ;   r0x1018
                      00303 ;   r0x1019
                      00304 ;   r0x101A
                      00305 ;   r0x101B
                      00306 ;; Starting pCode block
                      00307 ;<>Start of new flow, seq=0x1 ancestor = 0x1
                      00308 ;  from: ; to: 002 
gpasm-1.5.2 #0 (Sep 16 2019) build/default/pr   9-16-2019  10:40:44         PAGE  7


LOC    OBJECT CODE    LINE  SOURCE TEXT
  VALUE

                      00309 ;;; /home/sdcc-builder/build/sdcc-build/orig/sdcc/src/pic14/gen.c:2308:resultRemat *{*
                      00310 ;;; /home/sdcc-builder/build/sdcc-build/orig/sdcc/src/pic14/gen.c:2752:genLabel *{*
                      00311 ;; ***  genLabel  2755
                      00312 ;;; /home/sdcc-builder/build/sdcc-build/orig/sdcc/src/pic14/gen.c:2308:resultRemat *{*
                      00313 ;;; /home/sdcc-builder/build/sdcc-build/orig/sdcc/src/pic14/gen.c:2332:genFunction *{*
                      00314 ;; ***  genFunction  2334 curr label offset=12previous max_key=11 
                      00315 ;;      -----------------------------------------
                      00316 ;;       function measure_inductance
                      00317 ;;      -----------------------------------------
                      00318 ;_measure_inductance:
                      00319 S_measure__measure_inductance   code
0000                  00320 _measure_inductance:
                      00321 ; 2 exit points
                      00322 ;;; /home/sdcc-builder/build/sdcc-build/orig/sdcc/src/pic14/gen.c:2308:resultRemat *{*
                      00323 ;;; /home/sdcc-builder/build/sdcc-build/orig/sdcc/src/pic14/gen.c:2071:genCall *{*
                      00324 ;; ***  genCall  2073
                      00325 ;;; /home/sdcc-builder/build/sdcc-build/orig/sdcc/src/pic14/gen.c:1786:saveRegisters *{*
                      00326 ;; ***  saveRegisters  1788
                      00327 ;; >>> /home/sdcc-builder/build/sdcc-build/orig/sdcc/src/pic14/gen.c:2160:genCall
                      00328 ;       .line   206; "../../../src/measure.c"   var = measure_freq();
0000   0??? 0???      00329         PAGESEL _measure_freq   ;id=3065,key=000,inCond:0,outCond:0,flow seq=001
                      00330 ;; >>> /home/sdcc-builder/build/sdcc-build/orig/sdcc/src/pic14/gen.c:2165:genCall
                      00331 ;; BANKOPT3 drop assumptions: PCI with label or call found
0002   2???           00332         CALL    _measure_freq   ;id=3067,key=001,inCond:10,outCond:1e,flow seq=001
                      00333 ;<>Start of new flow, seq=0x2 ancestor = 0x1
                      00334 ;  from: 001 ; to: 003 
                      00335 ;; >>> /home/sdcc-builder/build/sdcc-build/orig/sdcc/src/pic14/gen.c:2173:genCall
0003   0??? 0???      00336         PAGESEL $       ;id=3069,key=000,inCond:0,outCond:0,flow seq=002
                      00337 ;;      695 register type nRegs=2
                      00338 ;;; /home/sdcc-builder/build/sdcc-build/orig/sdcc/src/pic14/gen.c:1892:assignResultValue *{*
                      00339 ;; ***  assignResultValue  1894
                      00340 ;;      line = 1896 result -=-, size=0, left AOP_REG=r0x105B, size=2, right -=-, size=0
                      00341 ;; >>> /home/sdcc-builder/build/sdcc-build/orig/sdcc/src/pic14/gen.c:1378:movwf
                      00342 ;;      1097 rIdx = r0x105C 
0005   0??? 0???      00343         BANKSEL r0x1014 ;id=5937,key=001,inCond:0,outCond:0,flow seq=002
0007   00??           00344         MOVWF   r0x1014 ;id=3076,key=002,inCond:10,outCond:1,flow seq=002,rIdx=r0x105C
                      00345 ;; >>> /home/sdcc-builder/build/sdcc-build/orig/sdcc/src/pic14/gen.c:1408:get_returnvalue
                      00346 ;; ***  popRegFromIdx,1030  , rIdx=0x7f
                      00347 ;; BANKOPT1 BANKSEL dropped; STK00 present in all of r0x1014's banks
0008   08??           00348         MOVF    STK00,W ;id=3079,key=003,inCond:1,outCond:14,flow seq=002
                      00349 ;; >>> /home/sdcc-builder/build/sdcc-build/orig/sdcc/src/pic14/gen.c:1378:movwf
                      00350 ;;      1097 rIdx = r0x105B 
                      00351 ;; BANKOPT2 BANKSEL dropped; r0x1015 present in same bank as r0x1014
                      00352 ;       .line   208; "../../../src/measure.c"   F3 = (double)var;
0009   00??           00353         MOVWF   r0x1015 ;id=5907,key=004,inCond:10,outCond:1,flow seq=002,rIdx=r0x105B
                      00354 ;; BANKOPT1 BANKSEL dropped; STK00 present in all of r0x1014's banks
000A   00??           00355         MOVWF   STK00   ;id=3104,key=005,inCond:10,outCond:1,flow seq=002
                      00356 ;;; /home/sdcc-builder/build/sdcc-build/orig/sdcc/src/pic14/gen.c:1328:mov2w_op *{*
                      00357 ;; ***  mov2w  1366  offset=1
                      00358 ;; >>> /home/sdcc-builder/build/sdcc-build/orig/sdcc/src/pic14/gen.c:1371:mov2w
                      00359 ;;      1097 rIdx = r0x105C 
                      00360 ;; BANKOPT2 BANKSEL dropped; r0x1014 present in same bank as r0x1014
000B   08??           00361         MOVF    r0x1014,W       ;id=3109,key=006,inCond:1,outCond:14,flow seq=002,rIdx=r0x105C
gpasm-1.5.2 #0 (Sep 16 2019) build/default/pr   9-16-2019  10:40:44         PAGE  8


LOC    OBJECT CODE    LINE  SOURCE TEXT
  VALUE

                      00362 ;; >>> /home/sdcc-builder/build/sdcc-build/orig/sdcc/src/pic14/gen.c:2160:genCall
000C   0??? 0???      00363         PAGESEL ___uint2fs      ;id=3111,key=007,inCond:0,outCond:0,flow seq=002
                      00364 ;; >>> /home/sdcc-builder/build/sdcc-build/orig/sdcc/src/pic14/gen.c:2165:genCall
                      00365 ;; BANKOPT3 drop assumptions: PCI with label or call found
000E   2???           00366         CALL    ___uint2fs      ;id=3113,key=008,inCond:10,outCond:1e,flow seq=002
                      00367 ;<>Start of new flow, seq=0x3 ancestor = 0x2
                      00368 ;  from: 002 ; to: 004 
                      00369 ;; >>> /home/sdcc-builder/build/sdcc-build/orig/sdcc/src/pic14/gen.c:2173:genCall
000F   0??? 0???      00370         PAGESEL $       ;id=3115,key=000,inCond:0,outCond:0,flow seq=003
                      00371 ;; ***  aopForSym 316
                      00372 ;;      328 sym->rname = _F3, size = 4
                      00373 ;;; /home/sdcc-builder/build/sdcc-build/orig/sdcc/src/pic14/gen.c:1892:assignResultValue *{*
                      00374 ;; ***  assignResultValue  1894
                      00375 ;;      line = 1896 result -=-, size=0, left AOP_DIR=_F3, size=4, right -=-, size=0
                      00376 ;; >>> /home/sdcc-builder/build/sdcc-build/orig/sdcc/src/pic14/gen.c:1378:movwf
                      00377 ;;      998
                      00378 ;;      1016  _F3   offset=3
0011   0??? 0???      00379         BANKSEL _F3     ;id=5943,key=001,inCond:0,outCond:0,flow seq=003
0013   00??           00380         MOVWF   (_F3 + 3)       ;id=3124,key=002,inCond:10,outCond:1,flow seq=003
                      00381 ;; >>> /home/sdcc-builder/build/sdcc-build/orig/sdcc/src/pic14/gen.c:1408:get_returnvalue
                      00382 ;; ***  popRegFromIdx,1030  , rIdx=0x7f
                      00383 ;; BANKOPT1 BANKSEL dropped; STK00 present in all of _F3's banks
0014   08??           00384         MOVF    STK00,W ;id=3127,key=003,inCond:1,outCond:14,flow seq=003
                      00385 ;; >>> /home/sdcc-builder/build/sdcc-build/orig/sdcc/src/pic14/gen.c:1378:movwf
                      00386 ;;      998
                      00387 ;;      1016  _F3   offset=2
                      00388 ;; BANKOPT2 BANKSEL dropped; _F3 present in same bank as _F3
0015   00??           00389         MOVWF   (_F3 + 2)       ;id=3131,key=004,inCond:10,outCond:1,flow seq=003
                      00390 ;; >>> /home/sdcc-builder/build/sdcc-build/orig/sdcc/src/pic14/gen.c:1408:get_returnvalue
                      00391 ;; ***  popRegFromIdx,1030  , rIdx=0x7e
                      00392 ;; BANKOPT1 BANKSEL dropped; STK01 present in all of _F3's banks
0016   08??           00393         MOVF    STK01,W ;id=3134,key=005,inCond:1,outCond:14,flow seq=003
                      00394 ;; >>> /home/sdcc-builder/build/sdcc-build/orig/sdcc/src/pic14/gen.c:1378:movwf
                      00395 ;;      998
                      00396 ;;      1016  _F3   offset=1
                      00397 ;; BANKOPT2 BANKSEL dropped; _F3 present in same bank as _F3
0017   00??           00398         MOVWF   (_F3 + 1)       ;id=3138,key=006,inCond:10,outCond:1,flow seq=003
                      00399 ;; >>> /home/sdcc-builder/build/sdcc-build/orig/sdcc/src/pic14/gen.c:1408:get_returnvalue
                      00400 ;; ***  popRegFromIdx,1030  , rIdx=0x7d
                      00401 ;; BANKOPT1 BANKSEL dropped; STK02 present in all of _F3's banks
0018   08??           00402         MOVF    STK02,W ;id=3141,key=007,inCond:1,outCond:14,flow seq=003
                      00403 ;; >>> /home/sdcc-builder/build/sdcc-build/orig/sdcc/src/pic14/gen.c:1378:movwf
                      00404 ;;      998
                      00405 ;;      1016  _F3   offset=0
                      00406 ;; BANKOPT2 BANKSEL dropped; _F3 present in same bank as _F3
0019   00??           00407         MOVWF   _F3     ;id=3145,key=008,inCond:10,outCond:1,flow seq=003
                      00408 ;;      2188 left AOP_DIR
                      00409 ;;; /home/sdcc-builder/build/sdcc-build/orig/sdcc/src/pic14/gen.c:1830:unsaveRegisters *{*
                      00410 ;; ***  unsaveRegisters  1832
                      00411 ;;; /home/sdcc-builder/build/sdcc-build/orig/sdcc/src/pic14/gen.c:2308:resultRemat *{*
                      00412 ;;; /home/sdcc-builder/build/sdcc-build/orig/sdcc/src/pic14/gen.c:2308:resultRemat *{*
                      00413 ;;; /home/sdcc-builder/build/sdcc-build/orig/sdcc/src/pic14/gen.c:2308:resultRemat *{*
                      00414 ;;; /home/sdcc-builder/build/sdcc-build/orig/sdcc/src/pic14/gen.c:2071:genCall *{*
gpasm-1.5.2 #0 (Sep 16 2019) build/default/pr   9-16-2019  10:40:44         PAGE  9


LOC    OBJECT CODE    LINE  SOURCE TEXT
  VALUE

                      00415 ;; ***  genCall  2073
                      00416 ;;; /home/sdcc-builder/build/sdcc-build/orig/sdcc/src/pic14/gen.c:1786:saveRegisters *{*
                      00417 ;; ***  saveRegisters  1788
                      00418 ;; ***  aopForSym 316
                      00419 ;;      328 sym->rname = _F3, size = 4
                      00420 ;; ***  aopForSym 316
                      00421 ;;      328 sym->rname = _F1, size = 4
                      00422 ;; ***  aopForSym 316
                      00423 ;;      328 sym->rname = _F3, size = 4
                      00424 ;;      2120 left AOP_DIR
                      00425 ;;; /home/sdcc-builder/build/sdcc-build/orig/sdcc/src/pic14/gen.c:1328:mov2w_op *{*
                      00426 ;; ***  mov2w  1366  offset=0
                      00427 ;; >>> /home/sdcc-builder/build/sdcc-build/orig/sdcc/src/pic14/gen.c:1371:mov2w
                      00428 ;;      998
                      00429 ;;      1016  _F3   offset=0
                      00430 ;; BANKOPT2 BANKSEL dropped; _F3 present in same bank as _F3
                      00431 ;       .line   209; "../../../src/measure.c"   if(F3 > F1)
001A   08??           00432         MOVF    _F3,W   ;id=3169,key=009,inCond:1,outCond:14,flow seq=003
                      00433 ;;      2120 left AOP_DIR
                      00434 ;; >>> /home/sdcc-builder/build/sdcc-build/orig/sdcc/src/pic14/gen.c:2128:genCall
                      00435 ;; ***  popRegFromIdx,1030  , rIdx=0x79
                      00436 ;; BANKOPT1 BANKSEL dropped; STK06 present in all of _F3's banks
001B   00??           00437         MOVWF   STK06   ;id=3173,key=00a,inCond:10,outCond:1,flow seq=003
                      00438 ;;; /home/sdcc-builder/build/sdcc-build/orig/sdcc/src/pic14/gen.c:1328:mov2w_op *{*
                      00439 ;; ***  mov2w  1366  offset=1
                      00440 ;; >>> /home/sdcc-builder/build/sdcc-build/orig/sdcc/src/pic14/gen.c:1371:mov2w
                      00441 ;;      998
                      00442 ;;      1016  _F3   offset=1
                      00443 ;; BANKOPT2 BANKSEL dropped; _F3 present in same bank as _F3
001C   08??           00444         MOVF    (_F3 + 1),W     ;id=3179,key=00b,inCond:1,outCond:14,flow seq=003
                      00445 ;;      2120 left AOP_DIR
                      00446 ;; >>> /home/sdcc-builder/build/sdcc-build/orig/sdcc/src/pic14/gen.c:2128:genCall
                      00447 ;; ***  popRegFromIdx,1030  , rIdx=0x7a
                      00448 ;; BANKOPT1 BANKSEL dropped; STK05 present in all of _F3's banks
001D   00??           00449         MOVWF   STK05   ;id=3183,key=00c,inCond:10,outCond:1,flow seq=003
                      00450 ;;; /home/sdcc-builder/build/sdcc-build/orig/sdcc/src/pic14/gen.c:1328:mov2w_op *{*
                      00451 ;; ***  mov2w  1366  offset=2
                      00452 ;; >>> /home/sdcc-builder/build/sdcc-build/orig/sdcc/src/pic14/gen.c:1371:mov2w
                      00453 ;;      998
                      00454 ;;      1016  _F3   offset=2
                      00455 ;; BANKOPT2 BANKSEL dropped; _F3 present in same bank as _F3
001E   08??           00456         MOVF    (_F3 + 2),W     ;id=3189,key=00d,inCond:1,outCond:14,flow seq=003
                      00457 ;;      2120 left AOP_DIR
                      00458 ;; >>> /home/sdcc-builder/build/sdcc-build/orig/sdcc/src/pic14/gen.c:2128:genCall
                      00459 ;; ***  popRegFromIdx,1030  , rIdx=0x7b
                      00460 ;; BANKOPT1 BANKSEL dropped; STK04 present in all of _F3's banks
001F   00??           00461         MOVWF   STK04   ;id=3193,key=00e,inCond:10,outCond:1,flow seq=003
                      00462 ;;; /home/sdcc-builder/build/sdcc-build/orig/sdcc/src/pic14/gen.c:1328:mov2w_op *{*
                      00463 ;; ***  mov2w  1366  offset=3
                      00464 ;; >>> /home/sdcc-builder/build/sdcc-build/orig/sdcc/src/pic14/gen.c:1371:mov2w
                      00465 ;;      998
                      00466 ;;      1016  _F3   offset=3
                      00467 ;; BANKOPT2 BANKSEL dropped; _F3 present in same bank as _F3
gpasm-1.5.2 #0 (Sep 16 2019) build/default/pr   9-16-2019  10:40:44         PAGE 10


LOC    OBJECT CODE    LINE  SOURCE TEXT
  VALUE

0020   08??           00468         MOVF    (_F3 + 3),W     ;id=3199,key=00f,inCond:1,outCond:14,flow seq=003
                      00469 ;; ***  aopForSym 316
                      00470 ;;      328 sym->rname = _F1, size = 4
                      00471 ;;      2120 left AOP_DIR
                      00472 ;; >>> /home/sdcc-builder/build/sdcc-build/orig/sdcc/src/pic14/gen.c:2128:genCall
                      00473 ;; ***  popRegFromIdx,1030  , rIdx=0x7c
                      00474 ;; BANKOPT1 BANKSEL dropped; STK03 present in all of _F3's banks
0021   00??           00475         MOVWF   STK03   ;id=3205,key=010,inCond:10,outCond:1,flow seq=003
                      00476 ;;; /home/sdcc-builder/build/sdcc-build/orig/sdcc/src/pic14/gen.c:1328:mov2w_op *{*
                      00477 ;; ***  mov2w  1366  offset=0
                      00478 ;; >>> /home/sdcc-builder/build/sdcc-build/orig/sdcc/src/pic14/gen.c:1371:mov2w
                      00479 ;;      998
                      00480 ;;      1016  _F1   offset=0
0022   0??? 0???      00481         BANKSEL _F1     ;id=5958,key=011,inCond:0,outCond:0,flow seq=003
0024   08??           00482         MOVF    _F1,W   ;id=3211,key=012,inCond:1,outCond:14,flow seq=003
                      00483 ;;      2120 left AOP_DIR
                      00484 ;; >>> /home/sdcc-builder/build/sdcc-build/orig/sdcc/src/pic14/gen.c:2128:genCall
                      00485 ;; ***  popRegFromIdx,1030  , rIdx=0x7d
                      00486 ;; BANKOPT1 BANKSEL dropped; STK02 present in all of _F1's banks
0025   00??           00487         MOVWF   STK02   ;id=3215,key=013,inCond:10,outCond:1,flow seq=003
                      00488 ;;; /home/sdcc-builder/build/sdcc-build/orig/sdcc/src/pic14/gen.c:1328:mov2w_op *{*
                      00489 ;; ***  mov2w  1366  offset=1
                      00490 ;; >>> /home/sdcc-builder/build/sdcc-build/orig/sdcc/src/pic14/gen.c:1371:mov2w
                      00491 ;;      998
                      00492 ;;      1016  _F1   offset=1
                      00493 ;; BANKOPT2 BANKSEL dropped; _F1 present in same bank as _F1
0026   08??           00494         MOVF    (_F1 + 1),W     ;id=3221,key=014,inCond:1,outCond:14,flow seq=003
                      00495 ;;      2120 left AOP_DIR
                      00496 ;; >>> /home/sdcc-builder/build/sdcc-build/orig/sdcc/src/pic14/gen.c:2128:genCall
                      00497 ;; ***  popRegFromIdx,1030  , rIdx=0x7e
                      00498 ;; BANKOPT1 BANKSEL dropped; STK01 present in all of _F1's banks
0027   00??           00499         MOVWF   STK01   ;id=3225,key=015,inCond:10,outCond:1,flow seq=003
                      00500 ;;; /home/sdcc-builder/build/sdcc-build/orig/sdcc/src/pic14/gen.c:1328:mov2w_op *{*
                      00501 ;; ***  mov2w  1366  offset=2
                      00502 ;; >>> /home/sdcc-builder/build/sdcc-build/orig/sdcc/src/pic14/gen.c:1371:mov2w
                      00503 ;;      998
                      00504 ;;      1016  _F1   offset=2
                      00505 ;; BANKOPT2 BANKSEL dropped; _F1 present in same bank as _F1
0028   08??           00506         MOVF    (_F1 + 2),W     ;id=3231,key=016,inCond:1,outCond:14,flow seq=003
                      00507 ;;      2120 left AOP_DIR
                      00508 ;; >>> /home/sdcc-builder/build/sdcc-build/orig/sdcc/src/pic14/gen.c:2128:genCall
                      00509 ;; ***  popRegFromIdx,1030  , rIdx=0x7f
                      00510 ;; BANKOPT1 BANKSEL dropped; STK00 present in all of _F1's banks
0029   00??           00511         MOVWF   STK00   ;id=3235,key=017,inCond:10,outCond:1,flow seq=003
                      00512 ;;; /home/sdcc-builder/build/sdcc-build/orig/sdcc/src/pic14/gen.c:1328:mov2w_op *{*
                      00513 ;; ***  mov2w  1366  offset=3
                      00514 ;; >>> /home/sdcc-builder/build/sdcc-build/orig/sdcc/src/pic14/gen.c:1371:mov2w
                      00515 ;;      998
                      00516 ;;      1016  _F1   offset=3
                      00517 ;; BANKOPT2 BANKSEL dropped; _F1 present in same bank as _F1
002A   08??           00518         MOVF    (_F1 + 3),W     ;id=3241,key=018,inCond:1,outCond:14,flow seq=003
                      00519 ;; >>> /home/sdcc-builder/build/sdcc-build/orig/sdcc/src/pic14/gen.c:2160:genCall
002B   0??? 0???      00520         PAGESEL ___fslt ;id=3243,key=019,inCond:0,outCond:0,flow seq=003
gpasm-1.5.2 #0 (Sep 16 2019) build/default/pr   9-16-2019  10:40:44         PAGE 11


LOC    OBJECT CODE    LINE  SOURCE TEXT
  VALUE

                      00521 ;; >>> /home/sdcc-builder/build/sdcc-build/orig/sdcc/src/pic14/gen.c:2165:genCall
                      00522 ;; BANKOPT3 drop assumptions: PCI with label or call found
002D   2???           00523         CALL    ___fslt ;id=3245,key=01a,inCond:10,outCond:1e,flow seq=003
                      00524 ;<>Start of new flow, seq=0x4 ancestor = 0x3
                      00525 ;  from: 003 ; to: 006 005 
                      00526 ;; >>> /home/sdcc-builder/build/sdcc-build/orig/sdcc/src/pic14/gen.c:2173:genCall
002E   0??? 0???      00527         PAGESEL $       ;id=3247,key=000,inCond:0,outCond:0,flow seq=004
                      00528 ;;      695 register type nRegs=1
                      00529 ;;; /home/sdcc-builder/build/sdcc-build/orig/sdcc/src/pic14/gen.c:1892:assignResultValue *{*
                      00530 ;; ***  assignResultValue  1894
                      00531 ;;      line = 1896 result -=-, size=0, left AOP_REG=r0x105B, size=1, right -=-, size=0
                      00532 ;; >>> /home/sdcc-builder/build/sdcc-build/orig/sdcc/src/pic14/gen.c:1378:movwf
                      00533 ;;      1097 rIdx = r0x105B 
0030   0??? 0???      00534         BANKSEL r0x1015 ;id=5966,key=001,inCond:0,outCond:0,flow seq=004
0032   00??           00535         MOVWF   r0x1015 ;id=3254,key=002,inCond:10,outCond:1,flow seq=004,rIdx=r0x105B
                      00536 ;;      2188 left AOP_REG
                      00537 ;;; /home/sdcc-builder/build/sdcc-build/orig/sdcc/src/pic14/gen.c:1830:unsaveRegisters *{*
                      00538 ;; ***  unsaveRegisters  1832
                      00539 ;;; /home/sdcc-builder/build/sdcc-build/orig/sdcc/src/pic14/gen.c:2308:resultRemat *{*
                      00540 ;;; /home/sdcc-builder/build/sdcc-build/orig/sdcc/src/pic14/gen.c:6868:genIfx *{*
                      00541 ;; ***  genIfx  6869
                      00542 ;;      695 register type nRegs=1
                      00543 ;; ***  pic14_toBoolean  1500
                      00544 ;; >>> /home/sdcc-builder/build/sdcc-build/orig/sdcc/src/pic14/gen.c:1507:pic14_toBoolean
                      00545 ;; BANKOPT2 BANKSEL dropped; r0x1015 present in same bank as r0x1015
0033   08??           00546         MOVF    r0x1015,W       ;id=5908,key=003,inCond:1,outCond:14,flow seq=004,rIdx=r0x105B
0034   1903           00547         BTFSC   STATUS,2        ;id=3269,key=004,inCond:25,outCond:0,flow seq=004
                      00548 ;<>Start of new flow, seq=0x5 ancestor = 0x4
                      00549 ;  from: 004 ; to: 007 
                      00550 ;; >>> /home/sdcc-builder/build/sdcc-build/orig/sdcc/src/pic14/gen.c:6923:genIfx
                      00551 ;; ***  popGetLabel  key=2, label offset 27
0035   2???           00552         GOTO    _00129_DS_      ;id=3272,key=000,inCond:0,outCond:0,flow seq=005
                      00553 ;<>Start of new flow, seq=0x6 ancestor = 0x4
                      00554 ;  from: 004 ; to: 007 
                      00555 ;;; /home/sdcc-builder/build/sdcc-build/orig/sdcc/src/pic14/gen.c:2308:resultRemat *{*
                      00556 ;;; /home/sdcc-builder/build/sdcc-build/orig/sdcc/src/pic14/gen.c:7036:genAssign *{*
                      00557 ;; ***  genAssign  7037
                      00558 ;; ***  aopForSym 316
                      00559 ;;      328 sym->rname = _F1, size = 4
                      00560 ;; ***  aopForSym 316
                      00561 ;;      328 sym->rname = _F3, size = 4
                      00562 ;;      line = 7046 result AOP_DIR=_F3, size=4, left -=-, size=0, right AOP_DIR=_F1, size=4
                      00563 ;; ***  genAssign  7132
                      00564 ;;; /home/sdcc-builder/build/sdcc-build/orig/sdcc/src/pic14/gen.c:1328:mov2w_op *{*
                      00565 ;; ***  mov2w  1366  offset=0
                      00566 ;; >>> /home/sdcc-builder/build/sdcc-build/orig/sdcc/src/pic14/gen.c:1371:mov2w
                      00567 ;;      998
                      00568 ;;      1016  _F1   offset=0
                      00569 ;       .line   210; "../../../src/measure.c"   F3 = F1; // max freq is F1;
0036   0??? 0???      00570         BANKSEL _F1     ;id=5968,key=000,inCond:0,outCond:0,flow seq=006
0038   08??           00571         MOVF    _F1,W   ;id=3288,key=001,inCond:1,outCond:14,flow seq=006
                      00572 ;; >>> /home/sdcc-builder/build/sdcc-build/orig/sdcc/src/pic14/gen.c:7159:genAssign
                      00573 ;;      998
gpasm-1.5.2 #0 (Sep 16 2019) build/default/pr   9-16-2019  10:40:44         PAGE 12


LOC    OBJECT CODE    LINE  SOURCE TEXT
  VALUE

                      00574 ;;      1016  _F3   offset=0
0039   0??? 0???      00575         BANKSEL _F3     ;id=5969,key=002,inCond:0,outCond:0,flow seq=006
003B   00??           00576         MOVWF   _F3     ;id=3292,key=003,inCond:10,outCond:1,flow seq=006
                      00577 ;; ***  genAssign  7132
                      00578 ;;; /home/sdcc-builder/build/sdcc-build/orig/sdcc/src/pic14/gen.c:1328:mov2w_op *{*
                      00579 ;; ***  mov2w  1366  offset=1
                      00580 ;; >>> /home/sdcc-builder/build/sdcc-build/orig/sdcc/src/pic14/gen.c:1371:mov2w
                      00581 ;;      998
                      00582 ;;      1016  _F1   offset=1
003C   0??? 0???      00583         BANKSEL _F1     ;id=5970,key=004,inCond:0,outCond:0,flow seq=006
003E   08??           00584         MOVF    (_F1 + 1),W     ;id=3299,key=005,inCond:1,outCond:14,flow seq=006
                      00585 ;; >>> /home/sdcc-builder/build/sdcc-build/orig/sdcc/src/pic14/gen.c:7159:genAssign
                      00586 ;;      998
                      00587 ;;      1016  _F3   offset=1
003F   0??? 0???      00588         BANKSEL _F3     ;id=5971,key=006,inCond:0,outCond:0,flow seq=006
0041   00??           00589         MOVWF   (_F3 + 1)       ;id=3303,key=007,inCond:10,outCond:1,flow seq=006
                      00590 ;; ***  genAssign  7132
                      00591 ;;; /home/sdcc-builder/build/sdcc-build/orig/sdcc/src/pic14/gen.c:1328:mov2w_op *{*
                      00592 ;; ***  mov2w  1366  offset=2
                      00593 ;; >>> /home/sdcc-builder/build/sdcc-build/orig/sdcc/src/pic14/gen.c:1371:mov2w
                      00594 ;;      998
                      00595 ;;      1016  _F1   offset=2
0042   0??? 0???      00596         BANKSEL _F1     ;id=5972,key=008,inCond:0,outCond:0,flow seq=006
0044   08??           00597         MOVF    (_F1 + 2),W     ;id=3310,key=009,inCond:1,outCond:14,flow seq=006
                      00598 ;; >>> /home/sdcc-builder/build/sdcc-build/orig/sdcc/src/pic14/gen.c:7159:genAssign
                      00599 ;;      998
                      00600 ;;      1016  _F3   offset=2
0045   0??? 0???      00601         BANKSEL _F3     ;id=5973,key=00a,inCond:0,outCond:0,flow seq=006
0047   00??           00602         MOVWF   (_F3 + 2)       ;id=3314,key=00b,inCond:10,outCond:1,flow seq=006
                      00603 ;; ***  genAssign  7132
                      00604 ;;; /home/sdcc-builder/build/sdcc-build/orig/sdcc/src/pic14/gen.c:1328:mov2w_op *{*
                      00605 ;; ***  mov2w  1366  offset=3
                      00606 ;; >>> /home/sdcc-builder/build/sdcc-build/orig/sdcc/src/pic14/gen.c:1371:mov2w
                      00607 ;;      998
                      00608 ;;      1016  _F1   offset=3
0048   0??? 0???      00609         BANKSEL _F1     ;id=5974,key=00c,inCond:0,outCond:0,flow seq=006
004A   08??           00610         MOVF    (_F1 + 3),W     ;id=3321,key=00d,inCond:1,outCond:14,flow seq=006
                      00611 ;; >>> /home/sdcc-builder/build/sdcc-build/orig/sdcc/src/pic14/gen.c:7159:genAssign
                      00612 ;;      998
                      00613 ;;      1016  _F3   offset=3
004B   0??? 0???      00614         BANKSEL _F3     ;id=5975,key=00e,inCond:0,outCond:0,flow seq=006
004D   00??           00615         MOVWF   (_F3 + 3)       ;id=3325,key=00f,inCond:10,outCond:1,flow seq=006
                      00616 ;<>Start of new flow, seq=0x7 ancestor = 0x5
                      00617 ;  from: 006 005 ; to: 008 
                      00618 ;;; /home/sdcc-builder/build/sdcc-build/orig/sdcc/src/pic14/gen.c:2308:resultRemat *{*
                      00619 ;;; /home/sdcc-builder/build/sdcc-build/orig/sdcc/src/pic14/gen.c:2752:genLabel *{*
                      00620 ;; ***  genLabel  2755
                      00621 ;_00129_DS_:
                      00622 ;;; /home/sdcc-builder/build/sdcc-build/orig/sdcc/src/pic14/gen.c:2308:resultRemat *{*
                      00623 ;;; /home/sdcc-builder/build/sdcc-build/orig/sdcc/src/pic14/gen.c:2308:resultRemat *{*
                      00624 ;;; /home/sdcc-builder/build/sdcc-build/orig/sdcc/src/pic14/gen.c:2308:resultRemat *{*
                      00625 ;;; /home/sdcc-builder/build/sdcc-build/orig/sdcc/src/pic14/gen.c:2071:genCall *{*
                      00626 ;; ***  genCall  2073
gpasm-1.5.2 #0 (Sep 16 2019) build/default/pr   9-16-2019  10:40:44         PAGE 13


LOC    OBJECT CODE    LINE  SOURCE TEXT
  VALUE

                      00627 ;;; /home/sdcc-builder/build/sdcc-build/orig/sdcc/src/pic14/gen.c:1786:saveRegisters *{*
                      00628 ;; ***  saveRegisters  1788
                      00629 ;; ***  aopForSym 316
                      00630 ;;      328 sym->rname = _F1, size = 4
                      00631 ;; ***  aopForSym 316
                      00632 ;;      328 sym->rname = _F1, size = 4
                      00633 ;; ***  aopForSym 316
                      00634 ;;      328 sym->rname = _F1, size = 4
                      00635 ;;      2120 left AOP_DIR
                      00636 ;;; /home/sdcc-builder/build/sdcc-build/orig/sdcc/src/pic14/gen.c:1328:mov2w_op *{*
                      00637 ;; ***  mov2w  1366  offset=0
                      00638 ;; >>> /home/sdcc-builder/build/sdcc-build/orig/sdcc/src/pic14/gen.c:1371:mov2w
                      00639 ;;      998
                      00640 ;;      1016  _F1   offset=0
                      00641 ;; BANKOPT3 drop assumptions: PCI with label or call found
004E                  00642 _00129_DS_:
                      00643 ;       .line   212; "../../../src/measure.c"   numerator = ((F1 * F1) - (F3 * F3)) * ((F1 * F1) - (F2 -
                             F2)) * (GATE_PERIOD * GATE_PERIOD);
004E   0??? 0???      00644         BANKSEL _F1     ;id=5977,key=000,inCond:0,outCond:0,flow seq=007
0050   08??           00645         MOVF    _F1,W   ;id=3351,key=001,inCond:1,outCond:14,flow seq=007
                      00646 ;;      2120 left AOP_DIR
                      00647 ;; >>> /home/sdcc-builder/build/sdcc-build/orig/sdcc/src/pic14/gen.c:2128:genCall
                      00648 ;; ***  popRegFromIdx,1030  , rIdx=0x79
                      00649 ;; BANKOPT1 BANKSEL dropped; STK06 present in all of _F1's banks
0051   00??           00650         MOVWF   STK06   ;id=3355,key=002,inCond:10,outCond:1,flow seq=007
                      00651 ;;; /home/sdcc-builder/build/sdcc-build/orig/sdcc/src/pic14/gen.c:1328:mov2w_op *{*
                      00652 ;; ***  mov2w  1366  offset=1
                      00653 ;; >>> /home/sdcc-builder/build/sdcc-build/orig/sdcc/src/pic14/gen.c:1371:mov2w
                      00654 ;;      998
                      00655 ;;      1016  _F1   offset=1
                      00656 ;; BANKOPT2 BANKSEL dropped; _F1 present in same bank as _F1
0052   08??           00657         MOVF    (_F1 + 1),W     ;id=3361,key=003,inCond:1,outCond:14,flow seq=007
                      00658 ;;      2120 left AOP_DIR
                      00659 ;; >>> /home/sdcc-builder/build/sdcc-build/orig/sdcc/src/pic14/gen.c:2128:genCall
                      00660 ;; ***  popRegFromIdx,1030  , rIdx=0x7a
                      00661 ;; BANKOPT1 BANKSEL dropped; STK05 present in all of _F1's banks
0053   00??           00662         MOVWF   STK05   ;id=3365,key=004,inCond:10,outCond:1,flow seq=007
                      00663 ;;; /home/sdcc-builder/build/sdcc-build/orig/sdcc/src/pic14/gen.c:1328:mov2w_op *{*
                      00664 ;; ***  mov2w  1366  offset=2
                      00665 ;; >>> /home/sdcc-builder/build/sdcc-build/orig/sdcc/src/pic14/gen.c:1371:mov2w
                      00666 ;;      998
                      00667 ;;      1016  _F1   offset=2
                      00668 ;; BANKOPT2 BANKSEL dropped; _F1 present in same bank as _F1
0054   08??           00669         MOVF    (_F1 + 2),W     ;id=3371,key=005,inCond:1,outCond:14,flow seq=007
                      00670 ;;      2120 left AOP_DIR
                      00671 ;; >>> /home/sdcc-builder/build/sdcc-build/orig/sdcc/src/pic14/gen.c:2128:genCall
                      00672 ;; ***  popRegFromIdx,1030  , rIdx=0x7b
                      00673 ;; BANKOPT1 BANKSEL dropped; STK04 present in all of _F1's banks
0055   00??           00674         MOVWF   STK04   ;id=3375,key=006,inCond:10,outCond:1,flow seq=007
                      00675 ;;; /home/sdcc-builder/build/sdcc-build/orig/sdcc/src/pic14/gen.c:1328:mov2w_op *{*
                      00676 ;; ***  mov2w  1366  offset=3
                      00677 ;; >>> /home/sdcc-builder/build/sdcc-build/orig/sdcc/src/pic14/gen.c:1371:mov2w
                      00678 ;;      998
gpasm-1.5.2 #0 (Sep 16 2019) build/default/pr   9-16-2019  10:40:44         PAGE 14


LOC    OBJECT CODE    LINE  SOURCE TEXT
  VALUE

                      00679 ;;      1016  _F1   offset=3
                      00680 ;; BANKOPT2 BANKSEL dropped; _F1 present in same bank as _F1
0056   08??           00681         MOVF    (_F1 + 3),W     ;id=3381,key=007,inCond:1,outCond:14,flow seq=007
                      00682 ;; ***  aopForSym 316
                      00683 ;;      328 sym->rname = _F1, size = 4
                      00684 ;;      2120 left AOP_DIR
                      00685 ;; >>> /home/sdcc-builder/build/sdcc-build/orig/sdcc/src/pic14/gen.c:2128:genCall
                      00686 ;; ***  popRegFromIdx,1030  , rIdx=0x7c
                      00687 ;; BANKOPT1 BANKSEL dropped; STK03 present in all of _F1's banks
0057   00??           00688         MOVWF   STK03   ;id=3387,key=008,inCond:10,outCond:1,flow seq=007
                      00689 ;;; /home/sdcc-builder/build/sdcc-build/orig/sdcc/src/pic14/gen.c:1328:mov2w_op *{*
                      00690 ;; ***  mov2w  1366  offset=0
                      00691 ;; >>> /home/sdcc-builder/build/sdcc-build/orig/sdcc/src/pic14/gen.c:1371:mov2w
                      00692 ;;      998
                      00693 ;;      1016  _F1   offset=0
                      00694 ;; BANKOPT2 BANKSEL dropped; _F1 present in same bank as _F1
0058   08??           00695         MOVF    _F1,W   ;id=3393,key=009,inCond:1,outCond:14,flow seq=007
                      00696 ;;      2120 left AOP_DIR
                      00697 ;; >>> /home/sdcc-builder/build/sdcc-build/orig/sdcc/src/pic14/gen.c:2128:genCall
                      00698 ;; ***  popRegFromIdx,1030  , rIdx=0x7d
                      00699 ;; BANKOPT1 BANKSEL dropped; STK02 present in all of _F1's banks
0059   00??           00700         MOVWF   STK02   ;id=3397,key=00a,inCond:10,outCond:1,flow seq=007
                      00701 ;;; /home/sdcc-builder/build/sdcc-build/orig/sdcc/src/pic14/gen.c:1328:mov2w_op *{*
                      00702 ;; ***  mov2w  1366  offset=1
                      00703 ;; >>> /home/sdcc-builder/build/sdcc-build/orig/sdcc/src/pic14/gen.c:1371:mov2w
                      00704 ;;      998
                      00705 ;;      1016  _F1   offset=1
                      00706 ;; BANKOPT2 BANKSEL dropped; _F1 present in same bank as _F1
005A   08??           00707         MOVF    (_F1 + 1),W     ;id=3403,key=00b,inCond:1,outCond:14,flow seq=007
                      00708 ;;      2120 left AOP_DIR
                      00709 ;; >>> /home/sdcc-builder/build/sdcc-build/orig/sdcc/src/pic14/gen.c:2128:genCall
                      00710 ;; ***  popRegFromIdx,1030  , rIdx=0x7e
                      00711 ;; BANKOPT1 BANKSEL dropped; STK01 present in all of _F1's banks
005B   00??           00712         MOVWF   STK01   ;id=3407,key=00c,inCond:10,outCond:1,flow seq=007
                      00713 ;;; /home/sdcc-builder/build/sdcc-build/orig/sdcc/src/pic14/gen.c:1328:mov2w_op *{*
                      00714 ;; ***  mov2w  1366  offset=2
                      00715 ;; >>> /home/sdcc-builder/build/sdcc-build/orig/sdcc/src/pic14/gen.c:1371:mov2w
                      00716 ;;      998
                      00717 ;;      1016  _F1   offset=2
                      00718 ;; BANKOPT2 BANKSEL dropped; _F1 present in same bank as _F1
005C   08??           00719         MOVF    (_F1 + 2),W     ;id=3413,key=00d,inCond:1,outCond:14,flow seq=007
                      00720 ;;      2120 left AOP_DIR
                      00721 ;; >>> /home/sdcc-builder/build/sdcc-build/orig/sdcc/src/pic14/gen.c:2128:genCall
                      00722 ;; ***  popRegFromIdx,1030  , rIdx=0x7f
                      00723 ;; BANKOPT1 BANKSEL dropped; STK00 present in all of _F1's banks
005D   00??           00724         MOVWF   STK00   ;id=3417,key=00e,inCond:10,outCond:1,flow seq=007
                      00725 ;;; /home/sdcc-builder/build/sdcc-build/orig/sdcc/src/pic14/gen.c:1328:mov2w_op *{*
                      00726 ;; ***  mov2w  1366  offset=3
                      00727 ;; >>> /home/sdcc-builder/build/sdcc-build/orig/sdcc/src/pic14/gen.c:1371:mov2w
                      00728 ;;      998
                      00729 ;;      1016  _F1   offset=3
                      00730 ;; BANKOPT2 BANKSEL dropped; _F1 present in same bank as _F1
005E   08??           00731         MOVF    (_F1 + 3),W     ;id=3423,key=00f,inCond:1,outCond:14,flow seq=007
gpasm-1.5.2 #0 (Sep 16 2019) build/default/pr   9-16-2019  10:40:44         PAGE 15


LOC    OBJECT CODE    LINE  SOURCE TEXT
  VALUE

                      00732 ;; >>> /home/sdcc-builder/build/sdcc-build/orig/sdcc/src/pic14/gen.c:2160:genCall
005F   0??? 0???      00733         PAGESEL ___fsmul        ;id=3425,key=010,inCond:0,outCond:0,flow seq=007
                      00734 ;; >>> /home/sdcc-builder/build/sdcc-build/orig/sdcc/src/pic14/gen.c:2165:genCall
                      00735 ;; BANKOPT3 drop assumptions: PCI with label or call found
0061   2???           00736         CALL    ___fsmul        ;id=3427,key=011,inCond:10,outCond:1e,flow seq=007
                      00737 ;<>Start of new flow, seq=0x8 ancestor = 0x7
                      00738 ;  from: 007 ; to: 009 
                      00739 ;; >>> /home/sdcc-builder/build/sdcc-build/orig/sdcc/src/pic14/gen.c:2173:genCall
0062   0??? 0???      00740         PAGESEL $       ;id=3429,key=000,inCond:0,outCond:0,flow seq=008
                      00741 ;;      695 register type nRegs=4
                      00742 ;;; /home/sdcc-builder/build/sdcc-build/orig/sdcc/src/pic14/gen.c:1892:assignResultValue *{*
                      00743 ;; ***  assignResultValue  1894
                      00744 ;;      line = 1896 result -=-, size=0, left AOP_REG=r0x105B, size=4, right -=-, size=0
                      00745 ;; >>> /home/sdcc-builder/build/sdcc-build/orig/sdcc/src/pic14/gen.c:1378:movwf
                      00746 ;;      1097 rIdx = r0x105E 
0064   0??? 0???      00747         BANKSEL r0x1016 ;id=5993,key=001,inCond:0,outCond:0,flow seq=008
0066   00??           00748         MOVWF   r0x1016 ;id=3436,key=002,inCond:10,outCond:1,flow seq=008,rIdx=r0x105E
                      00749 ;; >>> /home/sdcc-builder/build/sdcc-build/orig/sdcc/src/pic14/gen.c:1408:get_returnvalue
                      00750 ;; ***  popRegFromIdx,1030  , rIdx=0x7f
                      00751 ;; BANKOPT1 BANKSEL dropped; STK00 present in all of r0x1016's banks
0067   08??           00752         MOVF    STK00,W ;id=3439,key=003,inCond:1,outCond:14,flow seq=008
                      00753 ;; >>> /home/sdcc-builder/build/sdcc-build/orig/sdcc/src/pic14/gen.c:1378:movwf
                      00754 ;;      1097 rIdx = r0x105D 
                      00755 ;; BANKOPT2 BANKSEL dropped; r0x1017 present in same bank as r0x1016
0068   00??           00756         MOVWF   r0x1017 ;id=3442,key=004,inCond:10,outCond:1,flow seq=008,rIdx=r0x105D
                      00757 ;; >>> /home/sdcc-builder/build/sdcc-build/orig/sdcc/src/pic14/gen.c:1408:get_returnvalue
                      00758 ;; ***  popRegFromIdx,1030  , rIdx=0x7e
                      00759 ;; BANKOPT1 BANKSEL dropped; STK01 present in all of r0x1016's banks
0069   08??           00760         MOVF    STK01,W ;id=3445,key=005,inCond:1,outCond:14,flow seq=008
                      00761 ;; >>> /home/sdcc-builder/build/sdcc-build/orig/sdcc/src/pic14/gen.c:1378:movwf
                      00762 ;;      1097 rIdx = r0x105C 
                      00763 ;; BANKOPT2 BANKSEL dropped; r0x1014 present in same bank as r0x1016
006A   00??           00764         MOVWF   r0x1014 ;id=3448,key=006,inCond:10,outCond:1,flow seq=008,rIdx=r0x105C
                      00765 ;; >>> /home/sdcc-builder/build/sdcc-build/orig/sdcc/src/pic14/gen.c:1408:get_returnvalue
                      00766 ;; ***  popRegFromIdx,1030  , rIdx=0x7d
                      00767 ;; BANKOPT1 BANKSEL dropped; STK02 present in all of r0x1016's banks
006B   08??           00768         MOVF    STK02,W ;id=3451,key=007,inCond:1,outCond:14,flow seq=008
                      00769 ;; >>> /home/sdcc-builder/build/sdcc-build/orig/sdcc/src/pic14/gen.c:1378:movwf
                      00770 ;;      1097 rIdx = r0x105B 
                      00771 ;; BANKOPT2 BANKSEL dropped; r0x1015 present in same bank as r0x1016
006C   00??           00772         MOVWF   r0x1015 ;id=3454,key=008,inCond:10,outCond:1,flow seq=008,rIdx=r0x105B
                      00773 ;;      2188 left AOP_REG
                      00774 ;;; /home/sdcc-builder/build/sdcc-build/orig/sdcc/src/pic14/gen.c:1830:unsaveRegisters *{*
                      00775 ;; ***  unsaveRegisters  1832
                      00776 ;;; /home/sdcc-builder/build/sdcc-build/orig/sdcc/src/pic14/gen.c:2308:resultRemat *{*
                      00777 ;;; /home/sdcc-builder/build/sdcc-build/orig/sdcc/src/pic14/gen.c:2308:resultRemat *{*
                      00778 ;;; /home/sdcc-builder/build/sdcc-build/orig/sdcc/src/pic14/gen.c:2308:resultRemat *{*
                      00779 ;;; /home/sdcc-builder/build/sdcc-build/orig/sdcc/src/pic14/gen.c:2071:genCall *{*
                      00780 ;; ***  genCall  2073
                      00781 ;;; /home/sdcc-builder/build/sdcc-build/orig/sdcc/src/pic14/gen.c:1786:saveRegisters *{*
                      00782 ;; ***  saveRegisters  1788
                      00783 ;; ***  aopForSym 316
                      00784 ;;      328 sym->rname = _F3, size = 4
gpasm-1.5.2 #0 (Sep 16 2019) build/default/pr   9-16-2019  10:40:44         PAGE 16


LOC    OBJECT CODE    LINE  SOURCE TEXT
  VALUE

                      00785 ;; ***  aopForSym 316
                      00786 ;;      328 sym->rname = _F3, size = 4
                      00787 ;; ***  aopForSym 316
                      00788 ;;      328 sym->rname = _F3, size = 4
                      00789 ;;      2120 left AOP_DIR
                      00790 ;;; /home/sdcc-builder/build/sdcc-build/orig/sdcc/src/pic14/gen.c:1328:mov2w_op *{*
                      00791 ;; ***  mov2w  1366  offset=0
                      00792 ;; >>> /home/sdcc-builder/build/sdcc-build/orig/sdcc/src/pic14/gen.c:1371:mov2w
                      00793 ;;      998
                      00794 ;;      1016  _F3   offset=0
006D   0??? 0???      00795         BANKSEL _F3     ;id=6000,key=009,inCond:0,outCond:0,flow seq=008
006F   08??           00796         MOVF    _F3,W   ;id=3477,key=00a,inCond:1,outCond:14,flow seq=008
                      00797 ;;      2120 left AOP_DIR
                      00798 ;; >>> /home/sdcc-builder/build/sdcc-build/orig/sdcc/src/pic14/gen.c:2128:genCall
                      00799 ;; ***  popRegFromIdx,1030  , rIdx=0x79
                      00800 ;; BANKOPT1 BANKSEL dropped; STK06 present in all of _F3's banks
0070   00??           00801         MOVWF   STK06   ;id=3481,key=00b,inCond:10,outCond:1,flow seq=008
                      00802 ;;; /home/sdcc-builder/build/sdcc-build/orig/sdcc/src/pic14/gen.c:1328:mov2w_op *{*
                      00803 ;; ***  mov2w  1366  offset=1
                      00804 ;; >>> /home/sdcc-builder/build/sdcc-build/orig/sdcc/src/pic14/gen.c:1371:mov2w
                      00805 ;;      998
                      00806 ;;      1016  _F3   offset=1
                      00807 ;; BANKOPT2 BANKSEL dropped; _F3 present in same bank as _F3
0071   08??           00808         MOVF    (_F3 + 1),W     ;id=3487,key=00c,inCond:1,outCond:14,flow seq=008
                      00809 ;;      2120 left AOP_DIR
                      00810 ;; >>> /home/sdcc-builder/build/sdcc-build/orig/sdcc/src/pic14/gen.c:2128:genCall
                      00811 ;; ***  popRegFromIdx,1030  , rIdx=0x7a
                      00812 ;; BANKOPT1 BANKSEL dropped; STK05 present in all of _F3's banks
0072   00??           00813         MOVWF   STK05   ;id=3491,key=00d,inCond:10,outCond:1,flow seq=008
                      00814 ;;; /home/sdcc-builder/build/sdcc-build/orig/sdcc/src/pic14/gen.c:1328:mov2w_op *{*
                      00815 ;; ***  mov2w  1366  offset=2
                      00816 ;; >>> /home/sdcc-builder/build/sdcc-build/orig/sdcc/src/pic14/gen.c:1371:mov2w
                      00817 ;;      998
                      00818 ;;      1016  _F3   offset=2
                      00819 ;; BANKOPT2 BANKSEL dropped; _F3 present in same bank as _F3
0073   08??           00820         MOVF    (_F3 + 2),W     ;id=3497,key=00e,inCond:1,outCond:14,flow seq=008
                      00821 ;;      2120 left AOP_DIR
                      00822 ;; >>> /home/sdcc-builder/build/sdcc-build/orig/sdcc/src/pic14/gen.c:2128:genCall
                      00823 ;; ***  popRegFromIdx,1030  , rIdx=0x7b
                      00824 ;; BANKOPT1 BANKSEL dropped; STK04 present in all of _F3's banks
0074   00??           00825         MOVWF   STK04   ;id=3501,key=00f,inCond:10,outCond:1,flow seq=008
                      00826 ;;; /home/sdcc-builder/build/sdcc-build/orig/sdcc/src/pic14/gen.c:1328:mov2w_op *{*
                      00827 ;; ***  mov2w  1366  offset=3
                      00828 ;; >>> /home/sdcc-builder/build/sdcc-build/orig/sdcc/src/pic14/gen.c:1371:mov2w
                      00829 ;;      998
                      00830 ;;      1016  _F3   offset=3
                      00831 ;; BANKOPT2 BANKSEL dropped; _F3 present in same bank as _F3
0075   08??           00832         MOVF    (_F3 + 3),W     ;id=3507,key=010,inCond:1,outCond:14,flow seq=008
                      00833 ;; ***  aopForSym 316
                      00834 ;;      328 sym->rname = _F3, size = 4
                      00835 ;;      2120 left AOP_DIR
                      00836 ;; >>> /home/sdcc-builder/build/sdcc-build/orig/sdcc/src/pic14/gen.c:2128:genCall
                      00837 ;; ***  popRegFromIdx,1030  , rIdx=0x7c
gpasm-1.5.2 #0 (Sep 16 2019) build/default/pr   9-16-2019  10:40:44         PAGE 17


LOC    OBJECT CODE    LINE  SOURCE TEXT
  VALUE

                      00838 ;; BANKOPT1 BANKSEL dropped; STK03 present in all of _F3's banks
0076   00??           00839         MOVWF   STK03   ;id=3513,key=011,inCond:10,outCond:1,flow seq=008
                      00840 ;;; /home/sdcc-builder/build/sdcc-build/orig/sdcc/src/pic14/gen.c:1328:mov2w_op *{*
                      00841 ;; ***  mov2w  1366  offset=0
                      00842 ;; >>> /home/sdcc-builder/build/sdcc-build/orig/sdcc/src/pic14/gen.c:1371:mov2w
                      00843 ;;      998
                      00844 ;;      1016  _F3   offset=0
                      00845 ;; BANKOPT2 BANKSEL dropped; _F3 present in same bank as _F3
0077   08??           00846         MOVF    _F3,W   ;id=3519,key=012,inCond:1,outCond:14,flow seq=008
                      00847 ;;      2120 left AOP_DIR
                      00848 ;; >>> /home/sdcc-builder/build/sdcc-build/orig/sdcc/src/pic14/gen.c:2128:genCall
                      00849 ;; ***  popRegFromIdx,1030  , rIdx=0x7d
                      00850 ;; BANKOPT1 BANKSEL dropped; STK02 present in all of _F3's banks
0078   00??           00851         MOVWF   STK02   ;id=3523,key=013,inCond:10,outCond:1,flow seq=008
                      00852 ;;; /home/sdcc-builder/build/sdcc-build/orig/sdcc/src/pic14/gen.c:1328:mov2w_op *{*
                      00853 ;; ***  mov2w  1366  offset=1
                      00854 ;; >>> /home/sdcc-builder/build/sdcc-build/orig/sdcc/src/pic14/gen.c:1371:mov2w
                      00855 ;;      998
                      00856 ;;      1016  _F3   offset=1
                      00857 ;; BANKOPT2 BANKSEL dropped; _F3 present in same bank as _F3
0079   08??           00858         MOVF    (_F3 + 1),W     ;id=3529,key=014,inCond:1,outCond:14,flow seq=008
                      00859 ;;      2120 left AOP_DIR
                      00860 ;; >>> /home/sdcc-builder/build/sdcc-build/orig/sdcc/src/pic14/gen.c:2128:genCall
                      00861 ;; ***  popRegFromIdx,1030  , rIdx=0x7e
                      00862 ;; BANKOPT1 BANKSEL dropped; STK01 present in all of _F3's banks
007A   00??           00863         MOVWF   STK01   ;id=3533,key=015,inCond:10,outCond:1,flow seq=008
                      00864 ;;; /home/sdcc-builder/build/sdcc-build/orig/sdcc/src/pic14/gen.c:1328:mov2w_op *{*
                      00865 ;; ***  mov2w  1366  offset=2
                      00866 ;; >>> /home/sdcc-builder/build/sdcc-build/orig/sdcc/src/pic14/gen.c:1371:mov2w
                      00867 ;;      998
                      00868 ;;      1016  _F3   offset=2
                      00869 ;; BANKOPT2 BANKSEL dropped; _F3 present in same bank as _F3
007B   08??           00870         MOVF    (_F3 + 2),W     ;id=3539,key=016,inCond:1,outCond:14,flow seq=008
                      00871 ;;      2120 left AOP_DIR
                      00872 ;; >>> /home/sdcc-builder/build/sdcc-build/orig/sdcc/src/pic14/gen.c:2128:genCall
                      00873 ;; ***  popRegFromIdx,1030  , rIdx=0x7f
                      00874 ;; BANKOPT1 BANKSEL dropped; STK00 present in all of _F3's banks
007C   00??           00875         MOVWF   STK00   ;id=3543,key=017,inCond:10,outCond:1,flow seq=008
                      00876 ;;; /home/sdcc-builder/build/sdcc-build/orig/sdcc/src/pic14/gen.c:1328:mov2w_op *{*
                      00877 ;; ***  mov2w  1366  offset=3
                      00878 ;; >>> /home/sdcc-builder/build/sdcc-build/orig/sdcc/src/pic14/gen.c:1371:mov2w
                      00879 ;;      998
                      00880 ;;      1016  _F3   offset=3
                      00881 ;; BANKOPT2 BANKSEL dropped; _F3 present in same bank as _F3
007D   08??           00882         MOVF    (_F3 + 3),W     ;id=3549,key=018,inCond:1,outCond:14,flow seq=008
                      00883 ;; >>> /home/sdcc-builder/build/sdcc-build/orig/sdcc/src/pic14/gen.c:2160:genCall
007E   0??? 0???      00884         PAGESEL ___fsmul        ;id=3551,key=019,inCond:0,outCond:0,flow seq=008
                      00885 ;; >>> /home/sdcc-builder/build/sdcc-build/orig/sdcc/src/pic14/gen.c:2165:genCall
                      00886 ;; BANKOPT3 drop assumptions: PCI with label or call found
0080   2???           00887         CALL    ___fsmul        ;id=3553,key=01a,inCond:10,outCond:1e,flow seq=008
                      00888 ;<>Start of new flow, seq=0x9 ancestor = 0x8
                      00889 ;  from: 008 ; to: 00a 
                      00890 ;; >>> /home/sdcc-builder/build/sdcc-build/orig/sdcc/src/pic14/gen.c:2173:genCall
gpasm-1.5.2 #0 (Sep 16 2019) build/default/pr   9-16-2019  10:40:44         PAGE 18


LOC    OBJECT CODE    LINE  SOURCE TEXT
  VALUE

0081   0??? 0???      00891         PAGESEL $       ;id=3555,key=000,inCond:0,outCond:0,flow seq=009
                      00892 ;;      695 register type nRegs=4
                      00893 ;;; /home/sdcc-builder/build/sdcc-build/orig/sdcc/src/pic14/gen.c:1892:assignResultValue *{*
                      00894 ;; ***  assignResultValue  1894
                      00895 ;;      line = 1896 result -=-, size=0, left AOP_REG=r0x105F, size=4, right -=-, size=0
                      00896 ;; >>> /home/sdcc-builder/build/sdcc-build/orig/sdcc/src/pic14/gen.c:1378:movwf
                      00897 ;;      1097 rIdx = r0x1062 
0083   0??? 0???      00898         BANKSEL r0x1018 ;id=6016,key=001,inCond:0,outCond:0,flow seq=009
0085   00??           00899         MOVWF   r0x1018 ;id=3562,key=002,inCond:10,outCond:1,flow seq=009,rIdx=r0x1062
                      00900 ;; >>> /home/sdcc-builder/build/sdcc-build/orig/sdcc/src/pic14/gen.c:1408:get_returnvalue
                      00901 ;; ***  popRegFromIdx,1030  , rIdx=0x7f
                      00902 ;; BANKOPT1 BANKSEL dropped; STK00 present in all of r0x1018's banks
0086   08??           00903         MOVF    STK00,W ;id=3565,key=003,inCond:1,outCond:14,flow seq=009
                      00904 ;; >>> /home/sdcc-builder/build/sdcc-build/orig/sdcc/src/pic14/gen.c:1378:movwf
                      00905 ;;      1097 rIdx = r0x1061 
                      00906 ;; BANKOPT2 BANKSEL dropped; r0x1019 present in same bank as r0x1018
0087   00??           00907         MOVWF   r0x1019 ;id=3568,key=004,inCond:10,outCond:1,flow seq=009,rIdx=r0x1061
                      00908 ;; >>> /home/sdcc-builder/build/sdcc-build/orig/sdcc/src/pic14/gen.c:1408:get_returnvalue
                      00909 ;; ***  popRegFromIdx,1030  , rIdx=0x7e
                      00910 ;; BANKOPT1 BANKSEL dropped; STK01 present in all of r0x1018's banks
0088   08??           00911         MOVF    STK01,W ;id=3571,key=005,inCond:1,outCond:14,flow seq=009
                      00912 ;; >>> /home/sdcc-builder/build/sdcc-build/orig/sdcc/src/pic14/gen.c:1378:movwf
                      00913 ;;      1097 rIdx = r0x1060 
                      00914 ;; BANKOPT2 BANKSEL dropped; r0x101A present in same bank as r0x1018
0089   00??           00915         MOVWF   r0x101A ;id=3574,key=006,inCond:10,outCond:1,flow seq=009,rIdx=r0x1060
                      00916 ;; >>> /home/sdcc-builder/build/sdcc-build/orig/sdcc/src/pic14/gen.c:1408:get_returnvalue
                      00917 ;; ***  popRegFromIdx,1030  , rIdx=0x7d
                      00918 ;; BANKOPT1 BANKSEL dropped; STK02 present in all of r0x1018's banks
008A   08??           00919         MOVF    STK02,W ;id=3577,key=007,inCond:1,outCond:14,flow seq=009
                      00920 ;; >>> /home/sdcc-builder/build/sdcc-build/orig/sdcc/src/pic14/gen.c:1378:movwf
                      00921 ;;      1097 rIdx = r0x105F 
                      00922 ;; BANKOPT2 BANKSEL dropped; r0x101B present in same bank as r0x1018
008B   00??           00923         MOVWF   r0x101B ;id=5909,key=008,inCond:10,outCond:1,flow seq=009,rIdx=r0x105F
                      00924 ;; BANKOPT1 BANKSEL dropped; STK06 present in all of r0x1018's banks
008C   00??           00925         MOVWF   STK06   ;id=3603,key=009,inCond:10,outCond:1,flow seq=009
                      00926 ;;; /home/sdcc-builder/build/sdcc-build/orig/sdcc/src/pic14/gen.c:1328:mov2w_op *{*
                      00927 ;; ***  mov2w  1366  offset=1
                      00928 ;; >>> /home/sdcc-builder/build/sdcc-build/orig/sdcc/src/pic14/gen.c:1371:mov2w
                      00929 ;;      1097 rIdx = r0x1060 
                      00930 ;; BANKOPT2 BANKSEL dropped; r0x101A present in same bank as r0x1018
008D   08??           00931         MOVF    r0x101A,W       ;id=3608,key=00a,inCond:1,outCond:14,flow seq=009,rIdx=r0x1060
                      00932 ;;      2120 left AOP_REG
                      00933 ;; >>> /home/sdcc-builder/build/sdcc-build/orig/sdcc/src/pic14/gen.c:2128:genCall
                      00934 ;; ***  popRegFromIdx,1030  , rIdx=0x7a
                      00935 ;; BANKOPT1 BANKSEL dropped; STK05 present in all of r0x1018's banks
008E   00??           00936         MOVWF   STK05   ;id=3612,key=00b,inCond:10,outCond:1,flow seq=009
                      00937 ;;; /home/sdcc-builder/build/sdcc-build/orig/sdcc/src/pic14/gen.c:1328:mov2w_op *{*
                      00938 ;; ***  mov2w  1366  offset=2
                      00939 ;; >>> /home/sdcc-builder/build/sdcc-build/orig/sdcc/src/pic14/gen.c:1371:mov2w
                      00940 ;;      1097 rIdx = r0x1061 
                      00941 ;; BANKOPT2 BANKSEL dropped; r0x1019 present in same bank as r0x1018
008F   08??           00942         MOVF    r0x1019,W       ;id=3617,key=00c,inCond:1,outCond:14,flow seq=009,rIdx=r0x1061
                      00943 ;;      2120 left AOP_REG
gpasm-1.5.2 #0 (Sep 16 2019) build/default/pr   9-16-2019  10:40:44         PAGE 19


LOC    OBJECT CODE    LINE  SOURCE TEXT
  VALUE

                      00944 ;; >>> /home/sdcc-builder/build/sdcc-build/orig/sdcc/src/pic14/gen.c:2128:genCall
                      00945 ;; ***  popRegFromIdx,1030  , rIdx=0x7b
                      00946 ;; BANKOPT1 BANKSEL dropped; STK04 present in all of r0x1018's banks
0090   00??           00947         MOVWF   STK04   ;id=3621,key=00d,inCond:10,outCond:1,flow seq=009
                      00948 ;;; /home/sdcc-builder/build/sdcc-build/orig/sdcc/src/pic14/gen.c:1328:mov2w_op *{*
                      00949 ;; ***  mov2w  1366  offset=3
                      00950 ;; >>> /home/sdcc-builder/build/sdcc-build/orig/sdcc/src/pic14/gen.c:1371:mov2w
                      00951 ;;      1097 rIdx = r0x1062 
                      00952 ;; BANKOPT2 BANKSEL dropped; r0x1018 present in same bank as r0x1018
0091   08??           00953         MOVF    r0x1018,W       ;id=3626,key=00e,inCond:1,outCond:14,flow seq=009,rIdx=r0x1062
                      00954 ;;      695 register type nRegs=4
                      00955 ;;      2120 left AOP_REG
                      00956 ;; >>> /home/sdcc-builder/build/sdcc-build/orig/sdcc/src/pic14/gen.c:2128:genCall
                      00957 ;; ***  popRegFromIdx,1030  , rIdx=0x7c
                      00958 ;; BANKOPT1 BANKSEL dropped; STK03 present in all of r0x1018's banks
0092   00??           00959         MOVWF   STK03   ;id=3631,key=00f,inCond:10,outCond:1,flow seq=009
                      00960 ;;; /home/sdcc-builder/build/sdcc-build/orig/sdcc/src/pic14/gen.c:1328:mov2w_op *{*
                      00961 ;; ***  mov2w  1366  offset=0
                      00962 ;; >>> /home/sdcc-builder/build/sdcc-build/orig/sdcc/src/pic14/gen.c:1371:mov2w
                      00963 ;;      1097 rIdx = r0x105B 
                      00964 ;; BANKOPT2 BANKSEL dropped; r0x1015 present in same bank as r0x1018
0093   08??           00965         MOVF    r0x1015,W       ;id=3636,key=010,inCond:1,outCond:14,flow seq=009,rIdx=r0x105B
                      00966 ;;      2120 left AOP_REG
                      00967 ;; >>> /home/sdcc-builder/build/sdcc-build/orig/sdcc/src/pic14/gen.c:2128:genCall
                      00968 ;; ***  popRegFromIdx,1030  , rIdx=0x7d
                      00969 ;; BANKOPT1 BANKSEL dropped; STK02 present in all of r0x1018's banks
0094   00??           00970         MOVWF   STK02   ;id=3640,key=011,inCond:10,outCond:1,flow seq=009
                      00971 ;;; /home/sdcc-builder/build/sdcc-build/orig/sdcc/src/pic14/gen.c:1328:mov2w_op *{*
                      00972 ;; ***  mov2w  1366  offset=1
                      00973 ;; >>> /home/sdcc-builder/build/sdcc-build/orig/sdcc/src/pic14/gen.c:1371:mov2w
                      00974 ;;      1097 rIdx = r0x105C 
                      00975 ;; BANKOPT2 BANKSEL dropped; r0x1014 present in same bank as r0x1018
0095   08??           00976         MOVF    r0x1014,W       ;id=3645,key=012,inCond:1,outCond:14,flow seq=009,rIdx=r0x105C
                      00977 ;;      2120 left AOP_REG
                      00978 ;; >>> /home/sdcc-builder/build/sdcc-build/orig/sdcc/src/pic14/gen.c:2128:genCall
                      00979 ;; ***  popRegFromIdx,1030  , rIdx=0x7e
                      00980 ;; BANKOPT1 BANKSEL dropped; STK01 present in all of r0x1018's banks
0096   00??           00981         MOVWF   STK01   ;id=3649,key=013,inCond:10,outCond:1,flow seq=009
                      00982 ;;; /home/sdcc-builder/build/sdcc-build/orig/sdcc/src/pic14/gen.c:1328:mov2w_op *{*
                      00983 ;; ***  mov2w  1366  offset=2
                      00984 ;; >>> /home/sdcc-builder/build/sdcc-build/orig/sdcc/src/pic14/gen.c:1371:mov2w
                      00985 ;;      1097 rIdx = r0x105D 
                      00986 ;; BANKOPT2 BANKSEL dropped; r0x1017 present in same bank as r0x1018
0097   08??           00987         MOVF    r0x1017,W       ;id=3654,key=014,inCond:1,outCond:14,flow seq=009,rIdx=r0x105D
                      00988 ;;      2120 left AOP_REG
                      00989 ;; >>> /home/sdcc-builder/build/sdcc-build/orig/sdcc/src/pic14/gen.c:2128:genCall
                      00990 ;; ***  popRegFromIdx,1030  , rIdx=0x7f
                      00991 ;; BANKOPT1 BANKSEL dropped; STK00 present in all of r0x1018's banks
0098   00??           00992         MOVWF   STK00   ;id=3658,key=015,inCond:10,outCond:1,flow seq=009
                      00993 ;;; /home/sdcc-builder/build/sdcc-build/orig/sdcc/src/pic14/gen.c:1328:mov2w_op *{*
                      00994 ;; ***  mov2w  1366  offset=3
                      00995 ;; >>> /home/sdcc-builder/build/sdcc-build/orig/sdcc/src/pic14/gen.c:1371:mov2w
                      00996 ;;      1097 rIdx = r0x105E 
gpasm-1.5.2 #0 (Sep 16 2019) build/default/pr   9-16-2019  10:40:44         PAGE 20


LOC    OBJECT CODE    LINE  SOURCE TEXT
  VALUE

                      00997 ;; BANKOPT2 BANKSEL dropped; r0x1016 present in same bank as r0x1018
0099   08??           00998         MOVF    r0x1016,W       ;id=3663,key=016,inCond:1,outCond:14,flow seq=009,rIdx=r0x105E
                      00999 ;; >>> /home/sdcc-builder/build/sdcc-build/orig/sdcc/src/pic14/gen.c:2160:genCall
009A   0??? 0???      01000         PAGESEL ___fssub        ;id=3665,key=017,inCond:0,outCond:0,flow seq=009
                      01001 ;; >>> /home/sdcc-builder/build/sdcc-build/orig/sdcc/src/pic14/gen.c:2165:genCall
                      01002 ;; BANKOPT3 drop assumptions: PCI with label or call found
009C   2???           01003         CALL    ___fssub        ;id=3667,key=018,inCond:10,outCond:1e,flow seq=009
                      01004 ;<>Start of new flow, seq=0xa ancestor = 0x9
                      01005 ;  from: 009 ; to: 00b 
                      01006 ;; >>> /home/sdcc-builder/build/sdcc-build/orig/sdcc/src/pic14/gen.c:2173:genCall
009D   0??? 0???      01007         PAGESEL $       ;id=3669,key=000,inCond:0,outCond:0,flow seq=00a
                      01008 ;;      695 register type nRegs=4
                      01009 ;;; /home/sdcc-builder/build/sdcc-build/orig/sdcc/src/pic14/gen.c:1892:assignResultValue *{*
                      01010 ;; ***  assignResultValue  1894
                      01011 ;;      line = 1896 result -=-, size=0, left AOP_REG=r0x105F, size=4, right -=-, size=0
                      01012 ;; >>> /home/sdcc-builder/build/sdcc-build/orig/sdcc/src/pic14/gen.c:1378:movwf
                      01013 ;;      1097 rIdx = r0x1062 
009F   0??? 0???      01014         BANKSEL r0x1018 ;id=6038,key=001,inCond:0,outCond:0,flow seq=00a
00A1   00??           01015         MOVWF   r0x1018 ;id=3676,key=002,inCond:10,outCond:1,flow seq=00a,rIdx=r0x1062
                      01016 ;; >>> /home/sdcc-builder/build/sdcc-build/orig/sdcc/src/pic14/gen.c:1408:get_returnvalue
                      01017 ;; ***  popRegFromIdx,1030  , rIdx=0x7f
                      01018 ;; BANKOPT1 BANKSEL dropped; STK00 present in all of r0x1018's banks
00A2   08??           01019         MOVF    STK00,W ;id=3679,key=003,inCond:1,outCond:14,flow seq=00a
                      01020 ;; >>> /home/sdcc-builder/build/sdcc-build/orig/sdcc/src/pic14/gen.c:1378:movwf
                      01021 ;;      1097 rIdx = r0x1061 
                      01022 ;; BANKOPT2 BANKSEL dropped; r0x1019 present in same bank as r0x1018
00A3   00??           01023         MOVWF   r0x1019 ;id=3682,key=004,inCond:10,outCond:1,flow seq=00a,rIdx=r0x1061
                      01024 ;; >>> /home/sdcc-builder/build/sdcc-build/orig/sdcc/src/pic14/gen.c:1408:get_returnvalue
                      01025 ;; ***  popRegFromIdx,1030  , rIdx=0x7e
                      01026 ;; BANKOPT1 BANKSEL dropped; STK01 present in all of r0x1018's banks
00A4   08??           01027         MOVF    STK01,W ;id=3685,key=005,inCond:1,outCond:14,flow seq=00a
                      01028 ;; >>> /home/sdcc-builder/build/sdcc-build/orig/sdcc/src/pic14/gen.c:1378:movwf
                      01029 ;;      1097 rIdx = r0x1060 
                      01030 ;; BANKOPT2 BANKSEL dropped; r0x101A present in same bank as r0x1018
00A5   00??           01031         MOVWF   r0x101A ;id=3688,key=006,inCond:10,outCond:1,flow seq=00a,rIdx=r0x1060
                      01032 ;; >>> /home/sdcc-builder/build/sdcc-build/orig/sdcc/src/pic14/gen.c:1408:get_returnvalue
                      01033 ;; ***  popRegFromIdx,1030  , rIdx=0x7d
                      01034 ;; BANKOPT1 BANKSEL dropped; STK02 present in all of r0x1018's banks
00A6   08??           01035         MOVF    STK02,W ;id=3691,key=007,inCond:1,outCond:14,flow seq=00a
                      01036 ;; >>> /home/sdcc-builder/build/sdcc-build/orig/sdcc/src/pic14/gen.c:1378:movwf
                      01037 ;;      1097 rIdx = r0x105F 
                      01038 ;; BANKOPT2 BANKSEL dropped; r0x101B present in same bank as r0x1018
00A7   00??           01039         MOVWF   r0x101B ;id=3694,key=008,inCond:10,outCond:1,flow seq=00a,rIdx=r0x105F
                      01040 ;;      2188 left AOP_REG
                      01041 ;;; /home/sdcc-builder/build/sdcc-build/orig/sdcc/src/pic14/gen.c:1830:unsaveRegisters *{*
                      01042 ;; ***  unsaveRegisters  1832
                      01043 ;;; /home/sdcc-builder/build/sdcc-build/orig/sdcc/src/pic14/gen.c:2308:resultRemat *{*
                      01044 ;;; /home/sdcc-builder/build/sdcc-build/orig/sdcc/src/pic14/gen.c:2308:resultRemat *{*
                      01045 ;;; /home/sdcc-builder/build/sdcc-build/orig/sdcc/src/pic14/gen.c:2308:resultRemat *{*
                      01046 ;;; /home/sdcc-builder/build/sdcc-build/orig/sdcc/src/pic14/gen.c:2071:genCall *{*
                      01047 ;; ***  genCall  2073
                      01048 ;;; /home/sdcc-builder/build/sdcc-build/orig/sdcc/src/pic14/gen.c:1786:saveRegisters *{*
                      01049 ;; ***  saveRegisters  1788
gpasm-1.5.2 #0 (Sep 16 2019) build/default/pr   9-16-2019  10:40:44         PAGE 21


LOC    OBJECT CODE    LINE  SOURCE TEXT
  VALUE

                      01050 ;;      695 register type nRegs=4
                      01051 ;;      695 register type nRegs=4
                      01052 ;;      695 register type nRegs=4
                      01053 ;;      2120 left AOP_REG
                      01054 ;;; /home/sdcc-builder/build/sdcc-build/orig/sdcc/src/pic14/gen.c:1328:mov2w_op *{*
                      01055 ;; ***  mov2w  1366  offset=0
                      01056 ;; >>> /home/sdcc-builder/build/sdcc-build/orig/sdcc/src/pic14/gen.c:1371:mov2w
                      01057 ;;      1097 rIdx = r0x105B 
                      01058 ;; BANKOPT2 BANKSEL dropped; r0x1015 present in same bank as r0x1018
00A8   08??           01059         MOVF    r0x1015,W       ;id=3713,key=009,inCond:1,outCond:14,flow seq=00a,rIdx=r0x105B
                      01060 ;;      2120 left AOP_REG
                      01061 ;; >>> /home/sdcc-builder/build/sdcc-build/orig/sdcc/src/pic14/gen.c:2128:genCall
                      01062 ;; ***  popRegFromIdx,1030  , rIdx=0x79
                      01063 ;; BANKOPT1 BANKSEL dropped; STK06 present in all of r0x1018's banks
00A9   00??           01064         MOVWF   STK06   ;id=3717,key=00a,inCond:10,outCond:1,flow seq=00a
                      01065 ;;; /home/sdcc-builder/build/sdcc-build/orig/sdcc/src/pic14/gen.c:1328:mov2w_op *{*
                      01066 ;; ***  mov2w  1366  offset=1
                      01067 ;; >>> /home/sdcc-builder/build/sdcc-build/orig/sdcc/src/pic14/gen.c:1371:mov2w
                      01068 ;;      1097 rIdx = r0x105C 
                      01069 ;; BANKOPT2 BANKSEL dropped; r0x1014 present in same bank as r0x1018
00AA   08??           01070         MOVF    r0x1014,W       ;id=3722,key=00b,inCond:1,outCond:14,flow seq=00a,rIdx=r0x105C
                      01071 ;;      2120 left AOP_REG
                      01072 ;; >>> /home/sdcc-builder/build/sdcc-build/orig/sdcc/src/pic14/gen.c:2128:genCall
                      01073 ;; ***  popRegFromIdx,1030  , rIdx=0x7a
                      01074 ;; BANKOPT1 BANKSEL dropped; STK05 present in all of r0x1018's banks
00AB   00??           01075         MOVWF   STK05   ;id=3726,key=00c,inCond:10,outCond:1,flow seq=00a
                      01076 ;;; /home/sdcc-builder/build/sdcc-build/orig/sdcc/src/pic14/gen.c:1328:mov2w_op *{*
                      01077 ;; ***  mov2w  1366  offset=2
                      01078 ;; >>> /home/sdcc-builder/build/sdcc-build/orig/sdcc/src/pic14/gen.c:1371:mov2w
                      01079 ;;      1097 rIdx = r0x105D 
                      01080 ;; BANKOPT2 BANKSEL dropped; r0x1017 present in same bank as r0x1018
00AC   08??           01081         MOVF    r0x1017,W       ;id=3731,key=00d,inCond:1,outCond:14,flow seq=00a,rIdx=r0x105D
                      01082 ;;      2120 left AOP_REG
                      01083 ;; >>> /home/sdcc-builder/build/sdcc-build/orig/sdcc/src/pic14/gen.c:2128:genCall
                      01084 ;; ***  popRegFromIdx,1030  , rIdx=0x7b
                      01085 ;; BANKOPT1 BANKSEL dropped; STK04 present in all of r0x1018's banks
00AD   00??           01086         MOVWF   STK04   ;id=3735,key=00e,inCond:10,outCond:1,flow seq=00a
                      01087 ;;; /home/sdcc-builder/build/sdcc-build/orig/sdcc/src/pic14/gen.c:1328:mov2w_op *{*
                      01088 ;; ***  mov2w  1366  offset=3
                      01089 ;; >>> /home/sdcc-builder/build/sdcc-build/orig/sdcc/src/pic14/gen.c:1371:mov2w
                      01090 ;;      1097 rIdx = r0x105E 
                      01091 ;; BANKOPT2 BANKSEL dropped; r0x1016 present in same bank as r0x1018
00AE   08??           01092         MOVF    r0x1016,W       ;id=3740,key=00f,inCond:1,outCond:14,flow seq=00a,rIdx=r0x105E
                      01093 ;;      695 register type nRegs=4
                      01094 ;;      2120 left AOP_REG
                      01095 ;; >>> /home/sdcc-builder/build/sdcc-build/orig/sdcc/src/pic14/gen.c:2128:genCall
                      01096 ;; ***  popRegFromIdx,1030  , rIdx=0x7c
                      01097 ;; BANKOPT1 BANKSEL dropped; STK03 present in all of r0x1018's banks
00AF   00??           01098         MOVWF   STK03   ;id=3745,key=010,inCond:10,outCond:1,flow seq=00a
                      01099 ;;; /home/sdcc-builder/build/sdcc-build/orig/sdcc/src/pic14/gen.c:1328:mov2w_op *{*
                      01100 ;; ***  mov2w  1366  offset=0
                      01101 ;; >>> /home/sdcc-builder/build/sdcc-build/orig/sdcc/src/pic14/gen.c:1371:mov2w
                      01102 ;;      1097 rIdx = r0x105F 
gpasm-1.5.2 #0 (Sep 16 2019) build/default/pr   9-16-2019  10:40:44         PAGE 22


LOC    OBJECT CODE    LINE  SOURCE TEXT
  VALUE

                      01103 ;; BANKOPT2 BANKSEL dropped; r0x101B present in same bank as r0x1018
00B0   08??           01104         MOVF    r0x101B,W       ;id=3750,key=011,inCond:1,outCond:14,flow seq=00a,rIdx=r0x105F
                      01105 ;;      2120 left AOP_REG
                      01106 ;; >>> /home/sdcc-builder/build/sdcc-build/orig/sdcc/src/pic14/gen.c:2128:genCall
                      01107 ;; ***  popRegFromIdx,1030  , rIdx=0x7d
                      01108 ;; BANKOPT1 BANKSEL dropped; STK02 present in all of r0x1018's banks
00B1   00??           01109         MOVWF   STK02   ;id=3754,key=012,inCond:10,outCond:1,flow seq=00a
                      01110 ;;; /home/sdcc-builder/build/sdcc-build/orig/sdcc/src/pic14/gen.c:1328:mov2w_op *{*
                      01111 ;; ***  mov2w  1366  offset=1
                      01112 ;; >>> /home/sdcc-builder/build/sdcc-build/orig/sdcc/src/pic14/gen.c:1371:mov2w
                      01113 ;;      1097 rIdx = r0x1060 
                      01114 ;; BANKOPT2 BANKSEL dropped; r0x101A present in same bank as r0x1018
00B2   08??           01115         MOVF    r0x101A,W       ;id=3759,key=013,inCond:1,outCond:14,flow seq=00a,rIdx=r0x1060
                      01116 ;;      2120 left AOP_REG
                      01117 ;; >>> /home/sdcc-builder/build/sdcc-build/orig/sdcc/src/pic14/gen.c:2128:genCall
                      01118 ;; ***  popRegFromIdx,1030  , rIdx=0x7e
                      01119 ;; BANKOPT1 BANKSEL dropped; STK01 present in all of r0x1018's banks
00B3   00??           01120         MOVWF   STK01   ;id=3763,key=014,inCond:10,outCond:1,flow seq=00a
                      01121 ;;; /home/sdcc-builder/build/sdcc-build/orig/sdcc/src/pic14/gen.c:1328:mov2w_op *{*
                      01122 ;; ***  mov2w  1366  offset=2
                      01123 ;; >>> /home/sdcc-builder/build/sdcc-build/orig/sdcc/src/pic14/gen.c:1371:mov2w
                      01124 ;;      1097 rIdx = r0x1061 
                      01125 ;; BANKOPT2 BANKSEL dropped; r0x1019 present in same bank as r0x1018
00B4   08??           01126         MOVF    r0x1019,W       ;id=3768,key=015,inCond:1,outCond:14,flow seq=00a,rIdx=r0x1061
                      01127 ;;      2120 left AOP_REG
                      01128 ;; >>> /home/sdcc-builder/build/sdcc-build/orig/sdcc/src/pic14/gen.c:2128:genCall
                      01129 ;; ***  popRegFromIdx,1030  , rIdx=0x7f
                      01130 ;; BANKOPT1 BANKSEL dropped; STK00 present in all of r0x1018's banks
00B5   00??           01131         MOVWF   STK00   ;id=3772,key=016,inCond:10,outCond:1,flow seq=00a
                      01132 ;;; /home/sdcc-builder/build/sdcc-build/orig/sdcc/src/pic14/gen.c:1328:mov2w_op *{*
                      01133 ;; ***  mov2w  1366  offset=3
                      01134 ;; >>> /home/sdcc-builder/build/sdcc-build/orig/sdcc/src/pic14/gen.c:1371:mov2w
                      01135 ;;      1097 rIdx = r0x1062 
                      01136 ;; BANKOPT2 BANKSEL dropped; r0x1018 present in same bank as r0x1018
00B6   08??           01137         MOVF    r0x1018,W       ;id=3777,key=017,inCond:1,outCond:14,flow seq=00a,rIdx=r0x1062
                      01138 ;; >>> /home/sdcc-builder/build/sdcc-build/orig/sdcc/src/pic14/gen.c:2160:genCall
00B7   0??? 0???      01139         PAGESEL ___fsmul        ;id=3779,key=018,inCond:0,outCond:0,flow seq=00a
                      01140 ;; >>> /home/sdcc-builder/build/sdcc-build/orig/sdcc/src/pic14/gen.c:2165:genCall
                      01141 ;; BANKOPT3 drop assumptions: PCI with label or call found
00B9   2???           01142         CALL    ___fsmul        ;id=3781,key=019,inCond:10,outCond:1e,flow seq=00a
                      01143 ;<>Start of new flow, seq=0xb ancestor = 0xa
                      01144 ;  from: 00a ; to: 00c 
                      01145 ;; >>> /home/sdcc-builder/build/sdcc-build/orig/sdcc/src/pic14/gen.c:2173:genCall
00BA   0??? 0???      01146         PAGESEL $       ;id=3783,key=000,inCond:0,outCond:0,flow seq=00b
                      01147 ;;      695 register type nRegs=4
                      01148 ;;; /home/sdcc-builder/build/sdcc-build/orig/sdcc/src/pic14/gen.c:1892:assignResultValue *{*
                      01149 ;; ***  assignResultValue  1894
                      01150 ;;      line = 1896 result -=-, size=0, left AOP_REG=r0x105B, size=4, right -=-, size=0
                      01151 ;; >>> /home/sdcc-builder/build/sdcc-build/orig/sdcc/src/pic14/gen.c:1378:movwf
                      01152 ;;      1097 rIdx = r0x105E 
00BC   0??? 0???      01153         BANKSEL r0x1016 ;id=6061,key=001,inCond:0,outCond:0,flow seq=00b
00BE   00??           01154         MOVWF   r0x1016 ;id=3790,key=002,inCond:10,outCond:1,flow seq=00b,rIdx=r0x105E
                      01155 ;; >>> /home/sdcc-builder/build/sdcc-build/orig/sdcc/src/pic14/gen.c:1408:get_returnvalue
gpasm-1.5.2 #0 (Sep 16 2019) build/default/pr   9-16-2019  10:40:44         PAGE 23


LOC    OBJECT CODE    LINE  SOURCE TEXT
  VALUE

                      01156 ;; ***  popRegFromIdx,1030  , rIdx=0x7f
                      01157 ;; BANKOPT1 BANKSEL dropped; STK00 present in all of r0x1016's banks
00BF   08??           01158         MOVF    STK00,W ;id=3793,key=003,inCond:1,outCond:14,flow seq=00b
                      01159 ;; >>> /home/sdcc-builder/build/sdcc-build/orig/sdcc/src/pic14/gen.c:1378:movwf
                      01160 ;;      1097 rIdx = r0x105D 
                      01161 ;; BANKOPT2 BANKSEL dropped; r0x1017 present in same bank as r0x1016
00C0   00??           01162         MOVWF   r0x1017 ;id=3796,key=004,inCond:10,outCond:1,flow seq=00b,rIdx=r0x105D
                      01163 ;; >>> /home/sdcc-builder/build/sdcc-build/orig/sdcc/src/pic14/gen.c:1408:get_returnvalue
                      01164 ;; ***  popRegFromIdx,1030  , rIdx=0x7e
                      01165 ;; BANKOPT1 BANKSEL dropped; STK01 present in all of r0x1016's banks
00C1   08??           01166         MOVF    STK01,W ;id=3799,key=005,inCond:1,outCond:14,flow seq=00b
                      01167 ;; >>> /home/sdcc-builder/build/sdcc-build/orig/sdcc/src/pic14/gen.c:1378:movwf
                      01168 ;;      1097 rIdx = r0x105C 
                      01169 ;; BANKOPT2 BANKSEL dropped; r0x1014 present in same bank as r0x1016
00C2   00??           01170         MOVWF   r0x1014 ;id=3802,key=006,inCond:10,outCond:1,flow seq=00b,rIdx=r0x105C
                      01171 ;; >>> /home/sdcc-builder/build/sdcc-build/orig/sdcc/src/pic14/gen.c:1408:get_returnvalue
                      01172 ;; ***  popRegFromIdx,1030  , rIdx=0x7d
                      01173 ;; BANKOPT1 BANKSEL dropped; STK02 present in all of r0x1016's banks
00C3   08??           01174         MOVF    STK02,W ;id=3805,key=007,inCond:1,outCond:14,flow seq=00b
                      01175 ;; >>> /home/sdcc-builder/build/sdcc-build/orig/sdcc/src/pic14/gen.c:1378:movwf
                      01176 ;;      1097 rIdx = r0x105B 
                      01177 ;; BANKOPT2 BANKSEL dropped; r0x1015 present in same bank as r0x1016
00C4   00??           01178         MOVWF   r0x1015 ;id=5910,key=008,inCond:10,outCond:1,flow seq=00b,rIdx=r0x105B
                      01179 ;; BANKOPT1 BANKSEL dropped; STK06 present in all of r0x1016's banks
00C5   00??           01180         MOVWF   STK06   ;id=3830,key=009,inCond:10,outCond:1,flow seq=00b
                      01181 ;;; /home/sdcc-builder/build/sdcc-build/orig/sdcc/src/pic14/gen.c:1328:mov2w_op *{*
                      01182 ;; ***  mov2w  1366  offset=1
                      01183 ;; >>> /home/sdcc-builder/build/sdcc-build/orig/sdcc/src/pic14/gen.c:1371:mov2w
                      01184 ;;      1097 rIdx = r0x105C 
                      01185 ;; BANKOPT2 BANKSEL dropped; r0x1014 present in same bank as r0x1016
00C6   08??           01186         MOVF    r0x1014,W       ;id=3835,key=00a,inCond:1,outCond:14,flow seq=00b,rIdx=r0x105C
                      01187 ;;      2120 left AOP_REG
                      01188 ;; >>> /home/sdcc-builder/build/sdcc-build/orig/sdcc/src/pic14/gen.c:2128:genCall
                      01189 ;; ***  popRegFromIdx,1030  , rIdx=0x7a
                      01190 ;; BANKOPT1 BANKSEL dropped; STK05 present in all of r0x1016's banks
00C7   00??           01191         MOVWF   STK05   ;id=3839,key=00b,inCond:10,outCond:1,flow seq=00b
                      01192 ;;; /home/sdcc-builder/build/sdcc-build/orig/sdcc/src/pic14/gen.c:1328:mov2w_op *{*
                      01193 ;; ***  mov2w  1366  offset=2
                      01194 ;; >>> /home/sdcc-builder/build/sdcc-build/orig/sdcc/src/pic14/gen.c:1371:mov2w
                      01195 ;;      1097 rIdx = r0x105D 
                      01196 ;; BANKOPT2 BANKSEL dropped; r0x1017 present in same bank as r0x1016
00C8   08??           01197         MOVF    r0x1017,W       ;id=3844,key=00c,inCond:1,outCond:14,flow seq=00b,rIdx=r0x105D
                      01198 ;;      2120 left AOP_REG
                      01199 ;; >>> /home/sdcc-builder/build/sdcc-build/orig/sdcc/src/pic14/gen.c:2128:genCall
                      01200 ;; ***  popRegFromIdx,1030  , rIdx=0x7b
                      01201 ;; BANKOPT1 BANKSEL dropped; STK04 present in all of r0x1016's banks
00C9   00??           01202         MOVWF   STK04   ;id=3848,key=00d,inCond:10,outCond:1,flow seq=00b
                      01203 ;;; /home/sdcc-builder/build/sdcc-build/orig/sdcc/src/pic14/gen.c:1328:mov2w_op *{*
                      01204 ;; ***  mov2w  1366  offset=3
                      01205 ;; >>> /home/sdcc-builder/build/sdcc-build/orig/sdcc/src/pic14/gen.c:1371:mov2w
                      01206 ;;      1097 rIdx = r0x105E 
                      01207 ;; BANKOPT2 BANKSEL dropped; r0x1016 present in same bank as r0x1016
00CA   08??           01208         MOVF    r0x1016,W       ;id=3853,key=00e,inCond:1,outCond:14,flow seq=00b,rIdx=r0x105E
gpasm-1.5.2 #0 (Sep 16 2019) build/default/pr   9-16-2019  10:40:44         PAGE 24


LOC    OBJECT CODE    LINE  SOURCE TEXT
  VALUE

                      01209 ;;      2120 left AOP_LIT
                      01210 ;; >>> /home/sdcc-builder/build/sdcc-build/orig/sdcc/src/pic14/gen.c:2128:genCall
                      01211 ;; ***  popRegFromIdx,1030  , rIdx=0x7c
                      01212 ;; BANKOPT1 BANKSEL dropped; STK03 present in all of r0x1016's banks
00CB   00??           01213         MOVWF   STK03   ;id=3857,key=00f,inCond:10,outCond:1,flow seq=00b
                      01214 ;;; /home/sdcc-builder/build/sdcc-build/orig/sdcc/src/pic14/gen.c:1328:mov2w_op *{*
                      01215 ;; >>> /home/sdcc-builder/build/sdcc-build/orig/sdcc/src/pic14/gen.c:1346:mov2w_op
00CC   3000           01216         MOVLW   0x00    ;id=3860,key=010,inCond:400,outCond:10,flow seq=00b
                      01217 ;;      2120 left AOP_LIT
                      01218 ;; >>> /home/sdcc-builder/build/sdcc-build/orig/sdcc/src/pic14/gen.c:2128:genCall
                      01219 ;; ***  popRegFromIdx,1030  , rIdx=0x7d
                      01220 ;; BANKOPT1 BANKSEL dropped; STK02 present in all of r0x1016's banks
00CD   00??           01221         MOVWF   STK02   ;id=3864,key=011,inCond:10,outCond:1,flow seq=00b
                      01222 ;;; /home/sdcc-builder/build/sdcc-build/orig/sdcc/src/pic14/gen.c:1328:mov2w_op *{*
                      01223 ;; >>> /home/sdcc-builder/build/sdcc-build/orig/sdcc/src/pic14/gen.c:1346:mov2w_op
00CE   3040           01224         MOVLW   0x40    ;id=3867,key=012,inCond:400,outCond:10,flow seq=00b
                      01225 ;;      2120 left AOP_LIT
                      01226 ;; >>> /home/sdcc-builder/build/sdcc-build/orig/sdcc/src/pic14/gen.c:2128:genCall
                      01227 ;; ***  popRegFromIdx,1030  , rIdx=0x7e
                      01228 ;; BANKOPT1 BANKSEL dropped; STK01 present in all of r0x1016's banks
00CF   00??           01229         MOVWF   STK01   ;id=3871,key=013,inCond:10,outCond:1,flow seq=00b
                      01230 ;;; /home/sdcc-builder/build/sdcc-build/orig/sdcc/src/pic14/gen.c:1328:mov2w_op *{*
                      01231 ;; >>> /home/sdcc-builder/build/sdcc-build/orig/sdcc/src/pic14/gen.c:1346:mov2w_op
00D0   301C           01232         MOVLW   0x1c    ;id=3874,key=014,inCond:400,outCond:10,flow seq=00b
                      01233 ;;      2120 left AOP_LIT
                      01234 ;; >>> /home/sdcc-builder/build/sdcc-build/orig/sdcc/src/pic14/gen.c:2128:genCall
                      01235 ;; ***  popRegFromIdx,1030  , rIdx=0x7f
                      01236 ;; BANKOPT1 BANKSEL dropped; STK00 present in all of r0x1016's banks
00D1   00??           01237         MOVWF   STK00   ;id=3878,key=015,inCond:10,outCond:1,flow seq=00b
                      01238 ;;; /home/sdcc-builder/build/sdcc-build/orig/sdcc/src/pic14/gen.c:1328:mov2w_op *{*
                      01239 ;; >>> /home/sdcc-builder/build/sdcc-build/orig/sdcc/src/pic14/gen.c:1346:mov2w_op
00D2   3046           01240         MOVLW   0x46    ;id=3881,key=016,inCond:400,outCond:10,flow seq=00b
                      01241 ;; >>> /home/sdcc-builder/build/sdcc-build/orig/sdcc/src/pic14/gen.c:2160:genCall
00D3   0??? 0???      01242         PAGESEL ___fsmul        ;id=3883,key=017,inCond:0,outCond:0,flow seq=00b
                      01243 ;; >>> /home/sdcc-builder/build/sdcc-build/orig/sdcc/src/pic14/gen.c:2165:genCall
                      01244 ;; BANKOPT3 drop assumptions: PCI with label or call found
00D5   2???           01245         CALL    ___fsmul        ;id=3885,key=018,inCond:10,outCond:1e,flow seq=00b
                      01246 ;<>Start of new flow, seq=0xc ancestor = 0xb
                      01247 ;  from: 00b ; to: 00d 
                      01248 ;; >>> /home/sdcc-builder/build/sdcc-build/orig/sdcc/src/pic14/gen.c:2173:genCall
00D6   0??? 0???      01249         PAGESEL $       ;id=3887,key=000,inCond:0,outCond:0,flow seq=00c
                      01250 ;;      695 register type nRegs=4
                      01251 ;;; /home/sdcc-builder/build/sdcc-build/orig/sdcc/src/pic14/gen.c:1892:assignResultValue *{*
                      01252 ;; ***  assignResultValue  1894
                      01253 ;;      line = 1896 result -=-, size=0, left AOP_REG=r0x105B, size=4, right -=-, size=0
                      01254 ;; >>> /home/sdcc-builder/build/sdcc-build/orig/sdcc/src/pic14/gen.c:1378:movwf
                      01255 ;;      1097 rIdx = r0x105E 
00D8   0??? 0???      01256         BANKSEL r0x1016 ;id=6079,key=001,inCond:0,outCond:0,flow seq=00c
00DA   00??           01257         MOVWF   r0x1016 ;id=3894,key=002,inCond:10,outCond:1,flow seq=00c,rIdx=r0x105E
                      01258 ;; >>> /home/sdcc-builder/build/sdcc-build/orig/sdcc/src/pic14/gen.c:1408:get_returnvalue
                      01259 ;; ***  popRegFromIdx,1030  , rIdx=0x7f
                      01260 ;; BANKOPT1 BANKSEL dropped; STK00 present in all of r0x1016's banks
00DB   08??           01261         MOVF    STK00,W ;id=3897,key=003,inCond:1,outCond:14,flow seq=00c
gpasm-1.5.2 #0 (Sep 16 2019) build/default/pr   9-16-2019  10:40:44         PAGE 25


LOC    OBJECT CODE    LINE  SOURCE TEXT
  VALUE

                      01262 ;; >>> /home/sdcc-builder/build/sdcc-build/orig/sdcc/src/pic14/gen.c:1378:movwf
                      01263 ;;      1097 rIdx = r0x105D 
                      01264 ;; BANKOPT2 BANKSEL dropped; r0x1017 present in same bank as r0x1016
00DC   00??           01265         MOVWF   r0x1017 ;id=3900,key=004,inCond:10,outCond:1,flow seq=00c,rIdx=r0x105D
                      01266 ;; >>> /home/sdcc-builder/build/sdcc-build/orig/sdcc/src/pic14/gen.c:1408:get_returnvalue
                      01267 ;; ***  popRegFromIdx,1030  , rIdx=0x7e
                      01268 ;; BANKOPT1 BANKSEL dropped; STK01 present in all of r0x1016's banks
00DD   08??           01269         MOVF    STK01,W ;id=3903,key=005,inCond:1,outCond:14,flow seq=00c
                      01270 ;; >>> /home/sdcc-builder/build/sdcc-build/orig/sdcc/src/pic14/gen.c:1378:movwf
                      01271 ;;      1097 rIdx = r0x105C 
                      01272 ;; BANKOPT2 BANKSEL dropped; r0x1014 present in same bank as r0x1016
00DE   00??           01273         MOVWF   r0x1014 ;id=3906,key=006,inCond:10,outCond:1,flow seq=00c,rIdx=r0x105C
                      01274 ;; >>> /home/sdcc-builder/build/sdcc-build/orig/sdcc/src/pic14/gen.c:1408:get_returnvalue
                      01275 ;; ***  popRegFromIdx,1030  , rIdx=0x7d
                      01276 ;; BANKOPT1 BANKSEL dropped; STK02 present in all of r0x1016's banks
00DF   08??           01277         MOVF    STK02,W ;id=3909,key=007,inCond:1,outCond:14,flow seq=00c
                      01278 ;; >>> /home/sdcc-builder/build/sdcc-build/orig/sdcc/src/pic14/gen.c:1378:movwf
                      01279 ;;      1097 rIdx = r0x105B 
                      01280 ;; BANKOPT2 BANKSEL dropped; r0x1015 present in same bank as r0x1016
00E0   00??           01281         MOVWF   r0x1015 ;id=3912,key=008,inCond:10,outCond:1,flow seq=00c,rIdx=r0x105B
                      01282 ;;      2188 left AOP_REG
                      01283 ;;; /home/sdcc-builder/build/sdcc-build/orig/sdcc/src/pic14/gen.c:1830:unsaveRegisters *{*
                      01284 ;; ***  unsaveRegisters  1832
                      01285 ;;; /home/sdcc-builder/build/sdcc-build/orig/sdcc/src/pic14/gen.c:2308:resultRemat *{*
                      01286 ;;; /home/sdcc-builder/build/sdcc-build/orig/sdcc/src/pic14/gen.c:2308:resultRemat *{*
                      01287 ;;; /home/sdcc-builder/build/sdcc-build/orig/sdcc/src/pic14/gen.c:2308:resultRemat *{*
                      01288 ;;; /home/sdcc-builder/build/sdcc-build/orig/sdcc/src/pic14/gen.c:2071:genCall *{*
                      01289 ;; ***  genCall  2073
                      01290 ;;; /home/sdcc-builder/build/sdcc-build/orig/sdcc/src/pic14/gen.c:1786:saveRegisters *{*
                      01291 ;; ***  saveRegisters  1788
                      01292 ;; ***  aopForSym 316
                      01293 ;;      328 sym->rname = _F1, size = 4
                      01294 ;; ***  aopForSym 316
                      01295 ;;      328 sym->rname = _F1, size = 4
                      01296 ;;      2120 left AOP_DIR
                      01297 ;;; /home/sdcc-builder/build/sdcc-build/orig/sdcc/src/pic14/gen.c:1328:mov2w_op *{*
                      01298 ;; ***  mov2w  1366  offset=0
                      01299 ;; >>> /home/sdcc-builder/build/sdcc-build/orig/sdcc/src/pic14/gen.c:1371:mov2w
                      01300 ;;      998
                      01301 ;;      1016  _F1   offset=0
                      01302 ;       .line   214; "../../../src/measure.c"   denominator = 4 * PI * PI * F1 * F1 * F2 * F2 * F3 * F3 
                            * CCal;
00E1   0??? 0???      01303         BANKSEL _F1     ;id=6086,key=009,inCond:0,outCond:0,flow seq=00c
00E3   08??           01304         MOVF    _F1,W   ;id=3934,key=00a,inCond:1,outCond:14,flow seq=00c
                      01305 ;;      2120 left AOP_DIR
                      01306 ;; >>> /home/sdcc-builder/build/sdcc-build/orig/sdcc/src/pic14/gen.c:2128:genCall
                      01307 ;; ***  popRegFromIdx,1030  , rIdx=0x79
                      01308 ;; BANKOPT1 BANKSEL dropped; STK06 present in all of _F1's banks
00E4   00??           01309         MOVWF   STK06   ;id=3938,key=00b,inCond:10,outCond:1,flow seq=00c
                      01310 ;;; /home/sdcc-builder/build/sdcc-build/orig/sdcc/src/pic14/gen.c:1328:mov2w_op *{*
                      01311 ;; ***  mov2w  1366  offset=1
                      01312 ;; >>> /home/sdcc-builder/build/sdcc-build/orig/sdcc/src/pic14/gen.c:1371:mov2w
                      01313 ;;      998
gpasm-1.5.2 #0 (Sep 16 2019) build/default/pr   9-16-2019  10:40:44         PAGE 26


LOC    OBJECT CODE    LINE  SOURCE TEXT
  VALUE

                      01314 ;;      1016  _F1   offset=1
                      01315 ;; BANKOPT2 BANKSEL dropped; _F1 present in same bank as _F1
00E5   08??           01316         MOVF    (_F1 + 1),W     ;id=3944,key=00c,inCond:1,outCond:14,flow seq=00c
                      01317 ;;      2120 left AOP_DIR
                      01318 ;; >>> /home/sdcc-builder/build/sdcc-build/orig/sdcc/src/pic14/gen.c:2128:genCall
                      01319 ;; ***  popRegFromIdx,1030  , rIdx=0x7a
                      01320 ;; BANKOPT1 BANKSEL dropped; STK05 present in all of _F1's banks
00E6   00??           01321         MOVWF   STK05   ;id=3948,key=00d,inCond:10,outCond:1,flow seq=00c
                      01322 ;;; /home/sdcc-builder/build/sdcc-build/orig/sdcc/src/pic14/gen.c:1328:mov2w_op *{*
                      01323 ;; ***  mov2w  1366  offset=2
                      01324 ;; >>> /home/sdcc-builder/build/sdcc-build/orig/sdcc/src/pic14/gen.c:1371:mov2w
                      01325 ;;      998
                      01326 ;;      1016  _F1   offset=2
                      01327 ;; BANKOPT2 BANKSEL dropped; _F1 present in same bank as _F1
00E7   08??           01328         MOVF    (_F1 + 2),W     ;id=3954,key=00e,inCond:1,outCond:14,flow seq=00c
                      01329 ;;      2120 left AOP_DIR
                      01330 ;; >>> /home/sdcc-builder/build/sdcc-build/orig/sdcc/src/pic14/gen.c:2128:genCall
                      01331 ;; ***  popRegFromIdx,1030  , rIdx=0x7b
                      01332 ;; BANKOPT1 BANKSEL dropped; STK04 present in all of _F1's banks
00E8   00??           01333         MOVWF   STK04   ;id=3958,key=00f,inCond:10,outCond:1,flow seq=00c
                      01334 ;;; /home/sdcc-builder/build/sdcc-build/orig/sdcc/src/pic14/gen.c:1328:mov2w_op *{*
                      01335 ;; ***  mov2w  1366  offset=3
                      01336 ;; >>> /home/sdcc-builder/build/sdcc-build/orig/sdcc/src/pic14/gen.c:1371:mov2w
                      01337 ;;      998
                      01338 ;;      1016  _F1   offset=3
                      01339 ;; BANKOPT2 BANKSEL dropped; _F1 present in same bank as _F1
00E9   08??           01340         MOVF    (_F1 + 3),W     ;id=3964,key=010,inCond:1,outCond:14,flow seq=00c
                      01341 ;;      2120 left AOP_LIT
                      01342 ;; >>> /home/sdcc-builder/build/sdcc-build/orig/sdcc/src/pic14/gen.c:2128:genCall
                      01343 ;; ***  popRegFromIdx,1030  , rIdx=0x7c
                      01344 ;; BANKOPT1 BANKSEL dropped; STK03 present in all of _F1's banks
00EA   00??           01345         MOVWF   STK03   ;id=3968,key=011,inCond:10,outCond:1,flow seq=00c
                      01346 ;;; /home/sdcc-builder/build/sdcc-build/orig/sdcc/src/pic14/gen.c:1328:mov2w_op *{*
                      01347 ;; >>> /home/sdcc-builder/build/sdcc-build/orig/sdcc/src/pic14/gen.c:1346:mov2w_op
00EB   30E6           01348         MOVLW   0xe6    ;id=3971,key=012,inCond:400,outCond:10,flow seq=00c
                      01349 ;;      2120 left AOP_LIT
                      01350 ;; >>> /home/sdcc-builder/build/sdcc-build/orig/sdcc/src/pic14/gen.c:2128:genCall
                      01351 ;; ***  popRegFromIdx,1030  , rIdx=0x7d
                      01352 ;; BANKOPT1 BANKSEL dropped; STK02 present in all of _F1's banks
00EC   00??           01353         MOVWF   STK02   ;id=3975,key=013,inCond:10,outCond:1,flow seq=00c
                      01354 ;;; /home/sdcc-builder/build/sdcc-build/orig/sdcc/src/pic14/gen.c:1328:mov2w_op *{*
                      01355 ;; >>> /home/sdcc-builder/build/sdcc-build/orig/sdcc/src/pic14/gen.c:1346:mov2w_op
00ED   30E9           01356         MOVLW   0xe9    ;id=3978,key=014,inCond:400,outCond:10,flow seq=00c
                      01357 ;;      2120 left AOP_LIT
                      01358 ;; >>> /home/sdcc-builder/build/sdcc-build/orig/sdcc/src/pic14/gen.c:2128:genCall
                      01359 ;; ***  popRegFromIdx,1030  , rIdx=0x7e
                      01360 ;; BANKOPT1 BANKSEL dropped; STK01 present in all of _F1's banks
00EE   00??           01361         MOVWF   STK01   ;id=3982,key=015,inCond:10,outCond:1,flow seq=00c
                      01362 ;;; /home/sdcc-builder/build/sdcc-build/orig/sdcc/src/pic14/gen.c:1328:mov2w_op *{*
                      01363 ;; >>> /home/sdcc-builder/build/sdcc-build/orig/sdcc/src/pic14/gen.c:1346:mov2w_op
00EF   301D           01364         MOVLW   0x1d    ;id=3985,key=016,inCond:400,outCond:10,flow seq=00c
                      01365 ;;      2120 left AOP_LIT
                      01366 ;; >>> /home/sdcc-builder/build/sdcc-build/orig/sdcc/src/pic14/gen.c:2128:genCall
gpasm-1.5.2 #0 (Sep 16 2019) build/default/pr   9-16-2019  10:40:44         PAGE 27


LOC    OBJECT CODE    LINE  SOURCE TEXT
  VALUE

                      01367 ;; ***  popRegFromIdx,1030  , rIdx=0x7f
                      01368 ;; BANKOPT1 BANKSEL dropped; STK00 present in all of _F1's banks
00F0   00??           01369         MOVWF   STK00   ;id=3989,key=017,inCond:10,outCond:1,flow seq=00c
                      01370 ;;; /home/sdcc-builder/build/sdcc-build/orig/sdcc/src/pic14/gen.c:1328:mov2w_op *{*
                      01371 ;; >>> /home/sdcc-builder/build/sdcc-build/orig/sdcc/src/pic14/gen.c:1346:mov2w_op
00F1   3042           01372         MOVLW   0x42    ;id=3992,key=018,inCond:400,outCond:10,flow seq=00c
                      01373 ;; >>> /home/sdcc-builder/build/sdcc-build/orig/sdcc/src/pic14/gen.c:2160:genCall
00F2   0??? 0???      01374         PAGESEL ___fsmul        ;id=3994,key=019,inCond:0,outCond:0,flow seq=00c
                      01375 ;; >>> /home/sdcc-builder/build/sdcc-build/orig/sdcc/src/pic14/gen.c:2165:genCall
                      01376 ;; BANKOPT3 drop assumptions: PCI with label or call found
00F4   2???           01377         CALL    ___fsmul        ;id=3996,key=01a,inCond:10,outCond:1e,flow seq=00c
                      01378 ;<>Start of new flow, seq=0xd ancestor = 0xc
                      01379 ;  from: 00c ; to: 00e 
                      01380 ;; >>> /home/sdcc-builder/build/sdcc-build/orig/sdcc/src/pic14/gen.c:2173:genCall
00F5   0??? 0???      01381         PAGESEL $       ;id=3998,key=000,inCond:0,outCond:0,flow seq=00d
                      01382 ;;      695 register type nRegs=4
                      01383 ;;; /home/sdcc-builder/build/sdcc-build/orig/sdcc/src/pic14/gen.c:1892:assignResultValue *{*
                      01384 ;; ***  assignResultValue  1894
                      01385 ;;      line = 1896 result -=-, size=0, left AOP_REG=r0x105F, size=4, right -=-, size=0
                      01386 ;; >>> /home/sdcc-builder/build/sdcc-build/orig/sdcc/src/pic14/gen.c:1378:movwf
                      01387 ;;      1097 rIdx = r0x1062 
00F7   0??? 0???      01388         BANKSEL r0x1018 ;id=6098,key=001,inCond:0,outCond:0,flow seq=00d
00F9   00??           01389         MOVWF   r0x1018 ;id=4005,key=002,inCond:10,outCond:1,flow seq=00d,rIdx=r0x1062
                      01390 ;; >>> /home/sdcc-builder/build/sdcc-build/orig/sdcc/src/pic14/gen.c:1408:get_returnvalue
                      01391 ;; ***  popRegFromIdx,1030  , rIdx=0x7f
                      01392 ;; BANKOPT1 BANKSEL dropped; STK00 present in all of r0x1018's banks
00FA   08??           01393         MOVF    STK00,W ;id=4008,key=003,inCond:1,outCond:14,flow seq=00d
                      01394 ;; >>> /home/sdcc-builder/build/sdcc-build/orig/sdcc/src/pic14/gen.c:1378:movwf
                      01395 ;;      1097 rIdx = r0x1061 
                      01396 ;; BANKOPT2 BANKSEL dropped; r0x1019 present in same bank as r0x1018
00FB   00??           01397         MOVWF   r0x1019 ;id=4011,key=004,inCond:10,outCond:1,flow seq=00d,rIdx=r0x1061
                      01398 ;; >>> /home/sdcc-builder/build/sdcc-build/orig/sdcc/src/pic14/gen.c:1408:get_returnvalue
                      01399 ;; ***  popRegFromIdx,1030  , rIdx=0x7e
                      01400 ;; BANKOPT1 BANKSEL dropped; STK01 present in all of r0x1018's banks
00FC   08??           01401         MOVF    STK01,W ;id=4014,key=005,inCond:1,outCond:14,flow seq=00d
                      01402 ;; >>> /home/sdcc-builder/build/sdcc-build/orig/sdcc/src/pic14/gen.c:1378:movwf
                      01403 ;;      1097 rIdx = r0x1060 
                      01404 ;; BANKOPT2 BANKSEL dropped; r0x101A present in same bank as r0x1018
00FD   00??           01405         MOVWF   r0x101A ;id=4017,key=006,inCond:10,outCond:1,flow seq=00d,rIdx=r0x1060
                      01406 ;; >>> /home/sdcc-builder/build/sdcc-build/orig/sdcc/src/pic14/gen.c:1408:get_returnvalue
                      01407 ;; ***  popRegFromIdx,1030  , rIdx=0x7d
                      01408 ;; BANKOPT1 BANKSEL dropped; STK02 present in all of r0x1018's banks
00FE   08??           01409         MOVF    STK02,W ;id=4020,key=007,inCond:1,outCond:14,flow seq=00d
                      01410 ;; >>> /home/sdcc-builder/build/sdcc-build/orig/sdcc/src/pic14/gen.c:1378:movwf
                      01411 ;;      1097 rIdx = r0x105F 
                      01412 ;; BANKOPT2 BANKSEL dropped; r0x101B present in same bank as r0x1018
00FF   00??           01413         MOVWF   r0x101B ;id=4023,key=008,inCond:10,outCond:1,flow seq=00d,rIdx=r0x105F
                      01414 ;;      2188 left AOP_REG
                      01415 ;;; /home/sdcc-builder/build/sdcc-build/orig/sdcc/src/pic14/gen.c:1830:unsaveRegisters *{*
                      01416 ;; ***  unsaveRegisters  1832
                      01417 ;;; /home/sdcc-builder/build/sdcc-build/orig/sdcc/src/pic14/gen.c:2308:resultRemat *{*
                      01418 ;;; /home/sdcc-builder/build/sdcc-build/orig/sdcc/src/pic14/gen.c:2308:resultRemat *{*
                      01419 ;;; /home/sdcc-builder/build/sdcc-build/orig/sdcc/src/pic14/gen.c:2308:resultRemat *{*
gpasm-1.5.2 #0 (Sep 16 2019) build/default/pr   9-16-2019  10:40:44         PAGE 28


LOC    OBJECT CODE    LINE  SOURCE TEXT
  VALUE

                      01420 ;;; /home/sdcc-builder/build/sdcc-build/orig/sdcc/src/pic14/gen.c:2071:genCall *{*
                      01421 ;; ***  genCall  2073
                      01422 ;;; /home/sdcc-builder/build/sdcc-build/orig/sdcc/src/pic14/gen.c:1786:saveRegisters *{*
                      01423 ;; ***  saveRegisters  1788
                      01424 ;; ***  aopForSym 316
                      01425 ;;      328 sym->rname = _F1, size = 4
                      01426 ;;      695 register type nRegs=4
                      01427 ;; ***  aopForSym 316
                      01428 ;;      328 sym->rname = _F1, size = 4
                      01429 ;;      2120 left AOP_DIR
                      01430 ;;; /home/sdcc-builder/build/sdcc-build/orig/sdcc/src/pic14/gen.c:1328:mov2w_op *{*
                      01431 ;; ***  mov2w  1366  offset=0
                      01432 ;; >>> /home/sdcc-builder/build/sdcc-build/orig/sdcc/src/pic14/gen.c:1371:mov2w
                      01433 ;;      998
                      01434 ;;      1016  _F1   offset=0
0100   0??? 0???      01435         BANKSEL _F1     ;id=6105,key=009,inCond:0,outCond:0,flow seq=00d
0102   08??           01436         MOVF    _F1,W   ;id=4045,key=00a,inCond:1,outCond:14,flow seq=00d
                      01437 ;;      2120 left AOP_DIR
                      01438 ;; >>> /home/sdcc-builder/build/sdcc-build/orig/sdcc/src/pic14/gen.c:2128:genCall
                      01439 ;; ***  popRegFromIdx,1030  , rIdx=0x79
                      01440 ;; BANKOPT1 BANKSEL dropped; STK06 present in all of _F1's banks
0103   00??           01441         MOVWF   STK06   ;id=4049,key=00b,inCond:10,outCond:1,flow seq=00d
                      01442 ;;; /home/sdcc-builder/build/sdcc-build/orig/sdcc/src/pic14/gen.c:1328:mov2w_op *{*
                      01443 ;; ***  mov2w  1366  offset=1
                      01444 ;; >>> /home/sdcc-builder/build/sdcc-build/orig/sdcc/src/pic14/gen.c:1371:mov2w
                      01445 ;;      998
                      01446 ;;      1016  _F1   offset=1
                      01447 ;; BANKOPT2 BANKSEL dropped; _F1 present in same bank as _F1
0104   08??           01448         MOVF    (_F1 + 1),W     ;id=4055,key=00c,inCond:1,outCond:14,flow seq=00d
                      01449 ;;      2120 left AOP_DIR
                      01450 ;; >>> /home/sdcc-builder/build/sdcc-build/orig/sdcc/src/pic14/gen.c:2128:genCall
                      01451 ;; ***  popRegFromIdx,1030  , rIdx=0x7a
                      01452 ;; BANKOPT1 BANKSEL dropped; STK05 present in all of _F1's banks
0105   00??           01453         MOVWF   STK05   ;id=4059,key=00d,inCond:10,outCond:1,flow seq=00d
                      01454 ;;; /home/sdcc-builder/build/sdcc-build/orig/sdcc/src/pic14/gen.c:1328:mov2w_op *{*
                      01455 ;; ***  mov2w  1366  offset=2
                      01456 ;; >>> /home/sdcc-builder/build/sdcc-build/orig/sdcc/src/pic14/gen.c:1371:mov2w
                      01457 ;;      998
                      01458 ;;      1016  _F1   offset=2
                      01459 ;; BANKOPT2 BANKSEL dropped; _F1 present in same bank as _F1
0106   08??           01460         MOVF    (_F1 + 2),W     ;id=4065,key=00e,inCond:1,outCond:14,flow seq=00d
                      01461 ;;      2120 left AOP_DIR
                      01462 ;; >>> /home/sdcc-builder/build/sdcc-build/orig/sdcc/src/pic14/gen.c:2128:genCall
                      01463 ;; ***  popRegFromIdx,1030  , rIdx=0x7b
                      01464 ;; BANKOPT1 BANKSEL dropped; STK04 present in all of _F1's banks
0107   00??           01465         MOVWF   STK04   ;id=4069,key=00f,inCond:10,outCond:1,flow seq=00d
                      01466 ;;; /home/sdcc-builder/build/sdcc-build/orig/sdcc/src/pic14/gen.c:1328:mov2w_op *{*
                      01467 ;; ***  mov2w  1366  offset=3
                      01468 ;; >>> /home/sdcc-builder/build/sdcc-build/orig/sdcc/src/pic14/gen.c:1371:mov2w
                      01469 ;;      998
                      01470 ;;      1016  _F1   offset=3
                      01471 ;; BANKOPT2 BANKSEL dropped; _F1 present in same bank as _F1
0108   08??           01472         MOVF    (_F1 + 3),W     ;id=4075,key=010,inCond:1,outCond:14,flow seq=00d
gpasm-1.5.2 #0 (Sep 16 2019) build/default/pr   9-16-2019  10:40:44         PAGE 29


LOC    OBJECT CODE    LINE  SOURCE TEXT
  VALUE

                      01473 ;;      695 register type nRegs=4
                      01474 ;;      2120 left AOP_REG
                      01475 ;; >>> /home/sdcc-builder/build/sdcc-build/orig/sdcc/src/pic14/gen.c:2128:genCall
                      01476 ;; ***  popRegFromIdx,1030  , rIdx=0x7c
                      01477 ;; BANKOPT1 BANKSEL dropped; STK03 present in all of _F1's banks
0109   00??           01478         MOVWF   STK03   ;id=4080,key=011,inCond:10,outCond:1,flow seq=00d
                      01479 ;;; /home/sdcc-builder/build/sdcc-build/orig/sdcc/src/pic14/gen.c:1328:mov2w_op *{*
                      01480 ;; ***  mov2w  1366  offset=0
                      01481 ;; >>> /home/sdcc-builder/build/sdcc-build/orig/sdcc/src/pic14/gen.c:1371:mov2w
                      01482 ;;      1097 rIdx = r0x105F 
010A   0??? 0???      01483         BANKSEL r0x101B ;id=6113,key=012,inCond:0,outCond:0,flow seq=00d
010C   08??           01484         MOVF    r0x101B,W       ;id=4085,key=013,inCond:1,outCond:14,flow seq=00d,rIdx=r0x105F
                      01485 ;;      2120 left AOP_REG
                      01486 ;; >>> /home/sdcc-builder/build/sdcc-build/orig/sdcc/src/pic14/gen.c:2128:genCall
                      01487 ;; ***  popRegFromIdx,1030  , rIdx=0x7d
                      01488 ;; BANKOPT1 BANKSEL dropped; STK02 present in all of r0x101B's banks
010D   00??           01489         MOVWF   STK02   ;id=4089,key=014,inCond:10,outCond:1,flow seq=00d
                      01490 ;;; /home/sdcc-builder/build/sdcc-build/orig/sdcc/src/pic14/gen.c:1328:mov2w_op *{*
                      01491 ;; ***  mov2w  1366  offset=1
                      01492 ;; >>> /home/sdcc-builder/build/sdcc-build/orig/sdcc/src/pic14/gen.c:1371:mov2w
                      01493 ;;      1097 rIdx = r0x1060 
                      01494 ;; BANKOPT2 BANKSEL dropped; r0x101A present in same bank as r0x101B
010E   08??           01495         MOVF    r0x101A,W       ;id=4094,key=015,inCond:1,outCond:14,flow seq=00d,rIdx=r0x1060
                      01496 ;;      2120 left AOP_REG
                      01497 ;; >>> /home/sdcc-builder/build/sdcc-build/orig/sdcc/src/pic14/gen.c:2128:genCall
                      01498 ;; ***  popRegFromIdx,1030  , rIdx=0x7e
                      01499 ;; BANKOPT1 BANKSEL dropped; STK01 present in all of r0x101B's banks
010F   00??           01500         MOVWF   STK01   ;id=4098,key=016,inCond:10,outCond:1,flow seq=00d
                      01501 ;;; /home/sdcc-builder/build/sdcc-build/orig/sdcc/src/pic14/gen.c:1328:mov2w_op *{*
                      01502 ;; ***  mov2w  1366  offset=2
                      01503 ;; >>> /home/sdcc-builder/build/sdcc-build/orig/sdcc/src/pic14/gen.c:1371:mov2w
                      01504 ;;      1097 rIdx = r0x1061 
                      01505 ;; BANKOPT2 BANKSEL dropped; r0x1019 present in same bank as r0x101B
0110   08??           01506         MOVF    r0x1019,W       ;id=4103,key=017,inCond:1,outCond:14,flow seq=00d,rIdx=r0x1061
                      01507 ;;      2120 left AOP_REG
                      01508 ;; >>> /home/sdcc-builder/build/sdcc-build/orig/sdcc/src/pic14/gen.c:2128:genCall
                      01509 ;; ***  popRegFromIdx,1030  , rIdx=0x7f
                      01510 ;; BANKOPT1 BANKSEL dropped; STK00 present in all of r0x101B's banks
0111   00??           01511         MOVWF   STK00   ;id=4107,key=018,inCond:10,outCond:1,flow seq=00d
                      01512 ;;; /home/sdcc-builder/build/sdcc-build/orig/sdcc/src/pic14/gen.c:1328:mov2w_op *{*
                      01513 ;; ***  mov2w  1366  offset=3
                      01514 ;; >>> /home/sdcc-builder/build/sdcc-build/orig/sdcc/src/pic14/gen.c:1371:mov2w
                      01515 ;;      1097 rIdx = r0x1062 
                      01516 ;; BANKOPT2 BANKSEL dropped; r0x1018 present in same bank as r0x101B
0112   08??           01517         MOVF    r0x1018,W       ;id=4112,key=019,inCond:1,outCond:14,flow seq=00d,rIdx=r0x1062
                      01518 ;; >>> /home/sdcc-builder/build/sdcc-build/orig/sdcc/src/pic14/gen.c:2160:genCall
0113   0??? 0???      01519         PAGESEL ___fsmul        ;id=4114,key=01a,inCond:0,outCond:0,flow seq=00d
                      01520 ;; >>> /home/sdcc-builder/build/sdcc-build/orig/sdcc/src/pic14/gen.c:2165:genCall
                      01521 ;; BANKOPT3 drop assumptions: PCI with label or call found
0115   2???           01522         CALL    ___fsmul        ;id=4116,key=01b,inCond:10,outCond:1e,flow seq=00d
                      01523 ;<>Start of new flow, seq=0xe ancestor = 0xd
                      01524 ;  from: 00d ; to: 00f 
                      01525 ;; >>> /home/sdcc-builder/build/sdcc-build/orig/sdcc/src/pic14/gen.c:2173:genCall
gpasm-1.5.2 #0 (Sep 16 2019) build/default/pr   9-16-2019  10:40:44         PAGE 30


LOC    OBJECT CODE    LINE  SOURCE TEXT
  VALUE

0116   0??? 0???      01526         PAGESEL $       ;id=4118,key=000,inCond:0,outCond:0,flow seq=00e
                      01527 ;;      695 register type nRegs=4
                      01528 ;;; /home/sdcc-builder/build/sdcc-build/orig/sdcc/src/pic14/gen.c:1892:assignResultValue *{*
                      01529 ;; ***  assignResultValue  1894
                      01530 ;;      line = 1896 result -=-, size=0, left AOP_REG=r0x105F, size=4, right -=-, size=0
                      01531 ;; >>> /home/sdcc-builder/build/sdcc-build/orig/sdcc/src/pic14/gen.c:1378:movwf
                      01532 ;;      1097 rIdx = r0x1062 
0118   0??? 0???      01533         BANKSEL r0x1018 ;id=6121,key=001,inCond:0,outCond:0,flow seq=00e
011A   00??           01534         MOVWF   r0x1018 ;id=4125,key=002,inCond:10,outCond:1,flow seq=00e,rIdx=r0x1062
                      01535 ;; >>> /home/sdcc-builder/build/sdcc-build/orig/sdcc/src/pic14/gen.c:1408:get_returnvalue
                      01536 ;; ***  popRegFromIdx,1030  , rIdx=0x7f
                      01537 ;; BANKOPT1 BANKSEL dropped; STK00 present in all of r0x1018's banks
011B   08??           01538         MOVF    STK00,W ;id=4128,key=003,inCond:1,outCond:14,flow seq=00e
                      01539 ;; >>> /home/sdcc-builder/build/sdcc-build/orig/sdcc/src/pic14/gen.c:1378:movwf
                      01540 ;;      1097 rIdx = r0x1061 
                      01541 ;; BANKOPT2 BANKSEL dropped; r0x1019 present in same bank as r0x1018
011C   00??           01542         MOVWF   r0x1019 ;id=4131,key=004,inCond:10,outCond:1,flow seq=00e,rIdx=r0x1061
                      01543 ;; >>> /home/sdcc-builder/build/sdcc-build/orig/sdcc/src/pic14/gen.c:1408:get_returnvalue
                      01544 ;; ***  popRegFromIdx,1030  , rIdx=0x7e
                      01545 ;; BANKOPT1 BANKSEL dropped; STK01 present in all of r0x1018's banks
011D   08??           01546         MOVF    STK01,W ;id=4134,key=005,inCond:1,outCond:14,flow seq=00e
                      01547 ;; >>> /home/sdcc-builder/build/sdcc-build/orig/sdcc/src/pic14/gen.c:1378:movwf
                      01548 ;;      1097 rIdx = r0x1060 
                      01549 ;; BANKOPT2 BANKSEL dropped; r0x101A present in same bank as r0x1018
011E   00??           01550         MOVWF   r0x101A ;id=4137,key=006,inCond:10,outCond:1,flow seq=00e,rIdx=r0x1060
                      01551 ;; >>> /home/sdcc-builder/build/sdcc-build/orig/sdcc/src/pic14/gen.c:1408:get_returnvalue
                      01552 ;; ***  popRegFromIdx,1030  , rIdx=0x7d
                      01553 ;; BANKOPT1 BANKSEL dropped; STK02 present in all of r0x1018's banks
011F   08??           01554         MOVF    STK02,W ;id=4140,key=007,inCond:1,outCond:14,flow seq=00e
                      01555 ;; >>> /home/sdcc-builder/build/sdcc-build/orig/sdcc/src/pic14/gen.c:1378:movwf
                      01556 ;;      1097 rIdx = r0x105F 
                      01557 ;; BANKOPT2 BANKSEL dropped; r0x101B present in same bank as r0x1018
0120   00??           01558         MOVWF   r0x101B ;id=4143,key=008,inCond:10,outCond:1,flow seq=00e,rIdx=r0x105F
                      01559 ;;      2188 left AOP_REG
                      01560 ;;; /home/sdcc-builder/build/sdcc-build/orig/sdcc/src/pic14/gen.c:1830:unsaveRegisters *{*
                      01561 ;; ***  unsaveRegisters  1832
                      01562 ;;; /home/sdcc-builder/build/sdcc-build/orig/sdcc/src/pic14/gen.c:2308:resultRemat *{*
                      01563 ;;; /home/sdcc-builder/build/sdcc-build/orig/sdcc/src/pic14/gen.c:2308:resultRemat *{*
                      01564 ;;; /home/sdcc-builder/build/sdcc-build/orig/sdcc/src/pic14/gen.c:2308:resultRemat *{*
                      01565 ;;; /home/sdcc-builder/build/sdcc-build/orig/sdcc/src/pic14/gen.c:2071:genCall *{*
                      01566 ;; ***  genCall  2073
                      01567 ;;; /home/sdcc-builder/build/sdcc-build/orig/sdcc/src/pic14/gen.c:1786:saveRegisters *{*
                      01568 ;; ***  saveRegisters  1788
                      01569 ;; ***  aopForSym 316
                      01570 ;;      328 sym->rname = _F2, size = 4
                      01571 ;;      695 register type nRegs=4
                      01572 ;; ***  aopForSym 316
                      01573 ;;      328 sym->rname = _F2, size = 4
                      01574 ;;      2120 left AOP_DIR
                      01575 ;;; /home/sdcc-builder/build/sdcc-build/orig/sdcc/src/pic14/gen.c:1328:mov2w_op *{*
                      01576 ;; ***  mov2w  1366  offset=0
                      01577 ;; >>> /home/sdcc-builder/build/sdcc-build/orig/sdcc/src/pic14/gen.c:1371:mov2w
                      01578 ;;      998
gpasm-1.5.2 #0 (Sep 16 2019) build/default/pr   9-16-2019  10:40:44         PAGE 31


LOC    OBJECT CODE    LINE  SOURCE TEXT
  VALUE

                      01579 ;;      1016  _F2   offset=0
0121   0??? 0???      01580         BANKSEL _F2     ;id=6128,key=009,inCond:0,outCond:0,flow seq=00e
0123   08??           01581         MOVF    _F2,W   ;id=4165,key=00a,inCond:1,outCond:14,flow seq=00e
                      01582 ;;      2120 left AOP_DIR
                      01583 ;; >>> /home/sdcc-builder/build/sdcc-build/orig/sdcc/src/pic14/gen.c:2128:genCall
                      01584 ;; ***  popRegFromIdx,1030  , rIdx=0x79
                      01585 ;; BANKOPT1 BANKSEL dropped; STK06 present in all of _F2's banks
0124   00??           01586         MOVWF   STK06   ;id=4169,key=00b,inCond:10,outCond:1,flow seq=00e
                      01587 ;;; /home/sdcc-builder/build/sdcc-build/orig/sdcc/src/pic14/gen.c:1328:mov2w_op *{*
                      01588 ;; ***  mov2w  1366  offset=1
                      01589 ;; >>> /home/sdcc-builder/build/sdcc-build/orig/sdcc/src/pic14/gen.c:1371:mov2w
                      01590 ;;      998
                      01591 ;;      1016  _F2   offset=1
                      01592 ;; BANKOPT2 BANKSEL dropped; _F2 present in same bank as _F2
0125   08??           01593         MOVF    (_F2 + 1),W     ;id=4175,key=00c,inCond:1,outCond:14,flow seq=00e
                      01594 ;;      2120 left AOP_DIR
                      01595 ;; >>> /home/sdcc-builder/build/sdcc-build/orig/sdcc/src/pic14/gen.c:2128:genCall
                      01596 ;; ***  popRegFromIdx,1030  , rIdx=0x7a
                      01597 ;; BANKOPT1 BANKSEL dropped; STK05 present in all of _F2's banks
0126   00??           01598         MOVWF   STK05   ;id=4179,key=00d,inCond:10,outCond:1,flow seq=00e
                      01599 ;;; /home/sdcc-builder/build/sdcc-build/orig/sdcc/src/pic14/gen.c:1328:mov2w_op *{*
                      01600 ;; ***  mov2w  1366  offset=2
                      01601 ;; >>> /home/sdcc-builder/build/sdcc-build/orig/sdcc/src/pic14/gen.c:1371:mov2w
                      01602 ;;      998
                      01603 ;;      1016  _F2   offset=2
                      01604 ;; BANKOPT2 BANKSEL dropped; _F2 present in same bank as _F2
0127   08??           01605         MOVF    (_F2 + 2),W     ;id=4185,key=00e,inCond:1,outCond:14,flow seq=00e
                      01606 ;;      2120 left AOP_DIR
                      01607 ;; >>> /home/sdcc-builder/build/sdcc-build/orig/sdcc/src/pic14/gen.c:2128:genCall
                      01608 ;; ***  popRegFromIdx,1030  , rIdx=0x7b
                      01609 ;; BANKOPT1 BANKSEL dropped; STK04 present in all of _F2's banks
0128   00??           01610         MOVWF   STK04   ;id=4189,key=00f,inCond:10,outCond:1,flow seq=00e
                      01611 ;;; /home/sdcc-builder/build/sdcc-build/orig/sdcc/src/pic14/gen.c:1328:mov2w_op *{*
                      01612 ;; ***  mov2w  1366  offset=3
                      01613 ;; >>> /home/sdcc-builder/build/sdcc-build/orig/sdcc/src/pic14/gen.c:1371:mov2w
                      01614 ;;      998
                      01615 ;;      1016  _F2   offset=3
                      01616 ;; BANKOPT2 BANKSEL dropped; _F2 present in same bank as _F2
0129   08??           01617         MOVF    (_F2 + 3),W     ;id=4195,key=010,inCond:1,outCond:14,flow seq=00e
                      01618 ;;      695 register type nRegs=4
                      01619 ;;      2120 left AOP_REG
                      01620 ;; >>> /home/sdcc-builder/build/sdcc-build/orig/sdcc/src/pic14/gen.c:2128:genCall
                      01621 ;; ***  popRegFromIdx,1030  , rIdx=0x7c
                      01622 ;; BANKOPT1 BANKSEL dropped; STK03 present in all of _F2's banks
012A   00??           01623         MOVWF   STK03   ;id=4200,key=011,inCond:10,outCond:1,flow seq=00e
                      01624 ;;; /home/sdcc-builder/build/sdcc-build/orig/sdcc/src/pic14/gen.c:1328:mov2w_op *{*
                      01625 ;; ***  mov2w  1366  offset=0
                      01626 ;; >>> /home/sdcc-builder/build/sdcc-build/orig/sdcc/src/pic14/gen.c:1371:mov2w
                      01627 ;;      1097 rIdx = r0x105F 
012B   0??? 0???      01628         BANKSEL r0x101B ;id=6136,key=012,inCond:0,outCond:0,flow seq=00e
012D   08??           01629         MOVF    r0x101B,W       ;id=4205,key=013,inCond:1,outCond:14,flow seq=00e,rIdx=r0x105F
                      01630 ;;      2120 left AOP_REG
                      01631 ;; >>> /home/sdcc-builder/build/sdcc-build/orig/sdcc/src/pic14/gen.c:2128:genCall
gpasm-1.5.2 #0 (Sep 16 2019) build/default/pr   9-16-2019  10:40:44         PAGE 32


LOC    OBJECT CODE    LINE  SOURCE TEXT
  VALUE

                      01632 ;; ***  popRegFromIdx,1030  , rIdx=0x7d
                      01633 ;; BANKOPT1 BANKSEL dropped; STK02 present in all of r0x101B's banks
012E   00??           01634         MOVWF   STK02   ;id=4209,key=014,inCond:10,outCond:1,flow seq=00e
                      01635 ;;; /home/sdcc-builder/build/sdcc-build/orig/sdcc/src/pic14/gen.c:1328:mov2w_op *{*
                      01636 ;; ***  mov2w  1366  offset=1
                      01637 ;; >>> /home/sdcc-builder/build/sdcc-build/orig/sdcc/src/pic14/gen.c:1371:mov2w
                      01638 ;;      1097 rIdx = r0x1060 
                      01639 ;; BANKOPT2 BANKSEL dropped; r0x101A present in same bank as r0x101B
012F   08??           01640         MOVF    r0x101A,W       ;id=4214,key=015,inCond:1,outCond:14,flow seq=00e,rIdx=r0x1060
                      01641 ;;      2120 left AOP_REG
                      01642 ;; >>> /home/sdcc-builder/build/sdcc-build/orig/sdcc/src/pic14/gen.c:2128:genCall
                      01643 ;; ***  popRegFromIdx,1030  , rIdx=0x7e
                      01644 ;; BANKOPT1 BANKSEL dropped; STK01 present in all of r0x101B's banks
0130   00??           01645         MOVWF   STK01   ;id=4218,key=016,inCond:10,outCond:1,flow seq=00e
                      01646 ;;; /home/sdcc-builder/build/sdcc-build/orig/sdcc/src/pic14/gen.c:1328:mov2w_op *{*
                      01647 ;; ***  mov2w  1366  offset=2
                      01648 ;; >>> /home/sdcc-builder/build/sdcc-build/orig/sdcc/src/pic14/gen.c:1371:mov2w
                      01649 ;;      1097 rIdx = r0x1061 
                      01650 ;; BANKOPT2 BANKSEL dropped; r0x1019 present in same bank as r0x101B
0131   08??           01651         MOVF    r0x1019,W       ;id=4223,key=017,inCond:1,outCond:14,flow seq=00e,rIdx=r0x1061
                      01652 ;;      2120 left AOP_REG
                      01653 ;; >>> /home/sdcc-builder/build/sdcc-build/orig/sdcc/src/pic14/gen.c:2128:genCall
                      01654 ;; ***  popRegFromIdx,1030  , rIdx=0x7f
                      01655 ;; BANKOPT1 BANKSEL dropped; STK00 present in all of r0x101B's banks
0132   00??           01656         MOVWF   STK00   ;id=4227,key=018,inCond:10,outCond:1,flow seq=00e
                      01657 ;;; /home/sdcc-builder/build/sdcc-build/orig/sdcc/src/pic14/gen.c:1328:mov2w_op *{*
                      01658 ;; ***  mov2w  1366  offset=3
                      01659 ;; >>> /home/sdcc-builder/build/sdcc-build/orig/sdcc/src/pic14/gen.c:1371:mov2w
                      01660 ;;      1097 rIdx = r0x1062 
                      01661 ;; BANKOPT2 BANKSEL dropped; r0x1018 present in same bank as r0x101B
0133   08??           01662         MOVF    r0x1018,W       ;id=4232,key=019,inCond:1,outCond:14,flow seq=00e,rIdx=r0x1062
                      01663 ;; >>> /home/sdcc-builder/build/sdcc-build/orig/sdcc/src/pic14/gen.c:2160:genCall
0134   0??? 0???      01664         PAGESEL ___fsmul        ;id=4234,key=01a,inCond:0,outCond:0,flow seq=00e
                      01665 ;; >>> /home/sdcc-builder/build/sdcc-build/orig/sdcc/src/pic14/gen.c:2165:genCall
                      01666 ;; BANKOPT3 drop assumptions: PCI with label or call found
0136   2???           01667         CALL    ___fsmul        ;id=4236,key=01b,inCond:10,outCond:1e,flow seq=00e
                      01668 ;<>Start of new flow, seq=0xf ancestor = 0xe
                      01669 ;  from: 00e ; to: 010 
                      01670 ;; >>> /home/sdcc-builder/build/sdcc-build/orig/sdcc/src/pic14/gen.c:2173:genCall
0137   0??? 0???      01671         PAGESEL $       ;id=4238,key=000,inCond:0,outCond:0,flow seq=00f
                      01672 ;;      695 register type nRegs=4
                      01673 ;;; /home/sdcc-builder/build/sdcc-build/orig/sdcc/src/pic14/gen.c:1892:assignResultValue *{*
                      01674 ;; ***  assignResultValue  1894
                      01675 ;;      line = 1896 result -=-, size=0, left AOP_REG=r0x105F, size=4, right -=-, size=0
                      01676 ;; >>> /home/sdcc-builder/build/sdcc-build/orig/sdcc/src/pic14/gen.c:1378:movwf
                      01677 ;;      1097 rIdx = r0x1062 
0139   0??? 0???      01678         BANKSEL r0x1018 ;id=6144,key=001,inCond:0,outCond:0,flow seq=00f
013B   00??           01679         MOVWF   r0x1018 ;id=4245,key=002,inCond:10,outCond:1,flow seq=00f,rIdx=r0x1062
                      01680 ;; >>> /home/sdcc-builder/build/sdcc-build/orig/sdcc/src/pic14/gen.c:1408:get_returnvalue
                      01681 ;; ***  popRegFromIdx,1030  , rIdx=0x7f
                      01682 ;; BANKOPT1 BANKSEL dropped; STK00 present in all of r0x1018's banks
013C   08??           01683         MOVF    STK00,W ;id=4248,key=003,inCond:1,outCond:14,flow seq=00f
                      01684 ;; >>> /home/sdcc-builder/build/sdcc-build/orig/sdcc/src/pic14/gen.c:1378:movwf
gpasm-1.5.2 #0 (Sep 16 2019) build/default/pr   9-16-2019  10:40:44         PAGE 33


LOC    OBJECT CODE    LINE  SOURCE TEXT
  VALUE

                      01685 ;;      1097 rIdx = r0x1061 
                      01686 ;; BANKOPT2 BANKSEL dropped; r0x1019 present in same bank as r0x1018
013D   00??           01687         MOVWF   r0x1019 ;id=4251,key=004,inCond:10,outCond:1,flow seq=00f,rIdx=r0x1061
                      01688 ;; >>> /home/sdcc-builder/build/sdcc-build/orig/sdcc/src/pic14/gen.c:1408:get_returnvalue
                      01689 ;; ***  popRegFromIdx,1030  , rIdx=0x7e
                      01690 ;; BANKOPT1 BANKSEL dropped; STK01 present in all of r0x1018's banks
013E   08??           01691         MOVF    STK01,W ;id=4254,key=005,inCond:1,outCond:14,flow seq=00f
                      01692 ;; >>> /home/sdcc-builder/build/sdcc-build/orig/sdcc/src/pic14/gen.c:1378:movwf
                      01693 ;;      1097 rIdx = r0x1060 
                      01694 ;; BANKOPT2 BANKSEL dropped; r0x101A present in same bank as r0x1018
013F   00??           01695         MOVWF   r0x101A ;id=4257,key=006,inCond:10,outCond:1,flow seq=00f,rIdx=r0x1060
                      01696 ;; >>> /home/sdcc-builder/build/sdcc-build/orig/sdcc/src/pic14/gen.c:1408:get_returnvalue
                      01697 ;; ***  popRegFromIdx,1030  , rIdx=0x7d
                      01698 ;; BANKOPT1 BANKSEL dropped; STK02 present in all of r0x1018's banks
0140   08??           01699         MOVF    STK02,W ;id=4260,key=007,inCond:1,outCond:14,flow seq=00f
                      01700 ;; >>> /home/sdcc-builder/build/sdcc-build/orig/sdcc/src/pic14/gen.c:1378:movwf
                      01701 ;;      1097 rIdx = r0x105F 
                      01702 ;; BANKOPT2 BANKSEL dropped; r0x101B present in same bank as r0x1018
0141   00??           01703         MOVWF   r0x101B ;id=4263,key=008,inCond:10,outCond:1,flow seq=00f,rIdx=r0x105F
                      01704 ;;      2188 left AOP_REG
                      01705 ;;; /home/sdcc-builder/build/sdcc-build/orig/sdcc/src/pic14/gen.c:1830:unsaveRegisters *{*
                      01706 ;; ***  unsaveRegisters  1832
                      01707 ;;; /home/sdcc-builder/build/sdcc-build/orig/sdcc/src/pic14/gen.c:2308:resultRemat *{*
                      01708 ;;; /home/sdcc-builder/build/sdcc-build/orig/sdcc/src/pic14/gen.c:2308:resultRemat *{*
                      01709 ;;; /home/sdcc-builder/build/sdcc-build/orig/sdcc/src/pic14/gen.c:2308:resultRemat *{*
                      01710 ;;; /home/sdcc-builder/build/sdcc-build/orig/sdcc/src/pic14/gen.c:2071:genCall *{*
                      01711 ;; ***  genCall  2073
                      01712 ;;; /home/sdcc-builder/build/sdcc-build/orig/sdcc/src/pic14/gen.c:1786:saveRegisters *{*
                      01713 ;; ***  saveRegisters  1788
                      01714 ;; ***  aopForSym 316
                      01715 ;;      328 sym->rname = _F2, size = 4
                      01716 ;;      695 register type nRegs=4
                      01717 ;; ***  aopForSym 316
                      01718 ;;      328 sym->rname = _F2, size = 4
                      01719 ;;      2120 left AOP_DIR
                      01720 ;;; /home/sdcc-builder/build/sdcc-build/orig/sdcc/src/pic14/gen.c:1328:mov2w_op *{*
                      01721 ;; ***  mov2w  1366  offset=0
                      01722 ;; >>> /home/sdcc-builder/build/sdcc-build/orig/sdcc/src/pic14/gen.c:1371:mov2w
                      01723 ;;      998
                      01724 ;;      1016  _F2   offset=0
0142   0??? 0???      01725         BANKSEL _F2     ;id=6151,key=009,inCond:0,outCond:0,flow seq=00f
0144   08??           01726         MOVF    _F2,W   ;id=4285,key=00a,inCond:1,outCond:14,flow seq=00f
                      01727 ;;      2120 left AOP_DIR
                      01728 ;; >>> /home/sdcc-builder/build/sdcc-build/orig/sdcc/src/pic14/gen.c:2128:genCall
                      01729 ;; ***  popRegFromIdx,1030  , rIdx=0x79
                      01730 ;; BANKOPT1 BANKSEL dropped; STK06 present in all of _F2's banks
0145   00??           01731         MOVWF   STK06   ;id=4289,key=00b,inCond:10,outCond:1,flow seq=00f
                      01732 ;;; /home/sdcc-builder/build/sdcc-build/orig/sdcc/src/pic14/gen.c:1328:mov2w_op *{*
                      01733 ;; ***  mov2w  1366  offset=1
                      01734 ;; >>> /home/sdcc-builder/build/sdcc-build/orig/sdcc/src/pic14/gen.c:1371:mov2w
                      01735 ;;      998
                      01736 ;;      1016  _F2   offset=1
                      01737 ;; BANKOPT2 BANKSEL dropped; _F2 present in same bank as _F2
gpasm-1.5.2 #0 (Sep 16 2019) build/default/pr   9-16-2019  10:40:44         PAGE 34


LOC    OBJECT CODE    LINE  SOURCE TEXT
  VALUE

0146   08??           01738         MOVF    (_F2 + 1),W     ;id=4295,key=00c,inCond:1,outCond:14,flow seq=00f
                      01739 ;;      2120 left AOP_DIR
                      01740 ;; >>> /home/sdcc-builder/build/sdcc-build/orig/sdcc/src/pic14/gen.c:2128:genCall
                      01741 ;; ***  popRegFromIdx,1030  , rIdx=0x7a
                      01742 ;; BANKOPT1 BANKSEL dropped; STK05 present in all of _F2's banks
0147   00??           01743         MOVWF   STK05   ;id=4299,key=00d,inCond:10,outCond:1,flow seq=00f
                      01744 ;;; /home/sdcc-builder/build/sdcc-build/orig/sdcc/src/pic14/gen.c:1328:mov2w_op *{*
                      01745 ;; ***  mov2w  1366  offset=2
                      01746 ;; >>> /home/sdcc-builder/build/sdcc-build/orig/sdcc/src/pic14/gen.c:1371:mov2w
                      01747 ;;      998
                      01748 ;;      1016  _F2   offset=2
                      01749 ;; BANKOPT2 BANKSEL dropped; _F2 present in same bank as _F2
0148   08??           01750         MOVF    (_F2 + 2),W     ;id=4305,key=00e,inCond:1,outCond:14,flow seq=00f
                      01751 ;;      2120 left AOP_DIR
                      01752 ;; >>> /home/sdcc-builder/build/sdcc-build/orig/sdcc/src/pic14/gen.c:2128:genCall
                      01753 ;; ***  popRegFromIdx,1030  , rIdx=0x7b
                      01754 ;; BANKOPT1 BANKSEL dropped; STK04 present in all of _F2's banks
0149   00??           01755         MOVWF   STK04   ;id=4309,key=00f,inCond:10,outCond:1,flow seq=00f
                      01756 ;;; /home/sdcc-builder/build/sdcc-build/orig/sdcc/src/pic14/gen.c:1328:mov2w_op *{*
                      01757 ;; ***  mov2w  1366  offset=3
                      01758 ;; >>> /home/sdcc-builder/build/sdcc-build/orig/sdcc/src/pic14/gen.c:1371:mov2w
                      01759 ;;      998
                      01760 ;;      1016  _F2   offset=3
                      01761 ;; BANKOPT2 BANKSEL dropped; _F2 present in same bank as _F2
014A   08??           01762         MOVF    (_F2 + 3),W     ;id=4315,key=010,inCond:1,outCond:14,flow seq=00f
                      01763 ;;      695 register type nRegs=4
                      01764 ;;      2120 left AOP_REG
                      01765 ;; >>> /home/sdcc-builder/build/sdcc-build/orig/sdcc/src/pic14/gen.c:2128:genCall
                      01766 ;; ***  popRegFromIdx,1030  , rIdx=0x7c
                      01767 ;; BANKOPT1 BANKSEL dropped; STK03 present in all of _F2's banks
014B   00??           01768         MOVWF   STK03   ;id=4320,key=011,inCond:10,outCond:1,flow seq=00f
                      01769 ;;; /home/sdcc-builder/build/sdcc-build/orig/sdcc/src/pic14/gen.c:1328:mov2w_op *{*
                      01770 ;; ***  mov2w  1366  offset=0
                      01771 ;; >>> /home/sdcc-builder/build/sdcc-build/orig/sdcc/src/pic14/gen.c:1371:mov2w
                      01772 ;;      1097 rIdx = r0x105F 
014C   0??? 0???      01773         BANKSEL r0x101B ;id=6159,key=012,inCond:0,outCond:0,flow seq=00f
014E   08??           01774         MOVF    r0x101B,W       ;id=4325,key=013,inCond:1,outCond:14,flow seq=00f,rIdx=r0x105F
                      01775 ;;      2120 left AOP_REG
                      01776 ;; >>> /home/sdcc-builder/build/sdcc-build/orig/sdcc/src/pic14/gen.c:2128:genCall
                      01777 ;; ***  popRegFromIdx,1030  , rIdx=0x7d
                      01778 ;; BANKOPT1 BANKSEL dropped; STK02 present in all of r0x101B's banks
014F   00??           01779         MOVWF   STK02   ;id=4329,key=014,inCond:10,outCond:1,flow seq=00f
                      01780 ;;; /home/sdcc-builder/build/sdcc-build/orig/sdcc/src/pic14/gen.c:1328:mov2w_op *{*
                      01781 ;; ***  mov2w  1366  offset=1
                      01782 ;; >>> /home/sdcc-builder/build/sdcc-build/orig/sdcc/src/pic14/gen.c:1371:mov2w
                      01783 ;;      1097 rIdx = r0x1060 
                      01784 ;; BANKOPT2 BANKSEL dropped; r0x101A present in same bank as r0x101B
0150   08??           01785         MOVF    r0x101A,W       ;id=4334,key=015,inCond:1,outCond:14,flow seq=00f,rIdx=r0x1060
                      01786 ;;      2120 left AOP_REG
                      01787 ;; >>> /home/sdcc-builder/build/sdcc-build/orig/sdcc/src/pic14/gen.c:2128:genCall
                      01788 ;; ***  popRegFromIdx,1030  , rIdx=0x7e
                      01789 ;; BANKOPT1 BANKSEL dropped; STK01 present in all of r0x101B's banks
0151   00??           01790         MOVWF   STK01   ;id=4338,key=016,inCond:10,outCond:1,flow seq=00f
gpasm-1.5.2 #0 (Sep 16 2019) build/default/pr   9-16-2019  10:40:44         PAGE 35


LOC    OBJECT CODE    LINE  SOURCE TEXT
  VALUE

                      01791 ;;; /home/sdcc-builder/build/sdcc-build/orig/sdcc/src/pic14/gen.c:1328:mov2w_op *{*
                      01792 ;; ***  mov2w  1366  offset=2
                      01793 ;; >>> /home/sdcc-builder/build/sdcc-build/orig/sdcc/src/pic14/gen.c:1371:mov2w
                      01794 ;;      1097 rIdx = r0x1061 
                      01795 ;; BANKOPT2 BANKSEL dropped; r0x1019 present in same bank as r0x101B
0152   08??           01796         MOVF    r0x1019,W       ;id=4343,key=017,inCond:1,outCond:14,flow seq=00f,rIdx=r0x1061
                      01797 ;;      2120 left AOP_REG
                      01798 ;; >>> /home/sdcc-builder/build/sdcc-build/orig/sdcc/src/pic14/gen.c:2128:genCall
                      01799 ;; ***  popRegFromIdx,1030  , rIdx=0x7f
                      01800 ;; BANKOPT1 BANKSEL dropped; STK00 present in all of r0x101B's banks
0153   00??           01801         MOVWF   STK00   ;id=4347,key=018,inCond:10,outCond:1,flow seq=00f
                      01802 ;;; /home/sdcc-builder/build/sdcc-build/orig/sdcc/src/pic14/gen.c:1328:mov2w_op *{*
                      01803 ;; ***  mov2w  1366  offset=3
                      01804 ;; >>> /home/sdcc-builder/build/sdcc-build/orig/sdcc/src/pic14/gen.c:1371:mov2w
                      01805 ;;      1097 rIdx = r0x1062 
                      01806 ;; BANKOPT2 BANKSEL dropped; r0x1018 present in same bank as r0x101B
0154   08??           01807         MOVF    r0x1018,W       ;id=4352,key=019,inCond:1,outCond:14,flow seq=00f,rIdx=r0x1062
                      01808 ;; >>> /home/sdcc-builder/build/sdcc-build/orig/sdcc/src/pic14/gen.c:2160:genCall
0155   0??? 0???      01809         PAGESEL ___fsmul        ;id=4354,key=01a,inCond:0,outCond:0,flow seq=00f
                      01810 ;; >>> /home/sdcc-builder/build/sdcc-build/orig/sdcc/src/pic14/gen.c:2165:genCall
                      01811 ;; BANKOPT3 drop assumptions: PCI with label or call found
0157   2???           01812         CALL    ___fsmul        ;id=4356,key=01b,inCond:10,outCond:1e,flow seq=00f
                      01813 ;<>Start of new flow, seq=0x10 ancestor = 0xf
                      01814 ;  from: 00f ; to: 011 
                      01815 ;; >>> /home/sdcc-builder/build/sdcc-build/orig/sdcc/src/pic14/gen.c:2173:genCall
0158   0??? 0???      01816         PAGESEL $       ;id=4358,key=000,inCond:0,outCond:0,flow seq=010
                      01817 ;;      695 register type nRegs=4
                      01818 ;;; /home/sdcc-builder/build/sdcc-build/orig/sdcc/src/pic14/gen.c:1892:assignResultValue *{*
                      01819 ;; ***  assignResultValue  1894
                      01820 ;;      line = 1896 result -=-, size=0, left AOP_REG=r0x105F, size=4, right -=-, size=0
                      01821 ;; >>> /home/sdcc-builder/build/sdcc-build/orig/sdcc/src/pic14/gen.c:1378:movwf
                      01822 ;;      1097 rIdx = r0x1062 
015A   0??? 0???      01823         BANKSEL r0x1018 ;id=6167,key=001,inCond:0,outCond:0,flow seq=010
015C   00??           01824         MOVWF   r0x1018 ;id=4365,key=002,inCond:10,outCond:1,flow seq=010,rIdx=r0x1062
                      01825 ;; >>> /home/sdcc-builder/build/sdcc-build/orig/sdcc/src/pic14/gen.c:1408:get_returnvalue
                      01826 ;; ***  popRegFromIdx,1030  , rIdx=0x7f
                      01827 ;; BANKOPT1 BANKSEL dropped; STK00 present in all of r0x1018's banks
015D   08??           01828         MOVF    STK00,W ;id=4368,key=003,inCond:1,outCond:14,flow seq=010
                      01829 ;; >>> /home/sdcc-builder/build/sdcc-build/orig/sdcc/src/pic14/gen.c:1378:movwf
                      01830 ;;      1097 rIdx = r0x1061 
                      01831 ;; BANKOPT2 BANKSEL dropped; r0x1019 present in same bank as r0x1018
015E   00??           01832         MOVWF   r0x1019 ;id=4371,key=004,inCond:10,outCond:1,flow seq=010,rIdx=r0x1061
                      01833 ;; >>> /home/sdcc-builder/build/sdcc-build/orig/sdcc/src/pic14/gen.c:1408:get_returnvalue
                      01834 ;; ***  popRegFromIdx,1030  , rIdx=0x7e
                      01835 ;; BANKOPT1 BANKSEL dropped; STK01 present in all of r0x1018's banks
015F   08??           01836         MOVF    STK01,W ;id=4374,key=005,inCond:1,outCond:14,flow seq=010
                      01837 ;; >>> /home/sdcc-builder/build/sdcc-build/orig/sdcc/src/pic14/gen.c:1378:movwf
                      01838 ;;      1097 rIdx = r0x1060 
                      01839 ;; BANKOPT2 BANKSEL dropped; r0x101A present in same bank as r0x1018
0160   00??           01840         MOVWF   r0x101A ;id=4377,key=006,inCond:10,outCond:1,flow seq=010,rIdx=r0x1060
                      01841 ;; >>> /home/sdcc-builder/build/sdcc-build/orig/sdcc/src/pic14/gen.c:1408:get_returnvalue
                      01842 ;; ***  popRegFromIdx,1030  , rIdx=0x7d
                      01843 ;; BANKOPT1 BANKSEL dropped; STK02 present in all of r0x1018's banks
gpasm-1.5.2 #0 (Sep 16 2019) build/default/pr   9-16-2019  10:40:44         PAGE 36


LOC    OBJECT CODE    LINE  SOURCE TEXT
  VALUE

0161   08??           01844         MOVF    STK02,W ;id=4380,key=007,inCond:1,outCond:14,flow seq=010
                      01845 ;; >>> /home/sdcc-builder/build/sdcc-build/orig/sdcc/src/pic14/gen.c:1378:movwf
                      01846 ;;      1097 rIdx = r0x105F 
                      01847 ;; BANKOPT2 BANKSEL dropped; r0x101B present in same bank as r0x1018
0162   00??           01848         MOVWF   r0x101B ;id=4383,key=008,inCond:10,outCond:1,flow seq=010,rIdx=r0x105F
                      01849 ;;      2188 left AOP_REG
                      01850 ;;; /home/sdcc-builder/build/sdcc-build/orig/sdcc/src/pic14/gen.c:1830:unsaveRegisters *{*
                      01851 ;; ***  unsaveRegisters  1832
                      01852 ;;; /home/sdcc-builder/build/sdcc-build/orig/sdcc/src/pic14/gen.c:2308:resultRemat *{*
                      01853 ;;; /home/sdcc-builder/build/sdcc-build/orig/sdcc/src/pic14/gen.c:2308:resultRemat *{*
                      01854 ;;; /home/sdcc-builder/build/sdcc-build/orig/sdcc/src/pic14/gen.c:2308:resultRemat *{*
                      01855 ;;; /home/sdcc-builder/build/sdcc-build/orig/sdcc/src/pic14/gen.c:2071:genCall *{*
                      01856 ;; ***  genCall  2073
                      01857 ;;; /home/sdcc-builder/build/sdcc-build/orig/sdcc/src/pic14/gen.c:1786:saveRegisters *{*
                      01858 ;; ***  saveRegisters  1788
                      01859 ;; ***  aopForSym 316
                      01860 ;;      328 sym->rname = _F3, size = 4
                      01861 ;;      695 register type nRegs=4
                      01862 ;; ***  aopForSym 316
                      01863 ;;      328 sym->rname = _F3, size = 4
                      01864 ;;      2120 left AOP_DIR
                      01865 ;;; /home/sdcc-builder/build/sdcc-build/orig/sdcc/src/pic14/gen.c:1328:mov2w_op *{*
                      01866 ;; ***  mov2w  1366  offset=0
                      01867 ;; >>> /home/sdcc-builder/build/sdcc-build/orig/sdcc/src/pic14/gen.c:1371:mov2w
                      01868 ;;      998
                      01869 ;;      1016  _F3   offset=0
0163   0??? 0???      01870         BANKSEL _F3     ;id=6174,key=009,inCond:0,outCond:0,flow seq=010
0165   08??           01871         MOVF    _F3,W   ;id=4405,key=00a,inCond:1,outCond:14,flow seq=010
                      01872 ;;      2120 left AOP_DIR
                      01873 ;; >>> /home/sdcc-builder/build/sdcc-build/orig/sdcc/src/pic14/gen.c:2128:genCall
                      01874 ;; ***  popRegFromIdx,1030  , rIdx=0x79
                      01875 ;; BANKOPT1 BANKSEL dropped; STK06 present in all of _F3's banks
0166   00??           01876         MOVWF   STK06   ;id=4409,key=00b,inCond:10,outCond:1,flow seq=010
                      01877 ;;; /home/sdcc-builder/build/sdcc-build/orig/sdcc/src/pic14/gen.c:1328:mov2w_op *{*
                      01878 ;; ***  mov2w  1366  offset=1
                      01879 ;; >>> /home/sdcc-builder/build/sdcc-build/orig/sdcc/src/pic14/gen.c:1371:mov2w
                      01880 ;;      998
                      01881 ;;      1016  _F3   offset=1
                      01882 ;; BANKOPT2 BANKSEL dropped; _F3 present in same bank as _F3
0167   08??           01883         MOVF    (_F3 + 1),W     ;id=4415,key=00c,inCond:1,outCond:14,flow seq=010
                      01884 ;;      2120 left AOP_DIR
                      01885 ;; >>> /home/sdcc-builder/build/sdcc-build/orig/sdcc/src/pic14/gen.c:2128:genCall
                      01886 ;; ***  popRegFromIdx,1030  , rIdx=0x7a
                      01887 ;; BANKOPT1 BANKSEL dropped; STK05 present in all of _F3's banks
0168   00??           01888         MOVWF   STK05   ;id=4419,key=00d,inCond:10,outCond:1,flow seq=010
                      01889 ;;; /home/sdcc-builder/build/sdcc-build/orig/sdcc/src/pic14/gen.c:1328:mov2w_op *{*
                      01890 ;; ***  mov2w  1366  offset=2
                      01891 ;; >>> /home/sdcc-builder/build/sdcc-build/orig/sdcc/src/pic14/gen.c:1371:mov2w
                      01892 ;;      998
                      01893 ;;      1016  _F3   offset=2
                      01894 ;; BANKOPT2 BANKSEL dropped; _F3 present in same bank as _F3
0169   08??           01895         MOVF    (_F3 + 2),W     ;id=4425,key=00e,inCond:1,outCond:14,flow seq=010
                      01896 ;;      2120 left AOP_DIR
gpasm-1.5.2 #0 (Sep 16 2019) build/default/pr   9-16-2019  10:40:44         PAGE 37


LOC    OBJECT CODE    LINE  SOURCE TEXT
  VALUE

                      01897 ;; >>> /home/sdcc-builder/build/sdcc-build/orig/sdcc/src/pic14/gen.c:2128:genCall
                      01898 ;; ***  popRegFromIdx,1030  , rIdx=0x7b
                      01899 ;; BANKOPT1 BANKSEL dropped; STK04 present in all of _F3's banks
016A   00??           01900         MOVWF   STK04   ;id=4429,key=00f,inCond:10,outCond:1,flow seq=010
                      01901 ;;; /home/sdcc-builder/build/sdcc-build/orig/sdcc/src/pic14/gen.c:1328:mov2w_op *{*
                      01902 ;; ***  mov2w  1366  offset=3
                      01903 ;; >>> /home/sdcc-builder/build/sdcc-build/orig/sdcc/src/pic14/gen.c:1371:mov2w
                      01904 ;;      998
                      01905 ;;      1016  _F3   offset=3
                      01906 ;; BANKOPT2 BANKSEL dropped; _F3 present in same bank as _F3
016B   08??           01907         MOVF    (_F3 + 3),W     ;id=4435,key=010,inCond:1,outCond:14,flow seq=010
                      01908 ;;      695 register type nRegs=4
                      01909 ;;      2120 left AOP_REG
                      01910 ;; >>> /home/sdcc-builder/build/sdcc-build/orig/sdcc/src/pic14/gen.c:2128:genCall
                      01911 ;; ***  popRegFromIdx,1030  , rIdx=0x7c
                      01912 ;; BANKOPT1 BANKSEL dropped; STK03 present in all of _F3's banks
016C   00??           01913         MOVWF   STK03   ;id=4440,key=011,inCond:10,outCond:1,flow seq=010
                      01914 ;;; /home/sdcc-builder/build/sdcc-build/orig/sdcc/src/pic14/gen.c:1328:mov2w_op *{*
                      01915 ;; ***  mov2w  1366  offset=0
                      01916 ;; >>> /home/sdcc-builder/build/sdcc-build/orig/sdcc/src/pic14/gen.c:1371:mov2w
                      01917 ;;      1097 rIdx = r0x105F 
016D   0??? 0???      01918         BANKSEL r0x101B ;id=6182,key=012,inCond:0,outCond:0,flow seq=010
016F   08??           01919         MOVF    r0x101B,W       ;id=4445,key=013,inCond:1,outCond:14,flow seq=010,rIdx=r0x105F
                      01920 ;;      2120 left AOP_REG
                      01921 ;; >>> /home/sdcc-builder/build/sdcc-build/orig/sdcc/src/pic14/gen.c:2128:genCall
                      01922 ;; ***  popRegFromIdx,1030  , rIdx=0x7d
                      01923 ;; BANKOPT1 BANKSEL dropped; STK02 present in all of r0x101B's banks
0170   00??           01924         MOVWF   STK02   ;id=4449,key=014,inCond:10,outCond:1,flow seq=010
                      01925 ;;; /home/sdcc-builder/build/sdcc-build/orig/sdcc/src/pic14/gen.c:1328:mov2w_op *{*
                      01926 ;; ***  mov2w  1366  offset=1
                      01927 ;; >>> /home/sdcc-builder/build/sdcc-build/orig/sdcc/src/pic14/gen.c:1371:mov2w
                      01928 ;;      1097 rIdx = r0x1060 
                      01929 ;; BANKOPT2 BANKSEL dropped; r0x101A present in same bank as r0x101B
0171   08??           01930         MOVF    r0x101A,W       ;id=4454,key=015,inCond:1,outCond:14,flow seq=010,rIdx=r0x1060
                      01931 ;;      2120 left AOP_REG
                      01932 ;; >>> /home/sdcc-builder/build/sdcc-build/orig/sdcc/src/pic14/gen.c:2128:genCall
                      01933 ;; ***  popRegFromIdx,1030  , rIdx=0x7e
                      01934 ;; BANKOPT1 BANKSEL dropped; STK01 present in all of r0x101B's banks
0172   00??           01935         MOVWF   STK01   ;id=4458,key=016,inCond:10,outCond:1,flow seq=010
                      01936 ;;; /home/sdcc-builder/build/sdcc-build/orig/sdcc/src/pic14/gen.c:1328:mov2w_op *{*
                      01937 ;; ***  mov2w  1366  offset=2
                      01938 ;; >>> /home/sdcc-builder/build/sdcc-build/orig/sdcc/src/pic14/gen.c:1371:mov2w
                      01939 ;;      1097 rIdx = r0x1061 
                      01940 ;; BANKOPT2 BANKSEL dropped; r0x1019 present in same bank as r0x101B
0173   08??           01941         MOVF    r0x1019,W       ;id=4463,key=017,inCond:1,outCond:14,flow seq=010,rIdx=r0x1061
                      01942 ;;      2120 left AOP_REG
                      01943 ;; >>> /home/sdcc-builder/build/sdcc-build/orig/sdcc/src/pic14/gen.c:2128:genCall
                      01944 ;; ***  popRegFromIdx,1030  , rIdx=0x7f
                      01945 ;; BANKOPT1 BANKSEL dropped; STK00 present in all of r0x101B's banks
0174   00??           01946         MOVWF   STK00   ;id=4467,key=018,inCond:10,outCond:1,flow seq=010
                      01947 ;;; /home/sdcc-builder/build/sdcc-build/orig/sdcc/src/pic14/gen.c:1328:mov2w_op *{*
                      01948 ;; ***  mov2w  1366  offset=3
                      01949 ;; >>> /home/sdcc-builder/build/sdcc-build/orig/sdcc/src/pic14/gen.c:1371:mov2w
gpasm-1.5.2 #0 (Sep 16 2019) build/default/pr   9-16-2019  10:40:44         PAGE 38


LOC    OBJECT CODE    LINE  SOURCE TEXT
  VALUE

                      01950 ;;      1097 rIdx = r0x1062 
                      01951 ;; BANKOPT2 BANKSEL dropped; r0x1018 present in same bank as r0x101B
0175   08??           01952         MOVF    r0x1018,W       ;id=4472,key=019,inCond:1,outCond:14,flow seq=010,rIdx=r0x1062
                      01953 ;; >>> /home/sdcc-builder/build/sdcc-build/orig/sdcc/src/pic14/gen.c:2160:genCall
0176   0??? 0???      01954         PAGESEL ___fsmul        ;id=4474,key=01a,inCond:0,outCond:0,flow seq=010
                      01955 ;; >>> /home/sdcc-builder/build/sdcc-build/orig/sdcc/src/pic14/gen.c:2165:genCall
                      01956 ;; BANKOPT3 drop assumptions: PCI with label or call found
0178   2???           01957         CALL    ___fsmul        ;id=4476,key=01b,inCond:10,outCond:1e,flow seq=010
                      01958 ;<>Start of new flow, seq=0x11 ancestor = 0x10
                      01959 ;  from: 010 ; to: 012 
                      01960 ;; >>> /home/sdcc-builder/build/sdcc-build/orig/sdcc/src/pic14/gen.c:2173:genCall
0179   0??? 0???      01961         PAGESEL $       ;id=4478,key=000,inCond:0,outCond:0,flow seq=011
                      01962 ;;      695 register type nRegs=4
                      01963 ;;; /home/sdcc-builder/build/sdcc-build/orig/sdcc/src/pic14/gen.c:1892:assignResultValue *{*
                      01964 ;; ***  assignResultValue  1894
                      01965 ;;      line = 1896 result -=-, size=0, left AOP_REG=r0x105F, size=4, right -=-, size=0
                      01966 ;; >>> /home/sdcc-builder/build/sdcc-build/orig/sdcc/src/pic14/gen.c:1378:movwf
                      01967 ;;      1097 rIdx = r0x1062 
017B   0??? 0???      01968         BANKSEL r0x1018 ;id=6190,key=001,inCond:0,outCond:0,flow seq=011
017D   00??           01969         MOVWF   r0x1018 ;id=4485,key=002,inCond:10,outCond:1,flow seq=011,rIdx=r0x1062
                      01970 ;; >>> /home/sdcc-builder/build/sdcc-build/orig/sdcc/src/pic14/gen.c:1408:get_returnvalue
                      01971 ;; ***  popRegFromIdx,1030  , rIdx=0x7f
                      01972 ;; BANKOPT1 BANKSEL dropped; STK00 present in all of r0x1018's banks
017E   08??           01973         MOVF    STK00,W ;id=4488,key=003,inCond:1,outCond:14,flow seq=011
                      01974 ;; >>> /home/sdcc-builder/build/sdcc-build/orig/sdcc/src/pic14/gen.c:1378:movwf
                      01975 ;;      1097 rIdx = r0x1061 
                      01976 ;; BANKOPT2 BANKSEL dropped; r0x1019 present in same bank as r0x1018
017F   00??           01977         MOVWF   r0x1019 ;id=4491,key=004,inCond:10,outCond:1,flow seq=011,rIdx=r0x1061
                      01978 ;; >>> /home/sdcc-builder/build/sdcc-build/orig/sdcc/src/pic14/gen.c:1408:get_returnvalue
                      01979 ;; ***  popRegFromIdx,1030  , rIdx=0x7e
                      01980 ;; BANKOPT1 BANKSEL dropped; STK01 present in all of r0x1018's banks
0180   08??           01981         MOVF    STK01,W ;id=4494,key=005,inCond:1,outCond:14,flow seq=011
                      01982 ;; >>> /home/sdcc-builder/build/sdcc-build/orig/sdcc/src/pic14/gen.c:1378:movwf
                      01983 ;;      1097 rIdx = r0x1060 
                      01984 ;; BANKOPT2 BANKSEL dropped; r0x101A present in same bank as r0x1018
0181   00??           01985         MOVWF   r0x101A ;id=4497,key=006,inCond:10,outCond:1,flow seq=011,rIdx=r0x1060
                      01986 ;; >>> /home/sdcc-builder/build/sdcc-build/orig/sdcc/src/pic14/gen.c:1408:get_returnvalue
                      01987 ;; ***  popRegFromIdx,1030  , rIdx=0x7d
                      01988 ;; BANKOPT1 BANKSEL dropped; STK02 present in all of r0x1018's banks
0182   08??           01989         MOVF    STK02,W ;id=4500,key=007,inCond:1,outCond:14,flow seq=011
                      01990 ;; >>> /home/sdcc-builder/build/sdcc-build/orig/sdcc/src/pic14/gen.c:1378:movwf
                      01991 ;;      1097 rIdx = r0x105F 
                      01992 ;; BANKOPT2 BANKSEL dropped; r0x101B present in same bank as r0x1018
0183   00??           01993         MOVWF   r0x101B ;id=4503,key=008,inCond:10,outCond:1,flow seq=011,rIdx=r0x105F
                      01994 ;;      2188 left AOP_REG
                      01995 ;;; /home/sdcc-builder/build/sdcc-build/orig/sdcc/src/pic14/gen.c:1830:unsaveRegisters *{*
                      01996 ;; ***  unsaveRegisters  1832
                      01997 ;;; /home/sdcc-builder/build/sdcc-build/orig/sdcc/src/pic14/gen.c:2308:resultRemat *{*
                      01998 ;;; /home/sdcc-builder/build/sdcc-build/orig/sdcc/src/pic14/gen.c:2308:resultRemat *{*
                      01999 ;;; /home/sdcc-builder/build/sdcc-build/orig/sdcc/src/pic14/gen.c:2308:resultRemat *{*
                      02000 ;;; /home/sdcc-builder/build/sdcc-build/orig/sdcc/src/pic14/gen.c:2071:genCall *{*
                      02001 ;; ***  genCall  2073
                      02002 ;;; /home/sdcc-builder/build/sdcc-build/orig/sdcc/src/pic14/gen.c:1786:saveRegisters *{*
gpasm-1.5.2 #0 (Sep 16 2019) build/default/pr   9-16-2019  10:40:44         PAGE 39


LOC    OBJECT CODE    LINE  SOURCE TEXT
  VALUE

                      02003 ;; ***  saveRegisters  1788
                      02004 ;; ***  aopForSym 316
                      02005 ;;      328 sym->rname = _F3, size = 4
                      02006 ;;      695 register type nRegs=4
                      02007 ;; ***  aopForSym 316
                      02008 ;;      328 sym->rname = _F3, size = 4
                      02009 ;;      2120 left AOP_DIR
                      02010 ;;; /home/sdcc-builder/build/sdcc-build/orig/sdcc/src/pic14/gen.c:1328:mov2w_op *{*
                      02011 ;; ***  mov2w  1366  offset=0
                      02012 ;; >>> /home/sdcc-builder/build/sdcc-build/orig/sdcc/src/pic14/gen.c:1371:mov2w
                      02013 ;;      998
                      02014 ;;      1016  _F3   offset=0
0184   0??? 0???      02015         BANKSEL _F3     ;id=6197,key=009,inCond:0,outCond:0,flow seq=011
0186   08??           02016         MOVF    _F3,W   ;id=4525,key=00a,inCond:1,outCond:14,flow seq=011
                      02017 ;;      2120 left AOP_DIR
                      02018 ;; >>> /home/sdcc-builder/build/sdcc-build/orig/sdcc/src/pic14/gen.c:2128:genCall
                      02019 ;; ***  popRegFromIdx,1030  , rIdx=0x79
                      02020 ;; BANKOPT1 BANKSEL dropped; STK06 present in all of _F3's banks
0187   00??           02021         MOVWF   STK06   ;id=4529,key=00b,inCond:10,outCond:1,flow seq=011
                      02022 ;;; /home/sdcc-builder/build/sdcc-build/orig/sdcc/src/pic14/gen.c:1328:mov2w_op *{*
                      02023 ;; ***  mov2w  1366  offset=1
                      02024 ;; >>> /home/sdcc-builder/build/sdcc-build/orig/sdcc/src/pic14/gen.c:1371:mov2w
                      02025 ;;      998
                      02026 ;;      1016  _F3   offset=1
                      02027 ;; BANKOPT2 BANKSEL dropped; _F3 present in same bank as _F3
0188   08??           02028         MOVF    (_F3 + 1),W     ;id=4535,key=00c,inCond:1,outCond:14,flow seq=011
                      02029 ;;      2120 left AOP_DIR
                      02030 ;; >>> /home/sdcc-builder/build/sdcc-build/orig/sdcc/src/pic14/gen.c:2128:genCall
                      02031 ;; ***  popRegFromIdx,1030  , rIdx=0x7a
                      02032 ;; BANKOPT1 BANKSEL dropped; STK05 present in all of _F3's banks
0189   00??           02033         MOVWF   STK05   ;id=4539,key=00d,inCond:10,outCond:1,flow seq=011
                      02034 ;;; /home/sdcc-builder/build/sdcc-build/orig/sdcc/src/pic14/gen.c:1328:mov2w_op *{*
                      02035 ;; ***  mov2w  1366  offset=2
                      02036 ;; >>> /home/sdcc-builder/build/sdcc-build/orig/sdcc/src/pic14/gen.c:1371:mov2w
                      02037 ;;      998
                      02038 ;;      1016  _F3   offset=2
                      02039 ;; BANKOPT2 BANKSEL dropped; _F3 present in same bank as _F3
018A   08??           02040         MOVF    (_F3 + 2),W     ;id=4545,key=00e,inCond:1,outCond:14,flow seq=011
                      02041 ;;      2120 left AOP_DIR
                      02042 ;; >>> /home/sdcc-builder/build/sdcc-build/orig/sdcc/src/pic14/gen.c:2128:genCall
                      02043 ;; ***  popRegFromIdx,1030  , rIdx=0x7b
                      02044 ;; BANKOPT1 BANKSEL dropped; STK04 present in all of _F3's banks
018B   00??           02045         MOVWF   STK04   ;id=4549,key=00f,inCond:10,outCond:1,flow seq=011
                      02046 ;;; /home/sdcc-builder/build/sdcc-build/orig/sdcc/src/pic14/gen.c:1328:mov2w_op *{*
                      02047 ;; ***  mov2w  1366  offset=3
                      02048 ;; >>> /home/sdcc-builder/build/sdcc-build/orig/sdcc/src/pic14/gen.c:1371:mov2w
                      02049 ;;      998
                      02050 ;;      1016  _F3   offset=3
                      02051 ;; BANKOPT2 BANKSEL dropped; _F3 present in same bank as _F3
018C   08??           02052         MOVF    (_F3 + 3),W     ;id=4555,key=010,inCond:1,outCond:14,flow seq=011
                      02053 ;;      695 register type nRegs=4
                      02054 ;;      2120 left AOP_REG
                      02055 ;; >>> /home/sdcc-builder/build/sdcc-build/orig/sdcc/src/pic14/gen.c:2128:genCall
gpasm-1.5.2 #0 (Sep 16 2019) build/default/pr   9-16-2019  10:40:44         PAGE 40


LOC    OBJECT CODE    LINE  SOURCE TEXT
  VALUE

                      02056 ;; ***  popRegFromIdx,1030  , rIdx=0x7c
                      02057 ;; BANKOPT1 BANKSEL dropped; STK03 present in all of _F3's banks
018D   00??           02058         MOVWF   STK03   ;id=4560,key=011,inCond:10,outCond:1,flow seq=011
                      02059 ;;; /home/sdcc-builder/build/sdcc-build/orig/sdcc/src/pic14/gen.c:1328:mov2w_op *{*
                      02060 ;; ***  mov2w  1366  offset=0
                      02061 ;; >>> /home/sdcc-builder/build/sdcc-build/orig/sdcc/src/pic14/gen.c:1371:mov2w
                      02062 ;;      1097 rIdx = r0x105F 
018E   0??? 0???      02063         BANKSEL r0x101B ;id=6205,key=012,inCond:0,outCond:0,flow seq=011
0190   08??           02064         MOVF    r0x101B,W       ;id=4565,key=013,inCond:1,outCond:14,flow seq=011,rIdx=r0x105F
                      02065 ;;      2120 left AOP_REG
                      02066 ;; >>> /home/sdcc-builder/build/sdcc-build/orig/sdcc/src/pic14/gen.c:2128:genCall
                      02067 ;; ***  popRegFromIdx,1030  , rIdx=0x7d
                      02068 ;; BANKOPT1 BANKSEL dropped; STK02 present in all of r0x101B's banks
0191   00??           02069         MOVWF   STK02   ;id=4569,key=014,inCond:10,outCond:1,flow seq=011
                      02070 ;;; /home/sdcc-builder/build/sdcc-build/orig/sdcc/src/pic14/gen.c:1328:mov2w_op *{*
                      02071 ;; ***  mov2w  1366  offset=1
                      02072 ;; >>> /home/sdcc-builder/build/sdcc-build/orig/sdcc/src/pic14/gen.c:1371:mov2w
                      02073 ;;      1097 rIdx = r0x1060 
                      02074 ;; BANKOPT2 BANKSEL dropped; r0x101A present in same bank as r0x101B
0192   08??           02075         MOVF    r0x101A,W       ;id=4574,key=015,inCond:1,outCond:14,flow seq=011,rIdx=r0x1060
                      02076 ;;      2120 left AOP_REG
                      02077 ;; >>> /home/sdcc-builder/build/sdcc-build/orig/sdcc/src/pic14/gen.c:2128:genCall
                      02078 ;; ***  popRegFromIdx,1030  , rIdx=0x7e
                      02079 ;; BANKOPT1 BANKSEL dropped; STK01 present in all of r0x101B's banks
0193   00??           02080         MOVWF   STK01   ;id=4578,key=016,inCond:10,outCond:1,flow seq=011
                      02081 ;;; /home/sdcc-builder/build/sdcc-build/orig/sdcc/src/pic14/gen.c:1328:mov2w_op *{*
                      02082 ;; ***  mov2w  1366  offset=2
                      02083 ;; >>> /home/sdcc-builder/build/sdcc-build/orig/sdcc/src/pic14/gen.c:1371:mov2w
                      02084 ;;      1097 rIdx = r0x1061 
                      02085 ;; BANKOPT2 BANKSEL dropped; r0x1019 present in same bank as r0x101B
0194   08??           02086         MOVF    r0x1019,W       ;id=4583,key=017,inCond:1,outCond:14,flow seq=011,rIdx=r0x1061
                      02087 ;;      2120 left AOP_REG
                      02088 ;; >>> /home/sdcc-builder/build/sdcc-build/orig/sdcc/src/pic14/gen.c:2128:genCall
                      02089 ;; ***  popRegFromIdx,1030  , rIdx=0x7f
                      02090 ;; BANKOPT1 BANKSEL dropped; STK00 present in all of r0x101B's banks
0195   00??           02091         MOVWF   STK00   ;id=4587,key=018,inCond:10,outCond:1,flow seq=011
                      02092 ;;; /home/sdcc-builder/build/sdcc-build/orig/sdcc/src/pic14/gen.c:1328:mov2w_op *{*
                      02093 ;; ***  mov2w  1366  offset=3
                      02094 ;; >>> /home/sdcc-builder/build/sdcc-build/orig/sdcc/src/pic14/gen.c:1371:mov2w
                      02095 ;;      1097 rIdx = r0x1062 
                      02096 ;; BANKOPT2 BANKSEL dropped; r0x1018 present in same bank as r0x101B
0196   08??           02097         MOVF    r0x1018,W       ;id=4592,key=019,inCond:1,outCond:14,flow seq=011,rIdx=r0x1062
                      02098 ;; >>> /home/sdcc-builder/build/sdcc-build/orig/sdcc/src/pic14/gen.c:2160:genCall
0197   0??? 0???      02099         PAGESEL ___fsmul        ;id=4594,key=01a,inCond:0,outCond:0,flow seq=011
                      02100 ;; >>> /home/sdcc-builder/build/sdcc-build/orig/sdcc/src/pic14/gen.c:2165:genCall
                      02101 ;; BANKOPT3 drop assumptions: PCI with label or call found
0199   2???           02102         CALL    ___fsmul        ;id=4596,key=01b,inCond:10,outCond:1e,flow seq=011
                      02103 ;<>Start of new flow, seq=0x12 ancestor = 0x11
                      02104 ;  from: 011 ; to: 013 
                      02105 ;; >>> /home/sdcc-builder/build/sdcc-build/orig/sdcc/src/pic14/gen.c:2173:genCall
019A   0??? 0???      02106         PAGESEL $       ;id=4598,key=000,inCond:0,outCond:0,flow seq=012
                      02107 ;;      695 register type nRegs=4
                      02108 ;;; /home/sdcc-builder/build/sdcc-build/orig/sdcc/src/pic14/gen.c:1892:assignResultValue *{*
gpasm-1.5.2 #0 (Sep 16 2019) build/default/pr   9-16-2019  10:40:44         PAGE 41


LOC    OBJECT CODE    LINE  SOURCE TEXT
  VALUE

                      02109 ;; ***  assignResultValue  1894
                      02110 ;;      line = 1896 result -=-, size=0, left AOP_REG=r0x105F, size=4, right -=-, size=0
                      02111 ;; >>> /home/sdcc-builder/build/sdcc-build/orig/sdcc/src/pic14/gen.c:1378:movwf
                      02112 ;;      1097 rIdx = r0x1062 
019C   0??? 0???      02113         BANKSEL r0x1018 ;id=6213,key=001,inCond:0,outCond:0,flow seq=012
019E   00??           02114         MOVWF   r0x1018 ;id=4605,key=002,inCond:10,outCond:1,flow seq=012,rIdx=r0x1062
                      02115 ;; >>> /home/sdcc-builder/build/sdcc-build/orig/sdcc/src/pic14/gen.c:1408:get_returnvalue
                      02116 ;; ***  popRegFromIdx,1030  , rIdx=0x7f
                      02117 ;; BANKOPT1 BANKSEL dropped; STK00 present in all of r0x1018's banks
019F   08??           02118         MOVF    STK00,W ;id=4608,key=003,inCond:1,outCond:14,flow seq=012
                      02119 ;; >>> /home/sdcc-builder/build/sdcc-build/orig/sdcc/src/pic14/gen.c:1378:movwf
                      02120 ;;      1097 rIdx = r0x1061 
                      02121 ;; BANKOPT2 BANKSEL dropped; r0x1019 present in same bank as r0x1018
01A0   00??           02122         MOVWF   r0x1019 ;id=4611,key=004,inCond:10,outCond:1,flow seq=012,rIdx=r0x1061
                      02123 ;; >>> /home/sdcc-builder/build/sdcc-build/orig/sdcc/src/pic14/gen.c:1408:get_returnvalue
                      02124 ;; ***  popRegFromIdx,1030  , rIdx=0x7e
                      02125 ;; BANKOPT1 BANKSEL dropped; STK01 present in all of r0x1018's banks
01A1   08??           02126         MOVF    STK01,W ;id=4614,key=005,inCond:1,outCond:14,flow seq=012
                      02127 ;; >>> /home/sdcc-builder/build/sdcc-build/orig/sdcc/src/pic14/gen.c:1378:movwf
                      02128 ;;      1097 rIdx = r0x1060 
                      02129 ;; BANKOPT2 BANKSEL dropped; r0x101A present in same bank as r0x1018
01A2   00??           02130         MOVWF   r0x101A ;id=4617,key=006,inCond:10,outCond:1,flow seq=012,rIdx=r0x1060
                      02131 ;; >>> /home/sdcc-builder/build/sdcc-build/orig/sdcc/src/pic14/gen.c:1408:get_returnvalue
                      02132 ;; ***  popRegFromIdx,1030  , rIdx=0x7d
                      02133 ;; BANKOPT1 BANKSEL dropped; STK02 present in all of r0x1018's banks
01A3   08??           02134         MOVF    STK02,W ;id=4620,key=007,inCond:1,outCond:14,flow seq=012
                      02135 ;; >>> /home/sdcc-builder/build/sdcc-build/orig/sdcc/src/pic14/gen.c:1378:movwf
                      02136 ;;      1097 rIdx = r0x105F 
                      02137 ;; BANKOPT2 BANKSEL dropped; r0x101B present in same bank as r0x1018
01A4   00??           02138         MOVWF   r0x101B ;id=4623,key=008,inCond:10,outCond:1,flow seq=012,rIdx=r0x105F
                      02139 ;;      2188 left AOP_REG
                      02140 ;;; /home/sdcc-builder/build/sdcc-build/orig/sdcc/src/pic14/gen.c:1830:unsaveRegisters *{*
                      02141 ;; ***  unsaveRegisters  1832
                      02142 ;;; /home/sdcc-builder/build/sdcc-build/orig/sdcc/src/pic14/gen.c:2308:resultRemat *{*
                      02143 ;;; /home/sdcc-builder/build/sdcc-build/orig/sdcc/src/pic14/gen.c:2308:resultRemat *{*
                      02144 ;;; /home/sdcc-builder/build/sdcc-build/orig/sdcc/src/pic14/gen.c:2308:resultRemat *{*
                      02145 ;;; /home/sdcc-builder/build/sdcc-build/orig/sdcc/src/pic14/gen.c:2071:genCall *{*
                      02146 ;; ***  genCall  2073
                      02147 ;;; /home/sdcc-builder/build/sdcc-build/orig/sdcc/src/pic14/gen.c:1786:saveRegisters *{*
                      02148 ;; ***  saveRegisters  1788
                      02149 ;; ***  aopForSym 316
                      02150 ;;      328 sym->rname = _CCal, size = 4
                      02151 ;;      695 register type nRegs=4
                      02152 ;; ***  aopForSym 316
                      02153 ;;      328 sym->rname = _CCal, size = 4
                      02154 ;;      2120 left AOP_DIR
                      02155 ;;; /home/sdcc-builder/build/sdcc-build/orig/sdcc/src/pic14/gen.c:1328:mov2w_op *{*
                      02156 ;; ***  mov2w  1366  offset=0
                      02157 ;; >>> /home/sdcc-builder/build/sdcc-build/orig/sdcc/src/pic14/gen.c:1371:mov2w
                      02158 ;;      998
                      02159 ;;      1016  _CCal   offset=0
01A5   0??? 0???      02160         BANKSEL _CCal   ;id=6220,key=009,inCond:0,outCond:0,flow seq=012
01A7   08??           02161         MOVF    _CCal,W ;id=4645,key=00a,inCond:1,outCond:14,flow seq=012
gpasm-1.5.2 #0 (Sep 16 2019) build/default/pr   9-16-2019  10:40:44         PAGE 42


LOC    OBJECT CODE    LINE  SOURCE TEXT
  VALUE

                      02162 ;;      2120 left AOP_DIR
                      02163 ;; >>> /home/sdcc-builder/build/sdcc-build/orig/sdcc/src/pic14/gen.c:2128:genCall
                      02164 ;; ***  popRegFromIdx,1030  , rIdx=0x79
                      02165 ;; BANKOPT1 BANKSEL dropped; STK06 present in all of _CCal's banks
01A8   00??           02166         MOVWF   STK06   ;id=4649,key=00b,inCond:10,outCond:1,flow seq=012
                      02167 ;;; /home/sdcc-builder/build/sdcc-build/orig/sdcc/src/pic14/gen.c:1328:mov2w_op *{*
                      02168 ;; ***  mov2w  1366  offset=1
                      02169 ;; >>> /home/sdcc-builder/build/sdcc-build/orig/sdcc/src/pic14/gen.c:1371:mov2w
                      02170 ;;      998
                      02171 ;;      1016  _CCal   offset=1
                      02172 ;; BANKOPT2 BANKSEL dropped; _CCal present in same bank as _CCal
01A9   08??           02173         MOVF    (_CCal + 1),W   ;id=4655,key=00c,inCond:1,outCond:14,flow seq=012
                      02174 ;;      2120 left AOP_DIR
                      02175 ;; >>> /home/sdcc-builder/build/sdcc-build/orig/sdcc/src/pic14/gen.c:2128:genCall
                      02176 ;; ***  popRegFromIdx,1030  , rIdx=0x7a
                      02177 ;; BANKOPT1 BANKSEL dropped; STK05 present in all of _CCal's banks
01AA   00??           02178         MOVWF   STK05   ;id=4659,key=00d,inCond:10,outCond:1,flow seq=012
                      02179 ;;; /home/sdcc-builder/build/sdcc-build/orig/sdcc/src/pic14/gen.c:1328:mov2w_op *{*
                      02180 ;; ***  mov2w  1366  offset=2
                      02181 ;; >>> /home/sdcc-builder/build/sdcc-build/orig/sdcc/src/pic14/gen.c:1371:mov2w
                      02182 ;;      998
                      02183 ;;      1016  _CCal   offset=2
                      02184 ;; BANKOPT2 BANKSEL dropped; _CCal present in same bank as _CCal
01AB   08??           02185         MOVF    (_CCal + 2),W   ;id=4665,key=00e,inCond:1,outCond:14,flow seq=012
                      02186 ;;      2120 left AOP_DIR
                      02187 ;; >>> /home/sdcc-builder/build/sdcc-build/orig/sdcc/src/pic14/gen.c:2128:genCall
                      02188 ;; ***  popRegFromIdx,1030  , rIdx=0x7b
                      02189 ;; BANKOPT1 BANKSEL dropped; STK04 present in all of _CCal's banks
01AC   00??           02190         MOVWF   STK04   ;id=4669,key=00f,inCond:10,outCond:1,flow seq=012
                      02191 ;;; /home/sdcc-builder/build/sdcc-build/orig/sdcc/src/pic14/gen.c:1328:mov2w_op *{*
                      02192 ;; ***  mov2w  1366  offset=3
                      02193 ;; >>> /home/sdcc-builder/build/sdcc-build/orig/sdcc/src/pic14/gen.c:1371:mov2w
                      02194 ;;      998
                      02195 ;;      1016  _CCal   offset=3
                      02196 ;; BANKOPT2 BANKSEL dropped; _CCal present in same bank as _CCal
01AD   08??           02197         MOVF    (_CCal + 3),W   ;id=4675,key=010,inCond:1,outCond:14,flow seq=012
                      02198 ;;      695 register type nRegs=4
                      02199 ;;      2120 left AOP_REG
                      02200 ;; >>> /home/sdcc-builder/build/sdcc-build/orig/sdcc/src/pic14/gen.c:2128:genCall
                      02201 ;; ***  popRegFromIdx,1030  , rIdx=0x7c
                      02202 ;; BANKOPT1 BANKSEL dropped; STK03 present in all of _CCal's banks
01AE   00??           02203         MOVWF   STK03   ;id=4680,key=011,inCond:10,outCond:1,flow seq=012
                      02204 ;;; /home/sdcc-builder/build/sdcc-build/orig/sdcc/src/pic14/gen.c:1328:mov2w_op *{*
                      02205 ;; ***  mov2w  1366  offset=0
                      02206 ;; >>> /home/sdcc-builder/build/sdcc-build/orig/sdcc/src/pic14/gen.c:1371:mov2w
                      02207 ;;      1097 rIdx = r0x105F 
01AF   0??? 0???      02208         BANKSEL r0x101B ;id=6228,key=012,inCond:0,outCond:0,flow seq=012
01B1   08??           02209         MOVF    r0x101B,W       ;id=4685,key=013,inCond:1,outCond:14,flow seq=012,rIdx=r0x105F
                      02210 ;;      2120 left AOP_REG
                      02211 ;; >>> /home/sdcc-builder/build/sdcc-build/orig/sdcc/src/pic14/gen.c:2128:genCall
                      02212 ;; ***  popRegFromIdx,1030  , rIdx=0x7d
                      02213 ;; BANKOPT1 BANKSEL dropped; STK02 present in all of r0x101B's banks
01B2   00??           02214         MOVWF   STK02   ;id=4689,key=014,inCond:10,outCond:1,flow seq=012
gpasm-1.5.2 #0 (Sep 16 2019) build/default/pr   9-16-2019  10:40:44         PAGE 43


LOC    OBJECT CODE    LINE  SOURCE TEXT
  VALUE

                      02215 ;;; /home/sdcc-builder/build/sdcc-build/orig/sdcc/src/pic14/gen.c:1328:mov2w_op *{*
                      02216 ;; ***  mov2w  1366  offset=1
                      02217 ;; >>> /home/sdcc-builder/build/sdcc-build/orig/sdcc/src/pic14/gen.c:1371:mov2w
                      02218 ;;      1097 rIdx = r0x1060 
                      02219 ;; BANKOPT2 BANKSEL dropped; r0x101A present in same bank as r0x101B
01B3   08??           02220         MOVF    r0x101A,W       ;id=4694,key=015,inCond:1,outCond:14,flow seq=012,rIdx=r0x1060
                      02221 ;;      2120 left AOP_REG
                      02222 ;; >>> /home/sdcc-builder/build/sdcc-build/orig/sdcc/src/pic14/gen.c:2128:genCall
                      02223 ;; ***  popRegFromIdx,1030  , rIdx=0x7e
                      02224 ;; BANKOPT1 BANKSEL dropped; STK01 present in all of r0x101B's banks
01B4   00??           02225         MOVWF   STK01   ;id=4698,key=016,inCond:10,outCond:1,flow seq=012
                      02226 ;;; /home/sdcc-builder/build/sdcc-build/orig/sdcc/src/pic14/gen.c:1328:mov2w_op *{*
                      02227 ;; ***  mov2w  1366  offset=2
                      02228 ;; >>> /home/sdcc-builder/build/sdcc-build/orig/sdcc/src/pic14/gen.c:1371:mov2w
                      02229 ;;      1097 rIdx = r0x1061 
                      02230 ;; BANKOPT2 BANKSEL dropped; r0x1019 present in same bank as r0x101B
01B5   08??           02231         MOVF    r0x1019,W       ;id=4703,key=017,inCond:1,outCond:14,flow seq=012,rIdx=r0x1061
                      02232 ;;      2120 left AOP_REG
                      02233 ;; >>> /home/sdcc-builder/build/sdcc-build/orig/sdcc/src/pic14/gen.c:2128:genCall
                      02234 ;; ***  popRegFromIdx,1030  , rIdx=0x7f
                      02235 ;; BANKOPT1 BANKSEL dropped; STK00 present in all of r0x101B's banks
01B6   00??           02236         MOVWF   STK00   ;id=4707,key=018,inCond:10,outCond:1,flow seq=012
                      02237 ;;; /home/sdcc-builder/build/sdcc-build/orig/sdcc/src/pic14/gen.c:1328:mov2w_op *{*
                      02238 ;; ***  mov2w  1366  offset=3
                      02239 ;; >>> /home/sdcc-builder/build/sdcc-build/orig/sdcc/src/pic14/gen.c:1371:mov2w
                      02240 ;;      1097 rIdx = r0x1062 
                      02241 ;; BANKOPT2 BANKSEL dropped; r0x1018 present in same bank as r0x101B
01B7   08??           02242         MOVF    r0x1018,W       ;id=4712,key=019,inCond:1,outCond:14,flow seq=012,rIdx=r0x1062
                      02243 ;; >>> /home/sdcc-builder/build/sdcc-build/orig/sdcc/src/pic14/gen.c:2160:genCall
01B8   0??? 0???      02244         PAGESEL ___fsmul        ;id=4714,key=01a,inCond:0,outCond:0,flow seq=012
                      02245 ;; >>> /home/sdcc-builder/build/sdcc-build/orig/sdcc/src/pic14/gen.c:2165:genCall
                      02246 ;; BANKOPT3 drop assumptions: PCI with label or call found
01BA   2???           02247         CALL    ___fsmul        ;id=4716,key=01b,inCond:10,outCond:1e,flow seq=012
                      02248 ;<>Start of new flow, seq=0x13 ancestor = 0x12
                      02249 ;  from: 012 ; to: 014 
                      02250 ;; >>> /home/sdcc-builder/build/sdcc-build/orig/sdcc/src/pic14/gen.c:2173:genCall
01BB   0??? 0???      02251         PAGESEL $       ;id=4718,key=000,inCond:0,outCond:0,flow seq=013
                      02252 ;;      695 register type nRegs=4
                      02253 ;;; /home/sdcc-builder/build/sdcc-build/orig/sdcc/src/pic14/gen.c:1892:assignResultValue *{*
                      02254 ;; ***  assignResultValue  1894
                      02255 ;;      line = 1896 result -=-, size=0, left AOP_REG=r0x105F, size=4, right -=-, size=0
                      02256 ;; >>> /home/sdcc-builder/build/sdcc-build/orig/sdcc/src/pic14/gen.c:1378:movwf
                      02257 ;;      1097 rIdx = r0x1062 
01BD   0??? 0???      02258         BANKSEL r0x1018 ;id=6236,key=001,inCond:0,outCond:0,flow seq=013
01BF   00??           02259         MOVWF   r0x1018 ;id=4725,key=002,inCond:10,outCond:1,flow seq=013,rIdx=r0x1062
                      02260 ;; >>> /home/sdcc-builder/build/sdcc-build/orig/sdcc/src/pic14/gen.c:1408:get_returnvalue
                      02261 ;; ***  popRegFromIdx,1030  , rIdx=0x7f
                      02262 ;; BANKOPT1 BANKSEL dropped; STK00 present in all of r0x1018's banks
01C0   08??           02263         MOVF    STK00,W ;id=4728,key=003,inCond:1,outCond:14,flow seq=013
                      02264 ;; >>> /home/sdcc-builder/build/sdcc-build/orig/sdcc/src/pic14/gen.c:1378:movwf
                      02265 ;;      1097 rIdx = r0x1061 
                      02266 ;; BANKOPT2 BANKSEL dropped; r0x1019 present in same bank as r0x1018
01C1   00??           02267         MOVWF   r0x1019 ;id=4731,key=004,inCond:10,outCond:1,flow seq=013,rIdx=r0x1061
gpasm-1.5.2 #0 (Sep 16 2019) build/default/pr   9-16-2019  10:40:44         PAGE 44


LOC    OBJECT CODE    LINE  SOURCE TEXT
  VALUE

                      02268 ;; >>> /home/sdcc-builder/build/sdcc-build/orig/sdcc/src/pic14/gen.c:1408:get_returnvalue
                      02269 ;; ***  popRegFromIdx,1030  , rIdx=0x7e
                      02270 ;; BANKOPT1 BANKSEL dropped; STK01 present in all of r0x1018's banks
01C2   08??           02271         MOVF    STK01,W ;id=4734,key=005,inCond:1,outCond:14,flow seq=013
                      02272 ;; >>> /home/sdcc-builder/build/sdcc-build/orig/sdcc/src/pic14/gen.c:1378:movwf
                      02273 ;;      1097 rIdx = r0x1060 
                      02274 ;; BANKOPT2 BANKSEL dropped; r0x101A present in same bank as r0x1018
01C3   00??           02275         MOVWF   r0x101A ;id=4737,key=006,inCond:10,outCond:1,flow seq=013,rIdx=r0x1060
                      02276 ;; >>> /home/sdcc-builder/build/sdcc-build/orig/sdcc/src/pic14/gen.c:1408:get_returnvalue
                      02277 ;; ***  popRegFromIdx,1030  , rIdx=0x7d
                      02278 ;; BANKOPT1 BANKSEL dropped; STK02 present in all of r0x1018's banks
01C4   08??           02279         MOVF    STK02,W ;id=4740,key=007,inCond:1,outCond:14,flow seq=013
                      02280 ;; >>> /home/sdcc-builder/build/sdcc-build/orig/sdcc/src/pic14/gen.c:1378:movwf
                      02281 ;;      1097 rIdx = r0x105F 
                      02282 ;; BANKOPT2 BANKSEL dropped; r0x101B present in same bank as r0x1018
                      02283 ;       .line   216; "../../../src/measure.c"   Lin = (numerator / denominator) * 1e+15l; // scale to nH
                             { pF/1e+12 * nH/1e+09 * (s/1e+03)^2 }
01C5   00??           02284         MOVWF   r0x101B ;id=5911,key=008,inCond:10,outCond:1,flow seq=013,rIdx=r0x105F
                      02285 ;; BANKOPT1 BANKSEL dropped; STK06 present in all of r0x1018's banks
01C6   00??           02286         MOVWF   STK06   ;id=4767,key=009,inCond:10,outCond:1,flow seq=013
                      02287 ;;; /home/sdcc-builder/build/sdcc-build/orig/sdcc/src/pic14/gen.c:1328:mov2w_op *{*
                      02288 ;; ***  mov2w  1366  offset=1
                      02289 ;; >>> /home/sdcc-builder/build/sdcc-build/orig/sdcc/src/pic14/gen.c:1371:mov2w
                      02290 ;;      1097 rIdx = r0x1060 
                      02291 ;; BANKOPT2 BANKSEL dropped; r0x101A present in same bank as r0x1018
01C7   08??           02292         MOVF    r0x101A,W       ;id=4772,key=00a,inCond:1,outCond:14,flow seq=013,rIdx=r0x1060
                      02293 ;;      2120 left AOP_REG
                      02294 ;; >>> /home/sdcc-builder/build/sdcc-build/orig/sdcc/src/pic14/gen.c:2128:genCall
                      02295 ;; ***  popRegFromIdx,1030  , rIdx=0x7a
                      02296 ;; BANKOPT1 BANKSEL dropped; STK05 present in all of r0x1018's banks
01C8   00??           02297         MOVWF   STK05   ;id=4776,key=00b,inCond:10,outCond:1,flow seq=013
                      02298 ;;; /home/sdcc-builder/build/sdcc-build/orig/sdcc/src/pic14/gen.c:1328:mov2w_op *{*
                      02299 ;; ***  mov2w  1366  offset=2
                      02300 ;; >>> /home/sdcc-builder/build/sdcc-build/orig/sdcc/src/pic14/gen.c:1371:mov2w
                      02301 ;;      1097 rIdx = r0x1061 
                      02302 ;; BANKOPT2 BANKSEL dropped; r0x1019 present in same bank as r0x1018
01C9   08??           02303         MOVF    r0x1019,W       ;id=4781,key=00c,inCond:1,outCond:14,flow seq=013,rIdx=r0x1061
                      02304 ;;      2120 left AOP_REG
                      02305 ;; >>> /home/sdcc-builder/build/sdcc-build/orig/sdcc/src/pic14/gen.c:2128:genCall
                      02306 ;; ***  popRegFromIdx,1030  , rIdx=0x7b
                      02307 ;; BANKOPT1 BANKSEL dropped; STK04 present in all of r0x1018's banks
01CA   00??           02308         MOVWF   STK04   ;id=4785,key=00d,inCond:10,outCond:1,flow seq=013
                      02309 ;;; /home/sdcc-builder/build/sdcc-build/orig/sdcc/src/pic14/gen.c:1328:mov2w_op *{*
                      02310 ;; ***  mov2w  1366  offset=3
                      02311 ;; >>> /home/sdcc-builder/build/sdcc-build/orig/sdcc/src/pic14/gen.c:1371:mov2w
                      02312 ;;      1097 rIdx = r0x1062 
                      02313 ;; BANKOPT2 BANKSEL dropped; r0x1018 present in same bank as r0x1018
01CB   08??           02314         MOVF    r0x1018,W       ;id=4790,key=00e,inCond:1,outCond:14,flow seq=013,rIdx=r0x1062
                      02315 ;;      695 register type nRegs=4
                      02316 ;;      2120 left AOP_REG
                      02317 ;; >>> /home/sdcc-builder/build/sdcc-build/orig/sdcc/src/pic14/gen.c:2128:genCall
                      02318 ;; ***  popRegFromIdx,1030  , rIdx=0x7c
                      02319 ;; BANKOPT1 BANKSEL dropped; STK03 present in all of r0x1018's banks
gpasm-1.5.2 #0 (Sep 16 2019) build/default/pr   9-16-2019  10:40:44         PAGE 45


LOC    OBJECT CODE    LINE  SOURCE TEXT
  VALUE

01CC   00??           02320         MOVWF   STK03   ;id=4795,key=00f,inCond:10,outCond:1,flow seq=013
                      02321 ;;; /home/sdcc-builder/build/sdcc-build/orig/sdcc/src/pic14/gen.c:1328:mov2w_op *{*
                      02322 ;; ***  mov2w  1366  offset=0
                      02323 ;; >>> /home/sdcc-builder/build/sdcc-build/orig/sdcc/src/pic14/gen.c:1371:mov2w
                      02324 ;;      1097 rIdx = r0x105B 
                      02325 ;; BANKOPT2 BANKSEL dropped; r0x1015 present in same bank as r0x1018
01CD   08??           02326         MOVF    r0x1015,W       ;id=4800,key=010,inCond:1,outCond:14,flow seq=013,rIdx=r0x105B
                      02327 ;;      2120 left AOP_REG
                      02328 ;; >>> /home/sdcc-builder/build/sdcc-build/orig/sdcc/src/pic14/gen.c:2128:genCall
                      02329 ;; ***  popRegFromIdx,1030  , rIdx=0x7d
                      02330 ;; BANKOPT1 BANKSEL dropped; STK02 present in all of r0x1018's banks
01CE   00??           02331         MOVWF   STK02   ;id=4804,key=011,inCond:10,outCond:1,flow seq=013
                      02332 ;;; /home/sdcc-builder/build/sdcc-build/orig/sdcc/src/pic14/gen.c:1328:mov2w_op *{*
                      02333 ;; ***  mov2w  1366  offset=1
                      02334 ;; >>> /home/sdcc-builder/build/sdcc-build/orig/sdcc/src/pic14/gen.c:1371:mov2w
                      02335 ;;      1097 rIdx = r0x105C 
                      02336 ;; BANKOPT2 BANKSEL dropped; r0x1014 present in same bank as r0x1018
01CF   08??           02337         MOVF    r0x1014,W       ;id=4809,key=012,inCond:1,outCond:14,flow seq=013,rIdx=r0x105C
                      02338 ;;      2120 left AOP_REG
                      02339 ;; >>> /home/sdcc-builder/build/sdcc-build/orig/sdcc/src/pic14/gen.c:2128:genCall
                      02340 ;; ***  popRegFromIdx,1030  , rIdx=0x7e
                      02341 ;; BANKOPT1 BANKSEL dropped; STK01 present in all of r0x1018's banks
01D0   00??           02342         MOVWF   STK01   ;id=4813,key=013,inCond:10,outCond:1,flow seq=013
                      02343 ;;; /home/sdcc-builder/build/sdcc-build/orig/sdcc/src/pic14/gen.c:1328:mov2w_op *{*
                      02344 ;; ***  mov2w  1366  offset=2
                      02345 ;; >>> /home/sdcc-builder/build/sdcc-build/orig/sdcc/src/pic14/gen.c:1371:mov2w
                      02346 ;;      1097 rIdx = r0x105D 
                      02347 ;; BANKOPT2 BANKSEL dropped; r0x1017 present in same bank as r0x1018
01D1   08??           02348         MOVF    r0x1017,W       ;id=4818,key=014,inCond:1,outCond:14,flow seq=013,rIdx=r0x105D
                      02349 ;;      2120 left AOP_REG
                      02350 ;; >>> /home/sdcc-builder/build/sdcc-build/orig/sdcc/src/pic14/gen.c:2128:genCall
                      02351 ;; ***  popRegFromIdx,1030  , rIdx=0x7f
                      02352 ;; BANKOPT1 BANKSEL dropped; STK00 present in all of r0x1018's banks
01D2   00??           02353         MOVWF   STK00   ;id=4822,key=015,inCond:10,outCond:1,flow seq=013
                      02354 ;;; /home/sdcc-builder/build/sdcc-build/orig/sdcc/src/pic14/gen.c:1328:mov2w_op *{*
                      02355 ;; ***  mov2w  1366  offset=3
                      02356 ;; >>> /home/sdcc-builder/build/sdcc-build/orig/sdcc/src/pic14/gen.c:1371:mov2w
                      02357 ;;      1097 rIdx = r0x105E 
                      02358 ;; BANKOPT2 BANKSEL dropped; r0x1016 present in same bank as r0x1018
01D3   08??           02359         MOVF    r0x1016,W       ;id=4827,key=016,inCond:1,outCond:14,flow seq=013,rIdx=r0x105E
                      02360 ;; >>> /home/sdcc-builder/build/sdcc-build/orig/sdcc/src/pic14/gen.c:2160:genCall
01D4   0??? 0???      02361         PAGESEL ___fsdiv        ;id=4829,key=017,inCond:0,outCond:0,flow seq=013
                      02362 ;; >>> /home/sdcc-builder/build/sdcc-build/orig/sdcc/src/pic14/gen.c:2165:genCall
                      02363 ;; BANKOPT3 drop assumptions: PCI with label or call found
01D6   2???           02364         CALL    ___fsdiv        ;id=4831,key=018,inCond:10,outCond:1e,flow seq=013
                      02365 ;<>Start of new flow, seq=0x14 ancestor = 0x13
                      02366 ;  from: 013 ; to: 015 
                      02367 ;; >>> /home/sdcc-builder/build/sdcc-build/orig/sdcc/src/pic14/gen.c:2173:genCall
01D7   0??? 0???      02368         PAGESEL $       ;id=4833,key=000,inCond:0,outCond:0,flow seq=014
                      02369 ;;      695 register type nRegs=4
                      02370 ;;; /home/sdcc-builder/build/sdcc-build/orig/sdcc/src/pic14/gen.c:1892:assignResultValue *{*
                      02371 ;; ***  assignResultValue  1894
                      02372 ;;      line = 1896 result -=-, size=0, left AOP_REG=r0x105B, size=4, right -=-, size=0
gpasm-1.5.2 #0 (Sep 16 2019) build/default/pr   9-16-2019  10:40:44         PAGE 46


LOC    OBJECT CODE    LINE  SOURCE TEXT
  VALUE

                      02373 ;; >>> /home/sdcc-builder/build/sdcc-build/orig/sdcc/src/pic14/gen.c:1378:movwf
                      02374 ;;      1097 rIdx = r0x105E 
01D9   0??? 0???      02375         BANKSEL r0x1016 ;id=6258,key=001,inCond:0,outCond:0,flow seq=014
01DB   00??           02376         MOVWF   r0x1016 ;id=4840,key=002,inCond:10,outCond:1,flow seq=014,rIdx=r0x105E
                      02377 ;; >>> /home/sdcc-builder/build/sdcc-build/orig/sdcc/src/pic14/gen.c:1408:get_returnvalue
                      02378 ;; ***  popRegFromIdx,1030  , rIdx=0x7f
                      02379 ;; BANKOPT1 BANKSEL dropped; STK00 present in all of r0x1016's banks
01DC   08??           02380         MOVF    STK00,W ;id=4843,key=003,inCond:1,outCond:14,flow seq=014
                      02381 ;; >>> /home/sdcc-builder/build/sdcc-build/orig/sdcc/src/pic14/gen.c:1378:movwf
                      02382 ;;      1097 rIdx = r0x105D 
                      02383 ;; BANKOPT2 BANKSEL dropped; r0x1017 present in same bank as r0x1016
01DD   00??           02384         MOVWF   r0x1017 ;id=4846,key=004,inCond:10,outCond:1,flow seq=014,rIdx=r0x105D
                      02385 ;; >>> /home/sdcc-builder/build/sdcc-build/orig/sdcc/src/pic14/gen.c:1408:get_returnvalue
                      02386 ;; ***  popRegFromIdx,1030  , rIdx=0x7e
                      02387 ;; BANKOPT1 BANKSEL dropped; STK01 present in all of r0x1016's banks
01DE   08??           02388         MOVF    STK01,W ;id=4849,key=005,inCond:1,outCond:14,flow seq=014
                      02389 ;; >>> /home/sdcc-builder/build/sdcc-build/orig/sdcc/src/pic14/gen.c:1378:movwf
                      02390 ;;      1097 rIdx = r0x105C 
                      02391 ;; BANKOPT2 BANKSEL dropped; r0x1014 present in same bank as r0x1016
01DF   00??           02392         MOVWF   r0x1014 ;id=4852,key=006,inCond:10,outCond:1,flow seq=014,rIdx=r0x105C
                      02393 ;; >>> /home/sdcc-builder/build/sdcc-build/orig/sdcc/src/pic14/gen.c:1408:get_returnvalue
                      02394 ;; ***  popRegFromIdx,1030  , rIdx=0x7d
                      02395 ;; BANKOPT1 BANKSEL dropped; STK02 present in all of r0x1016's banks
01E0   08??           02396         MOVF    STK02,W ;id=4855,key=007,inCond:1,outCond:14,flow seq=014
                      02397 ;; >>> /home/sdcc-builder/build/sdcc-build/orig/sdcc/src/pic14/gen.c:1378:movwf
                      02398 ;;      1097 rIdx = r0x105B 
                      02399 ;; BANKOPT2 BANKSEL dropped; r0x1015 present in same bank as r0x1016
01E1   00??           02400         MOVWF   r0x1015 ;id=5912,key=008,inCond:10,outCond:1,flow seq=014,rIdx=r0x105B
                      02401 ;; BANKOPT1 BANKSEL dropped; STK06 present in all of r0x1016's banks
01E2   00??           02402         MOVWF   STK06   ;id=4880,key=009,inCond:10,outCond:1,flow seq=014
                      02403 ;;; /home/sdcc-builder/build/sdcc-build/orig/sdcc/src/pic14/gen.c:1328:mov2w_op *{*
                      02404 ;; ***  mov2w  1366  offset=1
                      02405 ;; >>> /home/sdcc-builder/build/sdcc-build/orig/sdcc/src/pic14/gen.c:1371:mov2w
                      02406 ;;      1097 rIdx = r0x105C 
                      02407 ;; BANKOPT2 BANKSEL dropped; r0x1014 present in same bank as r0x1016
01E3   08??           02408         MOVF    r0x1014,W       ;id=4885,key=00a,inCond:1,outCond:14,flow seq=014,rIdx=r0x105C
                      02409 ;;      2120 left AOP_REG
                      02410 ;; >>> /home/sdcc-builder/build/sdcc-build/orig/sdcc/src/pic14/gen.c:2128:genCall
                      02411 ;; ***  popRegFromIdx,1030  , rIdx=0x7a
                      02412 ;; BANKOPT1 BANKSEL dropped; STK05 present in all of r0x1016's banks
01E4   00??           02413         MOVWF   STK05   ;id=4889,key=00b,inCond:10,outCond:1,flow seq=014
                      02414 ;;; /home/sdcc-builder/build/sdcc-build/orig/sdcc/src/pic14/gen.c:1328:mov2w_op *{*
                      02415 ;; ***  mov2w  1366  offset=2
                      02416 ;; >>> /home/sdcc-builder/build/sdcc-build/orig/sdcc/src/pic14/gen.c:1371:mov2w
                      02417 ;;      1097 rIdx = r0x105D 
                      02418 ;; BANKOPT2 BANKSEL dropped; r0x1017 present in same bank as r0x1016
01E5   08??           02419         MOVF    r0x1017,W       ;id=4894,key=00c,inCond:1,outCond:14,flow seq=014,rIdx=r0x105D
                      02420 ;;      2120 left AOP_REG
                      02421 ;; >>> /home/sdcc-builder/build/sdcc-build/orig/sdcc/src/pic14/gen.c:2128:genCall
                      02422 ;; ***  popRegFromIdx,1030  , rIdx=0x7b
                      02423 ;; BANKOPT1 BANKSEL dropped; STK04 present in all of r0x1016's banks
01E6   00??           02424         MOVWF   STK04   ;id=4898,key=00d,inCond:10,outCond:1,flow seq=014
                      02425 ;;; /home/sdcc-builder/build/sdcc-build/orig/sdcc/src/pic14/gen.c:1328:mov2w_op *{*
gpasm-1.5.2 #0 (Sep 16 2019) build/default/pr   9-16-2019  10:40:44         PAGE 47


LOC    OBJECT CODE    LINE  SOURCE TEXT
  VALUE

                      02426 ;; ***  mov2w  1366  offset=3
                      02427 ;; >>> /home/sdcc-builder/build/sdcc-build/orig/sdcc/src/pic14/gen.c:1371:mov2w
                      02428 ;;      1097 rIdx = r0x105E 
                      02429 ;; BANKOPT2 BANKSEL dropped; r0x1016 present in same bank as r0x1016
01E7   08??           02430         MOVF    r0x1016,W       ;id=4903,key=00e,inCond:1,outCond:14,flow seq=014,rIdx=r0x105E
                      02431 ;;      2120 left AOP_LIT
                      02432 ;; >>> /home/sdcc-builder/build/sdcc-build/orig/sdcc/src/pic14/gen.c:2128:genCall
                      02433 ;; ***  popRegFromIdx,1030  , rIdx=0x7c
                      02434 ;; BANKOPT1 BANKSEL dropped; STK03 present in all of r0x1016's banks
01E8   00??           02435         MOVWF   STK03   ;id=4907,key=00f,inCond:10,outCond:1,flow seq=014
                      02436 ;;; /home/sdcc-builder/build/sdcc-build/orig/sdcc/src/pic14/gen.c:1328:mov2w_op *{*
                      02437 ;; >>> /home/sdcc-builder/build/sdcc-build/orig/sdcc/src/pic14/gen.c:1346:mov2w_op
01E9   30A9           02438         MOVLW   0xa9    ;id=4910,key=010,inCond:400,outCond:10,flow seq=014
                      02439 ;;      2120 left AOP_LIT
                      02440 ;; >>> /home/sdcc-builder/build/sdcc-build/orig/sdcc/src/pic14/gen.c:2128:genCall
                      02441 ;; ***  popRegFromIdx,1030  , rIdx=0x7d
                      02442 ;; BANKOPT1 BANKSEL dropped; STK02 present in all of r0x1016's banks
01EA   00??           02443         MOVWF   STK02   ;id=4914,key=011,inCond:10,outCond:1,flow seq=014
                      02444 ;;; /home/sdcc-builder/build/sdcc-build/orig/sdcc/src/pic14/gen.c:1328:mov2w_op *{*
                      02445 ;; >>> /home/sdcc-builder/build/sdcc-build/orig/sdcc/src/pic14/gen.c:1346:mov2w_op
01EB   305F           02446         MOVLW   0x5f    ;id=4917,key=012,inCond:400,outCond:10,flow seq=014
                      02447 ;;      2120 left AOP_LIT
                      02448 ;; >>> /home/sdcc-builder/build/sdcc-build/orig/sdcc/src/pic14/gen.c:2128:genCall
                      02449 ;; ***  popRegFromIdx,1030  , rIdx=0x7e
                      02450 ;; BANKOPT1 BANKSEL dropped; STK01 present in all of r0x1016's banks
01EC   00??           02451         MOVWF   STK01   ;id=4921,key=013,inCond:10,outCond:1,flow seq=014
                      02452 ;;; /home/sdcc-builder/build/sdcc-build/orig/sdcc/src/pic14/gen.c:1328:mov2w_op *{*
                      02453 ;; >>> /home/sdcc-builder/build/sdcc-build/orig/sdcc/src/pic14/gen.c:1346:mov2w_op
01ED   3063           02454         MOVLW   0x63    ;id=4924,key=014,inCond:400,outCond:10,flow seq=014
                      02455 ;;      2120 left AOP_LIT
                      02456 ;; >>> /home/sdcc-builder/build/sdcc-build/orig/sdcc/src/pic14/gen.c:2128:genCall
                      02457 ;; ***  popRegFromIdx,1030  , rIdx=0x7f
                      02458 ;; BANKOPT1 BANKSEL dropped; STK00 present in all of r0x1016's banks
01EE   00??           02459         MOVWF   STK00   ;id=4928,key=015,inCond:10,outCond:1,flow seq=014
                      02460 ;;; /home/sdcc-builder/build/sdcc-build/orig/sdcc/src/pic14/gen.c:1328:mov2w_op *{*
                      02461 ;; >>> /home/sdcc-builder/build/sdcc-build/orig/sdcc/src/pic14/gen.c:1346:mov2w_op
01EF   3058           02462         MOVLW   0x58    ;id=4931,key=016,inCond:400,outCond:10,flow seq=014
                      02463 ;; >>> /home/sdcc-builder/build/sdcc-build/orig/sdcc/src/pic14/gen.c:2160:genCall
01F0   0??? 0???      02464         PAGESEL ___fsmul        ;id=4933,key=017,inCond:0,outCond:0,flow seq=014
                      02465 ;; >>> /home/sdcc-builder/build/sdcc-build/orig/sdcc/src/pic14/gen.c:2165:genCall
                      02466 ;; BANKOPT3 drop assumptions: PCI with label or call found
01F2   2???           02467         CALL    ___fsmul        ;id=4935,key=018,inCond:10,outCond:1e,flow seq=014
                      02468 ;<>Start of new flow, seq=0x15 ancestor = 0x14
                      02469 ;  from: 014 ; to: 016 
                      02470 ;; >>> /home/sdcc-builder/build/sdcc-build/orig/sdcc/src/pic14/gen.c:2173:genCall
01F3   0??? 0???      02471         PAGESEL $       ;id=4937,key=000,inCond:0,outCond:0,flow seq=015
                      02472 ;;      695 register type nRegs=4
                      02473 ;;; /home/sdcc-builder/build/sdcc-build/orig/sdcc/src/pic14/gen.c:1892:assignResultValue *{*
                      02474 ;; ***  assignResultValue  1894
                      02475 ;;      line = 1896 result -=-, size=0, left AOP_REG=r0x105B, size=4, right -=-, size=0
                      02476 ;; >>> /home/sdcc-builder/build/sdcc-build/orig/sdcc/src/pic14/gen.c:1378:movwf
                      02477 ;;      1097 rIdx = r0x105E 
01F5   0??? 0???      02478         BANKSEL r0x1016 ;id=6276,key=001,inCond:0,outCond:0,flow seq=015
gpasm-1.5.2 #0 (Sep 16 2019) build/default/pr   9-16-2019  10:40:44         PAGE 48


LOC    OBJECT CODE    LINE  SOURCE TEXT
  VALUE

01F7   00??           02479         MOVWF   r0x1016 ;id=4944,key=002,inCond:10,outCond:1,flow seq=015,rIdx=r0x105E
                      02480 ;; >>> /home/sdcc-builder/build/sdcc-build/orig/sdcc/src/pic14/gen.c:1408:get_returnvalue
                      02481 ;; ***  popRegFromIdx,1030  , rIdx=0x7f
                      02482 ;; BANKOPT1 BANKSEL dropped; STK00 present in all of r0x1016's banks
01F8   08??           02483         MOVF    STK00,W ;id=4947,key=003,inCond:1,outCond:14,flow seq=015
                      02484 ;; >>> /home/sdcc-builder/build/sdcc-build/orig/sdcc/src/pic14/gen.c:1378:movwf
                      02485 ;;      1097 rIdx = r0x105D 
                      02486 ;; BANKOPT2 BANKSEL dropped; r0x1017 present in same bank as r0x1016
01F9   00??           02487         MOVWF   r0x1017 ;id=4950,key=004,inCond:10,outCond:1,flow seq=015,rIdx=r0x105D
                      02488 ;; >>> /home/sdcc-builder/build/sdcc-build/orig/sdcc/src/pic14/gen.c:1408:get_returnvalue
                      02489 ;; ***  popRegFromIdx,1030  , rIdx=0x7e
                      02490 ;; BANKOPT1 BANKSEL dropped; STK01 present in all of r0x1016's banks
01FA   08??           02491         MOVF    STK01,W ;id=4953,key=005,inCond:1,outCond:14,flow seq=015
                      02492 ;; >>> /home/sdcc-builder/build/sdcc-build/orig/sdcc/src/pic14/gen.c:1378:movwf
                      02493 ;;      1097 rIdx = r0x105C 
                      02494 ;; BANKOPT2 BANKSEL dropped; r0x1014 present in same bank as r0x1016
01FB   00??           02495         MOVWF   r0x1014 ;id=4956,key=006,inCond:10,outCond:1,flow seq=015,rIdx=r0x105C
                      02496 ;; >>> /home/sdcc-builder/build/sdcc-build/orig/sdcc/src/pic14/gen.c:1408:get_returnvalue
                      02497 ;; ***  popRegFromIdx,1030  , rIdx=0x7d
                      02498 ;; BANKOPT1 BANKSEL dropped; STK02 present in all of r0x1016's banks
01FC   08??           02499         MOVF    STK02,W ;id=4959,key=007,inCond:1,outCond:14,flow seq=015
                      02500 ;; >>> /home/sdcc-builder/build/sdcc-build/orig/sdcc/src/pic14/gen.c:1378:movwf
                      02501 ;;      1097 rIdx = r0x105B 
                      02502 ;; BANKOPT2 BANKSEL dropped; r0x1015 present in same bank as r0x1016
                      02503 ;       .line   218; "../../../src/measure.c"   if(Lin > 999) {
01FD   00??           02504         MOVWF   r0x1015 ;id=5913,key=008,inCond:10,outCond:1,flow seq=015,rIdx=r0x105B
                      02505 ;; BANKOPT1 BANKSEL dropped; STK06 present in all of r0x1016's banks
01FE   00??           02506         MOVWF   STK06   ;id=4985,key=009,inCond:10,outCond:1,flow seq=015
                      02507 ;;; /home/sdcc-builder/build/sdcc-build/orig/sdcc/src/pic14/gen.c:1328:mov2w_op *{*
                      02508 ;; ***  mov2w  1366  offset=1
                      02509 ;; >>> /home/sdcc-builder/build/sdcc-build/orig/sdcc/src/pic14/gen.c:1371:mov2w
                      02510 ;;      1097 rIdx = r0x105C 
                      02511 ;; BANKOPT2 BANKSEL dropped; r0x1014 present in same bank as r0x1016
01FF   08??           02512         MOVF    r0x1014,W       ;id=4990,key=00a,inCond:1,outCond:14,flow seq=015,rIdx=r0x105C
                      02513 ;;      2120 left AOP_REG
                      02514 ;; >>> /home/sdcc-builder/build/sdcc-build/orig/sdcc/src/pic14/gen.c:2128:genCall
                      02515 ;; ***  popRegFromIdx,1030  , rIdx=0x7a
                      02516 ;; BANKOPT1 BANKSEL dropped; STK05 present in all of r0x1016's banks
0200   00??           02517         MOVWF   STK05   ;id=4994,key=00b,inCond:10,outCond:1,flow seq=015
                      02518 ;;; /home/sdcc-builder/build/sdcc-build/orig/sdcc/src/pic14/gen.c:1328:mov2w_op *{*
                      02519 ;; ***  mov2w  1366  offset=2
                      02520 ;; >>> /home/sdcc-builder/build/sdcc-build/orig/sdcc/src/pic14/gen.c:1371:mov2w
                      02521 ;;      1097 rIdx = r0x105D 
                      02522 ;; BANKOPT2 BANKSEL dropped; r0x1017 present in same bank as r0x1016
0201   08??           02523         MOVF    r0x1017,W       ;id=4999,key=00c,inCond:1,outCond:14,flow seq=015,rIdx=r0x105D
                      02524 ;;      2120 left AOP_REG
                      02525 ;; >>> /home/sdcc-builder/build/sdcc-build/orig/sdcc/src/pic14/gen.c:2128:genCall
                      02526 ;; ***  popRegFromIdx,1030  , rIdx=0x7b
                      02527 ;; BANKOPT1 BANKSEL dropped; STK04 present in all of r0x1016's banks
0202   00??           02528         MOVWF   STK04   ;id=5003,key=00d,inCond:10,outCond:1,flow seq=015
                      02529 ;;; /home/sdcc-builder/build/sdcc-build/orig/sdcc/src/pic14/gen.c:1328:mov2w_op *{*
                      02530 ;; ***  mov2w  1366  offset=3
                      02531 ;; >>> /home/sdcc-builder/build/sdcc-build/orig/sdcc/src/pic14/gen.c:1371:mov2w
gpasm-1.5.2 #0 (Sep 16 2019) build/default/pr   9-16-2019  10:40:44         PAGE 49


LOC    OBJECT CODE    LINE  SOURCE TEXT
  VALUE

                      02532 ;;      1097 rIdx = r0x105E 
                      02533 ;; BANKOPT2 BANKSEL dropped; r0x1016 present in same bank as r0x1016
0203   08??           02534         MOVF    r0x1016,W       ;id=5008,key=00e,inCond:1,outCond:14,flow seq=015,rIdx=r0x105E
                      02535 ;;      2120 left AOP_LIT
                      02536 ;; >>> /home/sdcc-builder/build/sdcc-build/orig/sdcc/src/pic14/gen.c:2128:genCall
                      02537 ;; ***  popRegFromIdx,1030  , rIdx=0x7c
                      02538 ;; BANKOPT1 BANKSEL dropped; STK03 present in all of r0x1016's banks
0204   00??           02539         MOVWF   STK03   ;id=5012,key=00f,inCond:10,outCond:1,flow seq=015
                      02540 ;;; /home/sdcc-builder/build/sdcc-build/orig/sdcc/src/pic14/gen.c:1328:mov2w_op *{*
                      02541 ;; >>> /home/sdcc-builder/build/sdcc-build/orig/sdcc/src/pic14/gen.c:1346:mov2w_op
0205   3000           02542         MOVLW   0x00    ;id=5015,key=010,inCond:400,outCond:10,flow seq=015
                      02543 ;;      2120 left AOP_LIT
                      02544 ;; >>> /home/sdcc-builder/build/sdcc-build/orig/sdcc/src/pic14/gen.c:2128:genCall
                      02545 ;; ***  popRegFromIdx,1030  , rIdx=0x7d
                      02546 ;; BANKOPT1 BANKSEL dropped; STK02 present in all of r0x1016's banks
0206   00??           02547         MOVWF   STK02   ;id=5019,key=011,inCond:10,outCond:1,flow seq=015
                      02548 ;;; /home/sdcc-builder/build/sdcc-build/orig/sdcc/src/pic14/gen.c:1328:mov2w_op *{*
                      02549 ;; >>> /home/sdcc-builder/build/sdcc-build/orig/sdcc/src/pic14/gen.c:1346:mov2w_op
0207   30C0           02550         MOVLW   0xc0    ;id=5022,key=012,inCond:400,outCond:10,flow seq=015
                      02551 ;;      2120 left AOP_LIT
                      02552 ;; >>> /home/sdcc-builder/build/sdcc-build/orig/sdcc/src/pic14/gen.c:2128:genCall
                      02553 ;; ***  popRegFromIdx,1030  , rIdx=0x7e
                      02554 ;; BANKOPT1 BANKSEL dropped; STK01 present in all of r0x1016's banks
0208   00??           02555         MOVWF   STK01   ;id=5026,key=013,inCond:10,outCond:1,flow seq=015
                      02556 ;;; /home/sdcc-builder/build/sdcc-build/orig/sdcc/src/pic14/gen.c:1328:mov2w_op *{*
                      02557 ;; >>> /home/sdcc-builder/build/sdcc-build/orig/sdcc/src/pic14/gen.c:1346:mov2w_op
0209   3079           02558         MOVLW   0x79    ;id=5029,key=014,inCond:400,outCond:10,flow seq=015
                      02559 ;;      2120 left AOP_LIT
                      02560 ;; >>> /home/sdcc-builder/build/sdcc-build/orig/sdcc/src/pic14/gen.c:2128:genCall
                      02561 ;; ***  popRegFromIdx,1030  , rIdx=0x7f
                      02562 ;; BANKOPT1 BANKSEL dropped; STK00 present in all of r0x1016's banks
020A   00??           02563         MOVWF   STK00   ;id=5033,key=015,inCond:10,outCond:1,flow seq=015
                      02564 ;;; /home/sdcc-builder/build/sdcc-build/orig/sdcc/src/pic14/gen.c:1328:mov2w_op *{*
                      02565 ;; >>> /home/sdcc-builder/build/sdcc-build/orig/sdcc/src/pic14/gen.c:1346:mov2w_op
020B   3044           02566         MOVLW   0x44    ;id=5036,key=016,inCond:400,outCond:10,flow seq=015
                      02567 ;; >>> /home/sdcc-builder/build/sdcc-build/orig/sdcc/src/pic14/gen.c:2160:genCall
020C   0??? 0???      02568         PAGESEL ___fslt ;id=5038,key=017,inCond:0,outCond:0,flow seq=015
                      02569 ;; >>> /home/sdcc-builder/build/sdcc-build/orig/sdcc/src/pic14/gen.c:2165:genCall
                      02570 ;; BANKOPT3 drop assumptions: PCI with label or call found
020E   2???           02571         CALL    ___fslt ;id=5040,key=018,inCond:10,outCond:1e,flow seq=015
                      02572 ;<>Start of new flow, seq=0x16 ancestor = 0x15
                      02573 ;  from: 015 ; to: 018 017 
                      02574 ;; >>> /home/sdcc-builder/build/sdcc-build/orig/sdcc/src/pic14/gen.c:2173:genCall
020F   0??? 0???      02575         PAGESEL $       ;id=5042,key=000,inCond:0,outCond:0,flow seq=016
                      02576 ;;      695 register type nRegs=1
                      02577 ;;; /home/sdcc-builder/build/sdcc-build/orig/sdcc/src/pic14/gen.c:1892:assignResultValue *{*
                      02578 ;; ***  assignResultValue  1894
                      02579 ;;      line = 1896 result -=-, size=0, left AOP_REG=r0x105F, size=1, right -=-, size=0
                      02580 ;; >>> /home/sdcc-builder/build/sdcc-build/orig/sdcc/src/pic14/gen.c:1378:movwf
                      02581 ;;      1097 rIdx = r0x105F 
0211   0??? 0???      02582         BANKSEL r0x101B ;id=6294,key=001,inCond:0,outCond:0,flow seq=016
0213   00??           02583         MOVWF   r0x101B ;id=5049,key=002,inCond:10,outCond:1,flow seq=016,rIdx=r0x105F
                      02584 ;;      2188 left AOP_REG
gpasm-1.5.2 #0 (Sep 16 2019) build/default/pr   9-16-2019  10:40:44         PAGE 50


LOC    OBJECT CODE    LINE  SOURCE TEXT
  VALUE

                      02585 ;;; /home/sdcc-builder/build/sdcc-build/orig/sdcc/src/pic14/gen.c:1830:unsaveRegisters *{*
                      02586 ;; ***  unsaveRegisters  1832
                      02587 ;;; /home/sdcc-builder/build/sdcc-build/orig/sdcc/src/pic14/gen.c:2308:resultRemat *{*
                      02588 ;;; /home/sdcc-builder/build/sdcc-build/orig/sdcc/src/pic14/gen.c:6868:genIfx *{*
                      02589 ;; ***  genIfx  6869
                      02590 ;;      695 register type nRegs=1
                      02591 ;; ***  pic14_toBoolean  1500
                      02592 ;; >>> /home/sdcc-builder/build/sdcc-build/orig/sdcc/src/pic14/gen.c:1507:pic14_toBoolean
                      02593 ;; BANKOPT2 BANKSEL dropped; r0x101B present in same bank as r0x101B
0214   08??           02594         MOVF    r0x101B,W       ;id=5914,key=003,inCond:1,outCond:14,flow seq=016,rIdx=r0x105F
0215   1903           02595         BTFSC   STATUS,2        ;id=5064,key=004,inCond:25,outCond:0,flow seq=016
                      02596 ;<>Start of new flow, seq=0x17 ancestor = 0x16
                      02597 ;  from: 016 ; to: 024 
                      02598 ;; >>> /home/sdcc-builder/build/sdcc-build/orig/sdcc/src/pic14/gen.c:6923:genIfx
                      02599 ;; ***  popGetLabel  key=10, label offset 27
0216   2???           02600         GOTO    _00137_DS_      ;id=5067,key=000,inCond:0,outCond:0,flow seq=017
                      02601 ;<>Start of new flow, seq=0x18 ancestor = 0x16
                      02602 ;  from: 016 ; to: 019 
                      02603 ;;; /home/sdcc-builder/build/sdcc-build/orig/sdcc/src/pic14/gen.c:2308:resultRemat *{*
                      02604 ;;; /home/sdcc-builder/build/sdcc-build/orig/sdcc/src/pic14/gen.c:2308:resultRemat *{*
                      02605 ;;; /home/sdcc-builder/build/sdcc-build/orig/sdcc/src/pic14/gen.c:2308:resultRemat *{*
                      02606 ;;; /home/sdcc-builder/build/sdcc-build/orig/sdcc/src/pic14/gen.c:2071:genCall *{*
                      02607 ;; ***  genCall  2073
                      02608 ;;; /home/sdcc-builder/build/sdcc-build/orig/sdcc/src/pic14/gen.c:1786:saveRegisters *{*
                      02609 ;; ***  saveRegisters  1788
                      02610 ;;      695 register type nRegs=4
                      02611 ;;      695 register type nRegs=4
                      02612 ;;      2120 left AOP_REG
                      02613 ;;; /home/sdcc-builder/build/sdcc-build/orig/sdcc/src/pic14/gen.c:1328:mov2w_op *{*
                      02614 ;; ***  mov2w  1366  offset=0
                      02615 ;; >>> /home/sdcc-builder/build/sdcc-build/orig/sdcc/src/pic14/gen.c:1371:mov2w
                      02616 ;;      1097 rIdx = r0x105B 
                      02617 ;; BANKOPT2 BANKSEL dropped; r0x1015 present in same bank as r0x101B
                      02618 ;       .line   219; "../../../src/measure.c"   if(Lin > (999e+03l)) {
0217   08??           02619         MOVF    r0x1015,W       ;id=5083,key=000,inCond:1,outCond:14,flow seq=018,rIdx=r0x105B
                      02620 ;;      2120 left AOP_REG
                      02621 ;; >>> /home/sdcc-builder/build/sdcc-build/orig/sdcc/src/pic14/gen.c:2128:genCall
                      02622 ;; ***  popRegFromIdx,1030  , rIdx=0x79
                      02623 ;; BANKOPT1 BANKSEL dropped; STK06 present in all of r0x101B's banks
0218   00??           02624         MOVWF   STK06   ;id=5087,key=001,inCond:10,outCond:1,flow seq=018
                      02625 ;;; /home/sdcc-builder/build/sdcc-build/orig/sdcc/src/pic14/gen.c:1328:mov2w_op *{*
                      02626 ;; ***  mov2w  1366  offset=1
                      02627 ;; >>> /home/sdcc-builder/build/sdcc-build/orig/sdcc/src/pic14/gen.c:1371:mov2w
                      02628 ;;      1097 rIdx = r0x105C 
                      02629 ;; BANKOPT2 BANKSEL dropped; r0x1014 present in same bank as r0x101B
0219   08??           02630         MOVF    r0x1014,W       ;id=5092,key=002,inCond:1,outCond:14,flow seq=018,rIdx=r0x105C
                      02631 ;;      2120 left AOP_REG
                      02632 ;; >>> /home/sdcc-builder/build/sdcc-build/orig/sdcc/src/pic14/gen.c:2128:genCall
                      02633 ;; ***  popRegFromIdx,1030  , rIdx=0x7a
                      02634 ;; BANKOPT1 BANKSEL dropped; STK05 present in all of r0x101B's banks
021A   00??           02635         MOVWF   STK05   ;id=5096,key=003,inCond:10,outCond:1,flow seq=018
                      02636 ;;; /home/sdcc-builder/build/sdcc-build/orig/sdcc/src/pic14/gen.c:1328:mov2w_op *{*
                      02637 ;; ***  mov2w  1366  offset=2
gpasm-1.5.2 #0 (Sep 16 2019) build/default/pr   9-16-2019  10:40:44         PAGE 51


LOC    OBJECT CODE    LINE  SOURCE TEXT
  VALUE

                      02638 ;; >>> /home/sdcc-builder/build/sdcc-build/orig/sdcc/src/pic14/gen.c:1371:mov2w
                      02639 ;;      1097 rIdx = r0x105D 
                      02640 ;; BANKOPT2 BANKSEL dropped; r0x1017 present in same bank as r0x101B
021B   08??           02641         MOVF    r0x1017,W       ;id=5101,key=004,inCond:1,outCond:14,flow seq=018,rIdx=r0x105D
                      02642 ;;      2120 left AOP_REG
                      02643 ;; >>> /home/sdcc-builder/build/sdcc-build/orig/sdcc/src/pic14/gen.c:2128:genCall
                      02644 ;; ***  popRegFromIdx,1030  , rIdx=0x7b
                      02645 ;; BANKOPT1 BANKSEL dropped; STK04 present in all of r0x101B's banks
021C   00??           02646         MOVWF   STK04   ;id=5105,key=005,inCond:10,outCond:1,flow seq=018
                      02647 ;;; /home/sdcc-builder/build/sdcc-build/orig/sdcc/src/pic14/gen.c:1328:mov2w_op *{*
                      02648 ;; ***  mov2w  1366  offset=3
                      02649 ;; >>> /home/sdcc-builder/build/sdcc-build/orig/sdcc/src/pic14/gen.c:1371:mov2w
                      02650 ;;      1097 rIdx = r0x105E 
                      02651 ;; BANKOPT2 BANKSEL dropped; r0x1016 present in same bank as r0x101B
021D   08??           02652         MOVF    r0x1016,W       ;id=5110,key=006,inCond:1,outCond:14,flow seq=018,rIdx=r0x105E
                      02653 ;;      2120 left AOP_LIT
                      02654 ;; >>> /home/sdcc-builder/build/sdcc-build/orig/sdcc/src/pic14/gen.c:2128:genCall
                      02655 ;; ***  popRegFromIdx,1030  , rIdx=0x7c
                      02656 ;; BANKOPT1 BANKSEL dropped; STK03 present in all of r0x101B's banks
021E   00??           02657         MOVWF   STK03   ;id=5114,key=007,inCond:10,outCond:1,flow seq=018
                      02658 ;;; /home/sdcc-builder/build/sdcc-build/orig/sdcc/src/pic14/gen.c:1328:mov2w_op *{*
                      02659 ;; >>> /home/sdcc-builder/build/sdcc-build/orig/sdcc/src/pic14/gen.c:1346:mov2w_op
021F   3080           02660         MOVLW   0x80    ;id=5117,key=008,inCond:400,outCond:10,flow seq=018
                      02661 ;;      2120 left AOP_LIT
                      02662 ;; >>> /home/sdcc-builder/build/sdcc-build/orig/sdcc/src/pic14/gen.c:2128:genCall
                      02663 ;; ***  popRegFromIdx,1030  , rIdx=0x7d
                      02664 ;; BANKOPT1 BANKSEL dropped; STK02 present in all of r0x101B's banks
0220   00??           02665         MOVWF   STK02   ;id=5121,key=009,inCond:10,outCond:1,flow seq=018
                      02666 ;;; /home/sdcc-builder/build/sdcc-build/orig/sdcc/src/pic14/gen.c:1328:mov2w_op *{*
                      02667 ;; >>> /home/sdcc-builder/build/sdcc-build/orig/sdcc/src/pic14/gen.c:1346:mov2w_op
0221   30E5           02668         MOVLW   0xe5    ;id=5124,key=00a,inCond:400,outCond:10,flow seq=018
                      02669 ;;      2120 left AOP_LIT
                      02670 ;; >>> /home/sdcc-builder/build/sdcc-build/orig/sdcc/src/pic14/gen.c:2128:genCall
                      02671 ;; ***  popRegFromIdx,1030  , rIdx=0x7e
                      02672 ;; BANKOPT1 BANKSEL dropped; STK01 present in all of r0x101B's banks
0222   00??           02673         MOVWF   STK01   ;id=5128,key=00b,inCond:10,outCond:1,flow seq=018
                      02674 ;;; /home/sdcc-builder/build/sdcc-build/orig/sdcc/src/pic14/gen.c:1328:mov2w_op *{*
                      02675 ;; >>> /home/sdcc-builder/build/sdcc-build/orig/sdcc/src/pic14/gen.c:1346:mov2w_op
0223   3073           02676         MOVLW   0x73    ;id=5131,key=00c,inCond:400,outCond:10,flow seq=018
                      02677 ;;      2120 left AOP_LIT
                      02678 ;; >>> /home/sdcc-builder/build/sdcc-build/orig/sdcc/src/pic14/gen.c:2128:genCall
                      02679 ;; ***  popRegFromIdx,1030  , rIdx=0x7f
                      02680 ;; BANKOPT1 BANKSEL dropped; STK00 present in all of r0x101B's banks
0224   00??           02681         MOVWF   STK00   ;id=5135,key=00d,inCond:10,outCond:1,flow seq=018
                      02682 ;;; /home/sdcc-builder/build/sdcc-build/orig/sdcc/src/pic14/gen.c:1328:mov2w_op *{*
                      02683 ;; >>> /home/sdcc-builder/build/sdcc-build/orig/sdcc/src/pic14/gen.c:1346:mov2w_op
0225   3049           02684         MOVLW   0x49    ;id=5138,key=00e,inCond:400,outCond:10,flow seq=018
                      02685 ;; >>> /home/sdcc-builder/build/sdcc-build/orig/sdcc/src/pic14/gen.c:2160:genCall
0226   0??? 0???      02686         PAGESEL ___fslt ;id=5140,key=00f,inCond:0,outCond:0,flow seq=018
                      02687 ;; >>> /home/sdcc-builder/build/sdcc-build/orig/sdcc/src/pic14/gen.c:2165:genCall
                      02688 ;; BANKOPT3 drop assumptions: PCI with label or call found
0228   2???           02689         CALL    ___fslt ;id=5142,key=010,inCond:10,outCond:1e,flow seq=018
                      02690 ;<>Start of new flow, seq=0x19 ancestor = 0x18
gpasm-1.5.2 #0 (Sep 16 2019) build/default/pr   9-16-2019  10:40:44         PAGE 52


LOC    OBJECT CODE    LINE  SOURCE TEXT
  VALUE

                      02691 ;  from: 018 ; to: 01b 01a 
                      02692 ;; >>> /home/sdcc-builder/build/sdcc-build/orig/sdcc/src/pic14/gen.c:2173:genCall
0229   0??? 0???      02693         PAGESEL $       ;id=5144,key=000,inCond:0,outCond:0,flow seq=019
                      02694 ;;      695 register type nRegs=1
                      02695 ;;; /home/sdcc-builder/build/sdcc-build/orig/sdcc/src/pic14/gen.c:1892:assignResultValue *{*
                      02696 ;; ***  assignResultValue  1894
                      02697 ;;      line = 1896 result -=-, size=0, left AOP_REG=r0x105F, size=1, right -=-, size=0
                      02698 ;; >>> /home/sdcc-builder/build/sdcc-build/orig/sdcc/src/pic14/gen.c:1378:movwf
                      02699 ;;      1097 rIdx = r0x105F 
022B   0??? 0???      02700         BANKSEL r0x101B ;id=6308,key=001,inCond:0,outCond:0,flow seq=019
022D   00??           02701         MOVWF   r0x101B ;id=5151,key=002,inCond:10,outCond:1,flow seq=019,rIdx=r0x105F
                      02702 ;;      2188 left AOP_REG
                      02703 ;;; /home/sdcc-builder/build/sdcc-build/orig/sdcc/src/pic14/gen.c:1830:unsaveRegisters *{*
                      02704 ;; ***  unsaveRegisters  1832
                      02705 ;;; /home/sdcc-builder/build/sdcc-build/orig/sdcc/src/pic14/gen.c:2308:resultRemat *{*
                      02706 ;;; /home/sdcc-builder/build/sdcc-build/orig/sdcc/src/pic14/gen.c:6868:genIfx *{*
                      02707 ;; ***  genIfx  6869
                      02708 ;;      695 register type nRegs=1
                      02709 ;; ***  pic14_toBoolean  1500
                      02710 ;; >>> /home/sdcc-builder/build/sdcc-build/orig/sdcc/src/pic14/gen.c:1507:pic14_toBoolean
                      02711 ;; BANKOPT2 BANKSEL dropped; r0x101B present in same bank as r0x101B
022E   08??           02712         MOVF    r0x101B,W       ;id=5915,key=003,inCond:1,outCond:14,flow seq=019,rIdx=r0x105F
022F   1903           02713         BTFSC   STATUS,2        ;id=5166,key=004,inCond:25,outCond:0,flow seq=019
                      02714 ;<>Start of new flow, seq=0x1a ancestor = 0x19
                      02715 ;  from: 019 ; to: 022 
                      02716 ;; >>> /home/sdcc-builder/build/sdcc-build/orig/sdcc/src/pic14/gen.c:6923:genIfx
                      02717 ;; ***  popGetLabel  key=7, label offset 27
0230   2???           02718         GOTO    _00134_DS_      ;id=5169,key=000,inCond:0,outCond:0,flow seq=01a
                      02719 ;<>Start of new flow, seq=0x1b ancestor = 0x19
                      02720 ;  from: 019 ; to: 01c 
                      02721 ;;; /home/sdcc-builder/build/sdcc-build/orig/sdcc/src/pic14/gen.c:2308:resultRemat *{*
                      02722 ;;; /home/sdcc-builder/build/sdcc-build/orig/sdcc/src/pic14/gen.c:2308:resultRemat *{*
                      02723 ;;; /home/sdcc-builder/build/sdcc-build/orig/sdcc/src/pic14/gen.c:2308:resultRemat *{*
                      02724 ;;; /home/sdcc-builder/build/sdcc-build/orig/sdcc/src/pic14/gen.c:2071:genCall *{*
                      02725 ;; ***  genCall  2073
                      02726 ;;; /home/sdcc-builder/build/sdcc-build/orig/sdcc/src/pic14/gen.c:1786:saveRegisters *{*
                      02727 ;; ***  saveRegisters  1788
                      02728 ;;      695 register type nRegs=4
                      02729 ;;      695 register type nRegs=4
                      02730 ;;      2120 left AOP_REG
                      02731 ;;; /home/sdcc-builder/build/sdcc-build/orig/sdcc/src/pic14/gen.c:1328:mov2w_op *{*
                      02732 ;; ***  mov2w  1366  offset=0
                      02733 ;; >>> /home/sdcc-builder/build/sdcc-build/orig/sdcc/src/pic14/gen.c:1371:mov2w
                      02734 ;;      1097 rIdx = r0x105B 
                      02735 ;; BANKOPT2 BANKSEL dropped; r0x1015 present in same bank as r0x101B
                      02736 ;       .line   220; "../../../src/measure.c"   if(Lin > (999e+06l)) {
0231   08??           02737         MOVF    r0x1015,W       ;id=5185,key=000,inCond:1,outCond:14,flow seq=01b,rIdx=r0x105B
                      02738 ;;      2120 left AOP_REG
                      02739 ;; >>> /home/sdcc-builder/build/sdcc-build/orig/sdcc/src/pic14/gen.c:2128:genCall
                      02740 ;; ***  popRegFromIdx,1030  , rIdx=0x79
                      02741 ;; BANKOPT1 BANKSEL dropped; STK06 present in all of r0x101B's banks
0232   00??           02742         MOVWF   STK06   ;id=5189,key=001,inCond:10,outCond:1,flow seq=01b
                      02743 ;;; /home/sdcc-builder/build/sdcc-build/orig/sdcc/src/pic14/gen.c:1328:mov2w_op *{*
gpasm-1.5.2 #0 (Sep 16 2019) build/default/pr   9-16-2019  10:40:44         PAGE 53


LOC    OBJECT CODE    LINE  SOURCE TEXT
  VALUE

                      02744 ;; ***  mov2w  1366  offset=1
                      02745 ;; >>> /home/sdcc-builder/build/sdcc-build/orig/sdcc/src/pic14/gen.c:1371:mov2w
                      02746 ;;      1097 rIdx = r0x105C 
                      02747 ;; BANKOPT2 BANKSEL dropped; r0x1014 present in same bank as r0x101B
0233   08??           02748         MOVF    r0x1014,W       ;id=5194,key=002,inCond:1,outCond:14,flow seq=01b,rIdx=r0x105C
                      02749 ;;      2120 left AOP_REG
                      02750 ;; >>> /home/sdcc-builder/build/sdcc-build/orig/sdcc/src/pic14/gen.c:2128:genCall
                      02751 ;; ***  popRegFromIdx,1030  , rIdx=0x7a
                      02752 ;; BANKOPT1 BANKSEL dropped; STK05 present in all of r0x101B's banks
0234   00??           02753         MOVWF   STK05   ;id=5198,key=003,inCond:10,outCond:1,flow seq=01b
                      02754 ;;; /home/sdcc-builder/build/sdcc-build/orig/sdcc/src/pic14/gen.c:1328:mov2w_op *{*
                      02755 ;; ***  mov2w  1366  offset=2
                      02756 ;; >>> /home/sdcc-builder/build/sdcc-build/orig/sdcc/src/pic14/gen.c:1371:mov2w
                      02757 ;;      1097 rIdx = r0x105D 
                      02758 ;; BANKOPT2 BANKSEL dropped; r0x1017 present in same bank as r0x101B
0235   08??           02759         MOVF    r0x1017,W       ;id=5203,key=004,inCond:1,outCond:14,flow seq=01b,rIdx=r0x105D
                      02760 ;;      2120 left AOP_REG
                      02761 ;; >>> /home/sdcc-builder/build/sdcc-build/orig/sdcc/src/pic14/gen.c:2128:genCall
                      02762 ;; ***  popRegFromIdx,1030  , rIdx=0x7b
                      02763 ;; BANKOPT1 BANKSEL dropped; STK04 present in all of r0x101B's banks
0236   00??           02764         MOVWF   STK04   ;id=5207,key=005,inCond:10,outCond:1,flow seq=01b
                      02765 ;;; /home/sdcc-builder/build/sdcc-build/orig/sdcc/src/pic14/gen.c:1328:mov2w_op *{*
                      02766 ;; ***  mov2w  1366  offset=3
                      02767 ;; >>> /home/sdcc-builder/build/sdcc-build/orig/sdcc/src/pic14/gen.c:1371:mov2w
                      02768 ;;      1097 rIdx = r0x105E 
                      02769 ;; BANKOPT2 BANKSEL dropped; r0x1016 present in same bank as r0x101B
0237   08??           02770         MOVF    r0x1016,W       ;id=5212,key=006,inCond:1,outCond:14,flow seq=01b,rIdx=r0x105E
                      02771 ;;      2120 left AOP_LIT
                      02772 ;; >>> /home/sdcc-builder/build/sdcc-build/orig/sdcc/src/pic14/gen.c:2128:genCall
                      02773 ;; ***  popRegFromIdx,1030  , rIdx=0x7c
                      02774 ;; BANKOPT1 BANKSEL dropped; STK03 present in all of r0x101B's banks
0238   00??           02775         MOVWF   STK03   ;id=5216,key=007,inCond:10,outCond:1,flow seq=01b
                      02776 ;;; /home/sdcc-builder/build/sdcc-build/orig/sdcc/src/pic14/gen.c:1328:mov2w_op *{*
                      02777 ;; >>> /home/sdcc-builder/build/sdcc-build/orig/sdcc/src/pic14/gen.c:1346:mov2w_op
0239   301F           02778         MOVLW   0x1f    ;id=5219,key=008,inCond:400,outCond:10,flow seq=01b
                      02779 ;;      2120 left AOP_LIT
                      02780 ;; >>> /home/sdcc-builder/build/sdcc-build/orig/sdcc/src/pic14/gen.c:2128:genCall
                      02781 ;; ***  popRegFromIdx,1030  , rIdx=0x7d
                      02782 ;; BANKOPT1 BANKSEL dropped; STK02 present in all of r0x101B's banks
023A   00??           02783         MOVWF   STK02   ;id=5223,key=009,inCond:10,outCond:1,flow seq=01b
                      02784 ;;; /home/sdcc-builder/build/sdcc-build/orig/sdcc/src/pic14/gen.c:1328:mov2w_op *{*
                      02785 ;; >>> /home/sdcc-builder/build/sdcc-build/orig/sdcc/src/pic14/gen.c:1346:mov2w_op
023B   302E           02786         MOVLW   0x2e    ;id=5226,key=00a,inCond:400,outCond:10,flow seq=01b
                      02787 ;;      2120 left AOP_LIT
                      02788 ;; >>> /home/sdcc-builder/build/sdcc-build/orig/sdcc/src/pic14/gen.c:2128:genCall
                      02789 ;; ***  popRegFromIdx,1030  , rIdx=0x7e
                      02790 ;; BANKOPT1 BANKSEL dropped; STK01 present in all of r0x101B's banks
023C   00??           02791         MOVWF   STK01   ;id=5230,key=00b,inCond:10,outCond:1,flow seq=01b
                      02792 ;;; /home/sdcc-builder/build/sdcc-build/orig/sdcc/src/pic14/gen.c:1328:mov2w_op *{*
                      02793 ;; >>> /home/sdcc-builder/build/sdcc-build/orig/sdcc/src/pic14/gen.c:1346:mov2w_op
023D   306E           02794         MOVLW   0x6e    ;id=5233,key=00c,inCond:400,outCond:10,flow seq=01b
                      02795 ;;      2120 left AOP_LIT
                      02796 ;; >>> /home/sdcc-builder/build/sdcc-build/orig/sdcc/src/pic14/gen.c:2128:genCall
gpasm-1.5.2 #0 (Sep 16 2019) build/default/pr   9-16-2019  10:40:44         PAGE 54


LOC    OBJECT CODE    LINE  SOURCE TEXT
  VALUE

                      02797 ;; ***  popRegFromIdx,1030  , rIdx=0x7f
                      02798 ;; BANKOPT1 BANKSEL dropped; STK00 present in all of r0x101B's banks
023E   00??           02799         MOVWF   STK00   ;id=5237,key=00d,inCond:10,outCond:1,flow seq=01b
                      02800 ;;; /home/sdcc-builder/build/sdcc-build/orig/sdcc/src/pic14/gen.c:1328:mov2w_op *{*
                      02801 ;; >>> /home/sdcc-builder/build/sdcc-build/orig/sdcc/src/pic14/gen.c:1346:mov2w_op
023F   304E           02802         MOVLW   0x4e    ;id=5240,key=00e,inCond:400,outCond:10,flow seq=01b
                      02803 ;; >>> /home/sdcc-builder/build/sdcc-build/orig/sdcc/src/pic14/gen.c:2160:genCall
0240   0??? 0???      02804         PAGESEL ___fslt ;id=5242,key=00f,inCond:0,outCond:0,flow seq=01b
                      02805 ;; >>> /home/sdcc-builder/build/sdcc-build/orig/sdcc/src/pic14/gen.c:2165:genCall
                      02806 ;; BANKOPT3 drop assumptions: PCI with label or call found
0242   2???           02807         CALL    ___fslt ;id=5244,key=010,inCond:10,outCond:1e,flow seq=01b
                      02808 ;<>Start of new flow, seq=0x1c ancestor = 0x1b
                      02809 ;  from: 01b ; to: 01e 01d 
                      02810 ;; >>> /home/sdcc-builder/build/sdcc-build/orig/sdcc/src/pic14/gen.c:2173:genCall
0243   0??? 0???      02811         PAGESEL $       ;id=5246,key=000,inCond:0,outCond:0,flow seq=01c
                      02812 ;;      695 register type nRegs=1
                      02813 ;;; /home/sdcc-builder/build/sdcc-build/orig/sdcc/src/pic14/gen.c:1892:assignResultValue *{*
                      02814 ;; ***  assignResultValue  1894
                      02815 ;;      line = 1896 result -=-, size=0, left AOP_REG=r0x105F, size=1, right -=-, size=0
                      02816 ;; >>> /home/sdcc-builder/build/sdcc-build/orig/sdcc/src/pic14/gen.c:1378:movwf
                      02817 ;;      1097 rIdx = r0x105F 
0245   0??? 0???      02818         BANKSEL r0x101B ;id=6322,key=001,inCond:0,outCond:0,flow seq=01c
0247   00??           02819         MOVWF   r0x101B ;id=5253,key=002,inCond:10,outCond:1,flow seq=01c,rIdx=r0x105F
                      02820 ;;      2188 left AOP_REG
                      02821 ;;; /home/sdcc-builder/build/sdcc-build/orig/sdcc/src/pic14/gen.c:1830:unsaveRegisters *{*
                      02822 ;; ***  unsaveRegisters  1832
                      02823 ;;; /home/sdcc-builder/build/sdcc-build/orig/sdcc/src/pic14/gen.c:2308:resultRemat *{*
                      02824 ;;; /home/sdcc-builder/build/sdcc-build/orig/sdcc/src/pic14/gen.c:6868:genIfx *{*
                      02825 ;; ***  genIfx  6869
                      02826 ;;      695 register type nRegs=1
                      02827 ;; ***  pic14_toBoolean  1500
                      02828 ;; >>> /home/sdcc-builder/build/sdcc-build/orig/sdcc/src/pic14/gen.c:1507:pic14_toBoolean
                      02829 ;; BANKOPT2 BANKSEL dropped; r0x101B present in same bank as r0x101B
0248   08??           02830         MOVF    r0x101B,W       ;id=5916,key=003,inCond:1,outCond:14,flow seq=01c,rIdx=r0x105F
0249   1903           02831         BTFSC   STATUS,2        ;id=5268,key=004,inCond:25,outCond:0,flow seq=01c
                      02832 ;<>Start of new flow, seq=0x1d ancestor = 0x1c
                      02833 ;  from: 01c ; to: 020 
                      02834 ;; >>> /home/sdcc-builder/build/sdcc-build/orig/sdcc/src/pic14/gen.c:6923:genIfx
                      02835 ;; ***  popGetLabel  key=4, label offset 27
024A   2???           02836         GOTO    _00131_DS_      ;id=5271,key=000,inCond:0,outCond:0,flow seq=01d
                      02837 ;<>Start of new flow, seq=0x1e ancestor = 0x1c
                      02838 ;  from: 01c ; to: 01f 
                      02839 ;;; /home/sdcc-builder/build/sdcc-build/orig/sdcc/src/pic14/gen.c:2308:resultRemat *{*
                      02840 ;;; /home/sdcc-builder/build/sdcc-build/orig/sdcc/src/pic14/gen.c:2308:resultRemat *{*
                      02841 ;;; /home/sdcc-builder/build/sdcc-build/orig/sdcc/src/pic14/gen.c:2308:resultRemat *{*
                      02842 ;;; /home/sdcc-builder/build/sdcc-build/orig/sdcc/src/pic14/gen.c:2071:genCall *{*
                      02843 ;; ***  genCall  2073
                      02844 ;;; /home/sdcc-builder/build/sdcc-build/orig/sdcc/src/pic14/gen.c:1786:saveRegisters *{*
                      02845 ;; ***  saveRegisters  1788
                      02846 ;;      695 register type nRegs=4
                      02847 ;;      2120 left AOP_LIT
                      02848 ;;; /home/sdcc-builder/build/sdcc-build/orig/sdcc/src/pic14/gen.c:1328:mov2w_op *{*
                      02849 ;; >>> /home/sdcc-builder/build/sdcc-build/orig/sdcc/src/pic14/gen.c:1346:mov2w_op
gpasm-1.5.2 #0 (Sep 16 2019) build/default/pr   9-16-2019  10:40:44         PAGE 55


LOC    OBJECT CODE    LINE  SOURCE TEXT
  VALUE

                      02850 ;       .line   221; "../../../src/measure.c"   Lin = Lin / (1e+09l);
024B   3028           02851         MOVLW   0x28    ;id=5284,key=000,inCond:400,outCond:10,flow seq=01e
                      02852 ;;      2120 left AOP_LIT
                      02853 ;; >>> /home/sdcc-builder/build/sdcc-build/orig/sdcc/src/pic14/gen.c:2128:genCall
                      02854 ;; ***  popRegFromIdx,1030  , rIdx=0x79
                      02855 ;; BANKOPT1 BANKSEL dropped; STK06 present in all of r0x101B's banks
024C   00??           02856         MOVWF   STK06   ;id=5288,key=001,inCond:10,outCond:1,flow seq=01e
                      02857 ;;; /home/sdcc-builder/build/sdcc-build/orig/sdcc/src/pic14/gen.c:1328:mov2w_op *{*
                      02858 ;; >>> /home/sdcc-builder/build/sdcc-build/orig/sdcc/src/pic14/gen.c:1346:mov2w_op
024D   306B           02859         MOVLW   0x6b    ;id=5291,key=002,inCond:400,outCond:10,flow seq=01e
                      02860 ;;      2120 left AOP_LIT
                      02861 ;; >>> /home/sdcc-builder/build/sdcc-build/orig/sdcc/src/pic14/gen.c:2128:genCall
                      02862 ;; ***  popRegFromIdx,1030  , rIdx=0x7a
                      02863 ;; BANKOPT1 BANKSEL dropped; STK05 present in all of r0x101B's banks
024E   00??           02864         MOVWF   STK05   ;id=5295,key=003,inCond:10,outCond:1,flow seq=01e
                      02865 ;;; /home/sdcc-builder/build/sdcc-build/orig/sdcc/src/pic14/gen.c:1328:mov2w_op *{*
                      02866 ;; >>> /home/sdcc-builder/build/sdcc-build/orig/sdcc/src/pic14/gen.c:1346:mov2w_op
024F   306E           02867         MOVLW   0x6e    ;id=5298,key=004,inCond:400,outCond:10,flow seq=01e
                      02868 ;;      2120 left AOP_LIT
                      02869 ;; >>> /home/sdcc-builder/build/sdcc-build/orig/sdcc/src/pic14/gen.c:2128:genCall
                      02870 ;; ***  popRegFromIdx,1030  , rIdx=0x7b
                      02871 ;; BANKOPT1 BANKSEL dropped; STK04 present in all of r0x101B's banks
0250   00??           02872         MOVWF   STK04   ;id=5302,key=005,inCond:10,outCond:1,flow seq=01e
                      02873 ;;; /home/sdcc-builder/build/sdcc-build/orig/sdcc/src/pic14/gen.c:1328:mov2w_op *{*
                      02874 ;; >>> /home/sdcc-builder/build/sdcc-build/orig/sdcc/src/pic14/gen.c:1346:mov2w_op
0251   304E           02875         MOVLW   0x4e    ;id=5305,key=006,inCond:400,outCond:10,flow seq=01e
                      02876 ;;      695 register type nRegs=4
                      02877 ;;      2120 left AOP_REG
                      02878 ;; >>> /home/sdcc-builder/build/sdcc-build/orig/sdcc/src/pic14/gen.c:2128:genCall
                      02879 ;; ***  popRegFromIdx,1030  , rIdx=0x7c
                      02880 ;; BANKOPT1 BANKSEL dropped; STK03 present in all of r0x101B's banks
0252   00??           02881         MOVWF   STK03   ;id=5310,key=007,inCond:10,outCond:1,flow seq=01e
                      02882 ;;; /home/sdcc-builder/build/sdcc-build/orig/sdcc/src/pic14/gen.c:1328:mov2w_op *{*
                      02883 ;; ***  mov2w  1366  offset=0
                      02884 ;; >>> /home/sdcc-builder/build/sdcc-build/orig/sdcc/src/pic14/gen.c:1371:mov2w
                      02885 ;;      1097 rIdx = r0x105B 
                      02886 ;; BANKOPT2 BANKSEL dropped; r0x1015 present in same bank as r0x101B
0253   08??           02887         MOVF    r0x1015,W       ;id=5315,key=008,inCond:1,outCond:14,flow seq=01e,rIdx=r0x105B
                      02888 ;;      2120 left AOP_REG
                      02889 ;; >>> /home/sdcc-builder/build/sdcc-build/orig/sdcc/src/pic14/gen.c:2128:genCall
                      02890 ;; ***  popRegFromIdx,1030  , rIdx=0x7d
                      02891 ;; BANKOPT1 BANKSEL dropped; STK02 present in all of r0x101B's banks
0254   00??           02892         MOVWF   STK02   ;id=5319,key=009,inCond:10,outCond:1,flow seq=01e
                      02893 ;;; /home/sdcc-builder/build/sdcc-build/orig/sdcc/src/pic14/gen.c:1328:mov2w_op *{*
                      02894 ;; ***  mov2w  1366  offset=1
                      02895 ;; >>> /home/sdcc-builder/build/sdcc-build/orig/sdcc/src/pic14/gen.c:1371:mov2w
                      02896 ;;      1097 rIdx = r0x105C 
                      02897 ;; BANKOPT2 BANKSEL dropped; r0x1014 present in same bank as r0x101B
0255   08??           02898         MOVF    r0x1014,W       ;id=5324,key=00a,inCond:1,outCond:14,flow seq=01e,rIdx=r0x105C
                      02899 ;;      2120 left AOP_REG
                      02900 ;; >>> /home/sdcc-builder/build/sdcc-build/orig/sdcc/src/pic14/gen.c:2128:genCall
                      02901 ;; ***  popRegFromIdx,1030  , rIdx=0x7e
                      02902 ;; BANKOPT1 BANKSEL dropped; STK01 present in all of r0x101B's banks
gpasm-1.5.2 #0 (Sep 16 2019) build/default/pr   9-16-2019  10:40:44         PAGE 56


LOC    OBJECT CODE    LINE  SOURCE TEXT
  VALUE

0256   00??           02903         MOVWF   STK01   ;id=5328,key=00b,inCond:10,outCond:1,flow seq=01e
                      02904 ;;; /home/sdcc-builder/build/sdcc-build/orig/sdcc/src/pic14/gen.c:1328:mov2w_op *{*
                      02905 ;; ***  mov2w  1366  offset=2
                      02906 ;; >>> /home/sdcc-builder/build/sdcc-build/orig/sdcc/src/pic14/gen.c:1371:mov2w
                      02907 ;;      1097 rIdx = r0x105D 
                      02908 ;; BANKOPT2 BANKSEL dropped; r0x1017 present in same bank as r0x101B
0257   08??           02909         MOVF    r0x1017,W       ;id=5333,key=00c,inCond:1,outCond:14,flow seq=01e,rIdx=r0x105D
                      02910 ;;      2120 left AOP_REG
                      02911 ;; >>> /home/sdcc-builder/build/sdcc-build/orig/sdcc/src/pic14/gen.c:2128:genCall
                      02912 ;; ***  popRegFromIdx,1030  , rIdx=0x7f
                      02913 ;; BANKOPT1 BANKSEL dropped; STK00 present in all of r0x101B's banks
0258   00??           02914         MOVWF   STK00   ;id=5337,key=00d,inCond:10,outCond:1,flow seq=01e
                      02915 ;;; /home/sdcc-builder/build/sdcc-build/orig/sdcc/src/pic14/gen.c:1328:mov2w_op *{*
                      02916 ;; ***  mov2w  1366  offset=3
                      02917 ;; >>> /home/sdcc-builder/build/sdcc-build/orig/sdcc/src/pic14/gen.c:1371:mov2w
                      02918 ;;      1097 rIdx = r0x105E 
                      02919 ;; BANKOPT2 BANKSEL dropped; r0x1016 present in same bank as r0x101B
0259   08??           02920         MOVF    r0x1016,W       ;id=5342,key=00e,inCond:1,outCond:14,flow seq=01e,rIdx=r0x105E
                      02921 ;; >>> /home/sdcc-builder/build/sdcc-build/orig/sdcc/src/pic14/gen.c:2160:genCall
025A   0??? 0???      02922         PAGESEL ___fsdiv        ;id=5344,key=00f,inCond:0,outCond:0,flow seq=01e
                      02923 ;; >>> /home/sdcc-builder/build/sdcc-build/orig/sdcc/src/pic14/gen.c:2165:genCall
                      02924 ;; BANKOPT3 drop assumptions: PCI with label or call found
025C   2???           02925         CALL    ___fsdiv        ;id=5346,key=010,inCond:10,outCond:1e,flow seq=01e
                      02926 ;<>Start of new flow, seq=0x1f ancestor = 0x1e
                      02927 ;  from: 01e ; to: 025 
                      02928 ;; >>> /home/sdcc-builder/build/sdcc-build/orig/sdcc/src/pic14/gen.c:2173:genCall
025D   0??? 0???      02929         PAGESEL $       ;id=5348,key=000,inCond:0,outCond:0,flow seq=01f
                      02930 ;;      695 register type nRegs=4
                      02931 ;;; /home/sdcc-builder/build/sdcc-build/orig/sdcc/src/pic14/gen.c:1892:assignResultValue *{*
                      02932 ;; ***  assignResultValue  1894
                      02933 ;;      line = 1896 result -=-, size=0, left AOP_REG=r0x105B, size=4, right -=-, size=0
                      02934 ;; >>> /home/sdcc-builder/build/sdcc-build/orig/sdcc/src/pic14/gen.c:1378:movwf
                      02935 ;;      1097 rIdx = r0x105E 
025F   0??? 0???      02936         BANKSEL r0x1016 ;id=6336,key=001,inCond:0,outCond:0,flow seq=01f
0261   00??           02937         MOVWF   r0x1016 ;id=5355,key=002,inCond:10,outCond:1,flow seq=01f,rIdx=r0x105E
                      02938 ;; >>> /home/sdcc-builder/build/sdcc-build/orig/sdcc/src/pic14/gen.c:1408:get_returnvalue
                      02939 ;; ***  popRegFromIdx,1030  , rIdx=0x7f
                      02940 ;; BANKOPT1 BANKSEL dropped; STK00 present in all of r0x1016's banks
0262   08??           02941         MOVF    STK00,W ;id=5358,key=003,inCond:1,outCond:14,flow seq=01f
                      02942 ;; >>> /home/sdcc-builder/build/sdcc-build/orig/sdcc/src/pic14/gen.c:1378:movwf
                      02943 ;;      1097 rIdx = r0x105D 
                      02944 ;; BANKOPT2 BANKSEL dropped; r0x1017 present in same bank as r0x1016
0263   00??           02945         MOVWF   r0x1017 ;id=5361,key=004,inCond:10,outCond:1,flow seq=01f,rIdx=r0x105D
                      02946 ;; >>> /home/sdcc-builder/build/sdcc-build/orig/sdcc/src/pic14/gen.c:1408:get_returnvalue
                      02947 ;; ***  popRegFromIdx,1030  , rIdx=0x7e
                      02948 ;; BANKOPT1 BANKSEL dropped; STK01 present in all of r0x1016's banks
0264   08??           02949         MOVF    STK01,W ;id=5364,key=005,inCond:1,outCond:14,flow seq=01f
                      02950 ;; >>> /home/sdcc-builder/build/sdcc-build/orig/sdcc/src/pic14/gen.c:1378:movwf
                      02951 ;;      1097 rIdx = r0x105C 
                      02952 ;; BANKOPT2 BANKSEL dropped; r0x1014 present in same bank as r0x1016
0265   00??           02953         MOVWF   r0x1014 ;id=5367,key=006,inCond:10,outCond:1,flow seq=01f,rIdx=r0x105C
                      02954 ;; >>> /home/sdcc-builder/build/sdcc-build/orig/sdcc/src/pic14/gen.c:1408:get_returnvalue
                      02955 ;; ***  popRegFromIdx,1030  , rIdx=0x7d
gpasm-1.5.2 #0 (Sep 16 2019) build/default/pr   9-16-2019  10:40:44         PAGE 57


LOC    OBJECT CODE    LINE  SOURCE TEXT
  VALUE

                      02956 ;; BANKOPT1 BANKSEL dropped; STK02 present in all of r0x1016's banks
0266   08??           02957         MOVF    STK02,W ;id=5370,key=007,inCond:1,outCond:14,flow seq=01f
                      02958 ;; >>> /home/sdcc-builder/build/sdcc-build/orig/sdcc/src/pic14/gen.c:1378:movwf
                      02959 ;;      1097 rIdx = r0x105B 
                      02960 ;; BANKOPT2 BANKSEL dropped; r0x1015 present in same bank as r0x1016
0267   00??           02961         MOVWF   r0x1015 ;id=5373,key=008,inCond:10,outCond:1,flow seq=01f,rIdx=r0x105B
                      02962 ;;      2188 left AOP_REG
                      02963 ;;; /home/sdcc-builder/build/sdcc-build/orig/sdcc/src/pic14/gen.c:1830:unsaveRegisters *{*
                      02964 ;; ***  unsaveRegisters  1832
                      02965 ;;; /home/sdcc-builder/build/sdcc-build/orig/sdcc/src/pic14/gen.c:2308:resultRemat *{*
                      02966 ;;; /home/sdcc-builder/build/sdcc-build/orig/sdcc/src/pic14/gen.c:7036:genAssign *{*
                      02967 ;; ***  genAssign  7037
                      02968 ;;      695 register type nRegs=1
                      02969 ;;      line = 7046 result AOP_REG=r0x105F, size=1, left -=-, size=0, right AOP_LIT=0x00, size=1
                      02970 ;; ***  genAssign  7132
                      02971 ;; >>> /home/sdcc-builder/build/sdcc-build/orig/sdcc/src/pic14/gen.c:7144:genAssign
                      02972 ;;      1097 rIdx = r0x105F 
                      02973 ;; BANKOPT2 BANKSEL dropped; r0x101B present in same bank as r0x1016
                      02974 ;       .line   222; "../../../src/measure.c"   unit = 0; // "H"
0268   01??           02975         CLRF    r0x101B ;id=5386,key=009,inCond:0,outCond:5,flow seq=01f,rIdx=r0x105F
                      02976 ;;; /home/sdcc-builder/build/sdcc-build/orig/sdcc/src/pic14/gen.c:2308:resultRemat *{*
                      02977 ;;; /home/sdcc-builder/build/sdcc-build/orig/sdcc/src/pic14/gen.c:2770:genGoto *{*
                      02978 ;; >>> /home/sdcc-builder/build/sdcc-build/orig/sdcc/src/pic14/gen.c:2772:genGoto
                      02979 ;; ***  popGetLabel  key=11, label offset 27
0269   2???           02980         GOTO    _00138_DS_      ;id=5391,key=00a,inCond:0,outCond:0,flow seq=01f
                      02981 ;<>Start of new flow, seq=0x20 ancestor = 0x1d
                      02982 ;  from: 01d ; to: 021 
                      02983 ;goto   _00138_DS_
                      02984 ;;; /home/sdcc-builder/build/sdcc-build/orig/sdcc/src/pic14/gen.c:2308:resultRemat *{*
                      02985 ;;; /home/sdcc-builder/build/sdcc-build/orig/sdcc/src/pic14/gen.c:2752:genLabel *{*
                      02986 ;; ***  genLabel  2755
                      02987 ;_00131_DS_:
                      02988 ;;; /home/sdcc-builder/build/sdcc-build/orig/sdcc/src/pic14/gen.c:2308:resultRemat *{*
                      02989 ;;; /home/sdcc-builder/build/sdcc-build/orig/sdcc/src/pic14/gen.c:2308:resultRemat *{*
                      02990 ;;; /home/sdcc-builder/build/sdcc-build/orig/sdcc/src/pic14/gen.c:2308:resultRemat *{*
                      02991 ;;; /home/sdcc-builder/build/sdcc-build/orig/sdcc/src/pic14/gen.c:2071:genCall *{*
                      02992 ;; ***  genCall  2073
                      02993 ;;; /home/sdcc-builder/build/sdcc-build/orig/sdcc/src/pic14/gen.c:1786:saveRegisters *{*
                      02994 ;; ***  saveRegisters  1788
                      02995 ;;      695 register type nRegs=4
                      02996 ;;      2120 left AOP_LIT
                      02997 ;;; /home/sdcc-builder/build/sdcc-build/orig/sdcc/src/pic14/gen.c:1328:mov2w_op *{*
                      02998 ;; >>> /home/sdcc-builder/build/sdcc-build/orig/sdcc/src/pic14/gen.c:1346:mov2w_op
                      02999 ;; BANKOPT3 drop assumptions: PCI with label or call found
026A                  03000 _00131_DS_:
                      03001 ;       .line   224; "../../../src/measure.c"   Lin = Lin / (1e+06l);
026A   3000           03002         MOVLW   0x00    ;id=5410,key=000,inCond:400,outCond:10,flow seq=020
                      03003 ;;      2120 left AOP_LIT
                      03004 ;; >>> /home/sdcc-builder/build/sdcc-build/orig/sdcc/src/pic14/gen.c:2128:genCall
                      03005 ;; ***  popRegFromIdx,1030  , rIdx=0x79
                      03006 ;; BANKOPT1 BANKSEL dropped; STK06 present in all of (null)'s banks
026B   00??           03007         MOVWF   STK06   ;id=5414,key=001,inCond:10,outCond:1,flow seq=020
                      03008 ;;; /home/sdcc-builder/build/sdcc-build/orig/sdcc/src/pic14/gen.c:1328:mov2w_op *{*
gpasm-1.5.2 #0 (Sep 16 2019) build/default/pr   9-16-2019  10:40:44         PAGE 58


LOC    OBJECT CODE    LINE  SOURCE TEXT
  VALUE

                      03009 ;; >>> /home/sdcc-builder/build/sdcc-build/orig/sdcc/src/pic14/gen.c:1346:mov2w_op
026C   3024           03010         MOVLW   0x24    ;id=5417,key=002,inCond:400,outCond:10,flow seq=020
                      03011 ;;      2120 left AOP_LIT
                      03012 ;; >>> /home/sdcc-builder/build/sdcc-build/orig/sdcc/src/pic14/gen.c:2128:genCall
                      03013 ;; ***  popRegFromIdx,1030  , rIdx=0x7a
                      03014 ;; BANKOPT1 BANKSEL dropped; STK05 present in all of (null)'s banks
026D   00??           03015         MOVWF   STK05   ;id=5421,key=003,inCond:10,outCond:1,flow seq=020
                      03016 ;;; /home/sdcc-builder/build/sdcc-build/orig/sdcc/src/pic14/gen.c:1328:mov2w_op *{*
                      03017 ;; >>> /home/sdcc-builder/build/sdcc-build/orig/sdcc/src/pic14/gen.c:1346:mov2w_op
026E   3074           03018         MOVLW   0x74    ;id=5424,key=004,inCond:400,outCond:10,flow seq=020
                      03019 ;;      2120 left AOP_LIT
                      03020 ;; >>> /home/sdcc-builder/build/sdcc-build/orig/sdcc/src/pic14/gen.c:2128:genCall
                      03021 ;; ***  popRegFromIdx,1030  , rIdx=0x7b
                      03022 ;; BANKOPT1 BANKSEL dropped; STK04 present in all of (null)'s banks
026F   00??           03023         MOVWF   STK04   ;id=5428,key=005,inCond:10,outCond:1,flow seq=020
                      03024 ;;; /home/sdcc-builder/build/sdcc-build/orig/sdcc/src/pic14/gen.c:1328:mov2w_op *{*
                      03025 ;; >>> /home/sdcc-builder/build/sdcc-build/orig/sdcc/src/pic14/gen.c:1346:mov2w_op
0270   3049           03026         MOVLW   0x49    ;id=5431,key=006,inCond:400,outCond:10,flow seq=020
                      03027 ;;      695 register type nRegs=4
                      03028 ;;      2120 left AOP_REG
                      03029 ;; >>> /home/sdcc-builder/build/sdcc-build/orig/sdcc/src/pic14/gen.c:2128:genCall
                      03030 ;; ***  popRegFromIdx,1030  , rIdx=0x7c
                      03031 ;; BANKOPT1 BANKSEL dropped; STK03 present in all of (null)'s banks
0271   00??           03032         MOVWF   STK03   ;id=5436,key=007,inCond:10,outCond:1,flow seq=020
                      03033 ;;; /home/sdcc-builder/build/sdcc-build/orig/sdcc/src/pic14/gen.c:1328:mov2w_op *{*
                      03034 ;; ***  mov2w  1366  offset=0
                      03035 ;; >>> /home/sdcc-builder/build/sdcc-build/orig/sdcc/src/pic14/gen.c:1371:mov2w
                      03036 ;;      1097 rIdx = r0x105B 
0272   0??? 0???      03037         BANKSEL r0x1015 ;id=6349,key=008,inCond:0,outCond:0,flow seq=020
0274   08??           03038         MOVF    r0x1015,W       ;id=5441,key=009,inCond:1,outCond:14,flow seq=020,rIdx=r0x105B
                      03039 ;;      2120 left AOP_REG
                      03040 ;; >>> /home/sdcc-builder/build/sdcc-build/orig/sdcc/src/pic14/gen.c:2128:genCall
                      03041 ;; ***  popRegFromIdx,1030  , rIdx=0x7d
                      03042 ;; BANKOPT1 BANKSEL dropped; STK02 present in all of r0x1015's banks
0275   00??           03043         MOVWF   STK02   ;id=5445,key=00a,inCond:10,outCond:1,flow seq=020
                      03044 ;;; /home/sdcc-builder/build/sdcc-build/orig/sdcc/src/pic14/gen.c:1328:mov2w_op *{*
                      03045 ;; ***  mov2w  1366  offset=1
                      03046 ;; >>> /home/sdcc-builder/build/sdcc-build/orig/sdcc/src/pic14/gen.c:1371:mov2w
                      03047 ;;      1097 rIdx = r0x105C 
                      03048 ;; BANKOPT2 BANKSEL dropped; r0x1014 present in same bank as r0x1015
0276   08??           03049         MOVF    r0x1014,W       ;id=5450,key=00b,inCond:1,outCond:14,flow seq=020,rIdx=r0x105C
                      03050 ;;      2120 left AOP_REG
                      03051 ;; >>> /home/sdcc-builder/build/sdcc-build/orig/sdcc/src/pic14/gen.c:2128:genCall
                      03052 ;; ***  popRegFromIdx,1030  , rIdx=0x7e
                      03053 ;; BANKOPT1 BANKSEL dropped; STK01 present in all of r0x1015's banks
0277   00??           03054         MOVWF   STK01   ;id=5454,key=00c,inCond:10,outCond:1,flow seq=020
                      03055 ;;; /home/sdcc-builder/build/sdcc-build/orig/sdcc/src/pic14/gen.c:1328:mov2w_op *{*
                      03056 ;; ***  mov2w  1366  offset=2
                      03057 ;; >>> /home/sdcc-builder/build/sdcc-build/orig/sdcc/src/pic14/gen.c:1371:mov2w
                      03058 ;;      1097 rIdx = r0x105D 
                      03059 ;; BANKOPT2 BANKSEL dropped; r0x1017 present in same bank as r0x1015
0278   08??           03060         MOVF    r0x1017,W       ;id=5459,key=00d,inCond:1,outCond:14,flow seq=020,rIdx=r0x105D
                      03061 ;;      2120 left AOP_REG
gpasm-1.5.2 #0 (Sep 16 2019) build/default/pr   9-16-2019  10:40:44         PAGE 59


LOC    OBJECT CODE    LINE  SOURCE TEXT
  VALUE

                      03062 ;; >>> /home/sdcc-builder/build/sdcc-build/orig/sdcc/src/pic14/gen.c:2128:genCall
                      03063 ;; ***  popRegFromIdx,1030  , rIdx=0x7f
                      03064 ;; BANKOPT1 BANKSEL dropped; STK00 present in all of r0x1015's banks
0279   00??           03065         MOVWF   STK00   ;id=5463,key=00e,inCond:10,outCond:1,flow seq=020
                      03066 ;;; /home/sdcc-builder/build/sdcc-build/orig/sdcc/src/pic14/gen.c:1328:mov2w_op *{*
                      03067 ;; ***  mov2w  1366  offset=3
                      03068 ;; >>> /home/sdcc-builder/build/sdcc-build/orig/sdcc/src/pic14/gen.c:1371:mov2w
                      03069 ;;      1097 rIdx = r0x105E 
                      03070 ;; BANKOPT2 BANKSEL dropped; r0x1016 present in same bank as r0x1015
027A   08??           03071         MOVF    r0x1016,W       ;id=5468,key=00f,inCond:1,outCond:14,flow seq=020,rIdx=r0x105E
                      03072 ;; >>> /home/sdcc-builder/build/sdcc-build/orig/sdcc/src/pic14/gen.c:2160:genCall
027B   0??? 0???      03073         PAGESEL ___fsdiv        ;id=5470,key=010,inCond:0,outCond:0,flow seq=020
                      03074 ;; >>> /home/sdcc-builder/build/sdcc-build/orig/sdcc/src/pic14/gen.c:2165:genCall
                      03075 ;; BANKOPT3 drop assumptions: PCI with label or call found
027D   2???           03076         CALL    ___fsdiv        ;id=5472,key=011,inCond:10,outCond:1e,flow seq=020
                      03077 ;<>Start of new flow, seq=0x21 ancestor = 0x20
                      03078 ;  from: 020 ; to: 025 
                      03079 ;; >>> /home/sdcc-builder/build/sdcc-build/orig/sdcc/src/pic14/gen.c:2173:genCall
027E   0??? 0???      03080         PAGESEL $       ;id=5474,key=000,inCond:0,outCond:0,flow seq=021
                      03081 ;;      695 register type nRegs=4
                      03082 ;;; /home/sdcc-builder/build/sdcc-build/orig/sdcc/src/pic14/gen.c:1892:assignResultValue *{*
                      03083 ;; ***  assignResultValue  1894
                      03084 ;;      line = 1896 result -=-, size=0, left AOP_REG=r0x105B, size=4, right -=-, size=0
                      03085 ;; >>> /home/sdcc-builder/build/sdcc-build/orig/sdcc/src/pic14/gen.c:1378:movwf
                      03086 ;;      1097 rIdx = r0x105E 
0280   0??? 0???      03087         BANKSEL r0x1016 ;id=6357,key=001,inCond:0,outCond:0,flow seq=021
0282   00??           03088         MOVWF   r0x1016 ;id=5481,key=002,inCond:10,outCond:1,flow seq=021,rIdx=r0x105E
                      03089 ;; >>> /home/sdcc-builder/build/sdcc-build/orig/sdcc/src/pic14/gen.c:1408:get_returnvalue
                      03090 ;; ***  popRegFromIdx,1030  , rIdx=0x7f
                      03091 ;; BANKOPT1 BANKSEL dropped; STK00 present in all of r0x1016's banks
0283   08??           03092         MOVF    STK00,W ;id=5484,key=003,inCond:1,outCond:14,flow seq=021
                      03093 ;; >>> /home/sdcc-builder/build/sdcc-build/orig/sdcc/src/pic14/gen.c:1378:movwf
                      03094 ;;      1097 rIdx = r0x105D 
                      03095 ;; BANKOPT2 BANKSEL dropped; r0x1017 present in same bank as r0x1016
0284   00??           03096         MOVWF   r0x1017 ;id=5487,key=004,inCond:10,outCond:1,flow seq=021,rIdx=r0x105D
                      03097 ;; >>> /home/sdcc-builder/build/sdcc-build/orig/sdcc/src/pic14/gen.c:1408:get_returnvalue
                      03098 ;; ***  popRegFromIdx,1030  , rIdx=0x7e
                      03099 ;; BANKOPT1 BANKSEL dropped; STK01 present in all of r0x1016's banks
0285   08??           03100         MOVF    STK01,W ;id=5490,key=005,inCond:1,outCond:14,flow seq=021
                      03101 ;; >>> /home/sdcc-builder/build/sdcc-build/orig/sdcc/src/pic14/gen.c:1378:movwf
                      03102 ;;      1097 rIdx = r0x105C 
                      03103 ;; BANKOPT2 BANKSEL dropped; r0x1014 present in same bank as r0x1016
0286   00??           03104         MOVWF   r0x1014 ;id=5493,key=006,inCond:10,outCond:1,flow seq=021,rIdx=r0x105C
                      03105 ;; >>> /home/sdcc-builder/build/sdcc-build/orig/sdcc/src/pic14/gen.c:1408:get_returnvalue
                      03106 ;; ***  popRegFromIdx,1030  , rIdx=0x7d
                      03107 ;; BANKOPT1 BANKSEL dropped; STK02 present in all of r0x1016's banks
0287   08??           03108         MOVF    STK02,W ;id=5496,key=007,inCond:1,outCond:14,flow seq=021
                      03109 ;; >>> /home/sdcc-builder/build/sdcc-build/orig/sdcc/src/pic14/gen.c:1378:movwf
                      03110 ;;      1097 rIdx = r0x105B 
                      03111 ;; BANKOPT2 BANKSEL dropped; r0x1015 present in same bank as r0x1016
0288   00??           03112         MOVWF   r0x1015 ;id=5499,key=008,inCond:10,outCond:1,flow seq=021,rIdx=r0x105B
                      03113 ;;      2188 left AOP_REG
                      03114 ;;; /home/sdcc-builder/build/sdcc-build/orig/sdcc/src/pic14/gen.c:1830:unsaveRegisters *{*
gpasm-1.5.2 #0 (Sep 16 2019) build/default/pr   9-16-2019  10:40:44         PAGE 60


LOC    OBJECT CODE    LINE  SOURCE TEXT
  VALUE

                      03115 ;; ***  unsaveRegisters  1832
                      03116 ;;; /home/sdcc-builder/build/sdcc-build/orig/sdcc/src/pic14/gen.c:2308:resultRemat *{*
                      03117 ;;; /home/sdcc-builder/build/sdcc-build/orig/sdcc/src/pic14/gen.c:7036:genAssign *{*
                      03118 ;; ***  genAssign  7037
                      03119 ;;      695 register type nRegs=1
                      03120 ;;      line = 7046 result AOP_REG=r0x105F, size=1, left -=-, size=0, right AOP_LIT=0x01, size=1
                      03121 ;; ***  genAssign  7132
                      03122 ;; >>> /home/sdcc-builder/build/sdcc-build/orig/sdcc/src/pic14/gen.c:7139:genAssign
                      03123 ;       .line   225; "../../../src/measure.c"   unit = 1; // "mH"
0289   3001           03124         MOVLW   0x01    ;id=5511,key=009,inCond:400,outCond:10,flow seq=021
                      03125 ;; >>> /home/sdcc-builder/build/sdcc-build/orig/sdcc/src/pic14/gen.c:7141:genAssign
                      03126 ;;      1097 rIdx = r0x105F 
                      03127 ;; BANKOPT2 BANKSEL dropped; r0x101B present in same bank as r0x1016
028A   00??           03128         MOVWF   r0x101B ;id=5514,key=00a,inCond:10,outCond:1,flow seq=021,rIdx=r0x105F
                      03129 ;;; /home/sdcc-builder/build/sdcc-build/orig/sdcc/src/pic14/gen.c:2308:resultRemat *{*
                      03130 ;;; /home/sdcc-builder/build/sdcc-build/orig/sdcc/src/pic14/gen.c:2770:genGoto *{*
                      03131 ;; >>> /home/sdcc-builder/build/sdcc-build/orig/sdcc/src/pic14/gen.c:2772:genGoto
                      03132 ;; ***  popGetLabel  key=11, label offset 27
028B   2???           03133         GOTO    _00138_DS_      ;id=5519,key=00b,inCond:0,outCond:0,flow seq=021
                      03134 ;<>Start of new flow, seq=0x22 ancestor = 0x1a
                      03135 ;  from: 01a ; to: 023 
                      03136 ;goto   _00138_DS_
                      03137 ;;; /home/sdcc-builder/build/sdcc-build/orig/sdcc/src/pic14/gen.c:2308:resultRemat *{*
                      03138 ;;; /home/sdcc-builder/build/sdcc-build/orig/sdcc/src/pic14/gen.c:2752:genLabel *{*
                      03139 ;; ***  genLabel  2755
                      03140 ;_00134_DS_:
                      03141 ;;; /home/sdcc-builder/build/sdcc-build/orig/sdcc/src/pic14/gen.c:2308:resultRemat *{*
                      03142 ;;; /home/sdcc-builder/build/sdcc-build/orig/sdcc/src/pic14/gen.c:2308:resultRemat *{*
                      03143 ;;; /home/sdcc-builder/build/sdcc-build/orig/sdcc/src/pic14/gen.c:2308:resultRemat *{*
                      03144 ;;; /home/sdcc-builder/build/sdcc-build/orig/sdcc/src/pic14/gen.c:2071:genCall *{*
                      03145 ;; ***  genCall  2073
                      03146 ;;; /home/sdcc-builder/build/sdcc-build/orig/sdcc/src/pic14/gen.c:1786:saveRegisters *{*
                      03147 ;; ***  saveRegisters  1788
                      03148 ;;      695 register type nRegs=4
                      03149 ;;      2120 left AOP_LIT
                      03150 ;;; /home/sdcc-builder/build/sdcc-build/orig/sdcc/src/pic14/gen.c:1328:mov2w_op *{*
                      03151 ;; >>> /home/sdcc-builder/build/sdcc-build/orig/sdcc/src/pic14/gen.c:1346:mov2w_op
                      03152 ;; BANKOPT3 drop assumptions: PCI with label or call found
028C                  03153 _00134_DS_:
                      03154 ;       .line   228; "../../../src/measure.c"   Lin = Lin / 1e+03l;
028C   3000           03155         MOVLW   0x00    ;id=5538,key=000,inCond:400,outCond:10,flow seq=022
                      03156 ;;      2120 left AOP_LIT
                      03157 ;; >>> /home/sdcc-builder/build/sdcc-build/orig/sdcc/src/pic14/gen.c:2128:genCall
                      03158 ;; ***  popRegFromIdx,1030  , rIdx=0x79
                      03159 ;; BANKOPT1 BANKSEL dropped; STK06 present in all of (null)'s banks
028D   00??           03160         MOVWF   STK06   ;id=5542,key=001,inCond:10,outCond:1,flow seq=022
                      03161 ;;; /home/sdcc-builder/build/sdcc-build/orig/sdcc/src/pic14/gen.c:1328:mov2w_op *{*
                      03162 ;; >>> /home/sdcc-builder/build/sdcc-build/orig/sdcc/src/pic14/gen.c:1346:mov2w_op
028E   3000           03163         MOVLW   0x00    ;id=5545,key=002,inCond:400,outCond:10,flow seq=022
                      03164 ;;      2120 left AOP_LIT
                      03165 ;; >>> /home/sdcc-builder/build/sdcc-build/orig/sdcc/src/pic14/gen.c:2128:genCall
                      03166 ;; ***  popRegFromIdx,1030  , rIdx=0x7a
                      03167 ;; BANKOPT1 BANKSEL dropped; STK05 present in all of (null)'s banks
gpasm-1.5.2 #0 (Sep 16 2019) build/default/pr   9-16-2019  10:40:44         PAGE 61


LOC    OBJECT CODE    LINE  SOURCE TEXT
  VALUE

028F   00??           03168         MOVWF   STK05   ;id=5549,key=003,inCond:10,outCond:1,flow seq=022
                      03169 ;;; /home/sdcc-builder/build/sdcc-build/orig/sdcc/src/pic14/gen.c:1328:mov2w_op *{*
                      03170 ;; >>> /home/sdcc-builder/build/sdcc-build/orig/sdcc/src/pic14/gen.c:1346:mov2w_op
0290   307A           03171         MOVLW   0x7a    ;id=5552,key=004,inCond:400,outCond:10,flow seq=022
                      03172 ;;      2120 left AOP_LIT
                      03173 ;; >>> /home/sdcc-builder/build/sdcc-build/orig/sdcc/src/pic14/gen.c:2128:genCall
                      03174 ;; ***  popRegFromIdx,1030  , rIdx=0x7b
                      03175 ;; BANKOPT1 BANKSEL dropped; STK04 present in all of (null)'s banks
0291   00??           03176         MOVWF   STK04   ;id=5556,key=005,inCond:10,outCond:1,flow seq=022
                      03177 ;;; /home/sdcc-builder/build/sdcc-build/orig/sdcc/src/pic14/gen.c:1328:mov2w_op *{*
                      03178 ;; >>> /home/sdcc-builder/build/sdcc-build/orig/sdcc/src/pic14/gen.c:1346:mov2w_op
0292   3044           03179         MOVLW   0x44    ;id=5559,key=006,inCond:400,outCond:10,flow seq=022
                      03180 ;;      695 register type nRegs=4
                      03181 ;;      2120 left AOP_REG
                      03182 ;; >>> /home/sdcc-builder/build/sdcc-build/orig/sdcc/src/pic14/gen.c:2128:genCall
                      03183 ;; ***  popRegFromIdx,1030  , rIdx=0x7c
                      03184 ;; BANKOPT1 BANKSEL dropped; STK03 present in all of (null)'s banks
0293   00??           03185         MOVWF   STK03   ;id=5564,key=007,inCond:10,outCond:1,flow seq=022
                      03186 ;;; /home/sdcc-builder/build/sdcc-build/orig/sdcc/src/pic14/gen.c:1328:mov2w_op *{*
                      03187 ;; ***  mov2w  1366  offset=0
                      03188 ;; >>> /home/sdcc-builder/build/sdcc-build/orig/sdcc/src/pic14/gen.c:1371:mov2w
                      03189 ;;      1097 rIdx = r0x105B 
0294   0??? 0???      03190         BANKSEL r0x1015 ;id=6370,key=008,inCond:0,outCond:0,flow seq=022
0296   08??           03191         MOVF    r0x1015,W       ;id=5569,key=009,inCond:1,outCond:14,flow seq=022,rIdx=r0x105B
                      03192 ;;      2120 left AOP_REG
                      03193 ;; >>> /home/sdcc-builder/build/sdcc-build/orig/sdcc/src/pic14/gen.c:2128:genCall
                      03194 ;; ***  popRegFromIdx,1030  , rIdx=0x7d
                      03195 ;; BANKOPT1 BANKSEL dropped; STK02 present in all of r0x1015's banks
0297   00??           03196         MOVWF   STK02   ;id=5573,key=00a,inCond:10,outCond:1,flow seq=022
                      03197 ;;; /home/sdcc-builder/build/sdcc-build/orig/sdcc/src/pic14/gen.c:1328:mov2w_op *{*
                      03198 ;; ***  mov2w  1366  offset=1
                      03199 ;; >>> /home/sdcc-builder/build/sdcc-build/orig/sdcc/src/pic14/gen.c:1371:mov2w
                      03200 ;;      1097 rIdx = r0x105C 
                      03201 ;; BANKOPT2 BANKSEL dropped; r0x1014 present in same bank as r0x1015
0298   08??           03202         MOVF    r0x1014,W       ;id=5578,key=00b,inCond:1,outCond:14,flow seq=022,rIdx=r0x105C
                      03203 ;;      2120 left AOP_REG
                      03204 ;; >>> /home/sdcc-builder/build/sdcc-build/orig/sdcc/src/pic14/gen.c:2128:genCall
                      03205 ;; ***  popRegFromIdx,1030  , rIdx=0x7e
                      03206 ;; BANKOPT1 BANKSEL dropped; STK01 present in all of r0x1015's banks
0299   00??           03207         MOVWF   STK01   ;id=5582,key=00c,inCond:10,outCond:1,flow seq=022
                      03208 ;;; /home/sdcc-builder/build/sdcc-build/orig/sdcc/src/pic14/gen.c:1328:mov2w_op *{*
                      03209 ;; ***  mov2w  1366  offset=2
                      03210 ;; >>> /home/sdcc-builder/build/sdcc-build/orig/sdcc/src/pic14/gen.c:1371:mov2w
                      03211 ;;      1097 rIdx = r0x105D 
                      03212 ;; BANKOPT2 BANKSEL dropped; r0x1017 present in same bank as r0x1015
029A   08??           03213         MOVF    r0x1017,W       ;id=5587,key=00d,inCond:1,outCond:14,flow seq=022,rIdx=r0x105D
                      03214 ;;      2120 left AOP_REG
                      03215 ;; >>> /home/sdcc-builder/build/sdcc-build/orig/sdcc/src/pic14/gen.c:2128:genCall
                      03216 ;; ***  popRegFromIdx,1030  , rIdx=0x7f
                      03217 ;; BANKOPT1 BANKSEL dropped; STK00 present in all of r0x1015's banks
029B   00??           03218         MOVWF   STK00   ;id=5591,key=00e,inCond:10,outCond:1,flow seq=022
                      03219 ;;; /home/sdcc-builder/build/sdcc-build/orig/sdcc/src/pic14/gen.c:1328:mov2w_op *{*
                      03220 ;; ***  mov2w  1366  offset=3
gpasm-1.5.2 #0 (Sep 16 2019) build/default/pr   9-16-2019  10:40:44         PAGE 62


LOC    OBJECT CODE    LINE  SOURCE TEXT
  VALUE

                      03221 ;; >>> /home/sdcc-builder/build/sdcc-build/orig/sdcc/src/pic14/gen.c:1371:mov2w
                      03222 ;;      1097 rIdx = r0x105E 
                      03223 ;; BANKOPT2 BANKSEL dropped; r0x1016 present in same bank as r0x1015
029C   08??           03224         MOVF    r0x1016,W       ;id=5596,key=00f,inCond:1,outCond:14,flow seq=022,rIdx=r0x105E
                      03225 ;; >>> /home/sdcc-builder/build/sdcc-build/orig/sdcc/src/pic14/gen.c:2160:genCall
029D   0??? 0???      03226         PAGESEL ___fsdiv        ;id=5598,key=010,inCond:0,outCond:0,flow seq=022
                      03227 ;; >>> /home/sdcc-builder/build/sdcc-build/orig/sdcc/src/pic14/gen.c:2165:genCall
                      03228 ;; BANKOPT3 drop assumptions: PCI with label or call found
029F   2???           03229         CALL    ___fsdiv        ;id=5600,key=011,inCond:10,outCond:1e,flow seq=022
                      03230 ;<>Start of new flow, seq=0x23 ancestor = 0x22
                      03231 ;  from: 022 ; to: 025 
                      03232 ;; >>> /home/sdcc-builder/build/sdcc-build/orig/sdcc/src/pic14/gen.c:2173:genCall
02A0   0??? 0???      03233         PAGESEL $       ;id=5602,key=000,inCond:0,outCond:0,flow seq=023
                      03234 ;;      695 register type nRegs=4
                      03235 ;;; /home/sdcc-builder/build/sdcc-build/orig/sdcc/src/pic14/gen.c:1892:assignResultValue *{*
                      03236 ;; ***  assignResultValue  1894
                      03237 ;;      line = 1896 result -=-, size=0, left AOP_REG=r0x105B, size=4, right -=-, size=0
                      03238 ;; >>> /home/sdcc-builder/build/sdcc-build/orig/sdcc/src/pic14/gen.c:1378:movwf
                      03239 ;;      1097 rIdx = r0x105E 
02A2   0??? 0???      03240         BANKSEL r0x1016 ;id=6378,key=001,inCond:0,outCond:0,flow seq=023
02A4   00??           03241         MOVWF   r0x1016 ;id=5609,key=002,inCond:10,outCond:1,flow seq=023,rIdx=r0x105E
                      03242 ;; >>> /home/sdcc-builder/build/sdcc-build/orig/sdcc/src/pic14/gen.c:1408:get_returnvalue
                      03243 ;; ***  popRegFromIdx,1030  , rIdx=0x7f
                      03244 ;; BANKOPT1 BANKSEL dropped; STK00 present in all of r0x1016's banks
02A5   08??           03245         MOVF    STK00,W ;id=5612,key=003,inCond:1,outCond:14,flow seq=023
                      03246 ;; >>> /home/sdcc-builder/build/sdcc-build/orig/sdcc/src/pic14/gen.c:1378:movwf
                      03247 ;;      1097 rIdx = r0x105D 
                      03248 ;; BANKOPT2 BANKSEL dropped; r0x1017 present in same bank as r0x1016
02A6   00??           03249         MOVWF   r0x1017 ;id=5615,key=004,inCond:10,outCond:1,flow seq=023,rIdx=r0x105D
                      03250 ;; >>> /home/sdcc-builder/build/sdcc-build/orig/sdcc/src/pic14/gen.c:1408:get_returnvalue
                      03251 ;; ***  popRegFromIdx,1030  , rIdx=0x7e
                      03252 ;; BANKOPT1 BANKSEL dropped; STK01 present in all of r0x1016's banks
02A7   08??           03253         MOVF    STK01,W ;id=5618,key=005,inCond:1,outCond:14,flow seq=023
                      03254 ;; >>> /home/sdcc-builder/build/sdcc-build/orig/sdcc/src/pic14/gen.c:1378:movwf
                      03255 ;;      1097 rIdx = r0x105C 
                      03256 ;; BANKOPT2 BANKSEL dropped; r0x1014 present in same bank as r0x1016
02A8   00??           03257         MOVWF   r0x1014 ;id=5621,key=006,inCond:10,outCond:1,flow seq=023,rIdx=r0x105C
                      03258 ;; >>> /home/sdcc-builder/build/sdcc-build/orig/sdcc/src/pic14/gen.c:1408:get_returnvalue
                      03259 ;; ***  popRegFromIdx,1030  , rIdx=0x7d
                      03260 ;; BANKOPT1 BANKSEL dropped; STK02 present in all of r0x1016's banks
02A9   08??           03261         MOVF    STK02,W ;id=5624,key=007,inCond:1,outCond:14,flow seq=023
                      03262 ;; >>> /home/sdcc-builder/build/sdcc-build/orig/sdcc/src/pic14/gen.c:1378:movwf
                      03263 ;;      1097 rIdx = r0x105B 
                      03264 ;; BANKOPT2 BANKSEL dropped; r0x1015 present in same bank as r0x1016
02AA   00??           03265         MOVWF   r0x1015 ;id=5627,key=008,inCond:10,outCond:1,flow seq=023,rIdx=r0x105B
                      03266 ;;      2188 left AOP_REG
                      03267 ;;; /home/sdcc-builder/build/sdcc-build/orig/sdcc/src/pic14/gen.c:1830:unsaveRegisters *{*
                      03268 ;; ***  unsaveRegisters  1832
                      03269 ;;; /home/sdcc-builder/build/sdcc-build/orig/sdcc/src/pic14/gen.c:2308:resultRemat *{*
                      03270 ;;; /home/sdcc-builder/build/sdcc-build/orig/sdcc/src/pic14/gen.c:7036:genAssign *{*
                      03271 ;; ***  genAssign  7037
                      03272 ;;      695 register type nRegs=1
                      03273 ;;      line = 7046 result AOP_REG=r0x105F, size=1, left -=-, size=0, right AOP_LIT=0x02, size=1
gpasm-1.5.2 #0 (Sep 16 2019) build/default/pr   9-16-2019  10:40:44         PAGE 63


LOC    OBJECT CODE    LINE  SOURCE TEXT
  VALUE

                      03274 ;; ***  genAssign  7132
                      03275 ;; >>> /home/sdcc-builder/build/sdcc-build/orig/sdcc/src/pic14/gen.c:7139:genAssign
                      03276 ;       .line   229; "../../../src/measure.c"   unit = 2; // "uH"
02AB   3002           03277         MOVLW   0x02    ;id=5639,key=009,inCond:400,outCond:10,flow seq=023
                      03278 ;; >>> /home/sdcc-builder/build/sdcc-build/orig/sdcc/src/pic14/gen.c:7141:genAssign
                      03279 ;;      1097 rIdx = r0x105F 
                      03280 ;; BANKOPT2 BANKSEL dropped; r0x101B present in same bank as r0x1016
02AC   00??           03281         MOVWF   r0x101B ;id=5642,key=00a,inCond:10,outCond:1,flow seq=023,rIdx=r0x105F
                      03282 ;;; /home/sdcc-builder/build/sdcc-build/orig/sdcc/src/pic14/gen.c:2308:resultRemat *{*
                      03283 ;;; /home/sdcc-builder/build/sdcc-build/orig/sdcc/src/pic14/gen.c:2770:genGoto *{*
                      03284 ;; >>> /home/sdcc-builder/build/sdcc-build/orig/sdcc/src/pic14/gen.c:2772:genGoto
                      03285 ;; ***  popGetLabel  key=11, label offset 27
02AD   2???           03286         GOTO    _00138_DS_      ;id=5647,key=00b,inCond:0,outCond:0,flow seq=023
                      03287 ;<>Start of new flow, seq=0x24 ancestor = 0x17
                      03288 ;  from: 017 ; to: 025 
                      03289 ;goto   _00138_DS_
                      03290 ;;; /home/sdcc-builder/build/sdcc-build/orig/sdcc/src/pic14/gen.c:2308:resultRemat *{*
                      03291 ;;; /home/sdcc-builder/build/sdcc-build/orig/sdcc/src/pic14/gen.c:2752:genLabel *{*
                      03292 ;; ***  genLabel  2755
                      03293 ;_00137_DS_:
                      03294 ;;; /home/sdcc-builder/build/sdcc-build/orig/sdcc/src/pic14/gen.c:2308:resultRemat *{*
                      03295 ;;; /home/sdcc-builder/build/sdcc-build/orig/sdcc/src/pic14/gen.c:7036:genAssign *{*
                      03296 ;; ***  genAssign  7037
                      03297 ;;      695 register type nRegs=1
                      03298 ;;      line = 7046 result AOP_REG=r0x105F, size=1, left -=-, size=0, right AOP_LIT=0x03, size=1
                      03299 ;; ***  genAssign  7132
                      03300 ;; >>> /home/sdcc-builder/build/sdcc-build/orig/sdcc/src/pic14/gen.c:7139:genAssign
                      03301 ;; BANKOPT3 drop assumptions: PCI with label or call found
02AE                  03302 _00137_DS_:
                      03303 ;       .line   232; "../../../src/measure.c"   unit = 3; // "nH"
02AE   3003           03304         MOVLW   0x03    ;id=5662,key=000,inCond:400,outCond:10,flow seq=024
                      03305 ;; >>> /home/sdcc-builder/build/sdcc-build/orig/sdcc/src/pic14/gen.c:7141:genAssign
                      03306 ;;      1097 rIdx = r0x105F 
02AF   0??? 0???      03307         BANKSEL r0x101B ;id=6387,key=001,inCond:0,outCond:0,flow seq=024
02B1   00??           03308         MOVWF   r0x101B ;id=5665,key=002,inCond:10,outCond:1,flow seq=024,rIdx=r0x105F
                      03309 ;<>Start of new flow, seq=0x25 ancestor = 0x1f
                      03310 ;  from: 024 023 021 01f ; to: 026 
                      03311 ;;; /home/sdcc-builder/build/sdcc-build/orig/sdcc/src/pic14/gen.c:2308:resultRemat *{*
                      03312 ;;; /home/sdcc-builder/build/sdcc-build/orig/sdcc/src/pic14/gen.c:2752:genLabel *{*
                      03313 ;; ***  genLabel  2755
                      03314 ;_00138_DS_:
                      03315 ;;; /home/sdcc-builder/build/sdcc-build/orig/sdcc/src/pic14/gen.c:2308:resultRemat *{*
                      03316 ;;; /home/sdcc-builder/build/sdcc-build/orig/sdcc/src/pic14/gen.c:2308:resultRemat *{*
                      03317 ;;; /home/sdcc-builder/build/sdcc-build/orig/sdcc/src/pic14/gen.c:2308:resultRemat *{*
                      03318 ;;; /home/sdcc-builder/build/sdcc-build/orig/sdcc/src/pic14/gen.c:2071:genCall *{*
                      03319 ;; ***  genCall  2073
                      03320 ;;; /home/sdcc-builder/build/sdcc-build/orig/sdcc/src/pic14/gen.c:1786:saveRegisters *{*
                      03321 ;; ***  saveRegisters  1788
                      03322 ;;      695 register type nRegs=4
                      03323 ;;      695 register type nRegs=4
                      03324 ;;      2120 left AOP_REG
                      03325 ;;; /home/sdcc-builder/build/sdcc-build/orig/sdcc/src/pic14/gen.c:1328:mov2w_op *{*
                      03326 ;; ***  mov2w  1366  offset=0
gpasm-1.5.2 #0 (Sep 16 2019) build/default/pr   9-16-2019  10:40:44         PAGE 64


LOC    OBJECT CODE    LINE  SOURCE TEXT
  VALUE

                      03327 ;; >>> /home/sdcc-builder/build/sdcc-build/orig/sdcc/src/pic14/gen.c:1371:mov2w
                      03328 ;;      1097 rIdx = r0x105B 
                      03329 ;; BANKOPT3 drop assumptions: PCI with label or call found
02B2                  03330 _00138_DS_:
                      03331 ;       .line   234; "../../../src/measure.c"   Lin = Lin * 100; // scale to 2 decimal place
02B2   0??? 0???      03332         BANKSEL r0x1015 ;id=6389,key=000,inCond:0,outCond:0,flow seq=025
02B4   08??           03333         MOVF    r0x1015,W       ;id=5686,key=001,inCond:1,outCond:14,flow seq=025,rIdx=r0x105B
                      03334 ;;      2120 left AOP_REG
                      03335 ;; >>> /home/sdcc-builder/build/sdcc-build/orig/sdcc/src/pic14/gen.c:2128:genCall
                      03336 ;; ***  popRegFromIdx,1030  , rIdx=0x79
                      03337 ;; BANKOPT1 BANKSEL dropped; STK06 present in all of r0x1015's banks
02B5   00??           03338         MOVWF   STK06   ;id=5690,key=002,inCond:10,outCond:1,flow seq=025
                      03339 ;;; /home/sdcc-builder/build/sdcc-build/orig/sdcc/src/pic14/gen.c:1328:mov2w_op *{*
                      03340 ;; ***  mov2w  1366  offset=1
                      03341 ;; >>> /home/sdcc-builder/build/sdcc-build/orig/sdcc/src/pic14/gen.c:1371:mov2w
                      03342 ;;      1097 rIdx = r0x105C 
                      03343 ;; BANKOPT2 BANKSEL dropped; r0x1014 present in same bank as r0x1015
02B6   08??           03344         MOVF    r0x1014,W       ;id=5695,key=003,inCond:1,outCond:14,flow seq=025,rIdx=r0x105C
                      03345 ;;      2120 left AOP_REG
                      03346 ;; >>> /home/sdcc-builder/build/sdcc-build/orig/sdcc/src/pic14/gen.c:2128:genCall
                      03347 ;; ***  popRegFromIdx,1030  , rIdx=0x7a
                      03348 ;; BANKOPT1 BANKSEL dropped; STK05 present in all of r0x1015's banks
02B7   00??           03349         MOVWF   STK05   ;id=5699,key=004,inCond:10,outCond:1,flow seq=025
                      03350 ;;; /home/sdcc-builder/build/sdcc-build/orig/sdcc/src/pic14/gen.c:1328:mov2w_op *{*
                      03351 ;; ***  mov2w  1366  offset=2
                      03352 ;; >>> /home/sdcc-builder/build/sdcc-build/orig/sdcc/src/pic14/gen.c:1371:mov2w
                      03353 ;;      1097 rIdx = r0x105D 
                      03354 ;; BANKOPT2 BANKSEL dropped; r0x1017 present in same bank as r0x1015
02B8   08??           03355         MOVF    r0x1017,W       ;id=5704,key=005,inCond:1,outCond:14,flow seq=025,rIdx=r0x105D
                      03356 ;;      2120 left AOP_REG
                      03357 ;; >>> /home/sdcc-builder/build/sdcc-build/orig/sdcc/src/pic14/gen.c:2128:genCall
                      03358 ;; ***  popRegFromIdx,1030  , rIdx=0x7b
                      03359 ;; BANKOPT1 BANKSEL dropped; STK04 present in all of r0x1015's banks
02B9   00??           03360         MOVWF   STK04   ;id=5708,key=006,inCond:10,outCond:1,flow seq=025
                      03361 ;;; /home/sdcc-builder/build/sdcc-build/orig/sdcc/src/pic14/gen.c:1328:mov2w_op *{*
                      03362 ;; ***  mov2w  1366  offset=3
                      03363 ;; >>> /home/sdcc-builder/build/sdcc-build/orig/sdcc/src/pic14/gen.c:1371:mov2w
                      03364 ;;      1097 rIdx = r0x105E 
                      03365 ;; BANKOPT2 BANKSEL dropped; r0x1016 present in same bank as r0x1015
02BA   08??           03366         MOVF    r0x1016,W       ;id=5713,key=007,inCond:1,outCond:14,flow seq=025,rIdx=r0x105E
                      03367 ;;      2120 left AOP_LIT
                      03368 ;; >>> /home/sdcc-builder/build/sdcc-build/orig/sdcc/src/pic14/gen.c:2128:genCall
                      03369 ;; ***  popRegFromIdx,1030  , rIdx=0x7c
                      03370 ;; BANKOPT1 BANKSEL dropped; STK03 present in all of r0x1015's banks
02BB   00??           03371         MOVWF   STK03   ;id=5717,key=008,inCond:10,outCond:1,flow seq=025
                      03372 ;;; /home/sdcc-builder/build/sdcc-build/orig/sdcc/src/pic14/gen.c:1328:mov2w_op *{*
                      03373 ;; >>> /home/sdcc-builder/build/sdcc-build/orig/sdcc/src/pic14/gen.c:1346:mov2w_op
02BC   3000           03374         MOVLW   0x00    ;id=5720,key=009,inCond:400,outCond:10,flow seq=025
                      03375 ;;      2120 left AOP_LIT
                      03376 ;; >>> /home/sdcc-builder/build/sdcc-build/orig/sdcc/src/pic14/gen.c:2128:genCall
                      03377 ;; ***  popRegFromIdx,1030  , rIdx=0x7d
                      03378 ;; BANKOPT1 BANKSEL dropped; STK02 present in all of r0x1015's banks
02BD   00??           03379         MOVWF   STK02   ;id=5724,key=00a,inCond:10,outCond:1,flow seq=025
gpasm-1.5.2 #0 (Sep 16 2019) build/default/pr   9-16-2019  10:40:44         PAGE 65


LOC    OBJECT CODE    LINE  SOURCE TEXT
  VALUE

                      03380 ;;; /home/sdcc-builder/build/sdcc-build/orig/sdcc/src/pic14/gen.c:1328:mov2w_op *{*
                      03381 ;; >>> /home/sdcc-builder/build/sdcc-build/orig/sdcc/src/pic14/gen.c:1346:mov2w_op
02BE   3000           03382         MOVLW   0x00    ;id=5727,key=00b,inCond:400,outCond:10,flow seq=025
                      03383 ;;      2120 left AOP_LIT
                      03384 ;; >>> /home/sdcc-builder/build/sdcc-build/orig/sdcc/src/pic14/gen.c:2128:genCall
                      03385 ;; ***  popRegFromIdx,1030  , rIdx=0x7e
                      03386 ;; BANKOPT1 BANKSEL dropped; STK01 present in all of r0x1015's banks
02BF   00??           03387         MOVWF   STK01   ;id=5731,key=00c,inCond:10,outCond:1,flow seq=025
                      03388 ;;; /home/sdcc-builder/build/sdcc-build/orig/sdcc/src/pic14/gen.c:1328:mov2w_op *{*
                      03389 ;; >>> /home/sdcc-builder/build/sdcc-build/orig/sdcc/src/pic14/gen.c:1346:mov2w_op
02C0   30C8           03390         MOVLW   0xc8    ;id=5734,key=00d,inCond:400,outCond:10,flow seq=025
                      03391 ;;      2120 left AOP_LIT
                      03392 ;; >>> /home/sdcc-builder/build/sdcc-build/orig/sdcc/src/pic14/gen.c:2128:genCall
                      03393 ;; ***  popRegFromIdx,1030  , rIdx=0x7f
                      03394 ;; BANKOPT1 BANKSEL dropped; STK00 present in all of r0x1015's banks
02C1   00??           03395         MOVWF   STK00   ;id=5738,key=00e,inCond:10,outCond:1,flow seq=025
                      03396 ;;; /home/sdcc-builder/build/sdcc-build/orig/sdcc/src/pic14/gen.c:1328:mov2w_op *{*
                      03397 ;; >>> /home/sdcc-builder/build/sdcc-build/orig/sdcc/src/pic14/gen.c:1346:mov2w_op
02C2   3042           03398         MOVLW   0x42    ;id=5741,key=00f,inCond:400,outCond:10,flow seq=025
                      03399 ;; >>> /home/sdcc-builder/build/sdcc-build/orig/sdcc/src/pic14/gen.c:2160:genCall
02C3   0??? 0???      03400         PAGESEL ___fsmul        ;id=5743,key=010,inCond:0,outCond:0,flow seq=025
                      03401 ;; >>> /home/sdcc-builder/build/sdcc-build/orig/sdcc/src/pic14/gen.c:2165:genCall
                      03402 ;; BANKOPT3 drop assumptions: PCI with label or call found
02C5   2???           03403         CALL    ___fsmul        ;id=5745,key=011,inCond:10,outCond:1e,flow seq=025
                      03404 ;<>Start of new flow, seq=0x26 ancestor = 0x25
                      03405 ;  from: 025 ; to: 027 
                      03406 ;; >>> /home/sdcc-builder/build/sdcc-build/orig/sdcc/src/pic14/gen.c:2173:genCall
02C6   0??? 0???      03407         PAGESEL $       ;id=5747,key=000,inCond:0,outCond:0,flow seq=026
                      03408 ;;      695 register type nRegs=4
                      03409 ;;; /home/sdcc-builder/build/sdcc-build/orig/sdcc/src/pic14/gen.c:1892:assignResultValue *{*
                      03410 ;; ***  assignResultValue  1894
                      03411 ;;      line = 1896 result -=-, size=0, left AOP_REG=r0x105B, size=4, right -=-, size=0
                      03412 ;; >>> /home/sdcc-builder/build/sdcc-build/orig/sdcc/src/pic14/gen.c:1378:movwf
                      03413 ;;      1097 rIdx = r0x105E 
02C8   0??? 0???      03414         BANKSEL r0x1016 ;id=6401,key=001,inCond:0,outCond:0,flow seq=026
02CA   00??           03415         MOVWF   r0x1016 ;id=5754,key=002,inCond:10,outCond:1,flow seq=026,rIdx=r0x105E
                      03416 ;; >>> /home/sdcc-builder/build/sdcc-build/orig/sdcc/src/pic14/gen.c:1408:get_returnvalue
                      03417 ;; ***  popRegFromIdx,1030  , rIdx=0x7f
                      03418 ;; BANKOPT1 BANKSEL dropped; STK00 present in all of r0x1016's banks
02CB   08??           03419         MOVF    STK00,W ;id=5757,key=003,inCond:1,outCond:14,flow seq=026
                      03420 ;; >>> /home/sdcc-builder/build/sdcc-build/orig/sdcc/src/pic14/gen.c:1378:movwf
                      03421 ;;      1097 rIdx = r0x105D 
                      03422 ;; BANKOPT2 BANKSEL dropped; r0x1017 present in same bank as r0x1016
02CC   00??           03423         MOVWF   r0x1017 ;id=5760,key=004,inCond:10,outCond:1,flow seq=026,rIdx=r0x105D
                      03424 ;; >>> /home/sdcc-builder/build/sdcc-build/orig/sdcc/src/pic14/gen.c:1408:get_returnvalue
                      03425 ;; ***  popRegFromIdx,1030  , rIdx=0x7e
                      03426 ;; BANKOPT1 BANKSEL dropped; STK01 present in all of r0x1016's banks
02CD   08??           03427         MOVF    STK01,W ;id=5763,key=005,inCond:1,outCond:14,flow seq=026
                      03428 ;; >>> /home/sdcc-builder/build/sdcc-build/orig/sdcc/src/pic14/gen.c:1378:movwf
                      03429 ;;      1097 rIdx = r0x105C 
                      03430 ;; BANKOPT2 BANKSEL dropped; r0x1014 present in same bank as r0x1016
02CE   00??           03431         MOVWF   r0x1014 ;id=5766,key=006,inCond:10,outCond:1,flow seq=026,rIdx=r0x105C
                      03432 ;; >>> /home/sdcc-builder/build/sdcc-build/orig/sdcc/src/pic14/gen.c:1408:get_returnvalue
gpasm-1.5.2 #0 (Sep 16 2019) build/default/pr   9-16-2019  10:40:44         PAGE 66


LOC    OBJECT CODE    LINE  SOURCE TEXT
  VALUE

                      03433 ;; ***  popRegFromIdx,1030  , rIdx=0x7d
                      03434 ;; BANKOPT1 BANKSEL dropped; STK02 present in all of r0x1016's banks
02CF   08??           03435         MOVF    STK02,W ;id=5769,key=007,inCond:1,outCond:14,flow seq=026
                      03436 ;; >>> /home/sdcc-builder/build/sdcc-build/orig/sdcc/src/pic14/gen.c:1378:movwf
                      03437 ;;      1097 rIdx = r0x105B 
                      03438 ;; BANKOPT2 BANKSEL dropped; r0x1015 present in same bank as r0x1016
                      03439 ;       .line   235; "../../../src/measure.c"   var = (uint16_t)Lin;
02D0   00??           03440         MOVWF   r0x1015 ;id=5917,key=008,inCond:10,outCond:1,flow seq=026,rIdx=r0x105B
                      03441 ;; BANKOPT1 BANKSEL dropped; STK02 present in all of r0x1016's banks
02D1   00??           03442         MOVWF   STK02   ;id=5794,key=009,inCond:10,outCond:1,flow seq=026
                      03443 ;;; /home/sdcc-builder/build/sdcc-build/orig/sdcc/src/pic14/gen.c:1328:mov2w_op *{*
                      03444 ;; ***  mov2w  1366  offset=1
                      03445 ;; >>> /home/sdcc-builder/build/sdcc-build/orig/sdcc/src/pic14/gen.c:1371:mov2w
                      03446 ;;      1097 rIdx = r0x105C 
                      03447 ;; BANKOPT2 BANKSEL dropped; r0x1014 present in same bank as r0x1016
02D2   08??           03448         MOVF    r0x1014,W       ;id=5799,key=00a,inCond:1,outCond:14,flow seq=026,rIdx=r0x105C
                      03449 ;;      2120 left AOP_REG
                      03450 ;; >>> /home/sdcc-builder/build/sdcc-build/orig/sdcc/src/pic14/gen.c:2128:genCall
                      03451 ;; ***  popRegFromIdx,1030  , rIdx=0x7e
                      03452 ;; BANKOPT1 BANKSEL dropped; STK01 present in all of r0x1016's banks
02D3   00??           03453         MOVWF   STK01   ;id=5803,key=00b,inCond:10,outCond:1,flow seq=026
                      03454 ;;; /home/sdcc-builder/build/sdcc-build/orig/sdcc/src/pic14/gen.c:1328:mov2w_op *{*
                      03455 ;; ***  mov2w  1366  offset=2
                      03456 ;; >>> /home/sdcc-builder/build/sdcc-build/orig/sdcc/src/pic14/gen.c:1371:mov2w
                      03457 ;;      1097 rIdx = r0x105D 
                      03458 ;; BANKOPT2 BANKSEL dropped; r0x1017 present in same bank as r0x1016
02D4   08??           03459         MOVF    r0x1017,W       ;id=5808,key=00c,inCond:1,outCond:14,flow seq=026,rIdx=r0x105D
                      03460 ;;      2120 left AOP_REG
                      03461 ;; >>> /home/sdcc-builder/build/sdcc-build/orig/sdcc/src/pic14/gen.c:2128:genCall
                      03462 ;; ***  popRegFromIdx,1030  , rIdx=0x7f
                      03463 ;; BANKOPT1 BANKSEL dropped; STK00 present in all of r0x1016's banks
02D5   00??           03464         MOVWF   STK00   ;id=5812,key=00d,inCond:10,outCond:1,flow seq=026
                      03465 ;;; /home/sdcc-builder/build/sdcc-build/orig/sdcc/src/pic14/gen.c:1328:mov2w_op *{*
                      03466 ;; ***  mov2w  1366  offset=3
                      03467 ;; >>> /home/sdcc-builder/build/sdcc-build/orig/sdcc/src/pic14/gen.c:1371:mov2w
                      03468 ;;      1097 rIdx = r0x105E 
                      03469 ;; BANKOPT2 BANKSEL dropped; r0x1016 present in same bank as r0x1016
02D6   08??           03470         MOVF    r0x1016,W       ;id=5817,key=00e,inCond:1,outCond:14,flow seq=026,rIdx=r0x105E
                      03471 ;; >>> /home/sdcc-builder/build/sdcc-build/orig/sdcc/src/pic14/gen.c:2160:genCall
02D7   0??? 0???      03472         PAGESEL ___fs2uint      ;id=5819,key=00f,inCond:0,outCond:0,flow seq=026
                      03473 ;; >>> /home/sdcc-builder/build/sdcc-build/orig/sdcc/src/pic14/gen.c:2165:genCall
                      03474 ;; BANKOPT3 drop assumptions: PCI with label or call found
02D9   2???           03475         CALL    ___fs2uint      ;id=5821,key=010,inCond:10,outCond:1e,flow seq=026
                      03476 ;<>Start of new flow, seq=0x27 ancestor = 0x26
                      03477 ;  from: 026 ; to: 028 
                      03478 ;; >>> /home/sdcc-builder/build/sdcc-build/orig/sdcc/src/pic14/gen.c:2173:genCall
02DA   0??? 0???      03479         PAGESEL $       ;id=5823,key=000,inCond:0,outCond:0,flow seq=027
                      03480 ;;      695 register type nRegs=2
                      03481 ;;; /home/sdcc-builder/build/sdcc-build/orig/sdcc/src/pic14/gen.c:1892:assignResultValue *{*
                      03482 ;; ***  assignResultValue  1894
                      03483 ;;      line = 1896 result -=-, size=0, left AOP_REG=r0x105B, size=2, right -=-, size=0
                      03484 ;; >>> /home/sdcc-builder/build/sdcc-build/orig/sdcc/src/pic14/gen.c:1378:movwf
                      03485 ;;      1097 rIdx = r0x105C 
gpasm-1.5.2 #0 (Sep 16 2019) build/default/pr   9-16-2019  10:40:44         PAGE 67


LOC    OBJECT CODE    LINE  SOURCE TEXT
  VALUE

02DC   0??? 0???      03486         BANKSEL r0x1014 ;id=6415,key=001,inCond:0,outCond:0,flow seq=027
02DE   00??           03487         MOVWF   r0x1014 ;id=5830,key=002,inCond:10,outCond:1,flow seq=027,rIdx=r0x105C
                      03488 ;; >>> /home/sdcc-builder/build/sdcc-build/orig/sdcc/src/pic14/gen.c:1408:get_returnvalue
                      03489 ;; ***  popRegFromIdx,1030  , rIdx=0x7f
                      03490 ;; BANKOPT1 BANKSEL dropped; STK00 present in all of r0x1014's banks
02DF   08??           03491         MOVF    STK00,W ;id=5833,key=003,inCond:1,outCond:14,flow seq=027
                      03492 ;; >>> /home/sdcc-builder/build/sdcc-build/orig/sdcc/src/pic14/gen.c:1378:movwf
                      03493 ;;      1097 rIdx = r0x105B 
                      03494 ;; BANKOPT2 BANKSEL dropped; r0x1015 present in same bank as r0x1014
                      03495 ;       .line   237; "../../../src/measure.c"   print_reading(var);
02E0   00??           03496         MOVWF   r0x1015 ;id=5918,key=004,inCond:10,outCond:1,flow seq=027,rIdx=r0x105B
                      03497 ;; BANKOPT1 BANKSEL dropped; STK00 present in all of r0x1014's banks
02E1   00??           03498         MOVWF   STK00   ;id=5858,key=005,inCond:10,outCond:1,flow seq=027
                      03499 ;;; /home/sdcc-builder/build/sdcc-build/orig/sdcc/src/pic14/gen.c:1328:mov2w_op *{*
                      03500 ;; ***  mov2w  1366  offset=1
                      03501 ;; >>> /home/sdcc-builder/build/sdcc-build/orig/sdcc/src/pic14/gen.c:1371:mov2w
                      03502 ;;      1097 rIdx = r0x105C 
                      03503 ;; BANKOPT2 BANKSEL dropped; r0x1014 present in same bank as r0x1014
02E2   08??           03504         MOVF    r0x1014,W       ;id=5863,key=006,inCond:1,outCond:14,flow seq=027,rIdx=r0x105C
                      03505 ;; >>> /home/sdcc-builder/build/sdcc-build/orig/sdcc/src/pic14/gen.c:2160:genCall
02E3   0??? 0???      03506         PAGESEL _print_reading  ;id=5865,key=007,inCond:0,outCond:0,flow seq=027
                      03507 ;; >>> /home/sdcc-builder/build/sdcc-build/orig/sdcc/src/pic14/gen.c:2165:genCall
                      03508 ;; BANKOPT3 drop assumptions: PCI with label or call found
02E5   2???           03509         CALL    _print_reading  ;id=5867,key=008,inCond:10,outCond:1e,flow seq=027
                      03510 ;<>Start of new flow, seq=0x28 ancestor = 0x27
                      03511 ;  from: 027 ; to: 029 
                      03512 ;; >>> /home/sdcc-builder/build/sdcc-build/orig/sdcc/src/pic14/gen.c:2173:genCall
02E6   0??? 0???      03513         PAGESEL $       ;id=5869,key=000,inCond:0,outCond:0,flow seq=028
                      03514 ;;; /home/sdcc-builder/build/sdcc-build/orig/sdcc/src/pic14/gen.c:1830:unsaveRegisters *{*
                      03515 ;; ***  unsaveRegisters  1832
                      03516 ;;; /home/sdcc-builder/build/sdcc-build/orig/sdcc/src/pic14/gen.c:2308:resultRemat *{*
                      03517 ;;; /home/sdcc-builder/build/sdcc-build/orig/sdcc/src/pic14/gen.c:2308:resultRemat *{*
                      03518 ;;; /home/sdcc-builder/build/sdcc-build/orig/sdcc/src/pic14/gen.c:2071:genCall *{*
                      03519 ;; ***  genCall  2073
                      03520 ;;; /home/sdcc-builder/build/sdcc-build/orig/sdcc/src/pic14/gen.c:1786:saveRegisters *{*
                      03521 ;; ***  saveRegisters  1788
                      03522 ;;      695 register type nRegs=1
                      03523 ;;      695 register type nRegs=1
                      03524 ;;      2120 left AOP_REG
                      03525 ;;; /home/sdcc-builder/build/sdcc-build/orig/sdcc/src/pic14/gen.c:1328:mov2w_op *{*
                      03526 ;; ***  mov2w  1366  offset=0
                      03527 ;; >>> /home/sdcc-builder/build/sdcc-build/orig/sdcc/src/pic14/gen.c:1371:mov2w
                      03528 ;;      1097 rIdx = r0x105F 
                      03529 ;       .line   238; "../../../src/measure.c"   print_unit(unit);
02E8   0??? 0???      03530         BANKSEL r0x101B ;id=6421,key=001,inCond:0,outCond:0,flow seq=028
02EA   08??           03531         MOVF    r0x101B,W       ;id=5886,key=002,inCond:1,outCond:14,flow seq=028,rIdx=r0x105F
                      03532 ;; >>> /home/sdcc-builder/build/sdcc-build/orig/sdcc/src/pic14/gen.c:2160:genCall
02EB   0??? 0???      03533         PAGESEL _print_unit     ;id=5888,key=003,inCond:0,outCond:0,flow seq=028
                      03534 ;; >>> /home/sdcc-builder/build/sdcc-build/orig/sdcc/src/pic14/gen.c:2165:genCall
                      03535 ;; BANKOPT3 drop assumptions: PCI with label or call found
02ED   2???           03536         CALL    _print_unit     ;id=5890,key=004,inCond:10,outCond:1e,flow seq=028
                      03537 ;<>Start of new flow, seq=0x29 ancestor = 0x28
                      03538 ;  from: 028 ; to: 
gpasm-1.5.2 #0 (Sep 16 2019) build/default/pr   9-16-2019  10:40:44         PAGE 68


LOC    OBJECT CODE    LINE  SOURCE TEXT
  VALUE

                      03539 ;; >>> /home/sdcc-builder/build/sdcc-build/orig/sdcc/src/pic14/gen.c:2173:genCall
02EE   0??? 0???      03540         PAGESEL $       ;id=5892,key=000,inCond:0,outCond:0,flow seq=029
                      03541 ;;; /home/sdcc-builder/build/sdcc-build/orig/sdcc/src/pic14/gen.c:1830:unsaveRegisters *{*
                      03542 ;; ***  unsaveRegisters  1832
                      03543 ;;; /home/sdcc-builder/build/sdcc-build/orig/sdcc/src/pic14/gen.c:2308:resultRemat *{*
                      03544 ;;; /home/sdcc-builder/build/sdcc-build/orig/sdcc/src/pic14/gen.c:2752:genLabel *{*
                      03545 ;; ***  genLabel  2755
                      03546 ;_00139_DS_:
                      03547 ;;; /home/sdcc-builder/build/sdcc-build/orig/sdcc/src/pic14/gen.c:2308:resultRemat *{*
                      03548 ;;; /home/sdcc-builder/build/sdcc-build/orig/sdcc/src/pic14/gen.c:2520:genEndFunction *{*
                      03549 ;; ***  genEndFunction  2522
                      03550 ;return
                      03551 ;       .line   239; "../../../src/measure.c"   }
02F0   0008           03552         RETURN          ;id=5905,key=001,inCond:10,outCond:e,flow seq=029
                      03553 ;<>Start of new flow, seq=0x2a
                      03554 ;  from: ; to: 
                      03555 ; exit point of _measure_inductance
                      03556 
                      03557 ;***
                      03558 ;  pBlock Stats: dbName = C
                      03559 ;***
                      03560 ;has an exit
                      03561 ;functions called:
                      03562 ;   _measure_freq
                      03563 ;   ___uint2fs
                      03564 ;   ___fslt
                      03565 ;   ___fsmul
                      03566 ;   ___fsmul
                      03567 ;   ___fsmul
                      03568 ;   ___fssub
                      03569 ;   ___fsmul
                      03570 ;   ___fsmul
                      03571 ;   ___fslt
                      03572 ;   ___fslt
                      03573 ;   ___fslt
                      03574 ;   ___fsdiv
                      03575 ;   ___fsdiv
                      03576 ;   ___fsdiv
                      03577 ;   ___fsmul
                      03578 ;   ___fs2uint
                      03579 ;   _print_reading
                      03580 ;   _print_unit
                      03581 ;   _measure_freq
                      03582 ;   ___uint2fs
                      03583 ;   ___fslt
                      03584 ;   ___fsmul
                      03585 ;   ___fsmul
                      03586 ;   ___fsmul
                      03587 ;   ___fssub
                      03588 ;   ___fsmul
                      03589 ;   ___fsmul
                      03590 ;   ___fslt
                      03591 ;   ___fslt
gpasm-1.5.2 #0 (Sep 16 2019) build/default/pr   9-16-2019  10:40:44         PAGE 69


LOC    OBJECT CODE    LINE  SOURCE TEXT
  VALUE

                      03592 ;   ___fslt
                      03593 ;   ___fsdiv
                      03594 ;   ___fsdiv
                      03595 ;   ___fsdiv
                      03596 ;   ___fsmul
                      03597 ;   ___fs2uint
                      03598 ;   _print_reading
                      03599 ;   _print_unit
                      03600 ;19 compiler assigned registers:
                      03601 ;   r0x101C
                      03602 ;   STK00
                      03603 ;   r0x101D
                      03604 ;   STK01
                      03605 ;   STK02
                      03606 ;   STK06
                      03607 ;   STK05
                      03608 ;   STK04
                      03609 ;   STK03
                      03610 ;   r0x101E
                      03611 ;   r0x101F
                      03612 ;   r0x1020
                      03613 ;   r0x1021
                      03614 ;   r0x1022
                      03615 ;   r0x1023
                      03616 ;   r0x1024
                      03617 ;   r0x1025
                      03618 ;   r0x1026
                      03619 ;   r0x1027
                      03620 ;; Starting pCode block
                      03621 ;<>Start of new flow, seq=0x2b ancestor = 0x2b
                      03622 ;  from: ; to: 02c 
                      03623 ;;; /home/sdcc-builder/build/sdcc-build/orig/sdcc/src/pic14/gen.c:2308:resultRemat *{*
                      03624 ;;; /home/sdcc-builder/build/sdcc-build/orig/sdcc/src/pic14/gen.c:2752:genLabel *{*
                      03625 ;; ***  genLabel  2755
                      03626 ;;; /home/sdcc-builder/build/sdcc-build/orig/sdcc/src/pic14/gen.c:2308:resultRemat *{*
                      03627 ;;; /home/sdcc-builder/build/sdcc-build/orig/sdcc/src/pic14/gen.c:2332:genFunction *{*
                      03628 ;; ***  genFunction  2334 curr label offset=8previous max_key=0 
                      03629 ;;      -----------------------------------------
                      03630 ;;       function measure_capacitance
                      03631 ;;      -----------------------------------------
                      03632 ;_measure_capacitance:
                      03633 S_measure__measure_capacitance  code
0000                  03634 _measure_capacitance:
                      03635 ; 2 exit points
                      03636 ;;; /home/sdcc-builder/build/sdcc-build/orig/sdcc/src/pic14/gen.c:2308:resultRemat *{*
                      03637 ;;; /home/sdcc-builder/build/sdcc-build/orig/sdcc/src/pic14/gen.c:2071:genCall *{*
                      03638 ;; ***  genCall  2073
                      03639 ;;; /home/sdcc-builder/build/sdcc-build/orig/sdcc/src/pic14/gen.c:1786:saveRegisters *{*
                      03640 ;; ***  saveRegisters  1788
                      03641 ;; >>> /home/sdcc-builder/build/sdcc-build/orig/sdcc/src/pic14/gen.c:2160:genCall
                      03642 ;       .line   129; "../../../src/measure.c"   var = measure_freq();
0000   0??? 0???      03643         PAGESEL _measure_freq   ;id=1081,key=000,inCond:0,outCond:0,flow seq=02b
                      03644 ;; >>> /home/sdcc-builder/build/sdcc-build/orig/sdcc/src/pic14/gen.c:2165:genCall
gpasm-1.5.2 #0 (Sep 16 2019) build/default/pr   9-16-2019  10:40:44         PAGE 70


LOC    OBJECT CODE    LINE  SOURCE TEXT
  VALUE

                      03645 ;; BANKOPT3 drop assumptions: PCI with label or call found
0002   2???           03646         CALL    _measure_freq   ;id=1083,key=001,inCond:10,outCond:1e,flow seq=02b
                      03647 ;<>Start of new flow, seq=0x2c ancestor = 0x2b
                      03648 ;  from: 02b ; to: 02d 
                      03649 ;; >>> /home/sdcc-builder/build/sdcc-build/orig/sdcc/src/pic14/gen.c:2173:genCall
0003   0??? 0???      03650         PAGESEL $       ;id=1085,key=000,inCond:0,outCond:0,flow seq=02c
                      03651 ;;      695 register type nRegs=2
                      03652 ;;; /home/sdcc-builder/build/sdcc-build/orig/sdcc/src/pic14/gen.c:1892:assignResultValue *{*
                      03653 ;; ***  assignResultValue  1894
                      03654 ;;      line = 1896 result -=-, size=0, left AOP_REG=r0x104E, size=2, right -=-, size=0
                      03655 ;; >>> /home/sdcc-builder/build/sdcc-build/orig/sdcc/src/pic14/gen.c:1378:movwf
                      03656 ;;      1097 rIdx = r0x104F 
0005   0??? 0???      03657         BANKSEL r0x101C ;id=6424,key=001,inCond:0,outCond:0,flow seq=02c
0007   00??           03658         MOVWF   r0x101C ;id=1092,key=002,inCond:10,outCond:1,flow seq=02c,rIdx=r0x104F
                      03659 ;; >>> /home/sdcc-builder/build/sdcc-build/orig/sdcc/src/pic14/gen.c:1408:get_returnvalue
                      03660 ;; ***  popRegFromIdx,1030  , rIdx=0x7f
                      03661 ;; BANKOPT1 BANKSEL dropped; STK00 present in all of r0x101C's banks
0008   08??           03662         MOVF    STK00,W ;id=1095,key=003,inCond:1,outCond:14,flow seq=02c
                      03663 ;; >>> /home/sdcc-builder/build/sdcc-build/orig/sdcc/src/pic14/gen.c:1378:movwf
                      03664 ;;      1097 rIdx = r0x104E 
                      03665 ;; BANKOPT2 BANKSEL dropped; r0x101D present in same bank as r0x101C
                      03666 ;       .line   131; "../../../src/measure.c"   F3 = (double)var;
0009   00??           03667         MOVWF   r0x101D ;id=5919,key=004,inCond:10,outCond:1,flow seq=02c,rIdx=r0x104E
                      03668 ;; BANKOPT1 BANKSEL dropped; STK00 present in all of r0x101C's banks
000A   00??           03669         MOVWF   STK00   ;id=1120,key=005,inCond:10,outCond:1,flow seq=02c
                      03670 ;;; /home/sdcc-builder/build/sdcc-build/orig/sdcc/src/pic14/gen.c:1328:mov2w_op *{*
                      03671 ;; ***  mov2w  1366  offset=1
                      03672 ;; >>> /home/sdcc-builder/build/sdcc-build/orig/sdcc/src/pic14/gen.c:1371:mov2w
                      03673 ;;      1097 rIdx = r0x104F 
                      03674 ;; BANKOPT2 BANKSEL dropped; r0x101C present in same bank as r0x101C
000B   08??           03675         MOVF    r0x101C,W       ;id=1125,key=006,inCond:1,outCond:14,flow seq=02c,rIdx=r0x104F
                      03676 ;; >>> /home/sdcc-builder/build/sdcc-build/orig/sdcc/src/pic14/gen.c:2160:genCall
000C   0??? 0???      03677         PAGESEL ___uint2fs      ;id=1127,key=007,inCond:0,outCond:0,flow seq=02c
                      03678 ;; >>> /home/sdcc-builder/build/sdcc-build/orig/sdcc/src/pic14/gen.c:2165:genCall
                      03679 ;; BANKOPT3 drop assumptions: PCI with label or call found
000E   2???           03680         CALL    ___uint2fs      ;id=1129,key=008,inCond:10,outCond:1e,flow seq=02c
                      03681 ;<>Start of new flow, seq=0x2d ancestor = 0x2c
                      03682 ;  from: 02c ; to: 02e 
                      03683 ;; >>> /home/sdcc-builder/build/sdcc-build/orig/sdcc/src/pic14/gen.c:2173:genCall
000F   0??? 0???      03684         PAGESEL $       ;id=1131,key=000,inCond:0,outCond:0,flow seq=02d
                      03685 ;; ***  aopForSym 316
                      03686 ;;      328 sym->rname = _F3, size = 4
                      03687 ;;; /home/sdcc-builder/build/sdcc-build/orig/sdcc/src/pic14/gen.c:1892:assignResultValue *{*
                      03688 ;; ***  assignResultValue  1894
                      03689 ;;      line = 1896 result -=-, size=0, left AOP_DIR=_F3, size=4, right -=-, size=0
                      03690 ;; >>> /home/sdcc-builder/build/sdcc-build/orig/sdcc/src/pic14/gen.c:1378:movwf
                      03691 ;;      998
                      03692 ;;      1016  _F3   offset=3
0011   0??? 0???      03693         BANKSEL _F3     ;id=6430,key=001,inCond:0,outCond:0,flow seq=02d
0013   00??           03694         MOVWF   (_F3 + 3)       ;id=1140,key=002,inCond:10,outCond:1,flow seq=02d
                      03695 ;; >>> /home/sdcc-builder/build/sdcc-build/orig/sdcc/src/pic14/gen.c:1408:get_returnvalue
                      03696 ;; ***  popRegFromIdx,1030  , rIdx=0x7f
                      03697 ;; BANKOPT1 BANKSEL dropped; STK00 present in all of _F3's banks
gpasm-1.5.2 #0 (Sep 16 2019) build/default/pr   9-16-2019  10:40:44         PAGE 71


LOC    OBJECT CODE    LINE  SOURCE TEXT
  VALUE

0014   08??           03698         MOVF    STK00,W ;id=1143,key=003,inCond:1,outCond:14,flow seq=02d
                      03699 ;; >>> /home/sdcc-builder/build/sdcc-build/orig/sdcc/src/pic14/gen.c:1378:movwf
                      03700 ;;      998
                      03701 ;;      1016  _F3   offset=2
                      03702 ;; BANKOPT2 BANKSEL dropped; _F3 present in same bank as _F3
0015   00??           03703         MOVWF   (_F3 + 2)       ;id=1147,key=004,inCond:10,outCond:1,flow seq=02d
                      03704 ;; >>> /home/sdcc-builder/build/sdcc-build/orig/sdcc/src/pic14/gen.c:1408:get_returnvalue
                      03705 ;; ***  popRegFromIdx,1030  , rIdx=0x7e
                      03706 ;; BANKOPT1 BANKSEL dropped; STK01 present in all of _F3's banks
0016   08??           03707         MOVF    STK01,W ;id=1150,key=005,inCond:1,outCond:14,flow seq=02d
                      03708 ;; >>> /home/sdcc-builder/build/sdcc-build/orig/sdcc/src/pic14/gen.c:1378:movwf
                      03709 ;;      998
                      03710 ;;      1016  _F3   offset=1
                      03711 ;; BANKOPT2 BANKSEL dropped; _F3 present in same bank as _F3
0017   00??           03712         MOVWF   (_F3 + 1)       ;id=1154,key=006,inCond:10,outCond:1,flow seq=02d
                      03713 ;; >>> /home/sdcc-builder/build/sdcc-build/orig/sdcc/src/pic14/gen.c:1408:get_returnvalue
                      03714 ;; ***  popRegFromIdx,1030  , rIdx=0x7d
                      03715 ;; BANKOPT1 BANKSEL dropped; STK02 present in all of _F3's banks
0018   08??           03716         MOVF    STK02,W ;id=1157,key=007,inCond:1,outCond:14,flow seq=02d
                      03717 ;; >>> /home/sdcc-builder/build/sdcc-build/orig/sdcc/src/pic14/gen.c:1378:movwf
                      03718 ;;      998
                      03719 ;;      1016  _F3   offset=0
                      03720 ;; BANKOPT2 BANKSEL dropped; _F3 present in same bank as _F3
0019   00??           03721         MOVWF   _F3     ;id=1161,key=008,inCond:10,outCond:1,flow seq=02d
                      03722 ;;      2188 left AOP_DIR
                      03723 ;;; /home/sdcc-builder/build/sdcc-build/orig/sdcc/src/pic14/gen.c:1830:unsaveRegisters *{*
                      03724 ;; ***  unsaveRegisters  1832
                      03725 ;;; /home/sdcc-builder/build/sdcc-build/orig/sdcc/src/pic14/gen.c:2308:resultRemat *{*
                      03726 ;;; /home/sdcc-builder/build/sdcc-build/orig/sdcc/src/pic14/gen.c:7036:genAssign *{*
                      03727 ;; ***  genAssign  7037
                      03728 ;; ***  aopForSym 316
                      03729 ;;      342 size = 2, name =_output_putch
                      03730 ;; ***  aopForSym 316
                      03731 ;;      328 sym->rname = _putchar_ptr, size = 2
                      03732 ;;      824: aopGet AOP_PCODE type PO_IMMEDIATE
                      03733 ;;      _output_putch
                      03734 ;;      line = 7046 result AOP_DIR=_putchar_ptr, size=2, left -=-, size=0, right AOP_PCODE=_output_putch
                            , size=2
                      03735 ;; ***  genAssign  7132
                      03736 ;;; /home/sdcc-builder/build/sdcc-build/orig/sdcc/src/pic14/gen.c:1328:mov2w_op *{*
                      03737 ;; >>> /home/sdcc-builder/build/sdcc-build/orig/sdcc/src/pic14/gen.c:1346:mov2w_op
                      03738 ;       .line   154; "../../../src/measure.c"   putchar_ptr = &output_putch;
001A   30??           03739         MOVLW   low (_output_putch+0)   ;id=1179,key=009,inCond:400,outCond:10,flow seq=02d
                      03740 ;; >>> /home/sdcc-builder/build/sdcc-build/orig/sdcc/src/pic14/gen.c:7159:genAssign
                      03741 ;;      998
                      03742 ;;      1016  _putchar_ptr   offset=0
001B   0??? 0???      03743         BANKSEL _putchar_ptr    ;id=6437,key=00a,inCond:0,outCond:0,flow seq=02d
001D   00??           03744         MOVWF   _putchar_ptr    ;id=1183,key=00b,inCond:10,outCond:1,flow seq=02d
                      03745 ;; ***  genAssign  7132
                      03746 ;;; /home/sdcc-builder/build/sdcc-build/orig/sdcc/src/pic14/gen.c:1328:mov2w_op *{*
                      03747 ;; >>> /home/sdcc-builder/build/sdcc-build/orig/sdcc/src/pic14/gen.c:1346:mov2w_op
001E   30??           03748         MOVLW   high (_output_putch+0)  ;id=1187,key=00c,inCond:400,outCond:10,flow seq=02d
                      03749 ;; >>> /home/sdcc-builder/build/sdcc-build/orig/sdcc/src/pic14/gen.c:7159:genAssign
gpasm-1.5.2 #0 (Sep 16 2019) build/default/pr   9-16-2019  10:40:44         PAGE 72


LOC    OBJECT CODE    LINE  SOURCE TEXT
  VALUE

                      03750 ;;      998
                      03751 ;;      1016  _putchar_ptr   offset=1
                      03752 ;; BANKOPT2 BANKSEL dropped; _putchar_ptr present in same bank as _putchar_ptr
001F   00??           03753         MOVWF   (_putchar_ptr + 1)      ;id=1191,key=00d,inCond:10,outCond:1,flow seq=02d
                      03754 ;;; /home/sdcc-builder/build/sdcc-build/orig/sdcc/src/pic14/gen.c:2308:resultRemat *{*
                      03755 ;;; /home/sdcc-builder/build/sdcc-build/orig/sdcc/src/pic14/gen.c:2308:resultRemat *{*
                      03756 ;;; /home/sdcc-builder/build/sdcc-build/orig/sdcc/src/pic14/gen.c:2308:resultRemat *{*
                      03757 ;;; /home/sdcc-builder/build/sdcc-build/orig/sdcc/src/pic14/gen.c:2071:genCall *{*
                      03758 ;; ***  genCall  2073
                      03759 ;;; /home/sdcc-builder/build/sdcc-build/orig/sdcc/src/pic14/gen.c:1786:saveRegisters *{*
                      03760 ;; ***  saveRegisters  1788
                      03761 ;; ***  aopForSym 316
                      03762 ;;      328 sym->rname = _F3, size = 4
                      03763 ;; ***  aopForSym 316
                      03764 ;;      328 sym->rname = _F1, size = 4
                      03765 ;; ***  aopForSym 316
                      03766 ;;      328 sym->rname = _F3, size = 4
                      03767 ;;      2120 left AOP_DIR
                      03768 ;;; /home/sdcc-builder/build/sdcc-build/orig/sdcc/src/pic14/gen.c:1328:mov2w_op *{*
                      03769 ;; ***  mov2w  1366  offset=0
                      03770 ;; >>> /home/sdcc-builder/build/sdcc-build/orig/sdcc/src/pic14/gen.c:1371:mov2w
                      03771 ;;      998
                      03772 ;;      1016  _F3   offset=0
                      03773 ;       .line   156; "../../../src/measure.c"   if(F3 > F1)
0020   0??? 0???      03774         BANKSEL _F3     ;id=6439,key=00e,inCond:0,outCond:0,flow seq=02d
0022   08??           03775         MOVF    _F3,W   ;id=1212,key=00f,inCond:1,outCond:14,flow seq=02d
                      03776 ;;      2120 left AOP_DIR
                      03777 ;; >>> /home/sdcc-builder/build/sdcc-build/orig/sdcc/src/pic14/gen.c:2128:genCall
                      03778 ;; ***  popRegFromIdx,1030  , rIdx=0x79
                      03779 ;; BANKOPT1 BANKSEL dropped; STK06 present in all of _F3's banks
0023   00??           03780         MOVWF   STK06   ;id=1216,key=010,inCond:10,outCond:1,flow seq=02d
                      03781 ;;; /home/sdcc-builder/build/sdcc-build/orig/sdcc/src/pic14/gen.c:1328:mov2w_op *{*
                      03782 ;; ***  mov2w  1366  offset=1
                      03783 ;; >>> /home/sdcc-builder/build/sdcc-build/orig/sdcc/src/pic14/gen.c:1371:mov2w
                      03784 ;;      998
                      03785 ;;      1016  _F3   offset=1
                      03786 ;; BANKOPT2 BANKSEL dropped; _F3 present in same bank as _F3
0024   08??           03787         MOVF    (_F3 + 1),W     ;id=1222,key=011,inCond:1,outCond:14,flow seq=02d
                      03788 ;;      2120 left AOP_DIR
                      03789 ;; >>> /home/sdcc-builder/build/sdcc-build/orig/sdcc/src/pic14/gen.c:2128:genCall
                      03790 ;; ***  popRegFromIdx,1030  , rIdx=0x7a
                      03791 ;; BANKOPT1 BANKSEL dropped; STK05 present in all of _F3's banks
0025   00??           03792         MOVWF   STK05   ;id=1226,key=012,inCond:10,outCond:1,flow seq=02d
                      03793 ;;; /home/sdcc-builder/build/sdcc-build/orig/sdcc/src/pic14/gen.c:1328:mov2w_op *{*
                      03794 ;; ***  mov2w  1366  offset=2
                      03795 ;; >>> /home/sdcc-builder/build/sdcc-build/orig/sdcc/src/pic14/gen.c:1371:mov2w
                      03796 ;;      998
                      03797 ;;      1016  _F3   offset=2
                      03798 ;; BANKOPT2 BANKSEL dropped; _F3 present in same bank as _F3
0026   08??           03799         MOVF    (_F3 + 2),W     ;id=1232,key=013,inCond:1,outCond:14,flow seq=02d
                      03800 ;;      2120 left AOP_DIR
                      03801 ;; >>> /home/sdcc-builder/build/sdcc-build/orig/sdcc/src/pic14/gen.c:2128:genCall
                      03802 ;; ***  popRegFromIdx,1030  , rIdx=0x7b
gpasm-1.5.2 #0 (Sep 16 2019) build/default/pr   9-16-2019  10:40:44         PAGE 73


LOC    OBJECT CODE    LINE  SOURCE TEXT
  VALUE

                      03803 ;; BANKOPT1 BANKSEL dropped; STK04 present in all of _F3's banks
0027   00??           03804         MOVWF   STK04   ;id=1236,key=014,inCond:10,outCond:1,flow seq=02d
                      03805 ;;; /home/sdcc-builder/build/sdcc-build/orig/sdcc/src/pic14/gen.c:1328:mov2w_op *{*
                      03806 ;; ***  mov2w  1366  offset=3
                      03807 ;; >>> /home/sdcc-builder/build/sdcc-build/orig/sdcc/src/pic14/gen.c:1371:mov2w
                      03808 ;;      998
                      03809 ;;      1016  _F3   offset=3
                      03810 ;; BANKOPT2 BANKSEL dropped; _F3 present in same bank as _F3
0028   08??           03811         MOVF    (_F3 + 3),W     ;id=1242,key=015,inCond:1,outCond:14,flow seq=02d
                      03812 ;; ***  aopForSym 316
                      03813 ;;      328 sym->rname = _F1, size = 4
                      03814 ;;      2120 left AOP_DIR
                      03815 ;; >>> /home/sdcc-builder/build/sdcc-build/orig/sdcc/src/pic14/gen.c:2128:genCall
                      03816 ;; ***  popRegFromIdx,1030  , rIdx=0x7c
                      03817 ;; BANKOPT1 BANKSEL dropped; STK03 present in all of _F3's banks
0029   00??           03818         MOVWF   STK03   ;id=1248,key=016,inCond:10,outCond:1,flow seq=02d
                      03819 ;;; /home/sdcc-builder/build/sdcc-build/orig/sdcc/src/pic14/gen.c:1328:mov2w_op *{*
                      03820 ;; ***  mov2w  1366  offset=0
                      03821 ;; >>> /home/sdcc-builder/build/sdcc-build/orig/sdcc/src/pic14/gen.c:1371:mov2w
                      03822 ;;      998
                      03823 ;;      1016  _F1   offset=0
002A   0??? 0???      03824         BANKSEL _F1     ;id=6447,key=017,inCond:0,outCond:0,flow seq=02d
002C   08??           03825         MOVF    _F1,W   ;id=1254,key=018,inCond:1,outCond:14,flow seq=02d
                      03826 ;;      2120 left AOP_DIR
                      03827 ;; >>> /home/sdcc-builder/build/sdcc-build/orig/sdcc/src/pic14/gen.c:2128:genCall
                      03828 ;; ***  popRegFromIdx,1030  , rIdx=0x7d
                      03829 ;; BANKOPT1 BANKSEL dropped; STK02 present in all of _F1's banks
002D   00??           03830         MOVWF   STK02   ;id=1258,key=019,inCond:10,outCond:1,flow seq=02d
                      03831 ;;; /home/sdcc-builder/build/sdcc-build/orig/sdcc/src/pic14/gen.c:1328:mov2w_op *{*
                      03832 ;; ***  mov2w  1366  offset=1
                      03833 ;; >>> /home/sdcc-builder/build/sdcc-build/orig/sdcc/src/pic14/gen.c:1371:mov2w
                      03834 ;;      998
                      03835 ;;      1016  _F1   offset=1
                      03836 ;; BANKOPT2 BANKSEL dropped; _F1 present in same bank as _F1
002E   08??           03837         MOVF    (_F1 + 1),W     ;id=1264,key=01a,inCond:1,outCond:14,flow seq=02d
                      03838 ;;      2120 left AOP_DIR
                      03839 ;; >>> /home/sdcc-builder/build/sdcc-build/orig/sdcc/src/pic14/gen.c:2128:genCall
                      03840 ;; ***  popRegFromIdx,1030  , rIdx=0x7e
                      03841 ;; BANKOPT1 BANKSEL dropped; STK01 present in all of _F1's banks
002F   00??           03842         MOVWF   STK01   ;id=1268,key=01b,inCond:10,outCond:1,flow seq=02d
                      03843 ;;; /home/sdcc-builder/build/sdcc-build/orig/sdcc/src/pic14/gen.c:1328:mov2w_op *{*
                      03844 ;; ***  mov2w  1366  offset=2
                      03845 ;; >>> /home/sdcc-builder/build/sdcc-build/orig/sdcc/src/pic14/gen.c:1371:mov2w
                      03846 ;;      998
                      03847 ;;      1016  _F1   offset=2
                      03848 ;; BANKOPT2 BANKSEL dropped; _F1 present in same bank as _F1
0030   08??           03849         MOVF    (_F1 + 2),W     ;id=1274,key=01c,inCond:1,outCond:14,flow seq=02d
                      03850 ;;      2120 left AOP_DIR
                      03851 ;; >>> /home/sdcc-builder/build/sdcc-build/orig/sdcc/src/pic14/gen.c:2128:genCall
                      03852 ;; ***  popRegFromIdx,1030  , rIdx=0x7f
                      03853 ;; BANKOPT1 BANKSEL dropped; STK00 present in all of _F1's banks
0031   00??           03854         MOVWF   STK00   ;id=1278,key=01d,inCond:10,outCond:1,flow seq=02d
                      03855 ;;; /home/sdcc-builder/build/sdcc-build/orig/sdcc/src/pic14/gen.c:1328:mov2w_op *{*
gpasm-1.5.2 #0 (Sep 16 2019) build/default/pr   9-16-2019  10:40:44         PAGE 74


LOC    OBJECT CODE    LINE  SOURCE TEXT
  VALUE

                      03856 ;; ***  mov2w  1366  offset=3
                      03857 ;; >>> /home/sdcc-builder/build/sdcc-build/orig/sdcc/src/pic14/gen.c:1371:mov2w
                      03858 ;;      998
                      03859 ;;      1016  _F1   offset=3
                      03860 ;; BANKOPT2 BANKSEL dropped; _F1 present in same bank as _F1
0032   08??           03861         MOVF    (_F1 + 3),W     ;id=1284,key=01e,inCond:1,outCond:14,flow seq=02d
                      03862 ;; >>> /home/sdcc-builder/build/sdcc-build/orig/sdcc/src/pic14/gen.c:2160:genCall
0033   0??? 0???      03863         PAGESEL ___fslt ;id=1286,key=01f,inCond:0,outCond:0,flow seq=02d
                      03864 ;; >>> /home/sdcc-builder/build/sdcc-build/orig/sdcc/src/pic14/gen.c:2165:genCall
                      03865 ;; BANKOPT3 drop assumptions: PCI with label or call found
0035   2???           03866         CALL    ___fslt ;id=1288,key=020,inCond:10,outCond:1e,flow seq=02d
                      03867 ;<>Start of new flow, seq=0x2e ancestor = 0x2d
                      03868 ;  from: 02d ; to: 030 02f 
                      03869 ;; >>> /home/sdcc-builder/build/sdcc-build/orig/sdcc/src/pic14/gen.c:2173:genCall
0036   0??? 0???      03870         PAGESEL $       ;id=1290,key=000,inCond:0,outCond:0,flow seq=02e
                      03871 ;;      695 register type nRegs=1
                      03872 ;;; /home/sdcc-builder/build/sdcc-build/orig/sdcc/src/pic14/gen.c:1892:assignResultValue *{*
                      03873 ;; ***  assignResultValue  1894
                      03874 ;;      line = 1896 result -=-, size=0, left AOP_REG=r0x104E, size=1, right -=-, size=0
                      03875 ;; >>> /home/sdcc-builder/build/sdcc-build/orig/sdcc/src/pic14/gen.c:1378:movwf
                      03876 ;;      1097 rIdx = r0x104E 
0038   0??? 0???      03877         BANKSEL r0x101D ;id=6455,key=001,inCond:0,outCond:0,flow seq=02e
003A   00??           03878         MOVWF   r0x101D ;id=1297,key=002,inCond:10,outCond:1,flow seq=02e,rIdx=r0x104E
                      03879 ;;      2188 left AOP_REG
                      03880 ;;; /home/sdcc-builder/build/sdcc-build/orig/sdcc/src/pic14/gen.c:1830:unsaveRegisters *{*
                      03881 ;; ***  unsaveRegisters  1832
                      03882 ;;; /home/sdcc-builder/build/sdcc-build/orig/sdcc/src/pic14/gen.c:2308:resultRemat *{*
                      03883 ;;; /home/sdcc-builder/build/sdcc-build/orig/sdcc/src/pic14/gen.c:6868:genIfx *{*
                      03884 ;; ***  genIfx  6869
                      03885 ;;      695 register type nRegs=1
                      03886 ;; ***  pic14_toBoolean  1500
                      03887 ;; >>> /home/sdcc-builder/build/sdcc-build/orig/sdcc/src/pic14/gen.c:1507:pic14_toBoolean
                      03888 ;; BANKOPT2 BANKSEL dropped; r0x101D present in same bank as r0x101D
003B   08??           03889         MOVF    r0x101D,W       ;id=5920,key=003,inCond:1,outCond:14,flow seq=02e,rIdx=r0x104E
003C   1903           03890         BTFSC   STATUS,2        ;id=1312,key=004,inCond:25,outCond:0,flow seq=02e
                      03891 ;<>Start of new flow, seq=0x2f ancestor = 0x2e
                      03892 ;  from: 02e ; to: 031 
                      03893 ;; >>> /home/sdcc-builder/build/sdcc-build/orig/sdcc/src/pic14/gen.c:6923:genIfx
                      03894 ;; ***  popGetLabel  key=2, label offset 12
003D   2???           03895         GOTO    _00114_DS_      ;id=1315,key=000,inCond:0,outCond:0,flow seq=02f
                      03896 ;<>Start of new flow, seq=0x30 ancestor = 0x2e
                      03897 ;  from: 02e ; to: 031 
                      03898 ;;; /home/sdcc-builder/build/sdcc-build/orig/sdcc/src/pic14/gen.c:2308:resultRemat *{*
                      03899 ;;; /home/sdcc-builder/build/sdcc-build/orig/sdcc/src/pic14/gen.c:7036:genAssign *{*
                      03900 ;; ***  genAssign  7037
                      03901 ;; ***  aopForSym 316
                      03902 ;;      328 sym->rname = _F1, size = 4
                      03903 ;; ***  aopForSym 316
                      03904 ;;      328 sym->rname = _F3, size = 4
                      03905 ;;      line = 7046 result AOP_DIR=_F3, size=4, left -=-, size=0, right AOP_DIR=_F1, size=4
                      03906 ;; ***  genAssign  7132
                      03907 ;;; /home/sdcc-builder/build/sdcc-build/orig/sdcc/src/pic14/gen.c:1328:mov2w_op *{*
                      03908 ;; ***  mov2w  1366  offset=0
gpasm-1.5.2 #0 (Sep 16 2019) build/default/pr   9-16-2019  10:40:44         PAGE 75


LOC    OBJECT CODE    LINE  SOURCE TEXT
  VALUE

                      03909 ;; >>> /home/sdcc-builder/build/sdcc-build/orig/sdcc/src/pic14/gen.c:1371:mov2w
                      03910 ;;      998
                      03911 ;;      1016  _F1   offset=0
                      03912 ;       .line   157; "../../../src/measure.c"   F3 = F1; // max freq is F1;
003E   0??? 0???      03913         BANKSEL _F1     ;id=6457,key=000,inCond:0,outCond:0,flow seq=030
0040   08??           03914         MOVF    _F1,W   ;id=1331,key=001,inCond:1,outCond:14,flow seq=030
                      03915 ;; >>> /home/sdcc-builder/build/sdcc-build/orig/sdcc/src/pic14/gen.c:7159:genAssign
                      03916 ;;      998
                      03917 ;;      1016  _F3   offset=0
0041   0??? 0???      03918         BANKSEL _F3     ;id=6458,key=002,inCond:0,outCond:0,flow seq=030
0043   00??           03919         MOVWF   _F3     ;id=1335,key=003,inCond:10,outCond:1,flow seq=030
                      03920 ;; ***  genAssign  7132
                      03921 ;;; /home/sdcc-builder/build/sdcc-build/orig/sdcc/src/pic14/gen.c:1328:mov2w_op *{*
                      03922 ;; ***  mov2w  1366  offset=1
                      03923 ;; >>> /home/sdcc-builder/build/sdcc-build/orig/sdcc/src/pic14/gen.c:1371:mov2w
                      03924 ;;      998
                      03925 ;;      1016  _F1   offset=1
0044   0??? 0???      03926         BANKSEL _F1     ;id=6459,key=004,inCond:0,outCond:0,flow seq=030
0046   08??           03927         MOVF    (_F1 + 1),W     ;id=1342,key=005,inCond:1,outCond:14,flow seq=030
                      03928 ;; >>> /home/sdcc-builder/build/sdcc-build/orig/sdcc/src/pic14/gen.c:7159:genAssign
                      03929 ;;      998
                      03930 ;;      1016  _F3   offset=1
0047   0??? 0???      03931         BANKSEL _F3     ;id=6460,key=006,inCond:0,outCond:0,flow seq=030
0049   00??           03932         MOVWF   (_F3 + 1)       ;id=1346,key=007,inCond:10,outCond:1,flow seq=030
                      03933 ;; ***  genAssign  7132
                      03934 ;;; /home/sdcc-builder/build/sdcc-build/orig/sdcc/src/pic14/gen.c:1328:mov2w_op *{*
                      03935 ;; ***  mov2w  1366  offset=2
                      03936 ;; >>> /home/sdcc-builder/build/sdcc-build/orig/sdcc/src/pic14/gen.c:1371:mov2w
                      03937 ;;      998
                      03938 ;;      1016  _F1   offset=2
004A   0??? 0???      03939         BANKSEL _F1     ;id=6461,key=008,inCond:0,outCond:0,flow seq=030
004C   08??           03940         MOVF    (_F1 + 2),W     ;id=1353,key=009,inCond:1,outCond:14,flow seq=030
                      03941 ;; >>> /home/sdcc-builder/build/sdcc-build/orig/sdcc/src/pic14/gen.c:7159:genAssign
                      03942 ;;      998
                      03943 ;;      1016  _F3   offset=2
004D   0??? 0???      03944         BANKSEL _F3     ;id=6462,key=00a,inCond:0,outCond:0,flow seq=030
004F   00??           03945         MOVWF   (_F3 + 2)       ;id=1357,key=00b,inCond:10,outCond:1,flow seq=030
                      03946 ;; ***  genAssign  7132
                      03947 ;;; /home/sdcc-builder/build/sdcc-build/orig/sdcc/src/pic14/gen.c:1328:mov2w_op *{*
                      03948 ;; ***  mov2w  1366  offset=3
                      03949 ;; >>> /home/sdcc-builder/build/sdcc-build/orig/sdcc/src/pic14/gen.c:1371:mov2w
                      03950 ;;      998
                      03951 ;;      1016  _F1   offset=3
0050   0??? 0???      03952         BANKSEL _F1     ;id=6463,key=00c,inCond:0,outCond:0,flow seq=030
0052   08??           03953         MOVF    (_F1 + 3),W     ;id=1364,key=00d,inCond:1,outCond:14,flow seq=030
                      03954 ;; >>> /home/sdcc-builder/build/sdcc-build/orig/sdcc/src/pic14/gen.c:7159:genAssign
                      03955 ;;      998
                      03956 ;;      1016  _F3   offset=3
0053   0??? 0???      03957         BANKSEL _F3     ;id=6464,key=00e,inCond:0,outCond:0,flow seq=030
0055   00??           03958         MOVWF   (_F3 + 3)       ;id=1368,key=00f,inCond:10,outCond:1,flow seq=030
                      03959 ;<>Start of new flow, seq=0x31 ancestor = 0x2f
                      03960 ;  from: 030 02f ; to: 032 
                      03961 ;;; /home/sdcc-builder/build/sdcc-build/orig/sdcc/src/pic14/gen.c:2308:resultRemat *{*
gpasm-1.5.2 #0 (Sep 16 2019) build/default/pr   9-16-2019  10:40:44         PAGE 76


LOC    OBJECT CODE    LINE  SOURCE TEXT
  VALUE

                      03962 ;;; /home/sdcc-builder/build/sdcc-build/orig/sdcc/src/pic14/gen.c:2752:genLabel *{*
                      03963 ;; ***  genLabel  2755
                      03964 ;_00114_DS_:
                      03965 ;;; /home/sdcc-builder/build/sdcc-build/orig/sdcc/src/pic14/gen.c:2308:resultRemat *{*
                      03966 ;;; /home/sdcc-builder/build/sdcc-build/orig/sdcc/src/pic14/gen.c:2308:resultRemat *{*
                      03967 ;;; /home/sdcc-builder/build/sdcc-build/orig/sdcc/src/pic14/gen.c:2308:resultRemat *{*
                      03968 ;;; /home/sdcc-builder/build/sdcc-build/orig/sdcc/src/pic14/gen.c:2071:genCall *{*
                      03969 ;; ***  genCall  2073
                      03970 ;;; /home/sdcc-builder/build/sdcc-build/orig/sdcc/src/pic14/gen.c:1786:saveRegisters *{*
                      03971 ;; ***  saveRegisters  1788
                      03972 ;; ***  aopForSym 316
                      03973 ;;      328 sym->rname = _F2, size = 4
                      03974 ;; ***  aopForSym 316
                      03975 ;;      328 sym->rname = _F2, size = 4
                      03976 ;; ***  aopForSym 316
                      03977 ;;      328 sym->rname = _F2, size = 4
                      03978 ;;      2120 left AOP_DIR
                      03979 ;;; /home/sdcc-builder/build/sdcc-build/orig/sdcc/src/pic14/gen.c:1328:mov2w_op *{*
                      03980 ;; ***  mov2w  1366  offset=0
                      03981 ;; >>> /home/sdcc-builder/build/sdcc-build/orig/sdcc/src/pic14/gen.c:1371:mov2w
                      03982 ;;      998
                      03983 ;;      1016  _F2   offset=0
                      03984 ;; BANKOPT3 drop assumptions: PCI with label or call found
0056                  03985 _00114_DS_:
                      03986 ;       .line   159; "../../../src/measure.c"   Cin = F2 * F2 * (F1 * F1 - F3 * F3) * CCal;
0056   0??? 0???      03987         BANKSEL _F2     ;id=6466,key=000,inCond:0,outCond:0,flow seq=031
0058   08??           03988         MOVF    _F2,W   ;id=1394,key=001,inCond:1,outCond:14,flow seq=031
                      03989 ;;      2120 left AOP_DIR
                      03990 ;; >>> /home/sdcc-builder/build/sdcc-build/orig/sdcc/src/pic14/gen.c:2128:genCall
                      03991 ;; ***  popRegFromIdx,1030  , rIdx=0x79
                      03992 ;; BANKOPT1 BANKSEL dropped; STK06 present in all of _F2's banks
0059   00??           03993         MOVWF   STK06   ;id=1398,key=002,inCond:10,outCond:1,flow seq=031
                      03994 ;;; /home/sdcc-builder/build/sdcc-build/orig/sdcc/src/pic14/gen.c:1328:mov2w_op *{*
                      03995 ;; ***  mov2w  1366  offset=1
                      03996 ;; >>> /home/sdcc-builder/build/sdcc-build/orig/sdcc/src/pic14/gen.c:1371:mov2w
                      03997 ;;      998
                      03998 ;;      1016  _F2   offset=1
                      03999 ;; BANKOPT2 BANKSEL dropped; _F2 present in same bank as _F2
005A   08??           04000         MOVF    (_F2 + 1),W     ;id=1404,key=003,inCond:1,outCond:14,flow seq=031
                      04001 ;;      2120 left AOP_DIR
                      04002 ;; >>> /home/sdcc-builder/build/sdcc-build/orig/sdcc/src/pic14/gen.c:2128:genCall
                      04003 ;; ***  popRegFromIdx,1030  , rIdx=0x7a
                      04004 ;; BANKOPT1 BANKSEL dropped; STK05 present in all of _F2's banks
005B   00??           04005         MOVWF   STK05   ;id=1408,key=004,inCond:10,outCond:1,flow seq=031
                      04006 ;;; /home/sdcc-builder/build/sdcc-build/orig/sdcc/src/pic14/gen.c:1328:mov2w_op *{*
                      04007 ;; ***  mov2w  1366  offset=2
                      04008 ;; >>> /home/sdcc-builder/build/sdcc-build/orig/sdcc/src/pic14/gen.c:1371:mov2w
                      04009 ;;      998
                      04010 ;;      1016  _F2   offset=2
                      04011 ;; BANKOPT2 BANKSEL dropped; _F2 present in same bank as _F2
005C   08??           04012         MOVF    (_F2 + 2),W     ;id=1414,key=005,inCond:1,outCond:14,flow seq=031
                      04013 ;;      2120 left AOP_DIR
                      04014 ;; >>> /home/sdcc-builder/build/sdcc-build/orig/sdcc/src/pic14/gen.c:2128:genCall
gpasm-1.5.2 #0 (Sep 16 2019) build/default/pr   9-16-2019  10:40:44         PAGE 77


LOC    OBJECT CODE    LINE  SOURCE TEXT
  VALUE

                      04015 ;; ***  popRegFromIdx,1030  , rIdx=0x7b
                      04016 ;; BANKOPT1 BANKSEL dropped; STK04 present in all of _F2's banks
005D   00??           04017         MOVWF   STK04   ;id=1418,key=006,inCond:10,outCond:1,flow seq=031
                      04018 ;;; /home/sdcc-builder/build/sdcc-build/orig/sdcc/src/pic14/gen.c:1328:mov2w_op *{*
                      04019 ;; ***  mov2w  1366  offset=3
                      04020 ;; >>> /home/sdcc-builder/build/sdcc-build/orig/sdcc/src/pic14/gen.c:1371:mov2w
                      04021 ;;      998
                      04022 ;;      1016  _F2   offset=3
                      04023 ;; BANKOPT2 BANKSEL dropped; _F2 present in same bank as _F2
005E   08??           04024         MOVF    (_F2 + 3),W     ;id=1424,key=007,inCond:1,outCond:14,flow seq=031
                      04025 ;; ***  aopForSym 316
                      04026 ;;      328 sym->rname = _F2, size = 4
                      04027 ;;      2120 left AOP_DIR
                      04028 ;; >>> /home/sdcc-builder/build/sdcc-build/orig/sdcc/src/pic14/gen.c:2128:genCall
                      04029 ;; ***  popRegFromIdx,1030  , rIdx=0x7c
                      04030 ;; BANKOPT1 BANKSEL dropped; STK03 present in all of _F2's banks
005F   00??           04031         MOVWF   STK03   ;id=1430,key=008,inCond:10,outCond:1,flow seq=031
                      04032 ;;; /home/sdcc-builder/build/sdcc-build/orig/sdcc/src/pic14/gen.c:1328:mov2w_op *{*
                      04033 ;; ***  mov2w  1366  offset=0
                      04034 ;; >>> /home/sdcc-builder/build/sdcc-build/orig/sdcc/src/pic14/gen.c:1371:mov2w
                      04035 ;;      998
                      04036 ;;      1016  _F2   offset=0
                      04037 ;; BANKOPT2 BANKSEL dropped; _F2 present in same bank as _F2
0060   08??           04038         MOVF    _F2,W   ;id=1436,key=009,inCond:1,outCond:14,flow seq=031
                      04039 ;;      2120 left AOP_DIR
                      04040 ;; >>> /home/sdcc-builder/build/sdcc-build/orig/sdcc/src/pic14/gen.c:2128:genCall
                      04041 ;; ***  popRegFromIdx,1030  , rIdx=0x7d
                      04042 ;; BANKOPT1 BANKSEL dropped; STK02 present in all of _F2's banks
0061   00??           04043         MOVWF   STK02   ;id=1440,key=00a,inCond:10,outCond:1,flow seq=031
                      04044 ;;; /home/sdcc-builder/build/sdcc-build/orig/sdcc/src/pic14/gen.c:1328:mov2w_op *{*
                      04045 ;; ***  mov2w  1366  offset=1
                      04046 ;; >>> /home/sdcc-builder/build/sdcc-build/orig/sdcc/src/pic14/gen.c:1371:mov2w
                      04047 ;;      998
                      04048 ;;      1016  _F2   offset=1
                      04049 ;; BANKOPT2 BANKSEL dropped; _F2 present in same bank as _F2
0062   08??           04050         MOVF    (_F2 + 1),W     ;id=1446,key=00b,inCond:1,outCond:14,flow seq=031
                      04051 ;;      2120 left AOP_DIR
                      04052 ;; >>> /home/sdcc-builder/build/sdcc-build/orig/sdcc/src/pic14/gen.c:2128:genCall
                      04053 ;; ***  popRegFromIdx,1030  , rIdx=0x7e
                      04054 ;; BANKOPT1 BANKSEL dropped; STK01 present in all of _F2's banks
0063   00??           04055         MOVWF   STK01   ;id=1450,key=00c,inCond:10,outCond:1,flow seq=031
                      04056 ;;; /home/sdcc-builder/build/sdcc-build/orig/sdcc/src/pic14/gen.c:1328:mov2w_op *{*
                      04057 ;; ***  mov2w  1366  offset=2
                      04058 ;; >>> /home/sdcc-builder/build/sdcc-build/orig/sdcc/src/pic14/gen.c:1371:mov2w
                      04059 ;;      998
                      04060 ;;      1016  _F2   offset=2
                      04061 ;; BANKOPT2 BANKSEL dropped; _F2 present in same bank as _F2
0064   08??           04062         MOVF    (_F2 + 2),W     ;id=1456,key=00d,inCond:1,outCond:14,flow seq=031
                      04063 ;;      2120 left AOP_DIR
                      04064 ;; >>> /home/sdcc-builder/build/sdcc-build/orig/sdcc/src/pic14/gen.c:2128:genCall
                      04065 ;; ***  popRegFromIdx,1030  , rIdx=0x7f
                      04066 ;; BANKOPT1 BANKSEL dropped; STK00 present in all of _F2's banks
0065   00??           04067         MOVWF   STK00   ;id=1460,key=00e,inCond:10,outCond:1,flow seq=031
gpasm-1.5.2 #0 (Sep 16 2019) build/default/pr   9-16-2019  10:40:44         PAGE 78


LOC    OBJECT CODE    LINE  SOURCE TEXT
  VALUE

                      04068 ;;; /home/sdcc-builder/build/sdcc-build/orig/sdcc/src/pic14/gen.c:1328:mov2w_op *{*
                      04069 ;; ***  mov2w  1366  offset=3
                      04070 ;; >>> /home/sdcc-builder/build/sdcc-build/orig/sdcc/src/pic14/gen.c:1371:mov2w
                      04071 ;;      998
                      04072 ;;      1016  _F2   offset=3
                      04073 ;; BANKOPT2 BANKSEL dropped; _F2 present in same bank as _F2
0066   08??           04074         MOVF    (_F2 + 3),W     ;id=1466,key=00f,inCond:1,outCond:14,flow seq=031
                      04075 ;; >>> /home/sdcc-builder/build/sdcc-build/orig/sdcc/src/pic14/gen.c:2160:genCall
0067   0??? 0???      04076         PAGESEL ___fsmul        ;id=1468,key=010,inCond:0,outCond:0,flow seq=031
                      04077 ;; >>> /home/sdcc-builder/build/sdcc-build/orig/sdcc/src/pic14/gen.c:2165:genCall
                      04078 ;; BANKOPT3 drop assumptions: PCI with label or call found
0069   2???           04079         CALL    ___fsmul        ;id=1470,key=011,inCond:10,outCond:1e,flow seq=031
                      04080 ;<>Start of new flow, seq=0x32 ancestor = 0x31
                      04081 ;  from: 031 ; to: 033 
                      04082 ;; >>> /home/sdcc-builder/build/sdcc-build/orig/sdcc/src/pic14/gen.c:2173:genCall
006A   0??? 0???      04083         PAGESEL $       ;id=1472,key=000,inCond:0,outCond:0,flow seq=032
                      04084 ;;      695 register type nRegs=4
                      04085 ;;; /home/sdcc-builder/build/sdcc-build/orig/sdcc/src/pic14/gen.c:1892:assignResultValue *{*
                      04086 ;; ***  assignResultValue  1894
                      04087 ;;      line = 1896 result -=-, size=0, left AOP_REG=r0x104E, size=4, right -=-, size=0
                      04088 ;; >>> /home/sdcc-builder/build/sdcc-build/orig/sdcc/src/pic14/gen.c:1378:movwf
                      04089 ;;      1097 rIdx = r0x1051 
006C   0??? 0???      04090         BANKSEL r0x101E ;id=6482,key=001,inCond:0,outCond:0,flow seq=032
006E   00??           04091         MOVWF   r0x101E ;id=1479,key=002,inCond:10,outCond:1,flow seq=032,rIdx=r0x1051
                      04092 ;; >>> /home/sdcc-builder/build/sdcc-build/orig/sdcc/src/pic14/gen.c:1408:get_returnvalue
                      04093 ;; ***  popRegFromIdx,1030  , rIdx=0x7f
                      04094 ;; BANKOPT1 BANKSEL dropped; STK00 present in all of r0x101E's banks
006F   08??           04095         MOVF    STK00,W ;id=1482,key=003,inCond:1,outCond:14,flow seq=032
                      04096 ;; >>> /home/sdcc-builder/build/sdcc-build/orig/sdcc/src/pic14/gen.c:1378:movwf
                      04097 ;;      1097 rIdx = r0x1050 
                      04098 ;; BANKOPT2 BANKSEL dropped; r0x101F present in same bank as r0x101E
0070   00??           04099         MOVWF   r0x101F ;id=1485,key=004,inCond:10,outCond:1,flow seq=032,rIdx=r0x1050
                      04100 ;; >>> /home/sdcc-builder/build/sdcc-build/orig/sdcc/src/pic14/gen.c:1408:get_returnvalue
                      04101 ;; ***  popRegFromIdx,1030  , rIdx=0x7e
                      04102 ;; BANKOPT1 BANKSEL dropped; STK01 present in all of r0x101E's banks
0071   08??           04103         MOVF    STK01,W ;id=1488,key=005,inCond:1,outCond:14,flow seq=032
                      04104 ;; >>> /home/sdcc-builder/build/sdcc-build/orig/sdcc/src/pic14/gen.c:1378:movwf
                      04105 ;;      1097 rIdx = r0x104F 
                      04106 ;; BANKOPT2 BANKSEL dropped; r0x101C present in same bank as r0x101E
0072   00??           04107         MOVWF   r0x101C ;id=1491,key=006,inCond:10,outCond:1,flow seq=032,rIdx=r0x104F
                      04108 ;; >>> /home/sdcc-builder/build/sdcc-build/orig/sdcc/src/pic14/gen.c:1408:get_returnvalue
                      04109 ;; ***  popRegFromIdx,1030  , rIdx=0x7d
                      04110 ;; BANKOPT1 BANKSEL dropped; STK02 present in all of r0x101E's banks
0073   08??           04111         MOVF    STK02,W ;id=1494,key=007,inCond:1,outCond:14,flow seq=032
                      04112 ;; >>> /home/sdcc-builder/build/sdcc-build/orig/sdcc/src/pic14/gen.c:1378:movwf
                      04113 ;;      1097 rIdx = r0x104E 
                      04114 ;; BANKOPT2 BANKSEL dropped; r0x101D present in same bank as r0x101E
0074   00??           04115         MOVWF   r0x101D ;id=1497,key=008,inCond:10,outCond:1,flow seq=032,rIdx=r0x104E
                      04116 ;;      2188 left AOP_REG
                      04117 ;;; /home/sdcc-builder/build/sdcc-build/orig/sdcc/src/pic14/gen.c:1830:unsaveRegisters *{*
                      04118 ;; ***  unsaveRegisters  1832
                      04119 ;;; /home/sdcc-builder/build/sdcc-build/orig/sdcc/src/pic14/gen.c:2308:resultRemat *{*
                      04120 ;;; /home/sdcc-builder/build/sdcc-build/orig/sdcc/src/pic14/gen.c:2308:resultRemat *{*
gpasm-1.5.2 #0 (Sep 16 2019) build/default/pr   9-16-2019  10:40:44         PAGE 79


LOC    OBJECT CODE    LINE  SOURCE TEXT
  VALUE

                      04121 ;;; /home/sdcc-builder/build/sdcc-build/orig/sdcc/src/pic14/gen.c:2308:resultRemat *{*
                      04122 ;;; /home/sdcc-builder/build/sdcc-build/orig/sdcc/src/pic14/gen.c:2071:genCall *{*
                      04123 ;; ***  genCall  2073
                      04124 ;;; /home/sdcc-builder/build/sdcc-build/orig/sdcc/src/pic14/gen.c:1786:saveRegisters *{*
                      04125 ;; ***  saveRegisters  1788
                      04126 ;; ***  aopForSym 316
                      04127 ;;      328 sym->rname = _F1, size = 4
                      04128 ;; ***  aopForSym 316
                      04129 ;;      328 sym->rname = _F1, size = 4
                      04130 ;; ***  aopForSym 316
                      04131 ;;      328 sym->rname = _F1, size = 4
                      04132 ;;      2120 left AOP_DIR
                      04133 ;;; /home/sdcc-builder/build/sdcc-build/orig/sdcc/src/pic14/gen.c:1328:mov2w_op *{*
                      04134 ;; ***  mov2w  1366  offset=0
                      04135 ;; >>> /home/sdcc-builder/build/sdcc-build/orig/sdcc/src/pic14/gen.c:1371:mov2w
                      04136 ;;      998
                      04137 ;;      1016  _F1   offset=0
0075   0??? 0???      04138         BANKSEL _F1     ;id=6489,key=009,inCond:0,outCond:0,flow seq=032
0077   08??           04139         MOVF    _F1,W   ;id=1520,key=00a,inCond:1,outCond:14,flow seq=032
                      04140 ;;      2120 left AOP_DIR
                      04141 ;; >>> /home/sdcc-builder/build/sdcc-build/orig/sdcc/src/pic14/gen.c:2128:genCall
                      04142 ;; ***  popRegFromIdx,1030  , rIdx=0x79
                      04143 ;; BANKOPT1 BANKSEL dropped; STK06 present in all of _F1's banks
0078   00??           04144         MOVWF   STK06   ;id=1524,key=00b,inCond:10,outCond:1,flow seq=032
                      04145 ;;; /home/sdcc-builder/build/sdcc-build/orig/sdcc/src/pic14/gen.c:1328:mov2w_op *{*
                      04146 ;; ***  mov2w  1366  offset=1
                      04147 ;; >>> /home/sdcc-builder/build/sdcc-build/orig/sdcc/src/pic14/gen.c:1371:mov2w
                      04148 ;;      998
                      04149 ;;      1016  _F1   offset=1
                      04150 ;; BANKOPT2 BANKSEL dropped; _F1 present in same bank as _F1
0079   08??           04151         MOVF    (_F1 + 1),W     ;id=1530,key=00c,inCond:1,outCond:14,flow seq=032
                      04152 ;;      2120 left AOP_DIR
                      04153 ;; >>> /home/sdcc-builder/build/sdcc-build/orig/sdcc/src/pic14/gen.c:2128:genCall
                      04154 ;; ***  popRegFromIdx,1030  , rIdx=0x7a
                      04155 ;; BANKOPT1 BANKSEL dropped; STK05 present in all of _F1's banks
007A   00??           04156         MOVWF   STK05   ;id=1534,key=00d,inCond:10,outCond:1,flow seq=032
                      04157 ;;; /home/sdcc-builder/build/sdcc-build/orig/sdcc/src/pic14/gen.c:1328:mov2w_op *{*
                      04158 ;; ***  mov2w  1366  offset=2
                      04159 ;; >>> /home/sdcc-builder/build/sdcc-build/orig/sdcc/src/pic14/gen.c:1371:mov2w
                      04160 ;;      998
                      04161 ;;      1016  _F1   offset=2
                      04162 ;; BANKOPT2 BANKSEL dropped; _F1 present in same bank as _F1
007B   08??           04163         MOVF    (_F1 + 2),W     ;id=1540,key=00e,inCond:1,outCond:14,flow seq=032
                      04164 ;;      2120 left AOP_DIR
                      04165 ;; >>> /home/sdcc-builder/build/sdcc-build/orig/sdcc/src/pic14/gen.c:2128:genCall
                      04166 ;; ***  popRegFromIdx,1030  , rIdx=0x7b
                      04167 ;; BANKOPT1 BANKSEL dropped; STK04 present in all of _F1's banks
007C   00??           04168         MOVWF   STK04   ;id=1544,key=00f,inCond:10,outCond:1,flow seq=032
                      04169 ;;; /home/sdcc-builder/build/sdcc-build/orig/sdcc/src/pic14/gen.c:1328:mov2w_op *{*
                      04170 ;; ***  mov2w  1366  offset=3
                      04171 ;; >>> /home/sdcc-builder/build/sdcc-build/orig/sdcc/src/pic14/gen.c:1371:mov2w
                      04172 ;;      998
                      04173 ;;      1016  _F1   offset=3
gpasm-1.5.2 #0 (Sep 16 2019) build/default/pr   9-16-2019  10:40:44         PAGE 80


LOC    OBJECT CODE    LINE  SOURCE TEXT
  VALUE

                      04174 ;; BANKOPT2 BANKSEL dropped; _F1 present in same bank as _F1
007D   08??           04175         MOVF    (_F1 + 3),W     ;id=1550,key=010,inCond:1,outCond:14,flow seq=032
                      04176 ;; ***  aopForSym 316
                      04177 ;;      328 sym->rname = _F1, size = 4
                      04178 ;;      2120 left AOP_DIR
                      04179 ;; >>> /home/sdcc-builder/build/sdcc-build/orig/sdcc/src/pic14/gen.c:2128:genCall
                      04180 ;; ***  popRegFromIdx,1030  , rIdx=0x7c
                      04181 ;; BANKOPT1 BANKSEL dropped; STK03 present in all of _F1's banks
007E   00??           04182         MOVWF   STK03   ;id=1556,key=011,inCond:10,outCond:1,flow seq=032
                      04183 ;;; /home/sdcc-builder/build/sdcc-build/orig/sdcc/src/pic14/gen.c:1328:mov2w_op *{*
                      04184 ;; ***  mov2w  1366  offset=0
                      04185 ;; >>> /home/sdcc-builder/build/sdcc-build/orig/sdcc/src/pic14/gen.c:1371:mov2w
                      04186 ;;      998
                      04187 ;;      1016  _F1   offset=0
                      04188 ;; BANKOPT2 BANKSEL dropped; _F1 present in same bank as _F1
007F   08??           04189         MOVF    _F1,W   ;id=1562,key=012,inCond:1,outCond:14,flow seq=032
                      04190 ;;      2120 left AOP_DIR
                      04191 ;; >>> /home/sdcc-builder/build/sdcc-build/orig/sdcc/src/pic14/gen.c:2128:genCall
                      04192 ;; ***  popRegFromIdx,1030  , rIdx=0x7d
                      04193 ;; BANKOPT1 BANKSEL dropped; STK02 present in all of _F1's banks
0080   00??           04194         MOVWF   STK02   ;id=1566,key=013,inCond:10,outCond:1,flow seq=032
                      04195 ;;; /home/sdcc-builder/build/sdcc-build/orig/sdcc/src/pic14/gen.c:1328:mov2w_op *{*
                      04196 ;; ***  mov2w  1366  offset=1
                      04197 ;; >>> /home/sdcc-builder/build/sdcc-build/orig/sdcc/src/pic14/gen.c:1371:mov2w
                      04198 ;;      998
                      04199 ;;      1016  _F1   offset=1
                      04200 ;; BANKOPT2 BANKSEL dropped; _F1 present in same bank as _F1
0081   08??           04201         MOVF    (_F1 + 1),W     ;id=1572,key=014,inCond:1,outCond:14,flow seq=032
                      04202 ;;      2120 left AOP_DIR
                      04203 ;; >>> /home/sdcc-builder/build/sdcc-build/orig/sdcc/src/pic14/gen.c:2128:genCall
                      04204 ;; ***  popRegFromIdx,1030  , rIdx=0x7e
                      04205 ;; BANKOPT1 BANKSEL dropped; STK01 present in all of _F1's banks
0082   00??           04206         MOVWF   STK01   ;id=1576,key=015,inCond:10,outCond:1,flow seq=032
                      04207 ;;; /home/sdcc-builder/build/sdcc-build/orig/sdcc/src/pic14/gen.c:1328:mov2w_op *{*
                      04208 ;; ***  mov2w  1366  offset=2
                      04209 ;; >>> /home/sdcc-builder/build/sdcc-build/orig/sdcc/src/pic14/gen.c:1371:mov2w
                      04210 ;;      998
                      04211 ;;      1016  _F1   offset=2
                      04212 ;; BANKOPT2 BANKSEL dropped; _F1 present in same bank as _F1
0083   08??           04213         MOVF    (_F1 + 2),W     ;id=1582,key=016,inCond:1,outCond:14,flow seq=032
                      04214 ;;      2120 left AOP_DIR
                      04215 ;; >>> /home/sdcc-builder/build/sdcc-build/orig/sdcc/src/pic14/gen.c:2128:genCall
                      04216 ;; ***  popRegFromIdx,1030  , rIdx=0x7f
                      04217 ;; BANKOPT1 BANKSEL dropped; STK00 present in all of _F1's banks
0084   00??           04218         MOVWF   STK00   ;id=1586,key=017,inCond:10,outCond:1,flow seq=032
                      04219 ;;; /home/sdcc-builder/build/sdcc-build/orig/sdcc/src/pic14/gen.c:1328:mov2w_op *{*
                      04220 ;; ***  mov2w  1366  offset=3
                      04221 ;; >>> /home/sdcc-builder/build/sdcc-build/orig/sdcc/src/pic14/gen.c:1371:mov2w
                      04222 ;;      998
                      04223 ;;      1016  _F1   offset=3
                      04224 ;; BANKOPT2 BANKSEL dropped; _F1 present in same bank as _F1
0085   08??           04225         MOVF    (_F1 + 3),W     ;id=1592,key=018,inCond:1,outCond:14,flow seq=032
                      04226 ;; >>> /home/sdcc-builder/build/sdcc-build/orig/sdcc/src/pic14/gen.c:2160:genCall
gpasm-1.5.2 #0 (Sep 16 2019) build/default/pr   9-16-2019  10:40:44         PAGE 81


LOC    OBJECT CODE    LINE  SOURCE TEXT
  VALUE

0086   0??? 0???      04227         PAGESEL ___fsmul        ;id=1594,key=019,inCond:0,outCond:0,flow seq=032
                      04228 ;; >>> /home/sdcc-builder/build/sdcc-build/orig/sdcc/src/pic14/gen.c:2165:genCall
                      04229 ;; BANKOPT3 drop assumptions: PCI with label or call found
0088   2???           04230         CALL    ___fsmul        ;id=1596,key=01a,inCond:10,outCond:1e,flow seq=032
                      04231 ;<>Start of new flow, seq=0x33 ancestor = 0x32
                      04232 ;  from: 032 ; to: 034 
                      04233 ;; >>> /home/sdcc-builder/build/sdcc-build/orig/sdcc/src/pic14/gen.c:2173:genCall
0089   0??? 0???      04234         PAGESEL $       ;id=1598,key=000,inCond:0,outCond:0,flow seq=033
                      04235 ;;      695 register type nRegs=4
                      04236 ;;; /home/sdcc-builder/build/sdcc-build/orig/sdcc/src/pic14/gen.c:1892:assignResultValue *{*
                      04237 ;; ***  assignResultValue  1894
                      04238 ;;      line = 1896 result -=-, size=0, left AOP_REG=r0x1052, size=4, right -=-, size=0
                      04239 ;; >>> /home/sdcc-builder/build/sdcc-build/orig/sdcc/src/pic14/gen.c:1378:movwf
                      04240 ;;      1097 rIdx = r0x1055 
008B   0??? 0???      04241         BANKSEL r0x1020 ;id=6505,key=001,inCond:0,outCond:0,flow seq=033
008D   00??           04242         MOVWF   r0x1020 ;id=1605,key=002,inCond:10,outCond:1,flow seq=033,rIdx=r0x1055
                      04243 ;; >>> /home/sdcc-builder/build/sdcc-build/orig/sdcc/src/pic14/gen.c:1408:get_returnvalue
                      04244 ;; ***  popRegFromIdx,1030  , rIdx=0x7f
                      04245 ;; BANKOPT1 BANKSEL dropped; STK00 present in all of r0x1020's banks
008E   08??           04246         MOVF    STK00,W ;id=1608,key=003,inCond:1,outCond:14,flow seq=033
                      04247 ;; >>> /home/sdcc-builder/build/sdcc-build/orig/sdcc/src/pic14/gen.c:1378:movwf
                      04248 ;;      1097 rIdx = r0x1054 
                      04249 ;; BANKOPT2 BANKSEL dropped; r0x1021 present in same bank as r0x1020
008F   00??           04250         MOVWF   r0x1021 ;id=1611,key=004,inCond:10,outCond:1,flow seq=033,rIdx=r0x1054
                      04251 ;; >>> /home/sdcc-builder/build/sdcc-build/orig/sdcc/src/pic14/gen.c:1408:get_returnvalue
                      04252 ;; ***  popRegFromIdx,1030  , rIdx=0x7e
                      04253 ;; BANKOPT1 BANKSEL dropped; STK01 present in all of r0x1020's banks
0090   08??           04254         MOVF    STK01,W ;id=1614,key=005,inCond:1,outCond:14,flow seq=033
                      04255 ;; >>> /home/sdcc-builder/build/sdcc-build/orig/sdcc/src/pic14/gen.c:1378:movwf
                      04256 ;;      1097 rIdx = r0x1053 
                      04257 ;; BANKOPT2 BANKSEL dropped; r0x1022 present in same bank as r0x1020
0091   00??           04258         MOVWF   r0x1022 ;id=1617,key=006,inCond:10,outCond:1,flow seq=033,rIdx=r0x1053
                      04259 ;; >>> /home/sdcc-builder/build/sdcc-build/orig/sdcc/src/pic14/gen.c:1408:get_returnvalue
                      04260 ;; ***  popRegFromIdx,1030  , rIdx=0x7d
                      04261 ;; BANKOPT1 BANKSEL dropped; STK02 present in all of r0x1020's banks
0092   08??           04262         MOVF    STK02,W ;id=1620,key=007,inCond:1,outCond:14,flow seq=033
                      04263 ;; >>> /home/sdcc-builder/build/sdcc-build/orig/sdcc/src/pic14/gen.c:1378:movwf
                      04264 ;;      1097 rIdx = r0x1052 
                      04265 ;; BANKOPT2 BANKSEL dropped; r0x1023 present in same bank as r0x1020
0093   00??           04266         MOVWF   r0x1023 ;id=1623,key=008,inCond:10,outCond:1,flow seq=033,rIdx=r0x1052
                      04267 ;;      2188 left AOP_REG
                      04268 ;;; /home/sdcc-builder/build/sdcc-build/orig/sdcc/src/pic14/gen.c:1830:unsaveRegisters *{*
                      04269 ;; ***  unsaveRegisters  1832
                      04270 ;;; /home/sdcc-builder/build/sdcc-build/orig/sdcc/src/pic14/gen.c:2308:resultRemat *{*
                      04271 ;;; /home/sdcc-builder/build/sdcc-build/orig/sdcc/src/pic14/gen.c:2308:resultRemat *{*
                      04272 ;;; /home/sdcc-builder/build/sdcc-build/orig/sdcc/src/pic14/gen.c:2308:resultRemat *{*
                      04273 ;;; /home/sdcc-builder/build/sdcc-build/orig/sdcc/src/pic14/gen.c:2071:genCall *{*
                      04274 ;; ***  genCall  2073
                      04275 ;;; /home/sdcc-builder/build/sdcc-build/orig/sdcc/src/pic14/gen.c:1786:saveRegisters *{*
                      04276 ;; ***  saveRegisters  1788
                      04277 ;; ***  aopForSym 316
                      04278 ;;      328 sym->rname = _F3, size = 4
                      04279 ;; ***  aopForSym 316
gpasm-1.5.2 #0 (Sep 16 2019) build/default/pr   9-16-2019  10:40:44         PAGE 82


LOC    OBJECT CODE    LINE  SOURCE TEXT
  VALUE

                      04280 ;;      328 sym->rname = _F3, size = 4
                      04281 ;; ***  aopForSym 316
                      04282 ;;      328 sym->rname = _F3, size = 4
                      04283 ;;      2120 left AOP_DIR
                      04284 ;;; /home/sdcc-builder/build/sdcc-build/orig/sdcc/src/pic14/gen.c:1328:mov2w_op *{*
                      04285 ;; ***  mov2w  1366  offset=0
                      04286 ;; >>> /home/sdcc-builder/build/sdcc-build/orig/sdcc/src/pic14/gen.c:1371:mov2w
                      04287 ;;      998
                      04288 ;;      1016  _F3   offset=0
0094   0??? 0???      04289         BANKSEL _F3     ;id=6512,key=009,inCond:0,outCond:0,flow seq=033
0096   08??           04290         MOVF    _F3,W   ;id=1646,key=00a,inCond:1,outCond:14,flow seq=033
                      04291 ;;      2120 left AOP_DIR
                      04292 ;; >>> /home/sdcc-builder/build/sdcc-build/orig/sdcc/src/pic14/gen.c:2128:genCall
                      04293 ;; ***  popRegFromIdx,1030  , rIdx=0x79
                      04294 ;; BANKOPT1 BANKSEL dropped; STK06 present in all of _F3's banks
0097   00??           04295         MOVWF   STK06   ;id=1650,key=00b,inCond:10,outCond:1,flow seq=033
                      04296 ;;; /home/sdcc-builder/build/sdcc-build/orig/sdcc/src/pic14/gen.c:1328:mov2w_op *{*
                      04297 ;; ***  mov2w  1366  offset=1
                      04298 ;; >>> /home/sdcc-builder/build/sdcc-build/orig/sdcc/src/pic14/gen.c:1371:mov2w
                      04299 ;;      998
                      04300 ;;      1016  _F3   offset=1
                      04301 ;; BANKOPT2 BANKSEL dropped; _F3 present in same bank as _F3
0098   08??           04302         MOVF    (_F3 + 1),W     ;id=1656,key=00c,inCond:1,outCond:14,flow seq=033
                      04303 ;;      2120 left AOP_DIR
                      04304 ;; >>> /home/sdcc-builder/build/sdcc-build/orig/sdcc/src/pic14/gen.c:2128:genCall
                      04305 ;; ***  popRegFromIdx,1030  , rIdx=0x7a
                      04306 ;; BANKOPT1 BANKSEL dropped; STK05 present in all of _F3's banks
0099   00??           04307         MOVWF   STK05   ;id=1660,key=00d,inCond:10,outCond:1,flow seq=033
                      04308 ;;; /home/sdcc-builder/build/sdcc-build/orig/sdcc/src/pic14/gen.c:1328:mov2w_op *{*
                      04309 ;; ***  mov2w  1366  offset=2
                      04310 ;; >>> /home/sdcc-builder/build/sdcc-build/orig/sdcc/src/pic14/gen.c:1371:mov2w
                      04311 ;;      998
                      04312 ;;      1016  _F3   offset=2
                      04313 ;; BANKOPT2 BANKSEL dropped; _F3 present in same bank as _F3
009A   08??           04314         MOVF    (_F3 + 2),W     ;id=1666,key=00e,inCond:1,outCond:14,flow seq=033
                      04315 ;;      2120 left AOP_DIR
                      04316 ;; >>> /home/sdcc-builder/build/sdcc-build/orig/sdcc/src/pic14/gen.c:2128:genCall
                      04317 ;; ***  popRegFromIdx,1030  , rIdx=0x7b
                      04318 ;; BANKOPT1 BANKSEL dropped; STK04 present in all of _F3's banks
009B   00??           04319         MOVWF   STK04   ;id=1670,key=00f,inCond:10,outCond:1,flow seq=033
                      04320 ;;; /home/sdcc-builder/build/sdcc-build/orig/sdcc/src/pic14/gen.c:1328:mov2w_op *{*
                      04321 ;; ***  mov2w  1366  offset=3
                      04322 ;; >>> /home/sdcc-builder/build/sdcc-build/orig/sdcc/src/pic14/gen.c:1371:mov2w
                      04323 ;;      998
                      04324 ;;      1016  _F3   offset=3
                      04325 ;; BANKOPT2 BANKSEL dropped; _F3 present in same bank as _F3
009C   08??           04326         MOVF    (_F3 + 3),W     ;id=1676,key=010,inCond:1,outCond:14,flow seq=033
                      04327 ;; ***  aopForSym 316
                      04328 ;;      328 sym->rname = _F3, size = 4
                      04329 ;;      2120 left AOP_DIR
                      04330 ;; >>> /home/sdcc-builder/build/sdcc-build/orig/sdcc/src/pic14/gen.c:2128:genCall
                      04331 ;; ***  popRegFromIdx,1030  , rIdx=0x7c
                      04332 ;; BANKOPT1 BANKSEL dropped; STK03 present in all of _F3's banks
gpasm-1.5.2 #0 (Sep 16 2019) build/default/pr   9-16-2019  10:40:44         PAGE 83


LOC    OBJECT CODE    LINE  SOURCE TEXT
  VALUE

009D   00??           04333         MOVWF   STK03   ;id=1682,key=011,inCond:10,outCond:1,flow seq=033
                      04334 ;;; /home/sdcc-builder/build/sdcc-build/orig/sdcc/src/pic14/gen.c:1328:mov2w_op *{*
                      04335 ;; ***  mov2w  1366  offset=0
                      04336 ;; >>> /home/sdcc-builder/build/sdcc-build/orig/sdcc/src/pic14/gen.c:1371:mov2w
                      04337 ;;      998
                      04338 ;;      1016  _F3   offset=0
                      04339 ;; BANKOPT2 BANKSEL dropped; _F3 present in same bank as _F3
009E   08??           04340         MOVF    _F3,W   ;id=1688,key=012,inCond:1,outCond:14,flow seq=033
                      04341 ;;      2120 left AOP_DIR
                      04342 ;; >>> /home/sdcc-builder/build/sdcc-build/orig/sdcc/src/pic14/gen.c:2128:genCall
                      04343 ;; ***  popRegFromIdx,1030  , rIdx=0x7d
                      04344 ;; BANKOPT1 BANKSEL dropped; STK02 present in all of _F3's banks
009F   00??           04345         MOVWF   STK02   ;id=1692,key=013,inCond:10,outCond:1,flow seq=033
                      04346 ;;; /home/sdcc-builder/build/sdcc-build/orig/sdcc/src/pic14/gen.c:1328:mov2w_op *{*
                      04347 ;; ***  mov2w  1366  offset=1
                      04348 ;; >>> /home/sdcc-builder/build/sdcc-build/orig/sdcc/src/pic14/gen.c:1371:mov2w
                      04349 ;;      998
                      04350 ;;      1016  _F3   offset=1
                      04351 ;; BANKOPT2 BANKSEL dropped; _F3 present in same bank as _F3
00A0   08??           04352         MOVF    (_F3 + 1),W     ;id=1698,key=014,inCond:1,outCond:14,flow seq=033
                      04353 ;;      2120 left AOP_DIR
                      04354 ;; >>> /home/sdcc-builder/build/sdcc-build/orig/sdcc/src/pic14/gen.c:2128:genCall
                      04355 ;; ***  popRegFromIdx,1030  , rIdx=0x7e
                      04356 ;; BANKOPT1 BANKSEL dropped; STK01 present in all of _F3's banks
00A1   00??           04357         MOVWF   STK01   ;id=1702,key=015,inCond:10,outCond:1,flow seq=033
                      04358 ;;; /home/sdcc-builder/build/sdcc-build/orig/sdcc/src/pic14/gen.c:1328:mov2w_op *{*
                      04359 ;; ***  mov2w  1366  offset=2
                      04360 ;; >>> /home/sdcc-builder/build/sdcc-build/orig/sdcc/src/pic14/gen.c:1371:mov2w
                      04361 ;;      998
                      04362 ;;      1016  _F3   offset=2
                      04363 ;; BANKOPT2 BANKSEL dropped; _F3 present in same bank as _F3
00A2   08??           04364         MOVF    (_F3 + 2),W     ;id=1708,key=016,inCond:1,outCond:14,flow seq=033
                      04365 ;;      2120 left AOP_DIR
                      04366 ;; >>> /home/sdcc-builder/build/sdcc-build/orig/sdcc/src/pic14/gen.c:2128:genCall
                      04367 ;; ***  popRegFromIdx,1030  , rIdx=0x7f
                      04368 ;; BANKOPT1 BANKSEL dropped; STK00 present in all of _F3's banks
00A3   00??           04369         MOVWF   STK00   ;id=1712,key=017,inCond:10,outCond:1,flow seq=033
                      04370 ;;; /home/sdcc-builder/build/sdcc-build/orig/sdcc/src/pic14/gen.c:1328:mov2w_op *{*
                      04371 ;; ***  mov2w  1366  offset=3
                      04372 ;; >>> /home/sdcc-builder/build/sdcc-build/orig/sdcc/src/pic14/gen.c:1371:mov2w
                      04373 ;;      998
                      04374 ;;      1016  _F3   offset=3
                      04375 ;; BANKOPT2 BANKSEL dropped; _F3 present in same bank as _F3
00A4   08??           04376         MOVF    (_F3 + 3),W     ;id=1718,key=018,inCond:1,outCond:14,flow seq=033
                      04377 ;; >>> /home/sdcc-builder/build/sdcc-build/orig/sdcc/src/pic14/gen.c:2160:genCall
00A5   0??? 0???      04378         PAGESEL ___fsmul        ;id=1720,key=019,inCond:0,outCond:0,flow seq=033
                      04379 ;; >>> /home/sdcc-builder/build/sdcc-build/orig/sdcc/src/pic14/gen.c:2165:genCall
                      04380 ;; BANKOPT3 drop assumptions: PCI with label or call found
00A7   2???           04381         CALL    ___fsmul        ;id=1722,key=01a,inCond:10,outCond:1e,flow seq=033
                      04382 ;<>Start of new flow, seq=0x34 ancestor = 0x33
                      04383 ;  from: 033 ; to: 035 
                      04384 ;; >>> /home/sdcc-builder/build/sdcc-build/orig/sdcc/src/pic14/gen.c:2173:genCall
00A8   0??? 0???      04385         PAGESEL $       ;id=1724,key=000,inCond:0,outCond:0,flow seq=034
gpasm-1.5.2 #0 (Sep 16 2019) build/default/pr   9-16-2019  10:40:44         PAGE 84


LOC    OBJECT CODE    LINE  SOURCE TEXT
  VALUE

                      04386 ;;      695 register type nRegs=4
                      04387 ;;; /home/sdcc-builder/build/sdcc-build/orig/sdcc/src/pic14/gen.c:1892:assignResultValue *{*
                      04388 ;; ***  assignResultValue  1894
                      04389 ;;      line = 1896 result -=-, size=0, left AOP_REG=r0x1056, size=4, right -=-, size=0
                      04390 ;; >>> /home/sdcc-builder/build/sdcc-build/orig/sdcc/src/pic14/gen.c:1378:movwf
                      04391 ;;      1097 rIdx = r0x1059 
00AA   0??? 0???      04392         BANKSEL r0x1024 ;id=6528,key=001,inCond:0,outCond:0,flow seq=034
00AC   00??           04393         MOVWF   r0x1024 ;id=1731,key=002,inCond:10,outCond:1,flow seq=034,rIdx=r0x1059
                      04394 ;; >>> /home/sdcc-builder/build/sdcc-build/orig/sdcc/src/pic14/gen.c:1408:get_returnvalue
                      04395 ;; ***  popRegFromIdx,1030  , rIdx=0x7f
                      04396 ;; BANKOPT1 BANKSEL dropped; STK00 present in all of r0x1024's banks
00AD   08??           04397         MOVF    STK00,W ;id=1734,key=003,inCond:1,outCond:14,flow seq=034
                      04398 ;; >>> /home/sdcc-builder/build/sdcc-build/orig/sdcc/src/pic14/gen.c:1378:movwf
                      04399 ;;      1097 rIdx = r0x1058 
                      04400 ;; BANKOPT2 BANKSEL dropped; r0x1025 present in same bank as r0x1024
00AE   00??           04401         MOVWF   r0x1025 ;id=1737,key=004,inCond:10,outCond:1,flow seq=034,rIdx=r0x1058
                      04402 ;; >>> /home/sdcc-builder/build/sdcc-build/orig/sdcc/src/pic14/gen.c:1408:get_returnvalue
                      04403 ;; ***  popRegFromIdx,1030  , rIdx=0x7e
                      04404 ;; BANKOPT1 BANKSEL dropped; STK01 present in all of r0x1024's banks
00AF   08??           04405         MOVF    STK01,W ;id=1740,key=005,inCond:1,outCond:14,flow seq=034
                      04406 ;; >>> /home/sdcc-builder/build/sdcc-build/orig/sdcc/src/pic14/gen.c:1378:movwf
                      04407 ;;      1097 rIdx = r0x1057 
                      04408 ;; BANKOPT2 BANKSEL dropped; r0x1026 present in same bank as r0x1024
00B0   00??           04409         MOVWF   r0x1026 ;id=1743,key=006,inCond:10,outCond:1,flow seq=034,rIdx=r0x1057
                      04410 ;; >>> /home/sdcc-builder/build/sdcc-build/orig/sdcc/src/pic14/gen.c:1408:get_returnvalue
                      04411 ;; ***  popRegFromIdx,1030  , rIdx=0x7d
                      04412 ;; BANKOPT1 BANKSEL dropped; STK02 present in all of r0x1024's banks
00B1   08??           04413         MOVF    STK02,W ;id=1746,key=007,inCond:1,outCond:14,flow seq=034
                      04414 ;; >>> /home/sdcc-builder/build/sdcc-build/orig/sdcc/src/pic14/gen.c:1378:movwf
                      04415 ;;      1097 rIdx = r0x1056 
                      04416 ;;1     MOVWF   r0x1027
                      04417 ;; BANKOPT1 BANKSEL dropped; STK06 present in all of r0x1024's banks
00B2   00??           04418         MOVWF   STK06   ;id=1772,key=008,inCond:10,outCond:1,flow seq=034
                      04419 ;;; /home/sdcc-builder/build/sdcc-build/orig/sdcc/src/pic14/gen.c:1328:mov2w_op *{*
                      04420 ;; ***  mov2w  1366  offset=1
                      04421 ;; >>> /home/sdcc-builder/build/sdcc-build/orig/sdcc/src/pic14/gen.c:1371:mov2w
                      04422 ;;      1097 rIdx = r0x1057 
                      04423 ;; BANKOPT2 BANKSEL dropped; r0x1026 present in same bank as r0x1024
00B3   08??           04424         MOVF    r0x1026,W       ;id=1777,key=009,inCond:1,outCond:14,flow seq=034,rIdx=r0x1057
                      04425 ;;      2120 left AOP_REG
                      04426 ;; >>> /home/sdcc-builder/build/sdcc-build/orig/sdcc/src/pic14/gen.c:2128:genCall
                      04427 ;; ***  popRegFromIdx,1030  , rIdx=0x7a
                      04428 ;; BANKOPT1 BANKSEL dropped; STK05 present in all of r0x1024's banks
00B4   00??           04429         MOVWF   STK05   ;id=1781,key=00a,inCond:10,outCond:1,flow seq=034
                      04430 ;;; /home/sdcc-builder/build/sdcc-build/orig/sdcc/src/pic14/gen.c:1328:mov2w_op *{*
                      04431 ;; ***  mov2w  1366  offset=2
                      04432 ;; >>> /home/sdcc-builder/build/sdcc-build/orig/sdcc/src/pic14/gen.c:1371:mov2w
                      04433 ;;      1097 rIdx = r0x1058 
                      04434 ;; BANKOPT2 BANKSEL dropped; r0x1025 present in same bank as r0x1024
00B5   08??           04435         MOVF    r0x1025,W       ;id=1786,key=00b,inCond:1,outCond:14,flow seq=034,rIdx=r0x1058
                      04436 ;;      2120 left AOP_REG
                      04437 ;; >>> /home/sdcc-builder/build/sdcc-build/orig/sdcc/src/pic14/gen.c:2128:genCall
                      04438 ;; ***  popRegFromIdx,1030  , rIdx=0x7b
gpasm-1.5.2 #0 (Sep 16 2019) build/default/pr   9-16-2019  10:40:44         PAGE 85


LOC    OBJECT CODE    LINE  SOURCE TEXT
  VALUE

                      04439 ;; BANKOPT1 BANKSEL dropped; STK04 present in all of r0x1024's banks
00B6   00??           04440         MOVWF   STK04   ;id=1790,key=00c,inCond:10,outCond:1,flow seq=034
                      04441 ;;; /home/sdcc-builder/build/sdcc-build/orig/sdcc/src/pic14/gen.c:1328:mov2w_op *{*
                      04442 ;; ***  mov2w  1366  offset=3
                      04443 ;; >>> /home/sdcc-builder/build/sdcc-build/orig/sdcc/src/pic14/gen.c:1371:mov2w
                      04444 ;;      1097 rIdx = r0x1059 
                      04445 ;; BANKOPT2 BANKSEL dropped; r0x1024 present in same bank as r0x1024
00B7   08??           04446         MOVF    r0x1024,W       ;id=1795,key=00d,inCond:1,outCond:14,flow seq=034,rIdx=r0x1059
                      04447 ;;      695 register type nRegs=4
                      04448 ;;      2120 left AOP_REG
                      04449 ;; >>> /home/sdcc-builder/build/sdcc-build/orig/sdcc/src/pic14/gen.c:2128:genCall
                      04450 ;; ***  popRegFromIdx,1030  , rIdx=0x7c
                      04451 ;; BANKOPT1 BANKSEL dropped; STK03 present in all of r0x1024's banks
00B8   00??           04452         MOVWF   STK03   ;id=1800,key=00e,inCond:10,outCond:1,flow seq=034
                      04453 ;;; /home/sdcc-builder/build/sdcc-build/orig/sdcc/src/pic14/gen.c:1328:mov2w_op *{*
                      04454 ;; ***  mov2w  1366  offset=0
                      04455 ;; >>> /home/sdcc-builder/build/sdcc-build/orig/sdcc/src/pic14/gen.c:1371:mov2w
                      04456 ;;      1097 rIdx = r0x1052 
                      04457 ;; BANKOPT2 BANKSEL dropped; r0x1023 present in same bank as r0x1024
00B9   08??           04458         MOVF    r0x1023,W       ;id=1805,key=00f,inCond:1,outCond:14,flow seq=034,rIdx=r0x1052
                      04459 ;;      2120 left AOP_REG
                      04460 ;; >>> /home/sdcc-builder/build/sdcc-build/orig/sdcc/src/pic14/gen.c:2128:genCall
                      04461 ;; ***  popRegFromIdx,1030  , rIdx=0x7d
                      04462 ;; BANKOPT1 BANKSEL dropped; STK02 present in all of r0x1024's banks
00BA   00??           04463         MOVWF   STK02   ;id=1809,key=010,inCond:10,outCond:1,flow seq=034
                      04464 ;;; /home/sdcc-builder/build/sdcc-build/orig/sdcc/src/pic14/gen.c:1328:mov2w_op *{*
                      04465 ;; ***  mov2w  1366  offset=1
                      04466 ;; >>> /home/sdcc-builder/build/sdcc-build/orig/sdcc/src/pic14/gen.c:1371:mov2w
                      04467 ;;      1097 rIdx = r0x1053 
                      04468 ;; BANKOPT2 BANKSEL dropped; r0x1022 present in same bank as r0x1024
00BB   08??           04469         MOVF    r0x1022,W       ;id=1814,key=011,inCond:1,outCond:14,flow seq=034,rIdx=r0x1053
                      04470 ;;      2120 left AOP_REG
                      04471 ;; >>> /home/sdcc-builder/build/sdcc-build/orig/sdcc/src/pic14/gen.c:2128:genCall
                      04472 ;; ***  popRegFromIdx,1030  , rIdx=0x7e
                      04473 ;; BANKOPT1 BANKSEL dropped; STK01 present in all of r0x1024's banks
00BC   00??           04474         MOVWF   STK01   ;id=1818,key=012,inCond:10,outCond:1,flow seq=034
                      04475 ;;; /home/sdcc-builder/build/sdcc-build/orig/sdcc/src/pic14/gen.c:1328:mov2w_op *{*
                      04476 ;; ***  mov2w  1366  offset=2
                      04477 ;; >>> /home/sdcc-builder/build/sdcc-build/orig/sdcc/src/pic14/gen.c:1371:mov2w
                      04478 ;;      1097 rIdx = r0x1054 
                      04479 ;; BANKOPT2 BANKSEL dropped; r0x1021 present in same bank as r0x1024
00BD   08??           04480         MOVF    r0x1021,W       ;id=1823,key=013,inCond:1,outCond:14,flow seq=034,rIdx=r0x1054
                      04481 ;;      2120 left AOP_REG
                      04482 ;; >>> /home/sdcc-builder/build/sdcc-build/orig/sdcc/src/pic14/gen.c:2128:genCall
                      04483 ;; ***  popRegFromIdx,1030  , rIdx=0x7f
                      04484 ;; BANKOPT1 BANKSEL dropped; STK00 present in all of r0x1024's banks
00BE   00??           04485         MOVWF   STK00   ;id=1827,key=014,inCond:10,outCond:1,flow seq=034
                      04486 ;;; /home/sdcc-builder/build/sdcc-build/orig/sdcc/src/pic14/gen.c:1328:mov2w_op *{*
                      04487 ;; ***  mov2w  1366  offset=3
                      04488 ;; >>> /home/sdcc-builder/build/sdcc-build/orig/sdcc/src/pic14/gen.c:1371:mov2w
                      04489 ;;      1097 rIdx = r0x1055 
                      04490 ;; BANKOPT2 BANKSEL dropped; r0x1020 present in same bank as r0x1024
00BF   08??           04491         MOVF    r0x1020,W       ;id=1832,key=015,inCond:1,outCond:14,flow seq=034,rIdx=r0x1055
gpasm-1.5.2 #0 (Sep 16 2019) build/default/pr   9-16-2019  10:40:44         PAGE 86


LOC    OBJECT CODE    LINE  SOURCE TEXT
  VALUE

                      04492 ;; >>> /home/sdcc-builder/build/sdcc-build/orig/sdcc/src/pic14/gen.c:2160:genCall
00C0   0??? 0???      04493         PAGESEL ___fssub        ;id=1834,key=016,inCond:0,outCond:0,flow seq=034
                      04494 ;; >>> /home/sdcc-builder/build/sdcc-build/orig/sdcc/src/pic14/gen.c:2165:genCall
                      04495 ;; BANKOPT3 drop assumptions: PCI with label or call found
00C2   2???           04496         CALL    ___fssub        ;id=1836,key=017,inCond:10,outCond:1e,flow seq=034
                      04497 ;<>Start of new flow, seq=0x35 ancestor = 0x34
                      04498 ;  from: 034 ; to: 036 
                      04499 ;; >>> /home/sdcc-builder/build/sdcc-build/orig/sdcc/src/pic14/gen.c:2173:genCall
00C3   0??? 0???      04500         PAGESEL $       ;id=1838,key=000,inCond:0,outCond:0,flow seq=035
                      04501 ;;      695 register type nRegs=4
                      04502 ;;; /home/sdcc-builder/build/sdcc-build/orig/sdcc/src/pic14/gen.c:1892:assignResultValue *{*
                      04503 ;; ***  assignResultValue  1894
                      04504 ;;      line = 1896 result -=-, size=0, left AOP_REG=r0x1052, size=4, right -=-, size=0
                      04505 ;; >>> /home/sdcc-builder/build/sdcc-build/orig/sdcc/src/pic14/gen.c:1378:movwf
                      04506 ;;      1097 rIdx = r0x1055 
00C5   0??? 0???      04507         BANKSEL r0x1020 ;id=6549,key=001,inCond:0,outCond:0,flow seq=035
00C7   00??           04508         MOVWF   r0x1020 ;id=1845,key=002,inCond:10,outCond:1,flow seq=035,rIdx=r0x1055
                      04509 ;; >>> /home/sdcc-builder/build/sdcc-build/orig/sdcc/src/pic14/gen.c:1408:get_returnvalue
                      04510 ;; ***  popRegFromIdx,1030  , rIdx=0x7f
                      04511 ;; BANKOPT1 BANKSEL dropped; STK00 present in all of r0x1020's banks
00C8   08??           04512         MOVF    STK00,W ;id=1848,key=003,inCond:1,outCond:14,flow seq=035
                      04513 ;; >>> /home/sdcc-builder/build/sdcc-build/orig/sdcc/src/pic14/gen.c:1378:movwf
                      04514 ;;      1097 rIdx = r0x1054 
                      04515 ;; BANKOPT2 BANKSEL dropped; r0x1021 present in same bank as r0x1020
00C9   00??           04516         MOVWF   r0x1021 ;id=1851,key=004,inCond:10,outCond:1,flow seq=035,rIdx=r0x1054
                      04517 ;; >>> /home/sdcc-builder/build/sdcc-build/orig/sdcc/src/pic14/gen.c:1408:get_returnvalue
                      04518 ;; ***  popRegFromIdx,1030  , rIdx=0x7e
                      04519 ;; BANKOPT1 BANKSEL dropped; STK01 present in all of r0x1020's banks
00CA   08??           04520         MOVF    STK01,W ;id=1854,key=005,inCond:1,outCond:14,flow seq=035
                      04521 ;; >>> /home/sdcc-builder/build/sdcc-build/orig/sdcc/src/pic14/gen.c:1378:movwf
                      04522 ;;      1097 rIdx = r0x1053 
                      04523 ;; BANKOPT2 BANKSEL dropped; r0x1022 present in same bank as r0x1020
00CB   00??           04524         MOVWF   r0x1022 ;id=1857,key=006,inCond:10,outCond:1,flow seq=035,rIdx=r0x1053
                      04525 ;; >>> /home/sdcc-builder/build/sdcc-build/orig/sdcc/src/pic14/gen.c:1408:get_returnvalue
                      04526 ;; ***  popRegFromIdx,1030  , rIdx=0x7d
                      04527 ;; BANKOPT1 BANKSEL dropped; STK02 present in all of r0x1020's banks
00CC   08??           04528         MOVF    STK02,W ;id=1860,key=007,inCond:1,outCond:14,flow seq=035
                      04529 ;; >>> /home/sdcc-builder/build/sdcc-build/orig/sdcc/src/pic14/gen.c:1378:movwf
                      04530 ;;      1097 rIdx = r0x1052 
                      04531 ;; BANKOPT2 BANKSEL dropped; r0x1023 present in same bank as r0x1020
00CD   00??           04532         MOVWF   r0x1023 ;id=5922,key=008,inCond:10,outCond:1,flow seq=035,rIdx=r0x1052
                      04533 ;; BANKOPT1 BANKSEL dropped; STK06 present in all of r0x1020's banks
00CE   00??           04534         MOVWF   STK06   ;id=1886,key=009,inCond:10,outCond:1,flow seq=035
                      04535 ;;; /home/sdcc-builder/build/sdcc-build/orig/sdcc/src/pic14/gen.c:1328:mov2w_op *{*
                      04536 ;; ***  mov2w  1366  offset=1
                      04537 ;; >>> /home/sdcc-builder/build/sdcc-build/orig/sdcc/src/pic14/gen.c:1371:mov2w
                      04538 ;;      1097 rIdx = r0x1053 
                      04539 ;; BANKOPT2 BANKSEL dropped; r0x1022 present in same bank as r0x1020
00CF   08??           04540         MOVF    r0x1022,W       ;id=1891,key=00a,inCond:1,outCond:14,flow seq=035,rIdx=r0x1053
                      04541 ;;      2120 left AOP_REG
                      04542 ;; >>> /home/sdcc-builder/build/sdcc-build/orig/sdcc/src/pic14/gen.c:2128:genCall
                      04543 ;; ***  popRegFromIdx,1030  , rIdx=0x7a
                      04544 ;; BANKOPT1 BANKSEL dropped; STK05 present in all of r0x1020's banks
gpasm-1.5.2 #0 (Sep 16 2019) build/default/pr   9-16-2019  10:40:44         PAGE 87


LOC    OBJECT CODE    LINE  SOURCE TEXT
  VALUE

00D0   00??           04545         MOVWF   STK05   ;id=1895,key=00b,inCond:10,outCond:1,flow seq=035
                      04546 ;;; /home/sdcc-builder/build/sdcc-build/orig/sdcc/src/pic14/gen.c:1328:mov2w_op *{*
                      04547 ;; ***  mov2w  1366  offset=2
                      04548 ;; >>> /home/sdcc-builder/build/sdcc-build/orig/sdcc/src/pic14/gen.c:1371:mov2w
                      04549 ;;      1097 rIdx = r0x1054 
                      04550 ;; BANKOPT2 BANKSEL dropped; r0x1021 present in same bank as r0x1020
00D1   08??           04551         MOVF    r0x1021,W       ;id=1900,key=00c,inCond:1,outCond:14,flow seq=035,rIdx=r0x1054
                      04552 ;;      2120 left AOP_REG
                      04553 ;; >>> /home/sdcc-builder/build/sdcc-build/orig/sdcc/src/pic14/gen.c:2128:genCall
                      04554 ;; ***  popRegFromIdx,1030  , rIdx=0x7b
                      04555 ;; BANKOPT1 BANKSEL dropped; STK04 present in all of r0x1020's banks
00D2   00??           04556         MOVWF   STK04   ;id=1904,key=00d,inCond:10,outCond:1,flow seq=035
                      04557 ;;; /home/sdcc-builder/build/sdcc-build/orig/sdcc/src/pic14/gen.c:1328:mov2w_op *{*
                      04558 ;; ***  mov2w  1366  offset=3
                      04559 ;; >>> /home/sdcc-builder/build/sdcc-build/orig/sdcc/src/pic14/gen.c:1371:mov2w
                      04560 ;;      1097 rIdx = r0x1055 
                      04561 ;; BANKOPT2 BANKSEL dropped; r0x1020 present in same bank as r0x1020
00D3   08??           04562         MOVF    r0x1020,W       ;id=1909,key=00e,inCond:1,outCond:14,flow seq=035,rIdx=r0x1055
                      04563 ;;      695 register type nRegs=4
                      04564 ;;      2120 left AOP_REG
                      04565 ;; >>> /home/sdcc-builder/build/sdcc-build/orig/sdcc/src/pic14/gen.c:2128:genCall
                      04566 ;; ***  popRegFromIdx,1030  , rIdx=0x7c
                      04567 ;; BANKOPT1 BANKSEL dropped; STK03 present in all of r0x1020's banks
00D4   00??           04568         MOVWF   STK03   ;id=1914,key=00f,inCond:10,outCond:1,flow seq=035
                      04569 ;;; /home/sdcc-builder/build/sdcc-build/orig/sdcc/src/pic14/gen.c:1328:mov2w_op *{*
                      04570 ;; ***  mov2w  1366  offset=0
                      04571 ;; >>> /home/sdcc-builder/build/sdcc-build/orig/sdcc/src/pic14/gen.c:1371:mov2w
                      04572 ;;      1097 rIdx = r0x104E 
                      04573 ;; BANKOPT2 BANKSEL dropped; r0x101D present in same bank as r0x1020
00D5   08??           04574         MOVF    r0x101D,W       ;id=1919,key=010,inCond:1,outCond:14,flow seq=035,rIdx=r0x104E
                      04575 ;;      2120 left AOP_REG
                      04576 ;; >>> /home/sdcc-builder/build/sdcc-build/orig/sdcc/src/pic14/gen.c:2128:genCall
                      04577 ;; ***  popRegFromIdx,1030  , rIdx=0x7d
                      04578 ;; BANKOPT1 BANKSEL dropped; STK02 present in all of r0x1020's banks
00D6   00??           04579         MOVWF   STK02   ;id=1923,key=011,inCond:10,outCond:1,flow seq=035
                      04580 ;;; /home/sdcc-builder/build/sdcc-build/orig/sdcc/src/pic14/gen.c:1328:mov2w_op *{*
                      04581 ;; ***  mov2w  1366  offset=1
                      04582 ;; >>> /home/sdcc-builder/build/sdcc-build/orig/sdcc/src/pic14/gen.c:1371:mov2w
                      04583 ;;      1097 rIdx = r0x104F 
                      04584 ;; BANKOPT2 BANKSEL dropped; r0x101C present in same bank as r0x1020
00D7   08??           04585         MOVF    r0x101C,W       ;id=1928,key=012,inCond:1,outCond:14,flow seq=035,rIdx=r0x104F
                      04586 ;;      2120 left AOP_REG
                      04587 ;; >>> /home/sdcc-builder/build/sdcc-build/orig/sdcc/src/pic14/gen.c:2128:genCall
                      04588 ;; ***  popRegFromIdx,1030  , rIdx=0x7e
                      04589 ;; BANKOPT1 BANKSEL dropped; STK01 present in all of r0x1020's banks
00D8   00??           04590         MOVWF   STK01   ;id=1932,key=013,inCond:10,outCond:1,flow seq=035
                      04591 ;;; /home/sdcc-builder/build/sdcc-build/orig/sdcc/src/pic14/gen.c:1328:mov2w_op *{*
                      04592 ;; ***  mov2w  1366  offset=2
                      04593 ;; >>> /home/sdcc-builder/build/sdcc-build/orig/sdcc/src/pic14/gen.c:1371:mov2w
                      04594 ;;      1097 rIdx = r0x1050 
                      04595 ;; BANKOPT2 BANKSEL dropped; r0x101F present in same bank as r0x1020
00D9   08??           04596         MOVF    r0x101F,W       ;id=1937,key=014,inCond:1,outCond:14,flow seq=035,rIdx=r0x1050
                      04597 ;;      2120 left AOP_REG
gpasm-1.5.2 #0 (Sep 16 2019) build/default/pr   9-16-2019  10:40:44         PAGE 88


LOC    OBJECT CODE    LINE  SOURCE TEXT
  VALUE

                      04598 ;; >>> /home/sdcc-builder/build/sdcc-build/orig/sdcc/src/pic14/gen.c:2128:genCall
                      04599 ;; ***  popRegFromIdx,1030  , rIdx=0x7f
                      04600 ;; BANKOPT1 BANKSEL dropped; STK00 present in all of r0x1020's banks
00DA   00??           04601         MOVWF   STK00   ;id=1941,key=015,inCond:10,outCond:1,flow seq=035
                      04602 ;;; /home/sdcc-builder/build/sdcc-build/orig/sdcc/src/pic14/gen.c:1328:mov2w_op *{*
                      04603 ;; ***  mov2w  1366  offset=3
                      04604 ;; >>> /home/sdcc-builder/build/sdcc-build/orig/sdcc/src/pic14/gen.c:1371:mov2w
                      04605 ;;      1097 rIdx = r0x1051 
                      04606 ;; BANKOPT2 BANKSEL dropped; r0x101E present in same bank as r0x1020
00DB   08??           04607         MOVF    r0x101E,W       ;id=1946,key=016,inCond:1,outCond:14,flow seq=035,rIdx=r0x1051
                      04608 ;; >>> /home/sdcc-builder/build/sdcc-build/orig/sdcc/src/pic14/gen.c:2160:genCall
00DC   0??? 0???      04609         PAGESEL ___fsmul        ;id=1948,key=017,inCond:0,outCond:0,flow seq=035
                      04610 ;; >>> /home/sdcc-builder/build/sdcc-build/orig/sdcc/src/pic14/gen.c:2165:genCall
                      04611 ;; BANKOPT3 drop assumptions: PCI with label or call found
00DE   2???           04612         CALL    ___fsmul        ;id=1950,key=018,inCond:10,outCond:1e,flow seq=035
                      04613 ;<>Start of new flow, seq=0x36 ancestor = 0x35
                      04614 ;  from: 035 ; to: 037 
                      04615 ;; >>> /home/sdcc-builder/build/sdcc-build/orig/sdcc/src/pic14/gen.c:2173:genCall
00DF   0??? 0???      04616         PAGESEL $       ;id=1952,key=000,inCond:0,outCond:0,flow seq=036
                      04617 ;;      695 register type nRegs=4
                      04618 ;;; /home/sdcc-builder/build/sdcc-build/orig/sdcc/src/pic14/gen.c:1892:assignResultValue *{*
                      04619 ;; ***  assignResultValue  1894
                      04620 ;;      line = 1896 result -=-, size=0, left AOP_REG=r0x104E, size=4, right -=-, size=0
                      04621 ;; >>> /home/sdcc-builder/build/sdcc-build/orig/sdcc/src/pic14/gen.c:1378:movwf
                      04622 ;;      1097 rIdx = r0x1051 
00E1   0??? 0???      04623         BANKSEL r0x101E ;id=6571,key=001,inCond:0,outCond:0,flow seq=036
00E3   00??           04624         MOVWF   r0x101E ;id=1959,key=002,inCond:10,outCond:1,flow seq=036,rIdx=r0x1051
                      04625 ;; >>> /home/sdcc-builder/build/sdcc-build/orig/sdcc/src/pic14/gen.c:1408:get_returnvalue
                      04626 ;; ***  popRegFromIdx,1030  , rIdx=0x7f
                      04627 ;; BANKOPT1 BANKSEL dropped; STK00 present in all of r0x101E's banks
00E4   08??           04628         MOVF    STK00,W ;id=1962,key=003,inCond:1,outCond:14,flow seq=036
                      04629 ;; >>> /home/sdcc-builder/build/sdcc-build/orig/sdcc/src/pic14/gen.c:1378:movwf
                      04630 ;;      1097 rIdx = r0x1050 
                      04631 ;; BANKOPT2 BANKSEL dropped; r0x101F present in same bank as r0x101E
00E5   00??           04632         MOVWF   r0x101F ;id=1965,key=004,inCond:10,outCond:1,flow seq=036,rIdx=r0x1050
                      04633 ;; >>> /home/sdcc-builder/build/sdcc-build/orig/sdcc/src/pic14/gen.c:1408:get_returnvalue
                      04634 ;; ***  popRegFromIdx,1030  , rIdx=0x7e
                      04635 ;; BANKOPT1 BANKSEL dropped; STK01 present in all of r0x101E's banks
00E6   08??           04636         MOVF    STK01,W ;id=1968,key=005,inCond:1,outCond:14,flow seq=036
                      04637 ;; >>> /home/sdcc-builder/build/sdcc-build/orig/sdcc/src/pic14/gen.c:1378:movwf
                      04638 ;;      1097 rIdx = r0x104F 
                      04639 ;; BANKOPT2 BANKSEL dropped; r0x101C present in same bank as r0x101E
00E7   00??           04640         MOVWF   r0x101C ;id=1971,key=006,inCond:10,outCond:1,flow seq=036,rIdx=r0x104F
                      04641 ;; >>> /home/sdcc-builder/build/sdcc-build/orig/sdcc/src/pic14/gen.c:1408:get_returnvalue
                      04642 ;; ***  popRegFromIdx,1030  , rIdx=0x7d
                      04643 ;; BANKOPT1 BANKSEL dropped; STK02 present in all of r0x101E's banks
00E8   08??           04644         MOVF    STK02,W ;id=1974,key=007,inCond:1,outCond:14,flow seq=036
                      04645 ;; >>> /home/sdcc-builder/build/sdcc-build/orig/sdcc/src/pic14/gen.c:1378:movwf
                      04646 ;;      1097 rIdx = r0x104E 
                      04647 ;; BANKOPT2 BANKSEL dropped; r0x101D present in same bank as r0x101E
00E9   00??           04648         MOVWF   r0x101D ;id=1977,key=008,inCond:10,outCond:1,flow seq=036,rIdx=r0x104E
                      04649 ;;      2188 left AOP_REG
                      04650 ;;; /home/sdcc-builder/build/sdcc-build/orig/sdcc/src/pic14/gen.c:1830:unsaveRegisters *{*
gpasm-1.5.2 #0 (Sep 16 2019) build/default/pr   9-16-2019  10:40:44         PAGE 89


LOC    OBJECT CODE    LINE  SOURCE TEXT
  VALUE

                      04651 ;; ***  unsaveRegisters  1832
                      04652 ;;; /home/sdcc-builder/build/sdcc-build/orig/sdcc/src/pic14/gen.c:2308:resultRemat *{*
                      04653 ;;; /home/sdcc-builder/build/sdcc-build/orig/sdcc/src/pic14/gen.c:2308:resultRemat *{*
                      04654 ;;; /home/sdcc-builder/build/sdcc-build/orig/sdcc/src/pic14/gen.c:2308:resultRemat *{*
                      04655 ;;; /home/sdcc-builder/build/sdcc-build/orig/sdcc/src/pic14/gen.c:2071:genCall *{*
                      04656 ;; ***  genCall  2073
                      04657 ;;; /home/sdcc-builder/build/sdcc-build/orig/sdcc/src/pic14/gen.c:1786:saveRegisters *{*
                      04658 ;; ***  saveRegisters  1788
                      04659 ;; ***  aopForSym 316
                      04660 ;;      328 sym->rname = _CCal, size = 4
                      04661 ;;      695 register type nRegs=4
                      04662 ;; ***  aopForSym 316
                      04663 ;;      328 sym->rname = _CCal, size = 4
                      04664 ;;      2120 left AOP_DIR
                      04665 ;;; /home/sdcc-builder/build/sdcc-build/orig/sdcc/src/pic14/gen.c:1328:mov2w_op *{*
                      04666 ;; ***  mov2w  1366  offset=0
                      04667 ;; >>> /home/sdcc-builder/build/sdcc-build/orig/sdcc/src/pic14/gen.c:1371:mov2w
                      04668 ;;      998
                      04669 ;;      1012  _CCal   offset=0 - had to alloc by reg name
00EA   0??? 0???      04670         BANKSEL _CCal   ;id=6578,key=009,inCond:0,outCond:0,flow seq=036
00EC   08??           04671         MOVF    _CCal,W ;id=1999,key=00a,inCond:1,outCond:14,flow seq=036
                      04672 ;;      2120 left AOP_DIR
                      04673 ;; >>> /home/sdcc-builder/build/sdcc-build/orig/sdcc/src/pic14/gen.c:2128:genCall
                      04674 ;; ***  popRegFromIdx,1030  , rIdx=0x79
                      04675 ;; BANKOPT1 BANKSEL dropped; STK06 present in all of _CCal's banks
00ED   00??           04676         MOVWF   STK06   ;id=2003,key=00b,inCond:10,outCond:1,flow seq=036
                      04677 ;;; /home/sdcc-builder/build/sdcc-build/orig/sdcc/src/pic14/gen.c:1328:mov2w_op *{*
                      04678 ;; ***  mov2w  1366  offset=1
                      04679 ;; >>> /home/sdcc-builder/build/sdcc-build/orig/sdcc/src/pic14/gen.c:1371:mov2w
                      04680 ;;      998
                      04681 ;;      1016  _CCal   offset=1
                      04682 ;; BANKOPT2 BANKSEL dropped; _CCal present in same bank as _CCal
00EE   08??           04683         MOVF    (_CCal + 1),W   ;id=2009,key=00c,inCond:1,outCond:14,flow seq=036
                      04684 ;;      2120 left AOP_DIR
                      04685 ;; >>> /home/sdcc-builder/build/sdcc-build/orig/sdcc/src/pic14/gen.c:2128:genCall
                      04686 ;; ***  popRegFromIdx,1030  , rIdx=0x7a
                      04687 ;; BANKOPT1 BANKSEL dropped; STK05 present in all of _CCal's banks
00EF   00??           04688         MOVWF   STK05   ;id=2013,key=00d,inCond:10,outCond:1,flow seq=036
                      04689 ;;; /home/sdcc-builder/build/sdcc-build/orig/sdcc/src/pic14/gen.c:1328:mov2w_op *{*
                      04690 ;; ***  mov2w  1366  offset=2
                      04691 ;; >>> /home/sdcc-builder/build/sdcc-build/orig/sdcc/src/pic14/gen.c:1371:mov2w
                      04692 ;;      998
                      04693 ;;      1016  _CCal   offset=2
                      04694 ;; BANKOPT2 BANKSEL dropped; _CCal present in same bank as _CCal
00F0   08??           04695         MOVF    (_CCal + 2),W   ;id=2019,key=00e,inCond:1,outCond:14,flow seq=036
                      04696 ;;      2120 left AOP_DIR
                      04697 ;; >>> /home/sdcc-builder/build/sdcc-build/orig/sdcc/src/pic14/gen.c:2128:genCall
                      04698 ;; ***  popRegFromIdx,1030  , rIdx=0x7b
                      04699 ;; BANKOPT1 BANKSEL dropped; STK04 present in all of _CCal's banks
00F1   00??           04700         MOVWF   STK04   ;id=2023,key=00f,inCond:10,outCond:1,flow seq=036
                      04701 ;;; /home/sdcc-builder/build/sdcc-build/orig/sdcc/src/pic14/gen.c:1328:mov2w_op *{*
                      04702 ;; ***  mov2w  1366  offset=3
                      04703 ;; >>> /home/sdcc-builder/build/sdcc-build/orig/sdcc/src/pic14/gen.c:1371:mov2w
gpasm-1.5.2 #0 (Sep 16 2019) build/default/pr   9-16-2019  10:40:44         PAGE 90


LOC    OBJECT CODE    LINE  SOURCE TEXT
  VALUE

                      04704 ;;      998
                      04705 ;;      1016  _CCal   offset=3
                      04706 ;; BANKOPT2 BANKSEL dropped; _CCal present in same bank as _CCal
00F2   08??           04707         MOVF    (_CCal + 3),W   ;id=2029,key=010,inCond:1,outCond:14,flow seq=036
                      04708 ;;      695 register type nRegs=4
                      04709 ;;      2120 left AOP_REG
                      04710 ;; >>> /home/sdcc-builder/build/sdcc-build/orig/sdcc/src/pic14/gen.c:2128:genCall
                      04711 ;; ***  popRegFromIdx,1030  , rIdx=0x7c
                      04712 ;; BANKOPT1 BANKSEL dropped; STK03 present in all of _CCal's banks
00F3   00??           04713         MOVWF   STK03   ;id=2034,key=011,inCond:10,outCond:1,flow seq=036
                      04714 ;;; /home/sdcc-builder/build/sdcc-build/orig/sdcc/src/pic14/gen.c:1328:mov2w_op *{*
                      04715 ;; ***  mov2w  1366  offset=0
                      04716 ;; >>> /home/sdcc-builder/build/sdcc-build/orig/sdcc/src/pic14/gen.c:1371:mov2w
                      04717 ;;      1097 rIdx = r0x104E 
00F4   0??? 0???      04718         BANKSEL r0x101D ;id=6586,key=012,inCond:0,outCond:0,flow seq=036
00F6   08??           04719         MOVF    r0x101D,W       ;id=2039,key=013,inCond:1,outCond:14,flow seq=036,rIdx=r0x104E
                      04720 ;;      2120 left AOP_REG
                      04721 ;; >>> /home/sdcc-builder/build/sdcc-build/orig/sdcc/src/pic14/gen.c:2128:genCall
                      04722 ;; ***  popRegFromIdx,1030  , rIdx=0x7d
                      04723 ;; BANKOPT1 BANKSEL dropped; STK02 present in all of r0x101D's banks
00F7   00??           04724         MOVWF   STK02   ;id=2043,key=014,inCond:10,outCond:1,flow seq=036
                      04725 ;;; /home/sdcc-builder/build/sdcc-build/orig/sdcc/src/pic14/gen.c:1328:mov2w_op *{*
                      04726 ;; ***  mov2w  1366  offset=1
                      04727 ;; >>> /home/sdcc-builder/build/sdcc-build/orig/sdcc/src/pic14/gen.c:1371:mov2w
                      04728 ;;      1097 rIdx = r0x104F 
                      04729 ;; BANKOPT2 BANKSEL dropped; r0x101C present in same bank as r0x101D
00F8   08??           04730         MOVF    r0x101C,W       ;id=2048,key=015,inCond:1,outCond:14,flow seq=036,rIdx=r0x104F
                      04731 ;;      2120 left AOP_REG
                      04732 ;; >>> /home/sdcc-builder/build/sdcc-build/orig/sdcc/src/pic14/gen.c:2128:genCall
                      04733 ;; ***  popRegFromIdx,1030  , rIdx=0x7e
                      04734 ;; BANKOPT1 BANKSEL dropped; STK01 present in all of r0x101D's banks
00F9   00??           04735         MOVWF   STK01   ;id=2052,key=016,inCond:10,outCond:1,flow seq=036
                      04736 ;;; /home/sdcc-builder/build/sdcc-build/orig/sdcc/src/pic14/gen.c:1328:mov2w_op *{*
                      04737 ;; ***  mov2w  1366  offset=2
                      04738 ;; >>> /home/sdcc-builder/build/sdcc-build/orig/sdcc/src/pic14/gen.c:1371:mov2w
                      04739 ;;      1097 rIdx = r0x1050 
                      04740 ;; BANKOPT2 BANKSEL dropped; r0x101F present in same bank as r0x101D
00FA   08??           04741         MOVF    r0x101F,W       ;id=2057,key=017,inCond:1,outCond:14,flow seq=036,rIdx=r0x1050
                      04742 ;;      2120 left AOP_REG
                      04743 ;; >>> /home/sdcc-builder/build/sdcc-build/orig/sdcc/src/pic14/gen.c:2128:genCall
                      04744 ;; ***  popRegFromIdx,1030  , rIdx=0x7f
                      04745 ;; BANKOPT1 BANKSEL dropped; STK00 present in all of r0x101D's banks
00FB   00??           04746         MOVWF   STK00   ;id=2061,key=018,inCond:10,outCond:1,flow seq=036
                      04747 ;;; /home/sdcc-builder/build/sdcc-build/orig/sdcc/src/pic14/gen.c:1328:mov2w_op *{*
                      04748 ;; ***  mov2w  1366  offset=3
                      04749 ;; >>> /home/sdcc-builder/build/sdcc-build/orig/sdcc/src/pic14/gen.c:1371:mov2w
                      04750 ;;      1097 rIdx = r0x1051 
                      04751 ;; BANKOPT2 BANKSEL dropped; r0x101E present in same bank as r0x101D
00FC   08??           04752         MOVF    r0x101E,W       ;id=2066,key=019,inCond:1,outCond:14,flow seq=036,rIdx=r0x1051
                      04753 ;; >>> /home/sdcc-builder/build/sdcc-build/orig/sdcc/src/pic14/gen.c:2160:genCall
00FD   0??? 0???      04754         PAGESEL ___fsmul        ;id=2068,key=01a,inCond:0,outCond:0,flow seq=036
                      04755 ;; >>> /home/sdcc-builder/build/sdcc-build/orig/sdcc/src/pic14/gen.c:2165:genCall
                      04756 ;; BANKOPT3 drop assumptions: PCI with label or call found
gpasm-1.5.2 #0 (Sep 16 2019) build/default/pr   9-16-2019  10:40:44         PAGE 91


LOC    OBJECT CODE    LINE  SOURCE TEXT
  VALUE

00FF   2???           04757         CALL    ___fsmul        ;id=2070,key=01b,inCond:10,outCond:1e,flow seq=036
                      04758 ;<>Start of new flow, seq=0x37 ancestor = 0x36
                      04759 ;  from: 036 ; to: 038 
                      04760 ;; >>> /home/sdcc-builder/build/sdcc-build/orig/sdcc/src/pic14/gen.c:2173:genCall
0100   0??? 0???      04761         PAGESEL $       ;id=2072,key=000,inCond:0,outCond:0,flow seq=037
                      04762 ;;      695 register type nRegs=4
                      04763 ;;; /home/sdcc-builder/build/sdcc-build/orig/sdcc/src/pic14/gen.c:1892:assignResultValue *{*
                      04764 ;; ***  assignResultValue  1894
                      04765 ;;      line = 1896 result -=-, size=0, left AOP_REG=r0x104E, size=4, right -=-, size=0
                      04766 ;; >>> /home/sdcc-builder/build/sdcc-build/orig/sdcc/src/pic14/gen.c:1378:movwf
                      04767 ;;      1097 rIdx = r0x1051 
0102   0??? 0???      04768         BANKSEL r0x101E ;id=6594,key=001,inCond:0,outCond:0,flow seq=037
0104   00??           04769         MOVWF   r0x101E ;id=2079,key=002,inCond:10,outCond:1,flow seq=037,rIdx=r0x1051
                      04770 ;; >>> /home/sdcc-builder/build/sdcc-build/orig/sdcc/src/pic14/gen.c:1408:get_returnvalue
                      04771 ;; ***  popRegFromIdx,1030  , rIdx=0x7f
                      04772 ;; BANKOPT1 BANKSEL dropped; STK00 present in all of r0x101E's banks
0105   08??           04773         MOVF    STK00,W ;id=2082,key=003,inCond:1,outCond:14,flow seq=037
                      04774 ;; >>> /home/sdcc-builder/build/sdcc-build/orig/sdcc/src/pic14/gen.c:1378:movwf
                      04775 ;;      1097 rIdx = r0x1050 
                      04776 ;; BANKOPT2 BANKSEL dropped; r0x101F present in same bank as r0x101E
0106   00??           04777         MOVWF   r0x101F ;id=2085,key=004,inCond:10,outCond:1,flow seq=037,rIdx=r0x1050
                      04778 ;; >>> /home/sdcc-builder/build/sdcc-build/orig/sdcc/src/pic14/gen.c:1408:get_returnvalue
                      04779 ;; ***  popRegFromIdx,1030  , rIdx=0x7e
                      04780 ;; BANKOPT1 BANKSEL dropped; STK01 present in all of r0x101E's banks
0107   08??           04781         MOVF    STK01,W ;id=2088,key=005,inCond:1,outCond:14,flow seq=037
                      04782 ;; >>> /home/sdcc-builder/build/sdcc-build/orig/sdcc/src/pic14/gen.c:1378:movwf
                      04783 ;;      1097 rIdx = r0x104F 
                      04784 ;; BANKOPT2 BANKSEL dropped; r0x101C present in same bank as r0x101E
0108   00??           04785         MOVWF   r0x101C ;id=2091,key=006,inCond:10,outCond:1,flow seq=037,rIdx=r0x104F
                      04786 ;; >>> /home/sdcc-builder/build/sdcc-build/orig/sdcc/src/pic14/gen.c:1408:get_returnvalue
                      04787 ;; ***  popRegFromIdx,1030  , rIdx=0x7d
                      04788 ;; BANKOPT1 BANKSEL dropped; STK02 present in all of r0x101E's banks
0109   08??           04789         MOVF    STK02,W ;id=2094,key=007,inCond:1,outCond:14,flow seq=037
                      04790 ;; >>> /home/sdcc-builder/build/sdcc-build/orig/sdcc/src/pic14/gen.c:1378:movwf
                      04791 ;;      1097 rIdx = r0x104E 
                      04792 ;; BANKOPT2 BANKSEL dropped; r0x101D present in same bank as r0x101E
                      04793 ;       .line   169; "../../../src/measure.c"   if(Cin > 999) {
010A   00??           04794         MOVWF   r0x101D ;id=5923,key=008,inCond:10,outCond:1,flow seq=037,rIdx=r0x104E
                      04795 ;; BANKOPT1 BANKSEL dropped; STK06 present in all of r0x101E's banks
010B   00??           04796         MOVWF   STK06   ;id=2120,key=009,inCond:10,outCond:1,flow seq=037
                      04797 ;;; /home/sdcc-builder/build/sdcc-build/orig/sdcc/src/pic14/gen.c:1328:mov2w_op *{*
                      04798 ;; ***  mov2w  1366  offset=1
                      04799 ;; >>> /home/sdcc-builder/build/sdcc-build/orig/sdcc/src/pic14/gen.c:1371:mov2w
                      04800 ;;      1097 rIdx = r0x104F 
                      04801 ;; BANKOPT2 BANKSEL dropped; r0x101C present in same bank as r0x101E
010C   08??           04802         MOVF    r0x101C,W       ;id=2125,key=00a,inCond:1,outCond:14,flow seq=037,rIdx=r0x104F
                      04803 ;;      2120 left AOP_REG
                      04804 ;; >>> /home/sdcc-builder/build/sdcc-build/orig/sdcc/src/pic14/gen.c:2128:genCall
                      04805 ;; ***  popRegFromIdx,1030  , rIdx=0x7a
                      04806 ;; BANKOPT1 BANKSEL dropped; STK05 present in all of r0x101E's banks
010D   00??           04807         MOVWF   STK05   ;id=2129,key=00b,inCond:10,outCond:1,flow seq=037
                      04808 ;;; /home/sdcc-builder/build/sdcc-build/orig/sdcc/src/pic14/gen.c:1328:mov2w_op *{*
                      04809 ;; ***  mov2w  1366  offset=2
gpasm-1.5.2 #0 (Sep 16 2019) build/default/pr   9-16-2019  10:40:44         PAGE 92


LOC    OBJECT CODE    LINE  SOURCE TEXT
  VALUE

                      04810 ;; >>> /home/sdcc-builder/build/sdcc-build/orig/sdcc/src/pic14/gen.c:1371:mov2w
                      04811 ;;      1097 rIdx = r0x1050 
                      04812 ;; BANKOPT2 BANKSEL dropped; r0x101F present in same bank as r0x101E
010E   08??           04813         MOVF    r0x101F,W       ;id=2134,key=00c,inCond:1,outCond:14,flow seq=037,rIdx=r0x1050
                      04814 ;;      2120 left AOP_REG
                      04815 ;; >>> /home/sdcc-builder/build/sdcc-build/orig/sdcc/src/pic14/gen.c:2128:genCall
                      04816 ;; ***  popRegFromIdx,1030  , rIdx=0x7b
                      04817 ;; BANKOPT1 BANKSEL dropped; STK04 present in all of r0x101E's banks
010F   00??           04818         MOVWF   STK04   ;id=2138,key=00d,inCond:10,outCond:1,flow seq=037
                      04819 ;;; /home/sdcc-builder/build/sdcc-build/orig/sdcc/src/pic14/gen.c:1328:mov2w_op *{*
                      04820 ;; ***  mov2w  1366  offset=3
                      04821 ;; >>> /home/sdcc-builder/build/sdcc-build/orig/sdcc/src/pic14/gen.c:1371:mov2w
                      04822 ;;      1097 rIdx = r0x1051 
                      04823 ;; BANKOPT2 BANKSEL dropped; r0x101E present in same bank as r0x101E
0110   08??           04824         MOVF    r0x101E,W       ;id=2143,key=00e,inCond:1,outCond:14,flow seq=037,rIdx=r0x1051
                      04825 ;;      2120 left AOP_LIT
                      04826 ;; >>> /home/sdcc-builder/build/sdcc-build/orig/sdcc/src/pic14/gen.c:2128:genCall
                      04827 ;; ***  popRegFromIdx,1030  , rIdx=0x7c
                      04828 ;; BANKOPT1 BANKSEL dropped; STK03 present in all of r0x101E's banks
0111   00??           04829         MOVWF   STK03   ;id=2147,key=00f,inCond:10,outCond:1,flow seq=037
                      04830 ;;; /home/sdcc-builder/build/sdcc-build/orig/sdcc/src/pic14/gen.c:1328:mov2w_op *{*
                      04831 ;; >>> /home/sdcc-builder/build/sdcc-build/orig/sdcc/src/pic14/gen.c:1346:mov2w_op
0112   3000           04832         MOVLW   0x00    ;id=2150,key=010,inCond:400,outCond:10,flow seq=037
                      04833 ;;      2120 left AOP_LIT
                      04834 ;; >>> /home/sdcc-builder/build/sdcc-build/orig/sdcc/src/pic14/gen.c:2128:genCall
                      04835 ;; ***  popRegFromIdx,1030  , rIdx=0x7d
                      04836 ;; BANKOPT1 BANKSEL dropped; STK02 present in all of r0x101E's banks
0113   00??           04837         MOVWF   STK02   ;id=2154,key=011,inCond:10,outCond:1,flow seq=037
                      04838 ;;; /home/sdcc-builder/build/sdcc-build/orig/sdcc/src/pic14/gen.c:1328:mov2w_op *{*
                      04839 ;; >>> /home/sdcc-builder/build/sdcc-build/orig/sdcc/src/pic14/gen.c:1346:mov2w_op
0114   30C0           04840         MOVLW   0xc0    ;id=2157,key=012,inCond:400,outCond:10,flow seq=037
                      04841 ;;      2120 left AOP_LIT
                      04842 ;; >>> /home/sdcc-builder/build/sdcc-build/orig/sdcc/src/pic14/gen.c:2128:genCall
                      04843 ;; ***  popRegFromIdx,1030  , rIdx=0x7e
                      04844 ;; BANKOPT1 BANKSEL dropped; STK01 present in all of r0x101E's banks
0115   00??           04845         MOVWF   STK01   ;id=2161,key=013,inCond:10,outCond:1,flow seq=037
                      04846 ;;; /home/sdcc-builder/build/sdcc-build/orig/sdcc/src/pic14/gen.c:1328:mov2w_op *{*
                      04847 ;; >>> /home/sdcc-builder/build/sdcc-build/orig/sdcc/src/pic14/gen.c:1346:mov2w_op
0116   3079           04848         MOVLW   0x79    ;id=2164,key=014,inCond:400,outCond:10,flow seq=037
                      04849 ;;      2120 left AOP_LIT
                      04850 ;; >>> /home/sdcc-builder/build/sdcc-build/orig/sdcc/src/pic14/gen.c:2128:genCall
                      04851 ;; ***  popRegFromIdx,1030  , rIdx=0x7f
                      04852 ;; BANKOPT1 BANKSEL dropped; STK00 present in all of r0x101E's banks
0117   00??           04853         MOVWF   STK00   ;id=2168,key=015,inCond:10,outCond:1,flow seq=037
                      04854 ;;; /home/sdcc-builder/build/sdcc-build/orig/sdcc/src/pic14/gen.c:1328:mov2w_op *{*
                      04855 ;; >>> /home/sdcc-builder/build/sdcc-build/orig/sdcc/src/pic14/gen.c:1346:mov2w_op
0118   3044           04856         MOVLW   0x44    ;id=2171,key=016,inCond:400,outCond:10,flow seq=037
                      04857 ;; >>> /home/sdcc-builder/build/sdcc-build/orig/sdcc/src/pic14/gen.c:2160:genCall
0119   0??? 0???      04858         PAGESEL ___fslt ;id=2173,key=017,inCond:0,outCond:0,flow seq=037
                      04859 ;; >>> /home/sdcc-builder/build/sdcc-build/orig/sdcc/src/pic14/gen.c:2165:genCall
                      04860 ;; BANKOPT3 drop assumptions: PCI with label or call found
011B   2???           04861         CALL    ___fslt ;id=2175,key=018,inCond:10,outCond:1e,flow seq=037
                      04862 ;<>Start of new flow, seq=0x38 ancestor = 0x37
gpasm-1.5.2 #0 (Sep 16 2019) build/default/pr   9-16-2019  10:40:44         PAGE 93


LOC    OBJECT CODE    LINE  SOURCE TEXT
  VALUE

                      04863 ;  from: 037 ; to: 03a 039 
                      04864 ;; >>> /home/sdcc-builder/build/sdcc-build/orig/sdcc/src/pic14/gen.c:2173:genCall
011C   0??? 0???      04865         PAGESEL $       ;id=2177,key=000,inCond:0,outCond:0,flow seq=038
                      04866 ;;      695 register type nRegs=1
                      04867 ;;; /home/sdcc-builder/build/sdcc-build/orig/sdcc/src/pic14/gen.c:1892:assignResultValue *{*
                      04868 ;; ***  assignResultValue  1894
                      04869 ;;      line = 1896 result -=-, size=0, left AOP_REG=r0x1052, size=1, right -=-, size=0
                      04870 ;; >>> /home/sdcc-builder/build/sdcc-build/orig/sdcc/src/pic14/gen.c:1378:movwf
                      04871 ;;      1097 rIdx = r0x1052 
011E   0??? 0???      04872         BANKSEL r0x1023 ;id=6612,key=001,inCond:0,outCond:0,flow seq=038
0120   00??           04873         MOVWF   r0x1023 ;id=2184,key=002,inCond:10,outCond:1,flow seq=038,rIdx=r0x1052
                      04874 ;;      2188 left AOP_REG
                      04875 ;;; /home/sdcc-builder/build/sdcc-build/orig/sdcc/src/pic14/gen.c:1830:unsaveRegisters *{*
                      04876 ;; ***  unsaveRegisters  1832
                      04877 ;;; /home/sdcc-builder/build/sdcc-build/orig/sdcc/src/pic14/gen.c:2308:resultRemat *{*
                      04878 ;;; /home/sdcc-builder/build/sdcc-build/orig/sdcc/src/pic14/gen.c:6868:genIfx *{*
                      04879 ;; ***  genIfx  6869
                      04880 ;;      695 register type nRegs=1
                      04881 ;; ***  pic14_toBoolean  1500
                      04882 ;; >>> /home/sdcc-builder/build/sdcc-build/orig/sdcc/src/pic14/gen.c:1507:pic14_toBoolean
                      04883 ;; BANKOPT2 BANKSEL dropped; r0x1023 present in same bank as r0x1023
0121   08??           04884         MOVF    r0x1023,W       ;id=5924,key=003,inCond:1,outCond:14,flow seq=038,rIdx=r0x1052
0122   1903           04885         BTFSC   STATUS,2        ;id=2199,key=004,inCond:25,outCond:0,flow seq=038
                      04886 ;<>Start of new flow, seq=0x39 ancestor = 0x38
                      04887 ;  from: 038 ; to: 046 
                      04888 ;; >>> /home/sdcc-builder/build/sdcc-build/orig/sdcc/src/pic14/gen.c:6923:genIfx
                      04889 ;; ***  popGetLabel  key=10, label offset 12
0123   2???           04890         GOTO    _00122_DS_      ;id=2202,key=000,inCond:0,outCond:0,flow seq=039
                      04891 ;<>Start of new flow, seq=0x3a ancestor = 0x38
                      04892 ;  from: 038 ; to: 03b 
                      04893 ;;; /home/sdcc-builder/build/sdcc-build/orig/sdcc/src/pic14/gen.c:2308:resultRemat *{*
                      04894 ;;; /home/sdcc-builder/build/sdcc-build/orig/sdcc/src/pic14/gen.c:2308:resultRemat *{*
                      04895 ;;; /home/sdcc-builder/build/sdcc-build/orig/sdcc/src/pic14/gen.c:2308:resultRemat *{*
                      04896 ;;; /home/sdcc-builder/build/sdcc-build/orig/sdcc/src/pic14/gen.c:2071:genCall *{*
                      04897 ;; ***  genCall  2073
                      04898 ;;; /home/sdcc-builder/build/sdcc-build/orig/sdcc/src/pic14/gen.c:1786:saveRegisters *{*
                      04899 ;; ***  saveRegisters  1788
                      04900 ;;      695 register type nRegs=4
                      04901 ;;      695 register type nRegs=4
                      04902 ;;      2120 left AOP_REG
                      04903 ;;; /home/sdcc-builder/build/sdcc-build/orig/sdcc/src/pic14/gen.c:1328:mov2w_op *{*
                      04904 ;; ***  mov2w  1366  offset=0
                      04905 ;; >>> /home/sdcc-builder/build/sdcc-build/orig/sdcc/src/pic14/gen.c:1371:mov2w
                      04906 ;;      1097 rIdx = r0x104E 
                      04907 ;; BANKOPT2 BANKSEL dropped; r0x101D present in same bank as r0x1023
                      04908 ;       .line   170; "../../../src/measure.c"   if(Cin > (999e+03l)) {
0124   08??           04909         MOVF    r0x101D,W       ;id=2218,key=000,inCond:1,outCond:14,flow seq=03a,rIdx=r0x104E
                      04910 ;;      2120 left AOP_REG
                      04911 ;; >>> /home/sdcc-builder/build/sdcc-build/orig/sdcc/src/pic14/gen.c:2128:genCall
                      04912 ;; ***  popRegFromIdx,1030  , rIdx=0x79
                      04913 ;; BANKOPT1 BANKSEL dropped; STK06 present in all of r0x1023's banks
0125   00??           04914         MOVWF   STK06   ;id=2222,key=001,inCond:10,outCond:1,flow seq=03a
                      04915 ;;; /home/sdcc-builder/build/sdcc-build/orig/sdcc/src/pic14/gen.c:1328:mov2w_op *{*
gpasm-1.5.2 #0 (Sep 16 2019) build/default/pr   9-16-2019  10:40:44         PAGE 94


LOC    OBJECT CODE    LINE  SOURCE TEXT
  VALUE

                      04916 ;; ***  mov2w  1366  offset=1
                      04917 ;; >>> /home/sdcc-builder/build/sdcc-build/orig/sdcc/src/pic14/gen.c:1371:mov2w
                      04918 ;;      1097 rIdx = r0x104F 
                      04919 ;; BANKOPT2 BANKSEL dropped; r0x101C present in same bank as r0x1023
0126   08??           04920         MOVF    r0x101C,W       ;id=2227,key=002,inCond:1,outCond:14,flow seq=03a,rIdx=r0x104F
                      04921 ;;      2120 left AOP_REG
                      04922 ;; >>> /home/sdcc-builder/build/sdcc-build/orig/sdcc/src/pic14/gen.c:2128:genCall
                      04923 ;; ***  popRegFromIdx,1030  , rIdx=0x7a
                      04924 ;; BANKOPT1 BANKSEL dropped; STK05 present in all of r0x1023's banks
0127   00??           04925         MOVWF   STK05   ;id=2231,key=003,inCond:10,outCond:1,flow seq=03a
                      04926 ;;; /home/sdcc-builder/build/sdcc-build/orig/sdcc/src/pic14/gen.c:1328:mov2w_op *{*
                      04927 ;; ***  mov2w  1366  offset=2
                      04928 ;; >>> /home/sdcc-builder/build/sdcc-build/orig/sdcc/src/pic14/gen.c:1371:mov2w
                      04929 ;;      1097 rIdx = r0x1050 
                      04930 ;; BANKOPT2 BANKSEL dropped; r0x101F present in same bank as r0x1023
0128   08??           04931         MOVF    r0x101F,W       ;id=2236,key=004,inCond:1,outCond:14,flow seq=03a,rIdx=r0x1050
                      04932 ;;      2120 left AOP_REG
                      04933 ;; >>> /home/sdcc-builder/build/sdcc-build/orig/sdcc/src/pic14/gen.c:2128:genCall
                      04934 ;; ***  popRegFromIdx,1030  , rIdx=0x7b
                      04935 ;; BANKOPT1 BANKSEL dropped; STK04 present in all of r0x1023's banks
0129   00??           04936         MOVWF   STK04   ;id=2240,key=005,inCond:10,outCond:1,flow seq=03a
                      04937 ;;; /home/sdcc-builder/build/sdcc-build/orig/sdcc/src/pic14/gen.c:1328:mov2w_op *{*
                      04938 ;; ***  mov2w  1366  offset=3
                      04939 ;; >>> /home/sdcc-builder/build/sdcc-build/orig/sdcc/src/pic14/gen.c:1371:mov2w
                      04940 ;;      1097 rIdx = r0x1051 
                      04941 ;; BANKOPT2 BANKSEL dropped; r0x101E present in same bank as r0x1023
012A   08??           04942         MOVF    r0x101E,W       ;id=2245,key=006,inCond:1,outCond:14,flow seq=03a,rIdx=r0x1051
                      04943 ;;      2120 left AOP_LIT
                      04944 ;; >>> /home/sdcc-builder/build/sdcc-build/orig/sdcc/src/pic14/gen.c:2128:genCall
                      04945 ;; ***  popRegFromIdx,1030  , rIdx=0x7c
                      04946 ;; BANKOPT1 BANKSEL dropped; STK03 present in all of r0x1023's banks
012B   00??           04947         MOVWF   STK03   ;id=2249,key=007,inCond:10,outCond:1,flow seq=03a
                      04948 ;;; /home/sdcc-builder/build/sdcc-build/orig/sdcc/src/pic14/gen.c:1328:mov2w_op *{*
                      04949 ;; >>> /home/sdcc-builder/build/sdcc-build/orig/sdcc/src/pic14/gen.c:1346:mov2w_op
012C   3080           04950         MOVLW   0x80    ;id=2252,key=008,inCond:400,outCond:10,flow seq=03a
                      04951 ;;      2120 left AOP_LIT
                      04952 ;; >>> /home/sdcc-builder/build/sdcc-build/orig/sdcc/src/pic14/gen.c:2128:genCall
                      04953 ;; ***  popRegFromIdx,1030  , rIdx=0x7d
                      04954 ;; BANKOPT1 BANKSEL dropped; STK02 present in all of r0x1023's banks
012D   00??           04955         MOVWF   STK02   ;id=2256,key=009,inCond:10,outCond:1,flow seq=03a
                      04956 ;;; /home/sdcc-builder/build/sdcc-build/orig/sdcc/src/pic14/gen.c:1328:mov2w_op *{*
                      04957 ;; >>> /home/sdcc-builder/build/sdcc-build/orig/sdcc/src/pic14/gen.c:1346:mov2w_op
012E   30E5           04958         MOVLW   0xe5    ;id=2259,key=00a,inCond:400,outCond:10,flow seq=03a
                      04959 ;;      2120 left AOP_LIT
                      04960 ;; >>> /home/sdcc-builder/build/sdcc-build/orig/sdcc/src/pic14/gen.c:2128:genCall
                      04961 ;; ***  popRegFromIdx,1030  , rIdx=0x7e
                      04962 ;; BANKOPT1 BANKSEL dropped; STK01 present in all of r0x1023's banks
012F   00??           04963         MOVWF   STK01   ;id=2263,key=00b,inCond:10,outCond:1,flow seq=03a
                      04964 ;;; /home/sdcc-builder/build/sdcc-build/orig/sdcc/src/pic14/gen.c:1328:mov2w_op *{*
                      04965 ;; >>> /home/sdcc-builder/build/sdcc-build/orig/sdcc/src/pic14/gen.c:1346:mov2w_op
0130   3073           04966         MOVLW   0x73    ;id=2266,key=00c,inCond:400,outCond:10,flow seq=03a
                      04967 ;;      2120 left AOP_LIT
                      04968 ;; >>> /home/sdcc-builder/build/sdcc-build/orig/sdcc/src/pic14/gen.c:2128:genCall
gpasm-1.5.2 #0 (Sep 16 2019) build/default/pr   9-16-2019  10:40:44         PAGE 95


LOC    OBJECT CODE    LINE  SOURCE TEXT
  VALUE

                      04969 ;; ***  popRegFromIdx,1030  , rIdx=0x7f
                      04970 ;; BANKOPT1 BANKSEL dropped; STK00 present in all of r0x1023's banks
0131   00??           04971         MOVWF   STK00   ;id=2270,key=00d,inCond:10,outCond:1,flow seq=03a
                      04972 ;;; /home/sdcc-builder/build/sdcc-build/orig/sdcc/src/pic14/gen.c:1328:mov2w_op *{*
                      04973 ;; >>> /home/sdcc-builder/build/sdcc-build/orig/sdcc/src/pic14/gen.c:1346:mov2w_op
0132   3049           04974         MOVLW   0x49    ;id=2273,key=00e,inCond:400,outCond:10,flow seq=03a
                      04975 ;; >>> /home/sdcc-builder/build/sdcc-build/orig/sdcc/src/pic14/gen.c:2160:genCall
0133   0??? 0???      04976         PAGESEL ___fslt ;id=2275,key=00f,inCond:0,outCond:0,flow seq=03a
                      04977 ;; >>> /home/sdcc-builder/build/sdcc-build/orig/sdcc/src/pic14/gen.c:2165:genCall
                      04978 ;; BANKOPT3 drop assumptions: PCI with label or call found
0135   2???           04979         CALL    ___fslt ;id=2277,key=010,inCond:10,outCond:1e,flow seq=03a
                      04980 ;<>Start of new flow, seq=0x3b ancestor = 0x3a
                      04981 ;  from: 03a ; to: 03d 03c 
                      04982 ;; >>> /home/sdcc-builder/build/sdcc-build/orig/sdcc/src/pic14/gen.c:2173:genCall
0136   0??? 0???      04983         PAGESEL $       ;id=2279,key=000,inCond:0,outCond:0,flow seq=03b
                      04984 ;;      695 register type nRegs=1
                      04985 ;;; /home/sdcc-builder/build/sdcc-build/orig/sdcc/src/pic14/gen.c:1892:assignResultValue *{*
                      04986 ;; ***  assignResultValue  1894
                      04987 ;;      line = 1896 result -=-, size=0, left AOP_REG=r0x1052, size=1, right -=-, size=0
                      04988 ;; >>> /home/sdcc-builder/build/sdcc-build/orig/sdcc/src/pic14/gen.c:1378:movwf
                      04989 ;;      1097 rIdx = r0x1052 
0138   0??? 0???      04990         BANKSEL r0x1023 ;id=6626,key=001,inCond:0,outCond:0,flow seq=03b
013A   00??           04991         MOVWF   r0x1023 ;id=2286,key=002,inCond:10,outCond:1,flow seq=03b,rIdx=r0x1052
                      04992 ;;      2188 left AOP_REG
                      04993 ;;; /home/sdcc-builder/build/sdcc-build/orig/sdcc/src/pic14/gen.c:1830:unsaveRegisters *{*
                      04994 ;; ***  unsaveRegisters  1832
                      04995 ;;; /home/sdcc-builder/build/sdcc-build/orig/sdcc/src/pic14/gen.c:2308:resultRemat *{*
                      04996 ;;; /home/sdcc-builder/build/sdcc-build/orig/sdcc/src/pic14/gen.c:6868:genIfx *{*
                      04997 ;; ***  genIfx  6869
                      04998 ;;      695 register type nRegs=1
                      04999 ;; ***  pic14_toBoolean  1500
                      05000 ;; >>> /home/sdcc-builder/build/sdcc-build/orig/sdcc/src/pic14/gen.c:1507:pic14_toBoolean
                      05001 ;; BANKOPT2 BANKSEL dropped; r0x1023 present in same bank as r0x1023
013B   08??           05002         MOVF    r0x1023,W       ;id=5925,key=003,inCond:1,outCond:14,flow seq=03b,rIdx=r0x1052
013C   1903           05003         BTFSC   STATUS,2        ;id=2301,key=004,inCond:25,outCond:0,flow seq=03b
                      05004 ;<>Start of new flow, seq=0x3c ancestor = 0x3b
                      05005 ;  from: 03b ; to: 044 
                      05006 ;; >>> /home/sdcc-builder/build/sdcc-build/orig/sdcc/src/pic14/gen.c:6923:genIfx
                      05007 ;; ***  popGetLabel  key=7, label offset 12
013D   2???           05008         GOTO    _00119_DS_      ;id=2304,key=000,inCond:0,outCond:0,flow seq=03c
                      05009 ;<>Start of new flow, seq=0x3d ancestor = 0x3b
                      05010 ;  from: 03b ; to: 03e 
                      05011 ;;; /home/sdcc-builder/build/sdcc-build/orig/sdcc/src/pic14/gen.c:2308:resultRemat *{*
                      05012 ;;; /home/sdcc-builder/build/sdcc-build/orig/sdcc/src/pic14/gen.c:2308:resultRemat *{*
                      05013 ;;; /home/sdcc-builder/build/sdcc-build/orig/sdcc/src/pic14/gen.c:2308:resultRemat *{*
                      05014 ;;; /home/sdcc-builder/build/sdcc-build/orig/sdcc/src/pic14/gen.c:2071:genCall *{*
                      05015 ;; ***  genCall  2073
                      05016 ;;; /home/sdcc-builder/build/sdcc-build/orig/sdcc/src/pic14/gen.c:1786:saveRegisters *{*
                      05017 ;; ***  saveRegisters  1788
                      05018 ;;      695 register type nRegs=4
                      05019 ;;      695 register type nRegs=4
                      05020 ;;      2120 left AOP_REG
                      05021 ;;; /home/sdcc-builder/build/sdcc-build/orig/sdcc/src/pic14/gen.c:1328:mov2w_op *{*
gpasm-1.5.2 #0 (Sep 16 2019) build/default/pr   9-16-2019  10:40:44         PAGE 96


LOC    OBJECT CODE    LINE  SOURCE TEXT
  VALUE

                      05022 ;; ***  mov2w  1366  offset=0
                      05023 ;; >>> /home/sdcc-builder/build/sdcc-build/orig/sdcc/src/pic14/gen.c:1371:mov2w
                      05024 ;;      1097 rIdx = r0x104E 
                      05025 ;; BANKOPT2 BANKSEL dropped; r0x101D present in same bank as r0x1023
                      05026 ;       .line   171; "../../../src/measure.c"   if(Cin > (999e+06l)) {
013E   08??           05027         MOVF    r0x101D,W       ;id=2320,key=000,inCond:1,outCond:14,flow seq=03d,rIdx=r0x104E
                      05028 ;;      2120 left AOP_REG
                      05029 ;; >>> /home/sdcc-builder/build/sdcc-build/orig/sdcc/src/pic14/gen.c:2128:genCall
                      05030 ;; ***  popRegFromIdx,1030  , rIdx=0x79
                      05031 ;; BANKOPT1 BANKSEL dropped; STK06 present in all of r0x1023's banks
013F   00??           05032         MOVWF   STK06   ;id=2324,key=001,inCond:10,outCond:1,flow seq=03d
                      05033 ;;; /home/sdcc-builder/build/sdcc-build/orig/sdcc/src/pic14/gen.c:1328:mov2w_op *{*
                      05034 ;; ***  mov2w  1366  offset=1
                      05035 ;; >>> /home/sdcc-builder/build/sdcc-build/orig/sdcc/src/pic14/gen.c:1371:mov2w
                      05036 ;;      1097 rIdx = r0x104F 
                      05037 ;; BANKOPT2 BANKSEL dropped; r0x101C present in same bank as r0x1023
0140   08??           05038         MOVF    r0x101C,W       ;id=2329,key=002,inCond:1,outCond:14,flow seq=03d,rIdx=r0x104F
                      05039 ;;      2120 left AOP_REG
                      05040 ;; >>> /home/sdcc-builder/build/sdcc-build/orig/sdcc/src/pic14/gen.c:2128:genCall
                      05041 ;; ***  popRegFromIdx,1030  , rIdx=0x7a
                      05042 ;; BANKOPT1 BANKSEL dropped; STK05 present in all of r0x1023's banks
0141   00??           05043         MOVWF   STK05   ;id=2333,key=003,inCond:10,outCond:1,flow seq=03d
                      05044 ;;; /home/sdcc-builder/build/sdcc-build/orig/sdcc/src/pic14/gen.c:1328:mov2w_op *{*
                      05045 ;; ***  mov2w  1366  offset=2
                      05046 ;; >>> /home/sdcc-builder/build/sdcc-build/orig/sdcc/src/pic14/gen.c:1371:mov2w
                      05047 ;;      1097 rIdx = r0x1050 
                      05048 ;; BANKOPT2 BANKSEL dropped; r0x101F present in same bank as r0x1023
0142   08??           05049         MOVF    r0x101F,W       ;id=2338,key=004,inCond:1,outCond:14,flow seq=03d,rIdx=r0x1050
                      05050 ;;      2120 left AOP_REG
                      05051 ;; >>> /home/sdcc-builder/build/sdcc-build/orig/sdcc/src/pic14/gen.c:2128:genCall
                      05052 ;; ***  popRegFromIdx,1030  , rIdx=0x7b
                      05053 ;; BANKOPT1 BANKSEL dropped; STK04 present in all of r0x1023's banks
0143   00??           05054         MOVWF   STK04   ;id=2342,key=005,inCond:10,outCond:1,flow seq=03d
                      05055 ;;; /home/sdcc-builder/build/sdcc-build/orig/sdcc/src/pic14/gen.c:1328:mov2w_op *{*
                      05056 ;; ***  mov2w  1366  offset=3
                      05057 ;; >>> /home/sdcc-builder/build/sdcc-build/orig/sdcc/src/pic14/gen.c:1371:mov2w
                      05058 ;;      1097 rIdx = r0x1051 
                      05059 ;; BANKOPT2 BANKSEL dropped; r0x101E present in same bank as r0x1023
0144   08??           05060         MOVF    r0x101E,W       ;id=2347,key=006,inCond:1,outCond:14,flow seq=03d,rIdx=r0x1051
                      05061 ;;      2120 left AOP_LIT
                      05062 ;; >>> /home/sdcc-builder/build/sdcc-build/orig/sdcc/src/pic14/gen.c:2128:genCall
                      05063 ;; ***  popRegFromIdx,1030  , rIdx=0x7c
                      05064 ;; BANKOPT1 BANKSEL dropped; STK03 present in all of r0x1023's banks
0145   00??           05065         MOVWF   STK03   ;id=2351,key=007,inCond:10,outCond:1,flow seq=03d
                      05066 ;;; /home/sdcc-builder/build/sdcc-build/orig/sdcc/src/pic14/gen.c:1328:mov2w_op *{*
                      05067 ;; >>> /home/sdcc-builder/build/sdcc-build/orig/sdcc/src/pic14/gen.c:1346:mov2w_op
0146   301F           05068         MOVLW   0x1f    ;id=2354,key=008,inCond:400,outCond:10,flow seq=03d
                      05069 ;;      2120 left AOP_LIT
                      05070 ;; >>> /home/sdcc-builder/build/sdcc-build/orig/sdcc/src/pic14/gen.c:2128:genCall
                      05071 ;; ***  popRegFromIdx,1030  , rIdx=0x7d
                      05072 ;; BANKOPT1 BANKSEL dropped; STK02 present in all of r0x1023's banks
0147   00??           05073         MOVWF   STK02   ;id=2358,key=009,inCond:10,outCond:1,flow seq=03d
                      05074 ;;; /home/sdcc-builder/build/sdcc-build/orig/sdcc/src/pic14/gen.c:1328:mov2w_op *{*
gpasm-1.5.2 #0 (Sep 16 2019) build/default/pr   9-16-2019  10:40:44         PAGE 97


LOC    OBJECT CODE    LINE  SOURCE TEXT
  VALUE

                      05075 ;; >>> /home/sdcc-builder/build/sdcc-build/orig/sdcc/src/pic14/gen.c:1346:mov2w_op
0148   302E           05076         MOVLW   0x2e    ;id=2361,key=00a,inCond:400,outCond:10,flow seq=03d
                      05077 ;;      2120 left AOP_LIT
                      05078 ;; >>> /home/sdcc-builder/build/sdcc-build/orig/sdcc/src/pic14/gen.c:2128:genCall
                      05079 ;; ***  popRegFromIdx,1030  , rIdx=0x7e
                      05080 ;; BANKOPT1 BANKSEL dropped; STK01 present in all of r0x1023's banks
0149   00??           05081         MOVWF   STK01   ;id=2365,key=00b,inCond:10,outCond:1,flow seq=03d
                      05082 ;;; /home/sdcc-builder/build/sdcc-build/orig/sdcc/src/pic14/gen.c:1328:mov2w_op *{*
                      05083 ;; >>> /home/sdcc-builder/build/sdcc-build/orig/sdcc/src/pic14/gen.c:1346:mov2w_op
014A   306E           05084         MOVLW   0x6e    ;id=2368,key=00c,inCond:400,outCond:10,flow seq=03d
                      05085 ;;      2120 left AOP_LIT
                      05086 ;; >>> /home/sdcc-builder/build/sdcc-build/orig/sdcc/src/pic14/gen.c:2128:genCall
                      05087 ;; ***  popRegFromIdx,1030  , rIdx=0x7f
                      05088 ;; BANKOPT1 BANKSEL dropped; STK00 present in all of r0x1023's banks
014B   00??           05089         MOVWF   STK00   ;id=2372,key=00d,inCond:10,outCond:1,flow seq=03d
                      05090 ;;; /home/sdcc-builder/build/sdcc-build/orig/sdcc/src/pic14/gen.c:1328:mov2w_op *{*
                      05091 ;; >>> /home/sdcc-builder/build/sdcc-build/orig/sdcc/src/pic14/gen.c:1346:mov2w_op
014C   304E           05092         MOVLW   0x4e    ;id=2375,key=00e,inCond:400,outCond:10,flow seq=03d
                      05093 ;; >>> /home/sdcc-builder/build/sdcc-build/orig/sdcc/src/pic14/gen.c:2160:genCall
014D   0??? 0???      05094         PAGESEL ___fslt ;id=2377,key=00f,inCond:0,outCond:0,flow seq=03d
                      05095 ;; >>> /home/sdcc-builder/build/sdcc-build/orig/sdcc/src/pic14/gen.c:2165:genCall
                      05096 ;; BANKOPT3 drop assumptions: PCI with label or call found
014F   2???           05097         CALL    ___fslt ;id=2379,key=010,inCond:10,outCond:1e,flow seq=03d
                      05098 ;<>Start of new flow, seq=0x3e ancestor = 0x3d
                      05099 ;  from: 03d ; to: 040 03f 
                      05100 ;; >>> /home/sdcc-builder/build/sdcc-build/orig/sdcc/src/pic14/gen.c:2173:genCall
0150   0??? 0???      05101         PAGESEL $       ;id=2381,key=000,inCond:0,outCond:0,flow seq=03e
                      05102 ;;      695 register type nRegs=1
                      05103 ;;; /home/sdcc-builder/build/sdcc-build/orig/sdcc/src/pic14/gen.c:1892:assignResultValue *{*
                      05104 ;; ***  assignResultValue  1894
                      05105 ;;      line = 1896 result -=-, size=0, left AOP_REG=r0x1052, size=1, right -=-, size=0
                      05106 ;; >>> /home/sdcc-builder/build/sdcc-build/orig/sdcc/src/pic14/gen.c:1378:movwf
                      05107 ;;      1097 rIdx = r0x1052 
0152   0??? 0???      05108         BANKSEL r0x1023 ;id=6640,key=001,inCond:0,outCond:0,flow seq=03e
0154   00??           05109         MOVWF   r0x1023 ;id=2388,key=002,inCond:10,outCond:1,flow seq=03e,rIdx=r0x1052
                      05110 ;;      2188 left AOP_REG
                      05111 ;;; /home/sdcc-builder/build/sdcc-build/orig/sdcc/src/pic14/gen.c:1830:unsaveRegisters *{*
                      05112 ;; ***  unsaveRegisters  1832
                      05113 ;;; /home/sdcc-builder/build/sdcc-build/orig/sdcc/src/pic14/gen.c:2308:resultRemat *{*
                      05114 ;;; /home/sdcc-builder/build/sdcc-build/orig/sdcc/src/pic14/gen.c:6868:genIfx *{*
                      05115 ;; ***  genIfx  6869
                      05116 ;;      695 register type nRegs=1
                      05117 ;; ***  pic14_toBoolean  1500
                      05118 ;; >>> /home/sdcc-builder/build/sdcc-build/orig/sdcc/src/pic14/gen.c:1507:pic14_toBoolean
                      05119 ;; BANKOPT2 BANKSEL dropped; r0x1023 present in same bank as r0x1023
0155   08??           05120         MOVF    r0x1023,W       ;id=5926,key=003,inCond:1,outCond:14,flow seq=03e,rIdx=r0x1052
0156   1903           05121         BTFSC   STATUS,2        ;id=2403,key=004,inCond:25,outCond:0,flow seq=03e
                      05122 ;<>Start of new flow, seq=0x3f ancestor = 0x3e
                      05123 ;  from: 03e ; to: 042 
                      05124 ;; >>> /home/sdcc-builder/build/sdcc-build/orig/sdcc/src/pic14/gen.c:6923:genIfx
                      05125 ;; ***  popGetLabel  key=4, label offset 12
0157   2???           05126         GOTO    _00116_DS_      ;id=2406,key=000,inCond:0,outCond:0,flow seq=03f
                      05127 ;<>Start of new flow, seq=0x40 ancestor = 0x3e
gpasm-1.5.2 #0 (Sep 16 2019) build/default/pr   9-16-2019  10:40:44         PAGE 98


LOC    OBJECT CODE    LINE  SOURCE TEXT
  VALUE

                      05128 ;  from: 03e ; to: 041 
                      05129 ;;; /home/sdcc-builder/build/sdcc-build/orig/sdcc/src/pic14/gen.c:2308:resultRemat *{*
                      05130 ;;; /home/sdcc-builder/build/sdcc-build/orig/sdcc/src/pic14/gen.c:2308:resultRemat *{*
                      05131 ;;; /home/sdcc-builder/build/sdcc-build/orig/sdcc/src/pic14/gen.c:2308:resultRemat *{*
                      05132 ;;; /home/sdcc-builder/build/sdcc-build/orig/sdcc/src/pic14/gen.c:2071:genCall *{*
                      05133 ;; ***  genCall  2073
                      05134 ;;; /home/sdcc-builder/build/sdcc-build/orig/sdcc/src/pic14/gen.c:1786:saveRegisters *{*
                      05135 ;; ***  saveRegisters  1788
                      05136 ;;      695 register type nRegs=4
                      05137 ;;      2120 left AOP_LIT
                      05138 ;;; /home/sdcc-builder/build/sdcc-build/orig/sdcc/src/pic14/gen.c:1328:mov2w_op *{*
                      05139 ;; >>> /home/sdcc-builder/build/sdcc-build/orig/sdcc/src/pic14/gen.c:1346:mov2w_op
                      05140 ;       .line   172; "../../../src/measure.c"   Cin = Cin / (1e+09);
0158   3028           05141         MOVLW   0x28    ;id=2419,key=000,inCond:400,outCond:10,flow seq=040
                      05142 ;;      2120 left AOP_LIT
                      05143 ;; >>> /home/sdcc-builder/build/sdcc-build/orig/sdcc/src/pic14/gen.c:2128:genCall
                      05144 ;; ***  popRegFromIdx,1030  , rIdx=0x79
                      05145 ;; BANKOPT1 BANKSEL dropped; STK06 present in all of r0x1023's banks
0159   00??           05146         MOVWF   STK06   ;id=2423,key=001,inCond:10,outCond:1,flow seq=040
                      05147 ;;; /home/sdcc-builder/build/sdcc-build/orig/sdcc/src/pic14/gen.c:1328:mov2w_op *{*
                      05148 ;; >>> /home/sdcc-builder/build/sdcc-build/orig/sdcc/src/pic14/gen.c:1346:mov2w_op
015A   306B           05149         MOVLW   0x6b    ;id=2426,key=002,inCond:400,outCond:10,flow seq=040
                      05150 ;;      2120 left AOP_LIT
                      05151 ;; >>> /home/sdcc-builder/build/sdcc-build/orig/sdcc/src/pic14/gen.c:2128:genCall
                      05152 ;; ***  popRegFromIdx,1030  , rIdx=0x7a
                      05153 ;; BANKOPT1 BANKSEL dropped; STK05 present in all of r0x1023's banks
015B   00??           05154         MOVWF   STK05   ;id=2430,key=003,inCond:10,outCond:1,flow seq=040
                      05155 ;;; /home/sdcc-builder/build/sdcc-build/orig/sdcc/src/pic14/gen.c:1328:mov2w_op *{*
                      05156 ;; >>> /home/sdcc-builder/build/sdcc-build/orig/sdcc/src/pic14/gen.c:1346:mov2w_op
015C   306E           05157         MOVLW   0x6e    ;id=2433,key=004,inCond:400,outCond:10,flow seq=040
                      05158 ;;      2120 left AOP_LIT
                      05159 ;; >>> /home/sdcc-builder/build/sdcc-build/orig/sdcc/src/pic14/gen.c:2128:genCall
                      05160 ;; ***  popRegFromIdx,1030  , rIdx=0x7b
                      05161 ;; BANKOPT1 BANKSEL dropped; STK04 present in all of r0x1023's banks
015D   00??           05162         MOVWF   STK04   ;id=2437,key=005,inCond:10,outCond:1,flow seq=040
                      05163 ;;; /home/sdcc-builder/build/sdcc-build/orig/sdcc/src/pic14/gen.c:1328:mov2w_op *{*
                      05164 ;; >>> /home/sdcc-builder/build/sdcc-build/orig/sdcc/src/pic14/gen.c:1346:mov2w_op
015E   304E           05165         MOVLW   0x4e    ;id=2440,key=006,inCond:400,outCond:10,flow seq=040
                      05166 ;;      695 register type nRegs=4
                      05167 ;;      2120 left AOP_REG
                      05168 ;; >>> /home/sdcc-builder/build/sdcc-build/orig/sdcc/src/pic14/gen.c:2128:genCall
                      05169 ;; ***  popRegFromIdx,1030  , rIdx=0x7c
                      05170 ;; BANKOPT1 BANKSEL dropped; STK03 present in all of r0x1023's banks
015F   00??           05171         MOVWF   STK03   ;id=2445,key=007,inCond:10,outCond:1,flow seq=040
                      05172 ;;; /home/sdcc-builder/build/sdcc-build/orig/sdcc/src/pic14/gen.c:1328:mov2w_op *{*
                      05173 ;; ***  mov2w  1366  offset=0
                      05174 ;; >>> /home/sdcc-builder/build/sdcc-build/orig/sdcc/src/pic14/gen.c:1371:mov2w
                      05175 ;;      1097 rIdx = r0x104E 
                      05176 ;; BANKOPT2 BANKSEL dropped; r0x101D present in same bank as r0x1023
0160   08??           05177         MOVF    r0x101D,W       ;id=2450,key=008,inCond:1,outCond:14,flow seq=040,rIdx=r0x104E
                      05178 ;;      2120 left AOP_REG
                      05179 ;; >>> /home/sdcc-builder/build/sdcc-build/orig/sdcc/src/pic14/gen.c:2128:genCall
                      05180 ;; ***  popRegFromIdx,1030  , rIdx=0x7d
gpasm-1.5.2 #0 (Sep 16 2019) build/default/pr   9-16-2019  10:40:44         PAGE 99


LOC    OBJECT CODE    LINE  SOURCE TEXT
  VALUE

                      05181 ;; BANKOPT1 BANKSEL dropped; STK02 present in all of r0x1023's banks
0161   00??           05182         MOVWF   STK02   ;id=2454,key=009,inCond:10,outCond:1,flow seq=040
                      05183 ;;; /home/sdcc-builder/build/sdcc-build/orig/sdcc/src/pic14/gen.c:1328:mov2w_op *{*
                      05184 ;; ***  mov2w  1366  offset=1
                      05185 ;; >>> /home/sdcc-builder/build/sdcc-build/orig/sdcc/src/pic14/gen.c:1371:mov2w
                      05186 ;;      1097 rIdx = r0x104F 
                      05187 ;; BANKOPT2 BANKSEL dropped; r0x101C present in same bank as r0x1023
0162   08??           05188         MOVF    r0x101C,W       ;id=2459,key=00a,inCond:1,outCond:14,flow seq=040,rIdx=r0x104F
                      05189 ;;      2120 left AOP_REG
                      05190 ;; >>> /home/sdcc-builder/build/sdcc-build/orig/sdcc/src/pic14/gen.c:2128:genCall
                      05191 ;; ***  popRegFromIdx,1030  , rIdx=0x7e
                      05192 ;; BANKOPT1 BANKSEL dropped; STK01 present in all of r0x1023's banks
0163   00??           05193         MOVWF   STK01   ;id=2463,key=00b,inCond:10,outCond:1,flow seq=040
                      05194 ;;; /home/sdcc-builder/build/sdcc-build/orig/sdcc/src/pic14/gen.c:1328:mov2w_op *{*
                      05195 ;; ***  mov2w  1366  offset=2
                      05196 ;; >>> /home/sdcc-builder/build/sdcc-build/orig/sdcc/src/pic14/gen.c:1371:mov2w
                      05197 ;;      1097 rIdx = r0x1050 
                      05198 ;; BANKOPT2 BANKSEL dropped; r0x101F present in same bank as r0x1023
0164   08??           05199         MOVF    r0x101F,W       ;id=2468,key=00c,inCond:1,outCond:14,flow seq=040,rIdx=r0x1050
                      05200 ;;      2120 left AOP_REG
                      05201 ;; >>> /home/sdcc-builder/build/sdcc-build/orig/sdcc/src/pic14/gen.c:2128:genCall
                      05202 ;; ***  popRegFromIdx,1030  , rIdx=0x7f
                      05203 ;; BANKOPT1 BANKSEL dropped; STK00 present in all of r0x1023's banks
0165   00??           05204         MOVWF   STK00   ;id=2472,key=00d,inCond:10,outCond:1,flow seq=040
                      05205 ;;; /home/sdcc-builder/build/sdcc-build/orig/sdcc/src/pic14/gen.c:1328:mov2w_op *{*
                      05206 ;; ***  mov2w  1366  offset=3
                      05207 ;; >>> /home/sdcc-builder/build/sdcc-build/orig/sdcc/src/pic14/gen.c:1371:mov2w
                      05208 ;;      1097 rIdx = r0x1051 
                      05209 ;; BANKOPT2 BANKSEL dropped; r0x101E present in same bank as r0x1023
0166   08??           05210         MOVF    r0x101E,W       ;id=2477,key=00e,inCond:1,outCond:14,flow seq=040,rIdx=r0x1051
                      05211 ;; >>> /home/sdcc-builder/build/sdcc-build/orig/sdcc/src/pic14/gen.c:2160:genCall
0167   0??? 0???      05212         PAGESEL ___fsdiv        ;id=2479,key=00f,inCond:0,outCond:0,flow seq=040
                      05213 ;; >>> /home/sdcc-builder/build/sdcc-build/orig/sdcc/src/pic14/gen.c:2165:genCall
                      05214 ;; BANKOPT3 drop assumptions: PCI with label or call found
0169   2???           05215         CALL    ___fsdiv        ;id=2481,key=010,inCond:10,outCond:1e,flow seq=040
                      05216 ;<>Start of new flow, seq=0x41 ancestor = 0x40
                      05217 ;  from: 040 ; to: 047 
                      05218 ;; >>> /home/sdcc-builder/build/sdcc-build/orig/sdcc/src/pic14/gen.c:2173:genCall
016A   0??? 0???      05219         PAGESEL $       ;id=2483,key=000,inCond:0,outCond:0,flow seq=041
                      05220 ;;      695 register type nRegs=4
                      05221 ;;; /home/sdcc-builder/build/sdcc-build/orig/sdcc/src/pic14/gen.c:1892:assignResultValue *{*
                      05222 ;; ***  assignResultValue  1894
                      05223 ;;      line = 1896 result -=-, size=0, left AOP_REG=r0x104E, size=4, right -=-, size=0
                      05224 ;; >>> /home/sdcc-builder/build/sdcc-build/orig/sdcc/src/pic14/gen.c:1378:movwf
                      05225 ;;      1097 rIdx = r0x1051 
016C   0??? 0???      05226         BANKSEL r0x101E ;id=6654,key=001,inCond:0,outCond:0,flow seq=041
016E   00??           05227         MOVWF   r0x101E ;id=2490,key=002,inCond:10,outCond:1,flow seq=041,rIdx=r0x1051
                      05228 ;; >>> /home/sdcc-builder/build/sdcc-build/orig/sdcc/src/pic14/gen.c:1408:get_returnvalue
                      05229 ;; ***  popRegFromIdx,1030  , rIdx=0x7f
                      05230 ;; BANKOPT1 BANKSEL dropped; STK00 present in all of r0x101E's banks
016F   08??           05231         MOVF    STK00,W ;id=2493,key=003,inCond:1,outCond:14,flow seq=041
                      05232 ;; >>> /home/sdcc-builder/build/sdcc-build/orig/sdcc/src/pic14/gen.c:1378:movwf
                      05233 ;;      1097 rIdx = r0x1050 
gpasm-1.5.2 #0 (Sep 16 2019) build/default/pr   9-16-2019  10:40:44         PAGE 100


LOC    OBJECT CODE    LINE  SOURCE TEXT
  VALUE

                      05234 ;; BANKOPT2 BANKSEL dropped; r0x101F present in same bank as r0x101E
0170   00??           05235         MOVWF   r0x101F ;id=2496,key=004,inCond:10,outCond:1,flow seq=041,rIdx=r0x1050
                      05236 ;; >>> /home/sdcc-builder/build/sdcc-build/orig/sdcc/src/pic14/gen.c:1408:get_returnvalue
                      05237 ;; ***  popRegFromIdx,1030  , rIdx=0x7e
                      05238 ;; BANKOPT1 BANKSEL dropped; STK01 present in all of r0x101E's banks
0171   08??           05239         MOVF    STK01,W ;id=2499,key=005,inCond:1,outCond:14,flow seq=041
                      05240 ;; >>> /home/sdcc-builder/build/sdcc-build/orig/sdcc/src/pic14/gen.c:1378:movwf
                      05241 ;;      1097 rIdx = r0x104F 
                      05242 ;; BANKOPT2 BANKSEL dropped; r0x101C present in same bank as r0x101E
0172   00??           05243         MOVWF   r0x101C ;id=2502,key=006,inCond:10,outCond:1,flow seq=041,rIdx=r0x104F
                      05244 ;; >>> /home/sdcc-builder/build/sdcc-build/orig/sdcc/src/pic14/gen.c:1408:get_returnvalue
                      05245 ;; ***  popRegFromIdx,1030  , rIdx=0x7d
                      05246 ;; BANKOPT1 BANKSEL dropped; STK02 present in all of r0x101E's banks
0173   08??           05247         MOVF    STK02,W ;id=2505,key=007,inCond:1,outCond:14,flow seq=041
                      05248 ;; >>> /home/sdcc-builder/build/sdcc-build/orig/sdcc/src/pic14/gen.c:1378:movwf
                      05249 ;;      1097 rIdx = r0x104E 
                      05250 ;; BANKOPT2 BANKSEL dropped; r0x101D present in same bank as r0x101E
0174   00??           05251         MOVWF   r0x101D ;id=2508,key=008,inCond:10,outCond:1,flow seq=041,rIdx=r0x104E
                      05252 ;;      2188 left AOP_REG
                      05253 ;;; /home/sdcc-builder/build/sdcc-build/orig/sdcc/src/pic14/gen.c:1830:unsaveRegisters *{*
                      05254 ;; ***  unsaveRegisters  1832
                      05255 ;;; /home/sdcc-builder/build/sdcc-build/orig/sdcc/src/pic14/gen.c:2308:resultRemat *{*
                      05256 ;;; /home/sdcc-builder/build/sdcc-build/orig/sdcc/src/pic14/gen.c:7036:genAssign *{*
                      05257 ;; ***  genAssign  7037
                      05258 ;;      695 register type nRegs=1
                      05259 ;;      line = 7046 result AOP_REG=r0x1052, size=1, left -=-, size=0, right AOP_LIT=0x04, size=1
                      05260 ;; ***  genAssign  7132
                      05261 ;; >>> /home/sdcc-builder/build/sdcc-build/orig/sdcc/src/pic14/gen.c:7139:genAssign
                      05262 ;       .line   173; "../../../src/measure.c"   unit = 4; //"mF"
0175   3004           05263         MOVLW   0x04    ;id=2520,key=009,inCond:400,outCond:10,flow seq=041
                      05264 ;; >>> /home/sdcc-builder/build/sdcc-build/orig/sdcc/src/pic14/gen.c:7141:genAssign
                      05265 ;;      1097 rIdx = r0x1052 
                      05266 ;; BANKOPT2 BANKSEL dropped; r0x1023 present in same bank as r0x101E
0176   00??           05267         MOVWF   r0x1023 ;id=2523,key=00a,inCond:10,outCond:1,flow seq=041,rIdx=r0x1052
                      05268 ;;; /home/sdcc-builder/build/sdcc-build/orig/sdcc/src/pic14/gen.c:2308:resultRemat *{*
                      05269 ;;; /home/sdcc-builder/build/sdcc-build/orig/sdcc/src/pic14/gen.c:2770:genGoto *{*
                      05270 ;; >>> /home/sdcc-builder/build/sdcc-build/orig/sdcc/src/pic14/gen.c:2772:genGoto
                      05271 ;; ***  popGetLabel  key=11, label offset 12
0177   2???           05272         GOTO    _00123_DS_      ;id=2528,key=00b,inCond:0,outCond:0,flow seq=041
                      05273 ;<>Start of new flow, seq=0x42 ancestor = 0x3f
                      05274 ;  from: 03f ; to: 043 
                      05275 ;goto   _00123_DS_
                      05276 ;;; /home/sdcc-builder/build/sdcc-build/orig/sdcc/src/pic14/gen.c:2308:resultRemat *{*
                      05277 ;;; /home/sdcc-builder/build/sdcc-build/orig/sdcc/src/pic14/gen.c:2752:genLabel *{*
                      05278 ;; ***  genLabel  2755
                      05279 ;_00116_DS_:
                      05280 ;;; /home/sdcc-builder/build/sdcc-build/orig/sdcc/src/pic14/gen.c:2308:resultRemat *{*
                      05281 ;;; /home/sdcc-builder/build/sdcc-build/orig/sdcc/src/pic14/gen.c:2308:resultRemat *{*
                      05282 ;;; /home/sdcc-builder/build/sdcc-build/orig/sdcc/src/pic14/gen.c:2308:resultRemat *{*
                      05283 ;;; /home/sdcc-builder/build/sdcc-build/orig/sdcc/src/pic14/gen.c:2071:genCall *{*
                      05284 ;; ***  genCall  2073
                      05285 ;;; /home/sdcc-builder/build/sdcc-build/orig/sdcc/src/pic14/gen.c:1786:saveRegisters *{*
                      05286 ;; ***  saveRegisters  1788
gpasm-1.5.2 #0 (Sep 16 2019) build/default/pr   9-16-2019  10:40:44         PAGE 101


LOC    OBJECT CODE    LINE  SOURCE TEXT
  VALUE

                      05287 ;;      695 register type nRegs=4
                      05288 ;;      2120 left AOP_LIT
                      05289 ;;; /home/sdcc-builder/build/sdcc-build/orig/sdcc/src/pic14/gen.c:1328:mov2w_op *{*
                      05290 ;; >>> /home/sdcc-builder/build/sdcc-build/orig/sdcc/src/pic14/gen.c:1346:mov2w_op
                      05291 ;; BANKOPT3 drop assumptions: PCI with label or call found
0178                  05292 _00116_DS_:
                      05293 ;       .line   175; "../../../src/measure.c"   Cin = Cin / (1e+06);
0178   3000           05294         MOVLW   0x00    ;id=2547,key=000,inCond:400,outCond:10,flow seq=042
                      05295 ;;      2120 left AOP_LIT
                      05296 ;; >>> /home/sdcc-builder/build/sdcc-build/orig/sdcc/src/pic14/gen.c:2128:genCall
                      05297 ;; ***  popRegFromIdx,1030  , rIdx=0x79
                      05298 ;; BANKOPT1 BANKSEL dropped; STK06 present in all of (null)'s banks
0179   00??           05299         MOVWF   STK06   ;id=2551,key=001,inCond:10,outCond:1,flow seq=042
                      05300 ;;; /home/sdcc-builder/build/sdcc-build/orig/sdcc/src/pic14/gen.c:1328:mov2w_op *{*
                      05301 ;; >>> /home/sdcc-builder/build/sdcc-build/orig/sdcc/src/pic14/gen.c:1346:mov2w_op
017A   3024           05302         MOVLW   0x24    ;id=2554,key=002,inCond:400,outCond:10,flow seq=042
                      05303 ;;      2120 left AOP_LIT
                      05304 ;; >>> /home/sdcc-builder/build/sdcc-build/orig/sdcc/src/pic14/gen.c:2128:genCall
                      05305 ;; ***  popRegFromIdx,1030  , rIdx=0x7a
                      05306 ;; BANKOPT1 BANKSEL dropped; STK05 present in all of (null)'s banks
017B   00??           05307         MOVWF   STK05   ;id=2558,key=003,inCond:10,outCond:1,flow seq=042
                      05308 ;;; /home/sdcc-builder/build/sdcc-build/orig/sdcc/src/pic14/gen.c:1328:mov2w_op *{*
                      05309 ;; >>> /home/sdcc-builder/build/sdcc-build/orig/sdcc/src/pic14/gen.c:1346:mov2w_op
017C   3074           05310         MOVLW   0x74    ;id=2561,key=004,inCond:400,outCond:10,flow seq=042
                      05311 ;;      2120 left AOP_LIT
                      05312 ;; >>> /home/sdcc-builder/build/sdcc-build/orig/sdcc/src/pic14/gen.c:2128:genCall
                      05313 ;; ***  popRegFromIdx,1030  , rIdx=0x7b
                      05314 ;; BANKOPT1 BANKSEL dropped; STK04 present in all of (null)'s banks
017D   00??           05315         MOVWF   STK04   ;id=2565,key=005,inCond:10,outCond:1,flow seq=042
                      05316 ;;; /home/sdcc-builder/build/sdcc-build/orig/sdcc/src/pic14/gen.c:1328:mov2w_op *{*
                      05317 ;; >>> /home/sdcc-builder/build/sdcc-build/orig/sdcc/src/pic14/gen.c:1346:mov2w_op
017E   3049           05318         MOVLW   0x49    ;id=2568,key=006,inCond:400,outCond:10,flow seq=042
                      05319 ;;      695 register type nRegs=4
                      05320 ;;      2120 left AOP_REG
                      05321 ;; >>> /home/sdcc-builder/build/sdcc-build/orig/sdcc/src/pic14/gen.c:2128:genCall
                      05322 ;; ***  popRegFromIdx,1030  , rIdx=0x7c
                      05323 ;; BANKOPT1 BANKSEL dropped; STK03 present in all of (null)'s banks
017F   00??           05324         MOVWF   STK03   ;id=2573,key=007,inCond:10,outCond:1,flow seq=042
                      05325 ;;; /home/sdcc-builder/build/sdcc-build/orig/sdcc/src/pic14/gen.c:1328:mov2w_op *{*
                      05326 ;; ***  mov2w  1366  offset=0
                      05327 ;; >>> /home/sdcc-builder/build/sdcc-build/orig/sdcc/src/pic14/gen.c:1371:mov2w
                      05328 ;;      1097 rIdx = r0x104E 
0180   0??? 0???      05329         BANKSEL r0x101D ;id=6667,key=008,inCond:0,outCond:0,flow seq=042
0182   08??           05330         MOVF    r0x101D,W       ;id=2578,key=009,inCond:1,outCond:14,flow seq=042,rIdx=r0x104E
                      05331 ;;      2120 left AOP_REG
                      05332 ;; >>> /home/sdcc-builder/build/sdcc-build/orig/sdcc/src/pic14/gen.c:2128:genCall
                      05333 ;; ***  popRegFromIdx,1030  , rIdx=0x7d
                      05334 ;; BANKOPT1 BANKSEL dropped; STK02 present in all of r0x101D's banks
0183   00??           05335         MOVWF   STK02   ;id=2582,key=00a,inCond:10,outCond:1,flow seq=042
                      05336 ;;; /home/sdcc-builder/build/sdcc-build/orig/sdcc/src/pic14/gen.c:1328:mov2w_op *{*
                      05337 ;; ***  mov2w  1366  offset=1
                      05338 ;; >>> /home/sdcc-builder/build/sdcc-build/orig/sdcc/src/pic14/gen.c:1371:mov2w
                      05339 ;;      1097 rIdx = r0x104F 
gpasm-1.5.2 #0 (Sep 16 2019) build/default/pr   9-16-2019  10:40:44         PAGE 102


LOC    OBJECT CODE    LINE  SOURCE TEXT
  VALUE

                      05340 ;; BANKOPT2 BANKSEL dropped; r0x101C present in same bank as r0x101D
0184   08??           05341         MOVF    r0x101C,W       ;id=2587,key=00b,inCond:1,outCond:14,flow seq=042,rIdx=r0x104F
                      05342 ;;      2120 left AOP_REG
                      05343 ;; >>> /home/sdcc-builder/build/sdcc-build/orig/sdcc/src/pic14/gen.c:2128:genCall
                      05344 ;; ***  popRegFromIdx,1030  , rIdx=0x7e
                      05345 ;; BANKOPT1 BANKSEL dropped; STK01 present in all of r0x101D's banks
0185   00??           05346         MOVWF   STK01   ;id=2591,key=00c,inCond:10,outCond:1,flow seq=042
                      05347 ;;; /home/sdcc-builder/build/sdcc-build/orig/sdcc/src/pic14/gen.c:1328:mov2w_op *{*
                      05348 ;; ***  mov2w  1366  offset=2
                      05349 ;; >>> /home/sdcc-builder/build/sdcc-build/orig/sdcc/src/pic14/gen.c:1371:mov2w
                      05350 ;;      1097 rIdx = r0x1050 
                      05351 ;; BANKOPT2 BANKSEL dropped; r0x101F present in same bank as r0x101D
0186   08??           05352         MOVF    r0x101F,W       ;id=2596,key=00d,inCond:1,outCond:14,flow seq=042,rIdx=r0x1050
                      05353 ;;      2120 left AOP_REG
                      05354 ;; >>> /home/sdcc-builder/build/sdcc-build/orig/sdcc/src/pic14/gen.c:2128:genCall
                      05355 ;; ***  popRegFromIdx,1030  , rIdx=0x7f
                      05356 ;; BANKOPT1 BANKSEL dropped; STK00 present in all of r0x101D's banks
0187   00??           05357         MOVWF   STK00   ;id=2600,key=00e,inCond:10,outCond:1,flow seq=042
                      05358 ;;; /home/sdcc-builder/build/sdcc-build/orig/sdcc/src/pic14/gen.c:1328:mov2w_op *{*
                      05359 ;; ***  mov2w  1366  offset=3
                      05360 ;; >>> /home/sdcc-builder/build/sdcc-build/orig/sdcc/src/pic14/gen.c:1371:mov2w
                      05361 ;;      1097 rIdx = r0x1051 
                      05362 ;; BANKOPT2 BANKSEL dropped; r0x101E present in same bank as r0x101D
0188   08??           05363         MOVF    r0x101E,W       ;id=2605,key=00f,inCond:1,outCond:14,flow seq=042,rIdx=r0x1051
                      05364 ;; >>> /home/sdcc-builder/build/sdcc-build/orig/sdcc/src/pic14/gen.c:2160:genCall
0189   0??? 0???      05365         PAGESEL ___fsdiv        ;id=2607,key=010,inCond:0,outCond:0,flow seq=042
                      05366 ;; >>> /home/sdcc-builder/build/sdcc-build/orig/sdcc/src/pic14/gen.c:2165:genCall
                      05367 ;; BANKOPT3 drop assumptions: PCI with label or call found
018B   2???           05368         CALL    ___fsdiv        ;id=2609,key=011,inCond:10,outCond:1e,flow seq=042
                      05369 ;<>Start of new flow, seq=0x43 ancestor = 0x42
                      05370 ;  from: 042 ; to: 047 
                      05371 ;; >>> /home/sdcc-builder/build/sdcc-build/orig/sdcc/src/pic14/gen.c:2173:genCall
018C   0??? 0???      05372         PAGESEL $       ;id=2611,key=000,inCond:0,outCond:0,flow seq=043
                      05373 ;;      695 register type nRegs=4
                      05374 ;;; /home/sdcc-builder/build/sdcc-build/orig/sdcc/src/pic14/gen.c:1892:assignResultValue *{*
                      05375 ;; ***  assignResultValue  1894
                      05376 ;;      line = 1896 result -=-, size=0, left AOP_REG=r0x104E, size=4, right -=-, size=0
                      05377 ;; >>> /home/sdcc-builder/build/sdcc-build/orig/sdcc/src/pic14/gen.c:1378:movwf
                      05378 ;;      1097 rIdx = r0x1051 
018E   0??? 0???      05379         BANKSEL r0x101E ;id=6675,key=001,inCond:0,outCond:0,flow seq=043
0190   00??           05380         MOVWF   r0x101E ;id=2618,key=002,inCond:10,outCond:1,flow seq=043,rIdx=r0x1051
                      05381 ;; >>> /home/sdcc-builder/build/sdcc-build/orig/sdcc/src/pic14/gen.c:1408:get_returnvalue
                      05382 ;; ***  popRegFromIdx,1030  , rIdx=0x7f
                      05383 ;; BANKOPT1 BANKSEL dropped; STK00 present in all of r0x101E's banks
0191   08??           05384         MOVF    STK00,W ;id=2621,key=003,inCond:1,outCond:14,flow seq=043
                      05385 ;; >>> /home/sdcc-builder/build/sdcc-build/orig/sdcc/src/pic14/gen.c:1378:movwf
                      05386 ;;      1097 rIdx = r0x1050 
                      05387 ;; BANKOPT2 BANKSEL dropped; r0x101F present in same bank as r0x101E
0192   00??           05388         MOVWF   r0x101F ;id=2624,key=004,inCond:10,outCond:1,flow seq=043,rIdx=r0x1050
                      05389 ;; >>> /home/sdcc-builder/build/sdcc-build/orig/sdcc/src/pic14/gen.c:1408:get_returnvalue
                      05390 ;; ***  popRegFromIdx,1030  , rIdx=0x7e
                      05391 ;; BANKOPT1 BANKSEL dropped; STK01 present in all of r0x101E's banks
0193   08??           05392         MOVF    STK01,W ;id=2627,key=005,inCond:1,outCond:14,flow seq=043
gpasm-1.5.2 #0 (Sep 16 2019) build/default/pr   9-16-2019  10:40:44         PAGE 103


LOC    OBJECT CODE    LINE  SOURCE TEXT
  VALUE

                      05393 ;; >>> /home/sdcc-builder/build/sdcc-build/orig/sdcc/src/pic14/gen.c:1378:movwf
                      05394 ;;      1097 rIdx = r0x104F 
                      05395 ;; BANKOPT2 BANKSEL dropped; r0x101C present in same bank as r0x101E
0194   00??           05396         MOVWF   r0x101C ;id=2630,key=006,inCond:10,outCond:1,flow seq=043,rIdx=r0x104F
                      05397 ;; >>> /home/sdcc-builder/build/sdcc-build/orig/sdcc/src/pic14/gen.c:1408:get_returnvalue
                      05398 ;; ***  popRegFromIdx,1030  , rIdx=0x7d
                      05399 ;; BANKOPT1 BANKSEL dropped; STK02 present in all of r0x101E's banks
0195   08??           05400         MOVF    STK02,W ;id=2633,key=007,inCond:1,outCond:14,flow seq=043
                      05401 ;; >>> /home/sdcc-builder/build/sdcc-build/orig/sdcc/src/pic14/gen.c:1378:movwf
                      05402 ;;      1097 rIdx = r0x104E 
                      05403 ;; BANKOPT2 BANKSEL dropped; r0x101D present in same bank as r0x101E
0196   00??           05404         MOVWF   r0x101D ;id=2636,key=008,inCond:10,outCond:1,flow seq=043,rIdx=r0x104E
                      05405 ;;      2188 left AOP_REG
                      05406 ;;; /home/sdcc-builder/build/sdcc-build/orig/sdcc/src/pic14/gen.c:1830:unsaveRegisters *{*
                      05407 ;; ***  unsaveRegisters  1832
                      05408 ;;; /home/sdcc-builder/build/sdcc-build/orig/sdcc/src/pic14/gen.c:2308:resultRemat *{*
                      05409 ;;; /home/sdcc-builder/build/sdcc-build/orig/sdcc/src/pic14/gen.c:7036:genAssign *{*
                      05410 ;; ***  genAssign  7037
                      05411 ;;      695 register type nRegs=1
                      05412 ;;      line = 7046 result AOP_REG=r0x1052, size=1, left -=-, size=0, right AOP_LIT=0x05, size=1
                      05413 ;; ***  genAssign  7132
                      05414 ;; >>> /home/sdcc-builder/build/sdcc-build/orig/sdcc/src/pic14/gen.c:7139:genAssign
                      05415 ;       .line   176; "../../../src/measure.c"   unit = 5; //"uF"
0197   3005           05416         MOVLW   0x05    ;id=2648,key=009,inCond:400,outCond:10,flow seq=043
                      05417 ;; >>> /home/sdcc-builder/build/sdcc-build/orig/sdcc/src/pic14/gen.c:7141:genAssign
                      05418 ;;      1097 rIdx = r0x1052 
                      05419 ;; BANKOPT2 BANKSEL dropped; r0x1023 present in same bank as r0x101E
0198   00??           05420         MOVWF   r0x1023 ;id=2651,key=00a,inCond:10,outCond:1,flow seq=043,rIdx=r0x1052
                      05421 ;;; /home/sdcc-builder/build/sdcc-build/orig/sdcc/src/pic14/gen.c:2308:resultRemat *{*
                      05422 ;;; /home/sdcc-builder/build/sdcc-build/orig/sdcc/src/pic14/gen.c:2770:genGoto *{*
                      05423 ;; >>> /home/sdcc-builder/build/sdcc-build/orig/sdcc/src/pic14/gen.c:2772:genGoto
                      05424 ;; ***  popGetLabel  key=11, label offset 12
0199   2???           05425         GOTO    _00123_DS_      ;id=2656,key=00b,inCond:0,outCond:0,flow seq=043
                      05426 ;<>Start of new flow, seq=0x44 ancestor = 0x3c
                      05427 ;  from: 03c ; to: 045 
                      05428 ;goto   _00123_DS_
                      05429 ;;; /home/sdcc-builder/build/sdcc-build/orig/sdcc/src/pic14/gen.c:2308:resultRemat *{*
                      05430 ;;; /home/sdcc-builder/build/sdcc-build/orig/sdcc/src/pic14/gen.c:2752:genLabel *{*
                      05431 ;; ***  genLabel  2755
                      05432 ;_00119_DS_:
                      05433 ;;; /home/sdcc-builder/build/sdcc-build/orig/sdcc/src/pic14/gen.c:2308:resultRemat *{*
                      05434 ;;; /home/sdcc-builder/build/sdcc-build/orig/sdcc/src/pic14/gen.c:2308:resultRemat *{*
                      05435 ;;; /home/sdcc-builder/build/sdcc-build/orig/sdcc/src/pic14/gen.c:2308:resultRemat *{*
                      05436 ;;; /home/sdcc-builder/build/sdcc-build/orig/sdcc/src/pic14/gen.c:2071:genCall *{*
                      05437 ;; ***  genCall  2073
                      05438 ;;; /home/sdcc-builder/build/sdcc-build/orig/sdcc/src/pic14/gen.c:1786:saveRegisters *{*
                      05439 ;; ***  saveRegisters  1788
                      05440 ;;      695 register type nRegs=4
                      05441 ;;      2120 left AOP_LIT
                      05442 ;;; /home/sdcc-builder/build/sdcc-build/orig/sdcc/src/pic14/gen.c:1328:mov2w_op *{*
                      05443 ;; >>> /home/sdcc-builder/build/sdcc-build/orig/sdcc/src/pic14/gen.c:1346:mov2w_op
                      05444 ;; BANKOPT3 drop assumptions: PCI with label or call found
019A                  05445 _00119_DS_:
gpasm-1.5.2 #0 (Sep 16 2019) build/default/pr   9-16-2019  10:40:44         PAGE 104


LOC    OBJECT CODE    LINE  SOURCE TEXT
  VALUE

                      05446 ;       .line   179; "../../../src/measure.c"   Cin = Cin / 1e+03;
019A   3000           05447         MOVLW   0x00    ;id=2675,key=000,inCond:400,outCond:10,flow seq=044
                      05448 ;;      2120 left AOP_LIT
                      05449 ;; >>> /home/sdcc-builder/build/sdcc-build/orig/sdcc/src/pic14/gen.c:2128:genCall
                      05450 ;; ***  popRegFromIdx,1030  , rIdx=0x79
                      05451 ;; BANKOPT1 BANKSEL dropped; STK06 present in all of (null)'s banks
019B   00??           05452         MOVWF   STK06   ;id=2679,key=001,inCond:10,outCond:1,flow seq=044
                      05453 ;;; /home/sdcc-builder/build/sdcc-build/orig/sdcc/src/pic14/gen.c:1328:mov2w_op *{*
                      05454 ;; >>> /home/sdcc-builder/build/sdcc-build/orig/sdcc/src/pic14/gen.c:1346:mov2w_op
019C   3000           05455         MOVLW   0x00    ;id=2682,key=002,inCond:400,outCond:10,flow seq=044
                      05456 ;;      2120 left AOP_LIT
                      05457 ;; >>> /home/sdcc-builder/build/sdcc-build/orig/sdcc/src/pic14/gen.c:2128:genCall
                      05458 ;; ***  popRegFromIdx,1030  , rIdx=0x7a
                      05459 ;; BANKOPT1 BANKSEL dropped; STK05 present in all of (null)'s banks
019D   00??           05460         MOVWF   STK05   ;id=2686,key=003,inCond:10,outCond:1,flow seq=044
                      05461 ;;; /home/sdcc-builder/build/sdcc-build/orig/sdcc/src/pic14/gen.c:1328:mov2w_op *{*
                      05462 ;; >>> /home/sdcc-builder/build/sdcc-build/orig/sdcc/src/pic14/gen.c:1346:mov2w_op
019E   307A           05463         MOVLW   0x7a    ;id=2689,key=004,inCond:400,outCond:10,flow seq=044
                      05464 ;;      2120 left AOP_LIT
                      05465 ;; >>> /home/sdcc-builder/build/sdcc-build/orig/sdcc/src/pic14/gen.c:2128:genCall
                      05466 ;; ***  popRegFromIdx,1030  , rIdx=0x7b
                      05467 ;; BANKOPT1 BANKSEL dropped; STK04 present in all of (null)'s banks
019F   00??           05468         MOVWF   STK04   ;id=2693,key=005,inCond:10,outCond:1,flow seq=044
                      05469 ;;; /home/sdcc-builder/build/sdcc-build/orig/sdcc/src/pic14/gen.c:1328:mov2w_op *{*
                      05470 ;; >>> /home/sdcc-builder/build/sdcc-build/orig/sdcc/src/pic14/gen.c:1346:mov2w_op
01A0   3044           05471         MOVLW   0x44    ;id=2696,key=006,inCond:400,outCond:10,flow seq=044
                      05472 ;;      695 register type nRegs=4
                      05473 ;;      2120 left AOP_REG
                      05474 ;; >>> /home/sdcc-builder/build/sdcc-build/orig/sdcc/src/pic14/gen.c:2128:genCall
                      05475 ;; ***  popRegFromIdx,1030  , rIdx=0x7c
                      05476 ;; BANKOPT1 BANKSEL dropped; STK03 present in all of (null)'s banks
01A1   00??           05477         MOVWF   STK03   ;id=2701,key=007,inCond:10,outCond:1,flow seq=044
                      05478 ;;; /home/sdcc-builder/build/sdcc-build/orig/sdcc/src/pic14/gen.c:1328:mov2w_op *{*
                      05479 ;; ***  mov2w  1366  offset=0
                      05480 ;; >>> /home/sdcc-builder/build/sdcc-build/orig/sdcc/src/pic14/gen.c:1371:mov2w
                      05481 ;;      1097 rIdx = r0x104E 
01A2   0??? 0???      05482         BANKSEL r0x101D ;id=6688,key=008,inCond:0,outCond:0,flow seq=044
01A4   08??           05483         MOVF    r0x101D,W       ;id=2706,key=009,inCond:1,outCond:14,flow seq=044,rIdx=r0x104E
                      05484 ;;      2120 left AOP_REG
                      05485 ;; >>> /home/sdcc-builder/build/sdcc-build/orig/sdcc/src/pic14/gen.c:2128:genCall
                      05486 ;; ***  popRegFromIdx,1030  , rIdx=0x7d
                      05487 ;; BANKOPT1 BANKSEL dropped; STK02 present in all of r0x101D's banks
01A5   00??           05488         MOVWF   STK02   ;id=2710,key=00a,inCond:10,outCond:1,flow seq=044
                      05489 ;;; /home/sdcc-builder/build/sdcc-build/orig/sdcc/src/pic14/gen.c:1328:mov2w_op *{*
                      05490 ;; ***  mov2w  1366  offset=1
                      05491 ;; >>> /home/sdcc-builder/build/sdcc-build/orig/sdcc/src/pic14/gen.c:1371:mov2w
                      05492 ;;      1097 rIdx = r0x104F 
                      05493 ;; BANKOPT2 BANKSEL dropped; r0x101C present in same bank as r0x101D
01A6   08??           05494         MOVF    r0x101C,W       ;id=2715,key=00b,inCond:1,outCond:14,flow seq=044,rIdx=r0x104F
                      05495 ;;      2120 left AOP_REG
                      05496 ;; >>> /home/sdcc-builder/build/sdcc-build/orig/sdcc/src/pic14/gen.c:2128:genCall
                      05497 ;; ***  popRegFromIdx,1030  , rIdx=0x7e
                      05498 ;; BANKOPT1 BANKSEL dropped; STK01 present in all of r0x101D's banks
gpasm-1.5.2 #0 (Sep 16 2019) build/default/pr   9-16-2019  10:40:44         PAGE 105


LOC    OBJECT CODE    LINE  SOURCE TEXT
  VALUE

01A7   00??           05499         MOVWF   STK01   ;id=2719,key=00c,inCond:10,outCond:1,flow seq=044
                      05500 ;;; /home/sdcc-builder/build/sdcc-build/orig/sdcc/src/pic14/gen.c:1328:mov2w_op *{*
                      05501 ;; ***  mov2w  1366  offset=2
                      05502 ;; >>> /home/sdcc-builder/build/sdcc-build/orig/sdcc/src/pic14/gen.c:1371:mov2w
                      05503 ;;      1097 rIdx = r0x1050 
                      05504 ;; BANKOPT2 BANKSEL dropped; r0x101F present in same bank as r0x101D
01A8   08??           05505         MOVF    r0x101F,W       ;id=2724,key=00d,inCond:1,outCond:14,flow seq=044,rIdx=r0x1050
                      05506 ;;      2120 left AOP_REG
                      05507 ;; >>> /home/sdcc-builder/build/sdcc-build/orig/sdcc/src/pic14/gen.c:2128:genCall
                      05508 ;; ***  popRegFromIdx,1030  , rIdx=0x7f
                      05509 ;; BANKOPT1 BANKSEL dropped; STK00 present in all of r0x101D's banks
01A9   00??           05510         MOVWF   STK00   ;id=2728,key=00e,inCond:10,outCond:1,flow seq=044
                      05511 ;;; /home/sdcc-builder/build/sdcc-build/orig/sdcc/src/pic14/gen.c:1328:mov2w_op *{*
                      05512 ;; ***  mov2w  1366  offset=3
                      05513 ;; >>> /home/sdcc-builder/build/sdcc-build/orig/sdcc/src/pic14/gen.c:1371:mov2w
                      05514 ;;      1097 rIdx = r0x1051 
                      05515 ;; BANKOPT2 BANKSEL dropped; r0x101E present in same bank as r0x101D
01AA   08??           05516         MOVF    r0x101E,W       ;id=2733,key=00f,inCond:1,outCond:14,flow seq=044,rIdx=r0x1051
                      05517 ;; >>> /home/sdcc-builder/build/sdcc-build/orig/sdcc/src/pic14/gen.c:2160:genCall
01AB   0??? 0???      05518         PAGESEL ___fsdiv        ;id=2735,key=010,inCond:0,outCond:0,flow seq=044
                      05519 ;; >>> /home/sdcc-builder/build/sdcc-build/orig/sdcc/src/pic14/gen.c:2165:genCall
                      05520 ;; BANKOPT3 drop assumptions: PCI with label or call found
01AD   2???           05521         CALL    ___fsdiv        ;id=2737,key=011,inCond:10,outCond:1e,flow seq=044
                      05522 ;<>Start of new flow, seq=0x45 ancestor = 0x44
                      05523 ;  from: 044 ; to: 047 
                      05524 ;; >>> /home/sdcc-builder/build/sdcc-build/orig/sdcc/src/pic14/gen.c:2173:genCall
01AE   0??? 0???      05525         PAGESEL $       ;id=2739,key=000,inCond:0,outCond:0,flow seq=045
                      05526 ;;      695 register type nRegs=4
                      05527 ;;; /home/sdcc-builder/build/sdcc-build/orig/sdcc/src/pic14/gen.c:1892:assignResultValue *{*
                      05528 ;; ***  assignResultValue  1894
                      05529 ;;      line = 1896 result -=-, size=0, left AOP_REG=r0x104E, size=4, right -=-, size=0
                      05530 ;; >>> /home/sdcc-builder/build/sdcc-build/orig/sdcc/src/pic14/gen.c:1378:movwf
                      05531 ;;      1097 rIdx = r0x1051 
01B0   0??? 0???      05532         BANKSEL r0x101E ;id=6696,key=001,inCond:0,outCond:0,flow seq=045
01B2   00??           05533         MOVWF   r0x101E ;id=2746,key=002,inCond:10,outCond:1,flow seq=045,rIdx=r0x1051
                      05534 ;; >>> /home/sdcc-builder/build/sdcc-build/orig/sdcc/src/pic14/gen.c:1408:get_returnvalue
                      05535 ;; ***  popRegFromIdx,1030  , rIdx=0x7f
                      05536 ;; BANKOPT1 BANKSEL dropped; STK00 present in all of r0x101E's banks
01B3   08??           05537         MOVF    STK00,W ;id=2749,key=003,inCond:1,outCond:14,flow seq=045
                      05538 ;; >>> /home/sdcc-builder/build/sdcc-build/orig/sdcc/src/pic14/gen.c:1378:movwf
                      05539 ;;      1097 rIdx = r0x1050 
                      05540 ;; BANKOPT2 BANKSEL dropped; r0x101F present in same bank as r0x101E
01B4   00??           05541         MOVWF   r0x101F ;id=2752,key=004,inCond:10,outCond:1,flow seq=045,rIdx=r0x1050
                      05542 ;; >>> /home/sdcc-builder/build/sdcc-build/orig/sdcc/src/pic14/gen.c:1408:get_returnvalue
                      05543 ;; ***  popRegFromIdx,1030  , rIdx=0x7e
                      05544 ;; BANKOPT1 BANKSEL dropped; STK01 present in all of r0x101E's banks
01B5   08??           05545         MOVF    STK01,W ;id=2755,key=005,inCond:1,outCond:14,flow seq=045
                      05546 ;; >>> /home/sdcc-builder/build/sdcc-build/orig/sdcc/src/pic14/gen.c:1378:movwf
                      05547 ;;      1097 rIdx = r0x104F 
                      05548 ;; BANKOPT2 BANKSEL dropped; r0x101C present in same bank as r0x101E
01B6   00??           05549         MOVWF   r0x101C ;id=2758,key=006,inCond:10,outCond:1,flow seq=045,rIdx=r0x104F
                      05550 ;; >>> /home/sdcc-builder/build/sdcc-build/orig/sdcc/src/pic14/gen.c:1408:get_returnvalue
                      05551 ;; ***  popRegFromIdx,1030  , rIdx=0x7d
gpasm-1.5.2 #0 (Sep 16 2019) build/default/pr   9-16-2019  10:40:44         PAGE 106


LOC    OBJECT CODE    LINE  SOURCE TEXT
  VALUE

                      05552 ;; BANKOPT1 BANKSEL dropped; STK02 present in all of r0x101E's banks
01B7   08??           05553         MOVF    STK02,W ;id=2761,key=007,inCond:1,outCond:14,flow seq=045
                      05554 ;; >>> /home/sdcc-builder/build/sdcc-build/orig/sdcc/src/pic14/gen.c:1378:movwf
                      05555 ;;      1097 rIdx = r0x104E 
                      05556 ;; BANKOPT2 BANKSEL dropped; r0x101D present in same bank as r0x101E
01B8   00??           05557         MOVWF   r0x101D ;id=2764,key=008,inCond:10,outCond:1,flow seq=045,rIdx=r0x104E
                      05558 ;;      2188 left AOP_REG
                      05559 ;;; /home/sdcc-builder/build/sdcc-build/orig/sdcc/src/pic14/gen.c:1830:unsaveRegisters *{*
                      05560 ;; ***  unsaveRegisters  1832
                      05561 ;;; /home/sdcc-builder/build/sdcc-build/orig/sdcc/src/pic14/gen.c:2308:resultRemat *{*
                      05562 ;;; /home/sdcc-builder/build/sdcc-build/orig/sdcc/src/pic14/gen.c:7036:genAssign *{*
                      05563 ;; ***  genAssign  7037
                      05564 ;;      695 register type nRegs=1
                      05565 ;;      line = 7046 result AOP_REG=r0x1052, size=1, left -=-, size=0, right AOP_LIT=0x06, size=1
                      05566 ;; ***  genAssign  7132
                      05567 ;; >>> /home/sdcc-builder/build/sdcc-build/orig/sdcc/src/pic14/gen.c:7139:genAssign
                      05568 ;       .line   180; "../../../src/measure.c"   unit = 6; //"nF"
01B9   3006           05569         MOVLW   0x06    ;id=2776,key=009,inCond:400,outCond:10,flow seq=045
                      05570 ;; >>> /home/sdcc-builder/build/sdcc-build/orig/sdcc/src/pic14/gen.c:7141:genAssign
                      05571 ;;      1097 rIdx = r0x1052 
                      05572 ;; BANKOPT2 BANKSEL dropped; r0x1023 present in same bank as r0x101E
01BA   00??           05573         MOVWF   r0x1023 ;id=2779,key=00a,inCond:10,outCond:1,flow seq=045,rIdx=r0x1052
                      05574 ;;; /home/sdcc-builder/build/sdcc-build/orig/sdcc/src/pic14/gen.c:2308:resultRemat *{*
                      05575 ;;; /home/sdcc-builder/build/sdcc-build/orig/sdcc/src/pic14/gen.c:2770:genGoto *{*
                      05576 ;; >>> /home/sdcc-builder/build/sdcc-build/orig/sdcc/src/pic14/gen.c:2772:genGoto
                      05577 ;; ***  popGetLabel  key=11, label offset 12
01BB   2???           05578         GOTO    _00123_DS_      ;id=2784,key=00b,inCond:0,outCond:0,flow seq=045
                      05579 ;<>Start of new flow, seq=0x46 ancestor = 0x39
                      05580 ;  from: 039 ; to: 047 
                      05581 ;goto   _00123_DS_
                      05582 ;;; /home/sdcc-builder/build/sdcc-build/orig/sdcc/src/pic14/gen.c:2308:resultRemat *{*
                      05583 ;;; /home/sdcc-builder/build/sdcc-build/orig/sdcc/src/pic14/gen.c:2752:genLabel *{*
                      05584 ;; ***  genLabel  2755
                      05585 ;_00122_DS_:
                      05586 ;;; /home/sdcc-builder/build/sdcc-build/orig/sdcc/src/pic14/gen.c:2308:resultRemat *{*
                      05587 ;;; /home/sdcc-builder/build/sdcc-build/orig/sdcc/src/pic14/gen.c:7036:genAssign *{*
                      05588 ;; ***  genAssign  7037
                      05589 ;;      695 register type nRegs=1
                      05590 ;;      line = 7046 result AOP_REG=r0x1052, size=1, left -=-, size=0, right AOP_LIT=0x07, size=1
                      05591 ;; ***  genAssign  7132
                      05592 ;; >>> /home/sdcc-builder/build/sdcc-build/orig/sdcc/src/pic14/gen.c:7139:genAssign
                      05593 ;; BANKOPT3 drop assumptions: PCI with label or call found
01BC                  05594 _00122_DS_:
                      05595 ;       .line   183; "../../../src/measure.c"   unit = 7; //"pF"
01BC   3007           05596         MOVLW   0x07    ;id=2799,key=000,inCond:400,outCond:10,flow seq=046
                      05597 ;; >>> /home/sdcc-builder/build/sdcc-build/orig/sdcc/src/pic14/gen.c:7141:genAssign
                      05598 ;;      1097 rIdx = r0x1052 
01BD   0??? 0???      05599         BANKSEL r0x1023 ;id=6705,key=001,inCond:0,outCond:0,flow seq=046
01BF   00??           05600         MOVWF   r0x1023 ;id=2802,key=002,inCond:10,outCond:1,flow seq=046,rIdx=r0x1052
                      05601 ;<>Start of new flow, seq=0x47 ancestor = 0x41
                      05602 ;  from: 046 045 043 041 ; to: 048 
                      05603 ;;; /home/sdcc-builder/build/sdcc-build/orig/sdcc/src/pic14/gen.c:2308:resultRemat *{*
                      05604 ;;; /home/sdcc-builder/build/sdcc-build/orig/sdcc/src/pic14/gen.c:2752:genLabel *{*
gpasm-1.5.2 #0 (Sep 16 2019) build/default/pr   9-16-2019  10:40:44         PAGE 107


LOC    OBJECT CODE    LINE  SOURCE TEXT
  VALUE

                      05605 ;; ***  genLabel  2755
                      05606 ;_00123_DS_:
                      05607 ;;; /home/sdcc-builder/build/sdcc-build/orig/sdcc/src/pic14/gen.c:2308:resultRemat *{*
                      05608 ;;; /home/sdcc-builder/build/sdcc-build/orig/sdcc/src/pic14/gen.c:2308:resultRemat *{*
                      05609 ;;; /home/sdcc-builder/build/sdcc-build/orig/sdcc/src/pic14/gen.c:2308:resultRemat *{*
                      05610 ;;; /home/sdcc-builder/build/sdcc-build/orig/sdcc/src/pic14/gen.c:2071:genCall *{*
                      05611 ;; ***  genCall  2073
                      05612 ;;; /home/sdcc-builder/build/sdcc-build/orig/sdcc/src/pic14/gen.c:1786:saveRegisters *{*
                      05613 ;; ***  saveRegisters  1788
                      05614 ;;      695 register type nRegs=4
                      05615 ;;      695 register type nRegs=4
                      05616 ;;      2120 left AOP_REG
                      05617 ;;; /home/sdcc-builder/build/sdcc-build/orig/sdcc/src/pic14/gen.c:1328:mov2w_op *{*
                      05618 ;; ***  mov2w  1366  offset=0
                      05619 ;; >>> /home/sdcc-builder/build/sdcc-build/orig/sdcc/src/pic14/gen.c:1371:mov2w
                      05620 ;;      1097 rIdx = r0x104E 
                      05621 ;; BANKOPT3 drop assumptions: PCI with label or call found
01C0                  05622 _00123_DS_:
                      05623 ;       .line   185; "../../../src/measure.c"   Cin = Cin * 100; // scale to 2 decimal place
01C0   0??? 0???      05624         BANKSEL r0x101D ;id=6707,key=000,inCond:0,outCond:0,flow seq=047
01C2   08??           05625         MOVF    r0x101D,W       ;id=2823,key=001,inCond:1,outCond:14,flow seq=047,rIdx=r0x104E
                      05626 ;;      2120 left AOP_REG
                      05627 ;; >>> /home/sdcc-builder/build/sdcc-build/orig/sdcc/src/pic14/gen.c:2128:genCall
                      05628 ;; ***  popRegFromIdx,1030  , rIdx=0x79
                      05629 ;; BANKOPT1 BANKSEL dropped; STK06 present in all of r0x101D's banks
01C3   00??           05630         MOVWF   STK06   ;id=2827,key=002,inCond:10,outCond:1,flow seq=047
                      05631 ;;; /home/sdcc-builder/build/sdcc-build/orig/sdcc/src/pic14/gen.c:1328:mov2w_op *{*
                      05632 ;; ***  mov2w  1366  offset=1
                      05633 ;; >>> /home/sdcc-builder/build/sdcc-build/orig/sdcc/src/pic14/gen.c:1371:mov2w
                      05634 ;;      1097 rIdx = r0x104F 
                      05635 ;; BANKOPT2 BANKSEL dropped; r0x101C present in same bank as r0x101D
01C4   08??           05636         MOVF    r0x101C,W       ;id=2832,key=003,inCond:1,outCond:14,flow seq=047,rIdx=r0x104F
                      05637 ;;      2120 left AOP_REG
                      05638 ;; >>> /home/sdcc-builder/build/sdcc-build/orig/sdcc/src/pic14/gen.c:2128:genCall
                      05639 ;; ***  popRegFromIdx,1030  , rIdx=0x7a
                      05640 ;; BANKOPT1 BANKSEL dropped; STK05 present in all of r0x101D's banks
01C5   00??           05641         MOVWF   STK05   ;id=2836,key=004,inCond:10,outCond:1,flow seq=047
                      05642 ;;; /home/sdcc-builder/build/sdcc-build/orig/sdcc/src/pic14/gen.c:1328:mov2w_op *{*
                      05643 ;; ***  mov2w  1366  offset=2
                      05644 ;; >>> /home/sdcc-builder/build/sdcc-build/orig/sdcc/src/pic14/gen.c:1371:mov2w
                      05645 ;;      1097 rIdx = r0x1050 
                      05646 ;; BANKOPT2 BANKSEL dropped; r0x101F present in same bank as r0x101D
01C6   08??           05647         MOVF    r0x101F,W       ;id=2841,key=005,inCond:1,outCond:14,flow seq=047,rIdx=r0x1050
                      05648 ;;      2120 left AOP_REG
                      05649 ;; >>> /home/sdcc-builder/build/sdcc-build/orig/sdcc/src/pic14/gen.c:2128:genCall
                      05650 ;; ***  popRegFromIdx,1030  , rIdx=0x7b
                      05651 ;; BANKOPT1 BANKSEL dropped; STK04 present in all of r0x101D's banks
01C7   00??           05652         MOVWF   STK04   ;id=2845,key=006,inCond:10,outCond:1,flow seq=047
                      05653 ;;; /home/sdcc-builder/build/sdcc-build/orig/sdcc/src/pic14/gen.c:1328:mov2w_op *{*
                      05654 ;; ***  mov2w  1366  offset=3
                      05655 ;; >>> /home/sdcc-builder/build/sdcc-build/orig/sdcc/src/pic14/gen.c:1371:mov2w
                      05656 ;;      1097 rIdx = r0x1051 
                      05657 ;; BANKOPT2 BANKSEL dropped; r0x101E present in same bank as r0x101D
gpasm-1.5.2 #0 (Sep 16 2019) build/default/pr   9-16-2019  10:40:44         PAGE 108


LOC    OBJECT CODE    LINE  SOURCE TEXT
  VALUE

01C8   08??           05658         MOVF    r0x101E,W       ;id=2850,key=007,inCond:1,outCond:14,flow seq=047,rIdx=r0x1051
                      05659 ;;      2120 left AOP_LIT
                      05660 ;; >>> /home/sdcc-builder/build/sdcc-build/orig/sdcc/src/pic14/gen.c:2128:genCall
                      05661 ;; ***  popRegFromIdx,1030  , rIdx=0x7c
                      05662 ;; BANKOPT1 BANKSEL dropped; STK03 present in all of r0x101D's banks
01C9   00??           05663         MOVWF   STK03   ;id=2854,key=008,inCond:10,outCond:1,flow seq=047
                      05664 ;;; /home/sdcc-builder/build/sdcc-build/orig/sdcc/src/pic14/gen.c:1328:mov2w_op *{*
                      05665 ;; >>> /home/sdcc-builder/build/sdcc-build/orig/sdcc/src/pic14/gen.c:1346:mov2w_op
01CA   3000           05666         MOVLW   0x00    ;id=2857,key=009,inCond:400,outCond:10,flow seq=047
                      05667 ;;      2120 left AOP_LIT
                      05668 ;; >>> /home/sdcc-builder/build/sdcc-build/orig/sdcc/src/pic14/gen.c:2128:genCall
                      05669 ;; ***  popRegFromIdx,1030  , rIdx=0x7d
                      05670 ;; BANKOPT1 BANKSEL dropped; STK02 present in all of r0x101D's banks
01CB   00??           05671         MOVWF   STK02   ;id=2861,key=00a,inCond:10,outCond:1,flow seq=047
                      05672 ;;; /home/sdcc-builder/build/sdcc-build/orig/sdcc/src/pic14/gen.c:1328:mov2w_op *{*
                      05673 ;; >>> /home/sdcc-builder/build/sdcc-build/orig/sdcc/src/pic14/gen.c:1346:mov2w_op
01CC   3000           05674         MOVLW   0x00    ;id=2864,key=00b,inCond:400,outCond:10,flow seq=047
                      05675 ;;      2120 left AOP_LIT
                      05676 ;; >>> /home/sdcc-builder/build/sdcc-build/orig/sdcc/src/pic14/gen.c:2128:genCall
                      05677 ;; ***  popRegFromIdx,1030  , rIdx=0x7e
                      05678 ;; BANKOPT1 BANKSEL dropped; STK01 present in all of r0x101D's banks
01CD   00??           05679         MOVWF   STK01   ;id=2868,key=00c,inCond:10,outCond:1,flow seq=047
                      05680 ;;; /home/sdcc-builder/build/sdcc-build/orig/sdcc/src/pic14/gen.c:1328:mov2w_op *{*
                      05681 ;; >>> /home/sdcc-builder/build/sdcc-build/orig/sdcc/src/pic14/gen.c:1346:mov2w_op
01CE   30C8           05682         MOVLW   0xc8    ;id=2871,key=00d,inCond:400,outCond:10,flow seq=047
                      05683 ;;      2120 left AOP_LIT
                      05684 ;; >>> /home/sdcc-builder/build/sdcc-build/orig/sdcc/src/pic14/gen.c:2128:genCall
                      05685 ;; ***  popRegFromIdx,1030  , rIdx=0x7f
                      05686 ;; BANKOPT1 BANKSEL dropped; STK00 present in all of r0x101D's banks
01CF   00??           05687         MOVWF   STK00   ;id=2875,key=00e,inCond:10,outCond:1,flow seq=047
                      05688 ;;; /home/sdcc-builder/build/sdcc-build/orig/sdcc/src/pic14/gen.c:1328:mov2w_op *{*
                      05689 ;; >>> /home/sdcc-builder/build/sdcc-build/orig/sdcc/src/pic14/gen.c:1346:mov2w_op
01D0   3042           05690         MOVLW   0x42    ;id=2878,key=00f,inCond:400,outCond:10,flow seq=047
                      05691 ;; >>> /home/sdcc-builder/build/sdcc-build/orig/sdcc/src/pic14/gen.c:2160:genCall
01D1   0??? 0???      05692         PAGESEL ___fsmul        ;id=2880,key=010,inCond:0,outCond:0,flow seq=047
                      05693 ;; >>> /home/sdcc-builder/build/sdcc-build/orig/sdcc/src/pic14/gen.c:2165:genCall
                      05694 ;; BANKOPT3 drop assumptions: PCI with label or call found
01D3   2???           05695         CALL    ___fsmul        ;id=2882,key=011,inCond:10,outCond:1e,flow seq=047
                      05696 ;<>Start of new flow, seq=0x48 ancestor = 0x47
                      05697 ;  from: 047 ; to: 049 
                      05698 ;; >>> /home/sdcc-builder/build/sdcc-build/orig/sdcc/src/pic14/gen.c:2173:genCall
01D4   0??? 0???      05699         PAGESEL $       ;id=2884,key=000,inCond:0,outCond:0,flow seq=048
                      05700 ;;      695 register type nRegs=4
                      05701 ;;; /home/sdcc-builder/build/sdcc-build/orig/sdcc/src/pic14/gen.c:1892:assignResultValue *{*
                      05702 ;; ***  assignResultValue  1894
                      05703 ;;      line = 1896 result -=-, size=0, left AOP_REG=r0x104E, size=4, right -=-, size=0
                      05704 ;; >>> /home/sdcc-builder/build/sdcc-build/orig/sdcc/src/pic14/gen.c:1378:movwf
                      05705 ;;      1097 rIdx = r0x1051 
01D6   0??? 0???      05706         BANKSEL r0x101E ;id=6719,key=001,inCond:0,outCond:0,flow seq=048
01D8   00??           05707         MOVWF   r0x101E ;id=2891,key=002,inCond:10,outCond:1,flow seq=048,rIdx=r0x1051
                      05708 ;; >>> /home/sdcc-builder/build/sdcc-build/orig/sdcc/src/pic14/gen.c:1408:get_returnvalue
                      05709 ;; ***  popRegFromIdx,1030  , rIdx=0x7f
                      05710 ;; BANKOPT1 BANKSEL dropped; STK00 present in all of r0x101E's banks
gpasm-1.5.2 #0 (Sep 16 2019) build/default/pr   9-16-2019  10:40:44         PAGE 109


LOC    OBJECT CODE    LINE  SOURCE TEXT
  VALUE

01D9   08??           05711         MOVF    STK00,W ;id=2894,key=003,inCond:1,outCond:14,flow seq=048
                      05712 ;; >>> /home/sdcc-builder/build/sdcc-build/orig/sdcc/src/pic14/gen.c:1378:movwf
                      05713 ;;      1097 rIdx = r0x1050 
                      05714 ;; BANKOPT2 BANKSEL dropped; r0x101F present in same bank as r0x101E
01DA   00??           05715         MOVWF   r0x101F ;id=2897,key=004,inCond:10,outCond:1,flow seq=048,rIdx=r0x1050
                      05716 ;; >>> /home/sdcc-builder/build/sdcc-build/orig/sdcc/src/pic14/gen.c:1408:get_returnvalue
                      05717 ;; ***  popRegFromIdx,1030  , rIdx=0x7e
                      05718 ;; BANKOPT1 BANKSEL dropped; STK01 present in all of r0x101E's banks
01DB   08??           05719         MOVF    STK01,W ;id=2900,key=005,inCond:1,outCond:14,flow seq=048
                      05720 ;; >>> /home/sdcc-builder/build/sdcc-build/orig/sdcc/src/pic14/gen.c:1378:movwf
                      05721 ;;      1097 rIdx = r0x104F 
                      05722 ;; BANKOPT2 BANKSEL dropped; r0x101C present in same bank as r0x101E
01DC   00??           05723         MOVWF   r0x101C ;id=2903,key=006,inCond:10,outCond:1,flow seq=048,rIdx=r0x104F
                      05724 ;; >>> /home/sdcc-builder/build/sdcc-build/orig/sdcc/src/pic14/gen.c:1408:get_returnvalue
                      05725 ;; ***  popRegFromIdx,1030  , rIdx=0x7d
                      05726 ;; BANKOPT1 BANKSEL dropped; STK02 present in all of r0x101E's banks
01DD   08??           05727         MOVF    STK02,W ;id=2906,key=007,inCond:1,outCond:14,flow seq=048
                      05728 ;; >>> /home/sdcc-builder/build/sdcc-build/orig/sdcc/src/pic14/gen.c:1378:movwf
                      05729 ;;      1097 rIdx = r0x104E 
                      05730 ;; BANKOPT2 BANKSEL dropped; r0x101D present in same bank as r0x101E
                      05731 ;       .line   186; "../../../src/measure.c"   var = (uint16_t)Cin;
01DE   00??           05732         MOVWF   r0x101D ;id=5927,key=008,inCond:10,outCond:1,flow seq=048,rIdx=r0x104E
                      05733 ;; BANKOPT1 BANKSEL dropped; STK02 present in all of r0x101E's banks
01DF   00??           05734         MOVWF   STK02   ;id=2931,key=009,inCond:10,outCond:1,flow seq=048
                      05735 ;;; /home/sdcc-builder/build/sdcc-build/orig/sdcc/src/pic14/gen.c:1328:mov2w_op *{*
                      05736 ;; ***  mov2w  1366  offset=1
                      05737 ;; >>> /home/sdcc-builder/build/sdcc-build/orig/sdcc/src/pic14/gen.c:1371:mov2w
                      05738 ;;      1097 rIdx = r0x104F 
                      05739 ;; BANKOPT2 BANKSEL dropped; r0x101C present in same bank as r0x101E
01E0   08??           05740         MOVF    r0x101C,W       ;id=2936,key=00a,inCond:1,outCond:14,flow seq=048,rIdx=r0x104F
                      05741 ;;      2120 left AOP_REG
                      05742 ;; >>> /home/sdcc-builder/build/sdcc-build/orig/sdcc/src/pic14/gen.c:2128:genCall
                      05743 ;; ***  popRegFromIdx,1030  , rIdx=0x7e
                      05744 ;; BANKOPT1 BANKSEL dropped; STK01 present in all of r0x101E's banks
01E1   00??           05745         MOVWF   STK01   ;id=2940,key=00b,inCond:10,outCond:1,flow seq=048
                      05746 ;;; /home/sdcc-builder/build/sdcc-build/orig/sdcc/src/pic14/gen.c:1328:mov2w_op *{*
                      05747 ;; ***  mov2w  1366  offset=2
                      05748 ;; >>> /home/sdcc-builder/build/sdcc-build/orig/sdcc/src/pic14/gen.c:1371:mov2w
                      05749 ;;      1097 rIdx = r0x1050 
                      05750 ;; BANKOPT2 BANKSEL dropped; r0x101F present in same bank as r0x101E
01E2   08??           05751         MOVF    r0x101F,W       ;id=2945,key=00c,inCond:1,outCond:14,flow seq=048,rIdx=r0x1050
                      05752 ;;      2120 left AOP_REG
                      05753 ;; >>> /home/sdcc-builder/build/sdcc-build/orig/sdcc/src/pic14/gen.c:2128:genCall
                      05754 ;; ***  popRegFromIdx,1030  , rIdx=0x7f
                      05755 ;; BANKOPT1 BANKSEL dropped; STK00 present in all of r0x101E's banks
01E3   00??           05756         MOVWF   STK00   ;id=2949,key=00d,inCond:10,outCond:1,flow seq=048
                      05757 ;;; /home/sdcc-builder/build/sdcc-build/orig/sdcc/src/pic14/gen.c:1328:mov2w_op *{*
                      05758 ;; ***  mov2w  1366  offset=3
                      05759 ;; >>> /home/sdcc-builder/build/sdcc-build/orig/sdcc/src/pic14/gen.c:1371:mov2w
                      05760 ;;      1097 rIdx = r0x1051 
                      05761 ;; BANKOPT2 BANKSEL dropped; r0x101E present in same bank as r0x101E
01E4   08??           05762         MOVF    r0x101E,W       ;id=2954,key=00e,inCond:1,outCond:14,flow seq=048,rIdx=r0x1051
                      05763 ;; >>> /home/sdcc-builder/build/sdcc-build/orig/sdcc/src/pic14/gen.c:2160:genCall
gpasm-1.5.2 #0 (Sep 16 2019) build/default/pr   9-16-2019  10:40:44         PAGE 110


LOC    OBJECT CODE    LINE  SOURCE TEXT
  VALUE

01E5   0??? 0???      05764         PAGESEL ___fs2uint      ;id=2956,key=00f,inCond:0,outCond:0,flow seq=048
                      05765 ;; >>> /home/sdcc-builder/build/sdcc-build/orig/sdcc/src/pic14/gen.c:2165:genCall
                      05766 ;; BANKOPT3 drop assumptions: PCI with label or call found
01E7   2???           05767         CALL    ___fs2uint      ;id=2958,key=010,inCond:10,outCond:1e,flow seq=048
                      05768 ;<>Start of new flow, seq=0x49 ancestor = 0x48
                      05769 ;  from: 048 ; to: 04a 
                      05770 ;; >>> /home/sdcc-builder/build/sdcc-build/orig/sdcc/src/pic14/gen.c:2173:genCall
01E8   0??? 0???      05771         PAGESEL $       ;id=2960,key=000,inCond:0,outCond:0,flow seq=049
                      05772 ;;      695 register type nRegs=2
                      05773 ;;; /home/sdcc-builder/build/sdcc-build/orig/sdcc/src/pic14/gen.c:1892:assignResultValue *{*
                      05774 ;; ***  assignResultValue  1894
                      05775 ;;      line = 1896 result -=-, size=0, left AOP_REG=r0x104E, size=2, right -=-, size=0
                      05776 ;; >>> /home/sdcc-builder/build/sdcc-build/orig/sdcc/src/pic14/gen.c:1378:movwf
                      05777 ;;      1097 rIdx = r0x104F 
01EA   0??? 0???      05778         BANKSEL r0x101C ;id=6733,key=001,inCond:0,outCond:0,flow seq=049
01EC   00??           05779         MOVWF   r0x101C ;id=2967,key=002,inCond:10,outCond:1,flow seq=049,rIdx=r0x104F
                      05780 ;; >>> /home/sdcc-builder/build/sdcc-build/orig/sdcc/src/pic14/gen.c:1408:get_returnvalue
                      05781 ;; ***  popRegFromIdx,1030  , rIdx=0x7f
                      05782 ;; BANKOPT1 BANKSEL dropped; STK00 present in all of r0x101C's banks
01ED   08??           05783         MOVF    STK00,W ;id=2970,key=003,inCond:1,outCond:14,flow seq=049
                      05784 ;; >>> /home/sdcc-builder/build/sdcc-build/orig/sdcc/src/pic14/gen.c:1378:movwf
                      05785 ;;      1097 rIdx = r0x104E 
                      05786 ;; BANKOPT2 BANKSEL dropped; r0x101D present in same bank as r0x101C
                      05787 ;       .line   188; "../../../src/measure.c"   print_reading(var);
01EE   00??           05788         MOVWF   r0x101D ;id=5928,key=004,inCond:10,outCond:1,flow seq=049,rIdx=r0x104E
                      05789 ;; BANKOPT1 BANKSEL dropped; STK00 present in all of r0x101C's banks
01EF   00??           05790         MOVWF   STK00   ;id=2995,key=005,inCond:10,outCond:1,flow seq=049
                      05791 ;;; /home/sdcc-builder/build/sdcc-build/orig/sdcc/src/pic14/gen.c:1328:mov2w_op *{*
                      05792 ;; ***  mov2w  1366  offset=1
                      05793 ;; >>> /home/sdcc-builder/build/sdcc-build/orig/sdcc/src/pic14/gen.c:1371:mov2w
                      05794 ;;      1097 rIdx = r0x104F 
                      05795 ;; BANKOPT2 BANKSEL dropped; r0x101C present in same bank as r0x101C
01F0   08??           05796         MOVF    r0x101C,W       ;id=3000,key=006,inCond:1,outCond:14,flow seq=049,rIdx=r0x104F
                      05797 ;; >>> /home/sdcc-builder/build/sdcc-build/orig/sdcc/src/pic14/gen.c:2160:genCall
01F1   0??? 0???      05798         PAGESEL _print_reading  ;id=3002,key=007,inCond:0,outCond:0,flow seq=049
                      05799 ;; >>> /home/sdcc-builder/build/sdcc-build/orig/sdcc/src/pic14/gen.c:2165:genCall
                      05800 ;; BANKOPT3 drop assumptions: PCI with label or call found
01F3   2???           05801         CALL    _print_reading  ;id=3004,key=008,inCond:10,outCond:1e,flow seq=049
                      05802 ;<>Start of new flow, seq=0x4a ancestor = 0x49
                      05803 ;  from: 049 ; to: 04b 
                      05804 ;; >>> /home/sdcc-builder/build/sdcc-build/orig/sdcc/src/pic14/gen.c:2173:genCall
01F4   0??? 0???      05805         PAGESEL $       ;id=3006,key=000,inCond:0,outCond:0,flow seq=04a
                      05806 ;;; /home/sdcc-builder/build/sdcc-build/orig/sdcc/src/pic14/gen.c:1830:unsaveRegisters *{*
                      05807 ;; ***  unsaveRegisters  1832
                      05808 ;;; /home/sdcc-builder/build/sdcc-build/orig/sdcc/src/pic14/gen.c:2308:resultRemat *{*
                      05809 ;;; /home/sdcc-builder/build/sdcc-build/orig/sdcc/src/pic14/gen.c:2308:resultRemat *{*
                      05810 ;;; /home/sdcc-builder/build/sdcc-build/orig/sdcc/src/pic14/gen.c:2071:genCall *{*
                      05811 ;; ***  genCall  2073
                      05812 ;;; /home/sdcc-builder/build/sdcc-build/orig/sdcc/src/pic14/gen.c:1786:saveRegisters *{*
                      05813 ;; ***  saveRegisters  1788
                      05814 ;;      695 register type nRegs=1
                      05815 ;;      695 register type nRegs=1
                      05816 ;;      2120 left AOP_REG
gpasm-1.5.2 #0 (Sep 16 2019) build/default/pr   9-16-2019  10:40:44         PAGE 111


LOC    OBJECT CODE    LINE  SOURCE TEXT
  VALUE

                      05817 ;;; /home/sdcc-builder/build/sdcc-build/orig/sdcc/src/pic14/gen.c:1328:mov2w_op *{*
                      05818 ;; ***  mov2w  1366  offset=0
                      05819 ;; >>> /home/sdcc-builder/build/sdcc-build/orig/sdcc/src/pic14/gen.c:1371:mov2w
                      05820 ;;      1097 rIdx = r0x1052 
                      05821 ;       .line   189; "../../../src/measure.c"   print_unit(unit);
01F6   0??? 0???      05822         BANKSEL r0x1023 ;id=6739,key=001,inCond:0,outCond:0,flow seq=04a
01F8   08??           05823         MOVF    r0x1023,W       ;id=3023,key=002,inCond:1,outCond:14,flow seq=04a,rIdx=r0x1052
                      05824 ;; >>> /home/sdcc-builder/build/sdcc-build/orig/sdcc/src/pic14/gen.c:2160:genCall
01F9   0??? 0???      05825         PAGESEL _print_unit     ;id=3025,key=003,inCond:0,outCond:0,flow seq=04a
                      05826 ;; >>> /home/sdcc-builder/build/sdcc-build/orig/sdcc/src/pic14/gen.c:2165:genCall
                      05827 ;; BANKOPT3 drop assumptions: PCI with label or call found
01FB   2???           05828         CALL    _print_unit     ;id=3027,key=004,inCond:10,outCond:1e,flow seq=04a
                      05829 ;<>Start of new flow, seq=0x4b ancestor = 0x4a
                      05830 ;  from: 04a ; to: 
                      05831 ;; >>> /home/sdcc-builder/build/sdcc-build/orig/sdcc/src/pic14/gen.c:2173:genCall
01FC   0??? 0???      05832         PAGESEL $       ;id=3029,key=000,inCond:0,outCond:0,flow seq=04b
                      05833 ;;; /home/sdcc-builder/build/sdcc-build/orig/sdcc/src/pic14/gen.c:1830:unsaveRegisters *{*
                      05834 ;; ***  unsaveRegisters  1832
                      05835 ;;; /home/sdcc-builder/build/sdcc-build/orig/sdcc/src/pic14/gen.c:2308:resultRemat *{*
                      05836 ;;; /home/sdcc-builder/build/sdcc-build/orig/sdcc/src/pic14/gen.c:2752:genLabel *{*
                      05837 ;; ***  genLabel  2755
                      05838 ;_00124_DS_:
                      05839 ;;; /home/sdcc-builder/build/sdcc-build/orig/sdcc/src/pic14/gen.c:2308:resultRemat *{*
                      05840 ;;; /home/sdcc-builder/build/sdcc-build/orig/sdcc/src/pic14/gen.c:2520:genEndFunction *{*
                      05841 ;; ***  genEndFunction  2522
                      05842 ;return
                      05843 ;       .line   190; "../../../src/measure.c"   }
01FE   0008           05844         RETURN          ;id=3042,key=001,inCond:10,outCond:e,flow seq=04b
                      05845 ;<>Start of new flow, seq=0x4c
                      05846 ;  from: ; to: 
                      05847 ; exit point of _measure_capacitance
                      05848 ;;; /home/sdcc-builder/build/sdcc-build/orig/sdcc/src/pic14/gen.c:7535:genpic14Code *{*
                      05849 
                      05850 ;***
                      05851 ;  pBlock Stats: dbName = C
                      05852 ;***
                      05853 ;has an exit
                      05854 ;functions called:
                      05855 ;   _delay_ms
                      05856 ;   _delay_ms
                      05857 ;   _delay_ms
                      05858 ;   _delay_ms
                      05859 ;   _delay_ms
                      05860 ;   _delay_ms
                      05861 ;   _delay_ms
                      05862 ;   _delay_ms
                      05863 ;   _delay_ms
                      05864 ;   _delay_ms
                      05865 ;   _delay_ms
                      05866 ;   _timer0_read_ps
                      05867 ;   _delay_ms
                      05868 ;   _delay_ms
                      05869 ;   _delay_ms
gpasm-1.5.2 #0 (Sep 16 2019) build/default/pr   9-16-2019  10:40:44         PAGE 112


LOC    OBJECT CODE    LINE  SOURCE TEXT
  VALUE

                      05870 ;   _delay_ms
                      05871 ;   _delay_ms
                      05872 ;   _delay_ms
                      05873 ;   _delay_ms
                      05874 ;   _delay_ms
                      05875 ;   _delay_ms
                      05876 ;   _delay_ms
                      05877 ;   _delay_ms
                      05878 ;   _timer0_read_ps
                      05879 ;3 compiler assigned registers:
                      05880 ;   STK00
                      05881 ;   r0x1012
                      05882 ;   r0x1013
                      05883 ;; Starting pCode block
                      05884 ;<>Start of new flow, seq=0x4d ancestor = 0x4d
                      05885 ;  from: ; to: 04e 
                      05886 ;;; /home/sdcc-builder/build/sdcc-build/orig/sdcc/src/pic14/gen.c:2308:resultRemat *{*
                      05887 ;;; /home/sdcc-builder/build/sdcc-build/orig/sdcc/src/pic14/gen.c:2752:genLabel *{*
                      05888 ;; ***  genLabel  2755
                      05889 ;;; /home/sdcc-builder/build/sdcc-build/orig/sdcc/src/pic14/gen.c:2308:resultRemat *{*
                      05890 ;;; /home/sdcc-builder/build/sdcc-build/orig/sdcc/src/pic14/gen.c:2332:genFunction *{*
                      05891 ;; ***  genFunction  2334 curr label offset=4previous max_key=0 
                      05892 ;;      -----------------------------------------
                      05893 ;;       function measure_freq
                      05894 ;;      -----------------------------------------
                      05895 ;_measure_freq:
                      05896 S_measure__measure_freq code
0000                  05897 _measure_freq:
                      05898 ; 2 exit points
                      05899 ;;; /home/sdcc-builder/build/sdcc-build/orig/sdcc/src/pic14/gen.c:2308:resultRemat *{*
                      05900 ;;; /home/sdcc-builder/build/sdcc-build/orig/sdcc/src/pic14/gen.c:3938:genAnd *{*
                      05901 ;; ***  genAnd  3939
                      05902 ;; ***  aopForSym 316
                      05903 ;;      328 sym->rname = _INTCON, size = 1
                      05904 ;;      576
                      05905 ;;      line = 3974 result AOP_DIR=_INTCON, size=1, left AOP_DIR=_INTCON, size=1, right AOP_LIT=0xfb, si
                            ze=1
                      05906 ;; >>> /home/sdcc-builder/build/sdcc-build/orig/sdcc/src/pic14/gen.c:4141:genAnd
                      05907 ;; BANKOPT1 BANKSEL dropped; INTCON present in all of (null)'s banks
                      05908 ;       .line   72; "../../../src/measure.c"    INTCON &= ~0b100; // TMR0IF = 0;
0000   110B           05909         BCF     INTCON,2        ;id=650,key=000,inCond:21,outCond:21,flow seq=04d
                      05910 ;;; /home/sdcc-builder/build/sdcc-build/orig/sdcc/src/pic14/gen.c:2308:resultRemat *{*
                      05911 ;;; /home/sdcc-builder/build/sdcc-build/orig/sdcc/src/pic14/gen.c:3938:genAnd *{*
                      05912 ;; ***  genAnd  3939
                      05913 ;; ***  aopForSym 316
                      05914 ;;      328 sym->rname = _TRISA, size = 1
                      05915 ;;      576
                      05916 ;;      line = 3974 result AOP_DIR=_TRISA, size=1, left AOP_DIR=_TRISA, size=1, right AOP_LIT=0xef, size
                            =1
                      05917 ;; >>> /home/sdcc-builder/build/sdcc-build/orig/sdcc/src/pic14/gen.c:4141:genAnd
                      05918 ;       .line   76; "../../../src/measure.c"    TRISA &= ~0b00010000;
0001   0??? 0???      05919         BANKSEL _TRISA  ;id=6742,key=001,inCond:0,outCond:0,flow seq=04d
0003   12??           05920         BCF     _TRISA,4        ;id=660,key=002,inCond:21,outCond:21,flow seq=04d
gpasm-1.5.2 #0 (Sep 16 2019) build/default/pr   9-16-2019  10:40:44         PAGE 113


LOC    OBJECT CODE    LINE  SOURCE TEXT
  VALUE

                      05921 ;;; /home/sdcc-builder/build/sdcc-build/orig/sdcc/src/pic14/gen.c:2308:resultRemat *{*
                      05922 ;;; /home/sdcc-builder/build/sdcc-build/orig/sdcc/src/pic14/gen.c:2308:resultRemat *{*
                      05923 ;;; /home/sdcc-builder/build/sdcc-build/orig/sdcc/src/pic14/gen.c:2071:genCall *{*
                      05924 ;; ***  genCall  2073
                      05925 ;;; /home/sdcc-builder/build/sdcc-build/orig/sdcc/src/pic14/gen.c:1786:saveRegisters *{*
                      05926 ;; ***  saveRegisters  1788
                      05927 ;;      2120 left AOP_LIT
                      05928 ;;; /home/sdcc-builder/build/sdcc-build/orig/sdcc/src/pic14/gen.c:1328:mov2w_op *{*
                      05929 ;; >>> /home/sdcc-builder/build/sdcc-build/orig/sdcc/src/pic14/gen.c:1346:mov2w_op
                      05930 ;       .line   78; "../../../src/measure.c"    __delay_ms(20); // stablize oscillator
0004   3014           05931         MOVLW   0x14    ;id=671,key=003,inCond:400,outCond:10,flow seq=04d
                      05932 ;;      2120 left AOP_LIT
                      05933 ;; >>> /home/sdcc-builder/build/sdcc-build/orig/sdcc/src/pic14/gen.c:2128:genCall
                      05934 ;; ***  popRegFromIdx,1030  , rIdx=0x7f
                      05935 ;; BANKOPT1 BANKSEL dropped; STK00 present in all of _TRISA's banks
0005   00??           05936         MOVWF   STK00   ;id=675,key=004,inCond:10,outCond:1,flow seq=04d
                      05937 ;;; /home/sdcc-builder/build/sdcc-build/orig/sdcc/src/pic14/gen.c:1328:mov2w_op *{*
                      05938 ;; >>> /home/sdcc-builder/build/sdcc-build/orig/sdcc/src/pic14/gen.c:1346:mov2w_op
0006   3000           05939         MOVLW   0x00    ;id=678,key=005,inCond:400,outCond:10,flow seq=04d
                      05940 ;; >>> /home/sdcc-builder/build/sdcc-build/orig/sdcc/src/pic14/gen.c:2160:genCall
0007   0??? 0???      05941         PAGESEL _delay_ms       ;id=680,key=006,inCond:0,outCond:0,flow seq=04d
                      05942 ;; >>> /home/sdcc-builder/build/sdcc-build/orig/sdcc/src/pic14/gen.c:2165:genCall
                      05943 ;; BANKOPT3 drop assumptions: PCI with label or call found
0009   2???           05944         CALL    _delay_ms       ;id=682,key=007,inCond:10,outCond:1e,flow seq=04d
                      05945 ;<>Start of new flow, seq=0x4e ancestor = 0x4d
                      05946 ;  from: 04d ; to: 04f 
                      05947 ;; >>> /home/sdcc-builder/build/sdcc-build/orig/sdcc/src/pic14/gen.c:2173:genCall
000A   0??? 0???      05948         PAGESEL $       ;id=684,key=000,inCond:0,outCond:0,flow seq=04e
                      05949 ;;; /home/sdcc-builder/build/sdcc-build/orig/sdcc/src/pic14/gen.c:1830:unsaveRegisters *{*
                      05950 ;; ***  unsaveRegisters  1832
                      05951 ;;; /home/sdcc-builder/build/sdcc-build/orig/sdcc/src/pic14/gen.c:2308:resultRemat *{*
                      05952 ;;; /home/sdcc-builder/build/sdcc-build/orig/sdcc/src/pic14/gen.c:7036:genAssign *{*
                      05953 ;; ***  genAssign  7037
                      05954 ;; ***  aopForSym 316
                      05955 ;;      328 sym->rname = _TMR0, size = 1
                      05956 ;;      line = 7046 result AOP_DIR=_TMR0, size=1, left -=-, size=0, right AOP_LIT=0x00, size=1
                      05957 ;; ***  genAssign  7132
                      05958 ;; >>> /home/sdcc-builder/build/sdcc-build/orig/sdcc/src/pic14/gen.c:7144:genAssign
                      05959 ;;      998
                      05960 ;;      1016  _TMR0   offset=0
                      05961 ;       .line   81; "../../../src/measure.c"    TMR0 = 0x00;
000C   0??? 0???      05962         BANKSEL _TMR0   ;id=6745,key=001,inCond:0,outCond:0,flow seq=04e
000E   01??           05963         CLRF    _TMR0   ;id=698,key=002,inCond:0,outCond:5,flow seq=04e
                      05964 ;;; /home/sdcc-builder/build/sdcc-build/orig/sdcc/src/pic14/gen.c:2308:resultRemat *{*
                      05965 ;;; /home/sdcc-builder/build/sdcc-build/orig/sdcc/src/pic14/gen.c:3938:genAnd *{*
                      05966 ;; ***  genAnd  3939
                      05967 ;; ***  aopForSym 316
                      05968 ;;      328 sym->rname = _PORTC, size = 1
                      05969 ;;      576
                      05970 ;;      line = 3974 result AOP_DIR=_PORTC, size=1, left AOP_DIR=_PORTC, size=1, right AOP_LIT=0xfd, size
                            =1
                      05971 ;; >>> /home/sdcc-builder/build/sdcc-build/orig/sdcc/src/pic14/gen.c:4141:genAnd
                      05972 ;; BANKOPT2 BANKSEL dropped; _PORTC present in same bank as _TMR0
gpasm-1.5.2 #0 (Sep 16 2019) build/default/pr   9-16-2019  10:40:44         PAGE 114


LOC    OBJECT CODE    LINE  SOURCE TEXT
  VALUE

                      05973 ;       .line   83; "../../../src/measure.c"    SET_LED(1);
000F   10??           05974         BCF     _PORTC,1        ;id=708,key=003,inCond:21,outCond:21,flow seq=04e
                      05975 ;;; /home/sdcc-builder/build/sdcc-build/orig/sdcc/src/pic14/gen.c:2308:resultRemat *{*
                      05976 ;;; /home/sdcc-builder/build/sdcc-build/orig/sdcc/src/pic14/gen.c:4239:genOr *{*
                      05977 ;; ***  genOr  4240
                      05978 ;; ***  aopForSym 316
                      05979 ;;      328 sym->rname = _PORTC, size = 1
                      05980 ;;      576
                      05981 ;;      line = 4246 result AOP_DIR=_PORTC, size=1, left AOP_DIR=_PORTC, size=1, right AOP_LIT=0x02, size
                            =1
                      05982 ;;      line = 4272 result AOP_DIR=_PORTC, size=1, left AOP_DIR=_PORTC, size=1, right AOP_LIT=0x02, size
                            =1
                      05983 ;; >>> /home/sdcc-builder/build/sdcc-build/orig/sdcc/src/pic14/gen.c:4423:genOr
                      05984 ;; BANKOPT2 BANKSEL dropped; _PORTC present in same bank as _TMR0
0010   14??           05985         BSF     _PORTC,1        ;id=718,key=004,inCond:21,outCond:21,flow seq=04e
                      05986 ;;; /home/sdcc-builder/build/sdcc-build/orig/sdcc/src/pic14/gen.c:2308:resultRemat *{*
                      05987 ;;; /home/sdcc-builder/build/sdcc-build/orig/sdcc/src/pic14/gen.c:2308:resultRemat *{*
                      05988 ;;; /home/sdcc-builder/build/sdcc-build/orig/sdcc/src/pic14/gen.c:2071:genCall *{*
                      05989 ;; ***  genCall  2073
                      05990 ;;; /home/sdcc-builder/build/sdcc-build/orig/sdcc/src/pic14/gen.c:1786:saveRegisters *{*
                      05991 ;; ***  saveRegisters  1788
                      05992 ;;      2120 left AOP_LIT
                      05993 ;;; /home/sdcc-builder/build/sdcc-build/orig/sdcc/src/pic14/gen.c:1328:mov2w_op *{*
                      05994 ;; >>> /home/sdcc-builder/build/sdcc-build/orig/sdcc/src/pic14/gen.c:1346:mov2w_op
                      05995 ;       .line   86; "../../../src/measure.c"    __delay_ms(10);
0011   300A           05996         MOVLW   0x0a    ;id=729,key=005,inCond:400,outCond:10,flow seq=04e
                      05997 ;;      2120 left AOP_LIT
                      05998 ;; >>> /home/sdcc-builder/build/sdcc-build/orig/sdcc/src/pic14/gen.c:2128:genCall
                      05999 ;; ***  popRegFromIdx,1030  , rIdx=0x7f
                      06000 ;; BANKOPT1 BANKSEL dropped; STK00 present in all of _TMR0's banks
0012   00??           06001         MOVWF   STK00   ;id=733,key=006,inCond:10,outCond:1,flow seq=04e
                      06002 ;;; /home/sdcc-builder/build/sdcc-build/orig/sdcc/src/pic14/gen.c:1328:mov2w_op *{*
                      06003 ;; >>> /home/sdcc-builder/build/sdcc-build/orig/sdcc/src/pic14/gen.c:1346:mov2w_op
0013   3000           06004         MOVLW   0x00    ;id=736,key=007,inCond:400,outCond:10,flow seq=04e
                      06005 ;; >>> /home/sdcc-builder/build/sdcc-build/orig/sdcc/src/pic14/gen.c:2160:genCall
0014   0??? 0???      06006         PAGESEL _delay_ms       ;id=738,key=008,inCond:0,outCond:0,flow seq=04e
                      06007 ;; >>> /home/sdcc-builder/build/sdcc-build/orig/sdcc/src/pic14/gen.c:2165:genCall
                      06008 ;; BANKOPT3 drop assumptions: PCI with label or call found
0016   2???           06009         CALL    _delay_ms       ;id=740,key=009,inCond:10,outCond:1e,flow seq=04e
                      06010 ;<>Start of new flow, seq=0x4f ancestor = 0x4e
                      06011 ;  from: 04e ; to: 050 
                      06012 ;; >>> /home/sdcc-builder/build/sdcc-build/orig/sdcc/src/pic14/gen.c:2173:genCall
0017   0??? 0???      06013         PAGESEL $       ;id=742,key=000,inCond:0,outCond:0,flow seq=04f
                      06014 ;;; /home/sdcc-builder/build/sdcc-build/orig/sdcc/src/pic14/gen.c:1830:unsaveRegisters *{*
                      06015 ;; ***  unsaveRegisters  1832
                      06016 ;;; /home/sdcc-builder/build/sdcc-build/orig/sdcc/src/pic14/gen.c:2308:resultRemat *{*
                      06017 ;;; /home/sdcc-builder/build/sdcc-build/orig/sdcc/src/pic14/gen.c:2308:resultRemat *{*
                      06018 ;;; /home/sdcc-builder/build/sdcc-build/orig/sdcc/src/pic14/gen.c:2071:genCall *{*
                      06019 ;; ***  genCall  2073
                      06020 ;;; /home/sdcc-builder/build/sdcc-build/orig/sdcc/src/pic14/gen.c:1786:saveRegisters *{*
                      06021 ;; ***  saveRegisters  1788
                      06022 ;;      2120 left AOP_LIT
                      06023 ;;; /home/sdcc-builder/build/sdcc-build/orig/sdcc/src/pic14/gen.c:1328:mov2w_op *{*
gpasm-1.5.2 #0 (Sep 16 2019) build/default/pr   9-16-2019  10:40:44         PAGE 115


LOC    OBJECT CODE    LINE  SOURCE TEXT
  VALUE

                      06024 ;; >>> /home/sdcc-builder/build/sdcc-build/orig/sdcc/src/pic14/gen.c:1346:mov2w_op
                      06025 ;       .line   87; "../../../src/measure.c"    __delay_ms(10);
0019   300A           06026         MOVLW   0x0a    ;id=755,key=001,inCond:400,outCond:10,flow seq=04f
                      06027 ;;      2120 left AOP_LIT
                      06028 ;; >>> /home/sdcc-builder/build/sdcc-build/orig/sdcc/src/pic14/gen.c:2128:genCall
                      06029 ;; ***  popRegFromIdx,1030  , rIdx=0x7f
                      06030 ;; BANKOPT1 BANKSEL dropped; STK00 present in all of (null)'s banks
001A   00??           06031         MOVWF   STK00   ;id=759,key=002,inCond:10,outCond:1,flow seq=04f
                      06032 ;;; /home/sdcc-builder/build/sdcc-build/orig/sdcc/src/pic14/gen.c:1328:mov2w_op *{*
                      06033 ;; >>> /home/sdcc-builder/build/sdcc-build/orig/sdcc/src/pic14/gen.c:1346:mov2w_op
001B   3000           06034         MOVLW   0x00    ;id=762,key=003,inCond:400,outCond:10,flow seq=04f
                      06035 ;; >>> /home/sdcc-builder/build/sdcc-build/orig/sdcc/src/pic14/gen.c:2160:genCall
001C   0??? 0???      06036         PAGESEL _delay_ms       ;id=764,key=004,inCond:0,outCond:0,flow seq=04f
                      06037 ;; >>> /home/sdcc-builder/build/sdcc-build/orig/sdcc/src/pic14/gen.c:2165:genCall
                      06038 ;; BANKOPT3 drop assumptions: PCI with label or call found
001E   2???           06039         CALL    _delay_ms       ;id=766,key=005,inCond:10,outCond:1e,flow seq=04f
                      06040 ;<>Start of new flow, seq=0x50 ancestor = 0x4f
                      06041 ;  from: 04f ; to: 051 
                      06042 ;; >>> /home/sdcc-builder/build/sdcc-build/orig/sdcc/src/pic14/gen.c:2173:genCall
001F   0??? 0???      06043         PAGESEL $       ;id=768,key=000,inCond:0,outCond:0,flow seq=050
                      06044 ;;; /home/sdcc-builder/build/sdcc-build/orig/sdcc/src/pic14/gen.c:1830:unsaveRegisters *{*
                      06045 ;; ***  unsaveRegisters  1832
                      06046 ;;; /home/sdcc-builder/build/sdcc-build/orig/sdcc/src/pic14/gen.c:2308:resultRemat *{*
                      06047 ;;; /home/sdcc-builder/build/sdcc-build/orig/sdcc/src/pic14/gen.c:2308:resultRemat *{*
                      06048 ;;; /home/sdcc-builder/build/sdcc-build/orig/sdcc/src/pic14/gen.c:2071:genCall *{*
                      06049 ;; ***  genCall  2073
                      06050 ;;; /home/sdcc-builder/build/sdcc-build/orig/sdcc/src/pic14/gen.c:1786:saveRegisters *{*
                      06051 ;; ***  saveRegisters  1788
                      06052 ;;      2120 left AOP_LIT
                      06053 ;;; /home/sdcc-builder/build/sdcc-build/orig/sdcc/src/pic14/gen.c:1328:mov2w_op *{*
                      06054 ;; >>> /home/sdcc-builder/build/sdcc-build/orig/sdcc/src/pic14/gen.c:1346:mov2w_op
                      06055 ;       .line   88; "../../../src/measure.c"    __delay_ms(10);
0021   300A           06056         MOVLW   0x0a    ;id=781,key=001,inCond:400,outCond:10,flow seq=050
                      06057 ;;      2120 left AOP_LIT
                      06058 ;; >>> /home/sdcc-builder/build/sdcc-build/orig/sdcc/src/pic14/gen.c:2128:genCall
                      06059 ;; ***  popRegFromIdx,1030  , rIdx=0x7f
                      06060 ;; BANKOPT1 BANKSEL dropped; STK00 present in all of (null)'s banks
0022   00??           06061         MOVWF   STK00   ;id=785,key=002,inCond:10,outCond:1,flow seq=050
                      06062 ;;; /home/sdcc-builder/build/sdcc-build/orig/sdcc/src/pic14/gen.c:1328:mov2w_op *{*
                      06063 ;; >>> /home/sdcc-builder/build/sdcc-build/orig/sdcc/src/pic14/gen.c:1346:mov2w_op
0023   3000           06064         MOVLW   0x00    ;id=788,key=003,inCond:400,outCond:10,flow seq=050
                      06065 ;; >>> /home/sdcc-builder/build/sdcc-build/orig/sdcc/src/pic14/gen.c:2160:genCall
0024   0??? 0???      06066         PAGESEL _delay_ms       ;id=790,key=004,inCond:0,outCond:0,flow seq=050
                      06067 ;; >>> /home/sdcc-builder/build/sdcc-build/orig/sdcc/src/pic14/gen.c:2165:genCall
                      06068 ;; BANKOPT3 drop assumptions: PCI with label or call found
0026   2???           06069         CALL    _delay_ms       ;id=792,key=005,inCond:10,outCond:1e,flow seq=050
                      06070 ;<>Start of new flow, seq=0x51 ancestor = 0x50
                      06071 ;  from: 050 ; to: 052 
                      06072 ;; >>> /home/sdcc-builder/build/sdcc-build/orig/sdcc/src/pic14/gen.c:2173:genCall
0027   0??? 0???      06073         PAGESEL $       ;id=794,key=000,inCond:0,outCond:0,flow seq=051
                      06074 ;;; /home/sdcc-builder/build/sdcc-build/orig/sdcc/src/pic14/gen.c:1830:unsaveRegisters *{*
                      06075 ;; ***  unsaveRegisters  1832
                      06076 ;;; /home/sdcc-builder/build/sdcc-build/orig/sdcc/src/pic14/gen.c:2308:resultRemat *{*
gpasm-1.5.2 #0 (Sep 16 2019) build/default/pr   9-16-2019  10:40:44         PAGE 116


LOC    OBJECT CODE    LINE  SOURCE TEXT
  VALUE

                      06077 ;;; /home/sdcc-builder/build/sdcc-build/orig/sdcc/src/pic14/gen.c:2308:resultRemat *{*
                      06078 ;;; /home/sdcc-builder/build/sdcc-build/orig/sdcc/src/pic14/gen.c:2071:genCall *{*
                      06079 ;; ***  genCall  2073
                      06080 ;;; /home/sdcc-builder/build/sdcc-build/orig/sdcc/src/pic14/gen.c:1786:saveRegisters *{*
                      06081 ;; ***  saveRegisters  1788
                      06082 ;;      2120 left AOP_LIT
                      06083 ;;; /home/sdcc-builder/build/sdcc-build/orig/sdcc/src/pic14/gen.c:1328:mov2w_op *{*
                      06084 ;; >>> /home/sdcc-builder/build/sdcc-build/orig/sdcc/src/pic14/gen.c:1346:mov2w_op
                      06085 ;       .line   89; "../../../src/measure.c"    __delay_ms(10);
0029   300A           06086         MOVLW   0x0a    ;id=807,key=001,inCond:400,outCond:10,flow seq=051
                      06087 ;;      2120 left AOP_LIT
                      06088 ;; >>> /home/sdcc-builder/build/sdcc-build/orig/sdcc/src/pic14/gen.c:2128:genCall
                      06089 ;; ***  popRegFromIdx,1030  , rIdx=0x7f
                      06090 ;; BANKOPT1 BANKSEL dropped; STK00 present in all of (null)'s banks
002A   00??           06091         MOVWF   STK00   ;id=811,key=002,inCond:10,outCond:1,flow seq=051
                      06092 ;;; /home/sdcc-builder/build/sdcc-build/orig/sdcc/src/pic14/gen.c:1328:mov2w_op *{*
                      06093 ;; >>> /home/sdcc-builder/build/sdcc-build/orig/sdcc/src/pic14/gen.c:1346:mov2w_op
002B   3000           06094         MOVLW   0x00    ;id=814,key=003,inCond:400,outCond:10,flow seq=051
                      06095 ;; >>> /home/sdcc-builder/build/sdcc-build/orig/sdcc/src/pic14/gen.c:2160:genCall
002C   0??? 0???      06096         PAGESEL _delay_ms       ;id=816,key=004,inCond:0,outCond:0,flow seq=051
                      06097 ;; >>> /home/sdcc-builder/build/sdcc-build/orig/sdcc/src/pic14/gen.c:2165:genCall
                      06098 ;; BANKOPT3 drop assumptions: PCI with label or call found
002E   2???           06099         CALL    _delay_ms       ;id=818,key=005,inCond:10,outCond:1e,flow seq=051
                      06100 ;<>Start of new flow, seq=0x52 ancestor = 0x51
                      06101 ;  from: 051 ; to: 053 
                      06102 ;; >>> /home/sdcc-builder/build/sdcc-build/orig/sdcc/src/pic14/gen.c:2173:genCall
002F   0??? 0???      06103         PAGESEL $       ;id=820,key=000,inCond:0,outCond:0,flow seq=052
                      06104 ;;; /home/sdcc-builder/build/sdcc-build/orig/sdcc/src/pic14/gen.c:1830:unsaveRegisters *{*
                      06105 ;; ***  unsaveRegisters  1832
                      06106 ;;; /home/sdcc-builder/build/sdcc-build/orig/sdcc/src/pic14/gen.c:2308:resultRemat *{*
                      06107 ;;; /home/sdcc-builder/build/sdcc-build/orig/sdcc/src/pic14/gen.c:2308:resultRemat *{*
                      06108 ;;; /home/sdcc-builder/build/sdcc-build/orig/sdcc/src/pic14/gen.c:2071:genCall *{*
                      06109 ;; ***  genCall  2073
                      06110 ;;; /home/sdcc-builder/build/sdcc-build/orig/sdcc/src/pic14/gen.c:1786:saveRegisters *{*
                      06111 ;; ***  saveRegisters  1788
                      06112 ;;      2120 left AOP_LIT
                      06113 ;;; /home/sdcc-builder/build/sdcc-build/orig/sdcc/src/pic14/gen.c:1328:mov2w_op *{*
                      06114 ;; >>> /home/sdcc-builder/build/sdcc-build/orig/sdcc/src/pic14/gen.c:1346:mov2w_op
                      06115 ;       .line   90; "../../../src/measure.c"    __delay_ms(10);
0031   300A           06116         MOVLW   0x0a    ;id=833,key=001,inCond:400,outCond:10,flow seq=052
                      06117 ;;      2120 left AOP_LIT
                      06118 ;; >>> /home/sdcc-builder/build/sdcc-build/orig/sdcc/src/pic14/gen.c:2128:genCall
                      06119 ;; ***  popRegFromIdx,1030  , rIdx=0x7f
                      06120 ;; BANKOPT1 BANKSEL dropped; STK00 present in all of (null)'s banks
0032   00??           06121         MOVWF   STK00   ;id=837,key=002,inCond:10,outCond:1,flow seq=052
                      06122 ;;; /home/sdcc-builder/build/sdcc-build/orig/sdcc/src/pic14/gen.c:1328:mov2w_op *{*
                      06123 ;; >>> /home/sdcc-builder/build/sdcc-build/orig/sdcc/src/pic14/gen.c:1346:mov2w_op
0033   3000           06124         MOVLW   0x00    ;id=840,key=003,inCond:400,outCond:10,flow seq=052
                      06125 ;; >>> /home/sdcc-builder/build/sdcc-build/orig/sdcc/src/pic14/gen.c:2160:genCall
0034   0??? 0???      06126         PAGESEL _delay_ms       ;id=842,key=004,inCond:0,outCond:0,flow seq=052
                      06127 ;; >>> /home/sdcc-builder/build/sdcc-build/orig/sdcc/src/pic14/gen.c:2165:genCall
                      06128 ;; BANKOPT3 drop assumptions: PCI with label or call found
0036   2???           06129         CALL    _delay_ms       ;id=844,key=005,inCond:10,outCond:1e,flow seq=052
gpasm-1.5.2 #0 (Sep 16 2019) build/default/pr   9-16-2019  10:40:44         PAGE 117


LOC    OBJECT CODE    LINE  SOURCE TEXT
  VALUE

                      06130 ;<>Start of new flow, seq=0x53 ancestor = 0x52
                      06131 ;  from: 052 ; to: 054 
                      06132 ;; >>> /home/sdcc-builder/build/sdcc-build/orig/sdcc/src/pic14/gen.c:2173:genCall
0037   0??? 0???      06133         PAGESEL $       ;id=846,key=000,inCond:0,outCond:0,flow seq=053
                      06134 ;;; /home/sdcc-builder/build/sdcc-build/orig/sdcc/src/pic14/gen.c:1830:unsaveRegisters *{*
                      06135 ;; ***  unsaveRegisters  1832
                      06136 ;;; /home/sdcc-builder/build/sdcc-build/orig/sdcc/src/pic14/gen.c:2308:resultRemat *{*
                      06137 ;;; /home/sdcc-builder/build/sdcc-build/orig/sdcc/src/pic14/gen.c:2308:resultRemat *{*
                      06138 ;;; /home/sdcc-builder/build/sdcc-build/orig/sdcc/src/pic14/gen.c:2071:genCall *{*
                      06139 ;; ***  genCall  2073
                      06140 ;;; /home/sdcc-builder/build/sdcc-build/orig/sdcc/src/pic14/gen.c:1786:saveRegisters *{*
                      06141 ;; ***  saveRegisters  1788
                      06142 ;;      2120 left AOP_LIT
                      06143 ;;; /home/sdcc-builder/build/sdcc-build/orig/sdcc/src/pic14/gen.c:1328:mov2w_op *{*
                      06144 ;; >>> /home/sdcc-builder/build/sdcc-build/orig/sdcc/src/pic14/gen.c:1346:mov2w_op
                      06145 ;       .line   91; "../../../src/measure.c"    __delay_ms(10);
0039   300A           06146         MOVLW   0x0a    ;id=859,key=001,inCond:400,outCond:10,flow seq=053
                      06147 ;;      2120 left AOP_LIT
                      06148 ;; >>> /home/sdcc-builder/build/sdcc-build/orig/sdcc/src/pic14/gen.c:2128:genCall
                      06149 ;; ***  popRegFromIdx,1030  , rIdx=0x7f
                      06150 ;; BANKOPT1 BANKSEL dropped; STK00 present in all of (null)'s banks
003A   00??           06151         MOVWF   STK00   ;id=863,key=002,inCond:10,outCond:1,flow seq=053
                      06152 ;;; /home/sdcc-builder/build/sdcc-build/orig/sdcc/src/pic14/gen.c:1328:mov2w_op *{*
                      06153 ;; >>> /home/sdcc-builder/build/sdcc-build/orig/sdcc/src/pic14/gen.c:1346:mov2w_op
003B   3000           06154         MOVLW   0x00    ;id=866,key=003,inCond:400,outCond:10,flow seq=053
                      06155 ;; >>> /home/sdcc-builder/build/sdcc-build/orig/sdcc/src/pic14/gen.c:2160:genCall
003C   0??? 0???      06156         PAGESEL _delay_ms       ;id=868,key=004,inCond:0,outCond:0,flow seq=053
                      06157 ;; >>> /home/sdcc-builder/build/sdcc-build/orig/sdcc/src/pic14/gen.c:2165:genCall
                      06158 ;; BANKOPT3 drop assumptions: PCI with label or call found
003E   2???           06159         CALL    _delay_ms       ;id=870,key=005,inCond:10,outCond:1e,flow seq=053
                      06160 ;<>Start of new flow, seq=0x54 ancestor = 0x53
                      06161 ;  from: 053 ; to: 055 
                      06162 ;; >>> /home/sdcc-builder/build/sdcc-build/orig/sdcc/src/pic14/gen.c:2173:genCall
003F   0??? 0???      06163         PAGESEL $       ;id=872,key=000,inCond:0,outCond:0,flow seq=054
                      06164 ;;; /home/sdcc-builder/build/sdcc-build/orig/sdcc/src/pic14/gen.c:1830:unsaveRegisters *{*
                      06165 ;; ***  unsaveRegisters  1832
                      06166 ;;; /home/sdcc-builder/build/sdcc-build/orig/sdcc/src/pic14/gen.c:2308:resultRemat *{*
                      06167 ;;; /home/sdcc-builder/build/sdcc-build/orig/sdcc/src/pic14/gen.c:2308:resultRemat *{*
                      06168 ;;; /home/sdcc-builder/build/sdcc-build/orig/sdcc/src/pic14/gen.c:2071:genCall *{*
                      06169 ;; ***  genCall  2073
                      06170 ;;; /home/sdcc-builder/build/sdcc-build/orig/sdcc/src/pic14/gen.c:1786:saveRegisters *{*
                      06171 ;; ***  saveRegisters  1788
                      06172 ;;      2120 left AOP_LIT
                      06173 ;;; /home/sdcc-builder/build/sdcc-build/orig/sdcc/src/pic14/gen.c:1328:mov2w_op *{*
                      06174 ;; >>> /home/sdcc-builder/build/sdcc-build/orig/sdcc/src/pic14/gen.c:1346:mov2w_op
                      06175 ;       .line   92; "../../../src/measure.c"    __delay_ms(10);
0041   300A           06176         MOVLW   0x0a    ;id=885,key=001,inCond:400,outCond:10,flow seq=054
                      06177 ;;      2120 left AOP_LIT
                      06178 ;; >>> /home/sdcc-builder/build/sdcc-build/orig/sdcc/src/pic14/gen.c:2128:genCall
                      06179 ;; ***  popRegFromIdx,1030  , rIdx=0x7f
                      06180 ;; BANKOPT1 BANKSEL dropped; STK00 present in all of (null)'s banks
0042   00??           06181         MOVWF   STK00   ;id=889,key=002,inCond:10,outCond:1,flow seq=054
                      06182 ;;; /home/sdcc-builder/build/sdcc-build/orig/sdcc/src/pic14/gen.c:1328:mov2w_op *{*
gpasm-1.5.2 #0 (Sep 16 2019) build/default/pr   9-16-2019  10:40:44         PAGE 118


LOC    OBJECT CODE    LINE  SOURCE TEXT
  VALUE

                      06183 ;; >>> /home/sdcc-builder/build/sdcc-build/orig/sdcc/src/pic14/gen.c:1346:mov2w_op
0043   3000           06184         MOVLW   0x00    ;id=892,key=003,inCond:400,outCond:10,flow seq=054
                      06185 ;; >>> /home/sdcc-builder/build/sdcc-build/orig/sdcc/src/pic14/gen.c:2160:genCall
0044   0??? 0???      06186         PAGESEL _delay_ms       ;id=894,key=004,inCond:0,outCond:0,flow seq=054
                      06187 ;; >>> /home/sdcc-builder/build/sdcc-build/orig/sdcc/src/pic14/gen.c:2165:genCall
                      06188 ;; BANKOPT3 drop assumptions: PCI with label or call found
0046   2???           06189         CALL    _delay_ms       ;id=896,key=005,inCond:10,outCond:1e,flow seq=054
                      06190 ;<>Start of new flow, seq=0x55 ancestor = 0x54
                      06191 ;  from: 054 ; to: 056 
                      06192 ;; >>> /home/sdcc-builder/build/sdcc-build/orig/sdcc/src/pic14/gen.c:2173:genCall
0047   0??? 0???      06193         PAGESEL $       ;id=898,key=000,inCond:0,outCond:0,flow seq=055
                      06194 ;;; /home/sdcc-builder/build/sdcc-build/orig/sdcc/src/pic14/gen.c:1830:unsaveRegisters *{*
                      06195 ;; ***  unsaveRegisters  1832
                      06196 ;;; /home/sdcc-builder/build/sdcc-build/orig/sdcc/src/pic14/gen.c:2308:resultRemat *{*
                      06197 ;;; /home/sdcc-builder/build/sdcc-build/orig/sdcc/src/pic14/gen.c:2308:resultRemat *{*
                      06198 ;;; /home/sdcc-builder/build/sdcc-build/orig/sdcc/src/pic14/gen.c:2071:genCall *{*
                      06199 ;; ***  genCall  2073
                      06200 ;;; /home/sdcc-builder/build/sdcc-build/orig/sdcc/src/pic14/gen.c:1786:saveRegisters *{*
                      06201 ;; ***  saveRegisters  1788
                      06202 ;;      2120 left AOP_LIT
                      06203 ;;; /home/sdcc-builder/build/sdcc-build/orig/sdcc/src/pic14/gen.c:1328:mov2w_op *{*
                      06204 ;; >>> /home/sdcc-builder/build/sdcc-build/orig/sdcc/src/pic14/gen.c:1346:mov2w_op
                      06205 ;       .line   93; "../../../src/measure.c"    __delay_ms(10);
0049   300A           06206         MOVLW   0x0a    ;id=911,key=001,inCond:400,outCond:10,flow seq=055
                      06207 ;;      2120 left AOP_LIT
                      06208 ;; >>> /home/sdcc-builder/build/sdcc-build/orig/sdcc/src/pic14/gen.c:2128:genCall
                      06209 ;; ***  popRegFromIdx,1030  , rIdx=0x7f
                      06210 ;; BANKOPT1 BANKSEL dropped; STK00 present in all of (null)'s banks
004A   00??           06211         MOVWF   STK00   ;id=915,key=002,inCond:10,outCond:1,flow seq=055
                      06212 ;;; /home/sdcc-builder/build/sdcc-build/orig/sdcc/src/pic14/gen.c:1328:mov2w_op *{*
                      06213 ;; >>> /home/sdcc-builder/build/sdcc-build/orig/sdcc/src/pic14/gen.c:1346:mov2w_op
004B   3000           06214         MOVLW   0x00    ;id=918,key=003,inCond:400,outCond:10,flow seq=055
                      06215 ;; >>> /home/sdcc-builder/build/sdcc-build/orig/sdcc/src/pic14/gen.c:2160:genCall
004C   0??? 0???      06216         PAGESEL _delay_ms       ;id=920,key=004,inCond:0,outCond:0,flow seq=055
                      06217 ;; >>> /home/sdcc-builder/build/sdcc-build/orig/sdcc/src/pic14/gen.c:2165:genCall
                      06218 ;; BANKOPT3 drop assumptions: PCI with label or call found
004E   2???           06219         CALL    _delay_ms       ;id=922,key=005,inCond:10,outCond:1e,flow seq=055
                      06220 ;<>Start of new flow, seq=0x56 ancestor = 0x55
                      06221 ;  from: 055 ; to: 057 
                      06222 ;; >>> /home/sdcc-builder/build/sdcc-build/orig/sdcc/src/pic14/gen.c:2173:genCall
004F   0??? 0???      06223         PAGESEL $       ;id=924,key=000,inCond:0,outCond:0,flow seq=056
                      06224 ;;; /home/sdcc-builder/build/sdcc-build/orig/sdcc/src/pic14/gen.c:1830:unsaveRegisters *{*
                      06225 ;; ***  unsaveRegisters  1832
                      06226 ;;; /home/sdcc-builder/build/sdcc-build/orig/sdcc/src/pic14/gen.c:2308:resultRemat *{*
                      06227 ;;; /home/sdcc-builder/build/sdcc-build/orig/sdcc/src/pic14/gen.c:2308:resultRemat *{*
                      06228 ;;; /home/sdcc-builder/build/sdcc-build/orig/sdcc/src/pic14/gen.c:2071:genCall *{*
                      06229 ;; ***  genCall  2073
                      06230 ;;; /home/sdcc-builder/build/sdcc-build/orig/sdcc/src/pic14/gen.c:1786:saveRegisters *{*
                      06231 ;; ***  saveRegisters  1788
                      06232 ;;      2120 left AOP_LIT
                      06233 ;;; /home/sdcc-builder/build/sdcc-build/orig/sdcc/src/pic14/gen.c:1328:mov2w_op *{*
                      06234 ;; >>> /home/sdcc-builder/build/sdcc-build/orig/sdcc/src/pic14/gen.c:1346:mov2w_op
                      06235 ;       .line   94; "../../../src/measure.c"    __delay_ms(10);
gpasm-1.5.2 #0 (Sep 16 2019) build/default/pr   9-16-2019  10:40:44         PAGE 119


LOC    OBJECT CODE    LINE  SOURCE TEXT
  VALUE

0051   300A           06236         MOVLW   0x0a    ;id=937,key=001,inCond:400,outCond:10,flow seq=056
                      06237 ;;      2120 left AOP_LIT
                      06238 ;; >>> /home/sdcc-builder/build/sdcc-build/orig/sdcc/src/pic14/gen.c:2128:genCall
                      06239 ;; ***  popRegFromIdx,1030  , rIdx=0x7f
                      06240 ;; BANKOPT1 BANKSEL dropped; STK00 present in all of (null)'s banks
0052   00??           06241         MOVWF   STK00   ;id=941,key=002,inCond:10,outCond:1,flow seq=056
                      06242 ;;; /home/sdcc-builder/build/sdcc-build/orig/sdcc/src/pic14/gen.c:1328:mov2w_op *{*
                      06243 ;; >>> /home/sdcc-builder/build/sdcc-build/orig/sdcc/src/pic14/gen.c:1346:mov2w_op
0053   3000           06244         MOVLW   0x00    ;id=944,key=003,inCond:400,outCond:10,flow seq=056
                      06245 ;; >>> /home/sdcc-builder/build/sdcc-build/orig/sdcc/src/pic14/gen.c:2160:genCall
0054   0??? 0???      06246         PAGESEL _delay_ms       ;id=946,key=004,inCond:0,outCond:0,flow seq=056
                      06247 ;; >>> /home/sdcc-builder/build/sdcc-build/orig/sdcc/src/pic14/gen.c:2165:genCall
                      06248 ;; BANKOPT3 drop assumptions: PCI with label or call found
0056   2???           06249         CALL    _delay_ms       ;id=948,key=005,inCond:10,outCond:1e,flow seq=056
                      06250 ;<>Start of new flow, seq=0x57 ancestor = 0x56
                      06251 ;  from: 056 ; to: 058 
                      06252 ;; >>> /home/sdcc-builder/build/sdcc-build/orig/sdcc/src/pic14/gen.c:2173:genCall
0057   0??? 0???      06253         PAGESEL $       ;id=950,key=000,inCond:0,outCond:0,flow seq=057
                      06254 ;;; /home/sdcc-builder/build/sdcc-build/orig/sdcc/src/pic14/gen.c:1830:unsaveRegisters *{*
                      06255 ;; ***  unsaveRegisters  1832
                      06256 ;;; /home/sdcc-builder/build/sdcc-build/orig/sdcc/src/pic14/gen.c:2308:resultRemat *{*
                      06257 ;;; /home/sdcc-builder/build/sdcc-build/orig/sdcc/src/pic14/gen.c:2308:resultRemat *{*
                      06258 ;;; /home/sdcc-builder/build/sdcc-build/orig/sdcc/src/pic14/gen.c:2071:genCall *{*
                      06259 ;; ***  genCall  2073
                      06260 ;;; /home/sdcc-builder/build/sdcc-build/orig/sdcc/src/pic14/gen.c:1786:saveRegisters *{*
                      06261 ;; ***  saveRegisters  1788
                      06262 ;;      2120 left AOP_LIT
                      06263 ;;; /home/sdcc-builder/build/sdcc-build/orig/sdcc/src/pic14/gen.c:1328:mov2w_op *{*
                      06264 ;; >>> /home/sdcc-builder/build/sdcc-build/orig/sdcc/src/pic14/gen.c:1346:mov2w_op
                      06265 ;       .line   95; "../../../src/measure.c"    __delay_ms(10);
0059   300A           06266         MOVLW   0x0a    ;id=963,key=001,inCond:400,outCond:10,flow seq=057
                      06267 ;;      2120 left AOP_LIT
                      06268 ;; >>> /home/sdcc-builder/build/sdcc-build/orig/sdcc/src/pic14/gen.c:2128:genCall
                      06269 ;; ***  popRegFromIdx,1030  , rIdx=0x7f
                      06270 ;; BANKOPT1 BANKSEL dropped; STK00 present in all of (null)'s banks
005A   00??           06271         MOVWF   STK00   ;id=967,key=002,inCond:10,outCond:1,flow seq=057
                      06272 ;;; /home/sdcc-builder/build/sdcc-build/orig/sdcc/src/pic14/gen.c:1328:mov2w_op *{*
                      06273 ;; >>> /home/sdcc-builder/build/sdcc-build/orig/sdcc/src/pic14/gen.c:1346:mov2w_op
005B   3000           06274         MOVLW   0x00    ;id=970,key=003,inCond:400,outCond:10,flow seq=057
                      06275 ;; >>> /home/sdcc-builder/build/sdcc-build/orig/sdcc/src/pic14/gen.c:2160:genCall
005C   0??? 0???      06276         PAGESEL _delay_ms       ;id=972,key=004,inCond:0,outCond:0,flow seq=057
                      06277 ;; >>> /home/sdcc-builder/build/sdcc-build/orig/sdcc/src/pic14/gen.c:2165:genCall
                      06278 ;; BANKOPT3 drop assumptions: PCI with label or call found
005E   2???           06279         CALL    _delay_ms       ;id=974,key=005,inCond:10,outCond:1e,flow seq=057
                      06280 ;<>Start of new flow, seq=0x58 ancestor = 0x57
                      06281 ;  from: 057 ; to: 059 
                      06282 ;; >>> /home/sdcc-builder/build/sdcc-build/orig/sdcc/src/pic14/gen.c:2173:genCall
005F   0??? 0???      06283         PAGESEL $       ;id=976,key=000,inCond:0,outCond:0,flow seq=058
                      06284 ;;; /home/sdcc-builder/build/sdcc-build/orig/sdcc/src/pic14/gen.c:1830:unsaveRegisters *{*
                      06285 ;; ***  unsaveRegisters  1832
                      06286 ;;; /home/sdcc-builder/build/sdcc-build/orig/sdcc/src/pic14/gen.c:2308:resultRemat *{*
                      06287 ;;; /home/sdcc-builder/build/sdcc-build/orig/sdcc/src/pic14/gen.c:3938:genAnd *{*
                      06288 ;; ***  genAnd  3939
gpasm-1.5.2 #0 (Sep 16 2019) build/default/pr   9-16-2019  10:40:44         PAGE 120


LOC    OBJECT CODE    LINE  SOURCE TEXT
  VALUE

                      06289 ;; ***  aopForSym 316
                      06290 ;;      328 sym->rname = _PORTC, size = 1
                      06291 ;;      576
                      06292 ;;      line = 3974 result AOP_DIR=_PORTC, size=1, left AOP_DIR=_PORTC, size=1, right AOP_LIT=0xfd, size
                            =1
                      06293 ;; >>> /home/sdcc-builder/build/sdcc-build/orig/sdcc/src/pic14/gen.c:4141:genAnd
                      06294 ;       .line   97; "../../../src/measure.c"    SET_LED(0);
0061   0??? 0???      06295         BANKSEL _PORTC  ;id=6768,key=001,inCond:0,outCond:0,flow seq=058
0063   10??           06296         BCF     _PORTC,1        ;id=988,key=002,inCond:21,outCond:21,flow seq=058
                      06297 ;;; /home/sdcc-builder/build/sdcc-build/orig/sdcc/src/pic14/gen.c:2308:resultRemat *{*
                      06298 ;;; /home/sdcc-builder/build/sdcc-build/orig/sdcc/src/pic14/gen.c:7036:genAssign *{*
                      06299 ;; ***  genAssign  7037
                      06300 ;;; /home/sdcc-builder/build/sdcc-build/orig/sdcc/src/pic14/gen.c:2308:resultRemat *{*
                      06301 ;;; /home/sdcc-builder/build/sdcc-build/orig/sdcc/src/pic14/gen.c:4239:genOr *{*
                      06302 ;; ***  genOr  4240
                      06303 ;; ***  aopForSym 316
                      06304 ;;      328 sym->rname = _TRISA, size = 1
                      06305 ;;      line = 4246 result AOP_DIR=_TRISA, size=1, left AOP_DIR=_TRISA, size=1, right AOP_LIT=0x10, size
                            =1
                      06306 ;;      line = 4272 result AOP_DIR=_TRISA, size=1, left AOP_DIR=_TRISA, size=1, right AOP_LIT=0x10, size
                            =1
                      06307 ;; >>> /home/sdcc-builder/build/sdcc-build/orig/sdcc/src/pic14/gen.c:4423:genOr
                      06308 ;       .line   100; "../../../src/measure.c"   TRISA |= 0b00010000;
0064   0??? 0???      06309         BANKSEL _TRISA  ;id=6769,key=003,inCond:0,outCond:0,flow seq=058
0066   16??           06310         BSF     _TRISA,4        ;id=1001,key=004,inCond:21,outCond:21,flow seq=058
                      06311 ;;; /home/sdcc-builder/build/sdcc-build/orig/sdcc/src/pic14/gen.c:2308:resultRemat *{*
                      06312 ;;; /home/sdcc-builder/build/sdcc-build/orig/sdcc/src/pic14/gen.c:2071:genCall *{*
                      06313 ;; ***  genCall  2073
                      06314 ;;; /home/sdcc-builder/build/sdcc-build/orig/sdcc/src/pic14/gen.c:1786:saveRegisters *{*
                      06315 ;; ***  saveRegisters  1788
                      06316 ;; >>> /home/sdcc-builder/build/sdcc-build/orig/sdcc/src/pic14/gen.c:2160:genCall
                      06317 ;       .line   103; "../../../src/measure.c"   count = timer0_read_ps();
0067   0??? 0???      06318         PAGESEL _timer0_read_ps ;id=1009,key=005,inCond:0,outCond:0,flow seq=058
                      06319 ;; >>> /home/sdcc-builder/build/sdcc-build/orig/sdcc/src/pic14/gen.c:2165:genCall
                      06320 ;; BANKOPT3 drop assumptions: PCI with label or call found
0069   2???           06321         CALL    _timer0_read_ps ;id=1011,key=006,inCond:10,outCond:1e,flow seq=058
                      06322 ;<>Start of new flow, seq=0x59 ancestor = 0x58
                      06323 ;  from: 058 ; to: 
                      06324 ;; >>> /home/sdcc-builder/build/sdcc-build/orig/sdcc/src/pic14/gen.c:2173:genCall
006A   0??? 0???      06325         PAGESEL $       ;id=1013,key=000,inCond:0,outCond:0,flow seq=059
                      06326 ;;      695 register type nRegs=2
                      06327 ;;; /home/sdcc-builder/build/sdcc-build/orig/sdcc/src/pic14/gen.c:1892:assignResultValue *{*
                      06328 ;; ***  assignResultValue  1894
                      06329 ;;      line = 1896 result -=-, size=0, left AOP_REG=r0x104A, size=2, right -=-, size=0
                      06330 ;; >>> /home/sdcc-builder/build/sdcc-build/orig/sdcc/src/pic14/gen.c:1378:movwf
                      06331 ;;      1097 rIdx = r0x104B 
006C   0??? 0???      06332         BANKSEL r0x1012 ;id=6771,key=001,inCond:0,outCond:0,flow seq=059
006E   00??           06333         MOVWF   r0x1012 ;id=1020,key=002,inCond:10,outCond:1,flow seq=059,rIdx=r0x104B
                      06334 ;; >>> /home/sdcc-builder/build/sdcc-build/orig/sdcc/src/pic14/gen.c:1408:get_returnvalue
                      06335 ;; ***  popRegFromIdx,1030  , rIdx=0x7f
                      06336 ;; BANKOPT1 BANKSEL dropped; STK00 present in all of r0x1012's banks
006F   08??           06337         MOVF    STK00,W ;id=1023,key=003,inCond:1,outCond:14,flow seq=059
                      06338 ;; >>> /home/sdcc-builder/build/sdcc-build/orig/sdcc/src/pic14/gen.c:1378:movwf
gpasm-1.5.2 #0 (Sep 16 2019) build/default/pr   9-16-2019  10:40:44         PAGE 121


LOC    OBJECT CODE    LINE  SOURCE TEXT
  VALUE

                      06339 ;;      1097 rIdx = r0x104A 
                      06340 ;;1     MOVWF   r0x1013
                      06341 ;; BANKOPT1 BANKSEL dropped; STK00 present in all of r0x1012's banks
                      06342 ;       .line   111; "../../../src/measure.c"   return count;
0070   00??           06343         MOVWF   STK00   ;id=1042,key=004,inCond:10,outCond:1,flow seq=059
                      06344 ;;; /home/sdcc-builder/build/sdcc-build/orig/sdcc/src/pic14/gen.c:1328:mov2w_op *{*
                      06345 ;; ***  mov2w  1366  offset=1
                      06346 ;; >>> /home/sdcc-builder/build/sdcc-build/orig/sdcc/src/pic14/gen.c:1371:mov2w
                      06347 ;;      1097 rIdx = r0x104B 
                      06348 ;; BANKOPT2 BANKSEL dropped; r0x1012 present in same bank as r0x1012
0071   08??           06349         MOVF    r0x1012,W       ;id=1047,key=005,inCond:1,outCond:14,flow seq=059,rIdx=r0x104B
                      06350 ;;; /home/sdcc-builder/build/sdcc-build/orig/sdcc/src/pic14/gen.c:2308:resultRemat *{*
                      06351 ;;; /home/sdcc-builder/build/sdcc-build/orig/sdcc/src/pic14/gen.c:2752:genLabel *{*
                      06352 ;; ***  genLabel  2755
                      06353 ;_00109_DS_:
                      06354 ;;; /home/sdcc-builder/build/sdcc-build/orig/sdcc/src/pic14/gen.c:2308:resultRemat *{*
                      06355 ;;; /home/sdcc-builder/build/sdcc-build/orig/sdcc/src/pic14/gen.c:2520:genEndFunction *{*
                      06356 ;; ***  genEndFunction  2522
                      06357 ;return
                      06358 ;       .line   112; "../../../src/measure.c"   }
0072   0008           06359         RETURN          ;id=1058,key=006,inCond:10,outCond:e,flow seq=059
                      06360 ;<>Start of new flow, seq=0x5a
                      06361 ;  from: ; to: 
                      06362 ; exit point of _measure_freq
                      06363 ;;; /home/sdcc-builder/build/sdcc-build/orig/sdcc/src/pic14/gen.c:7535:genpic14Code *{*
                      06364 
                      06365 ;***
                      06366 ;  pBlock Stats: dbName = C
                      06367 ;***
                      06368 ;has an exit
                      06369 ;functions called:
                      06370 ;   _measure_freq
                      06371 ;   ___uint2fs
                      06372 ;   _delay10ms
                      06373 ;   _measure_freq
                      06374 ;   ___uint2fs
                      06375 ;   _measure_freq
                      06376 ;   ___uint2fs
                      06377 ;   _delay10ms
                      06378 ;   _measure_freq
                      06379 ;   ___uint2fs
                      06380 ;   _uart_puts
                      06381 ;   _measure_freq
                      06382 ;   ___uint2fs
                      06383 ;   _delay10ms
                      06384 ;   _measure_freq
                      06385 ;   ___uint2fs
                      06386 ;   _measure_freq
                      06387 ;   ___uint2fs
                      06388 ;   _delay10ms
                      06389 ;   _measure_freq
                      06390 ;   ___uint2fs
                      06391 ;   _uart_puts
gpasm-1.5.2 #0 (Sep 16 2019) build/default/pr   9-16-2019  10:40:44         PAGE 122


LOC    OBJECT CODE    LINE  SOURCE TEXT
  VALUE

                      06392 ;6 compiler assigned registers:
                      06393 ;   r0x1028
                      06394 ;   STK00
                      06395 ;   r0x1029
                      06396 ;   STK01
                      06397 ;   STK02
                      06398 ;   r0x102A
                      06399 ;; Starting pCode block
                      06400 ;<>Start of new flow, seq=0x5b ancestor = 0x5b
                      06401 ;  from: ; to: 05c 
                      06402 ;;; /home/sdcc-builder/build/sdcc-build/orig/sdcc/src/pic14/gen.c:2308:resultRemat *{*
                      06403 ;;; /home/sdcc-builder/build/sdcc-build/orig/sdcc/src/pic14/gen.c:2752:genLabel *{*
                      06404 ;; ***  genLabel  2755
                      06405 ;;; /home/sdcc-builder/build/sdcc-build/orig/sdcc/src/pic14/gen.c:2308:resultRemat *{*
                      06406 ;;; /home/sdcc-builder/build/sdcc-build/orig/sdcc/src/pic14/gen.c:2332:genFunction *{*
                      06407 ;; ***  genFunction  2334 curr label offset=0previous max_key=0 
                      06408 ;;      -----------------------------------------
                      06409 ;;       function calibrate
                      06410 ;;      -----------------------------------------
                      06411 ;_calibrate:
                      06412 S_measure__calibrate    code
0000                  06413 _calibrate:
                      06414 ; 2 exit points
                      06415 ;;; /home/sdcc-builder/build/sdcc-build/orig/sdcc/src/pic14/gen.c:2308:resultRemat *{*
                      06416 ;;; /home/sdcc-builder/build/sdcc-build/orig/sdcc/src/pic14/gen.c:3938:genAnd *{*
                      06417 ;; ***  genAnd  3939
                      06418 ;; ***  aopForSym 316
                      06419 ;;      328 sym->rname = _PORTC, size = 1
                      06420 ;;      576
                      06421 ;;      line = 3974 result AOP_DIR=_PORTC, size=1, left AOP_DIR=_PORTC, size=1, right AOP_LIT=0xdf, size
                            =1
                      06422 ;; >>> /home/sdcc-builder/build/sdcc-build/orig/sdcc/src/pic14/gen.c:4141:genAnd
                      06423 ;       .line   38; "../../../src/measure.c"    REMOVE_CCAL();
0000   0??? 0???      06424         BANKSEL _PORTC  ;id=6775,key=000,inCond:0,outCond:0,flow seq=05b
0002   12??           06425         BCF     _PORTC,5        ;id=125,key=001,inCond:21,outCond:21,flow seq=05b
                      06426 ;;; /home/sdcc-builder/build/sdcc-build/orig/sdcc/src/pic14/gen.c:2308:resultRemat *{*
                      06427 ;;; /home/sdcc-builder/build/sdcc-build/orig/sdcc/src/pic14/gen.c:2071:genCall *{*
                      06428 ;; ***  genCall  2073
                      06429 ;;; /home/sdcc-builder/build/sdcc-build/orig/sdcc/src/pic14/gen.c:1786:saveRegisters *{*
                      06430 ;; ***  saveRegisters  1788
                      06431 ;; >>> /home/sdcc-builder/build/sdcc-build/orig/sdcc/src/pic14/gen.c:2160:genCall
                      06432 ;       .line   40; "../../../src/measure.c"    F1 = (double)measure_freq(); // dummy reading to stabili
                            ze oscillator
0003   0??? 0???      06433         PAGESEL _measure_freq   ;id=133,key=002,inCond:0,outCond:0,flow seq=05b
                      06434 ;; >>> /home/sdcc-builder/build/sdcc-build/orig/sdcc/src/pic14/gen.c:2165:genCall
                      06435 ;; BANKOPT3 drop assumptions: PCI with label or call found
0005   2???           06436         CALL    _measure_freq   ;id=135,key=003,inCond:10,outCond:1e,flow seq=05b
                      06437 ;<>Start of new flow, seq=0x5c ancestor = 0x5b
                      06438 ;  from: 05b ; to: 05d 
                      06439 ;; >>> /home/sdcc-builder/build/sdcc-build/orig/sdcc/src/pic14/gen.c:2173:genCall
0006   0??? 0???      06440         PAGESEL $       ;id=137,key=000,inCond:0,outCond:0,flow seq=05c
                      06441 ;;      695 register type nRegs=2
                      06442 ;;; /home/sdcc-builder/build/sdcc-build/orig/sdcc/src/pic14/gen.c:1892:assignResultValue *{*
gpasm-1.5.2 #0 (Sep 16 2019) build/default/pr   9-16-2019  10:40:44         PAGE 123


LOC    OBJECT CODE    LINE  SOURCE TEXT
  VALUE

                      06443 ;; ***  assignResultValue  1894
                      06444 ;;      line = 1896 result -=-, size=0, left AOP_REG=r0x1047, size=2, right -=-, size=0
                      06445 ;; >>> /home/sdcc-builder/build/sdcc-build/orig/sdcc/src/pic14/gen.c:1378:movwf
                      06446 ;;      1097 rIdx = r0x1048 
0008   0??? 0???      06447         BANKSEL r0x1028 ;id=6777,key=001,inCond:0,outCond:0,flow seq=05c
000A   00??           06448         MOVWF   r0x1028 ;id=144,key=002,inCond:10,outCond:1,flow seq=05c,rIdx=r0x1048
                      06449 ;; >>> /home/sdcc-builder/build/sdcc-build/orig/sdcc/src/pic14/gen.c:1408:get_returnvalue
                      06450 ;; ***  popRegFromIdx,1030  , rIdx=0x7f
                      06451 ;; BANKOPT1 BANKSEL dropped; STK00 present in all of r0x1028's banks
000B   08??           06452         MOVF    STK00,W ;id=147,key=003,inCond:1,outCond:14,flow seq=05c
                      06453 ;; >>> /home/sdcc-builder/build/sdcc-build/orig/sdcc/src/pic14/gen.c:1378:movwf
                      06454 ;;      1097 rIdx = r0x1047 
                      06455 ;; BANKOPT2 BANKSEL dropped; r0x1029 present in same bank as r0x1028
000C   00??           06456         MOVWF   r0x1029 ;id=5930,key=004,inCond:10,outCond:1,flow seq=05c,rIdx=r0x1047
                      06457 ;; BANKOPT1 BANKSEL dropped; STK00 present in all of r0x1028's banks
000D   00??           06458         MOVWF   STK00   ;id=171,key=005,inCond:10,outCond:1,flow seq=05c
                      06459 ;;; /home/sdcc-builder/build/sdcc-build/orig/sdcc/src/pic14/gen.c:1328:mov2w_op *{*
                      06460 ;; ***  mov2w  1366  offset=1
                      06461 ;; >>> /home/sdcc-builder/build/sdcc-build/orig/sdcc/src/pic14/gen.c:1371:mov2w
                      06462 ;;      1097 rIdx = r0x1048 
                      06463 ;; BANKOPT2 BANKSEL dropped; r0x1028 present in same bank as r0x1028
000E   08??           06464         MOVF    r0x1028,W       ;id=176,key=006,inCond:1,outCond:14,flow seq=05c,rIdx=r0x1048
                      06465 ;; >>> /home/sdcc-builder/build/sdcc-build/orig/sdcc/src/pic14/gen.c:2160:genCall
000F   0??? 0???      06466         PAGESEL ___uint2fs      ;id=178,key=007,inCond:0,outCond:0,flow seq=05c
                      06467 ;; >>> /home/sdcc-builder/build/sdcc-build/orig/sdcc/src/pic14/gen.c:2165:genCall
                      06468 ;; BANKOPT3 drop assumptions: PCI with label or call found
0011   2???           06469         CALL    ___uint2fs      ;id=180,key=008,inCond:10,outCond:1e,flow seq=05c
                      06470 ;<>Start of new flow, seq=0x5d ancestor = 0x5c
                      06471 ;  from: 05c ; to: 05e 
                      06472 ;; >>> /home/sdcc-builder/build/sdcc-build/orig/sdcc/src/pic14/gen.c:2173:genCall
0012   0??? 0???      06473         PAGESEL $       ;id=182,key=000,inCond:0,outCond:0,flow seq=05d
                      06474 ;; ***  aopForSym 316
                      06475 ;;      328 sym->rname = _F1, size = 4
                      06476 ;;; /home/sdcc-builder/build/sdcc-build/orig/sdcc/src/pic14/gen.c:1892:assignResultValue *{*
                      06477 ;; ***  assignResultValue  1894
                      06478 ;;      line = 1896 result -=-, size=0, left AOP_DIR=_F1, size=4, right -=-, size=0
                      06479 ;; >>> /home/sdcc-builder/build/sdcc-build/orig/sdcc/src/pic14/gen.c:1378:movwf
                      06480 ;;      998
                      06481 ;;      1016  _F1   offset=3
0014   0??? 0???      06482         BANKSEL _F1     ;id=6783,key=001,inCond:0,outCond:0,flow seq=05d
0016   00??           06483         MOVWF   (_F1 + 3)       ;id=191,key=002,inCond:10,outCond:1,flow seq=05d
                      06484 ;; >>> /home/sdcc-builder/build/sdcc-build/orig/sdcc/src/pic14/gen.c:1408:get_returnvalue
                      06485 ;; ***  popRegFromIdx,1030  , rIdx=0x7f
                      06486 ;; BANKOPT1 BANKSEL dropped; STK00 present in all of _F1's banks
0017   08??           06487         MOVF    STK00,W ;id=194,key=003,inCond:1,outCond:14,flow seq=05d
                      06488 ;; >>> /home/sdcc-builder/build/sdcc-build/orig/sdcc/src/pic14/gen.c:1378:movwf
                      06489 ;;      998
                      06490 ;;      1016  _F1   offset=2
                      06491 ;; BANKOPT2 BANKSEL dropped; _F1 present in same bank as _F1
0018   00??           06492         MOVWF   (_F1 + 2)       ;id=198,key=004,inCond:10,outCond:1,flow seq=05d
                      06493 ;; >>> /home/sdcc-builder/build/sdcc-build/orig/sdcc/src/pic14/gen.c:1408:get_returnvalue
                      06494 ;; ***  popRegFromIdx,1030  , rIdx=0x7e
                      06495 ;; BANKOPT1 BANKSEL dropped; STK01 present in all of _F1's banks
gpasm-1.5.2 #0 (Sep 16 2019) build/default/pr   9-16-2019  10:40:44         PAGE 124


LOC    OBJECT CODE    LINE  SOURCE TEXT
  VALUE

0019   08??           06496         MOVF    STK01,W ;id=201,key=005,inCond:1,outCond:14,flow seq=05d
                      06497 ;; >>> /home/sdcc-builder/build/sdcc-build/orig/sdcc/src/pic14/gen.c:1378:movwf
                      06498 ;;      998
                      06499 ;;      1016  _F1   offset=1
                      06500 ;; BANKOPT2 BANKSEL dropped; _F1 present in same bank as _F1
001A   00??           06501         MOVWF   (_F1 + 1)       ;id=205,key=006,inCond:10,outCond:1,flow seq=05d
                      06502 ;; >>> /home/sdcc-builder/build/sdcc-build/orig/sdcc/src/pic14/gen.c:1408:get_returnvalue
                      06503 ;; ***  popRegFromIdx,1030  , rIdx=0x7d
                      06504 ;; BANKOPT1 BANKSEL dropped; STK02 present in all of _F1's banks
001B   08??           06505         MOVF    STK02,W ;id=208,key=007,inCond:1,outCond:14,flow seq=05d
                      06506 ;; >>> /home/sdcc-builder/build/sdcc-build/orig/sdcc/src/pic14/gen.c:1378:movwf
                      06507 ;;      998
                      06508 ;;      1016  _F1   offset=0
                      06509 ;; BANKOPT2 BANKSEL dropped; _F1 present in same bank as _F1
001C   00??           06510         MOVWF   _F1     ;id=212,key=008,inCond:10,outCond:1,flow seq=05d
                      06511 ;;      2188 left AOP_DIR
                      06512 ;;; /home/sdcc-builder/build/sdcc-build/orig/sdcc/src/pic14/gen.c:1830:unsaveRegisters *{*
                      06513 ;; ***  unsaveRegisters  1832
                      06514 ;;; /home/sdcc-builder/build/sdcc-build/orig/sdcc/src/pic14/gen.c:2308:resultRemat *{*
                      06515 ;;; /home/sdcc-builder/build/sdcc-build/orig/sdcc/src/pic14/gen.c:2308:resultRemat *{*
                      06516 ;;; /home/sdcc-builder/build/sdcc-build/orig/sdcc/src/pic14/gen.c:2071:genCall *{*
                      06517 ;; ***  genCall  2073
                      06518 ;;; /home/sdcc-builder/build/sdcc-build/orig/sdcc/src/pic14/gen.c:1786:saveRegisters *{*
                      06519 ;; ***  saveRegisters  1788
                      06520 ;;      2120 left AOP_LIT
                      06521 ;;; /home/sdcc-builder/build/sdcc-build/orig/sdcc/src/pic14/gen.c:1328:mov2w_op *{*
                      06522 ;; >>> /home/sdcc-builder/build/sdcc-build/orig/sdcc/src/pic14/gen.c:1346:mov2w_op
                      06523 ;       .line   41; "../../../src/measure.c"    delay10ms(50);
001D   3032           06524         MOVLW   0x32    ;id=226,key=009,inCond:400,outCond:10,flow seq=05d
                      06525 ;; >>> /home/sdcc-builder/build/sdcc-build/orig/sdcc/src/pic14/gen.c:2160:genCall
001E   0??? 0???      06526         PAGESEL _delay10ms      ;id=228,key=00a,inCond:0,outCond:0,flow seq=05d
                      06527 ;; >>> /home/sdcc-builder/build/sdcc-build/orig/sdcc/src/pic14/gen.c:2165:genCall
                      06528 ;; BANKOPT3 drop assumptions: PCI with label or call found
0020   2???           06529         CALL    _delay10ms      ;id=230,key=00b,inCond:10,outCond:1e,flow seq=05d
                      06530 ;<>Start of new flow, seq=0x5e ancestor = 0x5d
                      06531 ;  from: 05d ; to: 05f 
                      06532 ;; >>> /home/sdcc-builder/build/sdcc-build/orig/sdcc/src/pic14/gen.c:2173:genCall
0021   0??? 0???      06533         PAGESEL $       ;id=232,key=000,inCond:0,outCond:0,flow seq=05e
                      06534 ;;; /home/sdcc-builder/build/sdcc-build/orig/sdcc/src/pic14/gen.c:1830:unsaveRegisters *{*
                      06535 ;; ***  unsaveRegisters  1832
                      06536 ;;; /home/sdcc-builder/build/sdcc-build/orig/sdcc/src/pic14/gen.c:2308:resultRemat *{*
                      06537 ;;; /home/sdcc-builder/build/sdcc-build/orig/sdcc/src/pic14/gen.c:2071:genCall *{*
                      06538 ;; ***  genCall  2073
                      06539 ;;; /home/sdcc-builder/build/sdcc-build/orig/sdcc/src/pic14/gen.c:1786:saveRegisters *{*
                      06540 ;; ***  saveRegisters  1788
                      06541 ;; >>> /home/sdcc-builder/build/sdcc-build/orig/sdcc/src/pic14/gen.c:2160:genCall
                      06542 ;       .line   43; "../../../src/measure.c"    F1 = (double)measure_freq();
0023   0??? 0???      06543         PAGESEL _measure_freq   ;id=242,key=001,inCond:0,outCond:0,flow seq=05e
                      06544 ;; >>> /home/sdcc-builder/build/sdcc-build/orig/sdcc/src/pic14/gen.c:2165:genCall
                      06545 ;; BANKOPT3 drop assumptions: PCI with label or call found
0025   2???           06546         CALL    _measure_freq   ;id=244,key=002,inCond:10,outCond:1e,flow seq=05e
                      06547 ;<>Start of new flow, seq=0x5f ancestor = 0x5e
                      06548 ;  from: 05e ; to: 060 
gpasm-1.5.2 #0 (Sep 16 2019) build/default/pr   9-16-2019  10:40:44         PAGE 125


LOC    OBJECT CODE    LINE  SOURCE TEXT
  VALUE

                      06549 ;; >>> /home/sdcc-builder/build/sdcc-build/orig/sdcc/src/pic14/gen.c:2173:genCall
0026   0??? 0???      06550         PAGESEL $       ;id=246,key=000,inCond:0,outCond:0,flow seq=05f
                      06551 ;;      695 register type nRegs=2
                      06552 ;;; /home/sdcc-builder/build/sdcc-build/orig/sdcc/src/pic14/gen.c:1892:assignResultValue *{*
                      06553 ;; ***  assignResultValue  1894
                      06554 ;;      line = 1896 result -=-, size=0, left AOP_REG=r0x1047, size=2, right -=-, size=0
                      06555 ;; >>> /home/sdcc-builder/build/sdcc-build/orig/sdcc/src/pic14/gen.c:1378:movwf
                      06556 ;;      1097 rIdx = r0x1048 
0028   0??? 0???      06557         BANKSEL r0x1028 ;id=6792,key=001,inCond:0,outCond:0,flow seq=05f
002A   00??           06558         MOVWF   r0x1028 ;id=253,key=002,inCond:10,outCond:1,flow seq=05f,rIdx=r0x1048
                      06559 ;; >>> /home/sdcc-builder/build/sdcc-build/orig/sdcc/src/pic14/gen.c:1408:get_returnvalue
                      06560 ;; ***  popRegFromIdx,1030  , rIdx=0x7f
                      06561 ;; BANKOPT1 BANKSEL dropped; STK00 present in all of r0x1028's banks
002B   08??           06562         MOVF    STK00,W ;id=256,key=003,inCond:1,outCond:14,flow seq=05f
                      06563 ;; >>> /home/sdcc-builder/build/sdcc-build/orig/sdcc/src/pic14/gen.c:1378:movwf
                      06564 ;;      1097 rIdx = r0x1047 
                      06565 ;; BANKOPT2 BANKSEL dropped; r0x1029 present in same bank as r0x1028
002C   00??           06566         MOVWF   r0x1029 ;id=5931,key=004,inCond:10,outCond:1,flow seq=05f,rIdx=r0x1047
                      06567 ;; BANKOPT1 BANKSEL dropped; STK00 present in all of r0x1028's banks
002D   00??           06568         MOVWF   STK00   ;id=280,key=005,inCond:10,outCond:1,flow seq=05f
                      06569 ;;; /home/sdcc-builder/build/sdcc-build/orig/sdcc/src/pic14/gen.c:1328:mov2w_op *{*
                      06570 ;; ***  mov2w  1366  offset=1
                      06571 ;; >>> /home/sdcc-builder/build/sdcc-build/orig/sdcc/src/pic14/gen.c:1371:mov2w
                      06572 ;;      1097 rIdx = r0x1048 
                      06573 ;; BANKOPT2 BANKSEL dropped; r0x1028 present in same bank as r0x1028
002E   08??           06574         MOVF    r0x1028,W       ;id=285,key=006,inCond:1,outCond:14,flow seq=05f,rIdx=r0x1048
                      06575 ;; >>> /home/sdcc-builder/build/sdcc-build/orig/sdcc/src/pic14/gen.c:2160:genCall
002F   0??? 0???      06576         PAGESEL ___uint2fs      ;id=287,key=007,inCond:0,outCond:0,flow seq=05f
                      06577 ;; >>> /home/sdcc-builder/build/sdcc-build/orig/sdcc/src/pic14/gen.c:2165:genCall
                      06578 ;; BANKOPT3 drop assumptions: PCI with label or call found
0031   2???           06579         CALL    ___uint2fs      ;id=289,key=008,inCond:10,outCond:1e,flow seq=05f
                      06580 ;<>Start of new flow, seq=0x60 ancestor = 0x5f
                      06581 ;  from: 05f ; to: 061 
                      06582 ;; >>> /home/sdcc-builder/build/sdcc-build/orig/sdcc/src/pic14/gen.c:2173:genCall
0032   0??? 0???      06583         PAGESEL $       ;id=291,key=000,inCond:0,outCond:0,flow seq=060
                      06584 ;; ***  aopForSym 316
                      06585 ;;      328 sym->rname = _F1, size = 4
                      06586 ;;; /home/sdcc-builder/build/sdcc-build/orig/sdcc/src/pic14/gen.c:1892:assignResultValue *{*
                      06587 ;; ***  assignResultValue  1894
                      06588 ;;      line = 1896 result -=-, size=0, left AOP_DIR=_F1, size=4, right -=-, size=0
                      06589 ;; >>> /home/sdcc-builder/build/sdcc-build/orig/sdcc/src/pic14/gen.c:1378:movwf
                      06590 ;;      998
                      06591 ;;      1016  _F1   offset=3
0034   0??? 0???      06592         BANKSEL _F1     ;id=6798,key=001,inCond:0,outCond:0,flow seq=060
0036   00??           06593         MOVWF   (_F1 + 3)       ;id=300,key=002,inCond:10,outCond:1,flow seq=060
                      06594 ;; >>> /home/sdcc-builder/build/sdcc-build/orig/sdcc/src/pic14/gen.c:1408:get_returnvalue
                      06595 ;; ***  popRegFromIdx,1030  , rIdx=0x7f
                      06596 ;; BANKOPT1 BANKSEL dropped; STK00 present in all of _F1's banks
0037   08??           06597         MOVF    STK00,W ;id=303,key=003,inCond:1,outCond:14,flow seq=060
                      06598 ;; >>> /home/sdcc-builder/build/sdcc-build/orig/sdcc/src/pic14/gen.c:1378:movwf
                      06599 ;;      998
                      06600 ;;      1016  _F1   offset=2
                      06601 ;; BANKOPT2 BANKSEL dropped; _F1 present in same bank as _F1
gpasm-1.5.2 #0 (Sep 16 2019) build/default/pr   9-16-2019  10:40:44         PAGE 126


LOC    OBJECT CODE    LINE  SOURCE TEXT
  VALUE

0038   00??           06602         MOVWF   (_F1 + 2)       ;id=307,key=004,inCond:10,outCond:1,flow seq=060
                      06603 ;; >>> /home/sdcc-builder/build/sdcc-build/orig/sdcc/src/pic14/gen.c:1408:get_returnvalue
                      06604 ;; ***  popRegFromIdx,1030  , rIdx=0x7e
                      06605 ;; BANKOPT1 BANKSEL dropped; STK01 present in all of _F1's banks
0039   08??           06606         MOVF    STK01,W ;id=310,key=005,inCond:1,outCond:14,flow seq=060
                      06607 ;; >>> /home/sdcc-builder/build/sdcc-build/orig/sdcc/src/pic14/gen.c:1378:movwf
                      06608 ;;      998
                      06609 ;;      1016  _F1   offset=1
                      06610 ;; BANKOPT2 BANKSEL dropped; _F1 present in same bank as _F1
003A   00??           06611         MOVWF   (_F1 + 1)       ;id=314,key=006,inCond:10,outCond:1,flow seq=060
                      06612 ;; >>> /home/sdcc-builder/build/sdcc-build/orig/sdcc/src/pic14/gen.c:1408:get_returnvalue
                      06613 ;; ***  popRegFromIdx,1030  , rIdx=0x7d
                      06614 ;; BANKOPT1 BANKSEL dropped; STK02 present in all of _F1's banks
003B   08??           06615         MOVF    STK02,W ;id=317,key=007,inCond:1,outCond:14,flow seq=060
                      06616 ;; >>> /home/sdcc-builder/build/sdcc-build/orig/sdcc/src/pic14/gen.c:1378:movwf
                      06617 ;;      998
                      06618 ;;      1016  _F1   offset=0
                      06619 ;; BANKOPT2 BANKSEL dropped; _F1 present in same bank as _F1
003C   00??           06620         MOVWF   _F1     ;id=321,key=008,inCond:10,outCond:1,flow seq=060
                      06621 ;;      2188 left AOP_DIR
                      06622 ;;; /home/sdcc-builder/build/sdcc-build/orig/sdcc/src/pic14/gen.c:1830:unsaveRegisters *{*
                      06623 ;; ***  unsaveRegisters  1832
                      06624 ;;; /home/sdcc-builder/build/sdcc-build/orig/sdcc/src/pic14/gen.c:2308:resultRemat *{*
                      06625 ;;; /home/sdcc-builder/build/sdcc-build/orig/sdcc/src/pic14/gen.c:4239:genOr *{*
                      06626 ;; ***  genOr  4240
                      06627 ;; ***  aopForSym 316
                      06628 ;;      328 sym->rname = _PORTC, size = 1
                      06629 ;;      576
                      06630 ;;      line = 4246 result AOP_DIR=_PORTC, size=1, left AOP_DIR=_PORTC, size=1, right AOP_LIT=0x20, size
                            =1
                      06631 ;;      line = 4272 result AOP_DIR=_PORTC, size=1, left AOP_DIR=_PORTC, size=1, right AOP_LIT=0x20, size
                            =1
                      06632 ;; >>> /home/sdcc-builder/build/sdcc-build/orig/sdcc/src/pic14/gen.c:4423:genOr
                      06633 ;       .line   44; "../../../src/measure.c"    ADD_CCAL();
003D   0??? 0???      06634         BANKSEL _PORTC  ;id=6805,key=009,inCond:0,outCond:0,flow seq=060
003F   16??           06635         BSF     _PORTC,5        ;id=335,key=00a,inCond:21,outCond:21,flow seq=060
                      06636 ;;; /home/sdcc-builder/build/sdcc-build/orig/sdcc/src/pic14/gen.c:2308:resultRemat *{*
                      06637 ;;; /home/sdcc-builder/build/sdcc-build/orig/sdcc/src/pic14/gen.c:2071:genCall *{*
                      06638 ;; ***  genCall  2073
                      06639 ;;; /home/sdcc-builder/build/sdcc-build/orig/sdcc/src/pic14/gen.c:1786:saveRegisters *{*
                      06640 ;; ***  saveRegisters  1788
                      06641 ;; >>> /home/sdcc-builder/build/sdcc-build/orig/sdcc/src/pic14/gen.c:2160:genCall
                      06642 ;       .line   46; "../../../src/measure.c"    F2 = (double)measure_freq(); // dummy reading to stabili
                            ze oscillator
0040   0??? 0???      06643         PAGESEL _measure_freq   ;id=343,key=00b,inCond:0,outCond:0,flow seq=060
                      06644 ;; >>> /home/sdcc-builder/build/sdcc-build/orig/sdcc/src/pic14/gen.c:2165:genCall
                      06645 ;; BANKOPT3 drop assumptions: PCI with label or call found
0042   2???           06646         CALL    _measure_freq   ;id=345,key=00c,inCond:10,outCond:1e,flow seq=060
                      06647 ;<>Start of new flow, seq=0x61 ancestor = 0x60
                      06648 ;  from: 060 ; to: 062 
                      06649 ;; >>> /home/sdcc-builder/build/sdcc-build/orig/sdcc/src/pic14/gen.c:2173:genCall
0043   0??? 0???      06650         PAGESEL $       ;id=347,key=000,inCond:0,outCond:0,flow seq=061
                      06651 ;;      695 register type nRegs=2
gpasm-1.5.2 #0 (Sep 16 2019) build/default/pr   9-16-2019  10:40:44         PAGE 127


LOC    OBJECT CODE    LINE  SOURCE TEXT
  VALUE

                      06652 ;;; /home/sdcc-builder/build/sdcc-build/orig/sdcc/src/pic14/gen.c:1892:assignResultValue *{*
                      06653 ;; ***  assignResultValue  1894
                      06654 ;;      line = 1896 result -=-, size=0, left AOP_REG=r0x1047, size=2, right -=-, size=0
                      06655 ;; >>> /home/sdcc-builder/build/sdcc-build/orig/sdcc/src/pic14/gen.c:1378:movwf
                      06656 ;;      1097 rIdx = r0x1048 
0045   0??? 0???      06657         BANKSEL r0x1028 ;id=6807,key=001,inCond:0,outCond:0,flow seq=061
0047   00??           06658         MOVWF   r0x1028 ;id=354,key=002,inCond:10,outCond:1,flow seq=061,rIdx=r0x1048
                      06659 ;; >>> /home/sdcc-builder/build/sdcc-build/orig/sdcc/src/pic14/gen.c:1408:get_returnvalue
                      06660 ;; ***  popRegFromIdx,1030  , rIdx=0x7f
                      06661 ;; BANKOPT1 BANKSEL dropped; STK00 present in all of r0x1028's banks
0048   08??           06662         MOVF    STK00,W ;id=357,key=003,inCond:1,outCond:14,flow seq=061
                      06663 ;; >>> /home/sdcc-builder/build/sdcc-build/orig/sdcc/src/pic14/gen.c:1378:movwf
                      06664 ;;      1097 rIdx = r0x1047 
                      06665 ;; BANKOPT2 BANKSEL dropped; r0x1029 present in same bank as r0x1028
0049   00??           06666         MOVWF   r0x1029 ;id=5932,key=004,inCond:10,outCond:1,flow seq=061,rIdx=r0x1047
                      06667 ;; BANKOPT1 BANKSEL dropped; STK00 present in all of r0x1028's banks
004A   00??           06668         MOVWF   STK00   ;id=381,key=005,inCond:10,outCond:1,flow seq=061
                      06669 ;;; /home/sdcc-builder/build/sdcc-build/orig/sdcc/src/pic14/gen.c:1328:mov2w_op *{*
                      06670 ;; ***  mov2w  1366  offset=1
                      06671 ;; >>> /home/sdcc-builder/build/sdcc-build/orig/sdcc/src/pic14/gen.c:1371:mov2w
                      06672 ;;      1097 rIdx = r0x1048 
                      06673 ;; BANKOPT2 BANKSEL dropped; r0x1028 present in same bank as r0x1028
004B   08??           06674         MOVF    r0x1028,W       ;id=386,key=006,inCond:1,outCond:14,flow seq=061,rIdx=r0x1048
                      06675 ;; >>> /home/sdcc-builder/build/sdcc-build/orig/sdcc/src/pic14/gen.c:2160:genCall
004C   0??? 0???      06676         PAGESEL ___uint2fs      ;id=388,key=007,inCond:0,outCond:0,flow seq=061
                      06677 ;; >>> /home/sdcc-builder/build/sdcc-build/orig/sdcc/src/pic14/gen.c:2165:genCall
                      06678 ;; BANKOPT3 drop assumptions: PCI with label or call found
004E   2???           06679         CALL    ___uint2fs      ;id=390,key=008,inCond:10,outCond:1e,flow seq=061
                      06680 ;<>Start of new flow, seq=0x62 ancestor = 0x61
                      06681 ;  from: 061 ; to: 063 
                      06682 ;; >>> /home/sdcc-builder/build/sdcc-build/orig/sdcc/src/pic14/gen.c:2173:genCall
004F   0??? 0???      06683         PAGESEL $       ;id=392,key=000,inCond:0,outCond:0,flow seq=062
                      06684 ;; ***  aopForSym 316
                      06685 ;;      328 sym->rname = _F2, size = 4
                      06686 ;;; /home/sdcc-builder/build/sdcc-build/orig/sdcc/src/pic14/gen.c:1892:assignResultValue *{*
                      06687 ;; ***  assignResultValue  1894
                      06688 ;;      line = 1896 result -=-, size=0, left AOP_DIR=_F2, size=4, right -=-, size=0
                      06689 ;; >>> /home/sdcc-builder/build/sdcc-build/orig/sdcc/src/pic14/gen.c:1378:movwf
                      06690 ;;      998
                      06691 ;;      1016  _F2   offset=3
0051   0??? 0???      06692         BANKSEL _F2     ;id=6813,key=001,inCond:0,outCond:0,flow seq=062
0053   00??           06693         MOVWF   (_F2 + 3)       ;id=401,key=002,inCond:10,outCond:1,flow seq=062
                      06694 ;; >>> /home/sdcc-builder/build/sdcc-build/orig/sdcc/src/pic14/gen.c:1408:get_returnvalue
                      06695 ;; ***  popRegFromIdx,1030  , rIdx=0x7f
                      06696 ;; BANKOPT1 BANKSEL dropped; STK00 present in all of _F2's banks
0054   08??           06697         MOVF    STK00,W ;id=404,key=003,inCond:1,outCond:14,flow seq=062
                      06698 ;; >>> /home/sdcc-builder/build/sdcc-build/orig/sdcc/src/pic14/gen.c:1378:movwf
                      06699 ;;      998
                      06700 ;;      1016  _F2   offset=2
                      06701 ;; BANKOPT2 BANKSEL dropped; _F2 present in same bank as _F2
0055   00??           06702         MOVWF   (_F2 + 2)       ;id=408,key=004,inCond:10,outCond:1,flow seq=062
                      06703 ;; >>> /home/sdcc-builder/build/sdcc-build/orig/sdcc/src/pic14/gen.c:1408:get_returnvalue
                      06704 ;; ***  popRegFromIdx,1030  , rIdx=0x7e
gpasm-1.5.2 #0 (Sep 16 2019) build/default/pr   9-16-2019  10:40:44         PAGE 128


LOC    OBJECT CODE    LINE  SOURCE TEXT
  VALUE

                      06705 ;; BANKOPT1 BANKSEL dropped; STK01 present in all of _F2's banks
0056   08??           06706         MOVF    STK01,W ;id=411,key=005,inCond:1,outCond:14,flow seq=062
                      06707 ;; >>> /home/sdcc-builder/build/sdcc-build/orig/sdcc/src/pic14/gen.c:1378:movwf
                      06708 ;;      998
                      06709 ;;      1016  _F2   offset=1
                      06710 ;; BANKOPT2 BANKSEL dropped; _F2 present in same bank as _F2
0057   00??           06711         MOVWF   (_F2 + 1)       ;id=415,key=006,inCond:10,outCond:1,flow seq=062
                      06712 ;; >>> /home/sdcc-builder/build/sdcc-build/orig/sdcc/src/pic14/gen.c:1408:get_returnvalue
                      06713 ;; ***  popRegFromIdx,1030  , rIdx=0x7d
                      06714 ;; BANKOPT1 BANKSEL dropped; STK02 present in all of _F2's banks
0058   08??           06715         MOVF    STK02,W ;id=418,key=007,inCond:1,outCond:14,flow seq=062
                      06716 ;; >>> /home/sdcc-builder/build/sdcc-build/orig/sdcc/src/pic14/gen.c:1378:movwf
                      06717 ;;      998
                      06718 ;;      1016  _F2   offset=0
                      06719 ;; BANKOPT2 BANKSEL dropped; _F2 present in same bank as _F2
0059   00??           06720         MOVWF   _F2     ;id=422,key=008,inCond:10,outCond:1,flow seq=062
                      06721 ;;      2188 left AOP_DIR
                      06722 ;;; /home/sdcc-builder/build/sdcc-build/orig/sdcc/src/pic14/gen.c:1830:unsaveRegisters *{*
                      06723 ;; ***  unsaveRegisters  1832
                      06724 ;;; /home/sdcc-builder/build/sdcc-build/orig/sdcc/src/pic14/gen.c:2308:resultRemat *{*
                      06725 ;;; /home/sdcc-builder/build/sdcc-build/orig/sdcc/src/pic14/gen.c:2308:resultRemat *{*
                      06726 ;;; /home/sdcc-builder/build/sdcc-build/orig/sdcc/src/pic14/gen.c:2071:genCall *{*
                      06727 ;; ***  genCall  2073
                      06728 ;;; /home/sdcc-builder/build/sdcc-build/orig/sdcc/src/pic14/gen.c:1786:saveRegisters *{*
                      06729 ;; ***  saveRegisters  1788
                      06730 ;;      2120 left AOP_LIT
                      06731 ;;; /home/sdcc-builder/build/sdcc-build/orig/sdcc/src/pic14/gen.c:1328:mov2w_op *{*
                      06732 ;; >>> /home/sdcc-builder/build/sdcc-build/orig/sdcc/src/pic14/gen.c:1346:mov2w_op
                      06733 ;       .line   47; "../../../src/measure.c"    delay10ms(50);
005A   3032           06734         MOVLW   0x32    ;id=436,key=009,inCond:400,outCond:10,flow seq=062
                      06735 ;; >>> /home/sdcc-builder/build/sdcc-build/orig/sdcc/src/pic14/gen.c:2160:genCall
005B   0??? 0???      06736         PAGESEL _delay10ms      ;id=438,key=00a,inCond:0,outCond:0,flow seq=062
                      06737 ;; >>> /home/sdcc-builder/build/sdcc-build/orig/sdcc/src/pic14/gen.c:2165:genCall
                      06738 ;; BANKOPT3 drop assumptions: PCI with label or call found
005D   2???           06739         CALL    _delay10ms      ;id=440,key=00b,inCond:10,outCond:1e,flow seq=062
                      06740 ;<>Start of new flow, seq=0x63 ancestor = 0x62
                      06741 ;  from: 062 ; to: 064 
                      06742 ;; >>> /home/sdcc-builder/build/sdcc-build/orig/sdcc/src/pic14/gen.c:2173:genCall
005E   0??? 0???      06743         PAGESEL $       ;id=442,key=000,inCond:0,outCond:0,flow seq=063
                      06744 ;;; /home/sdcc-builder/build/sdcc-build/orig/sdcc/src/pic14/gen.c:1830:unsaveRegisters *{*
                      06745 ;; ***  unsaveRegisters  1832
                      06746 ;;; /home/sdcc-builder/build/sdcc-build/orig/sdcc/src/pic14/gen.c:2308:resultRemat *{*
                      06747 ;;; /home/sdcc-builder/build/sdcc-build/orig/sdcc/src/pic14/gen.c:2071:genCall *{*
                      06748 ;; ***  genCall  2073
                      06749 ;;; /home/sdcc-builder/build/sdcc-build/orig/sdcc/src/pic14/gen.c:1786:saveRegisters *{*
                      06750 ;; ***  saveRegisters  1788
                      06751 ;; >>> /home/sdcc-builder/build/sdcc-build/orig/sdcc/src/pic14/gen.c:2160:genCall
                      06752 ;       .line   49; "../../../src/measure.c"    F2 = (double)measure_freq();
0060   0??? 0???      06753         PAGESEL _measure_freq   ;id=452,key=001,inCond:0,outCond:0,flow seq=063
                      06754 ;; >>> /home/sdcc-builder/build/sdcc-build/orig/sdcc/src/pic14/gen.c:2165:genCall
                      06755 ;; BANKOPT3 drop assumptions: PCI with label or call found
0062   2???           06756         CALL    _measure_freq   ;id=454,key=002,inCond:10,outCond:1e,flow seq=063
                      06757 ;<>Start of new flow, seq=0x64 ancestor = 0x63
gpasm-1.5.2 #0 (Sep 16 2019) build/default/pr   9-16-2019  10:40:44         PAGE 129


LOC    OBJECT CODE    LINE  SOURCE TEXT
  VALUE

                      06758 ;  from: 063 ; to: 065 
                      06759 ;; >>> /home/sdcc-builder/build/sdcc-build/orig/sdcc/src/pic14/gen.c:2173:genCall
0063   0??? 0???      06760         PAGESEL $       ;id=456,key=000,inCond:0,outCond:0,flow seq=064
                      06761 ;;      695 register type nRegs=2
                      06762 ;;; /home/sdcc-builder/build/sdcc-build/orig/sdcc/src/pic14/gen.c:1892:assignResultValue *{*
                      06763 ;; ***  assignResultValue  1894
                      06764 ;;      line = 1896 result -=-, size=0, left AOP_REG=r0x1047, size=2, right -=-, size=0
                      06765 ;; >>> /home/sdcc-builder/build/sdcc-build/orig/sdcc/src/pic14/gen.c:1378:movwf
                      06766 ;;      1097 rIdx = r0x1048 
0065   0??? 0???      06767         BANKSEL r0x1028 ;id=6822,key=001,inCond:0,outCond:0,flow seq=064
0067   00??           06768         MOVWF   r0x1028 ;id=463,key=002,inCond:10,outCond:1,flow seq=064,rIdx=r0x1048
                      06769 ;; >>> /home/sdcc-builder/build/sdcc-build/orig/sdcc/src/pic14/gen.c:1408:get_returnvalue
                      06770 ;; ***  popRegFromIdx,1030  , rIdx=0x7f
                      06771 ;; BANKOPT1 BANKSEL dropped; STK00 present in all of r0x1028's banks
0068   08??           06772         MOVF    STK00,W ;id=466,key=003,inCond:1,outCond:14,flow seq=064
                      06773 ;; >>> /home/sdcc-builder/build/sdcc-build/orig/sdcc/src/pic14/gen.c:1378:movwf
                      06774 ;;      1097 rIdx = r0x1047 
                      06775 ;; BANKOPT2 BANKSEL dropped; r0x1029 present in same bank as r0x1028
0069   00??           06776         MOVWF   r0x1029 ;id=5933,key=004,inCond:10,outCond:1,flow seq=064,rIdx=r0x1047
                      06777 ;; BANKOPT1 BANKSEL dropped; STK00 present in all of r0x1028's banks
006A   00??           06778         MOVWF   STK00   ;id=490,key=005,inCond:10,outCond:1,flow seq=064
                      06779 ;;; /home/sdcc-builder/build/sdcc-build/orig/sdcc/src/pic14/gen.c:1328:mov2w_op *{*
                      06780 ;; ***  mov2w  1366  offset=1
                      06781 ;; >>> /home/sdcc-builder/build/sdcc-build/orig/sdcc/src/pic14/gen.c:1371:mov2w
                      06782 ;;      1097 rIdx = r0x1048 
                      06783 ;; BANKOPT2 BANKSEL dropped; r0x1028 present in same bank as r0x1028
006B   08??           06784         MOVF    r0x1028,W       ;id=495,key=006,inCond:1,outCond:14,flow seq=064,rIdx=r0x1048
                      06785 ;; >>> /home/sdcc-builder/build/sdcc-build/orig/sdcc/src/pic14/gen.c:2160:genCall
006C   0??? 0???      06786         PAGESEL ___uint2fs      ;id=497,key=007,inCond:0,outCond:0,flow seq=064
                      06787 ;; >>> /home/sdcc-builder/build/sdcc-build/orig/sdcc/src/pic14/gen.c:2165:genCall
                      06788 ;; BANKOPT3 drop assumptions: PCI with label or call found
006E   2???           06789         CALL    ___uint2fs      ;id=499,key=008,inCond:10,outCond:1e,flow seq=064
                      06790 ;<>Start of new flow, seq=0x65 ancestor = 0x64
                      06791 ;  from: 064 ; to: 066 
                      06792 ;; >>> /home/sdcc-builder/build/sdcc-build/orig/sdcc/src/pic14/gen.c:2173:genCall
006F   0??? 0???      06793         PAGESEL $       ;id=501,key=000,inCond:0,outCond:0,flow seq=065
                      06794 ;; ***  aopForSym 316
                      06795 ;;      328 sym->rname = _F2, size = 4
                      06796 ;;; /home/sdcc-builder/build/sdcc-build/orig/sdcc/src/pic14/gen.c:1892:assignResultValue *{*
                      06797 ;; ***  assignResultValue  1894
                      06798 ;;      line = 1896 result -=-, size=0, left AOP_DIR=_F2, size=4, right -=-, size=0
                      06799 ;; >>> /home/sdcc-builder/build/sdcc-build/orig/sdcc/src/pic14/gen.c:1378:movwf
                      06800 ;;      998
                      06801 ;;      1016  _F2   offset=3
0071   0??? 0???      06802         BANKSEL _F2     ;id=6828,key=001,inCond:0,outCond:0,flow seq=065
0073   00??           06803         MOVWF   (_F2 + 3)       ;id=510,key=002,inCond:10,outCond:1,flow seq=065
                      06804 ;; >>> /home/sdcc-builder/build/sdcc-build/orig/sdcc/src/pic14/gen.c:1408:get_returnvalue
                      06805 ;; ***  popRegFromIdx,1030  , rIdx=0x7f
                      06806 ;; BANKOPT1 BANKSEL dropped; STK00 present in all of _F2's banks
0074   08??           06807         MOVF    STK00,W ;id=513,key=003,inCond:1,outCond:14,flow seq=065
                      06808 ;; >>> /home/sdcc-builder/build/sdcc-build/orig/sdcc/src/pic14/gen.c:1378:movwf
                      06809 ;;      998
                      06810 ;;      1016  _F2   offset=2
gpasm-1.5.2 #0 (Sep 16 2019) build/default/pr   9-16-2019  10:40:44         PAGE 130


LOC    OBJECT CODE    LINE  SOURCE TEXT
  VALUE

                      06811 ;; BANKOPT2 BANKSEL dropped; _F2 present in same bank as _F2
0075   00??           06812         MOVWF   (_F2 + 2)       ;id=517,key=004,inCond:10,outCond:1,flow seq=065
                      06813 ;; >>> /home/sdcc-builder/build/sdcc-build/orig/sdcc/src/pic14/gen.c:1408:get_returnvalue
                      06814 ;; ***  popRegFromIdx,1030  , rIdx=0x7e
                      06815 ;; BANKOPT1 BANKSEL dropped; STK01 present in all of _F2's banks
0076   08??           06816         MOVF    STK01,W ;id=520,key=005,inCond:1,outCond:14,flow seq=065
                      06817 ;; >>> /home/sdcc-builder/build/sdcc-build/orig/sdcc/src/pic14/gen.c:1378:movwf
                      06818 ;;      998
                      06819 ;;      1016  _F2   offset=1
                      06820 ;; BANKOPT2 BANKSEL dropped; _F2 present in same bank as _F2
0077   00??           06821         MOVWF   (_F2 + 1)       ;id=524,key=006,inCond:10,outCond:1,flow seq=065
                      06822 ;; >>> /home/sdcc-builder/build/sdcc-build/orig/sdcc/src/pic14/gen.c:1408:get_returnvalue
                      06823 ;; ***  popRegFromIdx,1030  , rIdx=0x7d
                      06824 ;; BANKOPT1 BANKSEL dropped; STK02 present in all of _F2's banks
0078   08??           06825         MOVF    STK02,W ;id=527,key=007,inCond:1,outCond:14,flow seq=065
                      06826 ;; >>> /home/sdcc-builder/build/sdcc-build/orig/sdcc/src/pic14/gen.c:1378:movwf
                      06827 ;;      998
                      06828 ;;      1016  _F2   offset=0
                      06829 ;; BANKOPT2 BANKSEL dropped; _F2 present in same bank as _F2
0079   00??           06830         MOVWF   _F2     ;id=531,key=008,inCond:10,outCond:1,flow seq=065
                      06831 ;;      2188 left AOP_DIR
                      06832 ;;; /home/sdcc-builder/build/sdcc-build/orig/sdcc/src/pic14/gen.c:1830:unsaveRegisters *{*
                      06833 ;; ***  unsaveRegisters  1832
                      06834 ;;; /home/sdcc-builder/build/sdcc-build/orig/sdcc/src/pic14/gen.c:2308:resultRemat *{*
                      06835 ;;; /home/sdcc-builder/build/sdcc-build/orig/sdcc/src/pic14/gen.c:3938:genAnd *{*
                      06836 ;; ***  genAnd  3939
                      06837 ;; ***  aopForSym 316
                      06838 ;;      328 sym->rname = _PORTC, size = 1
                      06839 ;;      576
                      06840 ;;      line = 3974 result AOP_DIR=_PORTC, size=1, left AOP_DIR=_PORTC, size=1, right AOP_LIT=0xdf, size
                            =1
                      06841 ;; >>> /home/sdcc-builder/build/sdcc-build/orig/sdcc/src/pic14/gen.c:4141:genAnd
                      06842 ;       .line   50; "../../../src/measure.c"    REMOVE_CCAL();
007A   0??? 0???      06843         BANKSEL _PORTC  ;id=6835,key=009,inCond:0,outCond:0,flow seq=065
007C   12??           06844         BCF     _PORTC,5        ;id=544,key=00a,inCond:21,outCond:21,flow seq=065
                      06845 ;;; /home/sdcc-builder/build/sdcc-build/orig/sdcc/src/pic14/gen.c:2308:resultRemat *{*
                      06846 ;;; /home/sdcc-builder/build/sdcc-build/orig/sdcc/src/pic14/gen.c:2308:resultRemat *{*
                      06847 ;;; /home/sdcc-builder/build/sdcc-build/orig/sdcc/src/pic14/gen.c:7229:genCast *{*
                      06848 ;; ***  genCast  7230
                      06849 ;;      614
                      06850 ;;      aopForRemat 393
                      06851 ;;      419: rname ___str_0, val 0, const = 0
                      06852 ;;      695 register type nRegs=3
                      06853 ;;      824: aopGet AOP_PCODE type PO_IMMEDIATE
                      06854 ;;      ___str_0
                      06855 ;;      line = 7238 result AOP_REG=r0x1047, size=3, left -=-, size=0, right AOP_PCODE=___str_0, size=2
                      06856 ;; ***  genCast  7283
                      06857 ;;; /home/sdcc-builder/build/sdcc-build/orig/sdcc/src/pic14/gen.c:1328:mov2w_op *{*
                      06858 ;; >>> /home/sdcc-builder/build/sdcc-build/orig/sdcc/src/pic14/gen.c:1346:mov2w_op
                      06859 ;       .line   62; "../../../src/measure.c"    uart_puts("\r\n");
007D   30??           06860         MOVLW   high (___str_0 + 0)     ;id=560,key=00b,inCond:400,outCond:10,flow seq=065
                      06861 ;; >>> /home/sdcc-builder/build/sdcc-build/orig/sdcc/src/pic14/gen.c:1378:movwf
                      06862 ;;      1097 rIdx = r0x1048 
gpasm-1.5.2 #0 (Sep 16 2019) build/default/pr   9-16-2019  10:40:44         PAGE 131


LOC    OBJECT CODE    LINE  SOURCE TEXT
  VALUE

007E   0??? 0???      06863         BANKSEL r0x1028 ;id=6836,key=00c,inCond:0,outCond:0,flow seq=065
0080   00??           06864         MOVWF   r0x1028 ;id=563,key=00d,inCond:10,outCond:1,flow seq=065,rIdx=r0x1048
                      06865 ;;; /home/sdcc-builder/build/sdcc-build/orig/sdcc/src/pic14/gen.c:1328:mov2w_op *{*
                      06866 ;; >>> /home/sdcc-builder/build/sdcc-build/orig/sdcc/src/pic14/gen.c:1346:mov2w_op
0081   30??           06867         MOVLW   (___str_0 + 0)  ;id=566,key=00e,inCond:400,outCond:10,flow seq=065
                      06868 ;; >>> /home/sdcc-builder/build/sdcc-build/orig/sdcc/src/pic14/gen.c:1378:movwf
                      06869 ;;      1097 rIdx = r0x1047 
                      06870 ;; BANKOPT2 BANKSEL dropped; r0x1029 present in same bank as r0x1028
0082   00??           06871         MOVWF   r0x1029 ;id=569,key=00f,inCond:10,outCond:1,flow seq=065,rIdx=r0x1047
                      06872 ;; >>> /home/sdcc-builder/build/sdcc-build/orig/sdcc/src/pic14/gen.c:7343:genCast
0083   3080           06873         MOVLW   0x80    ;id=571,key=010,inCond:400,outCond:10,flow seq=065
                      06874 ;; >>> /home/sdcc-builder/build/sdcc-build/orig/sdcc/src/pic14/gen.c:1378:movwf
                      06875 ;;      1097 rIdx = r0x1049 
                      06876 ;; BANKOPT2 BANKSEL dropped; r0x102A present in same bank as r0x1028
0084   00??           06877         MOVWF   r0x102A ;id=574,key=011,inCond:10,outCond:1,flow seq=065,rIdx=r0x1049
                      06878 ;;; /home/sdcc-builder/build/sdcc-build/orig/sdcc/src/pic14/gen.c:2308:resultRemat *{*
                      06879 ;;; /home/sdcc-builder/build/sdcc-build/orig/sdcc/src/pic14/gen.c:2308:resultRemat *{*
                      06880 ;;; /home/sdcc-builder/build/sdcc-build/orig/sdcc/src/pic14/gen.c:2071:genCall *{*
                      06881 ;; ***  genCall  2073
                      06882 ;;; /home/sdcc-builder/build/sdcc-build/orig/sdcc/src/pic14/gen.c:1786:saveRegisters *{*
                      06883 ;; ***  saveRegisters  1788
                      06884 ;;      695 register type nRegs=3
                      06885 ;;      695 register type nRegs=3
                      06886 ;;      2120 left AOP_REG
                      06887 ;;; /home/sdcc-builder/build/sdcc-build/orig/sdcc/src/pic14/gen.c:1328:mov2w_op *{*
                      06888 ;; ***  mov2w  1366  offset=0
                      06889 ;; >>> /home/sdcc-builder/build/sdcc-build/orig/sdcc/src/pic14/gen.c:1371:mov2w
                      06890 ;;      1097 rIdx = r0x1047 
                      06891 ;; BANKOPT2 BANKSEL dropped; r0x1029 present in same bank as r0x1028
0085   08??           06892         MOVF    r0x1029,W       ;id=588,key=012,inCond:1,outCond:14,flow seq=065,rIdx=r0x1047
                      06893 ;;      2120 left AOP_REG
                      06894 ;; >>> /home/sdcc-builder/build/sdcc-build/orig/sdcc/src/pic14/gen.c:2128:genCall
                      06895 ;; ***  popRegFromIdx,1030  , rIdx=0x7e
                      06896 ;; BANKOPT1 BANKSEL dropped; STK01 present in all of r0x1028's banks
0086   00??           06897         MOVWF   STK01   ;id=592,key=013,inCond:10,outCond:1,flow seq=065
                      06898 ;;; /home/sdcc-builder/build/sdcc-build/orig/sdcc/src/pic14/gen.c:1328:mov2w_op *{*
                      06899 ;; ***  mov2w  1366  offset=1
                      06900 ;; >>> /home/sdcc-builder/build/sdcc-build/orig/sdcc/src/pic14/gen.c:1371:mov2w
                      06901 ;;      1097 rIdx = r0x1048 
                      06902 ;; BANKOPT2 BANKSEL dropped; r0x1028 present in same bank as r0x1028
0087   08??           06903         MOVF    r0x1028,W       ;id=597,key=014,inCond:1,outCond:14,flow seq=065,rIdx=r0x1048
                      06904 ;;      2120 left AOP_REG
                      06905 ;; >>> /home/sdcc-builder/build/sdcc-build/orig/sdcc/src/pic14/gen.c:2128:genCall
                      06906 ;; ***  popRegFromIdx,1030  , rIdx=0x7f
                      06907 ;; BANKOPT1 BANKSEL dropped; STK00 present in all of r0x1028's banks
0088   00??           06908         MOVWF   STK00   ;id=601,key=015,inCond:10,outCond:1,flow seq=065
                      06909 ;;; /home/sdcc-builder/build/sdcc-build/orig/sdcc/src/pic14/gen.c:1328:mov2w_op *{*
                      06910 ;; ***  mov2w  1366  offset=2
                      06911 ;; >>> /home/sdcc-builder/build/sdcc-build/orig/sdcc/src/pic14/gen.c:1371:mov2w
                      06912 ;;      1097 rIdx = r0x1049 
                      06913 ;; BANKOPT2 BANKSEL dropped; r0x102A present in same bank as r0x1028
0089   08??           06914         MOVF    r0x102A,W       ;id=606,key=016,inCond:1,outCond:14,flow seq=065,rIdx=r0x1049
                      06915 ;; >>> /home/sdcc-builder/build/sdcc-build/orig/sdcc/src/pic14/gen.c:2160:genCall
gpasm-1.5.2 #0 (Sep 16 2019) build/default/pr   9-16-2019  10:40:44         PAGE 132


LOC    OBJECT CODE    LINE  SOURCE TEXT
  VALUE

008A   0??? 0???      06916         PAGESEL _uart_puts      ;id=608,key=017,inCond:0,outCond:0,flow seq=065
                      06917 ;; >>> /home/sdcc-builder/build/sdcc-build/orig/sdcc/src/pic14/gen.c:2165:genCall
                      06918 ;; BANKOPT3 drop assumptions: PCI with label or call found
008C   2???           06919         CALL    _uart_puts      ;id=610,key=018,inCond:10,outCond:1e,flow seq=065
                      06920 ;<>Start of new flow, seq=0x66 ancestor = 0x65
                      06921 ;  from: 065 ; to: 
                      06922 ;; >>> /home/sdcc-builder/build/sdcc-build/orig/sdcc/src/pic14/gen.c:2173:genCall
008D   0??? 0???      06923         PAGESEL $       ;id=612,key=000,inCond:0,outCond:0,flow seq=066
                      06924 ;;; /home/sdcc-builder/build/sdcc-build/orig/sdcc/src/pic14/gen.c:1830:unsaveRegisters *{*
                      06925 ;; ***  unsaveRegisters  1832
                      06926 ;;; /home/sdcc-builder/build/sdcc-build/orig/sdcc/src/pic14/gen.c:2308:resultRemat *{*
                      06927 ;;; /home/sdcc-builder/build/sdcc-build/orig/sdcc/src/pic14/gen.c:2752:genLabel *{*
                      06928 ;; ***  genLabel  2755
                      06929 ;_00105_DS_:
                      06930 ;;; /home/sdcc-builder/build/sdcc-build/orig/sdcc/src/pic14/gen.c:2308:resultRemat *{*
                      06931 ;;; /home/sdcc-builder/build/sdcc-build/orig/sdcc/src/pic14/gen.c:2520:genEndFunction *{*
                      06932 ;; ***  genEndFunction  2522
                      06933 ;return
                      06934 ;       .line   63; "../../../src/measure.c"    }
008F   0008           06935         RETURN          ;id=625,key=001,inCond:10,outCond:e,flow seq=066
                      06936 ;<>Start of new flow, seq=0x67
                      06937 ;  from: ; to: 
                      06938 ; exit point of _calibrate
                      06939 ;;; /home/sdcc-builder/build/sdcc-build/orig/sdcc/src/pic14/gen.c:7535:genpic14Code *{*
                      06940 
                      06941 
                      06942 ;       code size estimation:
                      06943 ;        1029+  247 =  1276 instructions ( 3046 byte)
                      06944 
                      06945         end
gpasm-1.5.2 #0 (Sep 16 2019) build/default/pr   9-16-2019  10:40:44         PAGE 133


SYMBOL TABLE
  LABEL                              TYPE        VALUE         VALUE          VALUE
                                                 (hex)         (dec)          (text)

ACKDT                             CONSTANT      00000005              5
ACKEN                             CONSTANT      00000004              4
ACKSTAT                           CONSTANT      00000006              6
ADCON0                            CONSTANT      0000001F             31
ADCON1                            CONSTANT      0000009F            159
ADCS0                             CONSTANT      00000006              6
ADCS1                             CONSTANT      00000007              7
ADCS2                             CONSTANT      00000006              6
ADDEN                             CONSTANT      00000003              3
ADFM                              CONSTANT      00000007              7
ADIE                              CONSTANT      00000006              6
ADIF                              CONSTANT      00000006              6
ADON                              CONSTANT      00000000              0
ADRESH                            CONSTANT      0000001E             30
ADRESL                            CONSTANT      0000009E            158
BCLIE                             CONSTANT      00000003              3
BCLIF                             CONSTANT      00000003              3
BF                                CONSTANT      00000000              0
BRGH                              CONSTANT      00000002              2
C                                 CONSTANT      00000000              0
C1INV                             CONSTANT      00000004              4
C1OUT                             CONSTANT      00000006              6
C2INV                             CONSTANT      00000005              5
C2OUT                             CONSTANT      00000007              7
CCP1CON                           CONSTANT      00000017             23
CCP1IE                            CONSTANT      00000002              2
CCP1IF                            CONSTANT      00000002              2
CCP1M0                            CONSTANT      00000000              0
CCP1M1                            CONSTANT      00000001              1
CCP1M2                            CONSTANT      00000002              2
CCP1M3                            CONSTANT      00000003              3
CCP1X                             CONSTANT      00000005              5
CCP1Y                             CONSTANT      00000004              4
CCP2CON                           CONSTANT      0000001D             29
CCP2IE                            CONSTANT      00000000              0
CCP2IF                            CONSTANT      00000000              0
CCP2M0                            CONSTANT      00000000              0
CCP2M1                            CONSTANT      00000001              1
CCP2M2                            CONSTANT      00000002              2
CCP2M3                            CONSTANT      00000003              3
CCP2X                             CONSTANT      00000005              5
CCP2Y                             CONSTANT      00000004              4
CCPR1                             CONSTANT      00000015             21
CCPR1H                            CONSTANT      00000016             22
CCPR1L                            CONSTANT      00000015             21
CCPR2                             CONSTANT      0000001B             27
CCPR2H                            CONSTANT      0000001C             28
CCPR2L                            CONSTANT      0000001B             27
CHS0                              CONSTANT      00000003              3
CHS1                              CONSTANT      00000004              4
CHS2                              CONSTANT      00000005              5
CIS                               CONSTANT      00000003              3
gpasm-1.5.2 #0 (Sep 16 2019) build/default/pr   9-16-2019  10:40:44         PAGE 134


SYMBOL TABLE
  LABEL                              TYPE        VALUE         VALUE          VALUE
                                                 (hex)         (dec)          (text)

CKE                               CONSTANT      00000006              6
CKP                               CONSTANT      00000004              4
CM0                               CONSTANT      00000000              0
CM1                               CONSTANT      00000001              1
CM2                               CONSTANT      00000002              2
CMCON                             CONSTANT      0000009C            156
CMIE                              CONSTANT      00000006              6
CMIF                              CONSTANT      00000006              6
CREN                              CONSTANT      00000004              4
CSRC                              CONSTANT      00000007              7
CVR0                              CONSTANT      00000000              0
CVR1                              CONSTANT      00000001              1
CVR2                              CONSTANT      00000002              2
CVR3                              CONSTANT      00000003              3
CVRCON                            CONSTANT      0000009D            157
CVREN                             CONSTANT      00000007              7
CVROE                             CONSTANT      00000006              6
CVRR                              CONSTANT      00000005              5
D                                 CONSTANT      00000005              5
DATA_ADDRESS                      CONSTANT      00000005              5
DC                                CONSTANT      00000001              1
D_A                               CONSTANT      00000005              5
D_NOT_A                           CONSTANT      00000005              5
EEADR                             CONSTANT      0000010D            269
EEADRH                            CONSTANT      0000010F            271
EECON1                            CONSTANT      0000018C            396
EECON2                            CONSTANT      0000018D            397
EEDATA                            CONSTANT      0000010C            268
EEDATH                            CONSTANT      0000010E            270
EEIE                              CONSTANT      00000004              4
EEIF                              CONSTANT      00000004              4
EEPGD                             CONSTANT      00000007              7
F                                 CONSTANT      00000001              1
FERR                              CONSTANT      00000002              2
FSR                               CONSTANT      00000004              4
GCEN                              CONSTANT      00000007              7
GIE                               CONSTANT      00000007              7
GO                                CONSTANT      00000002              2
GO_DONE                           CONSTANT      00000002              2
GO_NOT_DONE                       CONSTANT      00000002              2
I2C_DATA                          CONSTANT      00000005              5
I2C_READ                          CONSTANT      00000002              2
I2C_START                         CONSTANT      00000003              3
I2C_STOP                          CONSTANT      00000004              4
INDF                              CONSTANT      00000000              0
INTCON                            CONSTANT      0000000B             11
INTE                              CONSTANT      00000004              4
INTEDG                            CONSTANT      00000006              6
INTF                              CONSTANT      00000001              1
IRP                               CONSTANT      00000007              7
NOT_A                             CONSTANT      00000005              5
NOT_ADDRESS                       CONSTANT      00000005              5
gpasm-1.5.2 #0 (Sep 16 2019) build/default/pr   9-16-2019  10:40:44         PAGE 135


SYMBOL TABLE
  LABEL                              TYPE        VALUE         VALUE          VALUE
                                                 (hex)         (dec)          (text)

NOT_BO                            CONSTANT      00000000              0
NOT_BOR                           CONSTANT      00000000              0
NOT_DONE                          CONSTANT      00000002              2
NOT_PD                            CONSTANT      00000003              3
NOT_POR                           CONSTANT      00000001              1
NOT_RBPU                          CONSTANT      00000007              7
NOT_RC8                           CONSTANT      00000006              6
NOT_T1SYNC                        CONSTANT      00000002              2
NOT_TO                            CONSTANT      00000004              4
NOT_TX8                           CONSTANT      00000006              6
NOT_W                             CONSTANT      00000002              2
NOT_WRITE                         CONSTANT      00000002              2
OERR                              CONSTANT      00000001              1
OPTION_REG                        CONSTANT      00000081            129
P                                 CONSTANT      00000004              4
PCFG0                             CONSTANT      00000000              0
PCFG1                             CONSTANT      00000001              1
PCFG2                             CONSTANT      00000002              2
PCFG3                             CONSTANT      00000003              3
PCL                               CONSTANT      00000002              2
PCLATH                            CONSTANT      0000000A             10
PCON                              CONSTANT      0000008E            142
PEIE                              CONSTANT      00000006              6
PEN                               CONSTANT      00000002              2
PIE1                              CONSTANT      0000008C            140
PIE2                              CONSTANT      0000008D            141
PIR1                              CONSTANT      0000000C             12
PIR2                              CONSTANT      0000000D             13
PORTA                             CONSTANT      00000005              5
PORTB                             CONSTANT      00000006              6
PORTC                             CONSTANT      00000007              7
PR2                               CONSTANT      00000092            146
PS0                               CONSTANT      00000000              0
PS1                               CONSTANT      00000001              1
PS2                               CONSTANT      00000002              2
PSA                               CONSTANT      00000003              3
PSAVE                             EXTERNAL      00000000              0
R                                 CONSTANT      00000002              2
RA0                               CONSTANT      00000000              0
RA1                               CONSTANT      00000001              1
RA2                               CONSTANT      00000002              2
RA3                               CONSTANT      00000003              3
RA4                               CONSTANT      00000004              4
RA5                               CONSTANT      00000005              5
RB0                               CONSTANT      00000000              0
RB1                               CONSTANT      00000001              1
RB2                               CONSTANT      00000002              2
RB3                               CONSTANT      00000003              3
RB4                               CONSTANT      00000004              4
RB5                               CONSTANT      00000005              5
RB6                               CONSTANT      00000006              6
RB7                               CONSTANT      00000007              7
gpasm-1.5.2 #0 (Sep 16 2019) build/default/pr   9-16-2019  10:40:44         PAGE 136


SYMBOL TABLE
  LABEL                              TYPE        VALUE         VALUE          VALUE
                                                 (hex)         (dec)          (text)

RBIE                              CONSTANT      00000003              3
RBIF                              CONSTANT      00000000              0
RC0                               CONSTANT      00000000              0
RC1                               CONSTANT      00000001              1
RC2                               CONSTANT      00000002              2
RC3                               CONSTANT      00000003              3
RC4                               CONSTANT      00000004              4
RC5                               CONSTANT      00000005              5
RC6                               CONSTANT      00000006              6
RC7                               CONSTANT      00000007              7
RC8_9                             CONSTANT      00000006              6
RC9                               CONSTANT      00000006              6
RCD8                              CONSTANT      00000000              0
RCEN                              CONSTANT      00000003              3
RCIE                              CONSTANT      00000005              5
RCIF                              CONSTANT      00000005              5
RCREG                             CONSTANT      0000001A             26
RCSTA                             CONSTANT      00000018             24
RD                                CONSTANT      00000000              0
READ_WRITE                        CONSTANT      00000002              2
RP0                               CONSTANT      00000005              5
RP1                               CONSTANT      00000006              6
RSEN                              CONSTANT      00000001              1
RX9                               CONSTANT      00000006              6
RX9D                              CONSTANT      00000000              0
R_NOT_W                           CONSTANT      00000002              2
R_W                               CONSTANT      00000002              2
S                                 CONSTANT      00000003              3
SEN                               CONSTANT      00000000              0
SMP                               CONSTANT      00000007              7
SPBRG                             CONSTANT      00000099            153
SPEN                              CONSTANT      00000007              7
SREN                              CONSTANT      00000005              5
SSAVE                             EXTERNAL      00000000              0
SSPADD                            CONSTANT      00000093            147
SSPBUF                            CONSTANT      00000013             19
SSPCON                            CONSTANT      00000014             20
SSPCON2                           CONSTANT      00000091            145
SSPEN                             CONSTANT      00000005              5
SSPIE                             CONSTANT      00000003              3
SSPIF                             CONSTANT      00000003              3
SSPM0                             CONSTANT      00000000              0
SSPM1                             CONSTANT      00000001              1
SSPM2                             CONSTANT      00000002              2
SSPM3                             CONSTANT      00000003              3
SSPOV                             CONSTANT      00000006              6
SSPSTAT                           CONSTANT      00000094            148
STATUS                            CONSTANT      00000003              3
STK00                             EXTERNAL      00000000              0
STK01                             EXTERNAL      00000000              0
STK02                             EXTERNAL      00000000              0
STK03                             EXTERNAL      00000000              0
gpasm-1.5.2 #0 (Sep 16 2019) build/default/pr   9-16-2019  10:40:44         PAGE 137


SYMBOL TABLE
  LABEL                              TYPE        VALUE         VALUE          VALUE
                                                 (hex)         (dec)          (text)

STK04                             EXTERNAL      00000000              0
STK05                             EXTERNAL      00000000              0
STK06                             EXTERNAL      00000000              0
STK07                             EXTERNAL      00000000              0
STK08                             EXTERNAL      00000000              0
STK09                             EXTERNAL      00000000              0
STK10                             EXTERNAL      00000000              0
STK11                             EXTERNAL      00000000              0
STK12                             EXTERNAL      00000000              0
SYNC                              CONSTANT      00000004              4
T0CS                              CONSTANT      00000005              5
T0IE                              CONSTANT      00000005              5
T0IF                              CONSTANT      00000002              2
T0SE                              CONSTANT      00000004              4
T1CKPS0                           CONSTANT      00000004              4
T1CKPS1                           CONSTANT      00000005              5
T1CON                             CONSTANT      00000010             16
T1INSYNC                          CONSTANT      00000002              2
T1OSCEN                           CONSTANT      00000003              3
T1SYNC                            CONSTANT      00000002              2
T2CKPS0                           CONSTANT      00000000              0
T2CKPS1                           CONSTANT      00000001              1
T2CON                             CONSTANT      00000012             18
TMR0                              CONSTANT      00000001              1
TMR0IE                            CONSTANT      00000005              5
TMR0IF                            CONSTANT      00000002              2
TMR1                              CONSTANT      0000000E             14
TMR1CS                            CONSTANT      00000001              1
TMR1H                             CONSTANT      0000000F             15
TMR1IE                            CONSTANT      00000000              0
TMR1IF                            CONSTANT      00000000              0
TMR1L                             CONSTANT      0000000E             14
TMR1ON                            CONSTANT      00000000              0
TMR2                              CONSTANT      00000011             17
TMR2IE                            CONSTANT      00000001              1
TMR2IF                            CONSTANT      00000001              1
TMR2ON                            CONSTANT      00000002              2
TOUTPS0                           CONSTANT      00000003              3
TOUTPS1                           CONSTANT      00000004              4
TOUTPS2                           CONSTANT      00000005              5
TOUTPS3                           CONSTANT      00000006              6
TRISA                             CONSTANT      00000085            133
TRISA0                            CONSTANT      00000000              0
TRISA1                            CONSTANT      00000001              1
TRISA2                            CONSTANT      00000002              2
TRISA3                            CONSTANT      00000003              3
TRISA4                            CONSTANT      00000004              4
TRISA5                            CONSTANT      00000005              5
TRISB                             CONSTANT      00000086            134
TRISB0                            CONSTANT      00000000              0
TRISB1                            CONSTANT      00000001              1
TRISB2                            CONSTANT      00000002              2
gpasm-1.5.2 #0 (Sep 16 2019) build/default/pr   9-16-2019  10:40:44         PAGE 138


SYMBOL TABLE
  LABEL                              TYPE        VALUE         VALUE          VALUE
                                                 (hex)         (dec)          (text)

TRISB3                            CONSTANT      00000003              3
TRISB4                            CONSTANT      00000004              4
TRISB5                            CONSTANT      00000005              5
TRISB6                            CONSTANT      00000006              6
TRISB7                            CONSTANT      00000007              7
TRISC                             CONSTANT      00000087            135
TRISC0                            CONSTANT      00000000              0
TRISC1                            CONSTANT      00000001              1
TRISC2                            CONSTANT      00000002              2
TRISC3                            CONSTANT      00000003              3
TRISC4                            CONSTANT      00000004              4
TRISC5                            CONSTANT      00000005              5
TRISC6                            CONSTANT      00000006              6
TRISC7                            CONSTANT      00000007              7
TRMT                              CONSTANT      00000001              1
TX8_9                             CONSTANT      00000006              6
TX9                               CONSTANT      00000006              6
TX9D                              CONSTANT      00000000              0
TXD8                              CONSTANT      00000000              0
TXEN                              CONSTANT      00000005              5
TXIE                              CONSTANT      00000004              4
TXIF                              CONSTANT      00000004              4
TXREG                             CONSTANT      00000019             25
TXSTA                             CONSTANT      00000098            152
UA                                CONSTANT      00000001              1
W                                 CONSTANT      00000000              0
WCOL                              CONSTANT      00000007              7
WR                                CONSTANT      00000001              1
WREN                              CONSTANT      00000002              2
WRERR                             CONSTANT      00000003              3
WSAVE                             EXTERNAL      00000000              0
Z                                 CONSTANT      00000002              2
_00114_DS_                        ADDRESS       00000056             86
_00116_DS_                        ADDRESS       00000178            376
_00119_DS_                        ADDRESS       0000019A            410
_00122_DS_                        ADDRESS       000001BC            444
_00123_DS_                        ADDRESS       000001C0            448
_00129_DS_                        ADDRESS       0000004E             78
_00131_DS_                        ADDRESS       0000026A            618
_00134_DS_                        ADDRESS       0000028C            652
_00137_DS_                        ADDRESS       000002AE            686
_00138_DS_                        ADDRESS       000002B2            690
_ADCON0                           EXTERNAL      00000000              0
_ADCON0bits                       EXTERNAL      00000000              0
_ADCON1                           EXTERNAL      00000000              0
_ADCON1bits                       EXTERNAL      00000000              0
_ADRESH                           EXTERNAL      00000000              0
_ADRESL                           EXTERNAL      00000000              0
_BODEN_OFF                        CONSTANT      00003FBF          16319
_BODEN_ON                         CONSTANT      00003FFF          16383
_BOREN_OFF                        CONSTANT      00003FBF          16319
_BOREN_ON                         CONSTANT      00003FFF          16383
gpasm-1.5.2 #0 (Sep 16 2019) build/default/pr   9-16-2019  10:40:44         PAGE 139


SYMBOL TABLE
  LABEL                              TYPE        VALUE         VALUE          VALUE
                                                 (hex)         (dec)          (text)

_CCP1CON                          EXTERNAL      00000000              0
_CCP1CONbits                      EXTERNAL      00000000              0
_CCP2CON                          EXTERNAL      00000000              0
_CCP2CONbits                      EXTERNAL      00000000              0
_CCPR1                            EXTERNAL      00000000              0
_CCPR1H                           EXTERNAL      00000000              0
_CCPR1L                           EXTERNAL      00000000              0
_CCPR2                            EXTERNAL      00000000              0
_CCPR2H                           EXTERNAL      00000000              0
_CCPR2L                           EXTERNAL      00000000              0
_CCal                             EXTERNAL      00000000              0
_CMCON                            EXTERNAL      00000000              0
_CMCONbits                        EXTERNAL      00000000              0
_CONFIG                           CONSTANT      00002007           8199
_CPD_OFF                          CONSTANT      00003FFF          16383
_CPD_ON                           CONSTANT      00003EFF          16127
_CP_ALL                           CONSTANT      00001FFF           8191
_CP_OFF                           CONSTANT      00003FFF          16383
_CP_ON                            CONSTANT      00001FFF           8191
_CVRCON                           EXTERNAL      00000000              0
_CVRCONbits                       EXTERNAL      00000000              0
_DEBUG_OFF                        CONSTANT      00003FFF          16383
_DEBUG_ON                         CONSTANT      000037FF          14335
_DEVID1                           CONSTANT      00002006           8198
_Delay1KTCYx                      EXTERNAL      00000000              0
_Delay10KTCYx                     EXTERNAL      00000000              0
_Delay10TCYx                      EXTERNAL      00000000              0
_Delay100TCYx                     EXTERNAL      00000000              0
_EEADR                            EXTERNAL      00000000              0
_EEADRH                           EXTERNAL      00000000              0
_EECON1                           EXTERNAL      00000000              0
_EECON1bits                       EXTERNAL      00000000              0
_EECON2                           EXTERNAL      00000000              0
_EEDATA                           EXTERNAL      00000000              0
_EEDATH                           EXTERNAL      00000000              0
_F1                               EXTERNAL      00000000              0
_F2                               EXTERNAL      00000000              0
_F3                               EXTERNAL      00000000              0
_FOSC_EXTRC                       CONSTANT      00003FFF          16383
_FOSC_HS                          CONSTANT      00003FFE          16382
_FOSC_LP                          CONSTANT      00003FFC          16380
_FOSC_XT                          CONSTANT      00003FFD          16381
_FSR                              EXTERNAL      00000000              0
_HS_OSC                           CONSTANT      00003FFE          16382
_IDLOC0                           CONSTANT      00002000           8192
_IDLOC1                           CONSTANT      00002001           8193
_IDLOC2                           CONSTANT      00002002           8194
_IDLOC3                           CONSTANT      00002003           8195
_INDF                             EXTERNAL      00000000              0
_INTCON                           EXTERNAL      00000000              0
_INTCONbits                       EXTERNAL      00000000              0
_LP_OSC                           CONSTANT      00003FFC          16380
gpasm-1.5.2 #0 (Sep 16 2019) build/default/pr   9-16-2019  10:40:44         PAGE 140


SYMBOL TABLE
  LABEL                              TYPE        VALUE         VALUE          VALUE
                                                 (hex)         (dec)          (text)

_LVP_OFF                          CONSTANT      00003F7F          16255
_LVP_ON                           CONSTANT      00003FFF          16383
_OPTION_REG                       EXTERNAL      00000000              0
_OPTION_REGbits                   EXTERNAL      00000000              0
_PCL                              EXTERNAL      00000000              0
_PCLATH                           EXTERNAL      00000000              0
_PCON                             EXTERNAL      00000000              0
_PCONbits                         EXTERNAL      00000000              0
_PIE1                             EXTERNAL      00000000              0
_PIE1bits                         EXTERNAL      00000000              0
_PIE2                             EXTERNAL      00000000              0
_PIE2bits                         EXTERNAL      00000000              0
_PIR1                             EXTERNAL      00000000              0
_PIR1bits                         EXTERNAL      00000000              0
_PIR2                             EXTERNAL      00000000              0
_PIR2bits                         EXTERNAL      00000000              0
_PORTA                            EXTERNAL      00000000              0
_PORTAbits                        EXTERNAL      00000000              0
_PORTB                            EXTERNAL      00000000              0
_PORTBbits                        EXTERNAL      00000000              0
_PORTC                            EXTERNAL      00000000              0
_PORTCbits                        EXTERNAL      00000000              0
_PR2                              EXTERNAL      00000000              0
_PWRTE_OFF                        CONSTANT      00003FFF          16383
_PWRTE_ON                         CONSTANT      00003FF7          16375
_RCREG                            EXTERNAL      00000000              0
_RCSTA                            EXTERNAL      00000000              0
_RCSTAbits                        EXTERNAL      00000000              0
_RC_OSC                           CONSTANT      00003FFF          16383
_SPBRG                            EXTERNAL      00000000              0
_SSPADD                           EXTERNAL      00000000              0
_SSPBUF                           EXTERNAL      00000000              0
_SSPCON                           EXTERNAL      00000000              0
_SSPCON2                          EXTERNAL      00000000              0
_SSPCON2bits                      EXTERNAL      00000000              0
_SSPCONbits                       EXTERNAL      00000000              0
_SSPSTAT                          EXTERNAL      00000000              0
_SSPSTATbits                      EXTERNAL      00000000              0
_STATUS                           EXTERNAL      00000000              0
_STATUSbits                       EXTERNAL      00000000              0
_S_measure__calibrate_0006        ADDRESS       00000006              6
_S_measure__calibrate_0012        ADDRESS       00000012             18
_S_measure__calibrate_0021        ADDRESS       00000021             33
_S_measure__calibrate_0026        ADDRESS       00000026             38
_S_measure__calibrate_0032        ADDRESS       00000032             50
_S_measure__calibrate_0043        ADDRESS       00000043             67
_S_measure__calibrate_004F        ADDRESS       0000004F             79
_S_measure__calibrate_005E        ADDRESS       0000005E             94
_S_measure__calibrate_0063        ADDRESS       00000063             99
_S_measure__calibrate_006F        ADDRESS       0000006F            111
_S_measure__calibrate_008D        ADDRESS       0000008D            141
_S_measure__measure_capacitance_0003  ADDRESS       00000003              3
gpasm-1.5.2 #0 (Sep 16 2019) build/default/pr   9-16-2019  10:40:44         PAGE 141


SYMBOL TABLE
  LABEL                              TYPE        VALUE         VALUE          VALUE
                                                 (hex)         (dec)          (text)

_S_measure__measure_capacitance_000F  ADDRESS       0000000F             15
_S_measure__measure_capacitance_0036  ADDRESS       00000036             54
_S_measure__measure_capacitance_006A  ADDRESS       0000006A            106
_S_measure__measure_capacitance_0089  ADDRESS       00000089            137
_S_measure__measure_capacitance_00A8  ADDRESS       000000A8            168
_S_measure__measure_capacitance_00C3  ADDRESS       000000C3            195
_S_measure__measure_capacitance_00DF  ADDRESS       000000DF            223
_S_measure__measure_capacitance_0100  ADDRESS       00000100            256
_S_measure__measure_capacitance_011C  ADDRESS       0000011C            284
_S_measure__measure_capacitance_016A  ADDRESS       0000016A            362
_S_measure__measure_capacitance_018C  ADDRESS       0000018C            396
_S_measure__measure_capacitance_0136  ADDRESS       00000136            310
_S_measure__measure_capacitance_0150  ADDRESS       00000150            336
_S_measure__measure_capacitance_01AE  ADDRESS       000001AE            430
_S_measure__measure_capacitance_01D4  ADDRESS       000001D4            468
_S_measure__measure_capacitance_01E8  ADDRESS       000001E8            488
_S_measure__measure_capacitance_01F4  ADDRESS       000001F4            500
_S_measure__measure_capacitance_01FC  ADDRESS       000001FC            508
_S_measure__measure_freq_000A     ADDRESS       0000000A             10
_S_measure__measure_freq_0017     ADDRESS       00000017             23
_S_measure__measure_freq_001F     ADDRESS       0000001F             31
_S_measure__measure_freq_0027     ADDRESS       00000027             39
_S_measure__measure_freq_002F     ADDRESS       0000002F             47
_S_measure__measure_freq_0037     ADDRESS       00000037             55
_S_measure__measure_freq_003F     ADDRESS       0000003F             63
_S_measure__measure_freq_0047     ADDRESS       00000047             71
_S_measure__measure_freq_004F     ADDRESS       0000004F             79
_S_measure__measure_freq_0057     ADDRESS       00000057             87
_S_measure__measure_freq_005F     ADDRESS       0000005F             95
_S_measure__measure_freq_006A     ADDRESS       0000006A            106
_S_measure__measure_inductance_0003  ADDRESS       00000003              3
_S_measure__measure_inductance_000F  ADDRESS       0000000F             15
_S_measure__measure_inductance_002E  ADDRESS       0000002E             46
_S_measure__measure_inductance_0062  ADDRESS       00000062             98
_S_measure__measure_inductance_0081  ADDRESS       00000081            129
_S_measure__measure_inductance_009D  ADDRESS       0000009D            157
_S_measure__measure_inductance_00BA  ADDRESS       000000BA            186
_S_measure__measure_inductance_00D6  ADDRESS       000000D6            214
_S_measure__measure_inductance_00F5  ADDRESS       000000F5            245
_S_measure__measure_inductance_019A  ADDRESS       0000019A            410
_S_measure__measure_inductance_0116  ADDRESS       00000116            278
_S_measure__measure_inductance_0137  ADDRESS       00000137            311
_S_measure__measure_inductance_0158  ADDRESS       00000158            344
_S_measure__measure_inductance_0179  ADDRESS       00000179            377
_S_measure__measure_inductance_01BB  ADDRESS       000001BB            443
_S_measure__measure_inductance_01D7  ADDRESS       000001D7            471
_S_measure__measure_inductance_01F3  ADDRESS       000001F3            499
_S_measure__measure_inductance_020F  ADDRESS       0000020F            527
_S_measure__measure_inductance_025D  ADDRESS       0000025D            605
_S_measure__measure_inductance_027E  ADDRESS       0000027E            638
_S_measure__measure_inductance_0229  ADDRESS       00000229            553
_S_measure__measure_inductance_0243  ADDRESS       00000243            579
gpasm-1.5.2 #0 (Sep 16 2019) build/default/pr   9-16-2019  10:40:44         PAGE 142


SYMBOL TABLE
  LABEL                              TYPE        VALUE         VALUE          VALUE
                                                 (hex)         (dec)          (text)

_S_measure__measure_inductance_02A0  ADDRESS       000002A0            672
_S_measure__measure_inductance_02C6  ADDRESS       000002C6            710
_S_measure__measure_inductance_02DA  ADDRESS       000002DA            730
_S_measure__measure_inductance_02E6  ADDRESS       000002E6            742
_S_measure__measure_inductance_02EE  ADDRESS       000002EE            750
_T1CON                            EXTERNAL      00000000              0
_T1CONbits                        EXTERNAL      00000000              0
_T2CON                            EXTERNAL      00000000              0
_T2CONbits                        EXTERNAL      00000000              0
_TMR0                             EXTERNAL      00000000              0
_TMR1                             EXTERNAL      00000000              0
_TMR1H                            EXTERNAL      00000000              0
_TMR1L                            EXTERNAL      00000000              0
_TMR2                             EXTERNAL      00000000              0
_TRISA                            EXTERNAL      00000000              0
_TRISAbits                        EXTERNAL      00000000              0
_TRISB                            EXTERNAL      00000000              0
_TRISBbits                        EXTERNAL      00000000              0
_TRISC                            EXTERNAL      00000000              0
_TRISCbits                        EXTERNAL      00000000              0
_TXREG                            EXTERNAL      00000000              0
_TXSTA                            EXTERNAL      00000000              0
_TXSTAbits                        EXTERNAL      00000000              0
_WDTE_OFF                         CONSTANT      00003FFB          16379
_WDTE_ON                          CONSTANT      00003FFF          16383
_WDT_OFF                          CONSTANT      00003FFB          16379
_WDT_ON                           CONSTANT      00003FFF          16383
_WRT_1FOURTH                      CONSTANT      00003BFF          15359
_WRT_256                          CONSTANT      00003DFF          15871
_WRT_HALF                         CONSTANT      000039FF          14847
_WRT_OFF                          CONSTANT      00003FFF          16383
_XT_OSC                           CONSTANT      00003FFD          16381
__14_BIT                          CONSTANT      00000001              1
__16F876A                         CONSTANT      00000001              1
__ACTIVE_BANK_ADDR                VARIABLE      FFFFFFFF             -1
__ACTIVE_PAGE_ADDR                VARIABLE      FFFFFFFF             -1
__ASSUMED_BANK_ADDR               VARIABLE      FFFFFFFF             -1
__BANK_0                          CONSTANT      00000000              0
__BANK_1                          CONSTANT      00000080            128
__BANK_2                          CONSTANT      00000100            256
__BANK_3                          CONSTANT      00000180            384
__BANK_BITS                       CONSTANT      00000180            384
__BANK_FIRST                      CONSTANT      00000000              0
__BANK_INV                        CONSTANT      FFFFFFFF             -1
__BANK_LAST                       CONSTANT      00000180            384
__BANK_MASK                       CONSTANT      0000007F            127
__BANK_SHIFT                      CONSTANT      00000007              7
__BANK_SIZE                       CONSTANT      00000080            128
__CODE_END                        CONSTANT      00001FFF           8191
__CODE_START                      CONSTANT      00000000              0
__COMMON_RAM_END                  CONSTANT      0000007F            127
__COMMON_RAM_START                CONSTANT      00000070            112
gpasm-1.5.2 #0 (Sep 16 2019) build/default/pr   9-16-2019  10:40:44         PAGE 143


SYMBOL TABLE
  LABEL                              TYPE        VALUE         VALUE          VALUE
                                                 (hex)         (dec)          (text)

__CONFIG_END                      CONSTANT      00002007           8199
__CONFIG_START                    CONSTANT      00002007           8199
__EEPROM_END                      CONSTANT      000021FF           8703
__EEPROM_START                    CONSTANT      00002100           8448
__GPUTILS_SVN_VERSION             CONSTANT      00000000              0
__GPUTILS_VERSION_MAJOR           CONSTANT      00000001              1
__GPUTILS_VERSION_MICRO           CONSTANT      00000002              2
__GPUTILS_VERSION_MINOR           CONSTANT      00000005              5
__IDLOCS_END                      CONSTANT      00002003           8195
__IDLOCS_START                    CONSTANT      00002000           8192
__NUM_BANKS                       CONSTANT      00000004              4
__NUM_PAGES                       CONSTANT      00000004              4
__PAGE_0                          CONSTANT      00000000              0
__PAGE_1                          CONSTANT      00000800           2048
__PAGE_2                          CONSTANT      00001000           4096
__PAGE_3                          CONSTANT      00001800           6144
__PAGE_BITS                       CONSTANT      00001800           6144
__PAGE_FIRST                      CONSTANT      00000000              0
__PAGE_INV                        CONSTANT      FFFFFFFF             -1
__PAGE_LAST                       CONSTANT      00001800           6144
__PAGE_MASK                       CONSTANT      000007FF           2047
__PAGE_SHIFT                      CONSTANT      0000000B             11
__PAGE_SIZE                       CONSTANT      00000800           2048
__VECTOR_INT                      CONSTANT      00000004              4
__VECTOR_RESET                    CONSTANT      00000000              0
__WHILE_LOOP_COUNT_MAX            CONSTANT      000000FF            255
___fs2schar                       EXTERNAL      00000000              0
___fs2sint                        EXTERNAL      00000000              0
___fs2slong                       EXTERNAL      00000000              0
___fs2uchar                       EXTERNAL      00000000              0
___fs2uint                        EXTERNAL      00000000              0
___fs2ulong                       EXTERNAL      00000000              0
___fsadd                          EXTERNAL      00000000              0
___fsdiv                          EXTERNAL      00000000              0
___fseq                           EXTERNAL      00000000              0
___fsgt                           EXTERNAL      00000000              0
___fslt                           EXTERNAL      00000000              0
___fsmul                          EXTERNAL      00000000              0
___fssub                          EXTERNAL      00000000              0
___schar2fs                       EXTERNAL      00000000              0
___sint2fs                        EXTERNAL      00000000              0
___slong2fs                       EXTERNAL      00000000              0
___str_0                          ADDRESS       00000000              0
___uchar2fs                       EXTERNAL      00000000              0
___uint2fs                        EXTERNAL      00000000              0
___ulong2fs                       EXTERNAL      00000000              0
_calibrate                        GLOBAL        00000000              0
_cycle_eater                      EXTERNAL      00000000              0
_delay10ms                        EXTERNAL      00000000              0
_delay_ms                         EXTERNAL      00000000              0
_delay_us                         EXTERNAL      00000000              0
_dvar                             EXTERNAL      00000000              0
gpasm-1.5.2 #0 (Sep 16 2019) build/default/pr   9-16-2019  10:40:44         PAGE 144


SYMBOL TABLE
  LABEL                              TYPE        VALUE         VALUE          VALUE
                                                 (hex)         (dec)          (text)

_format_double                    EXTERNAL      00000000              0
_format_number                    EXTERNAL      00000000              0
_format_xint32                    EXTERNAL      00000000              0
_indicator                        EXTERNAL      00000000              0
_lcd_puts                         EXTERNAL      00000000              0
_logo_image                       EXTERNAL      00000000              0
_measure_capacitance              GLOBAL        00000000              0
_measure_freq                     GLOBAL        00000000              0
_measure_inductance               GLOBAL        00000000              0
_output_putch                     EXTERNAL      00000000              0
_print_digit                      EXTERNAL      00000000              0
_print_print_float                EXTERNAL      00000000              0
_print_reading                    EXTERNAL      00000000              0
_print_unit                       EXTERNAL      00000000              0
_put_str                          EXTERNAL      00000000              0
_putchar_ptr                      EXTERNAL      00000000              0
_timer0_init                      EXTERNAL      00000000              0
_timer0_read_ps                   EXTERNAL      00000000              0
_timer2_init                      EXTERNAL      00000000              0
_uart_brg                         EXTERNAL      00000000              0
_uart_disable                     EXTERNAL      00000000              0
_uart_enable                      EXTERNAL      00000000              0
_uart_getch                       EXTERNAL      00000000              0
_uart_init                        EXTERNAL      00000000              0
_uart_isr                         EXTERNAL      00000000              0
_uart_poll                        EXTERNAL      00000000              0
_uart_putch                       EXTERNAL      00000000              0
_uart_puts                        EXTERNAL      00000000              0
_uart_puts2                       EXTERNAL      00000000              0
r0x101A                           STATIC        00000014             20
r0x101B                           STATIC        00000013             19
r0x101C                           STATIC        00000005              5
r0x101D                           STATIC        00000004              4
r0x101E                           STATIC        00000007              7
r0x101F                           STATIC        00000006              6
r0x102A                           STATIC        00000002              2
r0x1012                           STATIC        00000003              3
r0x1014                           STATIC        00000010             16
r0x1015                           STATIC        0000000F             15
r0x1016                           STATIC        00000012             18
r0x1017                           STATIC        00000011             17
r0x1018                           STATIC        00000016             22
r0x1019                           STATIC        00000015             21
r0x1020                           STATIC        0000000B             11
r0x1021                           STATIC        0000000A             10
r0x1022                           STATIC        00000009              9
r0x1023                           STATIC        00000008              8
r0x1024                           STATIC        0000000E             14
r0x1025                           STATIC        0000000D             13
r0x1026                           STATIC        0000000C             12
r0x1028                           STATIC        00000001              1
r0x1029                           STATIC        00000000              0

gpasm-1.5.2 #0 (Sep 16 2019) build/default/pr   9-16-2019  10:40:44         PAGE 145




Errors   :     0
Warnings :     0 reported,     0 suppressed
Messages :     0 reported,     0 suppressed

