gpasm-1.5.0 #1285 (Jul 12 2020) obj/sdcc-16f8   11/12/23  13:12:37          PAGE  1


LOC    OBJECT CODE    LINE  SOURCE TEXT
  VALUE

                      00001 ;--------------------------------------------------------
                      00002 ; File Created by SDCC : free open source ANSI-C Compiler
                      00003 ; Version 4.2.0 #13081 (Linux)
                      00004 ;--------------------------------------------------------
                      00005 ; PIC port for the 14-bit core
                      00006 ;--------------------------------------------------------
                      00007 ;       .file   "src/measure.c"
                      00008         list    p=16f876a
                      00009         radix dec
                      00010         include "p16f876a.inc"
                      00001         LIST
                      00002 
                      00003 ;==========================================================================
                      00004 ; Build date : Oct 21 2015
                      00005 ;  MPASM PIC16F876A processor include
                      00006 ; 
                      00007 ;  (c) Copyright 1999-2015 Microchip Technology, All rights reserved
                      00008 ;==========================================================================
                      00009 
                      00525         LIST
                      00011 ;--------------------------------------------------------
                      00012 ; config word(s)
                      00013 ;--------------------------------------------------------
2007   0000           00014         __config 0x3f32
                      00015 ;--------------------------------------------------------
                      00016 ; external declarations
                      00017 ;--------------------------------------------------------
  0000                00018         extern  ___fs2uint
  0000                00019         extern  ___fsdiv
  0000                00020         extern  ___fssub
  0000                00021         extern  ___fsmul
  0000                00022         extern  ___fslt
  0000                00023         extern  ___uint2fs
  0000                00024         extern  _buffer_puts
  0000                00025         extern  _buffer_putch
  0000                00026         extern  _buffer_init
  0000                00027         extern  _timer0_read_ps
  0000                00028         extern  _format_float
  0000                00029         extern  _format_xint32
  0000                00030         extern  _format_number
  0000                00031         extern  _print_buffer
  0000                00032         extern  _print_reading
  0000                00033         extern  _print_unit
  0000                00034         extern  _put_str
  0000                00035         extern  _lcd_putch
  0000                00036         extern  _lcd_gotoxy
  0000                00037         extern  _lcd_clear
  0000                00038         extern  _ser_puts
  0000                00039         extern  _ser_put
  0000                00040         extern  _ser_putch
  0000                00041         extern  _delay10ms
  0000                00042         extern  _delay_ms
  0000                00043         extern  _TRISA
gpasm-1.5.0 #1285 (Jul 12 2020) obj/sdcc-16f8   11/12/23  13:12:37          PAGE  2


LOC    OBJECT CODE    LINE  SOURCE TEXT
  VALUE

  0000                00044         extern  _PORTC
  0000                00045         extern  _TMR0
  0000                00046         extern  _buffer
  0000                00047         extern  _CCal
  0000                00048         extern  _F3
  0000                00049         extern  _F2
  0000                00050         extern  _F1
  0000                00051         extern  _INTCONbits
                      00052 
  0000                00053         extern PSAVE
  0000                00054         extern SSAVE
  0000                00055         extern WSAVE
  0000                00056         extern STK12
  0000                00057         extern STK11
  0000                00058         extern STK10
  0000                00059         extern STK09
  0000                00060         extern STK08
  0000                00061         extern STK07
  0000                00062         extern STK06
  0000                00063         extern STK05
  0000                00064         extern STK04
  0000                00065         extern STK03
  0000                00066         extern STK02
  0000                00067         extern STK01
  0000                00068         extern STK00
                      00069 ;--------------------------------------------------------
                      00070 ; global declarations
                      00071 ;--------------------------------------------------------
  0000                00072         global  _buf_to_ser
  0000                00073         global  _calibrate
  0000                00074         global  _measure_freq
  0000                00075         global  _measure_capacitance
  0000                00076         global  _measure_inductance
                      00077 
                      00078 ;--------------------------------------------------------
                      00079 ; global definitions
                      00080 ;--------------------------------------------------------
                      00081 ;--------------------------------------------------------
                      00082 ; absolute symbol definitions
                      00083 ;--------------------------------------------------------
                      00084 ;--------------------------------------------------------
                      00085 ; compiler-defined variables
                      00086 ;--------------------------------------------------------
                      00087 UDL_measure_0   udata
0000                  00088 r0x1045 res     1
0001                  00089 r0x1044 res     1
0002                  00090 r0x1046 res     1
0003                  00091 r0x1026 res     1
0004                  00092 r0x1025 res     1
0005                  00093 r0x1028 res     1
0006                  00094 r0x1027 res     1
0007                  00095 r0x1029 res     1
0008                  00096 r0x103F res     1
gpasm-1.5.0 #1285 (Jul 12 2020) obj/sdcc-16f8   11/12/23  13:12:37          PAGE  3


LOC    OBJECT CODE    LINE  SOURCE TEXT
  VALUE

0009                  00097 r0x103E res     1
000A                  00098 r0x1041 res     1
000B                  00099 r0x1033 res     1
000C                  00100 r0x1032 res     1
000D                  00101 r0x1034 res     1
000E                  00102 r0x1035 res     1
000F                  00103 r0x1036 res     1
0010                  00104 r0x1037 res     1
0011                  00105 r0x1039 res     1
0012                  00106 r0x1038 res     1
0013                  00107 r0x103C res     1
0014                  00108 r0x103B res     1
0015                  00109 r0x103A res     1
0016                  00110 r0x102B res     1
0017                  00111 r0x102A res     1
0018                  00112 r0x102C res     1
0019                  00113 r0x102D res     1
001A                  00114 r0x1031 res     1
001B                  00115 r0x1030 res     1
001C                  00116 r0x102F res     1
001D                  00117 r0x102E res     1
001E                  00118 _measure_capacitance_Cin_65536_66       res     4
                      00119 ;--------------------------------------------------------
                      00120 ; initialized data
                      00121 ;--------------------------------------------------------
                      00122 
                      00123 IDC_measure_0   code
0000                  00124 ___str_0
0000   3443           00125         retlw 0x43 ; 'C'
0001   3461           00126         retlw 0x61 ; 'a'
0002   346C           00127         retlw 0x6c ; 'l'
0003   3469           00128         retlw 0x69 ; 'i'
0004   3462           00129         retlw 0x62 ; 'b'
0005   3472           00130         retlw 0x72 ; 'r'
0006   3461           00131         retlw 0x61 ; 'a'
0007   3474           00132         retlw 0x74 ; 't'
0008   3469           00133         retlw 0x69 ; 'i'
0009   346E           00134         retlw 0x6e ; 'n'
000A   3467           00135         retlw 0x67 ; 'g'
000B   3400           00136         retlw 0x00 ; '.'
                      00137 
                      00138 IDC_measure_1   code
0000                  00139 ___str_1
0000   340D           00140         retlw 0x0d ; '.'
0001   340A           00141         retlw 0x0a ; '.'
0002   3400           00142         retlw 0x00 ; '.'
                      00143 
                      00144 IDC_measure_2   code
0000                  00145 ___str_2
0000   3470           00146         retlw 0x70 ; 'p'
0001   346C           00147         retlw 0x6c ; 'l'
0002   3465           00148         retlw 0x65 ; 'e'
0003   3461           00149         retlw 0x61 ; 'a'
gpasm-1.5.0 #1285 (Jul 12 2020) obj/sdcc-16f8   11/12/23  13:12:37          PAGE  4


LOC    OBJECT CODE    LINE  SOURCE TEXT
  VALUE

0004   3473           00150         retlw 0x73 ; 's'
0005   3465           00151         retlw 0x65 ; 'e'
0006   3420           00152         retlw 0x20 ; ' '
0007   3477           00153         retlw 0x77 ; 'w'
0008   3461           00154         retlw 0x61 ; 'a'
0009   3469           00155         retlw 0x69 ; 'i'
000A   3474           00156         retlw 0x74 ; 't'
000B   342E           00157         retlw 0x2e ; '.'
000C   342E           00158         retlw 0x2e ; '.'
000D   342E           00159         retlw 0x2e ; '.'
000E   3400           00160         retlw 0x00 ; '.'
                      00161 
                      00162 IDC_measure_3   code
0000                  00163 ___str_3
0000   3446           00164         retlw 0x46 ; 'F'
0001   3472           00165         retlw 0x72 ; 'r'
0002   3465           00166         retlw 0x65 ; 'e'
0003   3471           00167         retlw 0x71 ; 'q'
0004   343D           00168         retlw 0x3d ; '='
0005   3400           00169         retlw 0x00 ; '.'
                      00170 
                      00171 IDC_measure_4   code
0000                  00172 ___str_4
0000   3443           00173         retlw 0x43 ; 'C'
0001   3461           00174         retlw 0x61 ; 'a'
0002   3470           00175         retlw 0x70 ; 'p'
0003   3461           00176         retlw 0x61 ; 'a'
0004   3463           00177         retlw 0x63 ; 'c'
0005   3469           00178         retlw 0x69 ; 'i'
0006   3474           00179         retlw 0x74 ; 't'
0007   3479           00180         retlw 0x79 ; 'y'
0008   3420           00181         retlw 0x20 ; ' '
0009   3400           00182         retlw 0x00 ; '.'
                      00183 
                      00184 IDC_measure_5   code
0000                  00185 ___str_5
0000   3476           00186         retlw 0x76 ; 'v'
0001   3461           00187         retlw 0x61 ; 'a'
0002   3472           00188         retlw 0x72 ; 'r'
0003   343D           00189         retlw 0x3d ; '='
0004   3400           00190         retlw 0x00 ; '.'
                      00191 
                      00192 IDC_measure_6   code
0000                  00193 ___str_6
0000   340D           00194         retlw 0x0d ; '.'
0001   340A           00195         retlw 0x0a ; '.'
0002   3446           00196         retlw 0x46 ; 'F'
0003   3431           00197         retlw 0x31 ; '1'
0004   343D           00198         retlw 0x3d ; '='
0005   3400           00199         retlw 0x00 ; '.'
                      00200 
                      00201 IDC_measure_7   code
0000                  00202 ___str_7
gpasm-1.5.0 #1285 (Jul 12 2020) obj/sdcc-16f8   11/12/23  13:12:37          PAGE  5


LOC    OBJECT CODE    LINE  SOURCE TEXT
  VALUE

0000   340D           00203         retlw 0x0d ; '.'
0001   340A           00204         retlw 0x0a ; '.'
0002   3446           00205         retlw 0x46 ; 'F'
0003   3432           00206         retlw 0x32 ; '2'
0004   343D           00207         retlw 0x3d ; '='
0005   3400           00208         retlw 0x00 ; '.'
                      00209 
                      00210 IDC_measure_8   code
0000                  00211 ___str_8
0000   340D           00212         retlw 0x0d ; '.'
0001   340A           00213         retlw 0x0a ; '.'
0002   3446           00214         retlw 0x46 ; 'F'
0003   3433           00215         retlw 0x33 ; '3'
0004   343D           00216         retlw 0x3d ; '='
0005   3400           00217         retlw 0x00 ; '.'
                      00218 
                      00219 IDC_measure_9   code
0000                  00220 ___str_9
0000   340D           00221         retlw 0x0d ; '.'
0001   340A           00222         retlw 0x0a ; '.'
0002   3443           00223         retlw 0x43 ; 'C'
0003   3443           00224         retlw 0x43 ; 'C'
0004   3461           00225         retlw 0x61 ; 'a'
0005   346C           00226         retlw 0x6c ; 'l'
0006   343D           00227         retlw 0x3d ; '='
0007   3400           00228         retlw 0x00 ; '.'
                      00229 
                      00230 IDC_measure_10  code
0000                  00231 ___str_10
0000   3443           00232         retlw 0x43 ; 'C'
0001   3469           00233         retlw 0x69 ; 'i'
0002   346E           00234         retlw 0x6e ; 'n'
0003   343D           00235         retlw 0x3d ; '='
0004   3400           00236         retlw 0x00 ; '.'
                      00237 
                      00238 IDC_measure_11  code
0000                  00239 ___str_11
0000   3449           00240         retlw 0x49 ; 'I'
0001   346E           00241         retlw 0x6e ; 'n'
0002   3464           00242         retlw 0x64 ; 'd'
0003   3475           00243         retlw 0x75 ; 'u'
0004   3463           00244         retlw 0x63 ; 'c'
0005   3474           00245         retlw 0x74 ; 't'
0006   3469           00246         retlw 0x69 ; 'i'
0007   3476           00247         retlw 0x76 ; 'v'
0008   3469           00248         retlw 0x69 ; 'i'
0009   3474           00249         retlw 0x74 ; 't'
000A   3479           00250         retlw 0x79 ; 'y'
000B   3420           00251         retlw 0x20 ; ' '
000C   3400           00252         retlw 0x00 ; '.'
                      00253 ;--------------------------------------------------------
                      00254 ; initialized absolute data
                      00255 ;--------------------------------------------------------
gpasm-1.5.0 #1285 (Jul 12 2020) obj/sdcc-16f8   11/12/23  13:12:37          PAGE  6


LOC    OBJECT CODE    LINE  SOURCE TEXT
  VALUE

                      00256 ;--------------------------------------------------------
                      00257 ; overlayable items in internal ram 
                      00258 ;--------------------------------------------------------
                      00259 ;       udata_ovr
                      00260 ;--------------------------------------------------------
                      00261 ; code
                      00262 ;--------------------------------------------------------
                      00263 code_measure    code
                      00264 ;***
                      00265 ;  pBlock Stats: dbName = C
                      00266 ;***
                      00267 ;has an exit
                      00268 ;functions called:
                      00269 ;   _lcd_gotoxy
                      00270 ;   _put_str
                      00271 ;   _measure_freq
                      00272 ;   ___uint2fs
                      00273 ;   ___fslt
                      00274 ;   ___fsmul
                      00275 ;   ___fsmul
                      00276 ;   ___fssub
                      00277 ;   ___fsmul
                      00278 ;   ___fsmul
                      00279 ;   ___fsmul
                      00280 ;   ___fsmul
                      00281 ;   ___fsmul
                      00282 ;   ___fsmul
                      00283 ;   ___fsmul
                      00284 ;   ___fsmul
                      00285 ;   ___fsmul
                      00286 ;   ___fsdiv
                      00287 ;   ___fsmul
                      00288 ;   ___fslt
                      00289 ;   ___fslt
                      00290 ;   ___fslt
                      00291 ;   ___fsdiv
                      00292 ;   ___fsdiv
                      00293 ;   ___fsdiv
                      00294 ;   ___fsmul
                      00295 ;   ___fs2uint
                      00296 ;   _print_reading
                      00297 ;   _print_unit
                      00298 ;   _lcd_gotoxy
                      00299 ;   _put_str
                      00300 ;   _measure_freq
                      00301 ;   ___uint2fs
                      00302 ;   ___fslt
                      00303 ;   ___fsmul
                      00304 ;   ___fsmul
                      00305 ;   ___fssub
                      00306 ;   ___fsmul
                      00307 ;   ___fsmul
                      00308 ;   ___fsmul
gpasm-1.5.0 #1285 (Jul 12 2020) obj/sdcc-16f8   11/12/23  13:12:37          PAGE  7


LOC    OBJECT CODE    LINE  SOURCE TEXT
  VALUE

                      00309 ;   ___fsmul
                      00310 ;   ___fsmul
                      00311 ;   ___fsmul
                      00312 ;   ___fsmul
                      00313 ;   ___fsmul
                      00314 ;   ___fsmul
                      00315 ;   ___fsdiv
                      00316 ;   ___fsmul
                      00317 ;   ___fslt
                      00318 ;   ___fslt
                      00319 ;   ___fslt
                      00320 ;   ___fsdiv
                      00321 ;   ___fsdiv
                      00322 ;   ___fsdiv
                      00323 ;   ___fsmul
                      00324 ;   ___fs2uint
                      00325 ;   _print_reading
                      00326 ;   _print_unit
                      00327 ;15 compiler assigned registers:
                      00328 ;   STK00
                      00329 ;   r0x102A
                      00330 ;   r0x102B
                      00331 ;   r0x102C
                      00332 ;   STK01
                      00333 ;   STK02
                      00334 ;   STK06
                      00335 ;   STK05
                      00336 ;   STK04
                      00337 ;   STK03
                      00338 ;   r0x102D
                      00339 ;   r0x102E
                      00340 ;   r0x102F
                      00341 ;   r0x1030
                      00342 ;   r0x1031
                      00343 ;; Starting pCode block
                      00344 S_measure__measure_inductance   code
0000                  00345 _measure_inductance:
                      00346 ; 2 exit points
                      00347 ;       .line   225; "src/measure.c"    lcd_gotoxy(0, 0);
0000   3000           00348         MOVLW   0x00
0001   00??           00349         MOVWF   STK00
0002   3000           00350         MOVLW   0x00
0003   0??? 0???      00351         PAGESEL _lcd_gotoxy
0005   2???           00352         CALL    _lcd_gotoxy
0006   0??? 0???      00353         PAGESEL $
                      00354 ;       .line   226; "src/measure.c"    put_str("Inductivity ");
0008   30??           00355         MOVLW   high (___str_11 + 0)
0009   0??? 0???      00356         BANKSEL r0x102A
000B   00??           00357         MOVWF   r0x102A
000C   30??           00358         MOVLW   (___str_11 + 0)
000D   00??           00359         MOVWF   r0x102B
000E   3080           00360         MOVLW   0x80
000F   00??           00361         MOVWF   r0x102C
gpasm-1.5.0 #1285 (Jul 12 2020) obj/sdcc-16f8   11/12/23  13:12:37          PAGE  8


LOC    OBJECT CODE    LINE  SOURCE TEXT
  VALUE

0010   08??           00362         MOVF    r0x102B,W
0011   00??           00363         MOVWF   STK01
0012   08??           00364         MOVF    r0x102A,W
0013   00??           00365         MOVWF   STK00
0014   08??           00366         MOVF    r0x102C,W
0015   0??? 0???      00367         PAGESEL _put_str
0017   2???           00368         CALL    _put_str
0018   0??? 0???      00369         PAGESEL $
                      00370 ;       .line   228; "src/measure.c"    var = measure_freq();
001A   0??? 0???      00371         PAGESEL _measure_freq
001C   2???           00372         CALL    _measure_freq
001D   0??? 0???      00373         PAGESEL $
001F   0??? 0???      00374         BANKSEL r0x102A
0021   00??           00375         MOVWF   r0x102A
0022   08??           00376         MOVF    STK00,W
                      00377 ;       .line   230; "src/measure.c"    F3 = (double)var;
0023   00??           00378         MOVWF   r0x102B
0024   00??           00379         MOVWF   STK00
0025   08??           00380         MOVF    r0x102A,W
0026   0??? 0???      00381         PAGESEL ___uint2fs
0028   2???           00382         CALL    ___uint2fs
0029   0??? 0???      00383         PAGESEL $
002B   0??? 0???      00384         BANKSEL _F3
002D   00??           00385         MOVWF   (_F3 + 3)
002E   08??           00386         MOVF    STK00,W
002F   00??           00387         MOVWF   (_F3 + 2)
0030   08??           00388         MOVF    STK01,W
0031   00??           00389         MOVWF   (_F3 + 1)
0032   08??           00390         MOVF    STK02,W
0033   00??           00391         MOVWF   _F3
                      00392 ;       .line   231; "src/measure.c"    if(F3 > F1)
0034   08??           00393         MOVF    _F3,W
0035   00??           00394         MOVWF   STK06
0036   08??           00395         MOVF    (_F3 + 1),W
0037   00??           00396         MOVWF   STK05
0038   08??           00397         MOVF    (_F3 + 2),W
0039   00??           00398         MOVWF   STK04
003A   08??           00399         MOVF    (_F3 + 3),W
003B   00??           00400         MOVWF   STK03
003C   0??? 0???      00401         BANKSEL _F1
003E   08??           00402         MOVF    _F1,W
003F   00??           00403         MOVWF   STK02
0040   08??           00404         MOVF    (_F1 + 1),W
0041   00??           00405         MOVWF   STK01
0042   08??           00406         MOVF    (_F1 + 2),W
0043   00??           00407         MOVWF   STK00
0044   08??           00408         MOVF    (_F1 + 3),W
0045   0??? 0???      00409         PAGESEL ___fslt
0047   2???           00410         CALL    ___fslt
0048   0??? 0???      00411         PAGESEL $
004A   0??? 0???      00412         BANKSEL r0x102B
004C   00??           00413         MOVWF   r0x102B
004D   08??           00414         MOVF    r0x102B,W
gpasm-1.5.0 #1285 (Jul 12 2020) obj/sdcc-16f8   11/12/23  13:12:37          PAGE  9


LOC    OBJECT CODE    LINE  SOURCE TEXT
  VALUE

004E   1903           00415         BTFSC   STATUS,2
004F   2???           00416         GOTO    _00135_DS_
                      00417 ;       .line   232; "src/measure.c"    F3 = F1; // max freq is F1;
0050   0??? 0???      00418         BANKSEL _F1
0052   08??           00419         MOVF    _F1,W
0053   0??? 0???      00420         BANKSEL _F3
0055   00??           00421         MOVWF   _F3
0056   0??? 0???      00422         BANKSEL _F1
0058   08??           00423         MOVF    (_F1 + 1),W
0059   0??? 0???      00424         BANKSEL _F3
005B   00??           00425         MOVWF   (_F3 + 1)
005C   0??? 0???      00426         BANKSEL _F1
005E   08??           00427         MOVF    (_F1 + 2),W
005F   0??? 0???      00428         BANKSEL _F3
0061   00??           00429         MOVWF   (_F3 + 2)
0062   0??? 0???      00430         BANKSEL _F1
0064   08??           00431         MOVF    (_F1 + 3),W
0065   0??? 0???      00432         BANKSEL _F3
0067   00??           00433         MOVWF   (_F3 + 3)
0068                  00434 _00135_DS_:
                      00435 ;       .line   233; "src/measure.c"    numerator = ((F1 * F1) - (F3 * F3)) * ((F1 * F1) - (F2 - F2)) * 
                            (GATE_PERIOD * GATE_PERIOD);
0068   0??? 0???      00436         BANKSEL _F1
006A   08??           00437         MOVF    _F1,W
006B   00??           00438         MOVWF   STK06
006C   08??           00439         MOVF    (_F1 + 1),W
006D   00??           00440         MOVWF   STK05
006E   08??           00441         MOVF    (_F1 + 2),W
006F   00??           00442         MOVWF   STK04
0070   08??           00443         MOVF    (_F1 + 3),W
0071   00??           00444         MOVWF   STK03
0072   08??           00445         MOVF    _F1,W
0073   00??           00446         MOVWF   STK02
0074   08??           00447         MOVF    (_F1 + 1),W
0075   00??           00448         MOVWF   STK01
0076   08??           00449         MOVF    (_F1 + 2),W
0077   00??           00450         MOVWF   STK00
0078   08??           00451         MOVF    (_F1 + 3),W
0079   0??? 0???      00452         PAGESEL ___fsmul
007B   2???           00453         CALL    ___fsmul
007C   0??? 0???      00454         PAGESEL $
007E   0??? 0???      00455         BANKSEL r0x102D
0080   00??           00456         MOVWF   r0x102D
0081   08??           00457         MOVF    STK00,W
0082   00??           00458         MOVWF   r0x102C
0083   08??           00459         MOVF    STK01,W
0084   00??           00460         MOVWF   r0x102A
0085   08??           00461         MOVF    STK02,W
0086   00??           00462         MOVWF   r0x102B
0087   0??? 0???      00463         BANKSEL _F3
0089   08??           00464         MOVF    _F3,W
008A   00??           00465         MOVWF   STK06
008B   08??           00466         MOVF    (_F3 + 1),W
gpasm-1.5.0 #1285 (Jul 12 2020) obj/sdcc-16f8   11/12/23  13:12:37          PAGE 10


LOC    OBJECT CODE    LINE  SOURCE TEXT
  VALUE

008C   00??           00467         MOVWF   STK05
008D   08??           00468         MOVF    (_F3 + 2),W
008E   00??           00469         MOVWF   STK04
008F   08??           00470         MOVF    (_F3 + 3),W
0090   00??           00471         MOVWF   STK03
0091   08??           00472         MOVF    _F3,W
0092   00??           00473         MOVWF   STK02
0093   08??           00474         MOVF    (_F3 + 1),W
0094   00??           00475         MOVWF   STK01
0095   08??           00476         MOVF    (_F3 + 2),W
0096   00??           00477         MOVWF   STK00
0097   08??           00478         MOVF    (_F3 + 3),W
0098   0??? 0???      00479         PAGESEL ___fsmul
009A   2???           00480         CALL    ___fsmul
009B   0??? 0???      00481         PAGESEL $
009D   0??? 0???      00482         BANKSEL r0x102E
009F   00??           00483         MOVWF   r0x102E
00A0   08??           00484         MOVF    STK00,W
00A1   00??           00485         MOVWF   r0x102F
00A2   08??           00486         MOVF    STK01,W
00A3   00??           00487         MOVWF   r0x1030
00A4   08??           00488         MOVF    STK02,W
00A5   00??           00489         MOVWF   r0x1031
00A6   00??           00490         MOVWF   STK06
00A7   08??           00491         MOVF    r0x1030,W
00A8   00??           00492         MOVWF   STK05
00A9   08??           00493         MOVF    r0x102F,W
00AA   00??           00494         MOVWF   STK04
00AB   08??           00495         MOVF    r0x102E,W
00AC   00??           00496         MOVWF   STK03
00AD   08??           00497         MOVF    r0x102B,W
00AE   00??           00498         MOVWF   STK02
00AF   08??           00499         MOVF    r0x102A,W
00B0   00??           00500         MOVWF   STK01
00B1   08??           00501         MOVF    r0x102C,W
00B2   00??           00502         MOVWF   STK00
00B3   08??           00503         MOVF    r0x102D,W
00B4   0??? 0???      00504         PAGESEL ___fssub
00B6   2???           00505         CALL    ___fssub
00B7   0??? 0???      00506         PAGESEL $
00B9   0??? 0???      00507         BANKSEL r0x102E
00BB   00??           00508         MOVWF   r0x102E
00BC   08??           00509         MOVF    STK00,W
00BD   00??           00510         MOVWF   r0x102F
00BE   08??           00511         MOVF    STK01,W
00BF   00??           00512         MOVWF   r0x1030
00C0   08??           00513         MOVF    STK02,W
00C1   00??           00514         MOVWF   r0x1031
00C2   08??           00515         MOVF    r0x102B,W
00C3   00??           00516         MOVWF   STK06
00C4   08??           00517         MOVF    r0x102A,W
00C5   00??           00518         MOVWF   STK05
00C6   08??           00519         MOVF    r0x102C,W
gpasm-1.5.0 #1285 (Jul 12 2020) obj/sdcc-16f8   11/12/23  13:12:37          PAGE 11


LOC    OBJECT CODE    LINE  SOURCE TEXT
  VALUE

00C7   00??           00520         MOVWF   STK04
00C8   08??           00521         MOVF    r0x102D,W
00C9   00??           00522         MOVWF   STK03
00CA   08??           00523         MOVF    r0x1031,W
00CB   00??           00524         MOVWF   STK02
00CC   08??           00525         MOVF    r0x1030,W
00CD   00??           00526         MOVWF   STK01
00CE   08??           00527         MOVF    r0x102F,W
00CF   00??           00528         MOVWF   STK00
00D0   08??           00529         MOVF    r0x102E,W
00D1   0??? 0???      00530         PAGESEL ___fsmul
00D3   2???           00531         CALL    ___fsmul
00D4   0??? 0???      00532         PAGESEL $
00D6   0??? 0???      00533         BANKSEL r0x102D
00D8   00??           00534         MOVWF   r0x102D
00D9   08??           00535         MOVF    STK00,W
00DA   00??           00536         MOVWF   r0x102C
00DB   08??           00537         MOVF    STK01,W
00DC   00??           00538         MOVWF   r0x102A
00DD   08??           00539         MOVF    STK02,W
00DE   00??           00540         MOVWF   r0x102B
00DF   00??           00541         MOVWF   STK06
00E0   08??           00542         MOVF    r0x102A,W
00E1   00??           00543         MOVWF   STK05
00E2   08??           00544         MOVF    r0x102C,W
00E3   00??           00545         MOVWF   STK04
00E4   08??           00546         MOVF    r0x102D,W
00E5   00??           00547         MOVWF   STK03
00E6   3000           00548         MOVLW   0x00
00E7   00??           00549         MOVWF   STK02
00E8   3040           00550         MOVLW   0x40
00E9   00??           00551         MOVWF   STK01
00EA   301C           00552         MOVLW   0x1c
00EB   00??           00553         MOVWF   STK00
00EC   3046           00554         MOVLW   0x46
00ED   0??? 0???      00555         PAGESEL ___fsmul
00EF   2???           00556         CALL    ___fsmul
00F0   0??? 0???      00557         PAGESEL $
00F2   0??? 0???      00558         BANKSEL r0x102D
00F4   00??           00559         MOVWF   r0x102D
00F5   08??           00560         MOVF    STK00,W
00F6   00??           00561         MOVWF   r0x102C
00F7   08??           00562         MOVF    STK01,W
00F8   00??           00563         MOVWF   r0x102A
00F9   08??           00564         MOVF    STK02,W
00FA   00??           00565         MOVWF   r0x102B
                      00566 ;       .line   234; "src/measure.c"    denominator = 4 * PI * PI * F1 * F1 * F2 * F2 * F3 * F3 * CCal;
00FB   0??? 0???      00567         BANKSEL _F1
00FD   08??           00568         MOVF    _F1,W
00FE   00??           00569         MOVWF   STK06
00FF   08??           00570         MOVF    (_F1 + 1),W
0100   00??           00571         MOVWF   STK05
0101   08??           00572         MOVF    (_F1 + 2),W
gpasm-1.5.0 #1285 (Jul 12 2020) obj/sdcc-16f8   11/12/23  13:12:37          PAGE 12


LOC    OBJECT CODE    LINE  SOURCE TEXT
  VALUE

0102   00??           00573         MOVWF   STK04
0103   08??           00574         MOVF    (_F1 + 3),W
0104   00??           00575         MOVWF   STK03
0105   30E6           00576         MOVLW   0xe6
0106   00??           00577         MOVWF   STK02
0107   30E9           00578         MOVLW   0xe9
0108   00??           00579         MOVWF   STK01
0109   301D           00580         MOVLW   0x1d
010A   00??           00581         MOVWF   STK00
010B   3042           00582         MOVLW   0x42
010C   0??? 0???      00583         PAGESEL ___fsmul
010E   2???           00584         CALL    ___fsmul
010F   0??? 0???      00585         PAGESEL $
0111   0??? 0???      00586         BANKSEL r0x102E
0113   00??           00587         MOVWF   r0x102E
0114   08??           00588         MOVF    STK00,W
0115   00??           00589         MOVWF   r0x102F
0116   08??           00590         MOVF    STK01,W
0117   00??           00591         MOVWF   r0x1030
0118   08??           00592         MOVF    STK02,W
0119   00??           00593         MOVWF   r0x1031
011A   0??? 0???      00594         BANKSEL _F1
011C   08??           00595         MOVF    _F1,W
011D   00??           00596         MOVWF   STK06
011E   08??           00597         MOVF    (_F1 + 1),W
011F   00??           00598         MOVWF   STK05
0120   08??           00599         MOVF    (_F1 + 2),W
0121   00??           00600         MOVWF   STK04
0122   08??           00601         MOVF    (_F1 + 3),W
0123   00??           00602         MOVWF   STK03
0124   0??? 0???      00603         BANKSEL r0x1031
0126   08??           00604         MOVF    r0x1031,W
0127   00??           00605         MOVWF   STK02
0128   08??           00606         MOVF    r0x1030,W
0129   00??           00607         MOVWF   STK01
012A   08??           00608         MOVF    r0x102F,W
012B   00??           00609         MOVWF   STK00
012C   08??           00610         MOVF    r0x102E,W
012D   0??? 0???      00611         PAGESEL ___fsmul
012F   2???           00612         CALL    ___fsmul
0130   0??? 0???      00613         PAGESEL $
0132   0??? 0???      00614         BANKSEL r0x102E
0134   00??           00615         MOVWF   r0x102E
0135   08??           00616         MOVF    STK00,W
0136   00??           00617         MOVWF   r0x102F
0137   08??           00618         MOVF    STK01,W
0138   00??           00619         MOVWF   r0x1030
0139   08??           00620         MOVF    STK02,W
013A   00??           00621         MOVWF   r0x1031
013B   0??? 0???      00622         BANKSEL _F2
013D   08??           00623         MOVF    _F2,W
013E   00??           00624         MOVWF   STK06
013F   08??           00625         MOVF    (_F2 + 1),W
gpasm-1.5.0 #1285 (Jul 12 2020) obj/sdcc-16f8   11/12/23  13:12:37          PAGE 13


LOC    OBJECT CODE    LINE  SOURCE TEXT
  VALUE

0140   00??           00626         MOVWF   STK05
0141   08??           00627         MOVF    (_F2 + 2),W
0142   00??           00628         MOVWF   STK04
0143   08??           00629         MOVF    (_F2 + 3),W
0144   00??           00630         MOVWF   STK03
0145   0??? 0???      00631         BANKSEL r0x1031
0147   08??           00632         MOVF    r0x1031,W
0148   00??           00633         MOVWF   STK02
0149   08??           00634         MOVF    r0x1030,W
014A   00??           00635         MOVWF   STK01
014B   08??           00636         MOVF    r0x102F,W
014C   00??           00637         MOVWF   STK00
014D   08??           00638         MOVF    r0x102E,W
014E   0??? 0???      00639         PAGESEL ___fsmul
0150   2???           00640         CALL    ___fsmul
0151   0??? 0???      00641         PAGESEL $
0153   0??? 0???      00642         BANKSEL r0x102E
0155   00??           00643         MOVWF   r0x102E
0156   08??           00644         MOVF    STK00,W
0157   00??           00645         MOVWF   r0x102F
0158   08??           00646         MOVF    STK01,W
0159   00??           00647         MOVWF   r0x1030
015A   08??           00648         MOVF    STK02,W
015B   00??           00649         MOVWF   r0x1031
015C   0??? 0???      00650         BANKSEL _F2
015E   08??           00651         MOVF    _F2,W
015F   00??           00652         MOVWF   STK06
0160   08??           00653         MOVF    (_F2 + 1),W
0161   00??           00654         MOVWF   STK05
0162   08??           00655         MOVF    (_F2 + 2),W
0163   00??           00656         MOVWF   STK04
0164   08??           00657         MOVF    (_F2 + 3),W
0165   00??           00658         MOVWF   STK03
0166   0??? 0???      00659         BANKSEL r0x1031
0168   08??           00660         MOVF    r0x1031,W
0169   00??           00661         MOVWF   STK02
016A   08??           00662         MOVF    r0x1030,W
016B   00??           00663         MOVWF   STK01
016C   08??           00664         MOVF    r0x102F,W
016D   00??           00665         MOVWF   STK00
016E   08??           00666         MOVF    r0x102E,W
016F   0??? 0???      00667         PAGESEL ___fsmul
0171   2???           00668         CALL    ___fsmul
0172   0??? 0???      00669         PAGESEL $
0174   0??? 0???      00670         BANKSEL r0x102E
0176   00??           00671         MOVWF   r0x102E
0177   08??           00672         MOVF    STK00,W
0178   00??           00673         MOVWF   r0x102F
0179   08??           00674         MOVF    STK01,W
017A   00??           00675         MOVWF   r0x1030
017B   08??           00676         MOVF    STK02,W
017C   00??           00677         MOVWF   r0x1031
017D   0??? 0???      00678         BANKSEL _F3
gpasm-1.5.0 #1285 (Jul 12 2020) obj/sdcc-16f8   11/12/23  13:12:37          PAGE 14


LOC    OBJECT CODE    LINE  SOURCE TEXT
  VALUE

017F   08??           00679         MOVF    _F3,W
0180   00??           00680         MOVWF   STK06
0181   08??           00681         MOVF    (_F3 + 1),W
0182   00??           00682         MOVWF   STK05
0183   08??           00683         MOVF    (_F3 + 2),W
0184   00??           00684         MOVWF   STK04
0185   08??           00685         MOVF    (_F3 + 3),W
0186   00??           00686         MOVWF   STK03
0187   0??? 0???      00687         BANKSEL r0x1031
0189   08??           00688         MOVF    r0x1031,W
018A   00??           00689         MOVWF   STK02
018B   08??           00690         MOVF    r0x1030,W
018C   00??           00691         MOVWF   STK01
018D   08??           00692         MOVF    r0x102F,W
018E   00??           00693         MOVWF   STK00
018F   08??           00694         MOVF    r0x102E,W
0190   0??? 0???      00695         PAGESEL ___fsmul
0192   2???           00696         CALL    ___fsmul
0193   0??? 0???      00697         PAGESEL $
0195   0??? 0???      00698         BANKSEL r0x102E
0197   00??           00699         MOVWF   r0x102E
0198   08??           00700         MOVF    STK00,W
0199   00??           00701         MOVWF   r0x102F
019A   08??           00702         MOVF    STK01,W
019B   00??           00703         MOVWF   r0x1030
019C   08??           00704         MOVF    STK02,W
019D   00??           00705         MOVWF   r0x1031
019E   0??? 0???      00706         BANKSEL _F3
01A0   08??           00707         MOVF    _F3,W
01A1   00??           00708         MOVWF   STK06
01A2   08??           00709         MOVF    (_F3 + 1),W
01A3   00??           00710         MOVWF   STK05
01A4   08??           00711         MOVF    (_F3 + 2),W
01A5   00??           00712         MOVWF   STK04
01A6   08??           00713         MOVF    (_F3 + 3),W
01A7   00??           00714         MOVWF   STK03
01A8   0??? 0???      00715         BANKSEL r0x1031
01AA   08??           00716         MOVF    r0x1031,W
01AB   00??           00717         MOVWF   STK02
01AC   08??           00718         MOVF    r0x1030,W
01AD   00??           00719         MOVWF   STK01
01AE   08??           00720         MOVF    r0x102F,W
01AF   00??           00721         MOVWF   STK00
01B0   08??           00722         MOVF    r0x102E,W
01B1   0??? 0???      00723         PAGESEL ___fsmul
01B3   2???           00724         CALL    ___fsmul
01B4   0??? 0???      00725         PAGESEL $
01B6   0??? 0???      00726         BANKSEL r0x102E
01B8   00??           00727         MOVWF   r0x102E
01B9   08??           00728         MOVF    STK00,W
01BA   00??           00729         MOVWF   r0x102F
01BB   08??           00730         MOVF    STK01,W
01BC   00??           00731         MOVWF   r0x1030
gpasm-1.5.0 #1285 (Jul 12 2020) obj/sdcc-16f8   11/12/23  13:12:37          PAGE 15


LOC    OBJECT CODE    LINE  SOURCE TEXT
  VALUE

01BD   08??           00732         MOVF    STK02,W
01BE   00??           00733         MOVWF   r0x1031
01BF   0??? 0???      00734         BANKSEL _CCal
01C1   08??           00735         MOVF    _CCal,W
01C2   00??           00736         MOVWF   STK06
01C3   08??           00737         MOVF    (_CCal + 1),W
01C4   00??           00738         MOVWF   STK05
01C5   08??           00739         MOVF    (_CCal + 2),W
01C6   00??           00740         MOVWF   STK04
01C7   08??           00741         MOVF    (_CCal + 3),W
01C8   00??           00742         MOVWF   STK03
01C9   0??? 0???      00743         BANKSEL r0x1031
01CB   08??           00744         MOVF    r0x1031,W
01CC   00??           00745         MOVWF   STK02
01CD   08??           00746         MOVF    r0x1030,W
01CE   00??           00747         MOVWF   STK01
01CF   08??           00748         MOVF    r0x102F,W
01D0   00??           00749         MOVWF   STK00
01D1   08??           00750         MOVF    r0x102E,W
01D2   0??? 0???      00751         PAGESEL ___fsmul
01D4   2???           00752         CALL    ___fsmul
01D5   0??? 0???      00753         PAGESEL $
01D7   0??? 0???      00754         BANKSEL r0x102E
01D9   00??           00755         MOVWF   r0x102E
01DA   08??           00756         MOVF    STK00,W
01DB   00??           00757         MOVWF   r0x102F
01DC   08??           00758         MOVF    STK01,W
01DD   00??           00759         MOVWF   r0x1030
01DE   08??           00760         MOVF    STK02,W
                      00761 ;       .line   235; "src/measure.c"    Lin = (numerator / denominator) * 1e+15l; // scale to nH { pF/1e
                            +12 * nH/1e+09 * (s/1e+03)^2 }
01DF   00??           00762         MOVWF   r0x1031
01E0   00??           00763         MOVWF   STK06
01E1   08??           00764         MOVF    r0x1030,W
01E2   00??           00765         MOVWF   STK05
01E3   08??           00766         MOVF    r0x102F,W
01E4   00??           00767         MOVWF   STK04
01E5   08??           00768         MOVF    r0x102E,W
01E6   00??           00769         MOVWF   STK03
01E7   08??           00770         MOVF    r0x102B,W
01E8   00??           00771         MOVWF   STK02
01E9   08??           00772         MOVF    r0x102A,W
01EA   00??           00773         MOVWF   STK01
01EB   08??           00774         MOVF    r0x102C,W
01EC   00??           00775         MOVWF   STK00
01ED   08??           00776         MOVF    r0x102D,W
01EE   0??? 0???      00777         PAGESEL ___fsdiv
01F0   2???           00778         CALL    ___fsdiv
01F1   0??? 0???      00779         PAGESEL $
01F3   0??? 0???      00780         BANKSEL r0x102D
01F5   00??           00781         MOVWF   r0x102D
01F6   08??           00782         MOVF    STK00,W
01F7   00??           00783         MOVWF   r0x102C
gpasm-1.5.0 #1285 (Jul 12 2020) obj/sdcc-16f8   11/12/23  13:12:37          PAGE 16


LOC    OBJECT CODE    LINE  SOURCE TEXT
  VALUE

01F8   08??           00784         MOVF    STK01,W
01F9   00??           00785         MOVWF   r0x102A
01FA   08??           00786         MOVF    STK02,W
01FB   00??           00787         MOVWF   r0x102B
01FC   00??           00788         MOVWF   STK06
01FD   08??           00789         MOVF    r0x102A,W
01FE   00??           00790         MOVWF   STK05
01FF   08??           00791         MOVF    r0x102C,W
0200   00??           00792         MOVWF   STK04
0201   08??           00793         MOVF    r0x102D,W
0202   00??           00794         MOVWF   STK03
0203   30A9           00795         MOVLW   0xa9
0204   00??           00796         MOVWF   STK02
0205   305F           00797         MOVLW   0x5f
0206   00??           00798         MOVWF   STK01
0207   3063           00799         MOVLW   0x63
0208   00??           00800         MOVWF   STK00
0209   3058           00801         MOVLW   0x58
020A   0??? 0???      00802         PAGESEL ___fsmul
020C   2???           00803         CALL    ___fsmul
020D   0??? 0???      00804         PAGESEL $
020F   0??? 0???      00805         BANKSEL r0x102D
0211   00??           00806         MOVWF   r0x102D
0212   08??           00807         MOVF    STK00,W
0213   00??           00808         MOVWF   r0x102C
0214   08??           00809         MOVF    STK01,W
0215   00??           00810         MOVWF   r0x102A
0216   08??           00811         MOVF    STK02,W
                      00812 ;       .line   237; "src/measure.c"    if(Lin > 999) {
0217   00??           00813         MOVWF   r0x102B
0218   00??           00814         MOVWF   STK06
0219   08??           00815         MOVF    r0x102A,W
021A   00??           00816         MOVWF   STK05
021B   08??           00817         MOVF    r0x102C,W
021C   00??           00818         MOVWF   STK04
021D   08??           00819         MOVF    r0x102D,W
021E   00??           00820         MOVWF   STK03
021F   3000           00821         MOVLW   0x00
0220   00??           00822         MOVWF   STK02
0221   30C0           00823         MOVLW   0xc0
0222   00??           00824         MOVWF   STK01
0223   3079           00825         MOVLW   0x79
0224   00??           00826         MOVWF   STK00
0225   3044           00827         MOVLW   0x44
0226   0??? 0???      00828         PAGESEL ___fslt
0228   2???           00829         CALL    ___fslt
0229   0??? 0???      00830         PAGESEL $
022B   0??? 0???      00831         BANKSEL r0x1031
022D   00??           00832         MOVWF   r0x1031
022E   08??           00833         MOVF    r0x1031,W
022F   1903           00834         BTFSC   STATUS,2
0230   2???           00835         GOTO    _00143_DS_
                      00836 ;       .line   238; "src/measure.c"    if(Lin > (999e+03l)) {
gpasm-1.5.0 #1285 (Jul 12 2020) obj/sdcc-16f8   11/12/23  13:12:37          PAGE 17


LOC    OBJECT CODE    LINE  SOURCE TEXT
  VALUE

0231   08??           00837         MOVF    r0x102B,W
0232   00??           00838         MOVWF   STK06
0233   08??           00839         MOVF    r0x102A,W
0234   00??           00840         MOVWF   STK05
0235   08??           00841         MOVF    r0x102C,W
0236   00??           00842         MOVWF   STK04
0237   08??           00843         MOVF    r0x102D,W
0238   00??           00844         MOVWF   STK03
0239   3080           00845         MOVLW   0x80
023A   00??           00846         MOVWF   STK02
023B   30E5           00847         MOVLW   0xe5
023C   00??           00848         MOVWF   STK01
023D   3073           00849         MOVLW   0x73
023E   00??           00850         MOVWF   STK00
023F   3049           00851         MOVLW   0x49
0240   0??? 0???      00852         PAGESEL ___fslt
0242   2???           00853         CALL    ___fslt
0243   0??? 0???      00854         PAGESEL $
0245   0??? 0???      00855         BANKSEL r0x1031
0247   00??           00856         MOVWF   r0x1031
0248   08??           00857         MOVF    r0x1031,W
0249   1903           00858         BTFSC   STATUS,2
024A   2???           00859         GOTO    _00140_DS_
                      00860 ;       .line   239; "src/measure.c"    if(Lin > (999e+06l)) {
024B   08??           00861         MOVF    r0x102B,W
024C   00??           00862         MOVWF   STK06
024D   08??           00863         MOVF    r0x102A,W
024E   00??           00864         MOVWF   STK05
024F   08??           00865         MOVF    r0x102C,W
0250   00??           00866         MOVWF   STK04
0251   08??           00867         MOVF    r0x102D,W
0252   00??           00868         MOVWF   STK03
0253   301F           00869         MOVLW   0x1f
0254   00??           00870         MOVWF   STK02
0255   302E           00871         MOVLW   0x2e
0256   00??           00872         MOVWF   STK01
0257   306E           00873         MOVLW   0x6e
0258   00??           00874         MOVWF   STK00
0259   304E           00875         MOVLW   0x4e
025A   0??? 0???      00876         PAGESEL ___fslt
025C   2???           00877         CALL    ___fslt
025D   0??? 0???      00878         PAGESEL $
025F   0??? 0???      00879         BANKSEL r0x1031
0261   00??           00880         MOVWF   r0x1031
0262   08??           00881         MOVF    r0x1031,W
0263   1903           00882         BTFSC   STATUS,2
0264   2???           00883         GOTO    _00137_DS_
                      00884 ;       .line   240; "src/measure.c"    Lin = Lin / (1e+09l);
0265   3028           00885         MOVLW   0x28
0266   00??           00886         MOVWF   STK06
0267   306B           00887         MOVLW   0x6b
0268   00??           00888         MOVWF   STK05
0269   306E           00889         MOVLW   0x6e
gpasm-1.5.0 #1285 (Jul 12 2020) obj/sdcc-16f8   11/12/23  13:12:37          PAGE 18


LOC    OBJECT CODE    LINE  SOURCE TEXT
  VALUE

026A   00??           00890         MOVWF   STK04
026B   304E           00891         MOVLW   0x4e
026C   00??           00892         MOVWF   STK03
026D   08??           00893         MOVF    r0x102B,W
026E   00??           00894         MOVWF   STK02
026F   08??           00895         MOVF    r0x102A,W
0270   00??           00896         MOVWF   STK01
0271   08??           00897         MOVF    r0x102C,W
0272   00??           00898         MOVWF   STK00
0273   08??           00899         MOVF    r0x102D,W
0274   0??? 0???      00900         PAGESEL ___fsdiv
0276   2???           00901         CALL    ___fsdiv
0277   0??? 0???      00902         PAGESEL $
0279   0??? 0???      00903         BANKSEL r0x102D
027B   00??           00904         MOVWF   r0x102D
027C   08??           00905         MOVF    STK00,W
027D   00??           00906         MOVWF   r0x102C
027E   08??           00907         MOVF    STK01,W
027F   00??           00908         MOVWF   r0x102A
0280   08??           00909         MOVF    STK02,W
0281   00??           00910         MOVWF   r0x102B
                      00911 ;       .line   241; "src/measure.c"    unit = 0; // "H"
0282   01??           00912         CLRF    r0x1031
0283   2???           00913         GOTO    _00144_DS_
0284                  00914 _00137_DS_:
                      00915 ;       .line   243; "src/measure.c"    Lin = Lin / (1e+06l);
0284   3000           00916         MOVLW   0x00
0285   00??           00917         MOVWF   STK06
0286   3024           00918         MOVLW   0x24
0287   00??           00919         MOVWF   STK05
0288   3074           00920         MOVLW   0x74
0289   00??           00921         MOVWF   STK04
028A   3049           00922         MOVLW   0x49
028B   00??           00923         MOVWF   STK03
028C   0??? 0???      00924         BANKSEL r0x102B
028E   08??           00925         MOVF    r0x102B,W
028F   00??           00926         MOVWF   STK02
0290   08??           00927         MOVF    r0x102A,W
0291   00??           00928         MOVWF   STK01
0292   08??           00929         MOVF    r0x102C,W
0293   00??           00930         MOVWF   STK00
0294   08??           00931         MOVF    r0x102D,W
0295   0??? 0???      00932         PAGESEL ___fsdiv
0297   2???           00933         CALL    ___fsdiv
0298   0??? 0???      00934         PAGESEL $
029A   0??? 0???      00935         BANKSEL r0x102D
029C   00??           00936         MOVWF   r0x102D
029D   08??           00937         MOVF    STK00,W
029E   00??           00938         MOVWF   r0x102C
029F   08??           00939         MOVF    STK01,W
02A0   00??           00940         MOVWF   r0x102A
02A1   08??           00941         MOVF    STK02,W
02A2   00??           00942         MOVWF   r0x102B
gpasm-1.5.0 #1285 (Jul 12 2020) obj/sdcc-16f8   11/12/23  13:12:37          PAGE 19


LOC    OBJECT CODE    LINE  SOURCE TEXT
  VALUE

                      00943 ;       .line   244; "src/measure.c"    unit = 1; // "mH"
02A3   3001           00944         MOVLW   0x01
02A4   00??           00945         MOVWF   r0x1031
02A5   2???           00946         GOTO    _00144_DS_
02A6                  00947 _00140_DS_:
                      00948 ;       .line   247; "src/measure.c"    Lin = Lin / 1e+03l;
02A6   3000           00949         MOVLW   0x00
02A7   00??           00950         MOVWF   STK06
02A8   3000           00951         MOVLW   0x00
02A9   00??           00952         MOVWF   STK05
02AA   307A           00953         MOVLW   0x7a
02AB   00??           00954         MOVWF   STK04
02AC   3044           00955         MOVLW   0x44
02AD   00??           00956         MOVWF   STK03
02AE   0??? 0???      00957         BANKSEL r0x102B
02B0   08??           00958         MOVF    r0x102B,W
02B1   00??           00959         MOVWF   STK02
02B2   08??           00960         MOVF    r0x102A,W
02B3   00??           00961         MOVWF   STK01
02B4   08??           00962         MOVF    r0x102C,W
02B5   00??           00963         MOVWF   STK00
02B6   08??           00964         MOVF    r0x102D,W
02B7   0??? 0???      00965         PAGESEL ___fsdiv
02B9   2???           00966         CALL    ___fsdiv
02BA   0??? 0???      00967         PAGESEL $
02BC   0??? 0???      00968         BANKSEL r0x102D
02BE   00??           00969         MOVWF   r0x102D
02BF   08??           00970         MOVF    STK00,W
02C0   00??           00971         MOVWF   r0x102C
02C1   08??           00972         MOVF    STK01,W
02C2   00??           00973         MOVWF   r0x102A
02C3   08??           00974         MOVF    STK02,W
02C4   00??           00975         MOVWF   r0x102B
                      00976 ;       .line   248; "src/measure.c"    unit = 2; // "uH"
02C5   3002           00977         MOVLW   0x02
02C6   00??           00978         MOVWF   r0x1031
02C7   2???           00979         GOTO    _00144_DS_
02C8                  00980 _00143_DS_:
                      00981 ;       .line   251; "src/measure.c"    unit = 3; // "nH"
02C8   3003           00982         MOVLW   0x03
02C9   0??? 0???      00983         BANKSEL r0x1031
02CB   00??           00984         MOVWF   r0x1031
02CC                  00985 _00144_DS_:
                      00986 ;       .line   253; "src/measure.c"    Lin = Lin * 100; // scale to 2 decimal place
02CC   0??? 0???      00987         BANKSEL r0x102B
02CE   08??           00988         MOVF    r0x102B,W
02CF   00??           00989         MOVWF   STK06
02D0   08??           00990         MOVF    r0x102A,W
02D1   00??           00991         MOVWF   STK05
02D2   08??           00992         MOVF    r0x102C,W
02D3   00??           00993         MOVWF   STK04
02D4   08??           00994         MOVF    r0x102D,W
02D5   00??           00995         MOVWF   STK03
gpasm-1.5.0 #1285 (Jul 12 2020) obj/sdcc-16f8   11/12/23  13:12:37          PAGE 20


LOC    OBJECT CODE    LINE  SOURCE TEXT
  VALUE

02D6   3000           00996         MOVLW   0x00
02D7   00??           00997         MOVWF   STK02
02D8   3000           00998         MOVLW   0x00
02D9   00??           00999         MOVWF   STK01
02DA   30C8           01000         MOVLW   0xc8
02DB   00??           01001         MOVWF   STK00
02DC   3042           01002         MOVLW   0x42
02DD   0??? 0???      01003         PAGESEL ___fsmul
02DF   2???           01004         CALL    ___fsmul
02E0   0??? 0???      01005         PAGESEL $
02E2   0??? 0???      01006         BANKSEL r0x102D
02E4   00??           01007         MOVWF   r0x102D
02E5   08??           01008         MOVF    STK00,W
02E6   00??           01009         MOVWF   r0x102C
02E7   08??           01010         MOVF    STK01,W
02E8   00??           01011         MOVWF   r0x102A
02E9   08??           01012         MOVF    STK02,W
                      01013 ;       .line   254; "src/measure.c"    var = (uint16_t)Lin;
02EA   00??           01014         MOVWF   r0x102B
02EB   00??           01015         MOVWF   STK02
02EC   08??           01016         MOVF    r0x102A,W
02ED   00??           01017         MOVWF   STK01
02EE   08??           01018         MOVF    r0x102C,W
02EF   00??           01019         MOVWF   STK00
02F0   08??           01020         MOVF    r0x102D,W
02F1   0??? 0???      01021         PAGESEL ___fs2uint
02F3   2???           01022         CALL    ___fs2uint
02F4   0??? 0???      01023         PAGESEL $
02F6   0??? 0???      01024         BANKSEL r0x102A
02F8   00??           01025         MOVWF   r0x102A
02F9   08??           01026         MOVF    STK00,W
                      01027 ;       .line   256; "src/measure.c"    print_reading(var);
02FA   00??           01028         MOVWF   r0x102B
02FB   00??           01029         MOVWF   STK00
02FC   08??           01030         MOVF    r0x102A,W
02FD   0??? 0???      01031         PAGESEL _print_reading
02FF   2???           01032         CALL    _print_reading
0300   0??? 0???      01033         PAGESEL $
                      01034 ;       .line   257; "src/measure.c"    print_unit(unit);
0302   0??? 0???      01035         BANKSEL r0x1031
0304   08??           01036         MOVF    r0x1031,W
0305   0??? 0???      01037         PAGESEL _print_unit
0307   2???           01038         CALL    _print_unit
0308   0??? 0???      01039         PAGESEL $
                      01040 ;       .line   258; "src/measure.c"    }
030A   0008           01041         RETURN  
                      01042 ; exit point of _measure_inductance
                      01043 
                      01044 ;***
                      01045 ;  pBlock Stats: dbName = C
                      01046 ;***
                      01047 ;has an exit
                      01048 ;functions called:
gpasm-1.5.0 #1285 (Jul 12 2020) obj/sdcc-16f8   11/12/23  13:12:37          PAGE 21


LOC    OBJECT CODE    LINE  SOURCE TEXT
  VALUE

                      01049 ;   _lcd_gotoxy
                      01050 ;   _put_str
                      01051 ;   _measure_freq
                      01052 ;   ___uint2fs
                      01053 ;   _ser_puts
                      01054 ;   _format_xint32
                      01055 ;   _ser_puts
                      01056 ;   _format_float
                      01057 ;   _ser_putch
                      01058 ;   _format_xint32
                      01059 ;   _ser_puts
                      01060 ;   _format_float
                      01061 ;   _ser_putch
                      01062 ;   _format_xint32
                      01063 ;   _ser_puts
                      01064 ;   _format_float
                      01065 ;   _ser_putch
                      01066 ;   _format_xint32
                      01067 ;   _ser_puts
                      01068 ;   _format_float
                      01069 ;   _ser_putch
                      01070 ;   _format_xint32
                      01071 ;   _ser_puts
                      01072 ;   ___fslt
                      01073 ;   ___fsmul
                      01074 ;   ___fsmul
                      01075 ;   ___fsmul
                      01076 ;   ___fssub
                      01077 ;   ___fsmul
                      01078 ;   ___fsmul
                      01079 ;   _ser_puts
                      01080 ;   _format_float
                      01081 ;   _ser_putch
                      01082 ;   _format_xint32
                      01083 ;   _ser_puts
                      01084 ;   ___fslt
                      01085 ;   ___fslt
                      01086 ;   ___fslt
                      01087 ;   ___fsdiv
                      01088 ;   ___fsdiv
                      01089 ;   ___fsdiv
                      01090 ;   ___fsmul
                      01091 ;   ___fs2uint
                      01092 ;   _print_reading
                      01093 ;   _print_unit
                      01094 ;   _lcd_gotoxy
                      01095 ;   _put_str
                      01096 ;   _measure_freq
                      01097 ;   ___uint2fs
                      01098 ;   _ser_puts
                      01099 ;   _format_xint32
                      01100 ;   _ser_puts
                      01101 ;   _format_float
gpasm-1.5.0 #1285 (Jul 12 2020) obj/sdcc-16f8   11/12/23  13:12:37          PAGE 22


LOC    OBJECT CODE    LINE  SOURCE TEXT
  VALUE

                      01102 ;   _ser_putch
                      01103 ;   _format_xint32
                      01104 ;   _ser_puts
                      01105 ;   _format_float
                      01106 ;   _ser_putch
                      01107 ;   _format_xint32
                      01108 ;   _ser_puts
                      01109 ;   _format_float
                      01110 ;   _ser_putch
                      01111 ;   _format_xint32
                      01112 ;   _ser_puts
                      01113 ;   _format_float
                      01114 ;   _ser_putch
                      01115 ;   _format_xint32
                      01116 ;   _ser_puts
                      01117 ;   ___fslt
                      01118 ;   ___fsmul
                      01119 ;   ___fsmul
                      01120 ;   ___fsmul
                      01121 ;   ___fssub
                      01122 ;   ___fsmul
                      01123 ;   ___fsmul
                      01124 ;   _ser_puts
                      01125 ;   _format_float
                      01126 ;   _ser_putch
                      01127 ;   _format_xint32
                      01128 ;   _ser_puts
                      01129 ;   ___fslt
                      01130 ;   ___fslt
                      01131 ;   ___fslt
                      01132 ;   ___fsdiv
                      01133 ;   ___fsdiv
                      01134 ;   ___fsdiv
                      01135 ;   ___fsmul
                      01136 ;   ___fs2uint
                      01137 ;   _print_reading
                      01138 ;   _print_unit
                      01139 ;19 compiler assigned registers:
                      01140 ;   STK00
                      01141 ;   r0x1032
                      01142 ;   r0x1033
                      01143 ;   r0x1034
                      01144 ;   STK01
                      01145 ;   STK02
                      01146 ;   r0x1035
                      01147 ;   r0x1036
                      01148 ;   r0x1037
                      01149 ;   STK04
                      01150 ;   STK03
                      01151 ;   STK06
                      01152 ;   STK05
                      01153 ;   r0x1038
                      01154 ;   r0x1039
gpasm-1.5.0 #1285 (Jul 12 2020) obj/sdcc-16f8   11/12/23  13:12:37          PAGE 23


LOC    OBJECT CODE    LINE  SOURCE TEXT
  VALUE

                      01155 ;   r0x103A
                      01156 ;   r0x103B
                      01157 ;   r0x103C
                      01158 ;   r0x103D
                      01159 ;; Starting pCode block
                      01160 S_measure__measure_capacitance  code
0000                  01161 _measure_capacitance:
                      01162 ; 2 exit points
                      01163 ;       .line   139; "src/measure.c"    lcd_gotoxy(0, 0);
0000   3000           01164         MOVLW   0x00
0001   00??           01165         MOVWF   STK00
0002   3000           01166         MOVLW   0x00
0003   0??? 0???      01167         PAGESEL _lcd_gotoxy
0005   2???           01168         CALL    _lcd_gotoxy
0006   0??? 0???      01169         PAGESEL $
                      01170 ;       .line   140; "src/measure.c"    put_str("Capacity ");
0008   30??           01171         MOVLW   high (___str_4 + 0)
0009   0??? 0???      01172         BANKSEL r0x1032
000B   00??           01173         MOVWF   r0x1032
000C   30??           01174         MOVLW   (___str_4 + 0)
000D   00??           01175         MOVWF   r0x1033
000E   3080           01176         MOVLW   0x80
000F   00??           01177         MOVWF   r0x1034
0010   08??           01178         MOVF    r0x1033,W
0011   00??           01179         MOVWF   STK01
0012   08??           01180         MOVF    r0x1032,W
0013   00??           01181         MOVWF   STK00
0014   08??           01182         MOVF    r0x1034,W
0015   0??? 0???      01183         PAGESEL _put_str
0017   2???           01184         CALL    _put_str
0018   0??? 0???      01185         PAGESEL $
                      01186 ;       .line   142; "src/measure.c"    var = measure_freq();
001A   0??? 0???      01187         PAGESEL _measure_freq
001C   2???           01188         CALL    _measure_freq
001D   0??? 0???      01189         PAGESEL $
001F   0??? 0???      01190         BANKSEL r0x1032
0021   00??           01191         MOVWF   r0x1032
0022   08??           01192         MOVF    STK00,W
                      01193 ;       .line   144; "src/measure.c"    F3 = (double)var;
0023   00??           01194         MOVWF   r0x1033
0024   00??           01195         MOVWF   STK00
0025   08??           01196         MOVF    r0x1032,W
0026   0??? 0???      01197         PAGESEL ___uint2fs
0028   2???           01198         CALL    ___uint2fs
0029   0??? 0???      01199         PAGESEL $
002B   0??? 0???      01200         BANKSEL _F3
002D   00??           01201         MOVWF   (_F3 + 3)
002E   08??           01202         MOVF    STK00,W
002F   00??           01203         MOVWF   (_F3 + 2)
0030   08??           01204         MOVF    STK01,W
0031   00??           01205         MOVWF   (_F3 + 1)
0032   08??           01206         MOVF    STK02,W
0033   00??           01207         MOVWF   _F3
gpasm-1.5.0 #1285 (Jul 12 2020) obj/sdcc-16f8   11/12/23  13:12:37          PAGE 24


LOC    OBJECT CODE    LINE  SOURCE TEXT
  VALUE

                      01208 ;       .line   147; "src/measure.c"    ser_puts("var=");
0034   30??           01209         MOVLW   high (___str_5 + 0)
0035   0??? 0???      01210         BANKSEL r0x1035
0037   00??           01211         MOVWF   r0x1035
0038   30??           01212         MOVLW   (___str_5 + 0)
0039   00??           01213         MOVWF   r0x1034
003A   3080           01214         MOVLW   0x80
003B   00??           01215         MOVWF   r0x1036
003C   08??           01216         MOVF    r0x1034,W
003D   00??           01217         MOVWF   STK01
003E   08??           01218         MOVF    r0x1035,W
003F   00??           01219         MOVWF   STK00
0040   08??           01220         MOVF    r0x1036,W
0041   0??? 0???      01221         PAGESEL _ser_puts
0043   2???           01222         CALL    _ser_puts
0044   0??? 0???      01223         PAGESEL $
                      01224 ;;103   MOVF    r0x1033,W
                      01225 ;;105   MOVF    r0x1032,W
                      01226 ;       .line   148; "src/measure.c"    format_xint32(&ser_putch, var);
0046   0??? 0???      01227         BANKSEL r0x1036
0048   01??           01228         CLRF    r0x1036
0049   01??           01229         CLRF    r0x1037
                      01230 ;;102   MOVF    r0x1034,W
004A   08??           01231         MOVF    r0x1033,W
004B   00??           01232         MOVWF   r0x1034
004C   00??           01233         MOVWF   STK04
                      01234 ;;104   MOVF    r0x1035,W
004D   08??           01235         MOVF    r0x1032,W
004E   00??           01236         MOVWF   r0x1035
004F   00??           01237         MOVWF   STK03
0050   3000           01238         MOVLW   0x00
0051   00??           01239         MOVWF   STK02
0052   3000           01240         MOVLW   0x00
0053   00??           01241         MOVWF   STK01
0054   30??           01242         MOVLW   low (_ser_putch+0)
0055   00??           01243         MOVWF   STK00
0056   30??           01244         MOVLW   high (_ser_putch+0)
0057   0??? 0???      01245         PAGESEL _format_xint32
0059   2???           01246         CALL    _format_xint32
005A   0??? 0???      01247         PAGESEL $
                      01248 ;       .line   150; "src/measure.c"    ser_puts("\r\nF1=");
005C   30??           01249         MOVLW   high (___str_6 + 0)
005D   0??? 0???      01250         BANKSEL r0x1032
005F   00??           01251         MOVWF   r0x1032
0060   30??           01252         MOVLW   (___str_6 + 0)
0061   00??           01253         MOVWF   r0x1033
0062   3080           01254         MOVLW   0x80
0063   00??           01255         MOVWF   r0x1034
0064   08??           01256         MOVF    r0x1033,W
0065   00??           01257         MOVWF   STK01
0066   08??           01258         MOVF    r0x1032,W
0067   00??           01259         MOVWF   STK00
0068   08??           01260         MOVF    r0x1034,W
gpasm-1.5.0 #1285 (Jul 12 2020) obj/sdcc-16f8   11/12/23  13:12:37          PAGE 25


LOC    OBJECT CODE    LINE  SOURCE TEXT
  VALUE

0069   0??? 0???      01261         PAGESEL _ser_puts
006B   2???           01262         CALL    _ser_puts
006C   0??? 0???      01263         PAGESEL $
                      01264 ;       .line   151; "src/measure.c"    format_float(&ser_putch, F1);
006E   0??? 0???      01265         BANKSEL _F1
0070   08??           01266         MOVF    _F1,W
0071   00??           01267         MOVWF   STK04
0072   08??           01268         MOVF    (_F1 + 1),W
0073   00??           01269         MOVWF   STK03
0074   08??           01270         MOVF    (_F1 + 2),W
0075   00??           01271         MOVWF   STK02
0076   08??           01272         MOVF    (_F1 + 3),W
0077   00??           01273         MOVWF   STK01
0078   30??           01274         MOVLW   low (_ser_putch+0)
0079   00??           01275         MOVWF   STK00
007A   30??           01276         MOVLW   high (_ser_putch+0)
007B   0??? 0???      01277         PAGESEL _format_float
007D   2???           01278         CALL    _format_float
007E   0??? 0???      01279         PAGESEL $
                      01280 ;       .line   153; "src/measure.c"    ser_putch(' ');
0080   3020           01281         MOVLW   0x20
0081   0??? 0???      01282         PAGESEL _ser_putch
0083   2???           01283         CALL    _ser_putch
0084   0??? 0???      01284         PAGESEL $
                      01285 ;       .line   154; "src/measure.c"    format_xint32(&ser_putch, *(uint32_t*)&F1);
0086   30??           01286         MOVLW   high (_F1 + 0)
0087   0??? 0???      01287         BANKSEL r0x1032
0089   00??           01288         MOVWF   r0x1032
008A   30??           01289         MOVLW   (_F1 + 0)
008B   00??           01290         MOVWF   r0x1033
008C   1283 1303      01291         BANKSEL FSR
008E   0084           01292         MOVWF   FSR
008F   1383           01293         BCF     STATUS,7
0090   0??? 0???      01294         BANKSEL r0x1032
0092   18??           01295         BTFSC   r0x1032,0
0093   1783           01296         BSF     STATUS,7
0094   1283 1303      01297         BANKSEL INDF
0096   0800           01298         MOVF    INDF,W
0097   0??? 0???      01299         BANKSEL r0x1034
0099   00??           01300         MOVWF   r0x1034
009A   1283 1303      01301         BANKSEL FSR
009C   0A84           01302         INCF    FSR,F
009D   0800           01303         MOVF    INDF,W
009E   0??? 0???      01304         BANKSEL r0x1035
00A0   00??           01305         MOVWF   r0x1035
00A1   1283 1303      01306         BANKSEL FSR
00A3   0A84           01307         INCF    FSR,F
00A4   0800           01308         MOVF    INDF,W
00A5   0??? 0???      01309         BANKSEL r0x1036
00A7   00??           01310         MOVWF   r0x1036
00A8   1283 1303      01311         BANKSEL FSR
00AA   0A84           01312         INCF    FSR,F
00AB   0800           01313         MOVF    INDF,W
gpasm-1.5.0 #1285 (Jul 12 2020) obj/sdcc-16f8   11/12/23  13:12:37          PAGE 26


LOC    OBJECT CODE    LINE  SOURCE TEXT
  VALUE

00AC   0??? 0???      01314         BANKSEL r0x1037
00AE   00??           01315         MOVWF   r0x1037
00AF   08??           01316         MOVF    r0x1034,W
00B0   00??           01317         MOVWF   STK04
00B1   08??           01318         MOVF    r0x1035,W
00B2   00??           01319         MOVWF   STK03
00B3   08??           01320         MOVF    r0x1036,W
00B4   00??           01321         MOVWF   STK02
00B5   08??           01322         MOVF    r0x1037,W
00B6   00??           01323         MOVWF   STK01
00B7   30??           01324         MOVLW   low (_ser_putch+0)
00B8   00??           01325         MOVWF   STK00
00B9   30??           01326         MOVLW   high (_ser_putch+0)
00BA   0??? 0???      01327         PAGESEL _format_xint32
00BC   2???           01328         CALL    _format_xint32
00BD   0??? 0???      01329         PAGESEL $
                      01330 ;       .line   156; "src/measure.c"    ser_puts("\r\nF2=");
00BF   30??           01331         MOVLW   high (___str_7 + 0)
00C0   0??? 0???      01332         BANKSEL r0x1032
00C2   00??           01333         MOVWF   r0x1032
00C3   30??           01334         MOVLW   (___str_7 + 0)
00C4   00??           01335         MOVWF   r0x1033
00C5   3080           01336         MOVLW   0x80
00C6   00??           01337         MOVWF   r0x1034
00C7   08??           01338         MOVF    r0x1033,W
00C8   00??           01339         MOVWF   STK01
00C9   08??           01340         MOVF    r0x1032,W
00CA   00??           01341         MOVWF   STK00
00CB   08??           01342         MOVF    r0x1034,W
00CC   0??? 0???      01343         PAGESEL _ser_puts
00CE   2???           01344         CALL    _ser_puts
00CF   0??? 0???      01345         PAGESEL $
                      01346 ;       .line   157; "src/measure.c"    format_float(&ser_putch, F2);
00D1   0??? 0???      01347         BANKSEL _F2
00D3   08??           01348         MOVF    _F2,W
00D4   00??           01349         MOVWF   STK04
00D5   08??           01350         MOVF    (_F2 + 1),W
00D6   00??           01351         MOVWF   STK03
00D7   08??           01352         MOVF    (_F2 + 2),W
00D8   00??           01353         MOVWF   STK02
00D9   08??           01354         MOVF    (_F2 + 3),W
00DA   00??           01355         MOVWF   STK01
00DB   30??           01356         MOVLW   low (_ser_putch+0)
00DC   00??           01357         MOVWF   STK00
00DD   30??           01358         MOVLW   high (_ser_putch+0)
00DE   0??? 0???      01359         PAGESEL _format_float
00E0   2???           01360         CALL    _format_float
00E1   0??? 0???      01361         PAGESEL $
                      01362 ;       .line   159; "src/measure.c"    ser_putch(' ');
00E3   3020           01363         MOVLW   0x20
00E4   0??? 0???      01364         PAGESEL _ser_putch
00E6   2???           01365         CALL    _ser_putch
00E7   0??? 0???      01366         PAGESEL $
gpasm-1.5.0 #1285 (Jul 12 2020) obj/sdcc-16f8   11/12/23  13:12:37          PAGE 27


LOC    OBJECT CODE    LINE  SOURCE TEXT
  VALUE

                      01367 ;       .line   160; "src/measure.c"    format_xint32(&ser_putch, *(uint32_t*)&F2);
00E9   30??           01368         MOVLW   high (_F2 + 0)
00EA   0??? 0???      01369         BANKSEL r0x1032
00EC   00??           01370         MOVWF   r0x1032
00ED   30??           01371         MOVLW   (_F2 + 0)
00EE   00??           01372         MOVWF   r0x1033
00EF   1283 1303      01373         BANKSEL FSR
00F1   0084           01374         MOVWF   FSR
00F2   1383           01375         BCF     STATUS,7
00F3   0??? 0???      01376         BANKSEL r0x1032
00F5   18??           01377         BTFSC   r0x1032,0
00F6   1783           01378         BSF     STATUS,7
00F7   1283 1303      01379         BANKSEL INDF
00F9   0800           01380         MOVF    INDF,W
00FA   0??? 0???      01381         BANKSEL r0x1034
00FC   00??           01382         MOVWF   r0x1034
00FD   1283 1303      01383         BANKSEL FSR
00FF   0A84           01384         INCF    FSR,F
0100   0800           01385         MOVF    INDF,W
0101   0??? 0???      01386         BANKSEL r0x1035
0103   00??           01387         MOVWF   r0x1035
0104   1283 1303      01388         BANKSEL FSR
0106   0A84           01389         INCF    FSR,F
0107   0800           01390         MOVF    INDF,W
0108   0??? 0???      01391         BANKSEL r0x1036
010A   00??           01392         MOVWF   r0x1036
010B   1283 1303      01393         BANKSEL FSR
010D   0A84           01394         INCF    FSR,F
010E   0800           01395         MOVF    INDF,W
010F   0??? 0???      01396         BANKSEL r0x1037
0111   00??           01397         MOVWF   r0x1037
0112   08??           01398         MOVF    r0x1034,W
0113   00??           01399         MOVWF   STK04
0114   08??           01400         MOVF    r0x1035,W
0115   00??           01401         MOVWF   STK03
0116   08??           01402         MOVF    r0x1036,W
0117   00??           01403         MOVWF   STK02
0118   08??           01404         MOVF    r0x1037,W
0119   00??           01405         MOVWF   STK01
011A   30??           01406         MOVLW   low (_ser_putch+0)
011B   00??           01407         MOVWF   STK00
011C   30??           01408         MOVLW   high (_ser_putch+0)
011D   0??? 0???      01409         PAGESEL _format_xint32
011F   2???           01410         CALL    _format_xint32
0120   0??? 0???      01411         PAGESEL $
                      01412 ;       .line   162; "src/measure.c"    ser_puts("\r\nF3=");
0122   30??           01413         MOVLW   high (___str_8 + 0)
0123   0??? 0???      01414         BANKSEL r0x1032
0125   00??           01415         MOVWF   r0x1032
0126   30??           01416         MOVLW   (___str_8 + 0)
0127   00??           01417         MOVWF   r0x1033
0128   3080           01418         MOVLW   0x80
0129   00??           01419         MOVWF   r0x1034
gpasm-1.5.0 #1285 (Jul 12 2020) obj/sdcc-16f8   11/12/23  13:12:37          PAGE 28


LOC    OBJECT CODE    LINE  SOURCE TEXT
  VALUE

012A   08??           01420         MOVF    r0x1033,W
012B   00??           01421         MOVWF   STK01
012C   08??           01422         MOVF    r0x1032,W
012D   00??           01423         MOVWF   STK00
012E   08??           01424         MOVF    r0x1034,W
012F   0??? 0???      01425         PAGESEL _ser_puts
0131   2???           01426         CALL    _ser_puts
0132   0??? 0???      01427         PAGESEL $
                      01428 ;       .line   163; "src/measure.c"    format_float(&ser_putch, F3);
0134   0??? 0???      01429         BANKSEL _F3
0136   08??           01430         MOVF    _F3,W
0137   00??           01431         MOVWF   STK04
0138   08??           01432         MOVF    (_F3 + 1),W
0139   00??           01433         MOVWF   STK03
013A   08??           01434         MOVF    (_F3 + 2),W
013B   00??           01435         MOVWF   STK02
013C   08??           01436         MOVF    (_F3 + 3),W
013D   00??           01437         MOVWF   STK01
013E   30??           01438         MOVLW   low (_ser_putch+0)
013F   00??           01439         MOVWF   STK00
0140   30??           01440         MOVLW   high (_ser_putch+0)
0141   0??? 0???      01441         PAGESEL _format_float
0143   2???           01442         CALL    _format_float
0144   0??? 0???      01443         PAGESEL $
                      01444 ;       .line   165; "src/measure.c"    ser_putch(' ');
0146   3020           01445         MOVLW   0x20
0147   0??? 0???      01446         PAGESEL _ser_putch
0149   2???           01447         CALL    _ser_putch
014A   0??? 0???      01448         PAGESEL $
                      01449 ;       .line   166; "src/measure.c"    format_xint32(&ser_putch, *(uint32_t*)&F3);
014C   30??           01450         MOVLW   high (_F3 + 0)
014D   0??? 0???      01451         BANKSEL r0x1032
014F   00??           01452         MOVWF   r0x1032
0150   30??           01453         MOVLW   (_F3 + 0)
0151   00??           01454         MOVWF   r0x1033
0152   1283 1303      01455         BANKSEL FSR
0154   0084           01456         MOVWF   FSR
0155   1383           01457         BCF     STATUS,7
0156   0??? 0???      01458         BANKSEL r0x1032
0158   18??           01459         BTFSC   r0x1032,0
0159   1783           01460         BSF     STATUS,7
015A   1283 1303      01461         BANKSEL INDF
015C   0800           01462         MOVF    INDF,W
015D   0??? 0???      01463         BANKSEL r0x1034
015F   00??           01464         MOVWF   r0x1034
0160   1283 1303      01465         BANKSEL FSR
0162   0A84           01466         INCF    FSR,F
0163   0800           01467         MOVF    INDF,W
0164   0??? 0???      01468         BANKSEL r0x1035
0166   00??           01469         MOVWF   r0x1035
0167   1283 1303      01470         BANKSEL FSR
0169   0A84           01471         INCF    FSR,F
016A   0800           01472         MOVF    INDF,W
gpasm-1.5.0 #1285 (Jul 12 2020) obj/sdcc-16f8   11/12/23  13:12:37          PAGE 29


LOC    OBJECT CODE    LINE  SOURCE TEXT
  VALUE

016B   0??? 0???      01473         BANKSEL r0x1036
016D   00??           01474         MOVWF   r0x1036
016E   1283 1303      01475         BANKSEL FSR
0170   0A84           01476         INCF    FSR,F
0171   0800           01477         MOVF    INDF,W
0172   0??? 0???      01478         BANKSEL r0x1037
0174   00??           01479         MOVWF   r0x1037
0175   08??           01480         MOVF    r0x1034,W
0176   00??           01481         MOVWF   STK04
0177   08??           01482         MOVF    r0x1035,W
0178   00??           01483         MOVWF   STK03
0179   08??           01484         MOVF    r0x1036,W
017A   00??           01485         MOVWF   STK02
017B   08??           01486         MOVF    r0x1037,W
017C   00??           01487         MOVWF   STK01
017D   30??           01488         MOVLW   low (_ser_putch+0)
017E   00??           01489         MOVWF   STK00
017F   30??           01490         MOVLW   high (_ser_putch+0)
0180   0??? 0???      01491         PAGESEL _format_xint32
0182   2???           01492         CALL    _format_xint32
0183   0??? 0???      01493         PAGESEL $
                      01494 ;       .line   168; "src/measure.c"    ser_puts("\r\nCCal=");
0185   30??           01495         MOVLW   high (___str_9 + 0)
0186   0??? 0???      01496         BANKSEL r0x1032
0188   00??           01497         MOVWF   r0x1032
0189   30??           01498         MOVLW   (___str_9 + 0)
018A   00??           01499         MOVWF   r0x1033
018B   3080           01500         MOVLW   0x80
018C   00??           01501         MOVWF   r0x1034
018D   08??           01502         MOVF    r0x1033,W
018E   00??           01503         MOVWF   STK01
018F   08??           01504         MOVF    r0x1032,W
0190   00??           01505         MOVWF   STK00
0191   08??           01506         MOVF    r0x1034,W
0192   0??? 0???      01507         PAGESEL _ser_puts
0194   2???           01508         CALL    _ser_puts
0195   0??? 0???      01509         PAGESEL $
                      01510 ;       .line   169; "src/measure.c"    format_float(&ser_putch, CCal);
0197   0??? 0???      01511         BANKSEL _CCal
0199   08??           01512         MOVF    _CCal,W
019A   00??           01513         MOVWF   STK04
019B   08??           01514         MOVF    (_CCal + 1),W
019C   00??           01515         MOVWF   STK03
019D   08??           01516         MOVF    (_CCal + 2),W
019E   00??           01517         MOVWF   STK02
019F   08??           01518         MOVF    (_CCal + 3),W
01A0   00??           01519         MOVWF   STK01
01A1   30??           01520         MOVLW   low (_ser_putch+0)
01A2   00??           01521         MOVWF   STK00
01A3   30??           01522         MOVLW   high (_ser_putch+0)
01A4   0??? 0???      01523         PAGESEL _format_float
01A6   2???           01524         CALL    _format_float
01A7   0??? 0???      01525         PAGESEL $
gpasm-1.5.0 #1285 (Jul 12 2020) obj/sdcc-16f8   11/12/23  13:12:37          PAGE 30


LOC    OBJECT CODE    LINE  SOURCE TEXT
  VALUE

                      01526 ;       .line   171; "src/measure.c"    ser_putch(' ');
01A9   3020           01527         MOVLW   0x20
01AA   0??? 0???      01528         PAGESEL _ser_putch
01AC   2???           01529         CALL    _ser_putch
01AD   0??? 0???      01530         PAGESEL $
                      01531 ;       .line   172; "src/measure.c"    format_xint32(&ser_putch, *(uint32_t*)&CCal);
01AF   30??           01532         MOVLW   high (_CCal + 0)
01B0   0??? 0???      01533         BANKSEL r0x1032
01B2   00??           01534         MOVWF   r0x1032
01B3   30??           01535         MOVLW   (_CCal + 0)
01B4   00??           01536         MOVWF   r0x1033
01B5   1283 1303      01537         BANKSEL FSR
01B7   0084           01538         MOVWF   FSR
01B8   1383           01539         BCF     STATUS,7
01B9   0??? 0???      01540         BANKSEL r0x1032
01BB   18??           01541         BTFSC   r0x1032,0
01BC   1783           01542         BSF     STATUS,7
01BD   1283 1303      01543         BANKSEL INDF
01BF   0800           01544         MOVF    INDF,W
01C0   0??? 0???      01545         BANKSEL r0x1034
01C2   00??           01546         MOVWF   r0x1034
01C3   1283 1303      01547         BANKSEL FSR
01C5   0A84           01548         INCF    FSR,F
01C6   0800           01549         MOVF    INDF,W
01C7   0??? 0???      01550         BANKSEL r0x1035
01C9   00??           01551         MOVWF   r0x1035
01CA   1283 1303      01552         BANKSEL FSR
01CC   0A84           01553         INCF    FSR,F
01CD   0800           01554         MOVF    INDF,W
01CE   0??? 0???      01555         BANKSEL r0x1036
01D0   00??           01556         MOVWF   r0x1036
01D1   1283 1303      01557         BANKSEL FSR
01D3   0A84           01558         INCF    FSR,F
01D4   0800           01559         MOVF    INDF,W
01D5   0??? 0???      01560         BANKSEL r0x1037
01D7   00??           01561         MOVWF   r0x1037
01D8   08??           01562         MOVF    r0x1034,W
01D9   00??           01563         MOVWF   STK04
01DA   08??           01564         MOVF    r0x1035,W
01DB   00??           01565         MOVWF   STK03
01DC   08??           01566         MOVF    r0x1036,W
01DD   00??           01567         MOVWF   STK02
01DE   08??           01568         MOVF    r0x1037,W
01DF   00??           01569         MOVWF   STK01
01E0   30??           01570         MOVLW   low (_ser_putch+0)
01E1   00??           01571         MOVWF   STK00
01E2   30??           01572         MOVLW   high (_ser_putch+0)
01E3   0??? 0???      01573         PAGESEL _format_xint32
01E5   2???           01574         CALL    _format_xint32
01E6   0??? 0???      01575         PAGESEL $
                      01576 ;       .line   174; "src/measure.c"    ser_puts("\r\n");
01E8   30??           01577         MOVLW   high (___str_1 + 0)
01E9   0??? 0???      01578         BANKSEL r0x1032
gpasm-1.5.0 #1285 (Jul 12 2020) obj/sdcc-16f8   11/12/23  13:12:37          PAGE 31


LOC    OBJECT CODE    LINE  SOURCE TEXT
  VALUE

01EB   00??           01579         MOVWF   r0x1032
01EC   30??           01580         MOVLW   (___str_1 + 0)
01ED   00??           01581         MOVWF   r0x1033
01EE   3080           01582         MOVLW   0x80
01EF   00??           01583         MOVWF   r0x1034
01F0   08??           01584         MOVF    r0x1033,W
01F1   00??           01585         MOVWF   STK01
01F2   08??           01586         MOVF    r0x1032,W
01F3   00??           01587         MOVWF   STK00
01F4   08??           01588         MOVF    r0x1034,W
01F5   0??? 0???      01589         PAGESEL _ser_puts
01F7   2???           01590         CALL    _ser_puts
01F8   0??? 0???      01591         PAGESEL $
                      01592 ;       .line   178; "src/measure.c"    if(F3 > F1)
01FA   0??? 0???      01593         BANKSEL _F3
01FC   08??           01594         MOVF    _F3,W
01FD   00??           01595         MOVWF   STK06
01FE   08??           01596         MOVF    (_F3 + 1),W
01FF   00??           01597         MOVWF   STK05
0200   08??           01598         MOVF    (_F3 + 2),W
0201   00??           01599         MOVWF   STK04
0202   08??           01600         MOVF    (_F3 + 3),W
0203   00??           01601         MOVWF   STK03
0204   0??? 0???      01602         BANKSEL _F1
0206   08??           01603         MOVF    _F1,W
0207   00??           01604         MOVWF   STK02
0208   08??           01605         MOVF    (_F1 + 1),W
0209   00??           01606         MOVWF   STK01
020A   08??           01607         MOVF    (_F1 + 2),W
020B   00??           01608         MOVWF   STK00
020C   08??           01609         MOVF    (_F1 + 3),W
020D   0??? 0???      01610         PAGESEL ___fslt
020F   2???           01611         CALL    ___fslt
0210   0??? 0???      01612         PAGESEL $
0212   0??? 0???      01613         BANKSEL r0x1033
0214   00??           01614         MOVWF   r0x1033
0215   08??           01615         MOVF    r0x1033,W
0216   1903           01616         BTFSC   STATUS,2
0217   2???           01617         GOTO    _00120_DS_
                      01618 ;       .line   179; "src/measure.c"    F3 = F1; // max freq is F1;
0218   0??? 0???      01619         BANKSEL _F1
021A   08??           01620         MOVF    _F1,W
021B   0??? 0???      01621         BANKSEL _F3
021D   00??           01622         MOVWF   _F3
021E   0??? 0???      01623         BANKSEL _F1
0220   08??           01624         MOVF    (_F1 + 1),W
0221   0??? 0???      01625         BANKSEL _F3
0223   00??           01626         MOVWF   (_F3 + 1)
0224   0??? 0???      01627         BANKSEL _F1
0226   08??           01628         MOVF    (_F1 + 2),W
0227   0??? 0???      01629         BANKSEL _F3
0229   00??           01630         MOVWF   (_F3 + 2)
022A   0??? 0???      01631         BANKSEL _F1
gpasm-1.5.0 #1285 (Jul 12 2020) obj/sdcc-16f8   11/12/23  13:12:37          PAGE 32


LOC    OBJECT CODE    LINE  SOURCE TEXT
  VALUE

022C   08??           01632         MOVF    (_F1 + 3),W
022D   0??? 0???      01633         BANKSEL _F3
022F   00??           01634         MOVWF   (_F3 + 3)
0230                  01635 _00120_DS_:
                      01636 ;       .line   181; "src/measure.c"    Cin = F2 * F2 * (F1 * F1 - F3 * F3) * CCal;
0230   0??? 0???      01637         BANKSEL _F2
0232   08??           01638         MOVF    _F2,W
0233   00??           01639         MOVWF   STK06
0234   08??           01640         MOVF    (_F2 + 1),W
0235   00??           01641         MOVWF   STK05
0236   08??           01642         MOVF    (_F2 + 2),W
0237   00??           01643         MOVWF   STK04
0238   08??           01644         MOVF    (_F2 + 3),W
0239   00??           01645         MOVWF   STK03
023A   08??           01646         MOVF    _F2,W
023B   00??           01647         MOVWF   STK02
023C   08??           01648         MOVF    (_F2 + 1),W
023D   00??           01649         MOVWF   STK01
023E   08??           01650         MOVF    (_F2 + 2),W
023F   00??           01651         MOVWF   STK00
0240   08??           01652         MOVF    (_F2 + 3),W
0241   0??? 0???      01653         PAGESEL ___fsmul
0243   2???           01654         CALL    ___fsmul
0244   0??? 0???      01655         PAGESEL $
0246   0??? 0???      01656         BANKSEL r0x1035
0248   00??           01657         MOVWF   r0x1035
0249   08??           01658         MOVF    STK00,W
024A   00??           01659         MOVWF   r0x1034
024B   08??           01660         MOVF    STK01,W
024C   00??           01661         MOVWF   r0x1032
024D   08??           01662         MOVF    STK02,W
024E   00??           01663         MOVWF   r0x1033
024F   0??? 0???      01664         BANKSEL _F1
0251   08??           01665         MOVF    _F1,W
0252   00??           01666         MOVWF   STK06
0253   08??           01667         MOVF    (_F1 + 1),W
0254   00??           01668         MOVWF   STK05
0255   08??           01669         MOVF    (_F1 + 2),W
0256   00??           01670         MOVWF   STK04
0257   08??           01671         MOVF    (_F1 + 3),W
0258   00??           01672         MOVWF   STK03
0259   08??           01673         MOVF    _F1,W
025A   00??           01674         MOVWF   STK02
025B   08??           01675         MOVF    (_F1 + 1),W
025C   00??           01676         MOVWF   STK01
025D   08??           01677         MOVF    (_F1 + 2),W
025E   00??           01678         MOVWF   STK00
025F   08??           01679         MOVF    (_F1 + 3),W
0260   0??? 0???      01680         PAGESEL ___fsmul
0262   2???           01681         CALL    ___fsmul
0263   0??? 0???      01682         PAGESEL $
0265   0??? 0???      01683         BANKSEL r0x1038
0267   00??           01684         MOVWF   r0x1038
gpasm-1.5.0 #1285 (Jul 12 2020) obj/sdcc-16f8   11/12/23  13:12:37          PAGE 33


LOC    OBJECT CODE    LINE  SOURCE TEXT
  VALUE

0268   08??           01685         MOVF    STK00,W
0269   00??           01686         MOVWF   r0x1039
026A   08??           01687         MOVF    STK01,W
026B   00??           01688         MOVWF   r0x1037
026C   08??           01689         MOVF    STK02,W
026D   00??           01690         MOVWF   r0x1036
026E   0??? 0???      01691         BANKSEL _F3
0270   08??           01692         MOVF    _F3,W
0271   00??           01693         MOVWF   STK06
0272   08??           01694         MOVF    (_F3 + 1),W
0273   00??           01695         MOVWF   STK05
0274   08??           01696         MOVF    (_F3 + 2),W
0275   00??           01697         MOVWF   STK04
0276   08??           01698         MOVF    (_F3 + 3),W
0277   00??           01699         MOVWF   STK03
0278   08??           01700         MOVF    _F3,W
0279   00??           01701         MOVWF   STK02
027A   08??           01702         MOVF    (_F3 + 1),W
027B   00??           01703         MOVWF   STK01
027C   08??           01704         MOVF    (_F3 + 2),W
027D   00??           01705         MOVWF   STK00
027E   08??           01706         MOVF    (_F3 + 3),W
027F   0??? 0???      01707         PAGESEL ___fsmul
0281   2???           01708         CALL    ___fsmul
0282   0??? 0???      01709         PAGESEL $
0284   0??? 0???      01710         BANKSEL r0x103A
0286   00??           01711         MOVWF   r0x103A
0287   08??           01712         MOVF    STK00,W
0288   00??           01713         MOVWF   r0x103B
0289   08??           01714         MOVF    STK01,W
028A   00??           01715         MOVWF   r0x103C
028B   08??           01716         MOVF    STK02,W
                      01717 ;;1     MOVWF   r0x103D
028C   00??           01718         MOVWF   STK06
028D   08??           01719         MOVF    r0x103C,W
028E   00??           01720         MOVWF   STK05
028F   08??           01721         MOVF    r0x103B,W
0290   00??           01722         MOVWF   STK04
0291   08??           01723         MOVF    r0x103A,W
0292   00??           01724         MOVWF   STK03
0293   08??           01725         MOVF    r0x1036,W
0294   00??           01726         MOVWF   STK02
0295   08??           01727         MOVF    r0x1037,W
0296   00??           01728         MOVWF   STK01
0297   08??           01729         MOVF    r0x1039,W
0298   00??           01730         MOVWF   STK00
0299   08??           01731         MOVF    r0x1038,W
029A   0??? 0???      01732         PAGESEL ___fssub
029C   2???           01733         CALL    ___fssub
029D   0??? 0???      01734         PAGESEL $
029F   0??? 0???      01735         BANKSEL r0x1038
02A1   00??           01736         MOVWF   r0x1038
02A2   08??           01737         MOVF    STK00,W
gpasm-1.5.0 #1285 (Jul 12 2020) obj/sdcc-16f8   11/12/23  13:12:37          PAGE 34


LOC    OBJECT CODE    LINE  SOURCE TEXT
  VALUE

02A3   00??           01738         MOVWF   r0x1039
02A4   08??           01739         MOVF    STK01,W
02A5   00??           01740         MOVWF   r0x1037
02A6   08??           01741         MOVF    STK02,W
02A7   00??           01742         MOVWF   r0x1036
02A8   00??           01743         MOVWF   STK06
02A9   08??           01744         MOVF    r0x1037,W
02AA   00??           01745         MOVWF   STK05
02AB   08??           01746         MOVF    r0x1039,W
02AC   00??           01747         MOVWF   STK04
02AD   08??           01748         MOVF    r0x1038,W
02AE   00??           01749         MOVWF   STK03
02AF   08??           01750         MOVF    r0x1033,W
02B0   00??           01751         MOVWF   STK02
02B1   08??           01752         MOVF    r0x1032,W
02B2   00??           01753         MOVWF   STK01
02B3   08??           01754         MOVF    r0x1034,W
02B4   00??           01755         MOVWF   STK00
02B5   08??           01756         MOVF    r0x1035,W
02B6   0??? 0???      01757         PAGESEL ___fsmul
02B8   2???           01758         CALL    ___fsmul
02B9   0??? 0???      01759         PAGESEL $
02BB   0??? 0???      01760         BANKSEL r0x1035
02BD   00??           01761         MOVWF   r0x1035
02BE   08??           01762         MOVF    STK00,W
02BF   00??           01763         MOVWF   r0x1034
02C0   08??           01764         MOVF    STK01,W
02C1   00??           01765         MOVWF   r0x1032
02C2   08??           01766         MOVF    STK02,W
02C3   00??           01767         MOVWF   r0x1033
02C4   0??? 0???      01768         BANKSEL _CCal
02C6   08??           01769         MOVF    _CCal,W
02C7   00??           01770         MOVWF   STK06
02C8   08??           01771         MOVF    (_CCal + 1),W
02C9   00??           01772         MOVWF   STK05
02CA   08??           01773         MOVF    (_CCal + 2),W
02CB   00??           01774         MOVWF   STK04
02CC   08??           01775         MOVF    (_CCal + 3),W
02CD   00??           01776         MOVWF   STK03
02CE   0??? 0???      01777         BANKSEL r0x1033
02D0   08??           01778         MOVF    r0x1033,W
02D1   00??           01779         MOVWF   STK02
02D2   08??           01780         MOVF    r0x1032,W
02D3   00??           01781         MOVWF   STK01
02D4   08??           01782         MOVF    r0x1034,W
02D5   00??           01783         MOVWF   STK00
02D6   08??           01784         MOVF    r0x1035,W
02D7   0??? 0???      01785         PAGESEL ___fsmul
02D9   2???           01786         CALL    ___fsmul
02DA   0??? 0???      01787         PAGESEL $
02DC   0??? 0???      01788         BANKSEL _measure_capacitance_Cin_65536_66
02DE   00??           01789         MOVWF   (_measure_capacitance_Cin_65536_66 + 3)
02DF   08??           01790         MOVF    STK00,W
gpasm-1.5.0 #1285 (Jul 12 2020) obj/sdcc-16f8   11/12/23  13:12:37          PAGE 35


LOC    OBJECT CODE    LINE  SOURCE TEXT
  VALUE

02E0   00??           01791         MOVWF   (_measure_capacitance_Cin_65536_66 + 2)
02E1   08??           01792         MOVF    STK01,W
02E2   00??           01793         MOVWF   (_measure_capacitance_Cin_65536_66 + 1)
02E3   08??           01794         MOVF    STK02,W
02E4   00??           01795         MOVWF   _measure_capacitance_Cin_65536_66
                      01796 ;       .line   185; "src/measure.c"    ser_puts("Cin=");
02E5   30??           01797         MOVLW   high (___str_10 + 0)
02E6   0??? 0???      01798         BANKSEL r0x1032
02E8   00??           01799         MOVWF   r0x1032
02E9   30??           01800         MOVLW   (___str_10 + 0)
02EA   00??           01801         MOVWF   r0x1033
02EB   3080           01802         MOVLW   0x80
02EC   00??           01803         MOVWF   r0x1034
02ED   08??           01804         MOVF    r0x1033,W
02EE   00??           01805         MOVWF   STK01
02EF   08??           01806         MOVF    r0x1032,W
02F0   00??           01807         MOVWF   STK00
02F1   08??           01808         MOVF    r0x1034,W
02F2   0??? 0???      01809         PAGESEL _ser_puts
02F4   2???           01810         CALL    _ser_puts
02F5   0??? 0???      01811         PAGESEL $
                      01812 ;       .line   186; "src/measure.c"    format_float(&ser_putch, Cin);
02F7   0??? 0???      01813         BANKSEL _measure_capacitance_Cin_65536_66
02F9   08??           01814         MOVF    _measure_capacitance_Cin_65536_66,W
02FA   00??           01815         MOVWF   STK04
02FB   08??           01816         MOVF    (_measure_capacitance_Cin_65536_66 + 1),W
02FC   00??           01817         MOVWF   STK03
02FD   08??           01818         MOVF    (_measure_capacitance_Cin_65536_66 + 2),W
02FE   00??           01819         MOVWF   STK02
02FF   08??           01820         MOVF    (_measure_capacitance_Cin_65536_66 + 3),W
0300   00??           01821         MOVWF   STK01
0301   30??           01822         MOVLW   low (_ser_putch+0)
0302   00??           01823         MOVWF   STK00
0303   30??           01824         MOVLW   high (_ser_putch+0)
0304   0??? 0???      01825         PAGESEL _format_float
0306   2???           01826         CALL    _format_float
0307   0??? 0???      01827         PAGESEL $
                      01828 ;       .line   187; "src/measure.c"    ser_putch(' ');
0309   3020           01829         MOVLW   0x20
030A   0??? 0???      01830         PAGESEL _ser_putch
030C   2???           01831         CALL    _ser_putch
030D   0??? 0???      01832         PAGESEL $
                      01833 ;       .line   188; "src/measure.c"    format_xint32(&ser_putch, *(uint32_t*)&Cin);
030F   30??           01834         MOVLW   high (_measure_capacitance_Cin_65536_66 + 0)
0310   0??? 0???      01835         BANKSEL r0x1032
0312   00??           01836         MOVWF   r0x1032
0313   30??           01837         MOVLW   (_measure_capacitance_Cin_65536_66 + 0)
0314   00??           01838         MOVWF   r0x1033
0315   1283 1303      01839         BANKSEL FSR
0317   0084           01840         MOVWF   FSR
0318   1383           01841         BCF     STATUS,7
0319   0??? 0???      01842         BANKSEL r0x1032
031B   18??           01843         BTFSC   r0x1032,0
gpasm-1.5.0 #1285 (Jul 12 2020) obj/sdcc-16f8   11/12/23  13:12:37          PAGE 36


LOC    OBJECT CODE    LINE  SOURCE TEXT
  VALUE

031C   1783           01844         BSF     STATUS,7
031D   1283 1303      01845         BANKSEL INDF
031F   0800           01846         MOVF    INDF,W
0320   0??? 0???      01847         BANKSEL r0x1034
0322   00??           01848         MOVWF   r0x1034
0323   1283 1303      01849         BANKSEL FSR
0325   0A84           01850         INCF    FSR,F
0326   0800           01851         MOVF    INDF,W
0327   0??? 0???      01852         BANKSEL r0x1035
0329   00??           01853         MOVWF   r0x1035
032A   1283 1303      01854         BANKSEL FSR
032C   0A84           01855         INCF    FSR,F
032D   0800           01856         MOVF    INDF,W
032E   0??? 0???      01857         BANKSEL r0x1036
0330   00??           01858         MOVWF   r0x1036
0331   1283 1303      01859         BANKSEL FSR
0333   0A84           01860         INCF    FSR,F
0334   0800           01861         MOVF    INDF,W
0335   0??? 0???      01862         BANKSEL r0x1037
0337   00??           01863         MOVWF   r0x1037
0338   08??           01864         MOVF    r0x1034,W
0339   00??           01865         MOVWF   STK04
033A   08??           01866         MOVF    r0x1035,W
033B   00??           01867         MOVWF   STK03
033C   08??           01868         MOVF    r0x1036,W
033D   00??           01869         MOVWF   STK02
033E   08??           01870         MOVF    r0x1037,W
033F   00??           01871         MOVWF   STK01
0340   30??           01872         MOVLW   low (_ser_putch+0)
0341   00??           01873         MOVWF   STK00
0342   30??           01874         MOVLW   high (_ser_putch+0)
0343   0??? 0???      01875         PAGESEL _format_xint32
0345   2???           01876         CALL    _format_xint32
0346   0??? 0???      01877         PAGESEL $
                      01878 ;       .line   189; "src/measure.c"    ser_puts("\r\n");
0348   30??           01879         MOVLW   high (___str_1 + 0)
0349   0??? 0???      01880         BANKSEL r0x1032
034B   00??           01881         MOVWF   r0x1032
034C   30??           01882         MOVLW   (___str_1 + 0)
034D   00??           01883         MOVWF   r0x1033
034E   3080           01884         MOVLW   0x80
034F   00??           01885         MOVWF   r0x1034
0350   08??           01886         MOVF    r0x1033,W
0351   00??           01887         MOVWF   STK01
0352   08??           01888         MOVF    r0x1032,W
0353   00??           01889         MOVWF   STK00
0354   08??           01890         MOVF    r0x1034,W
0355   0??? 0???      01891         PAGESEL _ser_puts
0357   2???           01892         CALL    _ser_puts
0358   0??? 0???      01893         PAGESEL $
                      01894 ;       .line   191; "src/measure.c"    if(Cin > 999) {
035A   0??? 0???      01895         BANKSEL _measure_capacitance_Cin_65536_66
035C   08??           01896         MOVF    _measure_capacitance_Cin_65536_66,W
gpasm-1.5.0 #1285 (Jul 12 2020) obj/sdcc-16f8   11/12/23  13:12:37          PAGE 37


LOC    OBJECT CODE    LINE  SOURCE TEXT
  VALUE

035D   00??           01897         MOVWF   STK06
035E   08??           01898         MOVF    (_measure_capacitance_Cin_65536_66 + 1),W
035F   00??           01899         MOVWF   STK05
0360   08??           01900         MOVF    (_measure_capacitance_Cin_65536_66 + 2),W
0361   00??           01901         MOVWF   STK04
0362   08??           01902         MOVF    (_measure_capacitance_Cin_65536_66 + 3),W
0363   00??           01903         MOVWF   STK03
0364   3000           01904         MOVLW   0x00
0365   00??           01905         MOVWF   STK02
0366   30C0           01906         MOVLW   0xc0
0367   00??           01907         MOVWF   STK01
0368   3079           01908         MOVLW   0x79
0369   00??           01909         MOVWF   STK00
036A   3044           01910         MOVLW   0x44
036B   0??? 0???      01911         PAGESEL ___fslt
036D   2???           01912         CALL    ___fslt
036E   0??? 0???      01913         PAGESEL $
0370   0??? 0???      01914         BANKSEL r0x1033
0372   00??           01915         MOVWF   r0x1033
0373   08??           01916         MOVF    r0x1033,W
0374   1903           01917         BTFSC   STATUS,2
0375   2???           01918         GOTO    _00128_DS_
                      01919 ;       .line   192; "src/measure.c"    if(Cin > (999e+03l)) {
0376   0??? 0???      01920         BANKSEL _measure_capacitance_Cin_65536_66
0378   08??           01921         MOVF    _measure_capacitance_Cin_65536_66,W
0379   00??           01922         MOVWF   STK06
037A   08??           01923         MOVF    (_measure_capacitance_Cin_65536_66 + 1),W
037B   00??           01924         MOVWF   STK05
037C   08??           01925         MOVF    (_measure_capacitance_Cin_65536_66 + 2),W
037D   00??           01926         MOVWF   STK04
037E   08??           01927         MOVF    (_measure_capacitance_Cin_65536_66 + 3),W
037F   00??           01928         MOVWF   STK03
0380   3080           01929         MOVLW   0x80
0381   00??           01930         MOVWF   STK02
0382   30E5           01931         MOVLW   0xe5
0383   00??           01932         MOVWF   STK01
0384   3073           01933         MOVLW   0x73
0385   00??           01934         MOVWF   STK00
0386   3049           01935         MOVLW   0x49
0387   0??? 0???      01936         PAGESEL ___fslt
0389   2???           01937         CALL    ___fslt
038A   0??? 0???      01938         PAGESEL $
038C   0??? 0???      01939         BANKSEL r0x1033
038E   00??           01940         MOVWF   r0x1033
038F   08??           01941         MOVF    r0x1033,W
0390   1903           01942         BTFSC   STATUS,2
0391   2???           01943         GOTO    _00125_DS_
                      01944 ;       .line   193; "src/measure.c"    if(Cin > (999e+06l)) {
0392   0??? 0???      01945         BANKSEL _measure_capacitance_Cin_65536_66
0394   08??           01946         MOVF    _measure_capacitance_Cin_65536_66,W
0395   00??           01947         MOVWF   STK06
0396   08??           01948         MOVF    (_measure_capacitance_Cin_65536_66 + 1),W
0397   00??           01949         MOVWF   STK05
gpasm-1.5.0 #1285 (Jul 12 2020) obj/sdcc-16f8   11/12/23  13:12:37          PAGE 38


LOC    OBJECT CODE    LINE  SOURCE TEXT
  VALUE

0398   08??           01950         MOVF    (_measure_capacitance_Cin_65536_66 + 2),W
0399   00??           01951         MOVWF   STK04
039A   08??           01952         MOVF    (_measure_capacitance_Cin_65536_66 + 3),W
039B   00??           01953         MOVWF   STK03
039C   301F           01954         MOVLW   0x1f
039D   00??           01955         MOVWF   STK02
039E   302E           01956         MOVLW   0x2e
039F   00??           01957         MOVWF   STK01
03A0   306E           01958         MOVLW   0x6e
03A1   00??           01959         MOVWF   STK00
03A2   304E           01960         MOVLW   0x4e
03A3   0??? 0???      01961         PAGESEL ___fslt
03A5   2???           01962         CALL    ___fslt
03A6   0??? 0???      01963         PAGESEL $
03A8   0??? 0???      01964         BANKSEL r0x1033
03AA   00??           01965         MOVWF   r0x1033
03AB   08??           01966         MOVF    r0x1033,W
03AC   1903           01967         BTFSC   STATUS,2
03AD   2???           01968         GOTO    _00122_DS_
                      01969 ;       .line   194; "src/measure.c"    Cin = Cin / (1e+09);
03AE   3028           01970         MOVLW   0x28
03AF   00??           01971         MOVWF   STK06
03B0   306B           01972         MOVLW   0x6b
03B1   00??           01973         MOVWF   STK05
03B2   306E           01974         MOVLW   0x6e
03B3   00??           01975         MOVWF   STK04
03B4   304E           01976         MOVLW   0x4e
03B5   00??           01977         MOVWF   STK03
03B6   0??? 0???      01978         BANKSEL _measure_capacitance_Cin_65536_66
03B8   08??           01979         MOVF    _measure_capacitance_Cin_65536_66,W
03B9   00??           01980         MOVWF   STK02
03BA   08??           01981         MOVF    (_measure_capacitance_Cin_65536_66 + 1),W
03BB   00??           01982         MOVWF   STK01
03BC   08??           01983         MOVF    (_measure_capacitance_Cin_65536_66 + 2),W
03BD   00??           01984         MOVWF   STK00
03BE   08??           01985         MOVF    (_measure_capacitance_Cin_65536_66 + 3),W
03BF   0??? 0???      01986         PAGESEL ___fsdiv
03C1   2???           01987         CALL    ___fsdiv
03C2   0??? 0???      01988         PAGESEL $
03C4   0??? 0???      01989         BANKSEL _measure_capacitance_Cin_65536_66
03C6   00??           01990         MOVWF   (_measure_capacitance_Cin_65536_66 + 3)
03C7   08??           01991         MOVF    STK00,W
03C8   00??           01992         MOVWF   (_measure_capacitance_Cin_65536_66 + 2)
03C9   08??           01993         MOVF    STK01,W
03CA   00??           01994         MOVWF   (_measure_capacitance_Cin_65536_66 + 1)
03CB   08??           01995         MOVF    STK02,W
03CC   00??           01996         MOVWF   _measure_capacitance_Cin_65536_66
                      01997 ;       .line   195; "src/measure.c"    unit = 4; //"mF"
03CD   3004           01998         MOVLW   0x04
03CE   0??? 0???      01999         BANKSEL r0x1033
03D0   00??           02000         MOVWF   r0x1033
03D1   2???           02001         GOTO    _00129_DS_
03D2                  02002 _00122_DS_:
gpasm-1.5.0 #1285 (Jul 12 2020) obj/sdcc-16f8   11/12/23  13:12:37          PAGE 39


LOC    OBJECT CODE    LINE  SOURCE TEXT
  VALUE

                      02003 ;       .line   197; "src/measure.c"    Cin = Cin / (1e+06);
03D2   3000           02004         MOVLW   0x00
03D3   00??           02005         MOVWF   STK06
03D4   3024           02006         MOVLW   0x24
03D5   00??           02007         MOVWF   STK05
03D6   3074           02008         MOVLW   0x74
03D7   00??           02009         MOVWF   STK04
03D8   3049           02010         MOVLW   0x49
03D9   00??           02011         MOVWF   STK03
03DA   0??? 0???      02012         BANKSEL _measure_capacitance_Cin_65536_66
03DC   08??           02013         MOVF    _measure_capacitance_Cin_65536_66,W
03DD   00??           02014         MOVWF   STK02
03DE   08??           02015         MOVF    (_measure_capacitance_Cin_65536_66 + 1),W
03DF   00??           02016         MOVWF   STK01
03E0   08??           02017         MOVF    (_measure_capacitance_Cin_65536_66 + 2),W
03E1   00??           02018         MOVWF   STK00
03E2   08??           02019         MOVF    (_measure_capacitance_Cin_65536_66 + 3),W
03E3   0??? 0???      02020         PAGESEL ___fsdiv
03E5   2???           02021         CALL    ___fsdiv
03E6   0??? 0???      02022         PAGESEL $
03E8   0??? 0???      02023         BANKSEL _measure_capacitance_Cin_65536_66
03EA   00??           02024         MOVWF   (_measure_capacitance_Cin_65536_66 + 3)
03EB   08??           02025         MOVF    STK00,W
03EC   00??           02026         MOVWF   (_measure_capacitance_Cin_65536_66 + 2)
03ED   08??           02027         MOVF    STK01,W
03EE   00??           02028         MOVWF   (_measure_capacitance_Cin_65536_66 + 1)
03EF   08??           02029         MOVF    STK02,W
03F0   00??           02030         MOVWF   _measure_capacitance_Cin_65536_66
                      02031 ;       .line   198; "src/measure.c"    unit = 5; //"uF"
03F1   3005           02032         MOVLW   0x05
03F2   0??? 0???      02033         BANKSEL r0x1033
03F4   00??           02034         MOVWF   r0x1033
03F5   2???           02035         GOTO    _00129_DS_
03F6                  02036 _00125_DS_:
                      02037 ;       .line   201; "src/measure.c"    Cin = Cin / 1e+03;
03F6   3000           02038         MOVLW   0x00
03F7   00??           02039         MOVWF   STK06
03F8   3000           02040         MOVLW   0x00
03F9   00??           02041         MOVWF   STK05
03FA   307A           02042         MOVLW   0x7a
03FB   00??           02043         MOVWF   STK04
03FC   3044           02044         MOVLW   0x44
03FD   00??           02045         MOVWF   STK03
03FE   0??? 0???      02046         BANKSEL _measure_capacitance_Cin_65536_66
0400   08??           02047         MOVF    _measure_capacitance_Cin_65536_66,W
0401   00??           02048         MOVWF   STK02
0402   08??           02049         MOVF    (_measure_capacitance_Cin_65536_66 + 1),W
0403   00??           02050         MOVWF   STK01
0404   08??           02051         MOVF    (_measure_capacitance_Cin_65536_66 + 2),W
0405   00??           02052         MOVWF   STK00
0406   08??           02053         MOVF    (_measure_capacitance_Cin_65536_66 + 3),W
0407   0??? 0???      02054         PAGESEL ___fsdiv
0409   2???           02055         CALL    ___fsdiv
gpasm-1.5.0 #1285 (Jul 12 2020) obj/sdcc-16f8   11/12/23  13:12:37          PAGE 40


LOC    OBJECT CODE    LINE  SOURCE TEXT
  VALUE

040A   0??? 0???      02056         PAGESEL $
040C   0??? 0???      02057         BANKSEL _measure_capacitance_Cin_65536_66
040E   00??           02058         MOVWF   (_measure_capacitance_Cin_65536_66 + 3)
040F   08??           02059         MOVF    STK00,W
0410   00??           02060         MOVWF   (_measure_capacitance_Cin_65536_66 + 2)
0411   08??           02061         MOVF    STK01,W
0412   00??           02062         MOVWF   (_measure_capacitance_Cin_65536_66 + 1)
0413   08??           02063         MOVF    STK02,W
0414   00??           02064         MOVWF   _measure_capacitance_Cin_65536_66
                      02065 ;       .line   202; "src/measure.c"    unit = 6; //"nF"
0415   3006           02066         MOVLW   0x06
0416   0??? 0???      02067         BANKSEL r0x1033
0418   00??           02068         MOVWF   r0x1033
0419   2???           02069         GOTO    _00129_DS_
041A                  02070 _00128_DS_:
                      02071 ;       .line   205; "src/measure.c"    unit = 7; //"pF"
041A   3007           02072         MOVLW   0x07
041B   0??? 0???      02073         BANKSEL r0x1033
041D   00??           02074         MOVWF   r0x1033
041E                  02075 _00129_DS_:
                      02076 ;       .line   207; "src/measure.c"    Cin = Cin * 100; // scale to 2 decimal place
041E   0??? 0???      02077         BANKSEL _measure_capacitance_Cin_65536_66
0420   08??           02078         MOVF    _measure_capacitance_Cin_65536_66,W
0421   00??           02079         MOVWF   STK06
0422   08??           02080         MOVF    (_measure_capacitance_Cin_65536_66 + 1),W
0423   00??           02081         MOVWF   STK05
0424   08??           02082         MOVF    (_measure_capacitance_Cin_65536_66 + 2),W
0425   00??           02083         MOVWF   STK04
0426   08??           02084         MOVF    (_measure_capacitance_Cin_65536_66 + 3),W
0427   00??           02085         MOVWF   STK03
0428   3000           02086         MOVLW   0x00
0429   00??           02087         MOVWF   STK02
042A   3000           02088         MOVLW   0x00
042B   00??           02089         MOVWF   STK01
042C   30C8           02090         MOVLW   0xc8
042D   00??           02091         MOVWF   STK00
042E   3042           02092         MOVLW   0x42
042F   0??? 0???      02093         PAGESEL ___fsmul
0431   2???           02094         CALL    ___fsmul
0432   0??? 0???      02095         PAGESEL $
0434   0??? 0???      02096         BANKSEL _measure_capacitance_Cin_65536_66
0436   00??           02097         MOVWF   (_measure_capacitance_Cin_65536_66 + 3)
0437   08??           02098         MOVF    STK00,W
0438   00??           02099         MOVWF   (_measure_capacitance_Cin_65536_66 + 2)
0439   08??           02100         MOVF    STK01,W
043A   00??           02101         MOVWF   (_measure_capacitance_Cin_65536_66 + 1)
043B   08??           02102         MOVF    STK02,W
043C   00??           02103         MOVWF   _measure_capacitance_Cin_65536_66
                      02104 ;       .line   208; "src/measure.c"    var = (uint16_t)Cin;
043D   08??           02105         MOVF    _measure_capacitance_Cin_65536_66,W
043E   00??           02106         MOVWF   STK02
043F   08??           02107         MOVF    (_measure_capacitance_Cin_65536_66 + 1),W
0440   00??           02108         MOVWF   STK01
gpasm-1.5.0 #1285 (Jul 12 2020) obj/sdcc-16f8   11/12/23  13:12:37          PAGE 41


LOC    OBJECT CODE    LINE  SOURCE TEXT
  VALUE

0441   08??           02109         MOVF    (_measure_capacitance_Cin_65536_66 + 2),W
0442   00??           02110         MOVWF   STK00
0443   08??           02111         MOVF    (_measure_capacitance_Cin_65536_66 + 3),W
0444   0??? 0???      02112         PAGESEL ___fs2uint
0446   2???           02113         CALL    ___fs2uint
0447   0??? 0???      02114         PAGESEL $
0449   0??? 0???      02115         BANKSEL r0x1034
044B   00??           02116         MOVWF   r0x1034
044C   08??           02117         MOVF    STK00,W
                      02118 ;       .line   210; "src/measure.c"    print_reading(var);
044D   00??           02119         MOVWF   r0x1032
044E   00??           02120         MOVWF   STK00
044F   08??           02121         MOVF    r0x1034,W
0450   0??? 0???      02122         PAGESEL _print_reading
0452   2???           02123         CALL    _print_reading
0453   0??? 0???      02124         PAGESEL $
                      02125 ;       .line   211; "src/measure.c"    print_unit(unit);
0455   0??? 0???      02126         BANKSEL r0x1033
0457   08??           02127         MOVF    r0x1033,W
0458   0??? 0???      02128         PAGESEL _print_unit
045A   2???           02129         CALL    _print_unit
045B   0??? 0???      02130         PAGESEL $
                      02131 ;       .line   212; "src/measure.c"    }
045D   0008           02132         RETURN  
                      02133 ; exit point of _measure_capacitance
                      02134 
                      02135 ;***
                      02136 ;  pBlock Stats: dbName = C
                      02137 ;***
                      02138 ;has an exit
                      02139 ;functions called:
                      02140 ;   _ser_put
                      02141 ;   _ser_put
                      02142 ;10 compiler assigned registers:
                      02143 ;   r0x103E
                      02144 ;   r0x103F
                      02145 ;   r0x1040
                      02146 ;   r0x1041
                      02147 ;   r0x1042
                      02148 ;   r0x1043
                      02149 ;   STK03
                      02150 ;   STK02
                      02151 ;   STK01
                      02152 ;   STK00
                      02153 ;; Starting pCode block
                      02154 S_measure__buf_to_ser   code
0000                  02155 _buf_to_ser:
                      02156 ; 2 exit points
                      02157 ;       .line   122; "src/measure.c"    ser_put(buffer.x, buffer.n);
0000   30??           02158         MOVLW   high (_buffer + 0)
0001   0??? 0???      02159         BANKSEL r0x103E
0003   00??           02160         MOVWF   r0x103E
0004   30??           02161         MOVLW   (_buffer + 0)
gpasm-1.5.0 #1285 (Jul 12 2020) obj/sdcc-16f8   11/12/23  13:12:37          PAGE 42


LOC    OBJECT CODE    LINE  SOURCE TEXT
  VALUE

0005   00??           02162         MOVWF   r0x103F
                      02163 ;;1     CLRF    r0x1040
0006   0??? 0???      02164         BANKSEL _buffer
0008   08??           02165         MOVF    (_buffer + 16),W
0009   39F0           02166         ANDLW   0xf0
000A   0??? 0???      02167         BANKSEL r0x1041
000C   00??           02168         MOVWF   r0x1041
000D   0E??           02169         SWAPF   r0x1041,F
000E   300F           02170         MOVLW   0x0f
000F   05??           02171         ANDWF   r0x1041,F
                      02172 ;;101   MOVF    r0x1041,W
                      02173 ;;99    MOVWF   r0x1042
                      02174 ;;1     CLRF    r0x1043
                      02175 ;;100   MOVF    r0x1042,W
0010   08??           02176         MOVF    r0x1041,W
0011   00??           02177         MOVWF   STK03
0012   3000           02178         MOVLW   0x00
0013   00??           02179         MOVWF   STK02
0014   08??           02180         MOVF    r0x103F,W
0015   00??           02181         MOVWF   STK01
0016   08??           02182         MOVF    r0x103E,W
0017   00??           02183         MOVWF   STK00
0018   3000           02184         MOVLW   0x00
0019   0??? 0???      02185         PAGESEL _ser_put
001B   2???           02186         CALL    _ser_put
001C   0??? 0???      02187         PAGESEL $
                      02188 ;       .line   123; "src/measure.c"    BUFFER_CLEAR();
001E   0??? 0???      02189         BANKSEL _buffer
0020   08??           02190         MOVF    (_buffer + 16),W
0021   39F0           02191         ANDLW   0xf0
0022   00??           02192         MOVWF   (_buffer + 16)
0023   390F           02193         ANDLW   0x0f
0024   00??           02194         MOVWF   (_buffer + 16)
                      02195 ;       .line   124; "src/measure.c"    }
0025   0008           02196         RETURN  
                      02197 ; exit point of _buf_to_ser
                      02198 
                      02199 ;***
                      02200 ;  pBlock Stats: dbName = C
                      02201 ;***
                      02202 ;has an exit
                      02203 ;functions called:
                      02204 ;   _delay_ms
                      02205 ;   _delay_ms
                      02206 ;   _delay_ms
                      02207 ;   _delay_ms
                      02208 ;   _delay_ms
                      02209 ;   _delay_ms
                      02210 ;   _delay_ms
                      02211 ;   _delay_ms
                      02212 ;   _delay_ms
                      02213 ;   _delay_ms
                      02214 ;   _delay_ms
gpasm-1.5.0 #1285 (Jul 12 2020) obj/sdcc-16f8   11/12/23  13:12:37          PAGE 43


LOC    OBJECT CODE    LINE  SOURCE TEXT
  VALUE

                      02215 ;   _timer0_read_ps
                      02216 ;   _lcd_gotoxy
                      02217 ;   _buffer_init
                      02218 ;   _buffer_puts
                      02219 ;   _format_number
                      02220 ;   _print_buffer
                      02221 ;   _delay_ms
                      02222 ;   _delay_ms
                      02223 ;   _delay_ms
                      02224 ;   _delay_ms
                      02225 ;   _delay_ms
                      02226 ;   _delay_ms
                      02227 ;   _delay_ms
                      02228 ;   _delay_ms
                      02229 ;   _delay_ms
                      02230 ;   _delay_ms
                      02231 ;   _delay_ms
                      02232 ;   _timer0_read_ps
                      02233 ;   _lcd_gotoxy
                      02234 ;   _buffer_init
                      02235 ;   _buffer_puts
                      02236 ;   _format_number
                      02237 ;   _print_buffer
                      02238 ;10 compiler assigned registers:
                      02239 ;   STK00
                      02240 ;   r0x1025
                      02241 ;   r0x1026
                      02242 ;   r0x1027
                      02243 ;   r0x1028
                      02244 ;   r0x1029
                      02245 ;   STK01
                      02246 ;   STK04
                      02247 ;   STK03
                      02248 ;   STK02
                      02249 ;; Starting pCode block
                      02250 S_measure__measure_freq code
0000                  02251 _measure_freq:
                      02252 ; 2 exit points
                      02253 ;       .line   76; "src/measure.c"     TMR0IF = 0;
0000   0??? 0???      02254         BANKSEL _INTCONbits
0002   11??           02255         BCF     _INTCONbits,2
                      02256 ;       .line   80; "src/measure.c"     TRISA &= ~0b00010000;
0003   0??? 0???      02257         BANKSEL _TRISA
0005   12??           02258         BCF     _TRISA,4
                      02259 ;       .line   82; "src/measure.c"     delay_ms(20); // stablize oscillator
0006   3014           02260         MOVLW   0x14
0007   00??           02261         MOVWF   STK00
0008   3000           02262         MOVLW   0x00
0009   0??? 0???      02263         PAGESEL _delay_ms
000B   2???           02264         CALL    _delay_ms
000C   0??? 0???      02265         PAGESEL $
                      02266 ;       .line   85; "src/measure.c"     TMR0 = 0x00;
000E   0??? 0???      02267         BANKSEL _TMR0
gpasm-1.5.0 #1285 (Jul 12 2020) obj/sdcc-16f8   11/12/23  13:12:37          PAGE 44


LOC    OBJECT CODE    LINE  SOURCE TEXT
  VALUE

0010   01??           02268         CLRF    _TMR0
                      02269 ;       .line   90; "src/measure.c"     delay_ms(10);
0011   300A           02270         MOVLW   0x0a
0012   00??           02271         MOVWF   STK00
0013   3000           02272         MOVLW   0x00
0014   0??? 0???      02273         PAGESEL _delay_ms
0016   2???           02274         CALL    _delay_ms
0017   0??? 0???      02275         PAGESEL $
                      02276 ;       .line   91; "src/measure.c"     delay_ms(10);
0019   300A           02277         MOVLW   0x0a
001A   00??           02278         MOVWF   STK00
001B   3000           02279         MOVLW   0x00
001C   0??? 0???      02280         PAGESEL _delay_ms
001E   2???           02281         CALL    _delay_ms
001F   0??? 0???      02282         PAGESEL $
                      02283 ;       .line   92; "src/measure.c"     delay_ms(10);
0021   300A           02284         MOVLW   0x0a
0022   00??           02285         MOVWF   STK00
0023   3000           02286         MOVLW   0x00
0024   0??? 0???      02287         PAGESEL _delay_ms
0026   2???           02288         CALL    _delay_ms
0027   0??? 0???      02289         PAGESEL $
                      02290 ;       .line   93; "src/measure.c"     delay_ms(10);
0029   300A           02291         MOVLW   0x0a
002A   00??           02292         MOVWF   STK00
002B   3000           02293         MOVLW   0x00
002C   0??? 0???      02294         PAGESEL _delay_ms
002E   2???           02295         CALL    _delay_ms
002F   0??? 0???      02296         PAGESEL $
                      02297 ;       .line   94; "src/measure.c"     delay_ms(10);
0031   300A           02298         MOVLW   0x0a
0032   00??           02299         MOVWF   STK00
0033   3000           02300         MOVLW   0x00
0034   0??? 0???      02301         PAGESEL _delay_ms
0036   2???           02302         CALL    _delay_ms
0037   0??? 0???      02303         PAGESEL $
                      02304 ;       .line   95; "src/measure.c"     delay_ms(10);
0039   300A           02305         MOVLW   0x0a
003A   00??           02306         MOVWF   STK00
003B   3000           02307         MOVLW   0x00
003C   0??? 0???      02308         PAGESEL _delay_ms
003E   2???           02309         CALL    _delay_ms
003F   0??? 0???      02310         PAGESEL $
                      02311 ;       .line   96; "src/measure.c"     delay_ms(10);
0041   300A           02312         MOVLW   0x0a
0042   00??           02313         MOVWF   STK00
0043   3000           02314         MOVLW   0x00
0044   0??? 0???      02315         PAGESEL _delay_ms
0046   2???           02316         CALL    _delay_ms
0047   0??? 0???      02317         PAGESEL $
                      02318 ;       .line   97; "src/measure.c"     delay_ms(10);
0049   300A           02319         MOVLW   0x0a
004A   00??           02320         MOVWF   STK00
gpasm-1.5.0 #1285 (Jul 12 2020) obj/sdcc-16f8   11/12/23  13:12:37          PAGE 45


LOC    OBJECT CODE    LINE  SOURCE TEXT
  VALUE

004B   3000           02321         MOVLW   0x00
004C   0??? 0???      02322         PAGESEL _delay_ms
004E   2???           02323         CALL    _delay_ms
004F   0??? 0???      02324         PAGESEL $
                      02325 ;       .line   98; "src/measure.c"     delay_ms(10);
0051   300A           02326         MOVLW   0x0a
0052   00??           02327         MOVWF   STK00
0053   3000           02328         MOVLW   0x00
0054   0??? 0???      02329         PAGESEL _delay_ms
0056   2???           02330         CALL    _delay_ms
0057   0??? 0???      02331         PAGESEL $
                      02332 ;       .line   99; "src/measure.c"     delay_ms(10);
0059   300A           02333         MOVLW   0x0a
005A   00??           02334         MOVWF   STK00
005B   3000           02335         MOVLW   0x00
005C   0??? 0???      02336         PAGESEL _delay_ms
005E   2???           02337         CALL    _delay_ms
005F   0??? 0???      02338         PAGESEL $
                      02339 ;       .line   104; "src/measure.c"    TRISA |= 0b00010000;
0061   0??? 0???      02340         BANKSEL _TRISA
0063   16??           02341         BSF     _TRISA,4
                      02342 ;       .line   107; "src/measure.c"    count = timer0_read_ps();
0064   0??? 0???      02343         PAGESEL _timer0_read_ps
0066   2???           02344         CALL    _timer0_read_ps
0067   0??? 0???      02345         PAGESEL $
0069   0??? 0???      02346         BANKSEL r0x1025
006B   00??           02347         MOVWF   r0x1025
006C   08??           02348         MOVF    STK00,W
006D   00??           02349         MOVWF   r0x1026
                      02350 ;       .line   110; "src/measure.c"    lcd_gotoxy(0, 1);
006E   3001           02351         MOVLW   0x01
006F   00??           02352         MOVWF   STK00
0070   3000           02353         MOVLW   0x00
0071   0??? 0???      02354         PAGESEL _lcd_gotoxy
0073   2???           02355         CALL    _lcd_gotoxy
0074   0??? 0???      02356         PAGESEL $
                      02357 ;       .line   112; "src/measure.c"    buffer_init();
0076   0??? 0???      02358         PAGESEL _buffer_init
0078   2???           02359         CALL    _buffer_init
0079   0??? 0???      02360         PAGESEL $
                      02361 ;       .line   113; "src/measure.c"    buffer_puts("Freq=");
007B   30??           02362         MOVLW   high (___str_3 + 0)
007C   0??? 0???      02363         BANKSEL r0x1027
007E   00??           02364         MOVWF   r0x1027
007F   30??           02365         MOVLW   (___str_3 + 0)
0080   00??           02366         MOVWF   r0x1028
0081   3080           02367         MOVLW   0x80
0082   00??           02368         MOVWF   r0x1029
0083   08??           02369         MOVF    r0x1028,W
0084   00??           02370         MOVWF   STK01
0085   08??           02371         MOVF    r0x1027,W
0086   00??           02372         MOVWF   STK00
0087   08??           02373         MOVF    r0x1029,W
gpasm-1.5.0 #1285 (Jul 12 2020) obj/sdcc-16f8   11/12/23  13:12:37          PAGE 46


LOC    OBJECT CODE    LINE  SOURCE TEXT
  VALUE

0088   0??? 0???      02374         PAGESEL _buffer_puts
008A   2???           02375         CALL    _buffer_puts
008B   0??? 0???      02376         PAGESEL $
                      02377 ;       .line   114; "src/measure.c"    format_number(&buffer_putch, count, 10, 5);
008D   3005           02378         MOVLW   0x05
008E   00??           02379         MOVWF   STK04
008F   300A           02380         MOVLW   0x0a
0090   00??           02381         MOVWF   STK03
0091   0??? 0???      02382         BANKSEL r0x1026
0093   08??           02383         MOVF    r0x1026,W
0094   00??           02384         MOVWF   STK02
0095   08??           02385         MOVF    r0x1025,W
0096   00??           02386         MOVWF   STK01
0097   30??           02387         MOVLW   low (_buffer_putch+0)
0098   00??           02388         MOVWF   STK00
0099   30??           02389         MOVLW   high (_buffer_putch+0)
009A   0??? 0???      02390         PAGESEL _format_number
009C   2???           02391         CALL    _format_number
009D   0??? 0???      02392         PAGESEL $
                      02393 ;       .line   115; "src/measure.c"    print_buffer();
009F   0??? 0???      02394         PAGESEL _print_buffer
00A1   2???           02395         CALL    _print_buffer
00A2   0??? 0???      02396         PAGESEL $
                      02397 ;       .line   117; "src/measure.c"    return count;
00A4   0??? 0???      02398         BANKSEL r0x1026
00A6   08??           02399         MOVF    r0x1026,W
00A7   00??           02400         MOVWF   STK00
00A8   08??           02401         MOVF    r0x1025,W
                      02402 ;       .line   118; "src/measure.c"    }
00A9   0008           02403         RETURN  
                      02404 ; exit point of _measure_freq
                      02405 
                      02406 ;***
                      02407 ;  pBlock Stats: dbName = C
                      02408 ;***
                      02409 ;has an exit
                      02410 ;functions called:
                      02411 ;   _lcd_clear
                      02412 ;   _lcd_gotoxy
                      02413 ;   _put_str
                      02414 ;   _lcd_gotoxy
                      02415 ;   _ser_puts
                      02416 ;   _put_str
                      02417 ;   _measure_freq
                      02418 ;   ___uint2fs
                      02419 ;   _delay10ms
                      02420 ;   _measure_freq
                      02421 ;   ___uint2fs
                      02422 ;   _measure_freq
                      02423 ;   ___uint2fs
                      02424 ;   _delay10ms
                      02425 ;   _measure_freq
                      02426 ;   ___uint2fs
gpasm-1.5.0 #1285 (Jul 12 2020) obj/sdcc-16f8   11/12/23  13:12:37          PAGE 47


LOC    OBJECT CODE    LINE  SOURCE TEXT
  VALUE

                      02427 ;   _lcd_gotoxy
                      02428 ;   _lcd_putch
                      02429 ;   _delay10ms
                      02430 ;   _ser_puts
                      02431 ;   _lcd_clear
                      02432 ;   _lcd_gotoxy
                      02433 ;   _put_str
                      02434 ;   _lcd_gotoxy
                      02435 ;   _ser_puts
                      02436 ;   _put_str
                      02437 ;   _measure_freq
                      02438 ;   ___uint2fs
                      02439 ;   _delay10ms
                      02440 ;   _measure_freq
                      02441 ;   ___uint2fs
                      02442 ;   _measure_freq
                      02443 ;   ___uint2fs
                      02444 ;   _delay10ms
                      02445 ;   _measure_freq
                      02446 ;   ___uint2fs
                      02447 ;   _lcd_gotoxy
                      02448 ;   _lcd_putch
                      02449 ;   _delay10ms
                      02450 ;   _ser_puts
                      02451 ;6 compiler assigned registers:
                      02452 ;   STK00
                      02453 ;   r0x1044
                      02454 ;   r0x1045
                      02455 ;   r0x1046
                      02456 ;   STK01
                      02457 ;   STK02
                      02458 ;; Starting pCode block
                      02459 S_measure__calibrate    code
0000                  02460 _calibrate:
                      02461 ; 2 exit points
                      02462 ;       .line   30; "src/measure.c"     lcd_clear();
0000   0??? 0???      02463         PAGESEL _lcd_clear
0002   2???           02464         CALL    _lcd_clear
0003   0??? 0???      02465         PAGESEL $
                      02466 ;       .line   32; "src/measure.c"     lcd_gotoxy(0, 0);
0005   3000           02467         MOVLW   0x00
0006   00??           02468         MOVWF   STK00
0007   3000           02469         MOVLW   0x00
0008   0??? 0???      02470         PAGESEL _lcd_gotoxy
000A   2???           02471         CALL    _lcd_gotoxy
000B   0??? 0???      02472         PAGESEL $
                      02473 ;       .line   33; "src/measure.c"     put_str("Calibrating");
000D   30??           02474         MOVLW   high (___str_0 + 0)
000E   0??? 0???      02475         BANKSEL r0x1044
0010   00??           02476         MOVWF   r0x1044
0011   30??           02477         MOVLW   (___str_0 + 0)
0012   00??           02478         MOVWF   r0x1045
0013   3080           02479         MOVLW   0x80
gpasm-1.5.0 #1285 (Jul 12 2020) obj/sdcc-16f8   11/12/23  13:12:37          PAGE 48


LOC    OBJECT CODE    LINE  SOURCE TEXT
  VALUE

0014   00??           02480         MOVWF   r0x1046
0015   08??           02481         MOVF    r0x1045,W
0016   00??           02482         MOVWF   STK01
0017   08??           02483         MOVF    r0x1044,W
0018   00??           02484         MOVWF   STK00
0019   08??           02485         MOVF    r0x1046,W
001A   0??? 0???      02486         PAGESEL _put_str
001C   2???           02487         CALL    _put_str
001D   0??? 0???      02488         PAGESEL $
                      02489 ;       .line   35; "src/measure.c"     lcd_gotoxy(0, 1);
001F   3001           02490         MOVLW   0x01
0020   00??           02491         MOVWF   STK00
0021   3000           02492         MOVLW   0x00
0022   0??? 0???      02493         PAGESEL _lcd_gotoxy
0024   2???           02494         CALL    _lcd_gotoxy
0025   0??? 0???      02495         PAGESEL $
                      02496 ;       .line   37; "src/measure.c"     ser_puts("\r\n");
0027   30??           02497         MOVLW   high (___str_1 + 0)
0028   0??? 0???      02498         BANKSEL r0x1044
002A   00??           02499         MOVWF   r0x1044
002B   30??           02500         MOVLW   (___str_1 + 0)
002C   00??           02501         MOVWF   r0x1045
002D   3080           02502         MOVLW   0x80
002E   00??           02503         MOVWF   r0x1046
002F   08??           02504         MOVF    r0x1045,W
0030   00??           02505         MOVWF   STK01
0031   08??           02506         MOVF    r0x1044,W
0032   00??           02507         MOVWF   STK00
0033   08??           02508         MOVF    r0x1046,W
0034   0??? 0???      02509         PAGESEL _ser_puts
0036   2???           02510         CALL    _ser_puts
0037   0??? 0???      02511         PAGESEL $
                      02512 ;       .line   39; "src/measure.c"     put_str("please wait...");
0039   30??           02513         MOVLW   high (___str_2 + 0)
003A   0??? 0???      02514         BANKSEL r0x1044
003C   00??           02515         MOVWF   r0x1044
003D   30??           02516         MOVLW   (___str_2 + 0)
003E   00??           02517         MOVWF   r0x1045
003F   3080           02518         MOVLW   0x80
0040   00??           02519         MOVWF   r0x1046
0041   08??           02520         MOVF    r0x1045,W
0042   00??           02521         MOVWF   STK01
0043   08??           02522         MOVF    r0x1044,W
0044   00??           02523         MOVWF   STK00
0045   08??           02524         MOVF    r0x1046,W
0046   0??? 0???      02525         PAGESEL _put_str
0048   2???           02526         CALL    _put_str
0049   0??? 0???      02527         PAGESEL $
                      02528 ;       .line   42; "src/measure.c"     REMOVE_CCAL();
004B   0??? 0???      02529         BANKSEL _PORTC
004D   12??           02530         BCF     _PORTC,5
                      02531 ;       .line   44; "src/measure.c"     F1 = (double)measure_freq(); // dummy reading to stabilize oscil
                            lator
gpasm-1.5.0 #1285 (Jul 12 2020) obj/sdcc-16f8   11/12/23  13:12:37          PAGE 49


LOC    OBJECT CODE    LINE  SOURCE TEXT
  VALUE

004E   0??? 0???      02532         PAGESEL _measure_freq
0050   2???           02533         CALL    _measure_freq
0051   0??? 0???      02534         PAGESEL $
0053   0??? 0???      02535         BANKSEL r0x1044
0055   00??           02536         MOVWF   r0x1044
0056   08??           02537         MOVF    STK00,W
0057   00??           02538         MOVWF   r0x1045
0058   00??           02539         MOVWF   STK00
0059   08??           02540         MOVF    r0x1044,W
005A   0??? 0???      02541         PAGESEL ___uint2fs
005C   2???           02542         CALL    ___uint2fs
005D   0??? 0???      02543         PAGESEL $
005F   0??? 0???      02544         BANKSEL _F1
0061   00??           02545         MOVWF   (_F1 + 3)
0062   08??           02546         MOVF    STK00,W
0063   00??           02547         MOVWF   (_F1 + 2)
0064   08??           02548         MOVF    STK01,W
0065   00??           02549         MOVWF   (_F1 + 1)
0066   08??           02550         MOVF    STK02,W
0067   00??           02551         MOVWF   _F1
                      02552 ;       .line   45; "src/measure.c"     delay10ms(50);
0068   3032           02553         MOVLW   0x32
0069   0??? 0???      02554         PAGESEL _delay10ms
006B   2???           02555         CALL    _delay10ms
006C   0??? 0???      02556         PAGESEL $
                      02557 ;       .line   47; "src/measure.c"     F1 = (double)measure_freq();
006E   0??? 0???      02558         PAGESEL _measure_freq
0070   2???           02559         CALL    _measure_freq
0071   0??? 0???      02560         PAGESEL $
0073   0??? 0???      02561         BANKSEL r0x1044
0075   00??           02562         MOVWF   r0x1044
0076   08??           02563         MOVF    STK00,W
0077   00??           02564         MOVWF   r0x1045
0078   00??           02565         MOVWF   STK00
0079   08??           02566         MOVF    r0x1044,W
007A   0??? 0???      02567         PAGESEL ___uint2fs
007C   2???           02568         CALL    ___uint2fs
007D   0??? 0???      02569         PAGESEL $
007F   0??? 0???      02570         BANKSEL _F1
0081   00??           02571         MOVWF   (_F1 + 3)
0082   08??           02572         MOVF    STK00,W
0083   00??           02573         MOVWF   (_F1 + 2)
0084   08??           02574         MOVF    STK01,W
0085   00??           02575         MOVWF   (_F1 + 1)
0086   08??           02576         MOVF    STK02,W
0087   00??           02577         MOVWF   _F1
                      02578 ;       .line   48; "src/measure.c"     ADD_CCAL();
0088   0??? 0???      02579         BANKSEL _PORTC
008A   16??           02580         BSF     _PORTC,5
                      02581 ;       .line   50; "src/measure.c"     F2 = (double)measure_freq(); // dummy reading to stabilize oscil
                            lator
008B   0??? 0???      02582         PAGESEL _measure_freq
008D   2???           02583         CALL    _measure_freq
gpasm-1.5.0 #1285 (Jul 12 2020) obj/sdcc-16f8   11/12/23  13:12:37          PAGE 50


LOC    OBJECT CODE    LINE  SOURCE TEXT
  VALUE

008E   0??? 0???      02584         PAGESEL $
0090   0??? 0???      02585         BANKSEL r0x1044
0092   00??           02586         MOVWF   r0x1044
0093   08??           02587         MOVF    STK00,W
0094   00??           02588         MOVWF   r0x1045
0095   00??           02589         MOVWF   STK00
0096   08??           02590         MOVF    r0x1044,W
0097   0??? 0???      02591         PAGESEL ___uint2fs
0099   2???           02592         CALL    ___uint2fs
009A   0??? 0???      02593         PAGESEL $
009C   0??? 0???      02594         BANKSEL _F2
009E   00??           02595         MOVWF   (_F2 + 3)
009F   08??           02596         MOVF    STK00,W
00A0   00??           02597         MOVWF   (_F2 + 2)
00A1   08??           02598         MOVF    STK01,W
00A2   00??           02599         MOVWF   (_F2 + 1)
00A3   08??           02600         MOVF    STK02,W
00A4   00??           02601         MOVWF   _F2
                      02602 ;       .line   51; "src/measure.c"     delay10ms(50);
00A5   3032           02603         MOVLW   0x32
00A6   0??? 0???      02604         PAGESEL _delay10ms
00A8   2???           02605         CALL    _delay10ms
00A9   0??? 0???      02606         PAGESEL $
                      02607 ;       .line   53; "src/measure.c"     F2 = (double)measure_freq();
00AB   0??? 0???      02608         PAGESEL _measure_freq
00AD   2???           02609         CALL    _measure_freq
00AE   0??? 0???      02610         PAGESEL $
00B0   0??? 0???      02611         BANKSEL r0x1044
00B2   00??           02612         MOVWF   r0x1044
00B3   08??           02613         MOVF    STK00,W
00B4   00??           02614         MOVWF   r0x1045
00B5   00??           02615         MOVWF   STK00
00B6   08??           02616         MOVF    r0x1044,W
00B7   0??? 0???      02617         PAGESEL ___uint2fs
00B9   2???           02618         CALL    ___uint2fs
00BA   0??? 0???      02619         PAGESEL $
00BC   0??? 0???      02620         BANKSEL _F2
00BE   00??           02621         MOVWF   (_F2 + 3)
00BF   08??           02622         MOVF    STK00,W
00C0   00??           02623         MOVWF   (_F2 + 2)
00C1   08??           02624         MOVF    STK01,W
00C2   00??           02625         MOVWF   (_F2 + 1)
00C3   08??           02626         MOVF    STK02,W
00C4   00??           02627         MOVWF   _F2
                      02628 ;       .line   54; "src/measure.c"     REMOVE_CCAL();
00C5   0??? 0???      02629         BANKSEL _PORTC
00C7   12??           02630         BCF     _PORTC,5
                      02631 ;       .line   57; "src/measure.c"     lcd_gotoxy(11, 0);
00C8   3000           02632         MOVLW   0x00
00C9   00??           02633         MOVWF   STK00
00CA   300B           02634         MOVLW   0x0b
00CB   0??? 0???      02635         PAGESEL _lcd_gotoxy
00CD   2???           02636         CALL    _lcd_gotoxy
gpasm-1.5.0 #1285 (Jul 12 2020) obj/sdcc-16f8   11/12/23  13:12:37          PAGE 51


LOC    OBJECT CODE    LINE  SOURCE TEXT
  VALUE

00CE   0??? 0???      02637         PAGESEL $
                      02638 ;       .line   58; "src/measure.c"     for(i = 0; i < 6; i++) { // show progress bar
00D0   0??? 0???      02639         BANKSEL r0x1045
00D2   01??           02640         CLRF    r0x1045
00D3                  02641 _00106_DS_:
                      02642 ;       .line   59; "src/measure.c"     lcd_putch('=');
00D3   303D           02643         MOVLW   0x3d
00D4   0??? 0???      02644         PAGESEL _lcd_putch
00D6   2???           02645         CALL    _lcd_putch
00D7   0??? 0???      02646         PAGESEL $
                      02647 ;       .line   61; "src/measure.c"     delay10ms(28);
00D9   301C           02648         MOVLW   0x1c
00DA   0??? 0???      02649         PAGESEL _delay10ms
00DC   2???           02650         CALL    _delay10ms
00DD   0??? 0???      02651         PAGESEL $
                      02652 ;       .line   58; "src/measure.c"     for(i = 0; i < 6; i++) { // show progress bar
00DF   0??? 0???      02653         BANKSEL r0x1045
00E1   0A??           02654         INCF    r0x1045,F
                      02655 ;;unsigned compare: left < lit(0x6=6), size=1
00E2   3006           02656         MOVLW   0x06
00E3   02??           02657         SUBWF   r0x1045,W
00E4   1C03           02658         BTFSS   STATUS,0
00E5   2???           02659         GOTO    _00106_DS_
                      02660 ;;genSkipc:3307: created from rifx:0x7ffeb92ea1b0
                      02661 ;       .line   65; "src/measure.c"     ser_puts("\r\n");
00E6   30??           02662         MOVLW   high (___str_1 + 0)
00E7   00??           02663         MOVWF   r0x1044
00E8   30??           02664         MOVLW   (___str_1 + 0)
00E9   00??           02665         MOVWF   r0x1045
00EA   3080           02666         MOVLW   0x80
00EB   00??           02667         MOVWF   r0x1046
00EC   08??           02668         MOVF    r0x1045,W
00ED   00??           02669         MOVWF   STK01
00EE   08??           02670         MOVF    r0x1044,W
00EF   00??           02671         MOVWF   STK00
00F0   08??           02672         MOVF    r0x1046,W
00F1   0??? 0???      02673         PAGESEL _ser_puts
00F3   2???           02674         CALL    _ser_puts
00F4   0??? 0???      02675         PAGESEL $
                      02676 ;       .line   67; "src/measure.c"     }
00F6   0008           02677         RETURN  
                      02678 ; exit point of _calibrate
                      02679 
                      02680 
                      02681 ;       code size estimation:
                      02682 ;        1510+  421 =  1931 instructions ( 4704 byte)
                      02683 
                      02684         end
gpasm-1.5.0 #1285 (Jul 12 2020) obj/sdcc-16f8   11/12/23  13:12:37          PAGE 52


SYMBOL TABLE
  LABEL                              TYPE        VALUE         VALUE          VALUE
                                                 (hex)         (dec)          (text)

ACKDT                             CONSTANT      00000005              5
ACKEN                             CONSTANT      00000004              4
ACKSTAT                           CONSTANT      00000006              6
ADCON0                            CONSTANT      0000001F             31
ADCON1                            CONSTANT      0000009F            159
ADCS0                             CONSTANT      00000006              6
ADCS1                             CONSTANT      00000007              7
ADCS2                             CONSTANT      00000006              6
ADDEN                             CONSTANT      00000003              3
ADFM                              CONSTANT      00000007              7
ADIE                              CONSTANT      00000006              6
ADIF                              CONSTANT      00000006              6
ADON                              CONSTANT      00000000              0
ADRESH                            CONSTANT      0000001E             30
ADRESL                            CONSTANT      0000009E            158
BCLIE                             CONSTANT      00000003              3
BCLIF                             CONSTANT      00000003              3
BF                                CONSTANT      00000000              0
BRGH                              CONSTANT      00000002              2
C                                 CONSTANT      00000000              0
CCPR1                             CONSTANT      00000015             21
CCPR1H                            CONSTANT      00000016             22
CCPR1L                            CONSTANT      00000015             21
CCPR2                             CONSTANT      0000001B             27
CCPR2H                            CONSTANT      0000001C             28
CCPR2L                            CONSTANT      0000001B             27
CCP1CON                           CONSTANT      00000017             23
CCP1IE                            CONSTANT      00000002              2
CCP1IF                            CONSTANT      00000002              2
CCP1M0                            CONSTANT      00000000              0
CCP1M1                            CONSTANT      00000001              1
CCP1M2                            CONSTANT      00000002              2
CCP1M3                            CONSTANT      00000003              3
CCP1X                             CONSTANT      00000005              5
CCP1Y                             CONSTANT      00000004              4
CCP2CON                           CONSTANT      0000001D             29
CCP2IE                            CONSTANT      00000000              0
CCP2IF                            CONSTANT      00000000              0
CCP2M0                            CONSTANT      00000000              0
CCP2M1                            CONSTANT      00000001              1
CCP2M2                            CONSTANT      00000002              2
CCP2M3                            CONSTANT      00000003              3
CCP2X                             CONSTANT      00000005              5
CCP2Y                             CONSTANT      00000004              4
CHS0                              CONSTANT      00000003              3
CHS1                              CONSTANT      00000004              4
CHS2                              CONSTANT      00000005              5
CIS                               CONSTANT      00000003              3
CKE                               CONSTANT      00000006              6
CKP                               CONSTANT      00000004              4
CM0                               CONSTANT      00000000              0
CMCON                             CONSTANT      0000009C            156
gpasm-1.5.0 #1285 (Jul 12 2020) obj/sdcc-16f8   11/12/23  13:12:37          PAGE 53


SYMBOL TABLE
  LABEL                              TYPE        VALUE         VALUE          VALUE
                                                 (hex)         (dec)          (text)

CMIE                              CONSTANT      00000006              6
CMIF                              CONSTANT      00000006              6
CM1                               CONSTANT      00000001              1
CM2                               CONSTANT      00000002              2
CREN                              CONSTANT      00000004              4
CSRC                              CONSTANT      00000007              7
CVR0                              CONSTANT      00000000              0
CVRCON                            CONSTANT      0000009D            157
CVREN                             CONSTANT      00000007              7
CVROE                             CONSTANT      00000006              6
CVRR                              CONSTANT      00000005              5
CVR1                              CONSTANT      00000001              1
CVR2                              CONSTANT      00000002              2
CVR3                              CONSTANT      00000003              3
C1INV                             CONSTANT      00000004              4
C1OUT                             CONSTANT      00000006              6
C2INV                             CONSTANT      00000005              5
C2OUT                             CONSTANT      00000007              7
D                                 CONSTANT      00000005              5
DATA_ADDRESS                      CONSTANT      00000005              5
DC                                CONSTANT      00000001              1
D_A                               CONSTANT      00000005              5
D_NOT_A                           CONSTANT      00000005              5
EEADR                             CONSTANT      0000010D            269
EEADRH                            CONSTANT      0000010F            271
EECON1                            CONSTANT      0000018C            396
EECON2                            CONSTANT      0000018D            397
EEDATA                            CONSTANT      0000010C            268
EEDATH                            CONSTANT      0000010E            270
EEIE                              CONSTANT      00000004              4
EEIF                              CONSTANT      00000004              4
EEPGD                             CONSTANT      00000007              7
F                                 CONSTANT      00000001              1
FERR                              CONSTANT      00000002              2
FSR                               CONSTANT      00000004              4
GCEN                              CONSTANT      00000007              7
GIE                               CONSTANT      00000007              7
GO                                CONSTANT      00000002              2
GO_DONE                           CONSTANT      00000002              2
GO_NOT_DONE                       CONSTANT      00000002              2
INDF                              CONSTANT      00000000              0
INTCON                            CONSTANT      0000000B             11
INTE                              CONSTANT      00000004              4
INTEDG                            CONSTANT      00000006              6
INTF                              CONSTANT      00000001              1
IRP                               CONSTANT      00000007              7
I2C_DATA                          CONSTANT      00000005              5
I2C_READ                          CONSTANT      00000002              2
I2C_START                         CONSTANT      00000003              3
I2C_STOP                          CONSTANT      00000004              4
NOT_A                             CONSTANT      00000005              5
NOT_ADDRESS                       CONSTANT      00000005              5
gpasm-1.5.0 #1285 (Jul 12 2020) obj/sdcc-16f8   11/12/23  13:12:37          PAGE 54


SYMBOL TABLE
  LABEL                              TYPE        VALUE         VALUE          VALUE
                                                 (hex)         (dec)          (text)

NOT_BO                            CONSTANT      00000000              0
NOT_BOR                           CONSTANT      00000000              0
NOT_DONE                          CONSTANT      00000002              2
NOT_PD                            CONSTANT      00000003              3
NOT_POR                           CONSTANT      00000001              1
NOT_RBPU                          CONSTANT      00000007              7
NOT_RC8                           CONSTANT      00000006              6
NOT_TO                            CONSTANT      00000004              4
NOT_TX8                           CONSTANT      00000006              6
NOT_T1SYNC                        CONSTANT      00000002              2
NOT_W                             CONSTANT      00000002              2
NOT_WRITE                         CONSTANT      00000002              2
OERR                              CONSTANT      00000001              1
OPTION_REG                        CONSTANT      00000081            129
P                                 CONSTANT      00000004              4
PCFG0                             CONSTANT      00000000              0
PCFG1                             CONSTANT      00000001              1
PCFG2                             CONSTANT      00000002              2
PCFG3                             CONSTANT      00000003              3
PCL                               CONSTANT      00000002              2
PCLATH                            CONSTANT      0000000A             10
PCON                              CONSTANT      0000008E            142
PEIE                              CONSTANT      00000006              6
PEN                               CONSTANT      00000002              2
PIE1                              CONSTANT      0000008C            140
PIE2                              CONSTANT      0000008D            141
PIR1                              CONSTANT      0000000C             12
PIR2                              CONSTANT      0000000D             13
PORTA                             CONSTANT      00000005              5
PORTB                             CONSTANT      00000006              6
PORTC                             CONSTANT      00000007              7
PR2                               CONSTANT      00000092            146
PS0                               CONSTANT      00000000              0
PSA                               CONSTANT      00000003              3
PSAVE                             EXTERNAL      00000000              0
PS1                               CONSTANT      00000001              1
PS2                               CONSTANT      00000002              2
R                                 CONSTANT      00000002              2
RA0                               CONSTANT      00000000              0
RA1                               CONSTANT      00000001              1
RA2                               CONSTANT      00000002              2
RA3                               CONSTANT      00000003              3
RA4                               CONSTANT      00000004              4
RA5                               CONSTANT      00000005              5
RB0                               CONSTANT      00000000              0
RBIE                              CONSTANT      00000003              3
RBIF                              CONSTANT      00000000              0
RB1                               CONSTANT      00000001              1
RB2                               CONSTANT      00000002              2
RB3                               CONSTANT      00000003              3
RB4                               CONSTANT      00000004              4
RB5                               CONSTANT      00000005              5
gpasm-1.5.0 #1285 (Jul 12 2020) obj/sdcc-16f8   11/12/23  13:12:37          PAGE 55


SYMBOL TABLE
  LABEL                              TYPE        VALUE         VALUE          VALUE
                                                 (hex)         (dec)          (text)

RB6                               CONSTANT      00000006              6
RB7                               CONSTANT      00000007              7
RC0                               CONSTANT      00000000              0
RCD8                              CONSTANT      00000000              0
RCEN                              CONSTANT      00000003              3
RCIE                              CONSTANT      00000005              5
RCIF                              CONSTANT      00000005              5
RCREG                             CONSTANT      0000001A             26
RCSTA                             CONSTANT      00000018             24
RC1                               CONSTANT      00000001              1
RC2                               CONSTANT      00000002              2
RC3                               CONSTANT      00000003              3
RC4                               CONSTANT      00000004              4
RC5                               CONSTANT      00000005              5
RC6                               CONSTANT      00000006              6
RC7                               CONSTANT      00000007              7
RC8_9                             CONSTANT      00000006              6
RC9                               CONSTANT      00000006              6
RD                                CONSTANT      00000000              0
READ_WRITE                        CONSTANT      00000002              2
RP0                               CONSTANT      00000005              5
RP1                               CONSTANT      00000006              6
RSEN                              CONSTANT      00000001              1
RX9                               CONSTANT      00000006              6
RX9D                              CONSTANT      00000000              0
R_NOT_W                           CONSTANT      00000002              2
R_W                               CONSTANT      00000002              2
S                                 CONSTANT      00000003              3
SEN                               CONSTANT      00000000              0
SMP                               CONSTANT      00000007              7
SPBRG                             CONSTANT      00000099            153
SPEN                              CONSTANT      00000007              7
SREN                              CONSTANT      00000005              5
SSAVE                             EXTERNAL      00000000              0
SSPADD                            CONSTANT      00000093            147
SSPBUF                            CONSTANT      00000013             19
SSPCON                            CONSTANT      00000014             20
SSPCON2                           CONSTANT      00000091            145
SSPEN                             CONSTANT      00000005              5
SSPIE                             CONSTANT      00000003              3
SSPIF                             CONSTANT      00000003              3
SSPM0                             CONSTANT      00000000              0
SSPM1                             CONSTANT      00000001              1
SSPM2                             CONSTANT      00000002              2
SSPM3                             CONSTANT      00000003              3
SSPOV                             CONSTANT      00000006              6
SSPSTAT                           CONSTANT      00000094            148
STATUS                            CONSTANT      00000003              3
STK00                             EXTERNAL      00000000              0
STK01                             EXTERNAL      00000000              0
STK02                             EXTERNAL      00000000              0
STK03                             EXTERNAL      00000000              0
gpasm-1.5.0 #1285 (Jul 12 2020) obj/sdcc-16f8   11/12/23  13:12:37          PAGE 56


SYMBOL TABLE
  LABEL                              TYPE        VALUE         VALUE          VALUE
                                                 (hex)         (dec)          (text)

STK04                             EXTERNAL      00000000              0
STK05                             EXTERNAL      00000000              0
STK06                             EXTERNAL      00000000              0
STK07                             EXTERNAL      00000000              0
STK08                             EXTERNAL      00000000              0
STK09                             EXTERNAL      00000000              0
STK10                             EXTERNAL      00000000              0
STK11                             EXTERNAL      00000000              0
STK12                             EXTERNAL      00000000              0
SYNC                              CONSTANT      00000004              4
T0CS                              CONSTANT      00000005              5
T0IE                              CONSTANT      00000005              5
T0IF                              CONSTANT      00000002              2
T0SE                              CONSTANT      00000004              4
TMR0                              CONSTANT      00000001              1
TMR0IE                            CONSTANT      00000005              5
TMR0IF                            CONSTANT      00000002              2
TMR1                              CONSTANT      0000000E             14
TMR1CS                            CONSTANT      00000001              1
TMR1H                             CONSTANT      0000000F             15
TMR1IE                            CONSTANT      00000000              0
TMR1IF                            CONSTANT      00000000              0
TMR1L                             CONSTANT      0000000E             14
TMR1ON                            CONSTANT      00000000              0
TMR2                              CONSTANT      00000011             17
TMR2IE                            CONSTANT      00000001              1
TMR2IF                            CONSTANT      00000001              1
TMR2ON                            CONSTANT      00000002              2
TOUTPS0                           CONSTANT      00000003              3
TOUTPS1                           CONSTANT      00000004              4
TOUTPS2                           CONSTANT      00000005              5
TOUTPS3                           CONSTANT      00000006              6
TRISA                             CONSTANT      00000085            133
TRISA0                            CONSTANT      00000000              0
TRISA1                            CONSTANT      00000001              1
TRISA2                            CONSTANT      00000002              2
TRISA3                            CONSTANT      00000003              3
TRISA4                            CONSTANT      00000004              4
TRISA5                            CONSTANT      00000005              5
TRISB                             CONSTANT      00000086            134
TRISB0                            CONSTANT      00000000              0
TRISB1                            CONSTANT      00000001              1
TRISB2                            CONSTANT      00000002              2
TRISB3                            CONSTANT      00000003              3
TRISB4                            CONSTANT      00000004              4
TRISB5                            CONSTANT      00000005              5
TRISB6                            CONSTANT      00000006              6
TRISB7                            CONSTANT      00000007              7
TRISC                             CONSTANT      00000087            135
TRISC0                            CONSTANT      00000000              0
TRISC1                            CONSTANT      00000001              1
TRISC2                            CONSTANT      00000002              2
gpasm-1.5.0 #1285 (Jul 12 2020) obj/sdcc-16f8   11/12/23  13:12:37          PAGE 57


SYMBOL TABLE
  LABEL                              TYPE        VALUE         VALUE          VALUE
                                                 (hex)         (dec)          (text)

TRISC3                            CONSTANT      00000003              3
TRISC4                            CONSTANT      00000004              4
TRISC5                            CONSTANT      00000005              5
TRISC6                            CONSTANT      00000006              6
TRISC7                            CONSTANT      00000007              7
TRMT                              CONSTANT      00000001              1
TXD8                              CONSTANT      00000000              0
TXEN                              CONSTANT      00000005              5
TXIE                              CONSTANT      00000004              4
TXIF                              CONSTANT      00000004              4
TXREG                             CONSTANT      00000019             25
TXSTA                             CONSTANT      00000098            152
TX8_9                             CONSTANT      00000006              6
TX9                               CONSTANT      00000006              6
TX9D                              CONSTANT      00000000              0
T1CKPS0                           CONSTANT      00000004              4
T1CKPS1                           CONSTANT      00000005              5
T1CON                             CONSTANT      00000010             16
T1INSYNC                          CONSTANT      00000002              2
T1OSCEN                           CONSTANT      00000003              3
T1SYNC                            CONSTANT      00000002              2
T2CKPS0                           CONSTANT      00000000              0
T2CKPS1                           CONSTANT      00000001              1
T2CON                             CONSTANT      00000012             18
UA                                CONSTANT      00000001              1
W                                 CONSTANT      00000000              0
WCOL                              CONSTANT      00000007              7
WR                                CONSTANT      00000001              1
WREN                              CONSTANT      00000002              2
WRERR                             CONSTANT      00000003              3
WSAVE                             EXTERNAL      00000000              0
Z                                 CONSTANT      00000002              2
_00106_DS_                        ADDRESS       000000D3            211
_00120_DS_                        ADDRESS       00000230            560
_00122_DS_                        ADDRESS       000003D2            978
_00125_DS_                        ADDRESS       000003F6           1014
_00128_DS_                        ADDRESS       0000041A           1050
_00129_DS_                        ADDRESS       0000041E           1054
_00135_DS_                        ADDRESS       00000068            104
_00137_DS_                        ADDRESS       00000284            644
_00140_DS_                        ADDRESS       000002A6            678
_00143_DS_                        ADDRESS       000002C8            712
_00144_DS_                        ADDRESS       000002CC            716
_BODEN_OFF                        CONSTANT      00003FBF          16319
_BODEN_ON                         CONSTANT      00003FFF          16383
_BOREN_OFF                        CONSTANT      00003FBF          16319
_BOREN_ON                         CONSTANT      00003FFF          16383
_CCal                             EXTERNAL      00000000              0
_CONFIG                           CONSTANT      00002007           8199
_CPD_OFF                          CONSTANT      00003FFF          16383
_CPD_ON                           CONSTANT      00003EFF          16127
_CP_ALL                           CONSTANT      00001FFF           8191
gpasm-1.5.0 #1285 (Jul 12 2020) obj/sdcc-16f8   11/12/23  13:12:37          PAGE 58


SYMBOL TABLE
  LABEL                              TYPE        VALUE         VALUE          VALUE
                                                 (hex)         (dec)          (text)

_CP_OFF                           CONSTANT      00003FFF          16383
_CP_ON                            CONSTANT      00001FFF           8191
_DEBUG_OFF                        CONSTANT      00003FFF          16383
_DEBUG_ON                         CONSTANT      000037FF          14335
_DEVID1                           CONSTANT      00002006           8198
_FOSC_EXTRC                       CONSTANT      00003FFF          16383
_FOSC_HS                          CONSTANT      00003FFE          16382
_FOSC_LP                          CONSTANT      00003FFC          16380
_FOSC_XT                          CONSTANT      00003FFD          16381
_F1                               EXTERNAL      00000000              0
_F2                               EXTERNAL      00000000              0
_F3                               EXTERNAL      00000000              0
_HS_OSC                           CONSTANT      00003FFE          16382
_IDLOC0                           CONSTANT      00002000           8192
_IDLOC1                           CONSTANT      00002001           8193
_IDLOC2                           CONSTANT      00002002           8194
_IDLOC3                           CONSTANT      00002003           8195
_INTCONbits                       EXTERNAL      00000000              0
_LP_OSC                           CONSTANT      00003FFC          16380
_LVP_OFF                          CONSTANT      00003F7F          16255
_LVP_ON                           CONSTANT      00003FFF          16383
_PORTC                            EXTERNAL      00000000              0
_PWRTE_OFF                        CONSTANT      00003FFF          16383
_PWRTE_ON                         CONSTANT      00003FF7          16375
_RC_OSC                           CONSTANT      00003FFF          16383
_S_measure__buf_to_ser_001C       ADDRESS       0000001C             28
_S_measure__calibrate_0003        ADDRESS       00000003              3
_S_measure__calibrate_000B        ADDRESS       0000000B             11
_S_measure__calibrate_001D        ADDRESS       0000001D             29
_S_measure__calibrate_0025        ADDRESS       00000025             37
_S_measure__calibrate_0037        ADDRESS       00000037             55
_S_measure__calibrate_0049        ADDRESS       00000049             73
_S_measure__calibrate_0051        ADDRESS       00000051             81
_S_measure__calibrate_005D        ADDRESS       0000005D             93
_S_measure__calibrate_006C        ADDRESS       0000006C            108
_S_measure__calibrate_0071        ADDRESS       00000071            113
_S_measure__calibrate_007D        ADDRESS       0000007D            125
_S_measure__calibrate_008E        ADDRESS       0000008E            142
_S_measure__calibrate_009A        ADDRESS       0000009A            154
_S_measure__calibrate_00AE        ADDRESS       000000AE            174
_S_measure__calibrate_00A9        ADDRESS       000000A9            169
_S_measure__calibrate_00BA        ADDRESS       000000BA            186
_S_measure__calibrate_00CE        ADDRESS       000000CE            206
_S_measure__calibrate_00DD        ADDRESS       000000DD            221
_S_measure__calibrate_00D7        ADDRESS       000000D7            215
_S_measure__calibrate_00F4        ADDRESS       000000F4            244
_S_measure__measure_capacitance_0006  ADDRESS       00000006              6
_S_measure__measure_capacitance_0018  ADDRESS       00000018             24
_S_measure__measure_capacitance_001D  ADDRESS       0000001D             29
_S_measure__measure_capacitance_0029  ADDRESS       00000029             41
_S_measure__measure_capacitance_0044  ADDRESS       00000044             68
_S_measure__measure_capacitance_005A  ADDRESS       0000005A             90
gpasm-1.5.0 #1285 (Jul 12 2020) obj/sdcc-16f8   11/12/23  13:12:37          PAGE 59


SYMBOL TABLE
  LABEL                              TYPE        VALUE         VALUE          VALUE
                                                 (hex)         (dec)          (text)

_S_measure__measure_capacitance_006C  ADDRESS       0000006C            108
_S_measure__measure_capacitance_007E  ADDRESS       0000007E            126
_S_measure__measure_capacitance_0084  ADDRESS       00000084            132
_S_measure__measure_capacitance_00BD  ADDRESS       000000BD            189
_S_measure__measure_capacitance_00CF  ADDRESS       000000CF            207
_S_measure__measure_capacitance_00E1  ADDRESS       000000E1            225
_S_measure__measure_capacitance_00E7  ADDRESS       000000E7            231
_S_measure__measure_capacitance_0120  ADDRESS       00000120            288
_S_measure__measure_capacitance_0132  ADDRESS       00000132            306
_S_measure__measure_capacitance_0144  ADDRESS       00000144            324
_S_measure__measure_capacitance_014A  ADDRESS       0000014A            330
_S_measure__measure_capacitance_0183  ADDRESS       00000183            387
_S_measure__measure_capacitance_0195  ADDRESS       00000195            405
_S_measure__measure_capacitance_01AD  ADDRESS       000001AD            429
_S_measure__measure_capacitance_01A7  ADDRESS       000001A7            423
_S_measure__measure_capacitance_01E6  ADDRESS       000001E6            486
_S_measure__measure_capacitance_01F8  ADDRESS       000001F8            504
_S_measure__measure_capacitance_0210  ADDRESS       00000210            528
_S_measure__measure_capacitance_0244  ADDRESS       00000244            580
_S_measure__measure_capacitance_0263  ADDRESS       00000263            611
_S_measure__measure_capacitance_0282  ADDRESS       00000282            642
_S_measure__measure_capacitance_029D  ADDRESS       0000029D            669
_S_measure__measure_capacitance_02B9  ADDRESS       000002B9            697
_S_measure__measure_capacitance_02DA  ADDRESS       000002DA            730
_S_measure__measure_capacitance_02F5  ADDRESS       000002F5            757
_S_measure__measure_capacitance_0307  ADDRESS       00000307            775
_S_measure__measure_capacitance_030D  ADDRESS       0000030D            781
_S_measure__measure_capacitance_0346  ADDRESS       00000346            838
_S_measure__measure_capacitance_0358  ADDRESS       00000358            856
_S_measure__measure_capacitance_036E  ADDRESS       0000036E            878
_S_measure__measure_capacitance_038A  ADDRESS       0000038A            906
_S_measure__measure_capacitance_03A6  ADDRESS       000003A6            934
_S_measure__measure_capacitance_03C2  ADDRESS       000003C2            962
_S_measure__measure_capacitance_03E6  ADDRESS       000003E6            998
_S_measure__measure_capacitance_040A  ADDRESS       0000040A           1034
_S_measure__measure_capacitance_0432  ADDRESS       00000432           1074
_S_measure__measure_capacitance_0447  ADDRESS       00000447           1095
_S_measure__measure_capacitance_0453  ADDRESS       00000453           1107
_S_measure__measure_capacitance_045B  ADDRESS       0000045B           1115
_S_measure__measure_freq_000C     ADDRESS       0000000C             12
_S_measure__measure_freq_0017     ADDRESS       00000017             23
_S_measure__measure_freq_001F     ADDRESS       0000001F             31
_S_measure__measure_freq_0027     ADDRESS       00000027             39
_S_measure__measure_freq_002F     ADDRESS       0000002F             47
_S_measure__measure_freq_0037     ADDRESS       00000037             55
_S_measure__measure_freq_003F     ADDRESS       0000003F             63
_S_measure__measure_freq_0047     ADDRESS       00000047             71
_S_measure__measure_freq_004F     ADDRESS       0000004F             79
_S_measure__measure_freq_0057     ADDRESS       00000057             87
_S_measure__measure_freq_005F     ADDRESS       0000005F             95
_S_measure__measure_freq_0067     ADDRESS       00000067            103
_S_measure__measure_freq_0074     ADDRESS       00000074            116
gpasm-1.5.0 #1285 (Jul 12 2020) obj/sdcc-16f8   11/12/23  13:12:37          PAGE 60


SYMBOL TABLE
  LABEL                              TYPE        VALUE         VALUE          VALUE
                                                 (hex)         (dec)          (text)

_S_measure__measure_freq_0079     ADDRESS       00000079            121
_S_measure__measure_freq_008B     ADDRESS       0000008B            139
_S_measure__measure_freq_009D     ADDRESS       0000009D            157
_S_measure__measure_freq_00A2     ADDRESS       000000A2            162
_S_measure__measure_inductance_0006  ADDRESS       00000006              6
_S_measure__measure_inductance_0018  ADDRESS       00000018             24
_S_measure__measure_inductance_001D  ADDRESS       0000001D             29
_S_measure__measure_inductance_0029  ADDRESS       00000029             41
_S_measure__measure_inductance_0048  ADDRESS       00000048             72
_S_measure__measure_inductance_007C  ADDRESS       0000007C            124
_S_measure__measure_inductance_009B  ADDRESS       0000009B            155
_S_measure__measure_inductance_00B7  ADDRESS       000000B7            183
_S_measure__measure_inductance_00D4  ADDRESS       000000D4            212
_S_measure__measure_inductance_00F0  ADDRESS       000000F0            240
_S_measure__measure_inductance_010F  ADDRESS       0000010F            271
_S_measure__measure_inductance_0130  ADDRESS       00000130            304
_S_measure__measure_inductance_0151  ADDRESS       00000151            337
_S_measure__measure_inductance_0172  ADDRESS       00000172            370
_S_measure__measure_inductance_0193  ADDRESS       00000193            403
_S_measure__measure_inductance_01B4  ADDRESS       000001B4            436
_S_measure__measure_inductance_01D5  ADDRESS       000001D5            469
_S_measure__measure_inductance_01F1  ADDRESS       000001F1            497
_S_measure__measure_inductance_020D  ADDRESS       0000020D            525
_S_measure__measure_inductance_0229  ADDRESS       00000229            553
_S_measure__measure_inductance_0243  ADDRESS       00000243            579
_S_measure__measure_inductance_025D  ADDRESS       0000025D            605
_S_measure__measure_inductance_0277  ADDRESS       00000277            631
_S_measure__measure_inductance_0298  ADDRESS       00000298            664
_S_measure__measure_inductance_02BA  ADDRESS       000002BA            698
_S_measure__measure_inductance_02E0  ADDRESS       000002E0            736
_S_measure__measure_inductance_02F4  ADDRESS       000002F4            756
_S_measure__measure_inductance_0300  ADDRESS       00000300            768
_S_measure__measure_inductance_0308  ADDRESS       00000308            776
_TMR0                             EXTERNAL      00000000              0
_TRISA                            EXTERNAL      00000000              0
_WDTE_OFF                         CONSTANT      00003FFB          16379
_WDTE_ON                          CONSTANT      00003FFF          16383
_WDT_OFF                          CONSTANT      00003FFB          16379
_WDT_ON                           CONSTANT      00003FFF          16383
_WRT_HALF                         CONSTANT      000039FF          14847
_WRT_OFF                          CONSTANT      00003FFF          16383
_WRT_1FOURTH                      CONSTANT      00003BFF          15359
_WRT_256                          CONSTANT      00003DFF          15871
_XT_OSC                           CONSTANT      00003FFD          16381
__ACTIVE_BANK_ADDR                VARIABLE      FFFFFFFF             -1
__ACTIVE_PAGE_ADDR                VARIABLE      FFFFFFFF             -1
__ASSUMED_BANK_ADDR               VARIABLE      FFFFFFFF             -1
__BANK_0                          CONSTANT      00000000              0
__BANK_BITS                       CONSTANT      00000180            384
__BANK_FIRST                      CONSTANT      00000000              0
__BANK_INV                        CONSTANT      FFFFFFFF             -1
__BANK_LAST                       CONSTANT      00000180            384
gpasm-1.5.0 #1285 (Jul 12 2020) obj/sdcc-16f8   11/12/23  13:12:37          PAGE 61


SYMBOL TABLE
  LABEL                              TYPE        VALUE         VALUE          VALUE
                                                 (hex)         (dec)          (text)

__BANK_MASK                       CONSTANT      0000007F            127
__BANK_SHIFT                      CONSTANT      00000007              7
__BANK_SIZE                       CONSTANT      00000080            128
__BANK_1                          CONSTANT      00000080            128
__BANK_2                          CONSTANT      00000100            256
__BANK_3                          CONSTANT      00000180            384
__CODE_END                        CONSTANT      00001FFF           8191
__CODE_START                      CONSTANT      00000000              0
__COMMON_RAM_END                  CONSTANT      0000007F            127
__COMMON_RAM_START                CONSTANT      00000070            112
__CONFIG_END                      CONSTANT      00002007           8199
__CONFIG_START                    CONSTANT      00002007           8199
__EEPROM_END                      CONSTANT      000021FF           8703
__EEPROM_START                    CONSTANT      00002100           8448
__GPUTILS_SVN_VERSION             CONSTANT      00000505           1285
__GPUTILS_VERSION_MAJOR           CONSTANT      00000001              1
__GPUTILS_VERSION_MICRO           CONSTANT      00000000              0
__GPUTILS_VERSION_MINOR           CONSTANT      00000005              5
__IDLOCS_END                      CONSTANT      00002003           8195
__IDLOCS_START                    CONSTANT      00002000           8192
__NUM_BANKS                       CONSTANT      00000004              4
__NUM_PAGES                       CONSTANT      00000004              4
__PAGE_0                          CONSTANT      00000000              0
__PAGE_BITS                       CONSTANT      00001800           6144
__PAGE_FIRST                      CONSTANT      00000000              0
__PAGE_INV                        CONSTANT      FFFFFFFF             -1
__PAGE_LAST                       CONSTANT      00001800           6144
__PAGE_MASK                       CONSTANT      000007FF           2047
__PAGE_SHIFT                      CONSTANT      0000000B             11
__PAGE_SIZE                       CONSTANT      00000800           2048
__PAGE_1                          CONSTANT      00000800           2048
__PAGE_2                          CONSTANT      00001000           4096
__PAGE_3                          CONSTANT      00001800           6144
__VECTOR_INT                      CONSTANT      00000004              4
__VECTOR_RESET                    CONSTANT      00000000              0
__WHILE_LOOP_COUNT_MAX            CONSTANT      000000FF            255
___fsdiv                          EXTERNAL      00000000              0
___fslt                           EXTERNAL      00000000              0
___fsmul                          EXTERNAL      00000000              0
___fssub                          EXTERNAL      00000000              0
___fs2uint                        EXTERNAL      00000000              0
___str_0                          ADDRESS       00000000              0
___str_1                          ADDRESS       00000000              0
___str_2                          ADDRESS       00000000              0
___str_3                          ADDRESS       00000000              0
___str_4                          ADDRESS       00000000              0
___str_5                          ADDRESS       00000000              0
___str_6                          ADDRESS       00000000              0
___str_7                          ADDRESS       00000000              0
___str_8                          ADDRESS       00000000              0
___str_9                          ADDRESS       00000000              0
___str_10                         ADDRESS       00000000              0
gpasm-1.5.0 #1285 (Jul 12 2020) obj/sdcc-16f8   11/12/23  13:12:37          PAGE 62


SYMBOL TABLE
  LABEL                              TYPE        VALUE         VALUE          VALUE
                                                 (hex)         (dec)          (text)

___str_11                         ADDRESS       00000000              0
___uint2fs                        EXTERNAL      00000000              0
__14_BIT                          CONSTANT      00000001              1
__16F876A                         CONSTANT      00000001              1
_buf_to_ser                       GLOBAL        00000000              0
_buffer                           EXTERNAL      00000000              0
_buffer_init                      EXTERNAL      00000000              0
_buffer_putch                     EXTERNAL      00000000              0
_buffer_puts                      EXTERNAL      00000000              0
_calibrate                        GLOBAL        00000000              0
_delay_ms                         EXTERNAL      00000000              0
_delay10ms                        EXTERNAL      00000000              0
_format_float                     EXTERNAL      00000000              0
_format_number                    EXTERNAL      00000000              0
_format_xint32                    EXTERNAL      00000000              0
_lcd_clear                        EXTERNAL      00000000              0
_lcd_gotoxy                       EXTERNAL      00000000              0
_lcd_putch                        EXTERNAL      00000000              0
_measure_capacitance              GLOBAL        00000000              0
_measure_capacitance_Cin_65536_66  STATIC        0000001E             30
_measure_freq                     GLOBAL        00000000              0
_measure_inductance               GLOBAL        00000000              0
_print_buffer                     EXTERNAL      00000000              0
_print_reading                    EXTERNAL      00000000              0
_print_unit                       EXTERNAL      00000000              0
_put_str                          EXTERNAL      00000000              0
_ser_put                          EXTERNAL      00000000              0
_ser_putch                        EXTERNAL      00000000              0
_ser_puts                         EXTERNAL      00000000              0
_timer0_read_ps                   EXTERNAL      00000000              0
r0x102A                           STATIC        00000017             23
r0x102B                           STATIC        00000016             22
r0x102C                           STATIC        00000018             24
r0x102D                           STATIC        00000019             25
r0x102E                           STATIC        0000001D             29
r0x102F                           STATIC        0000001C             28
r0x103A                           STATIC        00000015             21
r0x103B                           STATIC        00000014             20
r0x103C                           STATIC        00000013             19
r0x103E                           STATIC        00000009              9
r0x103F                           STATIC        00000008              8
r0x1025                           STATIC        00000004              4
r0x1026                           STATIC        00000003              3
r0x1027                           STATIC        00000006              6
r0x1028                           STATIC        00000005              5
r0x1029                           STATIC        00000007              7
r0x1030                           STATIC        0000001B             27
r0x1031                           STATIC        0000001A             26
r0x1032                           STATIC        0000000C             12
r0x1033                           STATIC        0000000B             11
r0x1034                           STATIC        0000000D             13
r0x1035                           STATIC        0000000E             14
gpasm-1.5.0 #1285 (Jul 12 2020) obj/sdcc-16f8   11/12/23  13:12:37          PAGE 63


SYMBOL TABLE
  LABEL                              TYPE        VALUE         VALUE          VALUE
                                                 (hex)         (dec)          (text)

r0x1036                           STATIC        0000000F             15
r0x1037                           STATIC        00000010             16
r0x1038                           STATIC        00000012             18
r0x1039                           STATIC        00000011             17
r0x1041                           STATIC        0000000A             10
r0x1044                           STATIC        00000001              1
r0x1045                           STATIC        00000000              0
r0x1046                           STATIC        00000002              2

Errors   :     0
Warnings :     0 reported,     0 suppressed
Messages :     0 reported,     0 suppressed

