gpasm-1.5.0 #1285 (Jul 12 2020) obj/sdcc-16f8   11/12/23  13:12:37          PAGE  1


LOC    OBJECT CODE    LINE  SOURCE TEXT
  VALUE

                      00001 ;--------------------------------------------------------
                      00002 ; File Created by SDCC : free open source ANSI-C Compiler
                      00003 ; Version 4.2.0 #13081 (Linux)
                      00004 ;--------------------------------------------------------
                      00005 ; PIC port for the 14-bit core
                      00006 ;--------------------------------------------------------
                      00007 ;       .file   "lib/timer.c"
                      00008         list    p=16f876a
                      00009         radix dec
                      00010         include "p16f876a.inc"
                      00001         LIST
                      00002 
                      00003 ;==========================================================================
                      00004 ; Build date : Oct 21 2015
                      00005 ;  MPASM PIC16F876A processor include
                      00006 ; 
                      00007 ;  (c) Copyright 1999-2015 Microchip Technology, All rights reserved
                      00008 ;==========================================================================
                      00009 
                      00525         LIST
                      00011 ;--------------------------------------------------------
                      00012 ; config word(s)
                      00013 ;--------------------------------------------------------
2007   0000           00014         __config 0x3f32
                      00015 ;--------------------------------------------------------
                      00016 ; external declarations
                      00017 ;--------------------------------------------------------
  0000                00018         extern  _PIE1
  0000                00019         extern  _OPTION_REG
  0000                00020         extern  _T2CON
  0000                00021         extern  _TMR2
  0000                00022         extern  _PIR1
  0000                00023         extern  _TMR0
  0000                00024         extern  _OPTION_REGbits
  0000                00025         extern  _INTCONbits
                      00026 
  0000                00027         extern PSAVE
  0000                00028         extern SSAVE
  0000                00029         extern WSAVE
  0000                00030         extern STK12
  0000                00031         extern STK11
  0000                00032         extern STK10
  0000                00033         extern STK09
  0000                00034         extern STK08
  0000                00035         extern STK07
  0000                00036         extern STK06
  0000                00037         extern STK05
  0000                00038         extern STK04
  0000                00039         extern STK03
  0000                00040         extern STK02
  0000                00041         extern STK01
  0000                00042         extern STK00
                      00043 ;--------------------------------------------------------
gpasm-1.5.0 #1285 (Jul 12 2020) obj/sdcc-16f8   11/12/23  13:12:37          PAGE  2


LOC    OBJECT CODE    LINE  SOURCE TEXT
  VALUE

                      00044 ; global declarations
                      00045 ;--------------------------------------------------------
  0000                00046         global  _timer0_init
  0000                00047         global  _timer0_read_ps
  0000                00048         global  _timer2_init
                      00049 
                      00050 ;--------------------------------------------------------
                      00051 ; global definitions
                      00052 ;--------------------------------------------------------
                      00053 ;--------------------------------------------------------
                      00054 ; absolute symbol definitions
                      00055 ;--------------------------------------------------------
                      00056 ;--------------------------------------------------------
                      00057 ; compiler-defined variables
                      00058 ;--------------------------------------------------------
                      00059 UDL_timer_0     udata
0000                  00060 r0x100A res     1
0001                  00061 r0x100B res     1
0002                  00062 r0x100C res     1
0003                  00063 r0x100D res     1
0004                  00064 r0x100E res     1
0005                  00065 r0x100F res     1
0006                  00066 r0x1004 res     1
0007                  00067 r0x1005 res     1
0008                  00068 r0x1006 res     1
0009                  00069 r0x1007 res     1
000A                  00070 r0x1008 res     1
000B                  00071 r0x1009 res     1
000C                  00072 r0x1000 res     1
000D                  00073 r0x1001 res     1
000E                  00074 r0x1002 res     1
000F                  00075 r0x1003 res     1
                      00076 ;--------------------------------------------------------
                      00077 ; initialized data
                      00078 ;--------------------------------------------------------
                      00079 ;--------------------------------------------------------
                      00080 ; initialized absolute data
                      00081 ;--------------------------------------------------------
                      00082 ;--------------------------------------------------------
                      00083 ; overlayable items in internal ram 
                      00084 ;--------------------------------------------------------
                      00085 ;       udata_ovr
                      00086 ;--------------------------------------------------------
                      00087 ; code
                      00088 ;--------------------------------------------------------
                      00089 code_timer      code
                      00090 ;***
                      00091 ;  pBlock Stats: dbName = C
                      00092 ;***
                      00093 ;has an exit
                      00094 ;4 compiler assigned registers:
                      00095 ;   r0x1000
                      00096 ;   r0x1001
gpasm-1.5.0 #1285 (Jul 12 2020) obj/sdcc-16f8   11/12/23  13:12:37          PAGE  3


LOC    OBJECT CODE    LINE  SOURCE TEXT
  VALUE

                      00097 ;   r0x1002
                      00098 ;   r0x1003
                      00099 ;; Starting pCode block
                      00100 S_timer__timer2_init    code
0000                  00101 _timer2_init:
                      00102 ; 2 exit points
                      00103 ;       .line   176; "lib/timer.c"      timer2_init(uint8_t ps_mode) {
0000   0??? 0???      00104         BANKSEL r0x1000
0002   00??           00105         MOVWF   r0x1000
                      00106 ;       .line   177; "lib/timer.c"      uint8_t ps = ps_mode & PRESCALE_MASK;
0003   300F           00107         MOVLW   0x0f
0004   05??           00108         ANDWF   r0x1000,W
0005   00??           00109         MOVWF   r0x1001
                      00110 ;       .line   181; "lib/timer.c"      T2CON &= ~0b01111111;
0006   3080           00111         MOVLW   0x80
0007   0??? 0???      00112         BANKSEL _T2CON
0009   05??           00113         ANDWF   _T2CON,F
                      00114 ;       .line   183; "lib/timer.c"      T2CON |= (postscaler & 0b1111) << 3;
000A   0??? 0???      00115         BANKSEL r0x1002
000C   01??           00116         CLRF    r0x1002
000D   300F           00117         MOVLW   0x0f
000E   05??           00118         ANDWF   r0x1002,F
000F   1003           00119         BCF     STATUS,0
0010   0D??           00120         RLF     r0x1002,W
0011   00??           00121         MOVWF   r0x1003
0012   1003           00122         BCF     STATUS,0
0013   0D??           00123         RLF     r0x1003,F
0014   1003           00124         BCF     STATUS,0
0015   0D??           00125         RLF     r0x1003,F
0016   08??           00126         MOVF    r0x1003,W
0017   0??? 0???      00127         BANKSEL _T2CON
0019   04??           00128         IORWF   _T2CON,F
                      00129 ;       .line   184; "lib/timer.c"      T2CON |= (ps & 0b11); // Set timer 2 prescaler to 1:1.
001A   3003           00130         MOVLW   0x03
001B   0??? 0???      00131         BANKSEL r0x1001
001D   05??           00132         ANDWF   r0x1001,F
001E   08??           00133         MOVF    r0x1001,W
001F   0??? 0???      00134         BANKSEL _T2CON
0021   04??           00135         IORWF   _T2CON,F
                      00136 ;       .line   186; "lib/timer.c"      TIMER2_VALUE = 0;
0022   01??           00137         CLRF    _TMR2
                      00138 ;       .line   188; "lib/timer.c"      T2CON |= 0b100; // TMR2ON = 1; // Enable timer 2.
0023   15??           00139         BSF     _T2CON,2
                      00140 ;       .line   191; "lib/timer.c"      PIR1 &= ~0b10;
0024   10??           00141         BCF     _PIR1,1
                      00142 ;       .line   192; "lib/timer.c"      PIE1 = (!!(ps_mode & TIMER2_FLAGS_INTR)) << 1;
0025   0??? 0???      00143         BANKSEL r0x1000
0027   08??           00144         MOVF    r0x1000,W
0028   3980           00145         ANDLW   0x80
0029   1D03           00146         BTFSS   STATUS,2
002A   3001           00147         MOVLW   0x01
002B   00??           00148         MOVWF   r0x1001
002C   08??           00149         MOVF    r0x1001,W
gpasm-1.5.0 #1285 (Jul 12 2020) obj/sdcc-16f8   11/12/23  13:12:37          PAGE  4


LOC    OBJECT CODE    LINE  SOURCE TEXT
  VALUE

002D   3000           00150         MOVLW   0x00
002E   1903           00151         BTFSC   STATUS,2
002F   3001           00152         MOVLW   0x01
0030   00??           00153         MOVWF   r0x1000
0031   08??           00154         MOVF    r0x1000,W
0032   3000           00155         MOVLW   0x00
0033   1903           00156         BTFSC   STATUS,2
0034   3001           00157         MOVLW   0x01
0035   00??           00158         MOVWF   r0x1001
0036   00??           00159         MOVWF   r0x1000
0037   1003           00160         BCF     STATUS,0
0038   0D??           00161         RLF     r0x1000,W
0039   0??? 0???      00162         BANKSEL _PIE1
003B   00??           00163         MOVWF   _PIE1
                      00164 ;       .line   193; "lib/timer.c"      }
003C   0008           00165         RETURN  
                      00166 ; exit point of _timer2_init
                      00167 
                      00168 ;***
                      00169 ;  pBlock Stats: dbName = C
                      00170 ;***
                      00171 ;has an exit
                      00172 ;7 compiler assigned registers:
                      00173 ;   r0x1004
                      00174 ;   r0x1005
                      00175 ;   r0x1006
                      00176 ;   r0x1007
                      00177 ;   r0x1008
                      00178 ;   r0x1009
                      00179 ;   STK00
                      00180 ;; Starting pCode block
                      00181 S_timer__timer0_read_ps code
0000                  00182 _timer0_read_ps:
                      00183 ; 2 exit points
                      00184 ;       .line   110; "lib/timer.c"      uint8_t prev = TMR0;
0000   0??? 0???      00185         BANKSEL _TMR0
0002   08??           00186         MOVF    _TMR0,W
0003   0??? 0???      00187         BANKSEL r0x1004
0005   00??           00188         MOVWF   r0x1004
                      00189 ;       .line   114; "lib/timer.c"      /*T0CON |= 0x20; */ T0CS = 1;
0006   0??? 0???      00190         BANKSEL _OPTION_REGbits
0008   16??           00191         BSF     _OPTION_REGbits,5
                      00192 ;       .line   116; "lib/timer.c"      do {
0009   0??? 0???      00193         BANKSEL r0x1005
000B   01??           00194         CLRF    r0x1005
000C   01??           00195         CLRF    r0x1006
000D                  00196 _00122_DS_:
                      00197 ;       .line   118; "lib/timer.c"      T0SE = 1;
000D   0??? 0???      00198         BANKSEL _OPTION_REGbits
000F   16??           00199         BSF     _OPTION_REGbits,4
0010   0000           00200         nop     
0011   0000           00201         nop     
                      00202 ;       .line   123; "lib/timer.c"      T0SE = 0;
gpasm-1.5.0 #1285 (Jul 12 2020) obj/sdcc-16f8   11/12/23  13:12:37          PAGE  5


LOC    OBJECT CODE    LINE  SOURCE TEXT
  VALUE

0012   0??? 0???      00203         BANKSEL _OPTION_REGbits
0014   12??           00204         BCF     _OPTION_REGbits,4
0015   0000           00205         nop     
0016   0000           00206         nop     
                      00207 ;       .line   128; "lib/timer.c"      ++count;
0017   0??? 0???      00208         BANKSEL r0x1005
0019   0A??           00209         INCF    r0x1005,F
001A   1903           00210         BTFSC   STATUS,2
001B   0A??           00211         INCF    r0x1006,F
                      00212 ;       .line   131; "lib/timer.c"      } while(prev == TMR0 && count <= 255);
001C   0??? 0???      00213         BANKSEL _TMR0
001E   08??           00214         MOVF    _TMR0,W
001F   0??? 0???      00215         BANKSEL r0x1004
0021   06??           00216         XORWF   r0x1004,W
0022   1D03           00217         BTFSS   STATUS,2
0023   2???           00218         GOTO    _00124_DS_
0024   08??           00219         MOVF    r0x1005,W
0025   00??           00220         MOVWF   r0x1007
0026   08??           00221         MOVF    r0x1006,W
0027   00??           00222         MOVWF   r0x1008
                      00223 ;;swapping arguments (AOP_TYPEs 1/2)
                      00224 ;;unsigned compare: left >= lit(0x100=256), size=2
0028   3001           00225         MOVLW   0x01
0029   02??           00226         SUBWF   r0x1008,W
002A   1D03           00227         BTFSS   STATUS,2
002B   2???           00228         GOTO    _00136_DS_
002C   3000           00229         MOVLW   0x00
002D   02??           00230         SUBWF   r0x1007,W
002E                  00231 _00136_DS_:
002E   1C03           00232         BTFSS   STATUS,0
002F   2???           00233         GOTO    _00122_DS_
                      00234 ;;genSkipc:3307: created from rifx:0x7ffe4cfd5230
0030                  00235 _00124_DS_:
                      00236 ;       .line   133; "lib/timer.c"      count = ((prev << 8) + (256 - count));
0030   0??? 0???      00237         BANKSEL r0x1004
0032   08??           00238         MOVF    r0x1004,W
0033   00??           00239         MOVWF   r0x1009
0034   00??           00240         MOVWF   r0x1007
0035   01??           00241         CLRF    r0x1008
                      00242 ;;99    MOVF    r0x1007,W
0036   01??           00243         CLRF    r0x1004
0037   08??           00244         MOVF    r0x1005,W
0038   3C00           00245         SUBLW   0x00
0039   00??           00246         MOVWF   r0x1005
003A   08??           00247         MOVF    r0x1006,W
003B   1C03           00248         BTFSS   STATUS,0
003C   0A??           00249         INCF    r0x1006,W
003D   3C01           00250         SUBLW   0x01
003E   00??           00251         MOVWF   r0x1006
003F   08??           00252         MOVF    r0x1004,W
0040   00??           00253         MOVWF   r0x1007
0041   08??           00254         MOVF    r0x1009,W
0042   00??           00255         MOVWF   r0x1008
gpasm-1.5.0 #1285 (Jul 12 2020) obj/sdcc-16f8   11/12/23  13:12:37          PAGE  6


LOC    OBJECT CODE    LINE  SOURCE TEXT
  VALUE

0043   08??           00256         MOVF    r0x1005,W
0044   07??           00257         ADDWF   r0x1007,W
0045   00??           00258         MOVWF   r0x1004
                      00259 ;;100   MOVF    r0x1008,W
0046   08??           00260         MOVF    r0x1006,W
0047   1803           00261         BTFSC   STATUS,0
0048   0F??           00262         INCFSZ  r0x1006,W
0049   07??           00263         ADDWF   r0x1009,F
                      00264 ;       .line   134; "lib/timer.c"      return count;
004A   08??           00265         MOVF    r0x1004,W
004B   00??           00266         MOVWF   STK00
004C   08??           00267         MOVF    r0x1009,W
                      00268 ;       .line   135; "lib/timer.c"      }
004D   0008           00269         RETURN  
                      00270 ; exit point of _timer0_read_ps
                      00271 
                      00272 ;***
                      00273 ;  pBlock Stats: dbName = C
                      00274 ;***
                      00275 ;has an exit
                      00276 ;6 compiler assigned registers:
                      00277 ;   r0x100A
                      00278 ;   r0x100B
                      00279 ;   r0x100C
                      00280 ;   r0x100D
                      00281 ;   r0x100E
                      00282 ;   r0x100F
                      00283 ;; Starting pCode block
                      00284 S_timer__timer0_init    code
0000                  00285 _timer0_init:
                      00286 ; 2 exit points
                      00287 ;       .line   26; "lib/timer.c"       timer0_init(uint8_t ps_mode) {
0000   0??? 0???      00288         BANKSEL r0x100A
0002   00??           00289         MOVWF   r0x100A
                      00290 ;       .line   27; "lib/timer.c"       uint8_t prescaler = ps_mode & PRESCALE_MASK;
0003   300F           00291         MOVLW   0x0f
0004   05??           00292         ANDWF   r0x100A,W
0005   00??           00293         MOVWF   r0x100B
                      00294 ;       .line   30; "lib/timer.c"       TIMER0_VALUE = 0;
0006   0??? 0???      00295         BANKSEL _TMR0
0008   01??           00296         CLRF    _TMR0
                      00297 ;       .line   40; "lib/timer.c"       OPTION_REG &= 0b11000000;
0009   30C0           00298         MOVLW   0xc0
000A   0??? 0???      00299         BANKSEL _OPTION_REG
000C   05??           00300         ANDWF   _OPTION_REG,F
                      00301 ;       .line   59; "lib/timer.c"       T0CS = (ps_mode & TIMER0_FLAGS_EXTCLK) ? 1 : 0;
000D   0??? 0???      00302         BANKSEL r0x100A
000F   1E??           00303         BTFSS   r0x100A,5
0010   2???           00304         GOTO    _00109_DS_
0011   3001           00305         MOVLW   0x01
0012   00??           00306         MOVWF   r0x100C
0013   01??           00307         CLRF    r0x100D
0014   2???           00308         GOTO    _00110_DS_
gpasm-1.5.0 #1285 (Jul 12 2020) obj/sdcc-16f8   11/12/23  13:12:37          PAGE  7


LOC    OBJECT CODE    LINE  SOURCE TEXT
  VALUE

0015                  00309 _00109_DS_:
0015   0??? 0???      00310         BANKSEL r0x100C
0017   01??           00311         CLRF    r0x100C
0018   01??           00312         CLRF    r0x100D
0019                  00313 _00110_DS_:
0019   0??? 0???      00314         BANKSEL r0x100C
001B   08??           00315         MOVF    r0x100C,W
001C   00??           00316         MOVWF   r0x100E
001D   0C??           00317         RRF     r0x100E,W
001E   1803           00318         BTFSC   STATUS,0
001F   2???           00319         GOTO    _00001_DS_
0020   0??? 0???      00320         BANKSEL _OPTION_REGbits
0022   12??           00321         BCF     _OPTION_REGbits,5
0023                  00322 _00001_DS_:
0023   1C03           00323         BTFSS   STATUS,0
0024   2???           00324         GOTO    _00002_DS_
0025   0??? 0???      00325         BANKSEL _OPTION_REGbits
0027   16??           00326         BSF     _OPTION_REGbits,5
0028                  00327 _00002_DS_:
                      00328 ;       .line   60; "lib/timer.c"       T0SE = (ps_mode & EDGE_HIGH_LOW) ? 1 : 0;
0028   0??? 0???      00329         BANKSEL r0x100A
002A   1E??           00330         BTFSS   r0x100A,4
002B   2???           00331         GOTO    _00111_DS_
002C   3001           00332         MOVLW   0x01
002D   00??           00333         MOVWF   r0x100C
002E   01??           00334         CLRF    r0x100D
002F   2???           00335         GOTO    _00112_DS_
0030                  00336 _00111_DS_:
0030   0??? 0???      00337         BANKSEL r0x100C
0032   01??           00338         CLRF    r0x100C
0033   01??           00339         CLRF    r0x100D
0034                  00340 _00112_DS_:
0034   0??? 0???      00341         BANKSEL r0x100C
0036   08??           00342         MOVF    r0x100C,W
0037   00??           00343         MOVWF   r0x100E
0038   0C??           00344         RRF     r0x100E,W
0039   1803           00345         BTFSC   STATUS,0
003A   2???           00346         GOTO    _00003_DS_
003B   0??? 0???      00347         BANKSEL _OPTION_REGbits
003D   12??           00348         BCF     _OPTION_REGbits,4
003E                  00349 _00003_DS_:
003E   1C03           00350         BTFSS   STATUS,0
003F   2???           00351         GOTO    _00004_DS_
0040   0??? 0???      00352         BANKSEL _OPTION_REGbits
0042   16??           00353         BSF     _OPTION_REGbits,4
0043                  00354 _00004_DS_:
                      00355 ;       .line   62; "lib/timer.c"       if(prescaler > 0) {
0043   0??? 0???      00356         BANKSEL r0x100B
0045   08??           00357         MOVF    r0x100B,W
0046   1903           00358         BTFSC   STATUS,2
0047   2???           00359         GOTO    _00106_DS_
                      00360 ;       .line   63; "lib/timer.c"       /*OPTION_REGbits.*/ PSA = prescaler > 0;
0048   08??           00361         MOVF    r0x100B,W
gpasm-1.5.0 #1285 (Jul 12 2020) obj/sdcc-16f8   11/12/23  13:12:37          PAGE  8


LOC    OBJECT CODE    LINE  SOURCE TEXT
  VALUE

0049   1903           00362         BTFSC   STATUS,2
004A   2???           00363         GOTO    _00113_DS_
004B   3001           00364         MOVLW   0x01
004C   00??           00365         MOVWF   r0x100C
004D   01??           00366         CLRF    r0x100D
004E   2???           00367         GOTO    _00114_DS_
004F                  00368 _00113_DS_:
004F   0??? 0???      00369         BANKSEL r0x100C
0051   01??           00370         CLRF    r0x100C
0052   01??           00371         CLRF    r0x100D
0053                  00372 _00114_DS_:
0053   0??? 0???      00373         BANKSEL r0x100C
0055   08??           00374         MOVF    r0x100C,W
0056   00??           00375         MOVWF   r0x100E
0057   0C??           00376         RRF     r0x100E,W
0058   1803           00377         BTFSC   STATUS,0
0059   2???           00378         GOTO    _00005_DS_
005A   0??? 0???      00379         BANKSEL _OPTION_REGbits
005C   11??           00380         BCF     _OPTION_REGbits,3
005D                  00381 _00005_DS_:
005D   1C03           00382         BTFSS   STATUS,0
005E   2???           00383         GOTO    _00006_DS_
005F   0??? 0???      00384         BANKSEL _OPTION_REGbits
0061   15??           00385         BSF     _OPTION_REGbits,3
0062                  00386 _00006_DS_:
                      00387 ;       .line   64; "lib/timer.c"       /*OPTION_REGbits.*/ OPTION_REGbits.PS = prescaler - 1;
0062   0??? 0???      00388         BANKSEL r0x100B
0064   03??           00389         DECF    r0x100B,F
0065   08??           00390         MOVF    r0x100B,W
0066   3907           00391         ANDLW   0x07
0067   00??           00392         MOVWF   r0x100F
0068   0??? 0???      00393         BANKSEL _OPTION_REGbits
006A   08??           00394         MOVF    (_OPTION_REGbits + 0),W
006B   39F8           00395         ANDLW   0xf8
006C   0??? 0???      00396         BANKSEL r0x100F
006E   04??           00397         IORWF   r0x100F,W
006F   0??? 0???      00398         BANKSEL _OPTION_REGbits
0071   00??           00399         MOVWF   (_OPTION_REGbits + 0)
0072                  00400 _00106_DS_:
                      00401 ;       .line   99; "lib/timer.c"       T0IE = (ps_mode & TIMER0_FLAGS_INTR) ? 1 : 0;
0072   0??? 0???      00402         BANKSEL r0x100A
0074   1F??           00403         BTFSS   r0x100A,7
0075   2???           00404         GOTO    _00115_DS_
0076   3001           00405         MOVLW   0x01
0077   00??           00406         MOVWF   r0x100A
0078   01??           00407         CLRF    r0x100B
0079   2???           00408         GOTO    _00116_DS_
007A                  00409 _00115_DS_:
007A   0??? 0???      00410         BANKSEL r0x100A
007C   01??           00411         CLRF    r0x100A
007D   01??           00412         CLRF    r0x100B
007E                  00413 _00116_DS_:
007E   0??? 0???      00414         BANKSEL r0x100A
gpasm-1.5.0 #1285 (Jul 12 2020) obj/sdcc-16f8   11/12/23  13:12:37          PAGE  9


LOC    OBJECT CODE    LINE  SOURCE TEXT
  VALUE

0080   08??           00415         MOVF    r0x100A,W
0081   00??           00416         MOVWF   r0x100C
0082   0C??           00417         RRF     r0x100C,W
0083   1803           00418         BTFSC   STATUS,0
0084   2???           00419         GOTO    _00007_DS_
0085   0??? 0???      00420         BANKSEL _INTCONbits
0087   12??           00421         BCF     _INTCONbits,5
0088                  00422 _00007_DS_:
0088   1C03           00423         BTFSS   STATUS,0
0089   2???           00424         GOTO    _00008_DS_
008A   0??? 0???      00425         BANKSEL _INTCONbits
008C   16??           00426         BSF     _INTCONbits,5
008D                  00427 _00008_DS_:
                      00428 ;       .line   101; "lib/timer.c"      }
008D   0008           00429         RETURN  
                      00430 ; exit point of _timer0_init
                      00431 
                      00432 
                      00433 ;       code size estimation:
                      00434 ;         187+   45 =   232 instructions (  554 byte)
                      00435 
                      00436         end
gpasm-1.5.0 #1285 (Jul 12 2020) obj/sdcc-16f8   11/12/23  13:12:37          PAGE 10


SYMBOL TABLE
  LABEL                              TYPE        VALUE         VALUE          VALUE
                                                 (hex)         (dec)          (text)

ACKDT                             CONSTANT      00000005              5
ACKEN                             CONSTANT      00000004              4
ACKSTAT                           CONSTANT      00000006              6
ADCON0                            CONSTANT      0000001F             31
ADCON1                            CONSTANT      0000009F            159
ADCS0                             CONSTANT      00000006              6
ADCS1                             CONSTANT      00000007              7
ADCS2                             CONSTANT      00000006              6
ADDEN                             CONSTANT      00000003              3
ADFM                              CONSTANT      00000007              7
ADIE                              CONSTANT      00000006              6
ADIF                              CONSTANT      00000006              6
ADON                              CONSTANT      00000000              0
ADRESH                            CONSTANT      0000001E             30
ADRESL                            CONSTANT      0000009E            158
BCLIE                             CONSTANT      00000003              3
BCLIF                             CONSTANT      00000003              3
BF                                CONSTANT      00000000              0
BRGH                              CONSTANT      00000002              2
C                                 CONSTANT      00000000              0
CCPR1                             CONSTANT      00000015             21
CCPR1H                            CONSTANT      00000016             22
CCPR1L                            CONSTANT      00000015             21
CCPR2                             CONSTANT      0000001B             27
CCPR2H                            CONSTANT      0000001C             28
CCPR2L                            CONSTANT      0000001B             27
CCP1CON                           CONSTANT      00000017             23
CCP1IE                            CONSTANT      00000002              2
CCP1IF                            CONSTANT      00000002              2
CCP1M0                            CONSTANT      00000000              0
CCP1M1                            CONSTANT      00000001              1
CCP1M2                            CONSTANT      00000002              2
CCP1M3                            CONSTANT      00000003              3
CCP1X                             CONSTANT      00000005              5
CCP1Y                             CONSTANT      00000004              4
CCP2CON                           CONSTANT      0000001D             29
CCP2IE                            CONSTANT      00000000              0
CCP2IF                            CONSTANT      00000000              0
CCP2M0                            CONSTANT      00000000              0
CCP2M1                            CONSTANT      00000001              1
CCP2M2                            CONSTANT      00000002              2
CCP2M3                            CONSTANT      00000003              3
CCP2X                             CONSTANT      00000005              5
CCP2Y                             CONSTANT      00000004              4
CHS0                              CONSTANT      00000003              3
CHS1                              CONSTANT      00000004              4
CHS2                              CONSTANT      00000005              5
CIS                               CONSTANT      00000003              3
CKE                               CONSTANT      00000006              6
CKP                               CONSTANT      00000004              4
CM0                               CONSTANT      00000000              0
CMCON                             CONSTANT      0000009C            156
gpasm-1.5.0 #1285 (Jul 12 2020) obj/sdcc-16f8   11/12/23  13:12:37          PAGE 11


SYMBOL TABLE
  LABEL                              TYPE        VALUE         VALUE          VALUE
                                                 (hex)         (dec)          (text)

CMIE                              CONSTANT      00000006              6
CMIF                              CONSTANT      00000006              6
CM1                               CONSTANT      00000001              1
CM2                               CONSTANT      00000002              2
CREN                              CONSTANT      00000004              4
CSRC                              CONSTANT      00000007              7
CVR0                              CONSTANT      00000000              0
CVRCON                            CONSTANT      0000009D            157
CVREN                             CONSTANT      00000007              7
CVROE                             CONSTANT      00000006              6
CVRR                              CONSTANT      00000005              5
CVR1                              CONSTANT      00000001              1
CVR2                              CONSTANT      00000002              2
CVR3                              CONSTANT      00000003              3
C1INV                             CONSTANT      00000004              4
C1OUT                             CONSTANT      00000006              6
C2INV                             CONSTANT      00000005              5
C2OUT                             CONSTANT      00000007              7
D                                 CONSTANT      00000005              5
DATA_ADDRESS                      CONSTANT      00000005              5
DC                                CONSTANT      00000001              1
D_A                               CONSTANT      00000005              5
D_NOT_A                           CONSTANT      00000005              5
EEADR                             CONSTANT      0000010D            269
EEADRH                            CONSTANT      0000010F            271
EECON1                            CONSTANT      0000018C            396
EECON2                            CONSTANT      0000018D            397
EEDATA                            CONSTANT      0000010C            268
EEDATH                            CONSTANT      0000010E            270
EEIE                              CONSTANT      00000004              4
EEIF                              CONSTANT      00000004              4
EEPGD                             CONSTANT      00000007              7
F                                 CONSTANT      00000001              1
FERR                              CONSTANT      00000002              2
FSR                               CONSTANT      00000004              4
GCEN                              CONSTANT      00000007              7
GIE                               CONSTANT      00000007              7
GO                                CONSTANT      00000002              2
GO_DONE                           CONSTANT      00000002              2
GO_NOT_DONE                       CONSTANT      00000002              2
INDF                              CONSTANT      00000000              0
INTCON                            CONSTANT      0000000B             11
INTE                              CONSTANT      00000004              4
INTEDG                            CONSTANT      00000006              6
INTF                              CONSTANT      00000001              1
IRP                               CONSTANT      00000007              7
I2C_DATA                          CONSTANT      00000005              5
I2C_READ                          CONSTANT      00000002              2
I2C_START                         CONSTANT      00000003              3
I2C_STOP                          CONSTANT      00000004              4
NOT_A                             CONSTANT      00000005              5
NOT_ADDRESS                       CONSTANT      00000005              5
gpasm-1.5.0 #1285 (Jul 12 2020) obj/sdcc-16f8   11/12/23  13:12:37          PAGE 12


SYMBOL TABLE
  LABEL                              TYPE        VALUE         VALUE          VALUE
                                                 (hex)         (dec)          (text)

NOT_BO                            CONSTANT      00000000              0
NOT_BOR                           CONSTANT      00000000              0
NOT_DONE                          CONSTANT      00000002              2
NOT_PD                            CONSTANT      00000003              3
NOT_POR                           CONSTANT      00000001              1
NOT_RBPU                          CONSTANT      00000007              7
NOT_RC8                           CONSTANT      00000006              6
NOT_TO                            CONSTANT      00000004              4
NOT_TX8                           CONSTANT      00000006              6
NOT_T1SYNC                        CONSTANT      00000002              2
NOT_W                             CONSTANT      00000002              2
NOT_WRITE                         CONSTANT      00000002              2
OERR                              CONSTANT      00000001              1
OPTION_REG                        CONSTANT      00000081            129
P                                 CONSTANT      00000004              4
PCFG0                             CONSTANT      00000000              0
PCFG1                             CONSTANT      00000001              1
PCFG2                             CONSTANT      00000002              2
PCFG3                             CONSTANT      00000003              3
PCL                               CONSTANT      00000002              2
PCLATH                            CONSTANT      0000000A             10
PCON                              CONSTANT      0000008E            142
PEIE                              CONSTANT      00000006              6
PEN                               CONSTANT      00000002              2
PIE1                              CONSTANT      0000008C            140
PIE2                              CONSTANT      0000008D            141
PIR1                              CONSTANT      0000000C             12
PIR2                              CONSTANT      0000000D             13
PORTA                             CONSTANT      00000005              5
PORTB                             CONSTANT      00000006              6
PORTC                             CONSTANT      00000007              7
PR2                               CONSTANT      00000092            146
PS0                               CONSTANT      00000000              0
PSA                               CONSTANT      00000003              3
PSAVE                             EXTERNAL      00000000              0
PS1                               CONSTANT      00000001              1
PS2                               CONSTANT      00000002              2
R                                 CONSTANT      00000002              2
RA0                               CONSTANT      00000000              0
RA1                               CONSTANT      00000001              1
RA2                               CONSTANT      00000002              2
RA3                               CONSTANT      00000003              3
RA4                               CONSTANT      00000004              4
RA5                               CONSTANT      00000005              5
RB0                               CONSTANT      00000000              0
RBIE                              CONSTANT      00000003              3
RBIF                              CONSTANT      00000000              0
RB1                               CONSTANT      00000001              1
RB2                               CONSTANT      00000002              2
RB3                               CONSTANT      00000003              3
RB4                               CONSTANT      00000004              4
RB5                               CONSTANT      00000005              5
gpasm-1.5.0 #1285 (Jul 12 2020) obj/sdcc-16f8   11/12/23  13:12:37          PAGE 13


SYMBOL TABLE
  LABEL                              TYPE        VALUE         VALUE          VALUE
                                                 (hex)         (dec)          (text)

RB6                               CONSTANT      00000006              6
RB7                               CONSTANT      00000007              7
RC0                               CONSTANT      00000000              0
RCD8                              CONSTANT      00000000              0
RCEN                              CONSTANT      00000003              3
RCIE                              CONSTANT      00000005              5
RCIF                              CONSTANT      00000005              5
RCREG                             CONSTANT      0000001A             26
RCSTA                             CONSTANT      00000018             24
RC1                               CONSTANT      00000001              1
RC2                               CONSTANT      00000002              2
RC3                               CONSTANT      00000003              3
RC4                               CONSTANT      00000004              4
RC5                               CONSTANT      00000005              5
RC6                               CONSTANT      00000006              6
RC7                               CONSTANT      00000007              7
RC8_9                             CONSTANT      00000006              6
RC9                               CONSTANT      00000006              6
RD                                CONSTANT      00000000              0
READ_WRITE                        CONSTANT      00000002              2
RP0                               CONSTANT      00000005              5
RP1                               CONSTANT      00000006              6
RSEN                              CONSTANT      00000001              1
RX9                               CONSTANT      00000006              6
RX9D                              CONSTANT      00000000              0
R_NOT_W                           CONSTANT      00000002              2
R_W                               CONSTANT      00000002              2
S                                 CONSTANT      00000003              3
SEN                               CONSTANT      00000000              0
SMP                               CONSTANT      00000007              7
SPBRG                             CONSTANT      00000099            153
SPEN                              CONSTANT      00000007              7
SREN                              CONSTANT      00000005              5
SSAVE                             EXTERNAL      00000000              0
SSPADD                            CONSTANT      00000093            147
SSPBUF                            CONSTANT      00000013             19
SSPCON                            CONSTANT      00000014             20
SSPCON2                           CONSTANT      00000091            145
SSPEN                             CONSTANT      00000005              5
SSPIE                             CONSTANT      00000003              3
SSPIF                             CONSTANT      00000003              3
SSPM0                             CONSTANT      00000000              0
SSPM1                             CONSTANT      00000001              1
SSPM2                             CONSTANT      00000002              2
SSPM3                             CONSTANT      00000003              3
SSPOV                             CONSTANT      00000006              6
SSPSTAT                           CONSTANT      00000094            148
STATUS                            CONSTANT      00000003              3
STK00                             EXTERNAL      00000000              0
STK01                             EXTERNAL      00000000              0
STK02                             EXTERNAL      00000000              0
STK03                             EXTERNAL      00000000              0
gpasm-1.5.0 #1285 (Jul 12 2020) obj/sdcc-16f8   11/12/23  13:12:37          PAGE 14


SYMBOL TABLE
  LABEL                              TYPE        VALUE         VALUE          VALUE
                                                 (hex)         (dec)          (text)

STK04                             EXTERNAL      00000000              0
STK05                             EXTERNAL      00000000              0
STK06                             EXTERNAL      00000000              0
STK07                             EXTERNAL      00000000              0
STK08                             EXTERNAL      00000000              0
STK09                             EXTERNAL      00000000              0
STK10                             EXTERNAL      00000000              0
STK11                             EXTERNAL      00000000              0
STK12                             EXTERNAL      00000000              0
SYNC                              CONSTANT      00000004              4
T0CS                              CONSTANT      00000005              5
T0IE                              CONSTANT      00000005              5
T0IF                              CONSTANT      00000002              2
T0SE                              CONSTANT      00000004              4
TMR0                              CONSTANT      00000001              1
TMR0IE                            CONSTANT      00000005              5
TMR0IF                            CONSTANT      00000002              2
TMR1                              CONSTANT      0000000E             14
TMR1CS                            CONSTANT      00000001              1
TMR1H                             CONSTANT      0000000F             15
TMR1IE                            CONSTANT      00000000              0
TMR1IF                            CONSTANT      00000000              0
TMR1L                             CONSTANT      0000000E             14
TMR1ON                            CONSTANT      00000000              0
TMR2                              CONSTANT      00000011             17
TMR2IE                            CONSTANT      00000001              1
TMR2IF                            CONSTANT      00000001              1
TMR2ON                            CONSTANT      00000002              2
TOUTPS0                           CONSTANT      00000003              3
TOUTPS1                           CONSTANT      00000004              4
TOUTPS2                           CONSTANT      00000005              5
TOUTPS3                           CONSTANT      00000006              6
TRISA                             CONSTANT      00000085            133
TRISA0                            CONSTANT      00000000              0
TRISA1                            CONSTANT      00000001              1
TRISA2                            CONSTANT      00000002              2
TRISA3                            CONSTANT      00000003              3
TRISA4                            CONSTANT      00000004              4
TRISA5                            CONSTANT      00000005              5
TRISB                             CONSTANT      00000086            134
TRISB0                            CONSTANT      00000000              0
TRISB1                            CONSTANT      00000001              1
TRISB2                            CONSTANT      00000002              2
TRISB3                            CONSTANT      00000003              3
TRISB4                            CONSTANT      00000004              4
TRISB5                            CONSTANT      00000005              5
TRISB6                            CONSTANT      00000006              6
TRISB7                            CONSTANT      00000007              7
TRISC                             CONSTANT      00000087            135
TRISC0                            CONSTANT      00000000              0
TRISC1                            CONSTANT      00000001              1
TRISC2                            CONSTANT      00000002              2
gpasm-1.5.0 #1285 (Jul 12 2020) obj/sdcc-16f8   11/12/23  13:12:37          PAGE 15


SYMBOL TABLE
  LABEL                              TYPE        VALUE         VALUE          VALUE
                                                 (hex)         (dec)          (text)

TRISC3                            CONSTANT      00000003              3
TRISC4                            CONSTANT      00000004              4
TRISC5                            CONSTANT      00000005              5
TRISC6                            CONSTANT      00000006              6
TRISC7                            CONSTANT      00000007              7
TRMT                              CONSTANT      00000001              1
TXD8                              CONSTANT      00000000              0
TXEN                              CONSTANT      00000005              5
TXIE                              CONSTANT      00000004              4
TXIF                              CONSTANT      00000004              4
TXREG                             CONSTANT      00000019             25
TXSTA                             CONSTANT      00000098            152
TX8_9                             CONSTANT      00000006              6
TX9                               CONSTANT      00000006              6
TX9D                              CONSTANT      00000000              0
T1CKPS0                           CONSTANT      00000004              4
T1CKPS1                           CONSTANT      00000005              5
T1CON                             CONSTANT      00000010             16
T1INSYNC                          CONSTANT      00000002              2
T1OSCEN                           CONSTANT      00000003              3
T1SYNC                            CONSTANT      00000002              2
T2CKPS0                           CONSTANT      00000000              0
T2CKPS1                           CONSTANT      00000001              1
T2CON                             CONSTANT      00000012             18
UA                                CONSTANT      00000001              1
W                                 CONSTANT      00000000              0
WCOL                              CONSTANT      00000007              7
WR                                CONSTANT      00000001              1
WREN                              CONSTANT      00000002              2
WRERR                             CONSTANT      00000003              3
WSAVE                             EXTERNAL      00000000              0
Z                                 CONSTANT      00000002              2
_00001_DS_                        ADDRESS       00000023             35
_00002_DS_                        ADDRESS       00000028             40
_00003_DS_                        ADDRESS       0000003E             62
_00004_DS_                        ADDRESS       00000043             67
_00005_DS_                        ADDRESS       0000005D             93
_00006_DS_                        ADDRESS       00000062             98
_00007_DS_                        ADDRESS       00000088            136
_00008_DS_                        ADDRESS       0000008D            141
_00106_DS_                        ADDRESS       00000072            114
_00109_DS_                        ADDRESS       00000015             21
_00110_DS_                        ADDRESS       00000019             25
_00111_DS_                        ADDRESS       00000030             48
_00112_DS_                        ADDRESS       00000034             52
_00113_DS_                        ADDRESS       0000004F             79
_00114_DS_                        ADDRESS       00000053             83
_00115_DS_                        ADDRESS       0000007A            122
_00116_DS_                        ADDRESS       0000007E            126
_00122_DS_                        ADDRESS       0000000D             13
_00124_DS_                        ADDRESS       00000030             48
_00136_DS_                        ADDRESS       0000002E             46
gpasm-1.5.0 #1285 (Jul 12 2020) obj/sdcc-16f8   11/12/23  13:12:37          PAGE 16


SYMBOL TABLE
  LABEL                              TYPE        VALUE         VALUE          VALUE
                                                 (hex)         (dec)          (text)

_BODEN_OFF                        CONSTANT      00003FBF          16319
_BODEN_ON                         CONSTANT      00003FFF          16383
_BOREN_OFF                        CONSTANT      00003FBF          16319
_BOREN_ON                         CONSTANT      00003FFF          16383
_CONFIG                           CONSTANT      00002007           8199
_CPD_OFF                          CONSTANT      00003FFF          16383
_CPD_ON                           CONSTANT      00003EFF          16127
_CP_ALL                           CONSTANT      00001FFF           8191
_CP_OFF                           CONSTANT      00003FFF          16383
_CP_ON                            CONSTANT      00001FFF           8191
_DEBUG_OFF                        CONSTANT      00003FFF          16383
_DEBUG_ON                         CONSTANT      000037FF          14335
_DEVID1                           CONSTANT      00002006           8198
_FOSC_EXTRC                       CONSTANT      00003FFF          16383
_FOSC_HS                          CONSTANT      00003FFE          16382
_FOSC_LP                          CONSTANT      00003FFC          16380
_FOSC_XT                          CONSTANT      00003FFD          16381
_HS_OSC                           CONSTANT      00003FFE          16382
_IDLOC0                           CONSTANT      00002000           8192
_IDLOC1                           CONSTANT      00002001           8193
_IDLOC2                           CONSTANT      00002002           8194
_IDLOC3                           CONSTANT      00002003           8195
_INTCONbits                       EXTERNAL      00000000              0
_LP_OSC                           CONSTANT      00003FFC          16380
_LVP_OFF                          CONSTANT      00003F7F          16255
_LVP_ON                           CONSTANT      00003FFF          16383
_OPTION_REG                       EXTERNAL      00000000              0
_OPTION_REGbits                   EXTERNAL      00000000              0
_PIE1                             EXTERNAL      00000000              0
_PIR1                             EXTERNAL      00000000              0
_PWRTE_OFF                        CONSTANT      00003FFF          16383
_PWRTE_ON                         CONSTANT      00003FF7          16375
_RC_OSC                           CONSTANT      00003FFF          16383
_TMR0                             EXTERNAL      00000000              0
_TMR2                             EXTERNAL      00000000              0
_T2CON                            EXTERNAL      00000000              0
_WDTE_OFF                         CONSTANT      00003FFB          16379
_WDTE_ON                          CONSTANT      00003FFF          16383
_WDT_OFF                          CONSTANT      00003FFB          16379
_WDT_ON                           CONSTANT      00003FFF          16383
_WRT_HALF                         CONSTANT      000039FF          14847
_WRT_OFF                          CONSTANT      00003FFF          16383
_WRT_1FOURTH                      CONSTANT      00003BFF          15359
_WRT_256                          CONSTANT      00003DFF          15871
_XT_OSC                           CONSTANT      00003FFD          16381
__ACTIVE_BANK_ADDR                VARIABLE      FFFFFFFF             -1
__ACTIVE_PAGE_ADDR                VARIABLE      FFFFFFFF             -1
__ASSUMED_BANK_ADDR               VARIABLE      FFFFFFFF             -1
__BANK_0                          CONSTANT      00000000              0
__BANK_BITS                       CONSTANT      00000180            384
__BANK_FIRST                      CONSTANT      00000000              0
__BANK_INV                        CONSTANT      FFFFFFFF             -1
gpasm-1.5.0 #1285 (Jul 12 2020) obj/sdcc-16f8   11/12/23  13:12:37          PAGE 17


SYMBOL TABLE
  LABEL                              TYPE        VALUE         VALUE          VALUE
                                                 (hex)         (dec)          (text)

__BANK_LAST                       CONSTANT      00000180            384
__BANK_MASK                       CONSTANT      0000007F            127
__BANK_SHIFT                      CONSTANT      00000007              7
__BANK_SIZE                       CONSTANT      00000080            128
__BANK_1                          CONSTANT      00000080            128
__BANK_2                          CONSTANT      00000100            256
__BANK_3                          CONSTANT      00000180            384
__CODE_END                        CONSTANT      00001FFF           8191
__CODE_START                      CONSTANT      00000000              0
__COMMON_RAM_END                  CONSTANT      0000007F            127
__COMMON_RAM_START                CONSTANT      00000070            112
__CONFIG_END                      CONSTANT      00002007           8199
__CONFIG_START                    CONSTANT      00002007           8199
__EEPROM_END                      CONSTANT      000021FF           8703
__EEPROM_START                    CONSTANT      00002100           8448
__GPUTILS_SVN_VERSION             CONSTANT      00000505           1285
__GPUTILS_VERSION_MAJOR           CONSTANT      00000001              1
__GPUTILS_VERSION_MICRO           CONSTANT      00000000              0
__GPUTILS_VERSION_MINOR           CONSTANT      00000005              5
__IDLOCS_END                      CONSTANT      00002003           8195
__IDLOCS_START                    CONSTANT      00002000           8192
__NUM_BANKS                       CONSTANT      00000004              4
__NUM_PAGES                       CONSTANT      00000004              4
__PAGE_0                          CONSTANT      00000000              0
__PAGE_BITS                       CONSTANT      00001800           6144
__PAGE_FIRST                      CONSTANT      00000000              0
__PAGE_INV                        CONSTANT      FFFFFFFF             -1
__PAGE_LAST                       CONSTANT      00001800           6144
__PAGE_MASK                       CONSTANT      000007FF           2047
__PAGE_SHIFT                      CONSTANT      0000000B             11
__PAGE_SIZE                       CONSTANT      00000800           2048
__PAGE_1                          CONSTANT      00000800           2048
__PAGE_2                          CONSTANT      00001000           4096
__PAGE_3                          CONSTANT      00001800           6144
__VECTOR_INT                      CONSTANT      00000004              4
__VECTOR_RESET                    CONSTANT      00000000              0
__WHILE_LOOP_COUNT_MAX            CONSTANT      000000FF            255
__14_BIT                          CONSTANT      00000001              1
__16F876A                         CONSTANT      00000001              1
_timer0_init                      GLOBAL        00000000              0
_timer0_read_ps                   GLOBAL        00000000              0
_timer2_init                      GLOBAL        00000000              0
r0x100A                           STATIC        00000000              0
r0x100B                           STATIC        00000001              1
r0x100C                           STATIC        00000002              2
r0x100D                           STATIC        00000003              3
r0x100E                           STATIC        00000004              4
r0x100F                           STATIC        00000005              5
r0x1000                           STATIC        0000000C             12
r0x1001                           STATIC        0000000D             13
r0x1002                           STATIC        0000000E             14
r0x1003                           STATIC        0000000F             15
gpasm-1.5.0 #1285 (Jul 12 2020) obj/sdcc-16f8   11/12/23  13:12:37          PAGE 18


SYMBOL TABLE
  LABEL                              TYPE        VALUE         VALUE          VALUE
                                                 (hex)         (dec)          (text)

r0x1004                           STATIC        00000006              6
r0x1005                           STATIC        00000007              7
r0x1006                           STATIC        00000008              8
r0x1007                           STATIC        00000009              9
r0x1008                           STATIC        0000000A             10
r0x1009                           STATIC        0000000B             11

Errors   :     0
Warnings :     0 reported,     0 suppressed
Messages :     0 reported,     0 suppressed

