gpasm-1.5.2 #0 (Sep 16 2019) build/default/pr   9-16-2019  10:40:44         PAGE  1


LOC    OBJECT CODE    LINE  SOURCE TEXT
  VALUE

                      00001 ;--------------------------------------------------------
                      00002 ; File Created by SDCC : free open source ANSI-C Compiler
                      00003 ; Version 3.9.3 #11377 (MINGW64)
                      00004 ;--------------------------------------------------------
                      00005 ; PIC port for the 14-bit core
                      00006 ;--------------------------------------------------------
                      00007 ;       .file   "../../../lib/buffer.c"
                      00008         list    p=16f876a
                      00009         radix dec
                      00010         include "p16f876a.inc"
                      00001         LIST
                      00002 
                      00003 ;==========================================================================
                      00004 ; Build date : Oct 21 2015
                      00005 ;  MPASM PIC16F876A processor include
                      00006 ; 
                      00007 ;  (c) Copyright 1999-2015 Microchip Technology, All rights reserved
                      00008 ;==========================================================================
                      00009 
                      00525         LIST
                      00011 ;--------------------------------------------------------
                      00012 ; external declarations
                      00013 ;--------------------------------------------------------
  0000                00014         extern  ___uchar2fs
  0000                00015         extern  ___schar2fs
  0000                00016         extern  ___uint2fs
  0000                00017         extern  ___sint2fs
  0000                00018         extern  ___ulong2fs
  0000                00019         extern  ___slong2fs
  0000                00020         extern  ___fs2uchar
  0000                00021         extern  ___fs2schar
  0000                00022         extern  ___fs2uint
  0000                00023         extern  ___fs2sint
  0000                00024         extern  ___fs2ulong
  0000                00025         extern  ___fs2slong
  0000                00026         extern  ___fsadd
  0000                00027         extern  ___fssub
  0000                00028         extern  ___fsmul
  0000                00029         extern  ___fsdiv
  0000                00030         extern  ___fslt
  0000                00031         extern  ___fseq
  0000                00032         extern  ___fsgt
  0000                00033         extern  _memccpy
  0000                00034         extern  _memcpy
  0000                00035         extern  _memmove
  0000                00036         extern  _strcpy
  0000                00037         extern  _strncpy
  0000                00038         extern  _strcat
  0000                00039         extern  _strncat
  0000                00040         extern  _strdup
  0000                00041         extern  _strndup
  0000                00042         extern  _memcmp
  0000                00043         extern  _strcmp
gpasm-1.5.2 #0 (Sep 16 2019) build/default/pr   9-16-2019  10:40:44         PAGE  2


LOC    OBJECT CODE    LINE  SOURCE TEXT
  VALUE

  0000                00044         extern  _strncmp
  0000                00045         extern  _strxfrm
  0000                00046         extern  _memchr
  0000                00047         extern  _strchr
  0000                00048         extern  _strcspn
  0000                00049         extern  _strpbrk
  0000                00050         extern  _strrchr
  0000                00051         extern  _strspn
  0000                00052         extern  _strstr
  0000                00053         extern  _strtok
  0000                00054         extern  _memset
  0000                00055         extern  _strlen
  0000                00056         extern  ___memcpy
  0000                00057         extern  _STATUSbits
  0000                00058         extern  _PORTAbits
  0000                00059         extern  _PORTBbits
  0000                00060         extern  _PORTCbits
  0000                00061         extern  _INTCONbits
  0000                00062         extern  _PIR1bits
  0000                00063         extern  _PIR2bits
  0000                00064         extern  _T1CONbits
  0000                00065         extern  _T2CONbits
  0000                00066         extern  _SSPCONbits
  0000                00067         extern  _CCP1CONbits
  0000                00068         extern  _RCSTAbits
  0000                00069         extern  _CCP2CONbits
  0000                00070         extern  _ADCON0bits
  0000                00071         extern  _OPTION_REGbits
  0000                00072         extern  _TRISAbits
  0000                00073         extern  _TRISBbits
  0000                00074         extern  _TRISCbits
  0000                00075         extern  _PIE1bits
  0000                00076         extern  _PIE2bits
  0000                00077         extern  _PCONbits
  0000                00078         extern  _SSPCON2bits
  0000                00079         extern  _SSPSTATbits
  0000                00080         extern  _TXSTAbits
  0000                00081         extern  _CMCONbits
  0000                00082         extern  _CVRCONbits
  0000                00083         extern  _ADCON1bits
  0000                00084         extern  _EECON1bits
  0000                00085         extern  _INDF
  0000                00086         extern  _TMR0
  0000                00087         extern  _PCL
  0000                00088         extern  _STATUS
  0000                00089         extern  _FSR
  0000                00090         extern  _PORTA
  0000                00091         extern  _PORTB
  0000                00092         extern  _PORTC
  0000                00093         extern  _PCLATH
  0000                00094         extern  _INTCON
  0000                00095         extern  _PIR1
  0000                00096         extern  _PIR2
gpasm-1.5.2 #0 (Sep 16 2019) build/default/pr   9-16-2019  10:40:44         PAGE  3


LOC    OBJECT CODE    LINE  SOURCE TEXT
  VALUE

  0000                00097         extern  _TMR1
  0000                00098         extern  _TMR1L
  0000                00099         extern  _TMR1H
  0000                00100         extern  _T1CON
  0000                00101         extern  _TMR2
  0000                00102         extern  _T2CON
  0000                00103         extern  _SSPBUF
  0000                00104         extern  _SSPCON
  0000                00105         extern  _CCPR1
  0000                00106         extern  _CCPR1L
  0000                00107         extern  _CCPR1H
  0000                00108         extern  _CCP1CON
  0000                00109         extern  _RCSTA
  0000                00110         extern  _TXREG
  0000                00111         extern  _RCREG
  0000                00112         extern  _CCPR2
  0000                00113         extern  _CCPR2L
  0000                00114         extern  _CCPR2H
  0000                00115         extern  _CCP2CON
  0000                00116         extern  _ADRESH
  0000                00117         extern  _ADCON0
  0000                00118         extern  _OPTION_REG
  0000                00119         extern  _TRISA
  0000                00120         extern  _TRISB
  0000                00121         extern  _TRISC
  0000                00122         extern  _PIE1
  0000                00123         extern  _PIE2
  0000                00124         extern  _PCON
  0000                00125         extern  _SSPCON2
  0000                00126         extern  _PR2
  0000                00127         extern  _SSPADD
  0000                00128         extern  _SSPSTAT
  0000                00129         extern  _TXSTA
  0000                00130         extern  _SPBRG
  0000                00131         extern  _CMCON
  0000                00132         extern  _CVRCON
  0000                00133         extern  _ADRESL
  0000                00134         extern  _ADCON1
  0000                00135         extern  _EEDATA
  0000                00136         extern  _EEADR
  0000                00137         extern  _EEDATH
  0000                00138         extern  _EEADRH
  0000                00139         extern  _EECON1
  0000                00140         extern  _EECON2
  0000                00141         extern  __gptrget1
                      00142 
  0000                00143         extern PSAVE
  0000                00144         extern SSAVE
  0000                00145         extern WSAVE
  0000                00146         extern STK12
  0000                00147         extern STK11
  0000                00148         extern STK10
  0000                00149         extern STK09
gpasm-1.5.2 #0 (Sep 16 2019) build/default/pr   9-16-2019  10:40:44         PAGE  4


LOC    OBJECT CODE    LINE  SOURCE TEXT
  VALUE

  0000                00150         extern STK08
  0000                00151         extern STK07
  0000                00152         extern STK06
  0000                00153         extern STK05
  0000                00154         extern STK04
  0000                00155         extern STK03
  0000                00156         extern STK02
  0000                00157         extern STK01
  0000                00158         extern STK00
                      00159 ;--------------------------------------------------------
                      00160 ; global declarations
                      00161 ;--------------------------------------------------------
  0000                00162         global  _buffer_puts
  0000                00163         global  _buffer_put
  0000                00164         global  _buffer_putch
  0000                00165         global  _buffer_flush
  0000                00166         global  _buffer_init
  0000                00167         global  _buffer
                      00168 
                      00169 ;--------------------------------------------------------
                      00170 ; global definitions
                      00171 ;--------------------------------------------------------
                      00172 UD_buffer_0     udata
0000                  00173 _buffer res     19
                      00174 
                      00175 ;--------------------------------------------------------
                      00176 ; absolute symbol definitions
                      00177 ;--------------------------------------------------------
                      00178 ;--------------------------------------------------------
                      00179 ; compiler-defined variables
                      00180 ;--------------------------------------------------------
                      00181 UDL_buffer_0    udata
0000                  00182 r0x1030 res     1
0001                  00183 r0x102F res     1
0002                  00184 r0x102A res     1
0003                  00185 r0x102B res     1
0004                  00186 r0x102C res     1
0005                  00187 r0x102D res     1
0006                  00188 r0x102E res     1
0007                  00189 r0x1013 res     1
0008                  00190 r0x1014 res     1
0009                  00191 r0x1015 res     1
000A                  00192 r0x1016 res     1
000B                  00193 r0x1018 res     1
000C                  00194 r0x1020 res     1
000D                  00195 r0x101F res     1
000E                  00196 r0x101E res     1
000F                  00197 r0x1021 res     1
0010                  00198 r0x1022 res     1
0011                  00199 r0x1023 res     1
0012                  00200 r0x1024 res     1
0013                  00201 r0x1025 res     1
0014                  00202 r0x1026 res     1
gpasm-1.5.2 #0 (Sep 16 2019) build/default/pr   9-16-2019  10:40:44         PAGE  5


LOC    OBJECT CODE    LINE  SOURCE TEXT
  VALUE

0015                  00203 r0x1027 res     1
0016                  00204 r0x1028 res     1
0017                  00205 r0x1029 res     1
0018                  00206 r0x101B res     1
0019                  00207 r0x101A res     1
001A                  00208 r0x1019 res     1
001B                  00209 r0x101C res     1
                      00210 ;--------------------------------------------------------
                      00211 ; initialized data
                      00212 ;--------------------------------------------------------
                      00213 ;--------------------------------------------------------
                      00214 ; overlayable items in internal ram 
                      00215 ;--------------------------------------------------------
                      00216 ;       udata_ovr
                      00217 ;--------------------------------------------------------
                      00218 ; code
                      00219 ;--------------------------------------------------------
                      00220 code_buffer     code
                      00221 ;***
                      00222 ;  pBlock Stats: dbName = C
                      00223 ;***
                      00224 ;has an exit
                      00225 ;functions called:
                      00226 ;   __gptrget1
                      00227 ;   _buffer_putch
                      00228 ;   __gptrget1
                      00229 ;   _buffer_putch
                      00230 ;7 compiler assigned registers:
                      00231 ;   r0x1019
                      00232 ;   STK00
                      00233 ;   r0x101A
                      00234 ;   STK01
                      00235 ;   r0x101B
                      00236 ;   r0x101C
                      00237 ;   r0x102C
                      00238 ;; Starting pCode block
                      00239 ;<>Start of new flow, seq=0x1 ancestor = 0x1
                      00240 ;  from: ; to: 002 
                      00241 ;;; /home/sdcc-builder/build/sdcc-build/orig/sdcc/src/pic14/gen.c:2308:resultRemat *{*
                      00242 ;;; /home/sdcc-builder/build/sdcc-build/orig/sdcc/src/pic14/gen.c:2752:genLabel *{*
                      00243 ;; ***  genLabel  2755
                      00244 ;;; /home/sdcc-builder/build/sdcc-build/orig/sdcc/src/pic14/gen.c:2308:resultRemat *{*
                      00245 ;;; /home/sdcc-builder/build/sdcc-build/orig/sdcc/src/pic14/gen.c:2332:genFunction *{*
                      00246 ;; ***  genFunction  2334 curr label offset=41previous max_key=22 
                      00247 ;;      -----------------------------------------
                      00248 ;;       function buffer_puts
                      00249 ;;      -----------------------------------------
                      00250 ;_buffer_puts:
                      00251 S_buffer__buffer_puts   code
0000                  00252 _buffer_puts:
                      00253 ; 2 exit points
                      00254 ;;; /home/sdcc-builder/build/sdcc-build/orig/sdcc/src/pic14/gen.c:2308:resultRemat *{*
                      00255 ;;; /home/sdcc-builder/build/sdcc-build/orig/sdcc/src/pic14/gen.c:7467:genReceive *{*
gpasm-1.5.2 #0 (Sep 16 2019) build/default/pr   9-16-2019  10:40:44         PAGE  6


LOC    OBJECT CODE    LINE  SOURCE TEXT
  VALUE

                      00256 ;; ***  genReceive  7468
                      00257 ;;      695 register type nRegs=3
                      00258 ;;; /home/sdcc-builder/build/sdcc-build/orig/sdcc/src/pic14/gen.c:1892:assignResultValue *{*
                      00259 ;; ***  assignResultValue  1894
                      00260 ;;      line = 1896 result -=-, size=0, left AOP_REG=r0x105F, size=3, right -=-, size=0
                      00261 ;; >>> /home/sdcc-builder/build/sdcc-build/orig/sdcc/src/pic14/gen.c:1378:movwf
                      00262 ;;      1097 rIdx = r0x1061 
                      00263 ;       .line   56; "../../../lib/buffer.c"     buffer_puts(const char* x) {
0000   0??? 0???      00264         BANKSEL r0x1019 ;id=1843,key=000,inCond:0,outCond:0,flow seq=001
0002   00??           00265         MOVWF   r0x1019 ;id=1662,key=001,inCond:10,outCond:1,flow seq=001,rIdx=r0x1061
                      00266 ;; >>> /home/sdcc-builder/build/sdcc-build/orig/sdcc/src/pic14/gen.c:1408:get_returnvalue
                      00267 ;; ***  popRegFromIdx,1030  , rIdx=0x7f
                      00268 ;; BANKOPT1 BANKSEL dropped; STK00 present in all of r0x1019's banks
0003   08??           00269         MOVF    STK00,W ;id=1665,key=002,inCond:1,outCond:14,flow seq=001
                      00270 ;; >>> /home/sdcc-builder/build/sdcc-build/orig/sdcc/src/pic14/gen.c:1378:movwf
                      00271 ;;      1097 rIdx = r0x1060 
                      00272 ;; BANKOPT2 BANKSEL dropped; r0x101A present in same bank as r0x1019
0004   00??           00273         MOVWF   r0x101A ;id=1668,key=003,inCond:10,outCond:1,flow seq=001,rIdx=r0x1060
                      00274 ;; >>> /home/sdcc-builder/build/sdcc-build/orig/sdcc/src/pic14/gen.c:1408:get_returnvalue
                      00275 ;; ***  popRegFromIdx,1030  , rIdx=0x7e
                      00276 ;; BANKOPT1 BANKSEL dropped; STK01 present in all of r0x1019's banks
0005   08??           00277         MOVF    STK01,W ;id=1671,key=004,inCond:1,outCond:14,flow seq=001
                      00278 ;; >>> /home/sdcc-builder/build/sdcc-build/orig/sdcc/src/pic14/gen.c:1378:movwf
                      00279 ;;      1097 rIdx = r0x105F 
                      00280 ;; BANKOPT2 BANKSEL dropped; r0x101B present in same bank as r0x1019
0006   00??           00281         MOVWF   r0x101B ;id=1674,key=005,inCond:10,outCond:1,flow seq=001,rIdx=r0x105F
                      00282 ;<>Start of new flow, seq=0x2 ancestor = 0x1
                      00283 ;  from: 00a 001 ; to: 003 
                      00284 ;;; /home/sdcc-builder/build/sdcc-build/orig/sdcc/src/pic14/gen.c:2308:resultRemat *{*
                      00285 ;;; /home/sdcc-builder/build/sdcc-build/orig/sdcc/src/pic14/gen.c:2752:genLabel *{*
                      00286 ;; ***  genLabel  2755
                      00287 ;_00168_DS_:
                      00288 ;;; /home/sdcc-builder/build/sdcc-build/orig/sdcc/src/pic14/gen.c:2308:resultRemat *{*
                      00289 ;;; /home/sdcc-builder/build/sdcc-build/orig/sdcc/src/pic14/gen.c:6260:genPointerGet *{*
                      00290 ;; ***  genPointerGet  6261
                      00291 ;;; /home/sdcc-builder/build/sdcc-build/orig/sdcc/src/pic14/gen.c:6149:genGenPointerGet *{*
                      00292 ;; ***  genGenPointerGet  6150
                      00293 ;;      695 register type nRegs=3
                      00294 ;;      695 register type nRegs=1
                      00295 ;;      line = 6155 result AOP_REG=r0x1062, size=1, left AOP_REG=r0x105F, size=3, right -=-, size=0
                      00296 ;; ***  mov2w  1366  offset=0
                      00297 ;; >>> /home/sdcc-builder/build/sdcc-build/orig/sdcc/src/pic14/gen.c:1371:mov2w
                      00298 ;;      1097 rIdx = r0x105F 
                      00299 ;; BANKOPT3 drop assumptions: PCI with label or call found
0007                  00300 _00168_DS_:
                      00301 ;       .line   57; "../../../lib/buffer.c"     while(*x) {
0007   0??? 0???      00302         BANKSEL r0x101B ;id=1849,key=000,inCond:0,outCond:0,flow seq=002
0009   08??           00303         MOVF    r0x101B,W       ;id=1692,key=001,inCond:1,outCond:14,flow seq=002,rIdx=r0x105F
                      00304 ;; >>> /home/sdcc-builder/build/sdcc-build/orig/sdcc/src/pic14/gen.c:6174:genGenPointerGet
                      00305 ;; ***  popRegFromIdx,1030  , rIdx=0x7e
                      00306 ;; BANKOPT1 BANKSEL dropped; STK01 present in all of r0x101B's banks
000A   00??           00307         MOVWF   STK01   ;id=1695,key=002,inCond:10,outCond:1,flow seq=002
                      00308 ;; ***  mov2w  1366  offset=1
gpasm-1.5.2 #0 (Sep 16 2019) build/default/pr   9-16-2019  10:40:44         PAGE  7


LOC    OBJECT CODE    LINE  SOURCE TEXT
  VALUE

                      00309 ;; >>> /home/sdcc-builder/build/sdcc-build/orig/sdcc/src/pic14/gen.c:1371:mov2w
                      00310 ;;      1097 rIdx = r0x1060 
                      00311 ;; BANKOPT2 BANKSEL dropped; r0x101A present in same bank as r0x101B
000B   08??           00312         MOVF    r0x101A,W       ;id=1699,key=003,inCond:1,outCond:14,flow seq=002,rIdx=r0x1060
                      00313 ;; >>> /home/sdcc-builder/build/sdcc-build/orig/sdcc/src/pic14/gen.c:6176:genGenPointerGet
                      00314 ;; ***  popRegFromIdx,1030  , rIdx=0x7f
                      00315 ;; BANKOPT1 BANKSEL dropped; STK00 present in all of r0x101B's banks
000C   00??           00316         MOVWF   STK00   ;id=1702,key=004,inCond:10,outCond:1,flow seq=002
                      00317 ;; ***  mov2w  1366  offset=2
                      00318 ;; >>> /home/sdcc-builder/build/sdcc-build/orig/sdcc/src/pic14/gen.c:1371:mov2w
                      00319 ;;      1097 rIdx = r0x1061 
                      00320 ;; BANKOPT2 BANKSEL dropped; r0x1019 present in same bank as r0x101B
000D   08??           00321         MOVF    r0x1019,W       ;id=1706,key=005,inCond:1,outCond:14,flow seq=002,rIdx=r0x1061
                      00322 ;; >>> /home/sdcc-builder/build/sdcc-build/orig/sdcc/src/pic14/gen.c:1418:call_libraryfunc
000E   0??? 0???      00323         PAGESEL __gptrget1      ;id=1708,key=006,inCond:0,outCond:0,flow seq=002
                      00324 ;; >>> /home/sdcc-builder/build/sdcc-build/orig/sdcc/src/pic14/gen.c:1420:call_libraryfunc
                      00325 ;; BANKOPT3 drop assumptions: PCI with label or call found
0010   2???           00326         CALL    __gptrget1      ;id=1710,key=007,inCond:10,outCond:1e,flow seq=002
                      00327 ;<>Start of new flow, seq=0x3 ancestor = 0x2
                      00328 ;  from: 002 ; to: 005 004 
                      00329 ;; >>> /home/sdcc-builder/build/sdcc-build/orig/sdcc/src/pic14/gen.c:1422:call_libraryfunc
0011   0??? 0???      00330         PAGESEL $       ;id=1712,key=000,inCond:0,outCond:0,flow seq=003
                      00331 ;; >>> /home/sdcc-builder/build/sdcc-build/orig/sdcc/src/pic14/gen.c:1378:movwf
                      00332 ;;      1097 rIdx = r0x1062 
0013   0??? 0???      00333         BANKSEL r0x101C ;id=1855,key=001,inCond:0,outCond:0,flow seq=003
0015   00??           00334         MOVWF   r0x101C ;id=1715,key=002,inCond:10,outCond:1,flow seq=003,rIdx=r0x1062
                      00335 ;;; /home/sdcc-builder/build/sdcc-build/orig/sdcc/src/pic14/gen.c:2308:resultRemat *{*
                      00336 ;;; /home/sdcc-builder/build/sdcc-build/orig/sdcc/src/pic14/gen.c:6868:genIfx *{*
                      00337 ;; ***  genIfx  6869
                      00338 ;;      695 register type nRegs=1
                      00339 ;; ***  pic14_toBoolean  1500
                      00340 ;; >>> /home/sdcc-builder/build/sdcc-build/orig/sdcc/src/pic14/gen.c:1507:pic14_toBoolean
                      00341 ;; BANKOPT2 BANKSEL dropped; r0x101C present in same bank as r0x101C
0016   08??           00342         MOVF    r0x101C,W       ;id=1819,key=003,inCond:1,outCond:14,flow seq=003,rIdx=r0x1062
0017   1903           00343         BTFSC   STATUS,2        ;id=1727,key=004,inCond:25,outCond:0,flow seq=003
                      00344 ;<>Start of new flow, seq=0x4 ancestor = 0x3
                      00345 ;  from: 003 ; to: 00b 
                      00346 ;; >>> /home/sdcc-builder/build/sdcc-build/orig/sdcc/src/pic14/gen.c:6923:genIfx
                      00347 ;; ***  popGetLabel  key=3, label offset 67
0018   2???           00348         GOTO    _00170_DS_      ;id=1730,key=000,inCond:0,outCond:0,flow seq=004
                      00349 ;<>Start of new flow, seq=0x5 ancestor = 0x3
                      00350 ;  from: 003 ; to: 006 
                      00351 ;;; /home/sdcc-builder/build/sdcc-build/orig/sdcc/src/pic14/gen.c:2308:resultRemat *{*
                      00352 ;;; /home/sdcc-builder/build/sdcc-build/orig/sdcc/src/pic14/gen.c:2308:resultRemat *{*
                      00353 ;;; /home/sdcc-builder/build/sdcc-build/orig/sdcc/src/pic14/gen.c:2071:genCall *{*
                      00354 ;; ***  genCall  2073
                      00355 ;;; /home/sdcc-builder/build/sdcc-build/orig/sdcc/src/pic14/gen.c:1786:saveRegisters *{*
                      00356 ;; ***  saveRegisters  1788
                      00357 ;;      695 register type nRegs=1
                      00358 ;;      695 register type nRegs=1
                      00359 ;;      695 register type nRegs=1
                      00360 ;;      2120 left AOP_REG
                      00361 ;;; /home/sdcc-builder/build/sdcc-build/orig/sdcc/src/pic14/gen.c:1328:mov2w_op *{*
gpasm-1.5.2 #0 (Sep 16 2019) build/default/pr   9-16-2019  10:40:44         PAGE  8


LOC    OBJECT CODE    LINE  SOURCE TEXT
  VALUE

                      00362 ;; ***  mov2w  1366  offset=0
                      00363 ;; >>> /home/sdcc-builder/build/sdcc-build/orig/sdcc/src/pic14/gen.c:1371:mov2w
                      00364 ;;      1097 rIdx = r0x1062 
                      00365 ;; BANKOPT2 BANKSEL dropped; r0x101C present in same bank as r0x101C
                      00366 ;       .line   58; "../../../lib/buffer.c"     buffer_putch(*x);
0019   08??           00367         MOVF    r0x101C,W       ;id=1746,key=000,inCond:1,outCond:14,flow seq=005,rIdx=r0x1062
                      00368 ;;      695 register type nRegs=1
                      00369 ;;      2120 left AOP_REG
                      00370 ;; >>> /home/sdcc-builder/build/sdcc-build/orig/sdcc/src/pic14/gen.c:2128:genCall
                      00371 ;; ***  popRegFromIdx,1030  , rIdx=0x7f
                      00372 ;; BANKOPT1 BANKSEL dropped; STK00 present in all of r0x101C's banks
001A   00??           00373         MOVWF   STK00   ;id=1751,key=001,inCond:10,outCond:1,flow seq=005
                      00374 ;;; /home/sdcc-builder/build/sdcc-build/orig/sdcc/src/pic14/gen.c:1328:mov2w_op *{*
                      00375 ;; ***  mov2w  1366  offset=0
                      00376 ;; >>> /home/sdcc-builder/build/sdcc-build/orig/sdcc/src/pic14/gen.c:1371:mov2w
                      00377 ;;      1097 rIdx = r0x104A 
                      00378 ;; BANKOPT2 BANKSEL dropped; r0x102C present in same bank as r0x101C
001B   08??           00379         MOVF    r0x102C,W       ;id=1756,key=002,inCond:1,outCond:14,flow seq=005,rIdx=r0x104A
                      00380 ;; >>> /home/sdcc-builder/build/sdcc-build/orig/sdcc/src/pic14/gen.c:2160:genCall
001C   0??? 0???      00381         PAGESEL _buffer_putch   ;id=1758,key=003,inCond:0,outCond:0,flow seq=005
                      00382 ;; >>> /home/sdcc-builder/build/sdcc-build/orig/sdcc/src/pic14/gen.c:2165:genCall
                      00383 ;; BANKOPT3 drop assumptions: PCI with label or call found
001E   2???           00384         CALL    _buffer_putch   ;id=1760,key=004,inCond:10,outCond:1e,flow seq=005
                      00385 ;<>Start of new flow, seq=0x6 ancestor = 0x5
                      00386 ;  from: 005 ; to: 008 007 
                      00387 ;; >>> /home/sdcc-builder/build/sdcc-build/orig/sdcc/src/pic14/gen.c:2173:genCall
001F   0??? 0???      00388         PAGESEL $       ;id=1762,key=000,inCond:0,outCond:0,flow seq=006
                      00389 ;;; /home/sdcc-builder/build/sdcc-build/orig/sdcc/src/pic14/gen.c:1830:unsaveRegisters *{*
                      00390 ;; ***  unsaveRegisters  1832
                      00391 ;;; /home/sdcc-builder/build/sdcc-build/orig/sdcc/src/pic14/gen.c:2308:resultRemat *{*
                      00392 ;; ***  genPlus  607
                      00393 ;;; /home/sdcc-builder/build/sdcc-build/orig/sdcc/src/pic14/genarith.c:608:genPlus *{*
                      00394 ;;      695 register type nRegs=3
                      00395 ;;      576
                      00396 ;;      line = 614 result AOP_REG=r0x105F, size=3, left AOP_REG=r0x105F, size=3, right AOP_LIT=0x01, siz
                            e=1
                      00397 ;;; /home/sdcc-builder/build/sdcc-build/orig/sdcc/src/pic14/genarith.c:138:genPlusIncr *{*
                      00398 ;; ***  genPlusIncr  140
                      00399 ;;      result AOP_REG, left AOP_REG, right AOP_LIT
                      00400 ;;      genPlusIncr  152
                      00401 ;; >>> /home/sdcc-builder/build/sdcc-build/orig/sdcc/src/pic14/genarith.c:164:genPlusIncr
                      00402 ;;      1097 rIdx = r0x105F 
                      00403 ;       .line   59; "../../../lib/buffer.c"     ++x;
0021   0??? 0???      00404         BANKSEL r0x101B ;id=1861,key=001,inCond:0,outCond:0,flow seq=006
0023   0A??           00405         INCF    r0x101B,F       ;id=1778,key=002,inCond:1,outCond:5,flow seq=006,rIdx=r0x105F
                      00406 ;; >>> /home/sdcc-builder/build/sdcc-build/orig/sdcc/src/pic14/genarith.c:168:genPlusIncr
0024   1903           00407         BTFSC   STATUS,2        ;id=1780,key=003,inCond:25,outCond:0,flow seq=006
                      00408 ;<>Start of new flow, seq=0x7 ancestor = 0x6
                      00409 ;  from: 006 ; to: 008 
                      00410 ;; >>> /home/sdcc-builder/build/sdcc-build/orig/sdcc/src/pic14/genarith.c:169:genPlusIncr
                      00411 ;;      1097 rIdx = r0x1060 
                      00412 ;; BANKOPT2 BANKSEL dropped; r0x101A present in same bank as r0x101B
0025   0A??           00413         INCF    r0x101A,F       ;id=1783,key=000,inCond:1,outCond:5,flow seq=007,rIdx=r0x1060
gpasm-1.5.2 #0 (Sep 16 2019) build/default/pr   9-16-2019  10:40:44         PAGE  9


LOC    OBJECT CODE    LINE  SOURCE TEXT
  VALUE

                      00414 ;<>Start of new flow, seq=0x8 ancestor = 0x6
                      00415 ;  from: 007 006 ; to: 00a 009 
                      00416 ;; >>> /home/sdcc-builder/build/sdcc-build/orig/sdcc/src/pic14/genarith.c:168:genPlusIncr
0026   1903           00417         BTFSC   STATUS,2        ;id=1785,key=000,inCond:25,outCond:0,flow seq=008
                      00418 ;<>Start of new flow, seq=0x9 ancestor = 0x8
                      00419 ;  from: 008 ; to: 00a 
                      00420 ;; >>> /home/sdcc-builder/build/sdcc-build/orig/sdcc/src/pic14/genarith.c:169:genPlusIncr
                      00421 ;;      1097 rIdx = r0x1061 
                      00422 ;; BANKOPT2 BANKSEL dropped; r0x1019 present in same bank as r0x101B
0027   0A??           00423         INCF    r0x1019,F       ;id=1788,key=000,inCond:1,outCond:5,flow seq=009,rIdx=r0x1061
                      00424 ;<>Start of new flow, seq=0xa ancestor = 0x8
                      00425 ;  from: 009 008 ; to: 002 
                      00426 ;;; /home/sdcc-builder/build/sdcc-build/orig/sdcc/src/pic14/gen.c:2308:resultRemat *{*
                      00427 ;;; /home/sdcc-builder/build/sdcc-build/orig/sdcc/src/pic14/gen.c:2770:genGoto *{*
                      00428 ;; >>> /home/sdcc-builder/build/sdcc-build/orig/sdcc/src/pic14/gen.c:2772:genGoto
                      00429 ;; ***  popGetLabel  key=1, label offset 67
0028   2???           00430         GOTO    _00168_DS_      ;id=1793,key=000,inCond:0,outCond:0,flow seq=00a
                      00431 ;<>Start of new flow, seq=0xb ancestor = 0x4
                      00432 ;  from: 004 ; to: 
                      00433 ;goto   _00168_DS_
                      00434 ;;; /home/sdcc-builder/build/sdcc-build/orig/sdcc/src/pic14/gen.c:2308:resultRemat *{*
                      00435 ;;; /home/sdcc-builder/build/sdcc-build/orig/sdcc/src/pic14/gen.c:2752:genLabel *{*
                      00436 ;; ***  genLabel  2755
                      00437 ;_00170_DS_:
                      00438 ;;; /home/sdcc-builder/build/sdcc-build/orig/sdcc/src/pic14/gen.c:2308:resultRemat *{*
                      00439 ;;; /home/sdcc-builder/build/sdcc-build/orig/sdcc/src/pic14/gen.c:2675:genRet *{*
                      00440 ;; ***  genRet  2677
                      00441 ;;; /home/sdcc-builder/build/sdcc-build/orig/sdcc/src/pic14/gen.c:1328:mov2w_op *{*
                      00442 ;; >>> /home/sdcc-builder/build/sdcc-build/orig/sdcc/src/pic14/gen.c:1346:mov2w_op
                      00443 ;; BANKOPT3 drop assumptions: PCI with label or call found
0029                  00444 _00170_DS_:
                      00445 ;       .line   61; "../../../lib/buffer.c"     return 0;
0029   3000           00446         MOVLW   0x00    ;id=1806,key=000,inCond:400,outCond:10,flow seq=00b
                      00447 ;;; /home/sdcc-builder/build/sdcc-build/orig/sdcc/src/pic14/gen.c:2308:resultRemat *{*
                      00448 ;;; /home/sdcc-builder/build/sdcc-build/orig/sdcc/src/pic14/gen.c:2752:genLabel *{*
                      00449 ;; ***  genLabel  2755
                      00450 ;_00171_DS_:
                      00451 ;;; /home/sdcc-builder/build/sdcc-build/orig/sdcc/src/pic14/gen.c:2308:resultRemat *{*
                      00452 ;;; /home/sdcc-builder/build/sdcc-build/orig/sdcc/src/pic14/gen.c:2520:genEndFunction *{*
                      00453 ;; ***  genEndFunction  2522
                      00454 ;return
                      00455 ;       .line   62; "../../../lib/buffer.c"     }
002A   0008           00456         RETURN          ;id=1817,key=001,inCond:10,outCond:e,flow seq=00b
                      00457 ;<>Start of new flow, seq=0xc
                      00458 ;  from: ; to: 
                      00459 ; exit point of _buffer_puts
                      00460 
                      00461 ;***
                      00462 ;  pBlock Stats: dbName = C
                      00463 ;***
                      00464 ;has an exit
                      00465 ;functions called:
                      00466 ;   __gptrget1
gpasm-1.5.2 #0 (Sep 16 2019) build/default/pr   9-16-2019  10:40:44         PAGE 10


LOC    OBJECT CODE    LINE  SOURCE TEXT
  VALUE

                      00467 ;   __gptrget1
                      00468 ;15 compiler assigned registers:
                      00469 ;   r0x101E
                      00470 ;   STK00
                      00471 ;   r0x101F
                      00472 ;   STK01
                      00473 ;   r0x1020
                      00474 ;   STK02
                      00475 ;   r0x1021
                      00476 ;   r0x1022
                      00477 ;   r0x1023
                      00478 ;   r0x1024
                      00479 ;   r0x1025
                      00480 ;   r0x1026
                      00481 ;   r0x1027
                      00482 ;   r0x1028
                      00483 ;   r0x1029
                      00484 ;; Starting pCode block
                      00485 ;<>Start of new flow, seq=0xd ancestor = 0xd
                      00486 ;  from: ; to: 00f 00e 
                      00487 ;;; /home/sdcc-builder/build/sdcc-build/orig/sdcc/src/pic14/gen.c:2308:resultRemat *{*
                      00488 ;;; /home/sdcc-builder/build/sdcc-build/orig/sdcc/src/pic14/gen.c:2752:genLabel *{*
                      00489 ;; ***  genLabel  2755
                      00490 ;;; /home/sdcc-builder/build/sdcc-build/orig/sdcc/src/pic14/gen.c:2308:resultRemat *{*
                      00491 ;;; /home/sdcc-builder/build/sdcc-build/orig/sdcc/src/pic14/gen.c:2332:genFunction *{*
                      00492 ;; ***  genFunction  2334 curr label offset=28previous max_key=9 
                      00493 ;;      -----------------------------------------
                      00494 ;;       function buffer_put
                      00495 ;;      -----------------------------------------
                      00496 ;_buffer_put:
                      00497 S_buffer__buffer_put    code
0000                  00498 _buffer_put:
                      00499 ; 2 exit points
                      00500 ;;; /home/sdcc-builder/build/sdcc-build/orig/sdcc/src/pic14/gen.c:2308:resultRemat *{*
                      00501 ;;; /home/sdcc-builder/build/sdcc-build/orig/sdcc/src/pic14/gen.c:7467:genReceive *{*
                      00502 ;; ***  genReceive  7468
                      00503 ;;      695 register type nRegs=3
                      00504 ;;; /home/sdcc-builder/build/sdcc-build/orig/sdcc/src/pic14/gen.c:1892:assignResultValue *{*
                      00505 ;; ***  assignResultValue  1894
                      00506 ;;      line = 1896 result -=-, size=0, left AOP_REG=r0x1053, size=3, right -=-, size=0
                      00507 ;; >>> /home/sdcc-builder/build/sdcc-build/orig/sdcc/src/pic14/gen.c:1378:movwf
                      00508 ;;      1097 rIdx = r0x1055 
                      00509 ;       .line   33; "../../../lib/buffer.c"     buffer_put(const char* buf, len_t len) {
0000   0??? 0???      00510         BANKSEL r0x101E ;id=1865,key=000,inCond:0,outCond:0,flow seq=00d
0002   00??           00511         MOVWF   r0x101E ;id=1056,key=001,inCond:10,outCond:1,flow seq=00d,rIdx=r0x1055
                      00512 ;; >>> /home/sdcc-builder/build/sdcc-build/orig/sdcc/src/pic14/gen.c:1408:get_returnvalue
                      00513 ;; ***  popRegFromIdx,1030  , rIdx=0x7f
                      00514 ;; BANKOPT1 BANKSEL dropped; STK00 present in all of r0x101E's banks
0003   08??           00515         MOVF    STK00,W ;id=1059,key=002,inCond:1,outCond:14,flow seq=00d
                      00516 ;; >>> /home/sdcc-builder/build/sdcc-build/orig/sdcc/src/pic14/gen.c:1378:movwf
                      00517 ;;      1097 rIdx = r0x1054 
                      00518 ;; BANKOPT2 BANKSEL dropped; r0x101F present in same bank as r0x101E
0004   00??           00519         MOVWF   r0x101F ;id=1062,key=003,inCond:10,outCond:1,flow seq=00d,rIdx=r0x1054
gpasm-1.5.2 #0 (Sep 16 2019) build/default/pr   9-16-2019  10:40:44         PAGE 11


LOC    OBJECT CODE    LINE  SOURCE TEXT
  VALUE

                      00520 ;; >>> /home/sdcc-builder/build/sdcc-build/orig/sdcc/src/pic14/gen.c:1408:get_returnvalue
                      00521 ;; ***  popRegFromIdx,1030  , rIdx=0x7e
                      00522 ;; BANKOPT1 BANKSEL dropped; STK01 present in all of r0x101E's banks
0005   08??           00523         MOVF    STK01,W ;id=1065,key=004,inCond:1,outCond:14,flow seq=00d
                      00524 ;; >>> /home/sdcc-builder/build/sdcc-build/orig/sdcc/src/pic14/gen.c:1378:movwf
                      00525 ;;      1097 rIdx = r0x1053 
                      00526 ;; BANKOPT2 BANKSEL dropped; r0x1020 present in same bank as r0x101E
0006   00??           00527         MOVWF   r0x1020 ;id=1068,key=005,inCond:10,outCond:1,flow seq=00d,rIdx=r0x1053
                      00528 ;;; /home/sdcc-builder/build/sdcc-build/orig/sdcc/src/pic14/gen.c:2308:resultRemat *{*
                      00529 ;;; /home/sdcc-builder/build/sdcc-build/orig/sdcc/src/pic14/gen.c:7467:genReceive *{*
                      00530 ;; ***  genReceive  7468
                      00531 ;;      695 register type nRegs=1
                      00532 ;;; /home/sdcc-builder/build/sdcc-build/orig/sdcc/src/pic14/gen.c:1892:assignResultValue *{*
                      00533 ;; ***  assignResultValue  1894
                      00534 ;;      line = 1896 result -=-, size=0, left AOP_REG=r0x1056, size=1, right -=-, size=0
                      00535 ;; >>> /home/sdcc-builder/build/sdcc-build/orig/sdcc/src/pic14/gen.c:1408:get_returnvalue
                      00536 ;; ***  popRegFromIdx,1030  , rIdx=0x7d
                      00537 ;; BANKOPT1 BANKSEL dropped; STK02 present in all of r0x101E's banks
0007   08??           00538         MOVF    STK02,W ;id=1078,key=006,inCond:1,outCond:14,flow seq=00d
                      00539 ;; >>> /home/sdcc-builder/build/sdcc-build/orig/sdcc/src/pic14/gen.c:1378:movwf
                      00540 ;;      1097 rIdx = r0x1056 
                      00541 ;; BANKOPT2 BANKSEL dropped; r0x1021 present in same bank as r0x101E
0008   00??           00542         MOVWF   r0x1021 ;id=1081,key=007,inCond:10,outCond:1,flow seq=00d,rIdx=r0x1056
                      00543 ;;; /home/sdcc-builder/build/sdcc-build/orig/sdcc/src/pic14/gen.c:2308:resultRemat *{*
                      00544 ;;; /home/sdcc-builder/build/sdcc-build/orig/sdcc/src/pic14/gen.c:2308:resultRemat *{*
                      00545 ;;; /home/sdcc-builder/build/sdcc-build/orig/sdcc/src/pic14/gen.c:2308:resultRemat *{*
                      00546 ;;; /home/sdcc-builder/build/sdcc-build/orig/sdcc/src/pic14/gen.c:6260:genPointerGet *{*
                      00547 ;; ***  genPointerGet  6261
                      00548 ;;; /home/sdcc-builder/build/sdcc-build/orig/sdcc/src/pic14/gen.c:6042:genNearPointerGet *{*
                      00549 ;; ***  genNearPointerGet  6043
                      00550 ;;      614
                      00551 ;;      aopForRemat 393
                      00552 ;;      419: rname _buffer, val 16, const = 0
                      00553 ;; ***  genNearPointerGet  6059
                      00554 ;;      695 register type nRegs=1
                      00555 ;;; /home/sdcc-builder/build/sdcc-build/orig/sdcc/src/pic14/gen.c:5858:genUnpackBits *{*
                      00556 ;; ***  genUnpackBits  5859
                      00557 ;; >>> /home/sdcc-builder/build/sdcc-build/orig/sdcc/src/pic14/gen.c:5947:genUnpackBits
                      00558 ;;      1097 rIdx = r0x1057 
                      00559 ;; BANKOPT2 BANKSEL dropped; r0x1022 present in same bank as r0x101E
                      00560 ;       .line   35; "../../../lib/buffer.c"     if(len > BUFFER_SIZE - buffer.n) { // doesn't fit
0009   01??           00561         CLRF    r0x1022 ;id=1099,key=008,inCond:0,outCond:5,flow seq=00d,rIdx=r0x1057
                      00562 ;; ***  mov2w  1366  offset=0
                      00563 ;; >>> /home/sdcc-builder/build/sdcc-build/orig/sdcc/src/pic14/gen.c:1369:mov2w
000A   30??           00564         MOVLW   (_buffer + 16)  ;id=1102,key=009,inCond:400,outCond:10,flow seq=00d
                      00565 ;; >>> /home/sdcc-builder/build/sdcc-build/orig/sdcc/src/pic14/gen.c:5967:genUnpackBits
000B   39F0           00566         ANDLW   0xf0    ;id=1104,key=00a,inCond:410,outCond:14,flow seq=00d
                      00567 ;; >>> /home/sdcc-builder/build/sdcc-build/orig/sdcc/src/pic14/gen.c:1378:movwf
                      00568 ;;      1097 rIdx = r0x1057 
                      00569 ;; BANKOPT2 BANKSEL dropped; r0x1022 present in same bank as r0x101E
000C   00??           00570         MOVWF   r0x1022 ;id=1107,key=00b,inCond:10,outCond:1,flow seq=00d,rIdx=r0x1057
                      00571 ;;      1097 rIdx = r0x1057 
                      00572 ;;; /home/sdcc-builder/build/sdcc-build/orig/sdcc/src/pic14/gen.c:5050:AccRsh *{*
gpasm-1.5.2 #0 (Sep 16 2019) build/default/pr   9-16-2019  10:40:44         PAGE 12


LOC    OBJECT CODE    LINE  SOURCE TEXT
  VALUE

                      00573 ;; ***  AccRsh  5051
                      00574 ;; >>> /home/sdcc-builder/build/sdcc-build/orig/sdcc/src/pic14/gen.c:5096:AccRsh
                      00575 ;; BANKOPT2 BANKSEL dropped; r0x1022 present in same bank as r0x101E
000D   0E??           00576         SWAPF   r0x1022,F       ;id=1112,key=00c,inCond:1,outCond:1,flow seq=00d,rIdx=r0x1057
                      00577 ;; >>> /home/sdcc-builder/build/sdcc-build/orig/sdcc/src/pic14/gen.c:5132:AccRsh
000E   300F           00578         MOVLW   0x0f    ;id=1114,key=00d,inCond:400,outCond:10,flow seq=00d
                      00579 ;; >>> /home/sdcc-builder/build/sdcc-build/orig/sdcc/src/pic14/gen.c:5133:AccRsh
                      00580 ;; BANKOPT2 BANKSEL dropped; r0x1022 present in same bank as r0x101E
000F   05??           00581         ANDWF   r0x1022,F       ;id=1116,key=00e,inCond:11,outCond:5,flow seq=00d,rIdx=r0x1057
                      00582 ;; ***  addSign  857
                      00583 ;;; /home/sdcc-builder/build/sdcc-build/orig/sdcc/src/pic14/genarith.c:858:addSign *{*
                      00584 ;;; /home/sdcc-builder/build/sdcc-build/orig/sdcc/src/pic14/gen.c:2308:resultRemat *{*
                      00585 ;;; /home/sdcc-builder/build/sdcc-build/orig/sdcc/src/pic14/gen.c:7229:genCast *{*
                      00586 ;; ***  genCast  7230
                      00587 ;;      695 register type nRegs=1
                      00588 ;;      695 register type nRegs=2
                      00589 ;;      line = 7238 result AOP_REG=r0x1058, size=2, left -=-, size=0, right AOP_REG=r0x1057, size=1
                      00590 ;; >>> /home/sdcc-builder/build/sdcc-build/orig/sdcc/src/pic14/gen.c:7407:genCast
                      00591 ;;      1097 rIdx = r0x1057 
                      00592 ;;102   MOVF    r0x1022,W
                      00593 ;; >>> /home/sdcc-builder/build/sdcc-build/orig/sdcc/src/pic14/gen.c:7408:genCast
                      00594 ;;      1097 rIdx = r0x1058 
                      00595 ;; ***  addSign  857
                      00596 ;;; /home/sdcc-builder/build/sdcc-build/orig/sdcc/src/pic14/genarith.c:858:addSign *{*
                      00597 ;; >>> /home/sdcc-builder/build/sdcc-build/orig/sdcc/src/pic14/genarith.c:877:addSign
                      00598 ;;      1097 rIdx = r0x1059 
                      00599 ;; BANKOPT2 BANKSEL dropped; r0x1024 present in same bank as r0x101E
0010   01??           00600         CLRF    r0x1024 ;id=1135,key=00f,inCond:0,outCond:5,flow seq=00d,rIdx=r0x1059
                      00601 ;;; /home/sdcc-builder/build/sdcc-build/orig/sdcc/src/pic14/gen.c:2308:resultRemat *{*
                      00602 ;;; /home/sdcc-builder/build/sdcc-build/orig/sdcc/src/pic14/gen.c:7426:genDjnz *{*
                      00603 ;; ***  genDjnz  7427
                      00604 ;;; /home/sdcc-builder/build/sdcc-build/orig/sdcc/src/pic14/genarith.c:892:genMinus *{*
                      00605 ;; ***  genMinus  893
                      00606 ;;      695 register type nRegs=2
                      00607 ;;      695 register type nRegs=2
                      00608 ;;      result AOP_REG, left AOP_LIT, right AOP_REG
                      00609 ;; left is lit  line 1010 result AOP_REG, left AOP_LIT, right AOP_REG
                      00610 ;; ***  mov2w  1366  offset=0
                      00611 ;; >>> /home/sdcc-builder/build/sdcc-build/orig/sdcc/src/pic14/gen.c:1371:mov2w
                      00612 ;;      1097 rIdx = r0x1058 
                      00613 ;;101   MOVF    r0x1023,W
                      00614 ;; BANKOPT2 BANKSEL dropped; r0x1022 present in same bank as r0x101E
0011   08??           00615         MOVF    r0x1022,W       ;id=1838,key=010,inCond:1,outCond:14,flow seq=00d,rIdx=r0x1057
                      00616 ;; BANKOPT2 BANKSEL dropped; r0x1023 present in same bank as r0x101E
0012   00??           00617         MOVWF   r0x1023 ;id=1130,key=011,inCond:10,outCond:1,flow seq=00d,rIdx=r0x1058
                      00618 ;; >>> /home/sdcc-builder/build/sdcc-build/orig/sdcc/src/pic14/genarith.c:1049:genMinus
0013   3C10           00619         SUBLW   0x10    ;id=1150,key=012,inCond:410,outCond:1e,flow seq=00d
                      00620 ;; >>> /home/sdcc-builder/build/sdcc-build/orig/sdcc/src/pic14/genarith.c:1050:genMinus
                      00621 ;;      1097 rIdx = r0x1057 
                      00622 ;; BANKOPT2 BANKSEL dropped; r0x1022 present in same bank as r0x101E
0014   00??           00623         MOVWF   r0x1022 ;id=1153,key=013,inCond:10,outCond:1,flow seq=00d,rIdx=r0x1057
                      00624 ;; ***  mov2w  1366  offset=1
                      00625 ;; >>> /home/sdcc-builder/build/sdcc-build/orig/sdcc/src/pic14/gen.c:1371:mov2w
gpasm-1.5.2 #0 (Sep 16 2019) build/default/pr   9-16-2019  10:40:44         PAGE 13


LOC    OBJECT CODE    LINE  SOURCE TEXT
  VALUE

                      00626 ;;      1097 rIdx = r0x1059 
0015   3000           00627         MOVLW   0x00    ;id=1842,key=014,inCond:400,outCond:10,flow seq=00d
                      00628 ;; >>> /home/sdcc-builder/build/sdcc-build/orig/sdcc/src/pic14/genarith.c:1145:genMinus
0016   1C03           00629         BTFSS   STATUS,0        ;id=1159,key=015,inCond:23,outCond:0,flow seq=00d
                      00630 ;<>Start of new flow, seq=0xe ancestor = 0xd
                      00631 ;  from: 00d ; to: 00f 
                      00632 ;; >>> /home/sdcc-builder/build/sdcc-build/orig/sdcc/src/pic14/genarith.c:1146:genMinus
                      00633 ;;      1097 rIdx = r0x1059 
                      00634 ;; BANKOPT2 BANKSEL dropped; r0x1024 present in same bank as r0x101E
0017   0A??           00635         INCF    r0x1024,W       ;id=1162,key=000,inCond:1,outCond:14,flow seq=00e,rIdx=r0x1059
                      00636 ;<>Start of new flow, seq=0xf ancestor = 0xd
                      00637 ;  from: 00e 00d ; to: 011 010 
                      00638 ;; >>> /home/sdcc-builder/build/sdcc-build/orig/sdcc/src/pic14/genarith.c:1149:genMinus
0018   3C00           00639         SUBLW   0x00    ;id=1164,key=000,inCond:410,outCond:1e,flow seq=00f
                      00640 ;; >>> /home/sdcc-builder/build/sdcc-build/orig/sdcc/src/pic14/genarith.c:1150:genMinus
                      00641 ;;      1097 rIdx = r0x105A 
                      00642 ;; BANKOPT2 BANKSEL dropped; r0x1025 present in same bank as r0x101E
0019   00??           00643         MOVWF   r0x1025 ;id=1167,key=001,inCond:10,outCond:1,flow seq=00f,rIdx=r0x105A
                      00644 ;;; /home/sdcc-builder/build/sdcc-build/orig/sdcc/src/pic14/gen.c:2308:resultRemat *{*
                      00645 ;;; /home/sdcc-builder/build/sdcc-build/orig/sdcc/src/pic14/gen.c:7229:genCast *{*
                      00646 ;; ***  genCast  7230
                      00647 ;;      695 register type nRegs=1
                      00648 ;;      695 register type nRegs=2
                      00649 ;;      line = 7238 result AOP_REG=r0x1058, size=2, left -=-, size=0, right AOP_REG=r0x1056, size=1
                      00650 ;; >>> /home/sdcc-builder/build/sdcc-build/orig/sdcc/src/pic14/gen.c:7407:genCast
                      00651 ;;      1097 rIdx = r0x1056 
                      00652 ;; BANKOPT2 BANKSEL dropped; r0x1021 present in same bank as r0x101E
001A   08??           00653         MOVF    r0x1021,W       ;id=1176,key=002,inCond:1,outCond:14,flow seq=00f,rIdx=r0x1056
                      00654 ;; >>> /home/sdcc-builder/build/sdcc-build/orig/sdcc/src/pic14/gen.c:7408:genCast
                      00655 ;;      1097 rIdx = r0x1058 
                      00656 ;; BANKOPT2 BANKSEL dropped; r0x1023 present in same bank as r0x101E
001B   00??           00657         MOVWF   r0x1023 ;id=1179,key=003,inCond:10,outCond:1,flow seq=00f,rIdx=r0x1058
                      00658 ;; ***  addSign  857
                      00659 ;;; /home/sdcc-builder/build/sdcc-build/orig/sdcc/src/pic14/genarith.c:858:addSign *{*
                      00660 ;; >>> /home/sdcc-builder/build/sdcc-build/orig/sdcc/src/pic14/genarith.c:877:addSign
                      00661 ;;      1097 rIdx = r0x1059 
                      00662 ;; BANKOPT2 BANKSEL dropped; r0x1024 present in same bank as r0x101E
001C   01??           00663         CLRF    r0x1024 ;id=1184,key=004,inCond:0,outCond:5,flow seq=00f,rIdx=r0x1059
                      00664 ;;; /home/sdcc-builder/build/sdcc-build/orig/sdcc/src/pic14/gen.c:2308:resultRemat *{*
                      00665 ;;; /home/sdcc-builder/build/sdcc-build/orig/sdcc/src/pic14/gen.c:3566:genCmpGt *{*
                      00666 ;; ***  genCmpGt  3567
                      00667 ;;      695 register type nRegs=2
                      00668 ;;      695 register type nRegs=2
                      00669 ;;; /home/sdcc-builder/build/sdcc-build/orig/sdcc/src/pic14/gen.c:3304:genCmp *{*
                      00670 ;; ***  mov2w  1366  offset=1
                      00671 ;; >>> /home/sdcc-builder/build/sdcc-build/orig/sdcc/src/pic14/gen.c:1371:mov2w
                      00672 ;;      1097 rIdx = r0x105A 
                      00673 ;; BANKOPT2 BANKSEL dropped; r0x1025 present in same bank as r0x101E
001D   08??           00674         MOVF    r0x1025,W       ;id=1194,key=005,inCond:1,outCond:14,flow seq=00f,rIdx=r0x105A
                      00675 ;; >>> /home/sdcc-builder/build/sdcc-build/orig/sdcc/src/pic14/gen.c:3472:genCmp
001E   3E80           00676         ADDLW   0x80    ;id=1196,key=006,inCond:410,outCond:1e,flow seq=00f
                      00677 ;; >>> /home/sdcc-builder/build/sdcc-build/orig/sdcc/src/pic14/gen.c:3473:genCmp
                      00678 ;; BANKOPT2 BANKSEL dropped; r0x1026 present in same bank as r0x101E
gpasm-1.5.2 #0 (Sep 16 2019) build/default/pr   9-16-2019  10:40:44         PAGE 14


LOC    OBJECT CODE    LINE  SOURCE TEXT
  VALUE

001F   00??           00679         MOVWF   r0x1026 ;id=1198,key=007,inCond:10,outCond:1,flow seq=00f,rIdx=r0x105B
                      00680 ;; ***  mov2w  1366  offset=1
                      00681 ;; >>> /home/sdcc-builder/build/sdcc-build/orig/sdcc/src/pic14/gen.c:1371:mov2w
                      00682 ;;      1097 rIdx = r0x1059 
0020   3000           00683         MOVLW   0x00    ;id=1841,key=008,inCond:400,outCond:10,flow seq=00f
                      00684 ;; >>> /home/sdcc-builder/build/sdcc-build/orig/sdcc/src/pic14/gen.c:3475:genCmp
0021   3E80           00685         ADDLW   0x80    ;id=1204,key=009,inCond:410,outCond:1e,flow seq=00f
                      00686 ;; >>> /home/sdcc-builder/build/sdcc-build/orig/sdcc/src/pic14/gen.c:3476:genCmp
                      00687 ;; BANKOPT2 BANKSEL dropped; r0x1026 present in same bank as r0x101E
0022   02??           00688         SUBWF   r0x1026,W       ;id=1206,key=00a,inCond:11,outCond:1e,flow seq=00f,rIdx=r0x105B
                      00689 ;; >>> /home/sdcc-builder/build/sdcc-build/orig/sdcc/src/pic14/gen.c:3487:genCmp
0023   1D03           00690         BTFSS   STATUS,2        ;id=1208,key=00b,inCond:25,outCond:0,flow seq=00f
                      00691 ;<>Start of new flow, seq=0x10 ancestor = 0xf
                      00692 ;  from: 00f ; to: 012 
                      00693 ;; >>> /home/sdcc-builder/build/sdcc-build/orig/sdcc/src/pic14/gen.c:3495:genCmp
                      00694 ;; ***  popGetLabel  key=22, label offset 41
0024   2???           00695         GOTO    _00163_DS_      ;id=1211,key=000,inCond:0,outCond:0,flow seq=010
                      00696 ;<>Start of new flow, seq=0x11 ancestor = 0xf
                      00697 ;  from: 00f ; to: 012 
                      00698 ;; >>> /home/sdcc-builder/build/sdcc-build/orig/sdcc/src/pic14/gen.c:3279:pic14_mov2w_regOrLit
                      00699 ;;      1097 rIdx = r0x1058 
                      00700 ;; BANKOPT2 BANKSEL dropped; r0x1023 present in same bank as r0x101E
0025   08??           00701         MOVF    r0x1023,W       ;id=1214,key=000,inCond:1,outCond:14,flow seq=011,rIdx=r0x1058
                      00702 ;; >>> /home/sdcc-builder/build/sdcc-build/orig/sdcc/src/pic14/gen.c:3499:genCmp
                      00703 ;;      1097 rIdx = r0x1057 
                      00704 ;; BANKOPT2 BANKSEL dropped; r0x1022 present in same bank as r0x101E
0026   02??           00705         SUBWF   r0x1022,W       ;id=1217,key=001,inCond:11,outCond:1e,flow seq=011,rIdx=r0x1057
                      00706 ;<>Start of new flow, seq=0x12 ancestor = 0x10
                      00707 ;  from: 011 010 ; to: 014 013 
                      00708 ;;; /home/sdcc-builder/build/sdcc-build/orig/sdcc/src/pic14/gen.c:3247:genSkipc *{*
                      00709 ;; >>> /home/sdcc-builder/build/sdcc-build/orig/sdcc/src/pic14/gen.c:3252:genSkipc
                      00710 ;; BANKOPT3 drop assumptions: PCI with label or call found
                      00711 ;; BANKOPT1 BANKSEL dropped; STATUS present in all of (null)'s banks
0027                  00712 _00163_DS_:
0027   1803           00713         BTFSC   STATUS,0        ;id=1221,key=000,inCond:23,outCond:0,flow seq=012
                      00714 ;<>Start of new flow, seq=0x13 ancestor = 0x12
                      00715 ;  from: 012 ; to: 015 
                      00716 ;; >>> /home/sdcc-builder/build/sdcc-build/orig/sdcc/src/pic14/gen.c:3256:genSkipc
                      00717 ;; ***  popGetLabel  key=11, label offset 41
0028   2???           00718         GOTO    _00152_DS_      ;id=1224,key=000,inCond:0,outCond:0,flow seq=013
                      00719 ;<>Start of new flow, seq=0x14 ancestor = 0x12
                      00720 ;  from: 012 ; to: 023 
                      00721 ;;genSkipc:3257: created from rifx:0000000004785780
                      00722 ;;; /home/sdcc-builder/build/sdcc-build/orig/sdcc/src/pic14/gen.c:2308:resultRemat *{*
                      00723 ;;; /home/sdcc-builder/build/sdcc-build/orig/sdcc/src/pic14/gen.c:2308:resultRemat *{*
                      00724 ;;; /home/sdcc-builder/build/sdcc-build/orig/sdcc/src/pic14/gen.c:2675:genRet *{*
                      00725 ;; ***  genRet  2677
                      00726 ;;; /home/sdcc-builder/build/sdcc-build/orig/sdcc/src/pic14/gen.c:1328:mov2w_op *{*
                      00727 ;; >>> /home/sdcc-builder/build/sdcc-build/orig/sdcc/src/pic14/gen.c:1346:mov2w_op
                      00728 ;       .line   45; "../../../lib/buffer.c"     return -1;
0029   30FF           00729         MOVLW   0xff    ;id=1233,key=000,inCond:400,outCond:10,flow seq=014
                      00730 ;; >>> /home/sdcc-builder/build/sdcc-build/orig/sdcc/src/pic14/gen.c:2701:genRet
                      00731 ;; ***  popGetLabel  key=7, label offset 41
gpasm-1.5.2 #0 (Sep 16 2019) build/default/pr   9-16-2019  10:40:44         PAGE 15


LOC    OBJECT CODE    LINE  SOURCE TEXT
  VALUE

002A   2???           00732         GOTO    _00148_DS_      ;id=1236,key=001,inCond:0,outCond:0,flow seq=014
                      00733 ;<>Start of new flow, seq=0x15 ancestor = 0x13
                      00734 ;  from: 013 ; to: 016 
                      00735 ;;; /home/sdcc-builder/build/sdcc-build/orig/sdcc/src/pic14/gen.c:2308:resultRemat *{*
                      00736 ;;; /home/sdcc-builder/build/sdcc-build/orig/sdcc/src/pic14/gen.c:2752:genLabel *{*
                      00737 ;; ***  genLabel  2755
                      00738 ;_00152_DS_:
                      00739 ;;; /home/sdcc-builder/build/sdcc-build/orig/sdcc/src/pic14/gen.c:2308:resultRemat *{*
                      00740 ;;; /home/sdcc-builder/build/sdcc-build/orig/sdcc/src/pic14/gen.c:2308:resultRemat *{*
                      00741 ;;; /home/sdcc-builder/build/sdcc-build/orig/sdcc/src/pic14/gen.c:7036:genAssign *{*
                      00742 ;; ***  genAssign  7037
                      00743 ;;      695 register type nRegs=1
                      00744 ;;      line = 7046 result AOP_REG=r0x1057, size=1, left -=-, size=0, right AOP_LIT=0x00, size=1
                      00745 ;; ***  genAssign  7132
                      00746 ;; >>> /home/sdcc-builder/build/sdcc-build/orig/sdcc/src/pic14/gen.c:7144:genAssign
                      00747 ;;      1097 rIdx = r0x1057 
                      00748 ;; BANKOPT3 drop assumptions: PCI with label or call found
002B                  00749 _00152_DS_:
                      00750 ;       .line   47; "../../../lib/buffer.c"     for(i = 0; i < len; i++) {
002B   0??? 0???      00751         BANKSEL r0x1022 ;id=1893,key=000,inCond:0,outCond:0,flow seq=015
002D   01??           00752         CLRF    r0x1022 ;id=1252,key=001,inCond:0,outCond:5,flow seq=015,rIdx=r0x1057
                      00753 ;<>Start of new flow, seq=0x16 ancestor = 0x15
                      00754 ;  from: 021 015 ; to: 018 017 
                      00755 ;;; /home/sdcc-builder/build/sdcc-build/orig/sdcc/src/pic14/gen.c:2308:resultRemat *{*
                      00756 ;;; /home/sdcc-builder/build/sdcc-build/orig/sdcc/src/pic14/gen.c:2752:genLabel *{*
                      00757 ;; ***  genLabel  2755
                      00758 ;_00146_DS_:
                      00759 ;;; /home/sdcc-builder/build/sdcc-build/orig/sdcc/src/pic14/gen.c:2308:resultRemat *{*
                      00760 ;;; /home/sdcc-builder/build/sdcc-build/orig/sdcc/src/pic14/gen.c:3602:genCmpLt *{*
                      00761 ;; ***  genCmpLt  3603
                      00762 ;;      695 register type nRegs=1
                      00763 ;;      695 register type nRegs=1
                      00764 ;;; /home/sdcc-builder/build/sdcc-build/orig/sdcc/src/pic14/gen.c:3304:genCmp *{*
                      00765 ;; >>> /home/sdcc-builder/build/sdcc-build/orig/sdcc/src/pic14/gen.c:3279:pic14_mov2w_regOrLit
                      00766 ;;      1097 rIdx = r0x1056 
                      00767 ;; BANKOPT3 drop assumptions: PCI with label or call found
002E                  00768 _00146_DS_:
002E   0??? 0???      00769         BANKSEL r0x1021 ;id=1895,key=000,inCond:0,outCond:0,flow seq=016
0030   08??           00770         MOVF    r0x1021,W       ;id=1266,key=001,inCond:1,outCond:14,flow seq=016,rIdx=r0x1056
                      00771 ;; >>> /home/sdcc-builder/build/sdcc-build/orig/sdcc/src/pic14/gen.c:3442:genCmp
                      00772 ;;      1097 rIdx = r0x1057 
                      00773 ;; BANKOPT2 BANKSEL dropped; r0x1022 present in same bank as r0x1021
0031   02??           00774         SUBWF   r0x1022,W       ;id=1269,key=002,inCond:11,outCond:1e,flow seq=016,rIdx=r0x1057
                      00775 ;;; /home/sdcc-builder/build/sdcc-build/orig/sdcc/src/pic14/gen.c:3247:genSkipc *{*
                      00776 ;; >>> /home/sdcc-builder/build/sdcc-build/orig/sdcc/src/pic14/gen.c:3252:genSkipc
0032   1803           00777         BTFSC   STATUS,0        ;id=1273,key=003,inCond:23,outCond:0,flow seq=016
                      00778 ;<>Start of new flow, seq=0x17 ancestor = 0x16
                      00779 ;  from: 016 ; to: 022 
                      00780 ;; >>> /home/sdcc-builder/build/sdcc-build/orig/sdcc/src/pic14/gen.c:3256:genSkipc
                      00781 ;; ***  popGetLabel  key=3, label offset 41
0033   2???           00782         GOTO    _00144_DS_      ;id=1276,key=000,inCond:0,outCond:0,flow seq=017
                      00783 ;<>Start of new flow, seq=0x18 ancestor = 0x16
                      00784 ;  from: 016 ; to: 01a 019 
gpasm-1.5.2 #0 (Sep 16 2019) build/default/pr   9-16-2019  10:40:44         PAGE 16


LOC    OBJECT CODE    LINE  SOURCE TEXT
  VALUE

                      00785 ;;genSkipc:3257: created from rifx:0000000004785780
                      00786 ;;; /home/sdcc-builder/build/sdcc-build/orig/sdcc/src/pic14/gen.c:2308:resultRemat *{*
                      00787 ;;; /home/sdcc-builder/build/sdcc-build/orig/sdcc/src/pic14/gen.c:2308:resultRemat *{*
                      00788 ;;; /home/sdcc-builder/build/sdcc-build/orig/sdcc/src/pic14/gen.c:6260:genPointerGet *{*
                      00789 ;; ***  genPointerGet  6261
                      00790 ;;; /home/sdcc-builder/build/sdcc-build/orig/sdcc/src/pic14/gen.c:6042:genNearPointerGet *{*
                      00791 ;; ***  genNearPointerGet  6043
                      00792 ;;      614
                      00793 ;;      aopForRemat 393
                      00794 ;;      419: rname _buffer, val 16, const = 0
                      00795 ;; ***  genNearPointerGet  6059
                      00796 ;;      695 register type nRegs=1
                      00797 ;;; /home/sdcc-builder/build/sdcc-build/orig/sdcc/src/pic14/gen.c:5858:genUnpackBits *{*
                      00798 ;; ***  genUnpackBits  5859
                      00799 ;; >>> /home/sdcc-builder/build/sdcc-build/orig/sdcc/src/pic14/gen.c:5947:genUnpackBits
                      00800 ;;      1097 rIdx = r0x1058 
                      00801 ;; BANKOPT2 BANKSEL dropped; r0x1023 present in same bank as r0x1021
                      00802 ;       .line   48; "../../../lib/buffer.c"     buffer.x[buffer.n + i] = buf[i];
0034   01??           00803         CLRF    r0x1023 ;id=1294,key=000,inCond:0,outCond:5,flow seq=018,rIdx=r0x1058
                      00804 ;; ***  mov2w  1366  offset=0
                      00805 ;; >>> /home/sdcc-builder/build/sdcc-build/orig/sdcc/src/pic14/gen.c:1369:mov2w
0035   30??           00806         MOVLW   (_buffer + 16)  ;id=1297,key=001,inCond:400,outCond:10,flow seq=018
                      00807 ;; >>> /home/sdcc-builder/build/sdcc-build/orig/sdcc/src/pic14/gen.c:5967:genUnpackBits
0036   39F0           00808         ANDLW   0xf0    ;id=1299,key=002,inCond:410,outCond:14,flow seq=018
                      00809 ;; >>> /home/sdcc-builder/build/sdcc-build/orig/sdcc/src/pic14/gen.c:1378:movwf
                      00810 ;;      1097 rIdx = r0x1058 
                      00811 ;; BANKOPT2 BANKSEL dropped; r0x1023 present in same bank as r0x1021
0037   00??           00812         MOVWF   r0x1023 ;id=1302,key=003,inCond:10,outCond:1,flow seq=018,rIdx=r0x1058
                      00813 ;;      1097 rIdx = r0x1058 
                      00814 ;;; /home/sdcc-builder/build/sdcc-build/orig/sdcc/src/pic14/gen.c:5050:AccRsh *{*
                      00815 ;; ***  AccRsh  5051
                      00816 ;; >>> /home/sdcc-builder/build/sdcc-build/orig/sdcc/src/pic14/gen.c:5096:AccRsh
                      00817 ;; BANKOPT2 BANKSEL dropped; r0x1023 present in same bank as r0x1021
0038   0E??           00818         SWAPF   r0x1023,F       ;id=1307,key=004,inCond:1,outCond:1,flow seq=018,rIdx=r0x1058
                      00819 ;; >>> /home/sdcc-builder/build/sdcc-build/orig/sdcc/src/pic14/gen.c:5132:AccRsh
0039   300F           00820         MOVLW   0x0f    ;id=1309,key=005,inCond:400,outCond:10,flow seq=018
                      00821 ;; >>> /home/sdcc-builder/build/sdcc-build/orig/sdcc/src/pic14/gen.c:5133:AccRsh
                      00822 ;; BANKOPT2 BANKSEL dropped; r0x1023 present in same bank as r0x1021
003A   05??           00823         ANDWF   r0x1023,F       ;id=1311,key=006,inCond:11,outCond:5,flow seq=018,rIdx=r0x1058
                      00824 ;; ***  addSign  857
                      00825 ;;; /home/sdcc-builder/build/sdcc-build/orig/sdcc/src/pic14/genarith.c:858:addSign *{*
                      00826 ;;; /home/sdcc-builder/build/sdcc-build/orig/sdcc/src/pic14/gen.c:2308:resultRemat *{*
                      00827 ;;; /home/sdcc-builder/build/sdcc-build/orig/sdcc/src/pic14/gen.c:7229:genCast *{*
                      00828 ;; ***  genCast  7230
                      00829 ;;      695 register type nRegs=1
                      00830 ;;      695 register type nRegs=1
                      00831 ;;      line = 7238 result AOP_REG=r0x1059, size=1, left -=-, size=0, right AOP_REG=r0x1058, size=1
                      00832 ;; ***  genCast  7362
                      00833 ;; >>> /home/sdcc-builder/build/sdcc-build/orig/sdcc/src/pic14/gen.c:7386:genCast
                      00834 ;;      1097 rIdx = r0x1058 
                      00835 ;; BANKOPT2 BANKSEL dropped; r0x1023 present in same bank as r0x1021
003B   08??           00836         MOVF    r0x1023,W       ;id=1323,key=007,inCond:1,outCond:14,flow seq=018,rIdx=r0x1058
                      00837 ;; >>> /home/sdcc-builder/build/sdcc-build/orig/sdcc/src/pic14/gen.c:7387:genCast
gpasm-1.5.2 #0 (Sep 16 2019) build/default/pr   9-16-2019  10:40:44         PAGE 17


LOC    OBJECT CODE    LINE  SOURCE TEXT
  VALUE

                      00838 ;;      1097 rIdx = r0x1059 
                      00839 ;; BANKOPT2 BANKSEL dropped; r0x1024 present in same bank as r0x1021
003C   00??           00840         MOVWF   r0x1024 ;id=1326,key=008,inCond:10,outCond:1,flow seq=018,rIdx=r0x1059
                      00841 ;;; /home/sdcc-builder/build/sdcc-build/orig/sdcc/src/pic14/gen.c:2308:resultRemat *{*
                      00842 ;;; /home/sdcc-builder/build/sdcc-build/orig/sdcc/src/pic14/gen.c:7229:genCast *{*
                      00843 ;; ***  genCast  7230
                      00844 ;;      695 register type nRegs=1
                      00845 ;;      695 register type nRegs=1
                      00846 ;;      line = 7238 result AOP_REG=r0x1058, size=1, left -=-, size=0, right AOP_REG=r0x1057, size=1
                      00847 ;; ***  genCast  7362
                      00848 ;; >>> /home/sdcc-builder/build/sdcc-build/orig/sdcc/src/pic14/gen.c:7386:genCast
                      00849 ;;      1097 rIdx = r0x1057 
                      00850 ;; BANKOPT2 BANKSEL dropped; r0x1022 present in same bank as r0x1021
003D   08??           00851         MOVF    r0x1022,W       ;id=1820,key=009,inCond:1,outCond:14,flow seq=018,rIdx=r0x1057
                      00852 ;; BANKOPT2 BANKSEL dropped; r0x1023 present in same bank as r0x1021
003E   00??           00853         MOVWF   r0x1023 ;id=1821,key=00a,inCond:10,outCond:1,flow seq=018,rIdx=r0x1058
                      00854 ;; BANKOPT2 BANKSEL dropped; r0x1024 present in same bank as r0x1021
003F   07??           00855         ADDWF   r0x1024,F       ;id=1356,key=00b,inCond:11,outCond:f,flow seq=018,rIdx=r0x1059
                      00856 ;;; /home/sdcc-builder/build/sdcc-build/orig/sdcc/src/pic14/gen.c:2308:resultRemat *{*
                      00857 ;; ***  genPlus  607
                      00858 ;;; /home/sdcc-builder/build/sdcc-build/orig/sdcc/src/pic14/genarith.c:608:genPlus *{*
                      00859 ;;      614
                      00860 ;;      aopForRemat 393
                      00861 ;;      419: rname _buffer, val 0, const = 0
                      00862 ;;      695 register type nRegs=1
                      00863 ;;      695 register type nRegs=2
                      00864 ;;      824: aopGet AOP_PCODE type PO_IMMEDIATE
                      00865 ;;      _buffer
                      00866 ;;      line = 614 result AOP_REG=r0x1059, size=2, left AOP_PCODE=_buffer, size=2, right AOP_REG=r0x1059
                            , size=1
                      00867 ;;; /home/sdcc-builder/build/sdcc-build/orig/sdcc/src/pic14/genarith.c:138:genPlusIncr *{*
                      00868 ;; ***  genPlusIncr  140
                      00869 ;;      result AOP_REG, left AOP_PCODE, right AOP_REG
                      00870 ;; ***  genPlus  713
                      00871 ;;      824: aopGet AOP_PCODE type PO_IMMEDIATE
                      00872 ;;      _buffer
                      00873 ;; >>> /home/sdcc-builder/build/sdcc-build/orig/sdcc/src/pic14/genarith.c:722:genPlus
                      00874 ;;      1097 rIdx = r0x1059 
                      00875 ;; BANKOPT2 BANKSEL dropped; r0x1024 present in same bank as r0x1021
0040   08??           00876         MOVF    r0x1024,W       ;id=1376,key=00c,inCond:1,outCond:14,flow seq=018,rIdx=r0x1059
                      00877 ;; >>> /home/sdcc-builder/build/sdcc-build/orig/sdcc/src/pic14/genarith.c:731:genPlus
0041   3E??           00878         ADDLW   (_buffer + 0)   ;id=1378,key=00d,inCond:410,outCond:1e,flow seq=018
                      00879 ;; >>> /home/sdcc-builder/build/sdcc-build/orig/sdcc/src/pic14/genarith.c:732:genPlus
                      00880 ;;      1097 rIdx = r0x1059 
                      00881 ;; BANKOPT2 BANKSEL dropped; r0x1024 present in same bank as r0x1021
0042   00??           00882         MOVWF   r0x1024 ;id=1381,key=00e,inCond:10,outCond:1,flow seq=018,rIdx=r0x1059
                      00883 ;; >>> /home/sdcc-builder/build/sdcc-build/orig/sdcc/src/pic14/genarith.c:795:genPlus
0043   30??           00884         MOVLW   high (_buffer + 0)      ;id=1383,key=00f,inCond:400,outCond:10,flow seq=018
                      00885 ;; >>> /home/sdcc-builder/build/sdcc-build/orig/sdcc/src/pic14/genarith.c:796:genPlus
0044   1803           00886         BTFSC   STATUS,0        ;id=1385,key=010,inCond:23,outCond:0,flow seq=018
                      00887 ;<>Start of new flow, seq=0x19 ancestor = 0x18
                      00888 ;  from: 018 ; to: 01a 
                      00889 ;; >>> /home/sdcc-builder/build/sdcc-build/orig/sdcc/src/pic14/genarith.c:797:genPlus
gpasm-1.5.2 #0 (Sep 16 2019) build/default/pr   9-16-2019  10:40:44         PAGE 18


LOC    OBJECT CODE    LINE  SOURCE TEXT
  VALUE

0045   3E01           00890         ADDLW   0x01    ;id=1387,key=000,inCond:410,outCond:1e,flow seq=019
                      00891 ;<>Start of new flow, seq=0x1a ancestor = 0x18
                      00892 ;  from: 019 018 ; to: 01c 01b 
                      00893 ;; >>> /home/sdcc-builder/build/sdcc-build/orig/sdcc/src/pic14/genarith.c:798:genPlus
                      00894 ;;      1097 rIdx = r0x1058 
                      00895 ;; BANKOPT2 BANKSEL dropped; r0x1023 present in same bank as r0x1021
0046   00??           00896         MOVWF   r0x1023 ;id=1390,key=000,inCond:10,outCond:1,flow seq=01a,rIdx=r0x1058
                      00897 ;;; /home/sdcc-builder/build/sdcc-build/orig/sdcc/src/pic14/gen.c:2308:resultRemat *{*
                      00898 ;; ***  genPlus  607
                      00899 ;;; /home/sdcc-builder/build/sdcc-build/orig/sdcc/src/pic14/genarith.c:608:genPlus *{*
                      00900 ;;      695 register type nRegs=3
                      00901 ;;      695 register type nRegs=1
                      00902 ;;      695 register type nRegs=3
                      00903 ;;      line = 614 result AOP_REG=r0x105A, size=3, left AOP_REG=r0x1053, size=3, right AOP_REG=r0x1057, 
                            size=1
                      00904 ;;; /home/sdcc-builder/build/sdcc-build/orig/sdcc/src/pic14/genarith.c:138:genPlusIncr *{*
                      00905 ;; ***  genPlusIncr  140
                      00906 ;;      result AOP_REG, left AOP_REG, right AOP_REG
                      00907 ;; ***  genPlus  713
                      00908 ;; >>> /home/sdcc-builder/build/sdcc-build/orig/sdcc/src/pic14/genarith.c:722:genPlus
                      00909 ;;      1097 rIdx = r0x1057 
                      00910 ;; BANKOPT2 BANKSEL dropped; r0x1022 present in same bank as r0x1021
0047   08??           00911         MOVF    r0x1022,W       ;id=1404,key=001,inCond:1,outCond:14,flow seq=01a,rIdx=r0x1057
                      00912 ;; >>> /home/sdcc-builder/build/sdcc-build/orig/sdcc/src/pic14/genarith.c:731:genPlus
                      00913 ;;      1097 rIdx = r0x1053 
                      00914 ;; BANKOPT2 BANKSEL dropped; r0x1020 present in same bank as r0x1021
0048   07??           00915         ADDWF   r0x1020,W       ;id=1407,key=002,inCond:11,outCond:1e,flow seq=01a,rIdx=r0x1053
                      00916 ;; >>> /home/sdcc-builder/build/sdcc-build/orig/sdcc/src/pic14/genarith.c:732:genPlus
                      00917 ;;      1097 rIdx = r0x105A 
                      00918 ;; BANKOPT2 BANKSEL dropped; r0x1025 present in same bank as r0x1021
0049   00??           00919         MOVWF   r0x1025 ;id=1410,key=003,inCond:10,outCond:1,flow seq=01a,rIdx=r0x105A
                      00920 ;; >>> /home/sdcc-builder/build/sdcc-build/orig/sdcc/src/pic14/genarith.c:795:genPlus
                      00921 ;;      1097 rIdx = r0x1054 
                      00922 ;; BANKOPT2 BANKSEL dropped; r0x101F present in same bank as r0x1021
004A   08??           00923         MOVF    r0x101F,W       ;id=1413,key=004,inCond:1,outCond:14,flow seq=01a,rIdx=r0x1054
                      00924 ;; >>> /home/sdcc-builder/build/sdcc-build/orig/sdcc/src/pic14/genarith.c:796:genPlus
004B   1803           00925         BTFSC   STATUS,0        ;id=1415,key=005,inCond:23,outCond:0,flow seq=01a
                      00926 ;<>Start of new flow, seq=0x1b ancestor = 0x1a
                      00927 ;  from: 01a ; to: 01c 
                      00928 ;; >>> /home/sdcc-builder/build/sdcc-build/orig/sdcc/src/pic14/genarith.c:797:genPlus
004C   3E01           00929         ADDLW   0x01    ;id=1417,key=000,inCond:410,outCond:1e,flow seq=01b
                      00930 ;<>Start of new flow, seq=0x1c ancestor = 0x1a
                      00931 ;  from: 01b 01a ; to: 01e 01d 
                      00932 ;; >>> /home/sdcc-builder/build/sdcc-build/orig/sdcc/src/pic14/genarith.c:798:genPlus
                      00933 ;;      1097 rIdx = r0x105B 
                      00934 ;; BANKOPT2 BANKSEL dropped; r0x1026 present in same bank as r0x1021
004D   00??           00935         MOVWF   r0x1026 ;id=1420,key=000,inCond:10,outCond:1,flow seq=01c,rIdx=r0x105B
                      00936 ;; >>> /home/sdcc-builder/build/sdcc-build/orig/sdcc/src/pic14/genarith.c:795:genPlus
                      00937 ;;      1097 rIdx = r0x1055 
                      00938 ;; BANKOPT2 BANKSEL dropped; r0x101E present in same bank as r0x1021
004E   08??           00939         MOVF    r0x101E,W       ;id=1423,key=001,inCond:1,outCond:14,flow seq=01c,rIdx=r0x1055
                      00940 ;; >>> /home/sdcc-builder/build/sdcc-build/orig/sdcc/src/pic14/genarith.c:796:genPlus
004F   1803           00941         BTFSC   STATUS,0        ;id=1425,key=002,inCond:23,outCond:0,flow seq=01c
gpasm-1.5.2 #0 (Sep 16 2019) build/default/pr   9-16-2019  10:40:44         PAGE 19


LOC    OBJECT CODE    LINE  SOURCE TEXT
  VALUE

                      00942 ;<>Start of new flow, seq=0x1d ancestor = 0x1c
                      00943 ;  from: 01c ; to: 01e 
                      00944 ;; >>> /home/sdcc-builder/build/sdcc-build/orig/sdcc/src/pic14/genarith.c:797:genPlus
0050   3E01           00945         ADDLW   0x01    ;id=1427,key=000,inCond:410,outCond:1e,flow seq=01d
                      00946 ;<>Start of new flow, seq=0x1e ancestor = 0x1c
                      00947 ;  from: 01d 01c ; to: 01f 
                      00948 ;; >>> /home/sdcc-builder/build/sdcc-build/orig/sdcc/src/pic14/genarith.c:798:genPlus
                      00949 ;;      1097 rIdx = r0x105C 
                      00950 ;; BANKOPT2 BANKSEL dropped; r0x1027 present in same bank as r0x1021
0051   00??           00951         MOVWF   r0x1027 ;id=1430,key=000,inCond:10,outCond:1,flow seq=01e,rIdx=r0x105C
                      00952 ;;; /home/sdcc-builder/build/sdcc-build/orig/sdcc/src/pic14/gen.c:2308:resultRemat *{*
                      00953 ;;; /home/sdcc-builder/build/sdcc-build/orig/sdcc/src/pic14/gen.c:6260:genPointerGet *{*
                      00954 ;; ***  genPointerGet  6261
                      00955 ;;; /home/sdcc-builder/build/sdcc-build/orig/sdcc/src/pic14/gen.c:6149:genGenPointerGet *{*
                      00956 ;; ***  genGenPointerGet  6150
                      00957 ;;      695 register type nRegs=3
                      00958 ;;      695 register type nRegs=1
                      00959 ;;      line = 6155 result AOP_REG=r0x105D, size=1, left AOP_REG=r0x105A, size=3, right -=-, size=0
                      00960 ;; ***  mov2w  1366  offset=0
                      00961 ;; >>> /home/sdcc-builder/build/sdcc-build/orig/sdcc/src/pic14/gen.c:1371:mov2w
                      00962 ;;      1097 rIdx = r0x105A 
                      00963 ;; BANKOPT2 BANKSEL dropped; r0x1025 present in same bank as r0x1021
0052   08??           00964         MOVF    r0x1025,W       ;id=1442,key=001,inCond:1,outCond:14,flow seq=01e,rIdx=r0x105A
                      00965 ;; >>> /home/sdcc-builder/build/sdcc-build/orig/sdcc/src/pic14/gen.c:6174:genGenPointerGet
                      00966 ;; ***  popRegFromIdx,1030  , rIdx=0x7e
                      00967 ;; BANKOPT1 BANKSEL dropped; STK01 present in all of r0x1021's banks
0053   00??           00968         MOVWF   STK01   ;id=1445,key=002,inCond:10,outCond:1,flow seq=01e
                      00969 ;; ***  mov2w  1366  offset=1
                      00970 ;; >>> /home/sdcc-builder/build/sdcc-build/orig/sdcc/src/pic14/gen.c:1371:mov2w
                      00971 ;;      1097 rIdx = r0x105B 
                      00972 ;; BANKOPT2 BANKSEL dropped; r0x1026 present in same bank as r0x1021
0054   08??           00973         MOVF    r0x1026,W       ;id=1449,key=003,inCond:1,outCond:14,flow seq=01e,rIdx=r0x105B
                      00974 ;; >>> /home/sdcc-builder/build/sdcc-build/orig/sdcc/src/pic14/gen.c:6176:genGenPointerGet
                      00975 ;; ***  popRegFromIdx,1030  , rIdx=0x7f
                      00976 ;; BANKOPT1 BANKSEL dropped; STK00 present in all of r0x1021's banks
0055   00??           00977         MOVWF   STK00   ;id=1452,key=004,inCond:10,outCond:1,flow seq=01e
                      00978 ;; ***  mov2w  1366  offset=2
                      00979 ;; >>> /home/sdcc-builder/build/sdcc-build/orig/sdcc/src/pic14/gen.c:1371:mov2w
                      00980 ;;      1097 rIdx = r0x105C 
                      00981 ;; BANKOPT2 BANKSEL dropped; r0x1027 present in same bank as r0x1021
0056   08??           00982         MOVF    r0x1027,W       ;id=1456,key=005,inCond:1,outCond:14,flow seq=01e,rIdx=r0x105C
                      00983 ;; >>> /home/sdcc-builder/build/sdcc-build/orig/sdcc/src/pic14/gen.c:1418:call_libraryfunc
0057   0??? 0???      00984         PAGESEL __gptrget1      ;id=1458,key=006,inCond:0,outCond:0,flow seq=01e
                      00985 ;; >>> /home/sdcc-builder/build/sdcc-build/orig/sdcc/src/pic14/gen.c:1420:call_libraryfunc
                      00986 ;; BANKOPT3 drop assumptions: PCI with label or call found
0059   2???           00987         CALL    __gptrget1      ;id=1460,key=007,inCond:10,outCond:1e,flow seq=01e
                      00988 ;<>Start of new flow, seq=0x1f ancestor = 0x1e
                      00989 ;  from: 01e ; to: 021 020 
                      00990 ;; >>> /home/sdcc-builder/build/sdcc-build/orig/sdcc/src/pic14/gen.c:1422:call_libraryfunc
005A   0??? 0???      00991         PAGESEL $       ;id=1462,key=000,inCond:0,outCond:0,flow seq=01f
                      00992 ;; >>> /home/sdcc-builder/build/sdcc-build/orig/sdcc/src/pic14/gen.c:1378:movwf
                      00993 ;;      1097 rIdx = r0x105D 
005C   0??? 0???      00994         BANKSEL r0x1028 ;id=1922,key=001,inCond:0,outCond:0,flow seq=01f
gpasm-1.5.2 #0 (Sep 16 2019) build/default/pr   9-16-2019  10:40:44         PAGE 20


LOC    OBJECT CODE    LINE  SOURCE TEXT
  VALUE

005E   00??           00995         MOVWF   r0x1028 ;id=1465,key=002,inCond:10,outCond:1,flow seq=01f,rIdx=r0x105D
                      00996 ;;; /home/sdcc-builder/build/sdcc-build/orig/sdcc/src/pic14/gen.c:2308:resultRemat *{*
                      00997 ;;; /home/sdcc-builder/build/sdcc-build/orig/sdcc/src/pic14/gen.c:6796:genPointerSet *{*
                      00998 ;; ***  genPointerSet  6797
                      00999 ;;; /home/sdcc-builder/build/sdcc-build/orig/sdcc/src/pic14/gen.c:6615:genNearPointerSet *{*
                      01000 ;; ***  genNearPointerSet  6616
                      01001 ;;      695 register type nRegs=2
                      01002 ;; ***  genNearPointerSet  6631
                      01003 ;;      695 register type nRegs=1
                      01004 ;;      line = 6633 result AOP_REG=r0x1059, size=2, left -=-, size=0, right AOP_REG=r0x105D, size=1
                      01005 ;;; /home/sdcc-builder/build/sdcc-build/orig/sdcc/src/pic14/gen.c:1328:mov2w_op *{*
                      01006 ;; ***  mov2w  1366  offset=0
                      01007 ;; >>> /home/sdcc-builder/build/sdcc-build/orig/sdcc/src/pic14/gen.c:1371:mov2w
                      01008 ;;      1097 rIdx = r0x1059 
                      01009 ;; BANKOPT2 BANKSEL dropped; r0x1024 present in same bank as r0x1028
005F   08??           01010         MOVF    r0x1024,W       ;id=1479,key=003,inCond:1,outCond:14,flow seq=01f,rIdx=r0x1059
                      01011 ;; >>> /home/sdcc-builder/build/sdcc-build/orig/sdcc/src/pic14/gen.c:5700:setup_fsr
0060   1283 1303      01012         BANKSEL FSR     ;id=1924,key=004,inCond:0,outCond:0,flow seq=01f
0062   0084           01013         MOVWF   FSR     ;id=1481,key=005,inCond:10,outCond:1,flow seq=01f
                      01014 ;;; /home/sdcc-builder/build/sdcc-build/orig/sdcc/src/pic14/gen.c:5651:SetIrp *{*
                      01015 ;; >>> /home/sdcc-builder/build/sdcc-build/orig/sdcc/src/pic14/gen.c:5678:SetIrp
                      01016 ;; BANKOPT1 BANKSEL dropped; STATUS present in all of FSR's banks
0063   1383           01017         BCF     STATUS,7        ;id=1484,key=006,inCond:21,outCond:21,flow seq=01f
                      01018 ;; >>> /home/sdcc-builder/build/sdcc-build/orig/sdcc/src/pic14/gen.c:5681:SetIrp
0064   0??? 0???      01019         BANKSEL r0x1023 ;id=1926,key=007,inCond:0,outCond:0,flow seq=01f
0066   18??           01020         BTFSC   r0x1023,0       ;id=1486,key=008,inCond:21,outCond:0,flow seq=01f
                      01021 ;<>Start of new flow, seq=0x20 ancestor = 0x1f
                      01022 ;  from: 01f ; to: 021 
                      01023 ;; >>> /home/sdcc-builder/build/sdcc-build/orig/sdcc/src/pic14/gen.c:5682:SetIrp
0067   1783           01024         BSF     STATUS,7        ;id=1488,key=000,inCond:21,outCond:21,flow seq=020
                      01025 ;<>Start of new flow, seq=0x21 ancestor = 0x1f
                      01026 ;  from: 020 01f ; to: 016 
                      01027 ;; ***  genNearPointerSet  6658
                      01028 ;; >>> /home/sdcc-builder/build/sdcc-build/orig/sdcc/src/pic14/gen.c:6674:genNearPointerSet
                      01029 ;;      1097 rIdx = r0x105D 
                      01030 ;; BANKOPT2 BANKSEL dropped; r0x1028 present in same bank as r0x1023
0068   08??           01031         MOVF    r0x1028,W       ;id=1492,key=000,inCond:1,outCond:14,flow seq=021,rIdx=r0x105D
                      01032 ;; >>> /home/sdcc-builder/build/sdcc-build/orig/sdcc/src/pic14/gen.c:6679:genNearPointerSet
0069   1283 1303      01033         BANKSEL INDF    ;id=1928,key=001,inCond:0,outCond:0,flow seq=021
006B   0080           01034         MOVWF   INDF    ;id=1494,key=002,inCond:10,outCond:1,flow seq=021
                      01035 ;; ***  genNearPointerSet  6687
                      01036 ;; ***  genNearPointerSet  6713
                      01037 ;;; /home/sdcc-builder/build/sdcc-build/orig/sdcc/src/pic14/gen.c:2308:resultRemat *{*
                      01038 ;; ***  genPlus  607
                      01039 ;;; /home/sdcc-builder/build/sdcc-build/orig/sdcc/src/pic14/genarith.c:608:genPlus *{*
                      01040 ;;      695 register type nRegs=1
                      01041 ;;      576
                      01042 ;;      line = 614 result AOP_REG=r0x1057, size=1, left AOP_REG=r0x1057, size=1, right AOP_LIT=0x01, siz
                            e=1
                      01043 ;;; /home/sdcc-builder/build/sdcc-build/orig/sdcc/src/pic14/genarith.c:138:genPlusIncr *{*
                      01044 ;; ***  genPlusIncr  140
                      01045 ;;      result AOP_REG, left AOP_REG, right AOP_LIT
                      01046 ;;      genPlusIncr  152
gpasm-1.5.2 #0 (Sep 16 2019) build/default/pr   9-16-2019  10:40:44         PAGE 21


LOC    OBJECT CODE    LINE  SOURCE TEXT
  VALUE

                      01047 ;; >>> /home/sdcc-builder/build/sdcc-build/orig/sdcc/src/pic14/genarith.c:164:genPlusIncr
                      01048 ;;      1097 rIdx = r0x1057 
                      01049 ;       .line   47; "../../../lib/buffer.c"     for(i = 0; i < len; i++) {
006C   0??? 0???      01050         BANKSEL r0x1022 ;id=1929,key=003,inCond:0,outCond:0,flow seq=021
006E   0A??           01051         INCF    r0x1022,F       ;id=1510,key=004,inCond:1,outCond:5,flow seq=021,rIdx=r0x1057
                      01052 ;;; /home/sdcc-builder/build/sdcc-build/orig/sdcc/src/pic14/gen.c:2308:resultRemat *{*
                      01053 ;;; /home/sdcc-builder/build/sdcc-build/orig/sdcc/src/pic14/gen.c:2770:genGoto *{*
                      01054 ;; >>> /home/sdcc-builder/build/sdcc-build/orig/sdcc/src/pic14/gen.c:2772:genGoto
                      01055 ;; ***  popGetLabel  key=5, label offset 41
006F   2???           01056         GOTO    _00146_DS_      ;id=1515,key=005,inCond:0,outCond:0,flow seq=021
                      01057 ;<>Start of new flow, seq=0x22 ancestor = 0x17
                      01058 ;  from: 017 ; to: 023 
                      01059 ;goto   _00146_DS_
                      01060 ;;; /home/sdcc-builder/build/sdcc-build/orig/sdcc/src/pic14/gen.c:2308:resultRemat *{*
                      01061 ;;; /home/sdcc-builder/build/sdcc-build/orig/sdcc/src/pic14/gen.c:2752:genLabel *{*
                      01062 ;; ***  genLabel  2755
                      01063 ;_00144_DS_:
                      01064 ;;; /home/sdcc-builder/build/sdcc-build/orig/sdcc/src/pic14/gen.c:2308:resultRemat *{*
                      01065 ;;; /home/sdcc-builder/build/sdcc-build/orig/sdcc/src/pic14/gen.c:2308:resultRemat *{*
                      01066 ;;; /home/sdcc-builder/build/sdcc-build/orig/sdcc/src/pic14/gen.c:2308:resultRemat *{*
                      01067 ;;; /home/sdcc-builder/build/sdcc-build/orig/sdcc/src/pic14/gen.c:6260:genPointerGet *{*
                      01068 ;; ***  genPointerGet  6261
                      01069 ;;; /home/sdcc-builder/build/sdcc-build/orig/sdcc/src/pic14/gen.c:6042:genNearPointerGet *{*
                      01070 ;; ***  genNearPointerGet  6043
                      01071 ;;      614
                      01072 ;;      aopForRemat 393
                      01073 ;;      419: rname _buffer, val 16, const = 0
                      01074 ;; ***  genNearPointerGet  6059
                      01075 ;;      695 register type nRegs=1
                      01076 ;;; /home/sdcc-builder/build/sdcc-build/orig/sdcc/src/pic14/gen.c:5858:genUnpackBits *{*
                      01077 ;; ***  genUnpackBits  5859
                      01078 ;; >>> /home/sdcc-builder/build/sdcc-build/orig/sdcc/src/pic14/gen.c:5947:genUnpackBits
                      01079 ;;      1097 rIdx = r0x1053 
                      01080 ;; BANKOPT3 drop assumptions: PCI with label or call found
0070                  01081 _00144_DS_:
                      01082 ;       .line   51; "../../../lib/buffer.c"     buffer.n += len;
0070   0??? 0???      01083         BANKSEL r0x1020 ;id=1931,key=000,inCond:0,outCond:0,flow seq=022
0072   01??           01084         CLRF    r0x1020 ;id=1539,key=001,inCond:0,outCond:5,flow seq=022,rIdx=r0x1053
                      01085 ;; ***  mov2w  1366  offset=0
                      01086 ;; >>> /home/sdcc-builder/build/sdcc-build/orig/sdcc/src/pic14/gen.c:1369:mov2w
0073   30??           01087         MOVLW   (_buffer + 16)  ;id=1542,key=002,inCond:400,outCond:10,flow seq=022
                      01088 ;; >>> /home/sdcc-builder/build/sdcc-build/orig/sdcc/src/pic14/gen.c:5967:genUnpackBits
0074   39F0           01089         ANDLW   0xf0    ;id=1544,key=003,inCond:410,outCond:14,flow seq=022
                      01090 ;; >>> /home/sdcc-builder/build/sdcc-build/orig/sdcc/src/pic14/gen.c:1378:movwf
                      01091 ;;      1097 rIdx = r0x1053 
                      01092 ;; BANKOPT2 BANKSEL dropped; r0x1020 present in same bank as r0x1020
0075   00??           01093         MOVWF   r0x1020 ;id=1547,key=004,inCond:10,outCond:1,flow seq=022,rIdx=r0x1053
                      01094 ;;      1097 rIdx = r0x1053 
                      01095 ;;; /home/sdcc-builder/build/sdcc-build/orig/sdcc/src/pic14/gen.c:5050:AccRsh *{*
                      01096 ;; ***  AccRsh  5051
                      01097 ;; >>> /home/sdcc-builder/build/sdcc-build/orig/sdcc/src/pic14/gen.c:5096:AccRsh
                      01098 ;; BANKOPT2 BANKSEL dropped; r0x1020 present in same bank as r0x1020
0076   0E??           01099         SWAPF   r0x1020,F       ;id=1552,key=005,inCond:1,outCond:1,flow seq=022,rIdx=r0x1053
gpasm-1.5.2 #0 (Sep 16 2019) build/default/pr   9-16-2019  10:40:44         PAGE 22


LOC    OBJECT CODE    LINE  SOURCE TEXT
  VALUE

                      01100 ;; >>> /home/sdcc-builder/build/sdcc-build/orig/sdcc/src/pic14/gen.c:5132:AccRsh
0077   300F           01101         MOVLW   0x0f    ;id=1554,key=006,inCond:400,outCond:10,flow seq=022
                      01102 ;; >>> /home/sdcc-builder/build/sdcc-build/orig/sdcc/src/pic14/gen.c:5133:AccRsh
                      01103 ;; BANKOPT2 BANKSEL dropped; r0x1020 present in same bank as r0x1020
0078   05??           01104         ANDWF   r0x1020,F       ;id=1556,key=007,inCond:11,outCond:5,flow seq=022,rIdx=r0x1053
                      01105 ;; ***  addSign  857
                      01106 ;;; /home/sdcc-builder/build/sdcc-build/orig/sdcc/src/pic14/genarith.c:858:addSign *{*
                      01107 ;;; /home/sdcc-builder/build/sdcc-build/orig/sdcc/src/pic14/gen.c:2308:resultRemat *{*
                      01108 ;; ***  genPlus  607
                      01109 ;;; /home/sdcc-builder/build/sdcc-build/orig/sdcc/src/pic14/genarith.c:608:genPlus *{*
                      01110 ;;      695 register type nRegs=1
                      01111 ;;      695 register type nRegs=1
                      01112 ;;      695 register type nRegs=1
                      01113 ;;      line = 614 result AOP_REG=r0x1056, size=1, left AOP_REG=r0x1053, size=1, right AOP_REG=r0x1056, 
                            size=1
                      01114 ;;; /home/sdcc-builder/build/sdcc-build/orig/sdcc/src/pic14/genarith.c:138:genPlusIncr *{*
                      01115 ;; ***  genPlusIncr  140
                      01116 ;;      result AOP_REG, left AOP_REG, right AOP_REG
                      01117 ;; ***  genPlus  713
                      01118 ;; >>> /home/sdcc-builder/build/sdcc-build/orig/sdcc/src/pic14/genarith.c:722:genPlus
                      01119 ;;      1097 rIdx = r0x1056 
                      01120 ;; BANKOPT2 BANKSEL dropped; r0x1021 present in same bank as r0x1020
0079   08??           01121         MOVF    r0x1021,W       ;id=1572,key=008,inCond:1,outCond:14,flow seq=022,rIdx=r0x1056
                      01122 ;; >>> /home/sdcc-builder/build/sdcc-build/orig/sdcc/src/pic14/genarith.c:731:genPlus
                      01123 ;;      1097 rIdx = r0x1053 
                      01124 ;; BANKOPT2 BANKSEL dropped; r0x1020 present in same bank as r0x1020
007A   07??           01125         ADDWF   r0x1020,W       ;id=1575,key=009,inCond:11,outCond:1e,flow seq=022,rIdx=r0x1053
                      01126 ;; >>> /home/sdcc-builder/build/sdcc-build/orig/sdcc/src/pic14/genarith.c:732:genPlus
                      01127 ;;      1097 rIdx = r0x1056 
                      01128 ;; BANKOPT2 BANKSEL dropped; r0x1021 present in same bank as r0x1020
007B   00??           01129         MOVWF   r0x1021 ;id=1822,key=00a,inCond:10,outCond:1,flow seq=022,rIdx=r0x1056
007C   390F           01130         ANDLW   0x0f    ;id=1599,key=00b,inCond:410,outCond:14,flow seq=022
                      01131 ;; >>> /home/sdcc-builder/build/sdcc-build/orig/sdcc/src/pic14/gen.c:6490:genPackBits
                      01132 ;; BANKOPT2 BANKSEL dropped; r0x1029 present in same bank as r0x1020
007D   00??           01133         MOVWF   r0x1029 ;id=1601,key=00c,inCond:10,outCond:1,flow seq=022,rIdx=r0x105E
                      01134 ;;; /home/sdcc-builder/build/sdcc-build/orig/sdcc/src/pic14/gen.c:4996:AccLsh *{*
                      01135 ;; ***  AccLsh  4997
                      01136 ;; >>> /home/sdcc-builder/build/sdcc-build/orig/sdcc/src/pic14/gen.c:5019:AccLsh
                      01137 ;; BANKOPT2 BANKSEL dropped; r0x1029 present in same bank as r0x1020
007E   0E??           01138         SWAPF   r0x1029,F       ;id=1605,key=00d,inCond:1,outCond:1,flow seq=022,rIdx=r0x105E
                      01139 ;; >>> /home/sdcc-builder/build/sdcc-build/orig/sdcc/src/pic14/gen.c:5036:AccLsh
007F   30F0           01140         MOVLW   0xf0    ;id=1607,key=00e,inCond:400,outCond:10,flow seq=022
                      01141 ;; >>> /home/sdcc-builder/build/sdcc-build/orig/sdcc/src/pic14/gen.c:5037:AccLsh
                      01142 ;; BANKOPT2 BANKSEL dropped; r0x1029 present in same bank as r0x1020
0080   05??           01143         ANDWF   r0x1029,F       ;id=1609,key=00f,inCond:11,outCond:5,flow seq=022,rIdx=r0x105E
                      01144 ;; ***  mov2w  1366  offset=0
                      01145 ;; >>> /home/sdcc-builder/build/sdcc-build/orig/sdcc/src/pic14/gen.c:1369:mov2w
0081   30??           01146         MOVLW   (_buffer + 16)  ;id=1612,key=010,inCond:400,outCond:10,flow seq=022
                      01147 ;; >>> /home/sdcc-builder/build/sdcc-build/orig/sdcc/src/pic14/gen.c:6500:genPackBits
0082   390F           01148         ANDLW   0x0f    ;id=1614,key=011,inCond:410,outCond:14,flow seq=022
                      01149 ;; >>> /home/sdcc-builder/build/sdcc-build/orig/sdcc/src/pic14/gen.c:6501:genPackBits
                      01150 ;; BANKOPT2 BANKSEL dropped; r0x1029 present in same bank as r0x1020
0083   04??           01151         IORWF   r0x1029,W       ;id=1616,key=012,inCond:11,outCond:14,flow seq=022,rIdx=r0x105E
gpasm-1.5.2 #0 (Sep 16 2019) build/default/pr   9-16-2019  10:40:44         PAGE 23


LOC    OBJECT CODE    LINE  SOURCE TEXT
  VALUE

                      01152 ;; >>> /home/sdcc-builder/build/sdcc-build/orig/sdcc/src/pic14/gen.c:1378:movwf
                      01153 ;;      popGet AOP_PCODE (PO_IMMEDIATE + 0) 1118 _buffer
0084   0??? 0???      01154         BANKSEL _buffer ;id=1942,key=013,inCond:0,outCond:0,flow seq=022
0086   00??           01155         MOVWF   (_buffer + 16)  ;id=1619,key=014,inCond:10,outCond:1,flow seq=022
                      01156 ;;; /home/sdcc-builder/build/sdcc-build/orig/sdcc/src/pic14/gen.c:2308:resultRemat *{*
                      01157 ;;; /home/sdcc-builder/build/sdcc-build/orig/sdcc/src/pic14/gen.c:2675:genRet *{*
                      01158 ;; ***  genRet  2677
                      01159 ;;; /home/sdcc-builder/build/sdcc-build/orig/sdcc/src/pic14/gen.c:1328:mov2w_op *{*
                      01160 ;; >>> /home/sdcc-builder/build/sdcc-build/orig/sdcc/src/pic14/gen.c:1346:mov2w_op
                      01161 ;       .line   52; "../../../lib/buffer.c"     return 0;
0087   3000           01162         MOVLW   0x00    ;id=1626,key=015,inCond:400,outCond:10,flow seq=022
                      01163 ;<>Start of new flow, seq=0x23 ancestor = 0x14
                      01164 ;  from: 022 014 ; to: 
                      01165 ;;; /home/sdcc-builder/build/sdcc-build/orig/sdcc/src/pic14/gen.c:2308:resultRemat *{*
                      01166 ;;; /home/sdcc-builder/build/sdcc-build/orig/sdcc/src/pic14/gen.c:2752:genLabel *{*
                      01167 ;; ***  genLabel  2755
                      01168 ;_00148_DS_:
                      01169 ;;; /home/sdcc-builder/build/sdcc-build/orig/sdcc/src/pic14/gen.c:2308:resultRemat *{*
                      01170 ;;; /home/sdcc-builder/build/sdcc-build/orig/sdcc/src/pic14/gen.c:2520:genEndFunction *{*
                      01171 ;; ***  genEndFunction  2522
                      01172 ;return
                      01173 ;; BANKOPT3 drop assumptions: PCI with label or call found
0088                  01174 _00148_DS_:
                      01175 ;       .line   53; "../../../lib/buffer.c"     }
0088   0008           01176         RETURN          ;id=1637,key=000,inCond:10,outCond:e,flow seq=023
                      01177 ;<>Start of new flow, seq=0x24
                      01178 ;  from: ; to: 
                      01179 ; exit point of _buffer_put
                      01180 ;;; /home/sdcc-builder/build/sdcc-build/orig/sdcc/src/pic14/gen.c:7535:genpic14Code *{*
                      01181 
                      01182 ;***
                      01183 ;  pBlock Stats: dbName = C
                      01184 ;***
                      01185 ;has an exit
                      01186 ;6 compiler assigned registers:
                      01187 ;   r0x1013
                      01188 ;   r0x1014
                      01189 ;   r0x1015
                      01190 ;   r0x1016
                      01191 ;   r0x1017
                      01192 ;   r0x1018
                      01193 ;; Starting pCode block
                      01194 ;<>Start of new flow, seq=0x25 ancestor = 0x25
                      01195 ;  from: ; to: 027 026 
                      01196 ;;; /home/sdcc-builder/build/sdcc-build/orig/sdcc/src/pic14/gen.c:2308:resultRemat *{*
                      01197 ;;; /home/sdcc-builder/build/sdcc-build/orig/sdcc/src/pic14/gen.c:2752:genLabel *{*
                      01198 ;; ***  genLabel  2755
                      01199 ;;; /home/sdcc-builder/build/sdcc-build/orig/sdcc/src/pic14/gen.c:2308:resultRemat *{*
                      01200 ;;; /home/sdcc-builder/build/sdcc-build/orig/sdcc/src/pic14/gen.c:2332:genFunction *{*
                      01201 ;; ***  genFunction  2334 curr label offset=8previous max_key=16 
                      01202 ;;      -----------------------------------------
                      01203 ;;       function buffer_putch
                      01204 ;;      -----------------------------------------
gpasm-1.5.2 #0 (Sep 16 2019) build/default/pr   9-16-2019  10:40:44         PAGE 24


LOC    OBJECT CODE    LINE  SOURCE TEXT
  VALUE

                      01205 ;_buffer_putch:
                      01206 S_buffer__buffer_putch  code
0000                  01207 _buffer_putch:
                      01208 ; 2 exit points
                      01209 ;;; /home/sdcc-builder/build/sdcc-build/orig/sdcc/src/pic14/gen.c:2308:resultRemat *{*
                      01210 ;;; /home/sdcc-builder/build/sdcc-build/orig/sdcc/src/pic14/gen.c:7467:genReceive *{*
                      01211 ;; ***  genReceive  7468
                      01212 ;;      695 register type nRegs=1
                      01213 ;;; /home/sdcc-builder/build/sdcc-build/orig/sdcc/src/pic14/gen.c:1892:assignResultValue *{*
                      01214 ;; ***  assignResultValue  1894
                      01215 ;;      line = 1896 result -=-, size=0, left AOP_REG=r0x104D, size=1, right -=-, size=0
                      01216 ;; >>> /home/sdcc-builder/build/sdcc-build/orig/sdcc/src/pic14/gen.c:1378:movwf
                      01217 ;;      1097 rIdx = r0x104D 
                      01218 ;       .line   23; "../../../lib/buffer.c"     buffer_putch(char ch) {
0000   0??? 0???      01219         BANKSEL r0x1013 ;id=1944,key=000,inCond:0,outCond:0,flow seq=025
0002   00??           01220         MOVWF   r0x1013 ;id=661,key=001,inCond:10,outCond:1,flow seq=025,rIdx=r0x104D
                      01221 ;;; /home/sdcc-builder/build/sdcc-build/orig/sdcc/src/pic14/gen.c:2308:resultRemat *{*
                      01222 ;;; /home/sdcc-builder/build/sdcc-build/orig/sdcc/src/pic14/gen.c:2308:resultRemat *{*
                      01223 ;;; /home/sdcc-builder/build/sdcc-build/orig/sdcc/src/pic14/gen.c:2308:resultRemat *{*
                      01224 ;;; /home/sdcc-builder/build/sdcc-build/orig/sdcc/src/pic14/gen.c:6260:genPointerGet *{*
                      01225 ;; ***  genPointerGet  6261
                      01226 ;;; /home/sdcc-builder/build/sdcc-build/orig/sdcc/src/pic14/gen.c:6042:genNearPointerGet *{*
                      01227 ;; ***  genNearPointerGet  6043
                      01228 ;;      614
                      01229 ;;      aopForRemat 393
                      01230 ;;      419: rname _buffer, val 16, const = 0
                      01231 ;; ***  genNearPointerGet  6059
                      01232 ;;      695 register type nRegs=1
                      01233 ;;; /home/sdcc-builder/build/sdcc-build/orig/sdcc/src/pic14/gen.c:5858:genUnpackBits *{*
                      01234 ;; ***  genUnpackBits  5859
                      01235 ;; >>> /home/sdcc-builder/build/sdcc-build/orig/sdcc/src/pic14/gen.c:5947:genUnpackBits
                      01236 ;;      1097 rIdx = r0x104E 
                      01237 ;; BANKOPT2 BANKSEL dropped; r0x1014 present in same bank as r0x1013
                      01238 ;       .line   24; "../../../lib/buffer.c"     if(BUFFER_SIZE - buffer.n <= 0) {
0003   01??           01239         CLRF    r0x1014 ;id=679,key=002,inCond:0,outCond:5,flow seq=025,rIdx=r0x104E
                      01240 ;; ***  mov2w  1366  offset=0
                      01241 ;; >>> /home/sdcc-builder/build/sdcc-build/orig/sdcc/src/pic14/gen.c:1369:mov2w
0004   30??           01242         MOVLW   (_buffer + 16)  ;id=682,key=003,inCond:400,outCond:10,flow seq=025
                      01243 ;; >>> /home/sdcc-builder/build/sdcc-build/orig/sdcc/src/pic14/gen.c:5967:genUnpackBits
0005   39F0           01244         ANDLW   0xf0    ;id=684,key=004,inCond:410,outCond:14,flow seq=025
                      01245 ;; >>> /home/sdcc-builder/build/sdcc-build/orig/sdcc/src/pic14/gen.c:1378:movwf
                      01246 ;;      1097 rIdx = r0x104E 
                      01247 ;; BANKOPT2 BANKSEL dropped; r0x1014 present in same bank as r0x1013
0006   00??           01248         MOVWF   r0x1014 ;id=687,key=005,inCond:10,outCond:1,flow seq=025,rIdx=r0x104E
                      01249 ;;      1097 rIdx = r0x104E 
                      01250 ;;; /home/sdcc-builder/build/sdcc-build/orig/sdcc/src/pic14/gen.c:5050:AccRsh *{*
                      01251 ;; ***  AccRsh  5051
                      01252 ;; >>> /home/sdcc-builder/build/sdcc-build/orig/sdcc/src/pic14/gen.c:5096:AccRsh
                      01253 ;; BANKOPT2 BANKSEL dropped; r0x1014 present in same bank as r0x1013
0007   0E??           01254         SWAPF   r0x1014,F       ;id=692,key=006,inCond:1,outCond:1,flow seq=025,rIdx=r0x104E
                      01255 ;; >>> /home/sdcc-builder/build/sdcc-build/orig/sdcc/src/pic14/gen.c:5132:AccRsh
0008   300F           01256         MOVLW   0x0f    ;id=694,key=007,inCond:400,outCond:10,flow seq=025
                      01257 ;; >>> /home/sdcc-builder/build/sdcc-build/orig/sdcc/src/pic14/gen.c:5133:AccRsh
gpasm-1.5.2 #0 (Sep 16 2019) build/default/pr   9-16-2019  10:40:44         PAGE 25


LOC    OBJECT CODE    LINE  SOURCE TEXT
  VALUE

                      01258 ;; BANKOPT2 BANKSEL dropped; r0x1014 present in same bank as r0x1013
0009   05??           01259         ANDWF   r0x1014,F       ;id=696,key=008,inCond:11,outCond:5,flow seq=025,rIdx=r0x104E
                      01260 ;; ***  addSign  857
                      01261 ;;; /home/sdcc-builder/build/sdcc-build/orig/sdcc/src/pic14/genarith.c:858:addSign *{*
                      01262 ;;; /home/sdcc-builder/build/sdcc-build/orig/sdcc/src/pic14/gen.c:2308:resultRemat *{*
                      01263 ;;; /home/sdcc-builder/build/sdcc-build/orig/sdcc/src/pic14/gen.c:7229:genCast *{*
                      01264 ;; ***  genCast  7230
                      01265 ;;      695 register type nRegs=1
                      01266 ;;      695 register type nRegs=2
                      01267 ;;      line = 7238 result AOP_REG=r0x104F, size=2, left -=-, size=0, right AOP_REG=r0x104E, size=1
                      01268 ;; >>> /home/sdcc-builder/build/sdcc-build/orig/sdcc/src/pic14/gen.c:7407:genCast
                      01269 ;;      1097 rIdx = r0x104E 
                      01270 ;;100   MOVF    r0x1014,W
                      01271 ;; >>> /home/sdcc-builder/build/sdcc-build/orig/sdcc/src/pic14/gen.c:7408:genCast
                      01272 ;;      1097 rIdx = r0x104F 
                      01273 ;; ***  addSign  857
                      01274 ;;; /home/sdcc-builder/build/sdcc-build/orig/sdcc/src/pic14/genarith.c:858:addSign *{*
                      01275 ;; >>> /home/sdcc-builder/build/sdcc-build/orig/sdcc/src/pic14/genarith.c:877:addSign
                      01276 ;;      1097 rIdx = r0x1050 
                      01277 ;; BANKOPT2 BANKSEL dropped; r0x1016 present in same bank as r0x1013
000A   01??           01278         CLRF    r0x1016 ;id=715,key=009,inCond:0,outCond:5,flow seq=025,rIdx=r0x1050
                      01279 ;;; /home/sdcc-builder/build/sdcc-build/orig/sdcc/src/pic14/gen.c:2308:resultRemat *{*
                      01280 ;;; /home/sdcc-builder/build/sdcc-build/orig/sdcc/src/pic14/gen.c:7426:genDjnz *{*
                      01281 ;; ***  genDjnz  7427
                      01282 ;;; /home/sdcc-builder/build/sdcc-build/orig/sdcc/src/pic14/genarith.c:892:genMinus *{*
                      01283 ;; ***  genMinus  893
                      01284 ;;      695 register type nRegs=2
                      01285 ;;      695 register type nRegs=2
                      01286 ;;      result AOP_REG, left AOP_LIT, right AOP_REG
                      01287 ;; left is lit  line 1010 result AOP_REG, left AOP_LIT, right AOP_REG
                      01288 ;; ***  mov2w  1366  offset=0
                      01289 ;; >>> /home/sdcc-builder/build/sdcc-build/orig/sdcc/src/pic14/gen.c:1371:mov2w
                      01290 ;;      1097 rIdx = r0x104F 
                      01291 ;;99    MOVF    r0x1015,W
                      01292 ;; BANKOPT2 BANKSEL dropped; r0x1014 present in same bank as r0x1013
000B   08??           01293         MOVF    r0x1014,W       ;id=1834,key=00a,inCond:1,outCond:14,flow seq=025,rIdx=r0x104E
                      01294 ;; BANKOPT2 BANKSEL dropped; r0x1015 present in same bank as r0x1013
000C   00??           01295         MOVWF   r0x1015 ;id=710,key=00b,inCond:10,outCond:1,flow seq=025,rIdx=r0x104F
                      01296 ;; >>> /home/sdcc-builder/build/sdcc-build/orig/sdcc/src/pic14/genarith.c:1049:genMinus
000D   3C10           01297         SUBLW   0x10    ;id=730,key=00c,inCond:410,outCond:1e,flow seq=025
                      01298 ;; >>> /home/sdcc-builder/build/sdcc-build/orig/sdcc/src/pic14/genarith.c:1050:genMinus
                      01299 ;;      1097 rIdx = r0x104E 
                      01300 ;; BANKOPT2 BANKSEL dropped; r0x1014 present in same bank as r0x1013
000E   00??           01301         MOVWF   r0x1014 ;id=733,key=00d,inCond:10,outCond:1,flow seq=025,rIdx=r0x104E
                      01302 ;; ***  mov2w  1366  offset=1
                      01303 ;; >>> /home/sdcc-builder/build/sdcc-build/orig/sdcc/src/pic14/gen.c:1371:mov2w
                      01304 ;;      1097 rIdx = r0x1050 
000F   3000           01305         MOVLW   0x00    ;id=1837,key=00e,inCond:400,outCond:10,flow seq=025
                      01306 ;; >>> /home/sdcc-builder/build/sdcc-build/orig/sdcc/src/pic14/genarith.c:1145:genMinus
0010   1C03           01307         BTFSS   STATUS,0        ;id=739,key=00f,inCond:23,outCond:0,flow seq=025
                      01308 ;<>Start of new flow, seq=0x26 ancestor = 0x25
                      01309 ;  from: 025 ; to: 027 
                      01310 ;; >>> /home/sdcc-builder/build/sdcc-build/orig/sdcc/src/pic14/genarith.c:1146:genMinus
gpasm-1.5.2 #0 (Sep 16 2019) build/default/pr   9-16-2019  10:40:44         PAGE 26


LOC    OBJECT CODE    LINE  SOURCE TEXT
  VALUE

                      01311 ;;      1097 rIdx = r0x1050 
                      01312 ;; BANKOPT2 BANKSEL dropped; r0x1016 present in same bank as r0x1013
0011   0A??           01313         INCF    r0x1016,W       ;id=742,key=000,inCond:1,outCond:14,flow seq=026,rIdx=r0x1050
                      01314 ;<>Start of new flow, seq=0x27 ancestor = 0x25
                      01315 ;  from: 026 025 ; to: 029 028 
                      01316 ;; >>> /home/sdcc-builder/build/sdcc-build/orig/sdcc/src/pic14/genarith.c:1149:genMinus
0012   3C00           01317         SUBLW   0x00    ;id=744,key=000,inCond:410,outCond:1e,flow seq=027
                      01318 ;; >>> /home/sdcc-builder/build/sdcc-build/orig/sdcc/src/pic14/genarith.c:1150:genMinus
                      01319 ;;      1097 rIdx = r0x1051 
                      01320 ;;1     MOVWF   r0x1017
0013   3E80           01321         ADDLW   0x80    ;id=760,key=001,inCond:410,outCond:1e,flow seq=027
                      01322 ;; >>> /home/sdcc-builder/build/sdcc-build/orig/sdcc/src/pic14/gen.c:3465:genCmp
0014   3E80           01323         ADDLW   0x80    ;id=762,key=002,inCond:410,outCond:1e,flow seq=027
                      01324 ;; >>> /home/sdcc-builder/build/sdcc-build/orig/sdcc/src/pic14/gen.c:3487:genCmp
0015   1D03           01325         BTFSS   STATUS,2        ;id=764,key=003,inCond:25,outCond:0,flow seq=027
                      01326 ;<>Start of new flow, seq=0x28 ancestor = 0x27
                      01327 ;  from: 027 ; to: 02a 
                      01328 ;; >>> /home/sdcc-builder/build/sdcc-build/orig/sdcc/src/pic14/gen.c:3495:genCmp
                      01329 ;; ***  popGetLabel  key=9, label offset 28
0016   2???           01330         GOTO    _00137_DS_      ;id=767,key=000,inCond:0,outCond:0,flow seq=028
                      01331 ;<>Start of new flow, seq=0x29 ancestor = 0x27
                      01332 ;  from: 027 ; to: 02a 
                      01333 ;; >>> /home/sdcc-builder/build/sdcc-build/orig/sdcc/src/pic14/gen.c:3275:pic14_mov2w_regOrLit
0017   3001           01334         MOVLW   0x01    ;id=769,key=000,inCond:400,outCond:10,flow seq=029
                      01335 ;; >>> /home/sdcc-builder/build/sdcc-build/orig/sdcc/src/pic14/gen.c:3499:genCmp
                      01336 ;;      1097 rIdx = r0x104E 
                      01337 ;; BANKOPT2 BANKSEL dropped; r0x1014 present in same bank as r0x1013
0018   02??           01338         SUBWF   r0x1014,W       ;id=772,key=001,inCond:11,outCond:1e,flow seq=029,rIdx=r0x104E
                      01339 ;<>Start of new flow, seq=0x2a ancestor = 0x28
                      01340 ;  from: 029 028 ; to: 02c 02b 
                      01341 ;;; /home/sdcc-builder/build/sdcc-build/orig/sdcc/src/pic14/gen.c:3247:genSkipc *{*
                      01342 ;; >>> /home/sdcc-builder/build/sdcc-build/orig/sdcc/src/pic14/gen.c:3252:genSkipc
                      01343 ;; BANKOPT3 drop assumptions: PCI with label or call found
                      01344 ;; BANKOPT1 BANKSEL dropped; STATUS present in all of (null)'s banks
0019                  01345 _00137_DS_:
0019   1803           01346         BTFSC   STATUS,0        ;id=776,key=000,inCond:23,outCond:0,flow seq=02a
                      01347 ;<>Start of new flow, seq=0x2b ancestor = 0x2a
                      01348 ;  from: 02a ; to: 02d 
                      01349 ;; >>> /home/sdcc-builder/build/sdcc-build/orig/sdcc/src/pic14/gen.c:3256:genSkipc
                      01350 ;; ***  popGetLabel  key=2, label offset 28
001A   2???           01351         GOTO    _00130_DS_      ;id=779,key=000,inCond:0,outCond:0,flow seq=02b
                      01352 ;<>Start of new flow, seq=0x2c ancestor = 0x2a
                      01353 ;  from: 02a ; to: 032 
                      01354 ;;genSkipc:3257: created from rifx:0000000004785780
                      01355 ;;; /home/sdcc-builder/build/sdcc-build/orig/sdcc/src/pic14/gen.c:2308:resultRemat *{*
                      01356 ;;; /home/sdcc-builder/build/sdcc-build/orig/sdcc/src/pic14/gen.c:2308:resultRemat *{*
                      01357 ;;; /home/sdcc-builder/build/sdcc-build/orig/sdcc/src/pic14/gen.c:2675:genRet *{*
                      01358 ;; ***  genRet  2677
                      01359 ;;; /home/sdcc-builder/build/sdcc-build/orig/sdcc/src/pic14/gen.c:1328:mov2w_op *{*
                      01360 ;; >>> /home/sdcc-builder/build/sdcc-build/orig/sdcc/src/pic14/gen.c:1346:mov2w_op
                      01361 ;       .line   25; "../../../lib/buffer.c"     return 0;
001B   3000           01362         MOVLW   0x00    ;id=788,key=000,inCond:400,outCond:10,flow seq=02c
                      01363 ;; >>> /home/sdcc-builder/build/sdcc-build/orig/sdcc/src/pic14/gen.c:2701:genRet
gpasm-1.5.2 #0 (Sep 16 2019) build/default/pr   9-16-2019  10:40:44         PAGE 27


LOC    OBJECT CODE    LINE  SOURCE TEXT
  VALUE

                      01364 ;; ***  popGetLabel  key=3, label offset 28
001C   2???           01365         GOTO    _00131_DS_      ;id=791,key=001,inCond:0,outCond:0,flow seq=02c
                      01366 ;<>Start of new flow, seq=0x2d ancestor = 0x2b
                      01367 ;  from: 02b ; to: 02f 02e 
                      01368 ;;; /home/sdcc-builder/build/sdcc-build/orig/sdcc/src/pic14/gen.c:2308:resultRemat *{*
                      01369 ;;; /home/sdcc-builder/build/sdcc-build/orig/sdcc/src/pic14/gen.c:2752:genLabel *{*
                      01370 ;; ***  genLabel  2755
                      01371 ;_00130_DS_:
                      01372 ;;; /home/sdcc-builder/build/sdcc-build/orig/sdcc/src/pic14/gen.c:2308:resultRemat *{*
                      01373 ;;; /home/sdcc-builder/build/sdcc-build/orig/sdcc/src/pic14/gen.c:2308:resultRemat *{*
                      01374 ;;; /home/sdcc-builder/build/sdcc-build/orig/sdcc/src/pic14/gen.c:6260:genPointerGet *{*
                      01375 ;; ***  genPointerGet  6261
                      01376 ;;; /home/sdcc-builder/build/sdcc-build/orig/sdcc/src/pic14/gen.c:6042:genNearPointerGet *{*
                      01377 ;; ***  genNearPointerGet  6043
                      01378 ;;      614
                      01379 ;;      aopForRemat 393
                      01380 ;;      419: rname _buffer, val 16, const = 0
                      01381 ;; ***  genNearPointerGet  6059
                      01382 ;;      695 register type nRegs=1
                      01383 ;;; /home/sdcc-builder/build/sdcc-build/orig/sdcc/src/pic14/gen.c:5858:genUnpackBits *{*
                      01384 ;; ***  genUnpackBits  5859
                      01385 ;; >>> /home/sdcc-builder/build/sdcc-build/orig/sdcc/src/pic14/gen.c:5947:genUnpackBits
                      01386 ;;      1097 rIdx = r0x104E 
                      01387 ;; BANKOPT3 drop assumptions: PCI with label or call found
001D                  01388 _00130_DS_:
                      01389 ;       .line   27; "../../../lib/buffer.c"     buffer.x[buffer.n] = ch;
001D   0??? 0???      01390         BANKSEL r0x1014 ;id=1958,key=000,inCond:0,outCond:0,flow seq=02d
001F   01??           01391         CLRF    r0x1014 ;id=813,key=001,inCond:0,outCond:5,flow seq=02d,rIdx=r0x104E
                      01392 ;; ***  mov2w  1366  offset=0
                      01393 ;; >>> /home/sdcc-builder/build/sdcc-build/orig/sdcc/src/pic14/gen.c:1369:mov2w
0020   30??           01394         MOVLW   (_buffer + 16)  ;id=816,key=002,inCond:400,outCond:10,flow seq=02d
                      01395 ;; >>> /home/sdcc-builder/build/sdcc-build/orig/sdcc/src/pic14/gen.c:5967:genUnpackBits
0021   39F0           01396         ANDLW   0xf0    ;id=818,key=003,inCond:410,outCond:14,flow seq=02d
                      01397 ;; >>> /home/sdcc-builder/build/sdcc-build/orig/sdcc/src/pic14/gen.c:1378:movwf
                      01398 ;;      1097 rIdx = r0x104E 
                      01399 ;; BANKOPT2 BANKSEL dropped; r0x1014 present in same bank as r0x1014
0022   00??           01400         MOVWF   r0x1014 ;id=821,key=004,inCond:10,outCond:1,flow seq=02d,rIdx=r0x104E
                      01401 ;;      1097 rIdx = r0x104E 
                      01402 ;;; /home/sdcc-builder/build/sdcc-build/orig/sdcc/src/pic14/gen.c:5050:AccRsh *{*
                      01403 ;; ***  AccRsh  5051
                      01404 ;; >>> /home/sdcc-builder/build/sdcc-build/orig/sdcc/src/pic14/gen.c:5096:AccRsh
                      01405 ;; BANKOPT2 BANKSEL dropped; r0x1014 present in same bank as r0x1014
0023   0E??           01406         SWAPF   r0x1014,F       ;id=826,key=005,inCond:1,outCond:1,flow seq=02d,rIdx=r0x104E
                      01407 ;; >>> /home/sdcc-builder/build/sdcc-build/orig/sdcc/src/pic14/gen.c:5132:AccRsh
0024   300F           01408         MOVLW   0x0f    ;id=828,key=006,inCond:400,outCond:10,flow seq=02d
                      01409 ;; >>> /home/sdcc-builder/build/sdcc-build/orig/sdcc/src/pic14/gen.c:5133:AccRsh
                      01410 ;; BANKOPT2 BANKSEL dropped; r0x1014 present in same bank as r0x1014
0025   05??           01411         ANDWF   r0x1014,F       ;id=830,key=007,inCond:11,outCond:5,flow seq=02d,rIdx=r0x104E
                      01412 ;; ***  addSign  857
                      01413 ;;; /home/sdcc-builder/build/sdcc-build/orig/sdcc/src/pic14/genarith.c:858:addSign *{*
                      01414 ;;; /home/sdcc-builder/build/sdcc-build/orig/sdcc/src/pic14/gen.c:2308:resultRemat *{*
                      01415 ;;; /home/sdcc-builder/build/sdcc-build/orig/sdcc/src/pic14/gen.c:7229:genCast *{*
                      01416 ;; ***  genCast  7230
gpasm-1.5.2 #0 (Sep 16 2019) build/default/pr   9-16-2019  10:40:44         PAGE 28


LOC    OBJECT CODE    LINE  SOURCE TEXT
  VALUE

                      01417 ;;      695 register type nRegs=1
                      01418 ;;      695 register type nRegs=1
                      01419 ;;      line = 7238 result AOP_REG=r0x104F, size=1, left -=-, size=0, right AOP_REG=r0x104E, size=1
                      01420 ;; ***  genCast  7362
                      01421 ;; >>> /home/sdcc-builder/build/sdcc-build/orig/sdcc/src/pic14/gen.c:7386:genCast
                      01422 ;;      1097 rIdx = r0x104E 
                      01423 ;; BANKOPT2 BANKSEL dropped; r0x1014 present in same bank as r0x1014
0026   08??           01424         MOVF    r0x1014,W       ;id=1824,key=008,inCond:1,outCond:14,flow seq=02d,rIdx=r0x104E
                      01425 ;; BANKOPT2 BANKSEL dropped; r0x1015 present in same bank as r0x1014
0027   00??           01426         MOVWF   r0x1015 ;id=1825,key=009,inCond:10,outCond:1,flow seq=02d,rIdx=r0x104F
                      01427 ;; BANKOPT2 BANKSEL dropped; r0x1014 present in same bank as r0x1014
0028   00??           01428         MOVWF   r0x1014 ;id=1826,key=00a,inCond:10,outCond:1,flow seq=02d,rIdx=r0x104E
0029   3E??           01429         ADDLW   (_buffer + 0)   ;id=880,key=00b,inCond:410,outCond:1e,flow seq=02d
                      01430 ;; >>> /home/sdcc-builder/build/sdcc-build/orig/sdcc/src/pic14/genarith.c:732:genPlus
                      01431 ;;      1097 rIdx = r0x104F 
                      01432 ;; BANKOPT2 BANKSEL dropped; r0x1015 present in same bank as r0x1014
002A   00??           01433         MOVWF   r0x1015 ;id=883,key=00c,inCond:10,outCond:1,flow seq=02d,rIdx=r0x104F
                      01434 ;; >>> /home/sdcc-builder/build/sdcc-build/orig/sdcc/src/pic14/genarith.c:795:genPlus
002B   30??           01435         MOVLW   high (_buffer + 0)      ;id=885,key=00d,inCond:400,outCond:10,flow seq=02d
                      01436 ;; >>> /home/sdcc-builder/build/sdcc-build/orig/sdcc/src/pic14/genarith.c:796:genPlus
002C   1803           01437         BTFSC   STATUS,0        ;id=887,key=00e,inCond:23,outCond:0,flow seq=02d
                      01438 ;<>Start of new flow, seq=0x2e ancestor = 0x2d
                      01439 ;  from: 02d ; to: 02f 
                      01440 ;; >>> /home/sdcc-builder/build/sdcc-build/orig/sdcc/src/pic14/genarith.c:797:genPlus
002D   3E01           01441         ADDLW   0x01    ;id=889,key=000,inCond:410,outCond:1e,flow seq=02e
                      01442 ;<>Start of new flow, seq=0x2f ancestor = 0x2d
                      01443 ;  from: 02e 02d ; to: 031 030 
                      01444 ;; >>> /home/sdcc-builder/build/sdcc-build/orig/sdcc/src/pic14/genarith.c:798:genPlus
                      01445 ;;      1097 rIdx = r0x1050 
                      01446 ;; BANKOPT2 BANKSEL dropped; r0x1016 present in same bank as r0x1014
002E   00??           01447         MOVWF   r0x1016 ;id=892,key=000,inCond:10,outCond:1,flow seq=02f,rIdx=r0x1050
                      01448 ;;; /home/sdcc-builder/build/sdcc-build/orig/sdcc/src/pic14/gen.c:2308:resultRemat *{*
                      01449 ;;; /home/sdcc-builder/build/sdcc-build/orig/sdcc/src/pic14/gen.c:6796:genPointerSet *{*
                      01450 ;; ***  genPointerSet  6797
                      01451 ;;; /home/sdcc-builder/build/sdcc-build/orig/sdcc/src/pic14/gen.c:6615:genNearPointerSet *{*
                      01452 ;; ***  genNearPointerSet  6616
                      01453 ;;      695 register type nRegs=2
                      01454 ;; ***  genNearPointerSet  6631
                      01455 ;;      695 register type nRegs=1
                      01456 ;;      line = 6633 result AOP_REG=r0x104F, size=2, left -=-, size=0, right AOP_REG=r0x104D, size=1
                      01457 ;;; /home/sdcc-builder/build/sdcc-build/orig/sdcc/src/pic14/gen.c:1328:mov2w_op *{*
                      01458 ;; ***  mov2w  1366  offset=0
                      01459 ;; >>> /home/sdcc-builder/build/sdcc-build/orig/sdcc/src/pic14/gen.c:1371:mov2w
                      01460 ;;      1097 rIdx = r0x104F 
                      01461 ;; BANKOPT2 BANKSEL dropped; r0x1015 present in same bank as r0x1014
002F   08??           01462         MOVF    r0x1015,W       ;id=906,key=001,inCond:1,outCond:14,flow seq=02f,rIdx=r0x104F
                      01463 ;; >>> /home/sdcc-builder/build/sdcc-build/orig/sdcc/src/pic14/gen.c:5700:setup_fsr
0030   1283 1303      01464         BANKSEL FSR     ;id=1968,key=002,inCond:0,outCond:0,flow seq=02f
0032   0084           01465         MOVWF   FSR     ;id=908,key=003,inCond:10,outCond:1,flow seq=02f
                      01466 ;;; /home/sdcc-builder/build/sdcc-build/orig/sdcc/src/pic14/gen.c:5651:SetIrp *{*
                      01467 ;; >>> /home/sdcc-builder/build/sdcc-build/orig/sdcc/src/pic14/gen.c:5678:SetIrp
                      01468 ;; BANKOPT1 BANKSEL dropped; STATUS present in all of FSR's banks
0033   1383           01469         BCF     STATUS,7        ;id=911,key=004,inCond:21,outCond:21,flow seq=02f
gpasm-1.5.2 #0 (Sep 16 2019) build/default/pr   9-16-2019  10:40:44         PAGE 29


LOC    OBJECT CODE    LINE  SOURCE TEXT
  VALUE

                      01470 ;; >>> /home/sdcc-builder/build/sdcc-build/orig/sdcc/src/pic14/gen.c:5681:SetIrp
0034   0??? 0???      01471         BANKSEL r0x1016 ;id=1970,key=005,inCond:0,outCond:0,flow seq=02f
0036   18??           01472         BTFSC   r0x1016,0       ;id=913,key=006,inCond:21,outCond:0,flow seq=02f
                      01473 ;<>Start of new flow, seq=0x30 ancestor = 0x2f
                      01474 ;  from: 02f ; to: 031 
                      01475 ;; >>> /home/sdcc-builder/build/sdcc-build/orig/sdcc/src/pic14/gen.c:5682:SetIrp
0037   1783           01476         BSF     STATUS,7        ;id=915,key=000,inCond:21,outCond:21,flow seq=030
                      01477 ;<>Start of new flow, seq=0x31 ancestor = 0x2f
                      01478 ;  from: 030 02f ; to: 032 
                      01479 ;; ***  genNearPointerSet  6658
                      01480 ;; >>> /home/sdcc-builder/build/sdcc-build/orig/sdcc/src/pic14/gen.c:6674:genNearPointerSet
                      01481 ;;      1097 rIdx = r0x104D 
                      01482 ;; BANKOPT2 BANKSEL dropped; r0x1013 present in same bank as r0x1016
0038   08??           01483         MOVF    r0x1013,W       ;id=919,key=000,inCond:1,outCond:14,flow seq=031,rIdx=r0x104D
                      01484 ;; >>> /home/sdcc-builder/build/sdcc-build/orig/sdcc/src/pic14/gen.c:6679:genNearPointerSet
0039   1283 1303      01485         BANKSEL INDF    ;id=1972,key=001,inCond:0,outCond:0,flow seq=031
003B   0080           01486         MOVWF   INDF    ;id=921,key=002,inCond:10,outCond:1,flow seq=031
                      01487 ;; ***  genNearPointerSet  6687
                      01488 ;; ***  genNearPointerSet  6713
                      01489 ;;; /home/sdcc-builder/build/sdcc-build/orig/sdcc/src/pic14/gen.c:2308:resultRemat *{*
                      01490 ;;; /home/sdcc-builder/build/sdcc-build/orig/sdcc/src/pic14/gen.c:2308:resultRemat *{*
                      01491 ;;; /home/sdcc-builder/build/sdcc-build/orig/sdcc/src/pic14/gen.c:6260:genPointerGet *{*
                      01492 ;; ***  genPointerGet  6261
                      01493 ;;; /home/sdcc-builder/build/sdcc-build/orig/sdcc/src/pic14/gen.c:6042:genNearPointerGet *{*
                      01494 ;; ***  genNearPointerGet  6043
                      01495 ;;      614
                      01496 ;;      aopForRemat 393
                      01497 ;;      419: rname _buffer, val 16, const = 0
                      01498 ;; ***  genNearPointerGet  6059
                      01499 ;;      695 register type nRegs=1
                      01500 ;;; /home/sdcc-builder/build/sdcc-build/orig/sdcc/src/pic14/gen.c:5858:genUnpackBits *{*
                      01501 ;; ***  genUnpackBits  5859
                      01502 ;; >>> /home/sdcc-builder/build/sdcc-build/orig/sdcc/src/pic14/gen.c:5947:genUnpackBits
                      01503 ;;      1097 rIdx = r0x104D 
                      01504 ;       .line   28; "../../../lib/buffer.c"     buffer.n++;
003C   0??? 0???      01505         BANKSEL r0x1013 ;id=1973,key=003,inCond:0,outCond:0,flow seq=031
003E   01??           01506         CLRF    r0x1013 ;id=940,key=004,inCond:0,outCond:5,flow seq=031,rIdx=r0x104D
                      01507 ;; ***  mov2w  1366  offset=0
                      01508 ;; >>> /home/sdcc-builder/build/sdcc-build/orig/sdcc/src/pic14/gen.c:1369:mov2w
003F   30??           01509         MOVLW   (_buffer + 16)  ;id=943,key=005,inCond:400,outCond:10,flow seq=031
                      01510 ;; >>> /home/sdcc-builder/build/sdcc-build/orig/sdcc/src/pic14/gen.c:5967:genUnpackBits
0040   39F0           01511         ANDLW   0xf0    ;id=945,key=006,inCond:410,outCond:14,flow seq=031
                      01512 ;; >>> /home/sdcc-builder/build/sdcc-build/orig/sdcc/src/pic14/gen.c:1378:movwf
                      01513 ;;      1097 rIdx = r0x104D 
                      01514 ;; BANKOPT2 BANKSEL dropped; r0x1013 present in same bank as r0x1013
0041   00??           01515         MOVWF   r0x1013 ;id=948,key=007,inCond:10,outCond:1,flow seq=031,rIdx=r0x104D
                      01516 ;;      1097 rIdx = r0x104D 
                      01517 ;;; /home/sdcc-builder/build/sdcc-build/orig/sdcc/src/pic14/gen.c:5050:AccRsh *{*
                      01518 ;; ***  AccRsh  5051
                      01519 ;; >>> /home/sdcc-builder/build/sdcc-build/orig/sdcc/src/pic14/gen.c:5096:AccRsh
                      01520 ;; BANKOPT2 BANKSEL dropped; r0x1013 present in same bank as r0x1013
0042   0E??           01521         SWAPF   r0x1013,F       ;id=953,key=008,inCond:1,outCond:1,flow seq=031,rIdx=r0x104D
                      01522 ;; >>> /home/sdcc-builder/build/sdcc-build/orig/sdcc/src/pic14/gen.c:5132:AccRsh
gpasm-1.5.2 #0 (Sep 16 2019) build/default/pr   9-16-2019  10:40:44         PAGE 30


LOC    OBJECT CODE    LINE  SOURCE TEXT
  VALUE

0043   300F           01523         MOVLW   0x0f    ;id=955,key=009,inCond:400,outCond:10,flow seq=031
                      01524 ;; >>> /home/sdcc-builder/build/sdcc-build/orig/sdcc/src/pic14/gen.c:5133:AccRsh
                      01525 ;; BANKOPT2 BANKSEL dropped; r0x1013 present in same bank as r0x1013
0044   05??           01526         ANDWF   r0x1013,F       ;id=957,key=00a,inCond:11,outCond:5,flow seq=031,rIdx=r0x104D
                      01527 ;; ***  addSign  857
                      01528 ;;; /home/sdcc-builder/build/sdcc-build/orig/sdcc/src/pic14/genarith.c:858:addSign *{*
                      01529 ;;; /home/sdcc-builder/build/sdcc-build/orig/sdcc/src/pic14/gen.c:2308:resultRemat *{*
                      01530 ;; ***  genPlus  607
                      01531 ;;; /home/sdcc-builder/build/sdcc-build/orig/sdcc/src/pic14/genarith.c:608:genPlus *{*
                      01532 ;;      695 register type nRegs=1
                      01533 ;;      695 register type nRegs=1
                      01534 ;;      line = 614 result AOP_REG=r0x104D, size=1, left AOP_REG=r0x104D, size=1, right AOP_LIT=0x01, siz
                            e=1
                      01535 ;;; /home/sdcc-builder/build/sdcc-build/orig/sdcc/src/pic14/genarith.c:138:genPlusIncr *{*
                      01536 ;; ***  genPlusIncr  140
                      01537 ;;      result AOP_REG, left AOP_REG, right AOP_LIT
                      01538 ;;      genPlusIncr  152
                      01539 ;; >>> /home/sdcc-builder/build/sdcc-build/orig/sdcc/src/pic14/genarith.c:164:genPlusIncr
                      01540 ;;      1097 rIdx = r0x104D 
                      01541 ;; BANKOPT2 BANKSEL dropped; r0x1013 present in same bank as r0x1013
0045   0A??           01542         INCF    r0x1013,F       ;id=972,key=00b,inCond:1,outCond:5,flow seq=031,rIdx=r0x104D
                      01543 ;;; /home/sdcc-builder/build/sdcc-build/orig/sdcc/src/pic14/gen.c:2308:resultRemat *{*
                      01544 ;;; /home/sdcc-builder/build/sdcc-build/orig/sdcc/src/pic14/gen.c:6796:genPointerSet *{*
                      01545 ;; ***  genPointerSet  6797
                      01546 ;;; /home/sdcc-builder/build/sdcc-build/orig/sdcc/src/pic14/gen.c:6615:genNearPointerSet *{*
                      01547 ;; ***  genNearPointerSet  6616
                      01548 ;;      614
                      01549 ;;      aopForRemat 393
                      01550 ;;      419: rname _buffer, val 16, const = 0
                      01551 ;; ***  genNearPointerSet  6631
                      01552 ;;      695 register type nRegs=1
                      01553 ;;      824: aopGet AOP_PCODE type PO_IMMEDIATE
                      01554 ;;      _buffer offset 16
                      01555 ;;      line = 6633 result AOP_PCODE=(_buffer+16), size=2, left -=-, size=0, right AOP_REG=r0x104D, size
                            =1
                      01556 ;;; /home/sdcc-builder/build/sdcc-build/orig/sdcc/src/pic14/gen.c:6347:genPackBits *{*
                      01557 ;; ***  genPackBits  6348
                      01558 ;; ***  mov2w  1366  offset=0
                      01559 ;; >>> /home/sdcc-builder/build/sdcc-build/orig/sdcc/src/pic14/gen.c:1371:mov2w
                      01560 ;;      1097 rIdx = r0x104D 
                      01561 ;; BANKOPT2 BANKSEL dropped; r0x1013 present in same bank as r0x1013
0046   08??           01562         MOVF    r0x1013,W       ;id=991,key=00c,inCond:1,outCond:14,flow seq=031,rIdx=r0x104D
                      01563 ;; >>> /home/sdcc-builder/build/sdcc-build/orig/sdcc/src/pic14/gen.c:6488:genPackBits
0047   390F           01564         ANDLW   0x0f    ;id=993,key=00d,inCond:410,outCond:14,flow seq=031
                      01565 ;; >>> /home/sdcc-builder/build/sdcc-build/orig/sdcc/src/pic14/gen.c:6490:genPackBits
                      01566 ;; BANKOPT2 BANKSEL dropped; r0x1018 present in same bank as r0x1013
0048   00??           01567         MOVWF   r0x1018 ;id=995,key=00e,inCond:10,outCond:1,flow seq=031,rIdx=r0x1052
                      01568 ;;; /home/sdcc-builder/build/sdcc-build/orig/sdcc/src/pic14/gen.c:4996:AccLsh *{*
                      01569 ;; ***  AccLsh  4997
                      01570 ;; >>> /home/sdcc-builder/build/sdcc-build/orig/sdcc/src/pic14/gen.c:5019:AccLsh
                      01571 ;; BANKOPT2 BANKSEL dropped; r0x1018 present in same bank as r0x1013
0049   0E??           01572         SWAPF   r0x1018,F       ;id=999,key=00f,inCond:1,outCond:1,flow seq=031,rIdx=r0x1052
                      01573 ;; >>> /home/sdcc-builder/build/sdcc-build/orig/sdcc/src/pic14/gen.c:5036:AccLsh
gpasm-1.5.2 #0 (Sep 16 2019) build/default/pr   9-16-2019  10:40:44         PAGE 31


LOC    OBJECT CODE    LINE  SOURCE TEXT
  VALUE

004A   30F0           01574         MOVLW   0xf0    ;id=1001,key=010,inCond:400,outCond:10,flow seq=031
                      01575 ;; >>> /home/sdcc-builder/build/sdcc-build/orig/sdcc/src/pic14/gen.c:5037:AccLsh
                      01576 ;; BANKOPT2 BANKSEL dropped; r0x1018 present in same bank as r0x1013
004B   05??           01577         ANDWF   r0x1018,F       ;id=1003,key=011,inCond:11,outCond:5,flow seq=031,rIdx=r0x1052
                      01578 ;; ***  mov2w  1366  offset=0
                      01579 ;; >>> /home/sdcc-builder/build/sdcc-build/orig/sdcc/src/pic14/gen.c:1369:mov2w
004C   30??           01580         MOVLW   (_buffer + 16)  ;id=1006,key=012,inCond:400,outCond:10,flow seq=031
                      01581 ;; >>> /home/sdcc-builder/build/sdcc-build/orig/sdcc/src/pic14/gen.c:6500:genPackBits
004D   390F           01582         ANDLW   0x0f    ;id=1008,key=013,inCond:410,outCond:14,flow seq=031
                      01583 ;; >>> /home/sdcc-builder/build/sdcc-build/orig/sdcc/src/pic14/gen.c:6501:genPackBits
                      01584 ;; BANKOPT2 BANKSEL dropped; r0x1018 present in same bank as r0x1013
004E   04??           01585         IORWF   r0x1018,W       ;id=1010,key=014,inCond:11,outCond:14,flow seq=031,rIdx=r0x1052
                      01586 ;; >>> /home/sdcc-builder/build/sdcc-build/orig/sdcc/src/pic14/gen.c:1378:movwf
                      01587 ;;      popGet AOP_PCODE (PO_IMMEDIATE + 0) 1118 _buffer
004F   0??? 0???      01588         BANKSEL _buffer ;id=1983,key=015,inCond:0,outCond:0,flow seq=031
0051   00??           01589         MOVWF   (_buffer + 16)  ;id=1013,key=016,inCond:10,outCond:1,flow seq=031
                      01590 ;;; /home/sdcc-builder/build/sdcc-build/orig/sdcc/src/pic14/gen.c:2308:resultRemat *{*
                      01591 ;;; /home/sdcc-builder/build/sdcc-build/orig/sdcc/src/pic14/gen.c:2675:genRet *{*
                      01592 ;; ***  genRet  2677
                      01593 ;;; /home/sdcc-builder/build/sdcc-build/orig/sdcc/src/pic14/gen.c:1328:mov2w_op *{*
                      01594 ;; >>> /home/sdcc-builder/build/sdcc-build/orig/sdcc/src/pic14/gen.c:1346:mov2w_op
                      01595 ;       .line   29; "../../../lib/buffer.c"     return 1;
0052   3001           01596         MOVLW   0x01    ;id=1020,key=017,inCond:400,outCond:10,flow seq=031
                      01597 ;<>Start of new flow, seq=0x32 ancestor = 0x2c
                      01598 ;  from: 031 02c ; to: 
                      01599 ;;; /home/sdcc-builder/build/sdcc-build/orig/sdcc/src/pic14/gen.c:2308:resultRemat *{*
                      01600 ;;; /home/sdcc-builder/build/sdcc-build/orig/sdcc/src/pic14/gen.c:2752:genLabel *{*
                      01601 ;; ***  genLabel  2755
                      01602 ;_00131_DS_:
                      01603 ;;; /home/sdcc-builder/build/sdcc-build/orig/sdcc/src/pic14/gen.c:2308:resultRemat *{*
                      01604 ;;; /home/sdcc-builder/build/sdcc-build/orig/sdcc/src/pic14/gen.c:2520:genEndFunction *{*
                      01605 ;; ***  genEndFunction  2522
                      01606 ;return
                      01607 ;; BANKOPT3 drop assumptions: PCI with label or call found
0053                  01608 _00131_DS_:
                      01609 ;       .line   30; "../../../lib/buffer.c"     }
0053   0008           01610         RETURN          ;id=1031,key=000,inCond:10,outCond:e,flow seq=032
                      01611 ;<>Start of new flow, seq=0x33
                      01612 ;  from: ; to: 
                      01613 ; exit point of _buffer_putch
                      01614 ;;; /home/sdcc-builder/build/sdcc-build/orig/sdcc/src/pic14/gen.c:7535:genpic14Code *{*
                      01615 
                      01616 ;***
                      01617 ;  pBlock Stats: dbName = C
                      01618 ;***
                      01619 ;has an exit
                      01620 ;functions called:
                      01621 ;   _00123_DS_
                      01622 ;   _00123_DS_
                      01623 ;5 compiler assigned registers:
                      01624 ;   r0x102A
                      01625 ;   r0x102B
                      01626 ;   r0x102C
gpasm-1.5.2 #0 (Sep 16 2019) build/default/pr   9-16-2019  10:40:44         PAGE 32


LOC    OBJECT CODE    LINE  SOURCE TEXT
  VALUE

                      01627 ;   r0x102D
                      01628 ;   r0x102E
                      01629 ;; Starting pCode block
                      01630 ;<>Start of new flow, seq=0x34 ancestor = 0x34
                      01631 ;  from: 03d ; to: 036 035 
                      01632 ;;; /home/sdcc-builder/build/sdcc-build/orig/sdcc/src/pic14/gen.c:2308:resultRemat *{*
                      01633 ;;; /home/sdcc-builder/build/sdcc-build/orig/sdcc/src/pic14/gen.c:2752:genLabel *{*
                      01634 ;; ***  genLabel  2755
                      01635 ;;; /home/sdcc-builder/build/sdcc-build/orig/sdcc/src/pic14/gen.c:2308:resultRemat *{*
                      01636 ;;; /home/sdcc-builder/build/sdcc-build/orig/sdcc/src/pic14/gen.c:2332:genFunction *{*
                      01637 ;; ***  genFunction  2334 curr label offset=4previous max_key=0 
                      01638 ;;      -----------------------------------------
                      01639 ;;       function buffer_flush
                      01640 ;;      -----------------------------------------
                      01641 ;_buffer_flush:
                      01642 S_buffer__buffer_flush  code
0000                  01643 _buffer_flush:
                      01644 ; 2 exit points
                      01645 ;;; /home/sdcc-builder/build/sdcc-build/orig/sdcc/src/pic14/gen.c:2308:resultRemat *{*
                      01646 ;;; /home/sdcc-builder/build/sdcc-build/orig/sdcc/src/pic14/gen.c:2308:resultRemat *{*
                      01647 ;;; /home/sdcc-builder/build/sdcc-build/orig/sdcc/src/pic14/gen.c:2308:resultRemat *{*
                      01648 ;;; /home/sdcc-builder/build/sdcc-build/orig/sdcc/src/pic14/gen.c:2308:resultRemat *{*
                      01649 ;;; /home/sdcc-builder/build/sdcc-build/orig/sdcc/src/pic14/gen.c:2752:genLabel *{*
                      01650 ;; ***  genLabel  2755
                      01651 ;_00109_DS_:
                      01652 ;;; /home/sdcc-builder/build/sdcc-build/orig/sdcc/src/pic14/gen.c:2308:resultRemat *{*
                      01653 ;;; /home/sdcc-builder/build/sdcc-build/orig/sdcc/src/pic14/gen.c:6260:genPointerGet *{*
                      01654 ;; ***  genPointerGet  6261
                      01655 ;;; /home/sdcc-builder/build/sdcc-build/orig/sdcc/src/pic14/gen.c:6042:genNearPointerGet *{*
                      01656 ;; ***  genNearPointerGet  6043
                      01657 ;;      614
                      01658 ;;      aopForRemat 393
                      01659 ;;      419: rname _buffer, val 16, const = 0
                      01660 ;; ***  genNearPointerGet  6059
                      01661 ;;      695 register type nRegs=1
                      01662 ;;; /home/sdcc-builder/build/sdcc-build/orig/sdcc/src/pic14/gen.c:5858:genUnpackBits *{*
                      01663 ;; ***  genUnpackBits  5859
                      01664 ;; >>> /home/sdcc-builder/build/sdcc-build/orig/sdcc/src/pic14/gen.c:5947:genUnpackBits
                      01665 ;;      1097 rIdx = r0x1048 
                      01666 ;; BANKOPT3 drop assumptions: PCI with label or call found
0000                  01667 _00109_DS_:
                      01668 ;       .line   15; "../../../lib/buffer.c"     while(buffer.p < buffer.n) {
0000   0??? 0???      01669         BANKSEL r0x102A ;id=1986,key=000,inCond:0,outCond:0,flow seq=034
0002   01??           01670         CLRF    r0x102A ;id=257,key=001,inCond:0,outCond:5,flow seq=034,rIdx=r0x1048
                      01671 ;; ***  mov2w  1366  offset=0
                      01672 ;; >>> /home/sdcc-builder/build/sdcc-build/orig/sdcc/src/pic14/gen.c:1369:mov2w
0003   30??           01673         MOVLW   (_buffer + 16)  ;id=260,key=002,inCond:400,outCond:10,flow seq=034
                      01674 ;; >>> /home/sdcc-builder/build/sdcc-build/orig/sdcc/src/pic14/gen.c:5967:genUnpackBits
0004   390F           01675         ANDLW   0x0f    ;id=262,key=003,inCond:410,outCond:14,flow seq=034
                      01676 ;; >>> /home/sdcc-builder/build/sdcc-build/orig/sdcc/src/pic14/gen.c:1378:movwf
                      01677 ;;      1097 rIdx = r0x1048 
                      01678 ;; BANKOPT2 BANKSEL dropped; r0x102A present in same bank as r0x102A
0005   00??           01679         MOVWF   r0x102A ;id=265,key=004,inCond:10,outCond:1,flow seq=034,rIdx=r0x1048
gpasm-1.5.2 #0 (Sep 16 2019) build/default/pr   9-16-2019  10:40:44         PAGE 33


LOC    OBJECT CODE    LINE  SOURCE TEXT
  VALUE

                      01680 ;;      1097 rIdx = r0x1048 
                      01681 ;;; /home/sdcc-builder/build/sdcc-build/orig/sdcc/src/pic14/gen.c:5050:AccRsh *{*
                      01682 ;; ***  AccRsh  5051
                      01683 ;; ***  addSign  857
                      01684 ;;; /home/sdcc-builder/build/sdcc-build/orig/sdcc/src/pic14/genarith.c:858:addSign *{*
                      01685 ;;; /home/sdcc-builder/build/sdcc-build/orig/sdcc/src/pic14/gen.c:2308:resultRemat *{*
                      01686 ;;; /home/sdcc-builder/build/sdcc-build/orig/sdcc/src/pic14/gen.c:6260:genPointerGet *{*
                      01687 ;; ***  genPointerGet  6261
                      01688 ;;; /home/sdcc-builder/build/sdcc-build/orig/sdcc/src/pic14/gen.c:6042:genNearPointerGet *{*
                      01689 ;; ***  genNearPointerGet  6043
                      01690 ;;      614
                      01691 ;;      aopForRemat 393
                      01692 ;;      419: rname _buffer, val 16, const = 0
                      01693 ;; ***  genNearPointerGet  6059
                      01694 ;;      695 register type nRegs=1
                      01695 ;;; /home/sdcc-builder/build/sdcc-build/orig/sdcc/src/pic14/gen.c:5858:genUnpackBits *{*
                      01696 ;; ***  genUnpackBits  5859
                      01697 ;; >>> /home/sdcc-builder/build/sdcc-build/orig/sdcc/src/pic14/gen.c:5947:genUnpackBits
                      01698 ;;      1097 rIdx = r0x1049 
                      01699 ;; BANKOPT2 BANKSEL dropped; r0x102B present in same bank as r0x102A
0006   01??           01700         CLRF    r0x102B ;id=285,key=005,inCond:0,outCond:5,flow seq=034,rIdx=r0x1049
                      01701 ;; ***  mov2w  1366  offset=0
                      01702 ;; >>> /home/sdcc-builder/build/sdcc-build/orig/sdcc/src/pic14/gen.c:1369:mov2w
0007   30??           01703         MOVLW   (_buffer + 16)  ;id=288,key=006,inCond:400,outCond:10,flow seq=034
                      01704 ;; >>> /home/sdcc-builder/build/sdcc-build/orig/sdcc/src/pic14/gen.c:5967:genUnpackBits
0008   39F0           01705         ANDLW   0xf0    ;id=290,key=007,inCond:410,outCond:14,flow seq=034
                      01706 ;; >>> /home/sdcc-builder/build/sdcc-build/orig/sdcc/src/pic14/gen.c:1378:movwf
                      01707 ;;      1097 rIdx = r0x1049 
                      01708 ;; BANKOPT2 BANKSEL dropped; r0x102B present in same bank as r0x102A
0009   00??           01709         MOVWF   r0x102B ;id=293,key=008,inCond:10,outCond:1,flow seq=034,rIdx=r0x1049
                      01710 ;;      1097 rIdx = r0x1049 
                      01711 ;;; /home/sdcc-builder/build/sdcc-build/orig/sdcc/src/pic14/gen.c:5050:AccRsh *{*
                      01712 ;; ***  AccRsh  5051
                      01713 ;; >>> /home/sdcc-builder/build/sdcc-build/orig/sdcc/src/pic14/gen.c:5096:AccRsh
                      01714 ;; BANKOPT2 BANKSEL dropped; r0x102B present in same bank as r0x102A
000A   0E??           01715         SWAPF   r0x102B,F       ;id=298,key=009,inCond:1,outCond:1,flow seq=034,rIdx=r0x1049
                      01716 ;; >>> /home/sdcc-builder/build/sdcc-build/orig/sdcc/src/pic14/gen.c:5132:AccRsh
000B   300F           01717         MOVLW   0x0f    ;id=300,key=00a,inCond:400,outCond:10,flow seq=034
                      01718 ;; >>> /home/sdcc-builder/build/sdcc-build/orig/sdcc/src/pic14/gen.c:5133:AccRsh
                      01719 ;; BANKOPT2 BANKSEL dropped; r0x102B present in same bank as r0x102A
000C   05??           01720         ANDWF   r0x102B,F       ;id=302,key=00b,inCond:11,outCond:5,flow seq=034,rIdx=r0x1049
                      01721 ;; ***  addSign  857
                      01722 ;;; /home/sdcc-builder/build/sdcc-build/orig/sdcc/src/pic14/genarith.c:858:addSign *{*
                      01723 ;;; /home/sdcc-builder/build/sdcc-build/orig/sdcc/src/pic14/gen.c:2308:resultRemat *{*
                      01724 ;;; /home/sdcc-builder/build/sdcc-build/orig/sdcc/src/pic14/gen.c:7229:genCast *{*
                      01725 ;; ***  genCast  7230
                      01726 ;;      695 register type nRegs=1
                      01727 ;;      695 register type nRegs=1
                      01728 ;;      line = 7238 result AOP_REG=r0x104A, size=1, left -=-, size=0, right AOP_REG=r0x1049, size=1
                      01729 ;; ***  genCast  7362
                      01730 ;; >>> /home/sdcc-builder/build/sdcc-build/orig/sdcc/src/pic14/gen.c:7386:genCast
                      01731 ;;      1097 rIdx = r0x1049 
                      01732 ;; BANKOPT2 BANKSEL dropped; r0x102B present in same bank as r0x102A
gpasm-1.5.2 #0 (Sep 16 2019) build/default/pr   9-16-2019  10:40:44         PAGE 34


LOC    OBJECT CODE    LINE  SOURCE TEXT
  VALUE

000D   08??           01733         MOVF    r0x102B,W       ;id=1827,key=00c,inCond:1,outCond:14,flow seq=034,rIdx=r0x1049
                      01734 ;; BANKOPT2 BANKSEL dropped; r0x102C present in same bank as r0x102A
000E   00??           01735         MOVWF   r0x102C ;id=1828,key=00d,inCond:10,outCond:1,flow seq=034,rIdx=r0x104A
                      01736 ;; BANKOPT2 BANKSEL dropped; r0x102A present in same bank as r0x102A
000F   02??           01737         SUBWF   r0x102A,W       ;id=329,key=00e,inCond:11,outCond:1e,flow seq=034,rIdx=r0x1048
                      01738 ;;; /home/sdcc-builder/build/sdcc-build/orig/sdcc/src/pic14/gen.c:3247:genSkipc *{*
                      01739 ;; >>> /home/sdcc-builder/build/sdcc-build/orig/sdcc/src/pic14/gen.c:3252:genSkipc
0010   1803           01740         BTFSC   STATUS,0        ;id=333,key=00f,inCond:23,outCond:0,flow seq=034
                      01741 ;<>Start of new flow, seq=0x35 ancestor = 0x34
                      01742 ;  from: 034 ; to: 03e 
                      01743 ;; >>> /home/sdcc-builder/build/sdcc-build/orig/sdcc/src/pic14/gen.c:3256:genSkipc
                      01744 ;; ***  popGetLabel  key=3, label offset 8
0011   2???           01745         GOTO    _00111_DS_      ;id=336,key=000,inCond:0,outCond:0,flow seq=035
                      01746 ;<>Start of new flow, seq=0x36 ancestor = 0x34
                      01747 ;  from: 034 ; to: 038 037 
                      01748 ;;genSkipc:3257: created from rifx:0000000004785780
                      01749 ;;; /home/sdcc-builder/build/sdcc-build/orig/sdcc/src/pic14/gen.c:2308:resultRemat *{*
                      01750 ;;; /home/sdcc-builder/build/sdcc-build/orig/sdcc/src/pic14/gen.c:2308:resultRemat *{*
                      01751 ;;; /home/sdcc-builder/build/sdcc-build/orig/sdcc/src/pic14/gen.c:2308:resultRemat *{*
                      01752 ;;; /home/sdcc-builder/build/sdcc-build/orig/sdcc/src/pic14/gen.c:6260:genPointerGet *{*
                      01753 ;; ***  genPointerGet  6261
                      01754 ;;; /home/sdcc-builder/build/sdcc-build/orig/sdcc/src/pic14/gen.c:6042:genNearPointerGet *{*
                      01755 ;; ***  genNearPointerGet  6043
                      01756 ;;      614
                      01757 ;;      aopForRemat 393
                      01758 ;;      419: rname _buffer, val 17, const = 0
                      01759 ;;; /home/sdcc-builder/build/sdcc-build/orig/sdcc/src/pic14/gen.c:5996:genDataPointerGet *{*
                      01760 ;; ***  genDataPointerGet  5997
                      01761 ;;      695 register type nRegs=2
                      01762 ;;      824: aopGet AOP_PCODE type PO_IMMEDIATE
                      01763 ;;      _buffer offset 17
                      01764 ;;      line = 6009 result AOP_REG=r0x1048, size=2, left AOP_PCODE=(_buffer+17), size=2, right -=-, size
                            =0
                      01765 ;;; /home/sdcc-builder/build/sdcc-build/orig/sdcc/src/pic14/gen.c:2308:resultRemat *{*
                      01766 ;;; /home/sdcc-builder/build/sdcc-build/orig/sdcc/src/pic14/gen.c:2308:resultRemat *{*
                      01767 ;;; /home/sdcc-builder/build/sdcc-build/orig/sdcc/src/pic14/gen.c:6260:genPointerGet *{*
                      01768 ;; ***  genPointerGet  6261
                      01769 ;;; /home/sdcc-builder/build/sdcc-build/orig/sdcc/src/pic14/gen.c:6042:genNearPointerGet *{*
                      01770 ;; ***  genNearPointerGet  6043
                      01771 ;;      614
                      01772 ;;      aopForRemat 393
                      01773 ;;      419: rname _buffer, val 16, const = 0
                      01774 ;; ***  genNearPointerGet  6059
                      01775 ;;      695 register type nRegs=1
                      01776 ;;; /home/sdcc-builder/build/sdcc-build/orig/sdcc/src/pic14/gen.c:5858:genUnpackBits *{*
                      01777 ;; ***  genUnpackBits  5859
                      01778 ;; >>> /home/sdcc-builder/build/sdcc-build/orig/sdcc/src/pic14/gen.c:5947:genUnpackBits
                      01779 ;;      1097 rIdx = r0x104A 
                      01780 ;; BANKOPT2 BANKSEL dropped; r0x102C present in same bank as r0x102A
                      01781 ;       .line   16; "../../../lib/buffer.c"     buffer.op(buffer.x[buffer.p++]);
0012   01??           01782         CLRF    r0x102C ;id=370,key=000,inCond:0,outCond:5,flow seq=036,rIdx=r0x104A
                      01783 ;; ***  mov2w  1366  offset=0
                      01784 ;; >>> /home/sdcc-builder/build/sdcc-build/orig/sdcc/src/pic14/gen.c:1369:mov2w
gpasm-1.5.2 #0 (Sep 16 2019) build/default/pr   9-16-2019  10:40:44         PAGE 35


LOC    OBJECT CODE    LINE  SOURCE TEXT
  VALUE

0013   30??           01785         MOVLW   (_buffer + 16)  ;id=373,key=001,inCond:400,outCond:10,flow seq=036
                      01786 ;; >>> /home/sdcc-builder/build/sdcc-build/orig/sdcc/src/pic14/gen.c:5967:genUnpackBits
0014   390F           01787         ANDLW   0x0f    ;id=375,key=002,inCond:410,outCond:14,flow seq=036
                      01788 ;; >>> /home/sdcc-builder/build/sdcc-build/orig/sdcc/src/pic14/gen.c:1378:movwf
                      01789 ;;      1097 rIdx = r0x104A 
                      01790 ;; BANKOPT2 BANKSEL dropped; r0x102C present in same bank as r0x102A
0015   00??           01791         MOVWF   r0x102C ;id=378,key=003,inCond:10,outCond:1,flow seq=036,rIdx=r0x104A
                      01792 ;;      1097 rIdx = r0x104A 
                      01793 ;;; /home/sdcc-builder/build/sdcc-build/orig/sdcc/src/pic14/gen.c:5050:AccRsh *{*
                      01794 ;; ***  AccRsh  5051
                      01795 ;; ***  addSign  857
                      01796 ;;; /home/sdcc-builder/build/sdcc-build/orig/sdcc/src/pic14/genarith.c:858:addSign *{*
                      01797 ;;; /home/sdcc-builder/build/sdcc-build/orig/sdcc/src/pic14/gen.c:2308:resultRemat *{*
                      01798 ;; ***  genPlus  607
                      01799 ;;; /home/sdcc-builder/build/sdcc-build/orig/sdcc/src/pic14/genarith.c:608:genPlus *{*
                      01800 ;;      695 register type nRegs=1
                      01801 ;;      695 register type nRegs=1
                      01802 ;;      line = 614 result AOP_REG=r0x104B, size=1, left AOP_REG=r0x104A, size=1, right AOP_LIT=0x01, siz
                            e=1
                      01803 ;;; /home/sdcc-builder/build/sdcc-build/orig/sdcc/src/pic14/genarith.c:138:genPlusIncr *{*
                      01804 ;; ***  genPlusIncr  140
                      01805 ;;      result AOP_REG, left AOP_REG, right AOP_LIT
                      01806 ;;      genPlusIncr  152
                      01807 ;;      genPlusIncr  176
                      01808 ;;      couldn't increment 
                      01809 ;;      adding lit to something. size 1
                      01810 ;;; /home/sdcc-builder/build/sdcc-build/orig/sdcc/src/pic14/genarith.c:265:genAddLit *{*
                      01811 ;; ***  genAddLit  266
                      01812 ;;  left and result aren't same genAddLit  510
                      01813 ;; >>> /home/sdcc-builder/build/sdcc-build/orig/sdcc/src/pic14/genarith.c:522:genAddLit
                      01814 ;;      1097 rIdx = r0x104A 
                      01815 ;; BANKOPT2 BANKSEL dropped; r0x102C present in same bank as r0x102A
0016   0A??           01816         INCF    r0x102C,W       ;id=402,key=004,inCond:1,outCond:14,flow seq=036,rIdx=r0x104A
                      01817 ;;; /home/sdcc-builder/build/sdcc-build/orig/sdcc/src/pic14/genarith.c:249:emitMOVWF *{*
                      01818 ;; >>> /home/sdcc-builder/build/sdcc-build/orig/sdcc/src/pic14/genarith.c:253:emitMOVWF
                      01819 ;;      1097 rIdx = r0x104B 
                      01820 ;; BANKOPT2 BANKSEL dropped; r0x102D present in same bank as r0x102A
0017   00??           01821         MOVWF   r0x102D ;id=1829,key=005,inCond:10,outCond:1,flow seq=036,rIdx=r0x104B
0018   390F           01822         ANDLW   0x0f    ;id=429,key=006,inCond:410,outCond:14,flow seq=036
                      01823 ;; >>> /home/sdcc-builder/build/sdcc-build/orig/sdcc/src/pic14/gen.c:6490:genPackBits
                      01824 ;; BANKOPT2 BANKSEL dropped; r0x102E present in same bank as r0x102A
0019   00??           01825         MOVWF   r0x102E ;id=431,key=007,inCond:10,outCond:1,flow seq=036,rIdx=r0x104C
                      01826 ;; ***  mov2w  1366  offset=0
                      01827 ;; >>> /home/sdcc-builder/build/sdcc-build/orig/sdcc/src/pic14/gen.c:1369:mov2w
001A   30??           01828         MOVLW   (_buffer + 16)  ;id=434,key=008,inCond:400,outCond:10,flow seq=036
                      01829 ;; >>> /home/sdcc-builder/build/sdcc-build/orig/sdcc/src/pic14/gen.c:6500:genPackBits
001B   39F0           01830         ANDLW   0xf0    ;id=436,key=009,inCond:410,outCond:14,flow seq=036
                      01831 ;; >>> /home/sdcc-builder/build/sdcc-build/orig/sdcc/src/pic14/gen.c:6501:genPackBits
                      01832 ;; BANKOPT2 BANKSEL dropped; r0x102E present in same bank as r0x102A
001C   04??           01833         IORWF   r0x102E,W       ;id=438,key=00a,inCond:11,outCond:14,flow seq=036,rIdx=r0x104C
                      01834 ;; >>> /home/sdcc-builder/build/sdcc-build/orig/sdcc/src/pic14/gen.c:1378:movwf
                      01835 ;;      popGet AOP_PCODE (PO_IMMEDIATE + 0) 1118 _buffer
001D   0??? 0???      01836         BANKSEL _buffer ;id=2001,key=00b,inCond:0,outCond:0,flow seq=036
gpasm-1.5.2 #0 (Sep 16 2019) build/default/pr   9-16-2019  10:40:44         PAGE 36


LOC    OBJECT CODE    LINE  SOURCE TEXT
  VALUE

001F   00??           01837         MOVWF   (_buffer + 16)  ;id=441,key=00c,inCond:10,outCond:1,flow seq=036
                      01838 ;;; /home/sdcc-builder/build/sdcc-build/orig/sdcc/src/pic14/gen.c:2308:resultRemat *{*
                      01839 ;;; /home/sdcc-builder/build/sdcc-build/orig/sdcc/src/pic14/gen.c:7229:genCast *{*
                      01840 ;; ***  genCast  7230
                      01841 ;;      695 register type nRegs=1
                      01842 ;;      695 register type nRegs=1
                      01843 ;;      line = 7238 result AOP_REG=r0x104B, size=1, left -=-, size=0, right AOP_REG=r0x104A, size=1
                      01844 ;; ***  genCast  7362
                      01845 ;; >>> /home/sdcc-builder/build/sdcc-build/orig/sdcc/src/pic14/gen.c:7386:genCast
                      01846 ;;      1097 rIdx = r0x104A 
0020   0??? 0???      01847         BANKSEL r0x102C ;id=2002,key=00d,inCond:0,outCond:0,flow seq=036
0022   08??           01848         MOVF    r0x102C,W       ;id=1830,key=00e,inCond:1,outCond:14,flow seq=036,rIdx=r0x104A
                      01849 ;; BANKOPT2 BANKSEL dropped; r0x102D present in same bank as r0x102C
0023   00??           01850         MOVWF   r0x102D ;id=1831,key=00f,inCond:10,outCond:1,flow seq=036,rIdx=r0x104B
                      01851 ;; BANKOPT2 BANKSEL dropped; r0x102C present in same bank as r0x102C
0024   00??           01852         MOVWF   r0x102C ;id=1832,key=010,inCond:10,outCond:1,flow seq=036,rIdx=r0x104A
0025   3E??           01853         ADDLW   (_buffer + 0)   ;id=489,key=011,inCond:410,outCond:1e,flow seq=036
                      01854 ;; >>> /home/sdcc-builder/build/sdcc-build/orig/sdcc/src/pic14/genarith.c:732:genPlus
                      01855 ;;      1097 rIdx = r0x104B 
                      01856 ;; BANKOPT2 BANKSEL dropped; r0x102D present in same bank as r0x102C
0026   00??           01857         MOVWF   r0x102D ;id=492,key=012,inCond:10,outCond:1,flow seq=036,rIdx=r0x104B
                      01858 ;; >>> /home/sdcc-builder/build/sdcc-build/orig/sdcc/src/pic14/genarith.c:795:genPlus
0027   30??           01859         MOVLW   high (_buffer + 0)      ;id=494,key=013,inCond:400,outCond:10,flow seq=036
                      01860 ;; >>> /home/sdcc-builder/build/sdcc-build/orig/sdcc/src/pic14/genarith.c:796:genPlus
0028   1803           01861         BTFSC   STATUS,0        ;id=496,key=014,inCond:23,outCond:0,flow seq=036
                      01862 ;<>Start of new flow, seq=0x37 ancestor = 0x36
                      01863 ;  from: 036 ; to: 038 
                      01864 ;; >>> /home/sdcc-builder/build/sdcc-build/orig/sdcc/src/pic14/genarith.c:797:genPlus
0029   3E01           01865         ADDLW   0x01    ;id=498,key=000,inCond:410,outCond:1e,flow seq=037
                      01866 ;<>Start of new flow, seq=0x38 ancestor = 0x36
                      01867 ;  from: 037 036 ; to: 03a 039 
                      01868 ;; >>> /home/sdcc-builder/build/sdcc-build/orig/sdcc/src/pic14/genarith.c:798:genPlus
                      01869 ;;      1097 rIdx = r0x104C 
                      01870 ;; BANKOPT2 BANKSEL dropped; r0x102E present in same bank as r0x102C
002A   00??           01871         MOVWF   r0x102E ;id=501,key=000,inCond:10,outCond:1,flow seq=038,rIdx=r0x104C
                      01872 ;;; /home/sdcc-builder/build/sdcc-build/orig/sdcc/src/pic14/gen.c:2308:resultRemat *{*
                      01873 ;;; /home/sdcc-builder/build/sdcc-build/orig/sdcc/src/pic14/gen.c:6260:genPointerGet *{*
                      01874 ;; ***  genPointerGet  6261
                      01875 ;;; /home/sdcc-builder/build/sdcc-build/orig/sdcc/src/pic14/gen.c:6042:genNearPointerGet *{*
                      01876 ;; ***  genNearPointerGet  6043
                      01877 ;;      695 register type nRegs=2
                      01878 ;; ***  genNearPointerGet  6059
                      01879 ;;      695 register type nRegs=1
                      01880 ;;; /home/sdcc-builder/build/sdcc-build/orig/sdcc/src/pic14/gen.c:1328:mov2w_op *{*
                      01881 ;; ***  mov2w  1366  offset=0
                      01882 ;; >>> /home/sdcc-builder/build/sdcc-build/orig/sdcc/src/pic14/gen.c:1371:mov2w
                      01883 ;;      1097 rIdx = r0x104B 
                      01884 ;; BANKOPT2 BANKSEL dropped; r0x102D present in same bank as r0x102C
002B   08??           01885         MOVF    r0x102D,W       ;id=514,key=001,inCond:1,outCond:14,flow seq=038,rIdx=r0x104B
                      01886 ;; >>> /home/sdcc-builder/build/sdcc-build/orig/sdcc/src/pic14/gen.c:5700:setup_fsr
002C   1283 1303      01887         BANKSEL FSR     ;id=2008,key=002,inCond:0,outCond:0,flow seq=038
002E   0084           01888         MOVWF   FSR     ;id=516,key=003,inCond:10,outCond:1,flow seq=038
                      01889 ;;; /home/sdcc-builder/build/sdcc-build/orig/sdcc/src/pic14/gen.c:5651:SetIrp *{*
gpasm-1.5.2 #0 (Sep 16 2019) build/default/pr   9-16-2019  10:40:44         PAGE 37


LOC    OBJECT CODE    LINE  SOURCE TEXT
  VALUE

                      01890 ;; >>> /home/sdcc-builder/build/sdcc-build/orig/sdcc/src/pic14/gen.c:5678:SetIrp
                      01891 ;; BANKOPT1 BANKSEL dropped; STATUS present in all of FSR's banks
002F   1383           01892         BCF     STATUS,7        ;id=519,key=004,inCond:21,outCond:21,flow seq=038
                      01893 ;; >>> /home/sdcc-builder/build/sdcc-build/orig/sdcc/src/pic14/gen.c:5681:SetIrp
0030   0??? 0???      01894         BANKSEL r0x102E ;id=2010,key=005,inCond:0,outCond:0,flow seq=038
0032   18??           01895         BTFSC   r0x102E,0       ;id=521,key=006,inCond:21,outCond:0,flow seq=038
                      01896 ;<>Start of new flow, seq=0x39 ancestor = 0x38
                      01897 ;  from: 038 ; to: 03a 
                      01898 ;; >>> /home/sdcc-builder/build/sdcc-build/orig/sdcc/src/pic14/gen.c:5682:SetIrp
0033   1783           01899         BSF     STATUS,7        ;id=523,key=000,inCond:21,outCond:21,flow seq=039
                      01900 ;<>Start of new flow, seq=0x3a ancestor = 0x38
                      01901 ;  from: 039 038 ; to: 03b 03c 
                      01902 ;; ***  genNearPointerGet  6086
                      01903 ;; >>> /home/sdcc-builder/build/sdcc-build/orig/sdcc/src/pic14/gen.c:6093:genNearPointerGet
0034   1283 1303      01904         BANKSEL INDF    ;id=2011,key=000,inCond:0,outCond:0,flow seq=03a
0036   0800           01905         MOVF    INDF,W  ;id=526,key=001,inCond:1,outCond:14,flow seq=03a
                      01906 ;; >>> /home/sdcc-builder/build/sdcc-build/orig/sdcc/src/pic14/gen.c:6100:genNearPointerGet
                      01907 ;;      1097 rIdx = r0x104A 
0037   0??? 0???      01908         BANKSEL r0x102C ;id=2012,key=002,inCond:0,outCond:0,flow seq=03a
0039   00??           01909         MOVWF   r0x102C ;id=529,key=003,inCond:10,outCond:1,flow seq=03a,rIdx=r0x104A
                      01910 ;;; /home/sdcc-builder/build/sdcc-build/orig/sdcc/src/pic14/gen.c:2308:resultRemat *{*
                      01911 ;;; /home/sdcc-builder/build/sdcc-build/orig/sdcc/src/pic14/gen.c:2308:resultRemat *{*
                      01912 ;;; /home/sdcc-builder/build/sdcc-build/orig/sdcc/src/pic14/gen.c:2215:genPcall *{*
                      01913 ;; ***  genPcall  2217
                      01914 ;;; /home/sdcc-builder/build/sdcc-build/orig/sdcc/src/pic14/gen.c:1786:saveRegisters *{*
                      01915 ;; ***  saveRegisters  1788
                      01916 ;;      695 register type nRegs=2
                      01917 ;;      line = 2231 result -=-, size=0, left AOP_REG=r0x1048, size=2, right -=-, size=0
                      01918 ;; ***  genPcall  2240 - WARNING arg-passing to indirect call not supported
                      01919 ;; >>> /home/sdcc-builder/build/sdcc-build/orig/sdcc/src/pic14/gen.c:2260:genPcall
                      01920 ;; ***  popGetLabel  key=15, label offset 8
                      01921 ;; BANKOPT3 drop assumptions: PCI with label or call found
003A   2???           01922         CALL    _00123_DS_      ;id=541,key=004,inCond:10,outCond:1e,flow seq=03a
                      01923 ;<>Start of new flow, seq=0x3b ancestor = 0x3a
                      01924 ;  from: 03a ; to: 03d 
                      01925 ;; ***  popGetLabel  key=16, label offset 8
                      01926 ;; >>> /home/sdcc-builder/build/sdcc-build/orig/sdcc/src/pic14/gen.c:2262:genPcall
003B   0??? 0???      01927         PAGESEL _00124_DS_      ;id=544,key=000,inCond:0,outCond:0,flow seq=03b
                      01928 ;; >>> /home/sdcc-builder/build/sdcc-build/orig/sdcc/src/pic14/gen.c:2263:genPcall
003D   2???           01929         GOTO    _00124_DS_      ;id=546,key=001,inCond:0,outCond:0,flow seq=03b
                      01930 ;<>Start of new flow, seq=0x3c ancestor = 0x3a
                      01931 ;  from: 03a ; to: 03d 
                      01932 ;; >>> /home/sdcc-builder/build/sdcc-build/orig/sdcc/src/pic14/gen.c:2266:genPcall
                      01933 ;;      1097 rIdx = r0x1049 
                      01934 ;; BANKOPT3 drop assumptions: PCI with label or call found
003E                  01935 _00123_DS_:
003E   0??? 0???      01936         BANKSEL r0x102B ;id=2015,key=000,inCond:0,outCond:0,flow seq=03c
0040   08??           01937         MOVF    r0x102B,W       ;id=550,key=001,inCond:1,outCond:14,flow seq=03c,rIdx=r0x1049
                      01938 ;; >>> /home/sdcc-builder/build/sdcc-build/orig/sdcc/src/pic14/gen.c:2267:genPcall
0041   1283 1303      01939         BANKSEL PCLATH  ;id=2016,key=002,inCond:0,outCond:0,flow seq=03c
0043   008A           01940         MOVWF   PCLATH  ;id=552,key=003,inCond:10,outCond:1,flow seq=03c
                      01941 ;; >>> /home/sdcc-builder/build/sdcc-build/orig/sdcc/src/pic14/gen.c:2268:genPcall
                      01942 ;;      1097 rIdx = r0x1048 
gpasm-1.5.2 #0 (Sep 16 2019) build/default/pr   9-16-2019  10:40:44         PAGE 38


LOC    OBJECT CODE    LINE  SOURCE TEXT
  VALUE

0044   0??? 0???      01943         BANKSEL r0x102A ;id=2017,key=004,inCond:0,outCond:0,flow seq=03c
0046   08??           01944         MOVF    r0x102A,W       ;id=555,key=005,inCond:1,outCond:14,flow seq=03c,rIdx=r0x1048
                      01945 ;; >>> /home/sdcc-builder/build/sdcc-build/orig/sdcc/src/pic14/gen.c:2269:genPcall
0047   1283 1303      01946         BANKSEL PCL     ;id=2018,key=006,inCond:0,outCond:0,flow seq=03c
0049   0082           01947         MOVWF   PCL     ;id=557,key=007,inCond:10,outCond:1,flow seq=03c
                      01948 ;<>Start of new flow, seq=0x3d ancestor = 0x3b
                      01949 ;  from: 03c 03b ; to: 034 
                      01950 ;;; /home/sdcc-builder/build/sdcc-build/orig/sdcc/src/pic14/gen.c:1830:unsaveRegisters *{*
                      01951 ;; ***  unsaveRegisters  1832
                      01952 ;;; /home/sdcc-builder/build/sdcc-build/orig/sdcc/src/pic14/gen.c:2308:resultRemat *{*
                      01953 ;;; /home/sdcc-builder/build/sdcc-build/orig/sdcc/src/pic14/gen.c:2770:genGoto *{*
                      01954 ;; >>> /home/sdcc-builder/build/sdcc-build/orig/sdcc/src/pic14/gen.c:2772:genGoto
                      01955 ;; ***  popGetLabel  key=1, label offset 8
                      01956 ;; BANKOPT3 drop assumptions: PCI with label or call found
004A                  01957 _00124_DS_:
004A   2???           01958         GOTO    _00109_DS_      ;id=565,key=000,inCond:0,outCond:0,flow seq=03d
                      01959 ;<>Start of new flow, seq=0x3e ancestor = 0x35
                      01960 ;  from: 035 ; to: 
                      01961 ;goto   _00109_DS_
                      01962 ;;; /home/sdcc-builder/build/sdcc-build/orig/sdcc/src/pic14/gen.c:2308:resultRemat *{*
                      01963 ;;; /home/sdcc-builder/build/sdcc-build/orig/sdcc/src/pic14/gen.c:2752:genLabel *{*
                      01964 ;; ***  genLabel  2755
                      01965 ;_00111_DS_:
                      01966 ;;; /home/sdcc-builder/build/sdcc-build/orig/sdcc/src/pic14/gen.c:2308:resultRemat *{*
                      01967 ;;; /home/sdcc-builder/build/sdcc-build/orig/sdcc/src/pic14/gen.c:2308:resultRemat *{*
                      01968 ;;; /home/sdcc-builder/build/sdcc-build/orig/sdcc/src/pic14/gen.c:6796:genPointerSet *{*
                      01969 ;; ***  genPointerSet  6797
                      01970 ;;; /home/sdcc-builder/build/sdcc-build/orig/sdcc/src/pic14/gen.c:6615:genNearPointerSet *{*
                      01971 ;; ***  genNearPointerSet  6616
                      01972 ;;      614
                      01973 ;;      aopForRemat 393
                      01974 ;;      419: rname _buffer, val 16, const = 0
                      01975 ;; ***  genNearPointerSet  6631
                      01976 ;;      824: aopGet AOP_PCODE type PO_IMMEDIATE
                      01977 ;;      _buffer offset 16
                      01978 ;;      line = 6633 result AOP_PCODE=(_buffer+16), size=2, left -=-, size=0, right AOP_LIT=0x00, size=1
                      01979 ;;; /home/sdcc-builder/build/sdcc-build/orig/sdcc/src/pic14/gen.c:6347:genPackBits *{*
                      01980 ;; ***  genPackBits  6348
                      01981 ;; ***  mov2w  1366  offset=0
                      01982 ;; >>> /home/sdcc-builder/build/sdcc-build/orig/sdcc/src/pic14/gen.c:1369:mov2w
                      01983 ;; BANKOPT3 drop assumptions: PCI with label or call found
004B                  01984 _00111_DS_:
                      01985 ;       .line   18; "../../../lib/buffer.c"     BUFFER_CLEAR();
004B   30??           01986         MOVLW   (_buffer + 16)  ;id=590,key=000,inCond:400,outCond:10,flow seq=03e
                      01987 ;; >>> /home/sdcc-builder/build/sdcc-build/orig/sdcc/src/pic14/gen.c:6415:genPackBits
004C   39F0           01988         ANDLW   0xf0    ;id=592,key=001,inCond:410,outCond:14,flow seq=03e
                      01989 ;; >>> /home/sdcc-builder/build/sdcc-build/orig/sdcc/src/pic14/gen.c:1378:movwf
                      01990 ;;      popGet AOP_PCODE (PO_IMMEDIATE + 0) 1118 _buffer
004D   0??? 0???      01991         BANKSEL _buffer ;id=2021,key=002,inCond:0,outCond:0,flow seq=03e
004F   00??           01992         MOVWF   (_buffer + 16)  ;id=595,key=003,inCond:10,outCond:1,flow seq=03e
                      01993 ;;; /home/sdcc-builder/build/sdcc-build/orig/sdcc/src/pic14/gen.c:2308:resultRemat *{*
                      01994 ;;; /home/sdcc-builder/build/sdcc-build/orig/sdcc/src/pic14/gen.c:2308:resultRemat *{*
                      01995 ;;; /home/sdcc-builder/build/sdcc-build/orig/sdcc/src/pic14/gen.c:6796:genPointerSet *{*
gpasm-1.5.2 #0 (Sep 16 2019) build/default/pr   9-16-2019  10:40:44         PAGE 39


LOC    OBJECT CODE    LINE  SOURCE TEXT
  VALUE

                      01996 ;; ***  genPointerSet  6797
                      01997 ;;; /home/sdcc-builder/build/sdcc-build/orig/sdcc/src/pic14/gen.c:6615:genNearPointerSet *{*
                      01998 ;; ***  genNearPointerSet  6616
                      01999 ;;      614
                      02000 ;;      aopForRemat 393
                      02001 ;;      419: rname _buffer, val 16, const = 0
                      02002 ;; ***  genNearPointerSet  6631
                      02003 ;;      824: aopGet AOP_PCODE type PO_IMMEDIATE
                      02004 ;;      _buffer offset 16
                      02005 ;;      line = 6633 result AOP_PCODE=(_buffer+16), size=2, left -=-, size=0, right AOP_LIT=0x00, size=1
                      02006 ;;; /home/sdcc-builder/build/sdcc-build/orig/sdcc/src/pic14/gen.c:6347:genPackBits *{*
                      02007 ;; ***  genPackBits  6348
                      02008 ;; ***  mov2w  1366  offset=0
                      02009 ;; >>> /home/sdcc-builder/build/sdcc-build/orig/sdcc/src/pic14/gen.c:1369:mov2w
0050   30??           02010         MOVLW   (_buffer + 16)  ;id=613,key=004,inCond:400,outCond:10,flow seq=03e
                      02011 ;; >>> /home/sdcc-builder/build/sdcc-build/orig/sdcc/src/pic14/gen.c:6415:genPackBits
0051   390F           02012         ANDLW   0x0f    ;id=615,key=005,inCond:410,outCond:14,flow seq=03e
                      02013 ;; >>> /home/sdcc-builder/build/sdcc-build/orig/sdcc/src/pic14/gen.c:1378:movwf
                      02014 ;;      popGet AOP_PCODE (PO_IMMEDIATE + 0) 1118 _buffer
                      02015 ;; BANKOPT2 BANKSEL dropped; _buffer present in same bank as _buffer
0052   00??           02016         MOVWF   (_buffer + 16)  ;id=618,key=006,inCond:10,outCond:1,flow seq=03e
                      02017 ;;; /home/sdcc-builder/build/sdcc-build/orig/sdcc/src/pic14/gen.c:2308:resultRemat *{*
                      02018 ;;; /home/sdcc-builder/build/sdcc-build/orig/sdcc/src/pic14/gen.c:2675:genRet *{*
                      02019 ;; ***  genRet  2677
                      02020 ;;; /home/sdcc-builder/build/sdcc-build/orig/sdcc/src/pic14/gen.c:1328:mov2w_op *{*
                      02021 ;; >>> /home/sdcc-builder/build/sdcc-build/orig/sdcc/src/pic14/gen.c:1346:mov2w_op
                      02022 ;       .line   19; "../../../lib/buffer.c"     return 0;
0053   3000           02023         MOVLW   0x00    ;id=625,key=007,inCond:400,outCond:10,flow seq=03e
                      02024 ;;; /home/sdcc-builder/build/sdcc-build/orig/sdcc/src/pic14/gen.c:2308:resultRemat *{*
                      02025 ;;; /home/sdcc-builder/build/sdcc-build/orig/sdcc/src/pic14/gen.c:2752:genLabel *{*
                      02026 ;; ***  genLabel  2755
                      02027 ;_00112_DS_:
                      02028 ;;; /home/sdcc-builder/build/sdcc-build/orig/sdcc/src/pic14/gen.c:2308:resultRemat *{*
                      02029 ;;; /home/sdcc-builder/build/sdcc-build/orig/sdcc/src/pic14/gen.c:2520:genEndFunction *{*
                      02030 ;; ***  genEndFunction  2522
                      02031 ;return
                      02032 ;       .line   20; "../../../lib/buffer.c"     }
0054   0008           02033         RETURN          ;id=636,key=008,inCond:10,outCond:e,flow seq=03e
                      02034 ;<>Start of new flow, seq=0x3f
                      02035 ;  from: ; to: 
                      02036 ; exit point of _buffer_flush
                      02037 ;;; /home/sdcc-builder/build/sdcc-build/orig/sdcc/src/pic14/gen.c:7535:genpic14Code *{*
                      02038 
                      02039 ;***
                      02040 ;  pBlock Stats: dbName = C
                      02041 ;***
                      02042 ;has an exit
                      02043 ;3 compiler assigned registers:
                      02044 ;   r0x102F
                      02045 ;   STK00
                      02046 ;   r0x1030
                      02047 ;; Starting pCode block
                      02048 ;<>Start of new flow, seq=0x40 ancestor = 0x40
gpasm-1.5.2 #0 (Sep 16 2019) build/default/pr   9-16-2019  10:40:44         PAGE 40


LOC    OBJECT CODE    LINE  SOURCE TEXT
  VALUE

                      02049 ;  from: ; to: 
                      02050 ;;; /home/sdcc-builder/build/sdcc-build/orig/sdcc/src/pic14/gen.c:2308:resultRemat *{*
                      02051 ;;; /home/sdcc-builder/build/sdcc-build/orig/sdcc/src/pic14/gen.c:2752:genLabel *{*
                      02052 ;; ***  genLabel  2755
                      02053 ;;; /home/sdcc-builder/build/sdcc-build/orig/sdcc/src/pic14/gen.c:2308:resultRemat *{*
                      02054 ;;; /home/sdcc-builder/build/sdcc-build/orig/sdcc/src/pic14/gen.c:2332:genFunction *{*
                      02055 ;; ***  genFunction  2334 curr label offset=0previous max_key=0 
                      02056 ;;      -----------------------------------------
                      02057 ;;       function buffer_init
                      02058 ;;      -----------------------------------------
                      02059 ;_buffer_init:
                      02060 S_buffer__buffer_init   code
0000                  02061 _buffer_init:
                      02062 ; 2 exit points
                      02063 ;;; /home/sdcc-builder/build/sdcc-build/orig/sdcc/src/pic14/gen.c:2308:resultRemat *{*
                      02064 ;;; /home/sdcc-builder/build/sdcc-build/orig/sdcc/src/pic14/gen.c:7467:genReceive *{*
                      02065 ;; ***  genReceive  7468
                      02066 ;;      695 register type nRegs=2
                      02067 ;;; /home/sdcc-builder/build/sdcc-build/orig/sdcc/src/pic14/gen.c:1892:assignResultValue *{*
                      02068 ;; ***  assignResultValue  1894
                      02069 ;;      line = 1896 result -=-, size=0, left AOP_REG=r0x1045, size=2, right -=-, size=0
                      02070 ;; >>> /home/sdcc-builder/build/sdcc-build/orig/sdcc/src/pic14/gen.c:1378:movwf
                      02071 ;;      1097 rIdx = r0x1046 
                      02072 ;       .line   7; "../../../lib/buffer.c"      buffer_init(putchar_p op) {
0000   0??? 0???      02073         BANKSEL r0x102F ;id=2023,key=000,inCond:0,outCond:0,flow seq=040
0002   00??           02074         MOVWF   r0x102F ;id=125,key=001,inCond:10,outCond:1,flow seq=040,rIdx=r0x1046
                      02075 ;; >>> /home/sdcc-builder/build/sdcc-build/orig/sdcc/src/pic14/gen.c:1408:get_returnvalue
                      02076 ;; ***  popRegFromIdx,1030  , rIdx=0x7f
                      02077 ;; BANKOPT1 BANKSEL dropped; STK00 present in all of r0x102F's banks
0003   08??           02078         MOVF    STK00,W ;id=128,key=002,inCond:1,outCond:14,flow seq=040
                      02079 ;; >>> /home/sdcc-builder/build/sdcc-build/orig/sdcc/src/pic14/gen.c:1378:movwf
                      02080 ;;      1097 rIdx = r0x1045 
                      02081 ;; BANKOPT2 BANKSEL dropped; r0x1030 present in same bank as r0x102F
0004   00??           02082         MOVWF   r0x1030 ;id=131,key=003,inCond:10,outCond:1,flow seq=040,rIdx=r0x1045
                      02083 ;;; /home/sdcc-builder/build/sdcc-build/orig/sdcc/src/pic14/gen.c:2308:resultRemat *{*
                      02084 ;;; /home/sdcc-builder/build/sdcc-build/orig/sdcc/src/pic14/gen.c:2308:resultRemat *{*
                      02085 ;;; /home/sdcc-builder/build/sdcc-build/orig/sdcc/src/pic14/gen.c:2308:resultRemat *{*
                      02086 ;;; /home/sdcc-builder/build/sdcc-build/orig/sdcc/src/pic14/gen.c:6796:genPointerSet *{*
                      02087 ;; ***  genPointerSet  6797
                      02088 ;;; /home/sdcc-builder/build/sdcc-build/orig/sdcc/src/pic14/gen.c:6615:genNearPointerSet *{*
                      02089 ;; ***  genNearPointerSet  6616
                      02090 ;;      614
                      02091 ;;      aopForRemat 393
                      02092 ;;      419: rname _buffer, val 16, const = 0
                      02093 ;; ***  genNearPointerSet  6631
                      02094 ;;      824: aopGet AOP_PCODE type PO_IMMEDIATE
                      02095 ;;      _buffer offset 16
                      02096 ;;      line = 6633 result AOP_PCODE=(_buffer+16), size=2, left -=-, size=0, right AOP_LIT=0x00, size=1
                      02097 ;;; /home/sdcc-builder/build/sdcc-build/orig/sdcc/src/pic14/gen.c:6347:genPackBits *{*
                      02098 ;; ***  genPackBits  6348
                      02099 ;; ***  mov2w  1366  offset=0
                      02100 ;; >>> /home/sdcc-builder/build/sdcc-build/orig/sdcc/src/pic14/gen.c:1369:mov2w
                      02101 ;       .line   8; "../../../lib/buffer.c"      buffer.p = 0;
gpasm-1.5.2 #0 (Sep 16 2019) build/default/pr   9-16-2019  10:40:44         PAGE 41


LOC    OBJECT CODE    LINE  SOURCE TEXT
  VALUE

0005   30??           02102         MOVLW   (_buffer + 16)  ;id=151,key=004,inCond:400,outCond:10,flow seq=040
                      02103 ;; >>> /home/sdcc-builder/build/sdcc-build/orig/sdcc/src/pic14/gen.c:6415:genPackBits
0006   39F0           02104         ANDLW   0xf0    ;id=153,key=005,inCond:410,outCond:14,flow seq=040
                      02105 ;; >>> /home/sdcc-builder/build/sdcc-build/orig/sdcc/src/pic14/gen.c:1378:movwf
                      02106 ;;      popGet AOP_PCODE (PO_IMMEDIATE + 0) 1118 _buffer
0007   0??? 0???      02107         BANKSEL _buffer ;id=2026,key=006,inCond:0,outCond:0,flow seq=040
0009   00??           02108         MOVWF   (_buffer + 16)  ;id=156,key=007,inCond:10,outCond:1,flow seq=040
                      02109 ;;; /home/sdcc-builder/build/sdcc-build/orig/sdcc/src/pic14/gen.c:2308:resultRemat *{*
                      02110 ;;; /home/sdcc-builder/build/sdcc-build/orig/sdcc/src/pic14/gen.c:2308:resultRemat *{*
                      02111 ;;; /home/sdcc-builder/build/sdcc-build/orig/sdcc/src/pic14/gen.c:6796:genPointerSet *{*
                      02112 ;; ***  genPointerSet  6797
                      02113 ;;; /home/sdcc-builder/build/sdcc-build/orig/sdcc/src/pic14/gen.c:6615:genNearPointerSet *{*
                      02114 ;; ***  genNearPointerSet  6616
                      02115 ;;      614
                      02116 ;;      aopForRemat 393
                      02117 ;;      419: rname _buffer, val 16, const = 0
                      02118 ;; ***  genNearPointerSet  6631
                      02119 ;;      824: aopGet AOP_PCODE type PO_IMMEDIATE
                      02120 ;;      _buffer offset 16
                      02121 ;;      line = 6633 result AOP_PCODE=(_buffer+16), size=2, left -=-, size=0, right AOP_LIT=0x00, size=1
                      02122 ;;; /home/sdcc-builder/build/sdcc-build/orig/sdcc/src/pic14/gen.c:6347:genPackBits *{*
                      02123 ;; ***  genPackBits  6348
                      02124 ;; ***  mov2w  1366  offset=0
                      02125 ;; >>> /home/sdcc-builder/build/sdcc-build/orig/sdcc/src/pic14/gen.c:1369:mov2w
                      02126 ;       .line   9; "../../../lib/buffer.c"      buffer.n = 0;
000A   30??           02127         MOVLW   (_buffer + 16)  ;id=175,key=008,inCond:400,outCond:10,flow seq=040
                      02128 ;; >>> /home/sdcc-builder/build/sdcc-build/orig/sdcc/src/pic14/gen.c:6415:genPackBits
000B   390F           02129         ANDLW   0x0f    ;id=177,key=009,inCond:410,outCond:14,flow seq=040
                      02130 ;; >>> /home/sdcc-builder/build/sdcc-build/orig/sdcc/src/pic14/gen.c:1378:movwf
                      02131 ;;      popGet AOP_PCODE (PO_IMMEDIATE + 0) 1118 _buffer
                      02132 ;; BANKOPT2 BANKSEL dropped; _buffer present in same bank as _buffer
000C   00??           02133         MOVWF   (_buffer + 16)  ;id=180,key=00a,inCond:10,outCond:1,flow seq=040
                      02134 ;;; /home/sdcc-builder/build/sdcc-build/orig/sdcc/src/pic14/gen.c:2308:resultRemat *{*
                      02135 ;;; /home/sdcc-builder/build/sdcc-build/orig/sdcc/src/pic14/gen.c:2308:resultRemat *{*
                      02136 ;;; /home/sdcc-builder/build/sdcc-build/orig/sdcc/src/pic14/gen.c:6796:genPointerSet *{*
                      02137 ;; ***  genPointerSet  6797
                      02138 ;;; /home/sdcc-builder/build/sdcc-build/orig/sdcc/src/pic14/gen.c:6615:genNearPointerSet *{*
                      02139 ;; ***  genNearPointerSet  6616
                      02140 ;;      614
                      02141 ;;      aopForRemat 393
                      02142 ;;      419: rname _buffer, val 17, const = 0
                      02143 ;;; /home/sdcc-builder/build/sdcc-build/orig/sdcc/src/pic14/gen.c:6542:genDataPointerSet *{*
                      02144 ;; ***  genDataPointerSet  6543
                      02145 ;;      695 register type nRegs=2
                      02146 ;;/home/sdcc-builder/build/sdcc-build/orig/sdcc/src/pic14/gen.c:6571: size=1, offset=0, AOP_TYPE(res)=8
                      02147 ;; >>> /home/sdcc-builder/build/sdcc-build/orig/sdcc/src/pic14/gen.c:6591:genDataPointerSet
                      02148 ;;      1097 rIdx = r0x1045 
                      02149 ;       .line   10; "../../../lib/buffer.c"     buffer.op = op;
000D   0??? 0???      02150         BANKSEL r0x1030 ;id=2028,key=00b,inCond:0,outCond:0,flow seq=040
000F   08??           02151         MOVF    r0x1030,W       ;id=197,key=00c,inCond:1,outCond:14,flow seq=040,rIdx=r0x1045
                      02152 ;; >>> /home/sdcc-builder/build/sdcc-build/orig/sdcc/src/pic14/gen.c:6592:genDataPointerSet
                      02153 ;;      popGet AOP_PCODE (PO_IMMEDIATE + 0) 1118 _buffer
0010   0??? 0???      02154         BANKSEL _buffer ;id=2029,key=00d,inCond:0,outCond:0,flow seq=040
gpasm-1.5.2 #0 (Sep 16 2019) build/default/pr   9-16-2019  10:40:44         PAGE 42


LOC    OBJECT CODE    LINE  SOURCE TEXT
  VALUE

0012   00??           02155         MOVWF   (_buffer + 17)  ;id=200,key=00e,inCond:10,outCond:1,flow seq=040
                      02156 ;;/home/sdcc-builder/build/sdcc-build/orig/sdcc/src/pic14/gen.c:6571: size=0, offset=1, AOP_TYPE(res)=8
                      02157 ;; >>> /home/sdcc-builder/build/sdcc-build/orig/sdcc/src/pic14/gen.c:6591:genDataPointerSet
                      02158 ;;      1097 rIdx = r0x1046 
0013   0??? 0???      02159         BANKSEL r0x102F ;id=2030,key=00f,inCond:0,outCond:0,flow seq=040
0015   08??           02160         MOVF    r0x102F,W       ;id=204,key=010,inCond:1,outCond:14,flow seq=040,rIdx=r0x1046
                      02161 ;; >>> /home/sdcc-builder/build/sdcc-build/orig/sdcc/src/pic14/gen.c:6592:genDataPointerSet
                      02162 ;;      popGet AOP_PCODE (PO_IMMEDIATE + 1) 1118 _buffer
0016   0??? 0???      02163         BANKSEL _buffer ;id=2031,key=011,inCond:0,outCond:0,flow seq=040
0018   00??           02164         MOVWF   (_buffer + 18)  ;id=207,key=012,inCond:10,outCond:1,flow seq=040
                      02165 ;;; /home/sdcc-builder/build/sdcc-build/orig/sdcc/src/pic14/gen.c:2308:resultRemat *{*
                      02166 ;;; /home/sdcc-builder/build/sdcc-build/orig/sdcc/src/pic14/gen.c:2752:genLabel *{*
                      02167 ;; ***  genLabel  2755
                      02168 ;_00105_DS_:
                      02169 ;;; /home/sdcc-builder/build/sdcc-build/orig/sdcc/src/pic14/gen.c:2308:resultRemat *{*
                      02170 ;;; /home/sdcc-builder/build/sdcc-build/orig/sdcc/src/pic14/gen.c:2520:genEndFunction *{*
                      02171 ;; ***  genEndFunction  2522
                      02172 ;return
                      02173 ;       .line   11; "../../../lib/buffer.c"     }
0019   0008           02174         RETURN          ;id=218,key=013,inCond:10,outCond:e,flow seq=040
                      02175 ;<>Start of new flow, seq=0x41
                      02176 ;  from: ; to: 
                      02177 ; exit point of _buffer_init
                      02178 ;;; /home/sdcc-builder/build/sdcc-build/orig/sdcc/src/pic14/gen.c:7535:genpic14Code *{*
                      02179 
                      02180 
                      02181 ;       code size estimation:
                      02182 ;         283+   46 =   329 instructions (  750 byte)
                      02183 
                      02184         end
gpasm-1.5.2 #0 (Sep 16 2019) build/default/pr   9-16-2019  10:40:44         PAGE 43


SYMBOL TABLE
  LABEL                              TYPE        VALUE         VALUE          VALUE
                                                 (hex)         (dec)          (text)

ACKDT                             CONSTANT      00000005              5
ACKEN                             CONSTANT      00000004              4
ACKSTAT                           CONSTANT      00000006              6
ADCON0                            CONSTANT      0000001F             31
ADCON1                            CONSTANT      0000009F            159
ADCS0                             CONSTANT      00000006              6
ADCS1                             CONSTANT      00000007              7
ADCS2                             CONSTANT      00000006              6
ADDEN                             CONSTANT      00000003              3
ADFM                              CONSTANT      00000007              7
ADIE                              CONSTANT      00000006              6
ADIF                              CONSTANT      00000006              6
ADON                              CONSTANT      00000000              0
ADRESH                            CONSTANT      0000001E             30
ADRESL                            CONSTANT      0000009E            158
BCLIE                             CONSTANT      00000003              3
BCLIF                             CONSTANT      00000003              3
BF                                CONSTANT      00000000              0
BRGH                              CONSTANT      00000002              2
C                                 CONSTANT      00000000              0
C1INV                             CONSTANT      00000004              4
C1OUT                             CONSTANT      00000006              6
C2INV                             CONSTANT      00000005              5
C2OUT                             CONSTANT      00000007              7
CCP1CON                           CONSTANT      00000017             23
CCP1IE                            CONSTANT      00000002              2
CCP1IF                            CONSTANT      00000002              2
CCP1M0                            CONSTANT      00000000              0
CCP1M1                            CONSTANT      00000001              1
CCP1M2                            CONSTANT      00000002              2
CCP1M3                            CONSTANT      00000003              3
CCP1X                             CONSTANT      00000005              5
CCP1Y                             CONSTANT      00000004              4
CCP2CON                           CONSTANT      0000001D             29
CCP2IE                            CONSTANT      00000000              0
CCP2IF                            CONSTANT      00000000              0
CCP2M0                            CONSTANT      00000000              0
CCP2M1                            CONSTANT      00000001              1
CCP2M2                            CONSTANT      00000002              2
CCP2M3                            CONSTANT      00000003              3
CCP2X                             CONSTANT      00000005              5
CCP2Y                             CONSTANT      00000004              4
CCPR1                             CONSTANT      00000015             21
CCPR1H                            CONSTANT      00000016             22
CCPR1L                            CONSTANT      00000015             21
CCPR2                             CONSTANT      0000001B             27
CCPR2H                            CONSTANT      0000001C             28
CCPR2L                            CONSTANT      0000001B             27
CHS0                              CONSTANT      00000003              3
CHS1                              CONSTANT      00000004              4
CHS2                              CONSTANT      00000005              5
CIS                               CONSTANT      00000003              3
gpasm-1.5.2 #0 (Sep 16 2019) build/default/pr   9-16-2019  10:40:44         PAGE 44


SYMBOL TABLE
  LABEL                              TYPE        VALUE         VALUE          VALUE
                                                 (hex)         (dec)          (text)

CKE                               CONSTANT      00000006              6
CKP                               CONSTANT      00000004              4
CM0                               CONSTANT      00000000              0
CM1                               CONSTANT      00000001              1
CM2                               CONSTANT      00000002              2
CMCON                             CONSTANT      0000009C            156
CMIE                              CONSTANT      00000006              6
CMIF                              CONSTANT      00000006              6
CREN                              CONSTANT      00000004              4
CSRC                              CONSTANT      00000007              7
CVR0                              CONSTANT      00000000              0
CVR1                              CONSTANT      00000001              1
CVR2                              CONSTANT      00000002              2
CVR3                              CONSTANT      00000003              3
CVRCON                            CONSTANT      0000009D            157
CVREN                             CONSTANT      00000007              7
CVROE                             CONSTANT      00000006              6
CVRR                              CONSTANT      00000005              5
D                                 CONSTANT      00000005              5
DATA_ADDRESS                      CONSTANT      00000005              5
DC                                CONSTANT      00000001              1
D_A                               CONSTANT      00000005              5
D_NOT_A                           CONSTANT      00000005              5
EEADR                             CONSTANT      0000010D            269
EEADRH                            CONSTANT      0000010F            271
EECON1                            CONSTANT      0000018C            396
EECON2                            CONSTANT      0000018D            397
EEDATA                            CONSTANT      0000010C            268
EEDATH                            CONSTANT      0000010E            270
EEIE                              CONSTANT      00000004              4
EEIF                              CONSTANT      00000004              4
EEPGD                             CONSTANT      00000007              7
F                                 CONSTANT      00000001              1
FERR                              CONSTANT      00000002              2
FSR                               CONSTANT      00000004              4
GCEN                              CONSTANT      00000007              7
GIE                               CONSTANT      00000007              7
GO                                CONSTANT      00000002              2
GO_DONE                           CONSTANT      00000002              2
GO_NOT_DONE                       CONSTANT      00000002              2
I2C_DATA                          CONSTANT      00000005              5
I2C_READ                          CONSTANT      00000002              2
I2C_START                         CONSTANT      00000003              3
I2C_STOP                          CONSTANT      00000004              4
INDF                              CONSTANT      00000000              0
INTCON                            CONSTANT      0000000B             11
INTE                              CONSTANT      00000004              4
INTEDG                            CONSTANT      00000006              6
INTF                              CONSTANT      00000001              1
IRP                               CONSTANT      00000007              7
NOT_A                             CONSTANT      00000005              5
NOT_ADDRESS                       CONSTANT      00000005              5
gpasm-1.5.2 #0 (Sep 16 2019) build/default/pr   9-16-2019  10:40:44         PAGE 45


SYMBOL TABLE
  LABEL                              TYPE        VALUE         VALUE          VALUE
                                                 (hex)         (dec)          (text)

NOT_BO                            CONSTANT      00000000              0
NOT_BOR                           CONSTANT      00000000              0
NOT_DONE                          CONSTANT      00000002              2
NOT_PD                            CONSTANT      00000003              3
NOT_POR                           CONSTANT      00000001              1
NOT_RBPU                          CONSTANT      00000007              7
NOT_RC8                           CONSTANT      00000006              6
NOT_T1SYNC                        CONSTANT      00000002              2
NOT_TO                            CONSTANT      00000004              4
NOT_TX8                           CONSTANT      00000006              6
NOT_W                             CONSTANT      00000002              2
NOT_WRITE                         CONSTANT      00000002              2
OERR                              CONSTANT      00000001              1
OPTION_REG                        CONSTANT      00000081            129
P                                 CONSTANT      00000004              4
PCFG0                             CONSTANT      00000000              0
PCFG1                             CONSTANT      00000001              1
PCFG2                             CONSTANT      00000002              2
PCFG3                             CONSTANT      00000003              3
PCL                               CONSTANT      00000002              2
PCLATH                            CONSTANT      0000000A             10
PCON                              CONSTANT      0000008E            142
PEIE                              CONSTANT      00000006              6
PEN                               CONSTANT      00000002              2
PIE1                              CONSTANT      0000008C            140
PIE2                              CONSTANT      0000008D            141
PIR1                              CONSTANT      0000000C             12
PIR2                              CONSTANT      0000000D             13
PORTA                             CONSTANT      00000005              5
PORTB                             CONSTANT      00000006              6
PORTC                             CONSTANT      00000007              7
PR2                               CONSTANT      00000092            146
PS0                               CONSTANT      00000000              0
PS1                               CONSTANT      00000001              1
PS2                               CONSTANT      00000002              2
PSA                               CONSTANT      00000003              3
PSAVE                             EXTERNAL      00000000              0
R                                 CONSTANT      00000002              2
RA0                               CONSTANT      00000000              0
RA1                               CONSTANT      00000001              1
RA2                               CONSTANT      00000002              2
RA3                               CONSTANT      00000003              3
RA4                               CONSTANT      00000004              4
RA5                               CONSTANT      00000005              5
RB0                               CONSTANT      00000000              0
RB1                               CONSTANT      00000001              1
RB2                               CONSTANT      00000002              2
RB3                               CONSTANT      00000003              3
RB4                               CONSTANT      00000004              4
RB5                               CONSTANT      00000005              5
RB6                               CONSTANT      00000006              6
RB7                               CONSTANT      00000007              7
gpasm-1.5.2 #0 (Sep 16 2019) build/default/pr   9-16-2019  10:40:44         PAGE 46


SYMBOL TABLE
  LABEL                              TYPE        VALUE         VALUE          VALUE
                                                 (hex)         (dec)          (text)

RBIE                              CONSTANT      00000003              3
RBIF                              CONSTANT      00000000              0
RC0                               CONSTANT      00000000              0
RC1                               CONSTANT      00000001              1
RC2                               CONSTANT      00000002              2
RC3                               CONSTANT      00000003              3
RC4                               CONSTANT      00000004              4
RC5                               CONSTANT      00000005              5
RC6                               CONSTANT      00000006              6
RC7                               CONSTANT      00000007              7
RC8_9                             CONSTANT      00000006              6
RC9                               CONSTANT      00000006              6
RCD8                              CONSTANT      00000000              0
RCEN                              CONSTANT      00000003              3
RCIE                              CONSTANT      00000005              5
RCIF                              CONSTANT      00000005              5
RCREG                             CONSTANT      0000001A             26
RCSTA                             CONSTANT      00000018             24
RD                                CONSTANT      00000000              0
READ_WRITE                        CONSTANT      00000002              2
RP0                               CONSTANT      00000005              5
RP1                               CONSTANT      00000006              6
RSEN                              CONSTANT      00000001              1
RX9                               CONSTANT      00000006              6
RX9D                              CONSTANT      00000000              0
R_NOT_W                           CONSTANT      00000002              2
R_W                               CONSTANT      00000002              2
S                                 CONSTANT      00000003              3
SEN                               CONSTANT      00000000              0
SMP                               CONSTANT      00000007              7
SPBRG                             CONSTANT      00000099            153
SPEN                              CONSTANT      00000007              7
SREN                              CONSTANT      00000005              5
SSAVE                             EXTERNAL      00000000              0
SSPADD                            CONSTANT      00000093            147
SSPBUF                            CONSTANT      00000013             19
SSPCON                            CONSTANT      00000014             20
SSPCON2                           CONSTANT      00000091            145
SSPEN                             CONSTANT      00000005              5
SSPIE                             CONSTANT      00000003              3
SSPIF                             CONSTANT      00000003              3
SSPM0                             CONSTANT      00000000              0
SSPM1                             CONSTANT      00000001              1
SSPM2                             CONSTANT      00000002              2
SSPM3                             CONSTANT      00000003              3
SSPOV                             CONSTANT      00000006              6
SSPSTAT                           CONSTANT      00000094            148
STATUS                            CONSTANT      00000003              3
STK00                             EXTERNAL      00000000              0
STK01                             EXTERNAL      00000000              0
STK02                             EXTERNAL      00000000              0
STK03                             EXTERNAL      00000000              0
gpasm-1.5.2 #0 (Sep 16 2019) build/default/pr   9-16-2019  10:40:44         PAGE 47


SYMBOL TABLE
  LABEL                              TYPE        VALUE         VALUE          VALUE
                                                 (hex)         (dec)          (text)

STK04                             EXTERNAL      00000000              0
STK05                             EXTERNAL      00000000              0
STK06                             EXTERNAL      00000000              0
STK07                             EXTERNAL      00000000              0
STK08                             EXTERNAL      00000000              0
STK09                             EXTERNAL      00000000              0
STK10                             EXTERNAL      00000000              0
STK11                             EXTERNAL      00000000              0
STK12                             EXTERNAL      00000000              0
SYNC                              CONSTANT      00000004              4
T0CS                              CONSTANT      00000005              5
T0IE                              CONSTANT      00000005              5
T0IF                              CONSTANT      00000002              2
T0SE                              CONSTANT      00000004              4
T1CKPS0                           CONSTANT      00000004              4
T1CKPS1                           CONSTANT      00000005              5
T1CON                             CONSTANT      00000010             16
T1INSYNC                          CONSTANT      00000002              2
T1OSCEN                           CONSTANT      00000003              3
T1SYNC                            CONSTANT      00000002              2
T2CKPS0                           CONSTANT      00000000              0
T2CKPS1                           CONSTANT      00000001              1
T2CON                             CONSTANT      00000012             18
TMR0                              CONSTANT      00000001              1
TMR0IE                            CONSTANT      00000005              5
TMR0IF                            CONSTANT      00000002              2
TMR1                              CONSTANT      0000000E             14
TMR1CS                            CONSTANT      00000001              1
TMR1H                             CONSTANT      0000000F             15
TMR1IE                            CONSTANT      00000000              0
TMR1IF                            CONSTANT      00000000              0
TMR1L                             CONSTANT      0000000E             14
TMR1ON                            CONSTANT      00000000              0
TMR2                              CONSTANT      00000011             17
TMR2IE                            CONSTANT      00000001              1
TMR2IF                            CONSTANT      00000001              1
TMR2ON                            CONSTANT      00000002              2
TOUTPS0                           CONSTANT      00000003              3
TOUTPS1                           CONSTANT      00000004              4
TOUTPS2                           CONSTANT      00000005              5
TOUTPS3                           CONSTANT      00000006              6
TRISA                             CONSTANT      00000085            133
TRISA0                            CONSTANT      00000000              0
TRISA1                            CONSTANT      00000001              1
TRISA2                            CONSTANT      00000002              2
TRISA3                            CONSTANT      00000003              3
TRISA4                            CONSTANT      00000004              4
TRISA5                            CONSTANT      00000005              5
TRISB                             CONSTANT      00000086            134
TRISB0                            CONSTANT      00000000              0
TRISB1                            CONSTANT      00000001              1
TRISB2                            CONSTANT      00000002              2
gpasm-1.5.2 #0 (Sep 16 2019) build/default/pr   9-16-2019  10:40:44         PAGE 48


SYMBOL TABLE
  LABEL                              TYPE        VALUE         VALUE          VALUE
                                                 (hex)         (dec)          (text)

TRISB3                            CONSTANT      00000003              3
TRISB4                            CONSTANT      00000004              4
TRISB5                            CONSTANT      00000005              5
TRISB6                            CONSTANT      00000006              6
TRISB7                            CONSTANT      00000007              7
TRISC                             CONSTANT      00000087            135
TRISC0                            CONSTANT      00000000              0
TRISC1                            CONSTANT      00000001              1
TRISC2                            CONSTANT      00000002              2
TRISC3                            CONSTANT      00000003              3
TRISC4                            CONSTANT      00000004              4
TRISC5                            CONSTANT      00000005              5
TRISC6                            CONSTANT      00000006              6
TRISC7                            CONSTANT      00000007              7
TRMT                              CONSTANT      00000001              1
TX8_9                             CONSTANT      00000006              6
TX9                               CONSTANT      00000006              6
TX9D                              CONSTANT      00000000              0
TXD8                              CONSTANT      00000000              0
TXEN                              CONSTANT      00000005              5
TXIE                              CONSTANT      00000004              4
TXIF                              CONSTANT      00000004              4
TXREG                             CONSTANT      00000019             25
TXSTA                             CONSTANT      00000098            152
UA                                CONSTANT      00000001              1
W                                 CONSTANT      00000000              0
WCOL                              CONSTANT      00000007              7
WR                                CONSTANT      00000001              1
WREN                              CONSTANT      00000002              2
WRERR                             CONSTANT      00000003              3
WSAVE                             EXTERNAL      00000000              0
Z                                 CONSTANT      00000002              2
_00109_DS_                        ADDRESS       00000000              0
_00111_DS_                        ADDRESS       0000004B             75
_00123_DS_                        ADDRESS       0000003E             62
_00124_DS_                        ADDRESS       0000004A             74
_00130_DS_                        ADDRESS       0000001D             29
_00131_DS_                        ADDRESS       00000053             83
_00137_DS_                        ADDRESS       00000019             25
_00144_DS_                        ADDRESS       00000070            112
_00146_DS_                        ADDRESS       0000002E             46
_00148_DS_                        ADDRESS       00000088            136
_00152_DS_                        ADDRESS       0000002B             43
_00163_DS_                        ADDRESS       00000027             39
_00168_DS_                        ADDRESS       00000007              7
_00170_DS_                        ADDRESS       00000029             41
_ADCON0                           EXTERNAL      00000000              0
_ADCON0bits                       EXTERNAL      00000000              0
_ADCON1                           EXTERNAL      00000000              0
_ADCON1bits                       EXTERNAL      00000000              0
_ADRESH                           EXTERNAL      00000000              0
_ADRESL                           EXTERNAL      00000000              0
gpasm-1.5.2 #0 (Sep 16 2019) build/default/pr   9-16-2019  10:40:44         PAGE 49


SYMBOL TABLE
  LABEL                              TYPE        VALUE         VALUE          VALUE
                                                 (hex)         (dec)          (text)

_BODEN_OFF                        CONSTANT      00003FBF          16319
_BODEN_ON                         CONSTANT      00003FFF          16383
_BOREN_OFF                        CONSTANT      00003FBF          16319
_BOREN_ON                         CONSTANT      00003FFF          16383
_CCP1CON                          EXTERNAL      00000000              0
_CCP1CONbits                      EXTERNAL      00000000              0
_CCP2CON                          EXTERNAL      00000000              0
_CCP2CONbits                      EXTERNAL      00000000              0
_CCPR1                            EXTERNAL      00000000              0
_CCPR1H                           EXTERNAL      00000000              0
_CCPR1L                           EXTERNAL      00000000              0
_CCPR2                            EXTERNAL      00000000              0
_CCPR2H                           EXTERNAL      00000000              0
_CCPR2L                           EXTERNAL      00000000              0
_CMCON                            EXTERNAL      00000000              0
_CMCONbits                        EXTERNAL      00000000              0
_CONFIG                           CONSTANT      00002007           8199
_CPD_OFF                          CONSTANT      00003FFF          16383
_CPD_ON                           CONSTANT      00003EFF          16127
_CP_ALL                           CONSTANT      00001FFF           8191
_CP_OFF                           CONSTANT      00003FFF          16383
_CP_ON                            CONSTANT      00001FFF           8191
_CVRCON                           EXTERNAL      00000000              0
_CVRCONbits                       EXTERNAL      00000000              0
_DEBUG_OFF                        CONSTANT      00003FFF          16383
_DEBUG_ON                         CONSTANT      000037FF          14335
_DEVID1                           CONSTANT      00002006           8198
_EEADR                            EXTERNAL      00000000              0
_EEADRH                           EXTERNAL      00000000              0
_EECON1                           EXTERNAL      00000000              0
_EECON1bits                       EXTERNAL      00000000              0
_EECON2                           EXTERNAL      00000000              0
_EEDATA                           EXTERNAL      00000000              0
_EEDATH                           EXTERNAL      00000000              0
_FOSC_EXTRC                       CONSTANT      00003FFF          16383
_FOSC_HS                          CONSTANT      00003FFE          16382
_FOSC_LP                          CONSTANT      00003FFC          16380
_FOSC_XT                          CONSTANT      00003FFD          16381
_FSR                              EXTERNAL      00000000              0
_HS_OSC                           CONSTANT      00003FFE          16382
_IDLOC0                           CONSTANT      00002000           8192
_IDLOC1                           CONSTANT      00002001           8193
_IDLOC2                           CONSTANT      00002002           8194
_IDLOC3                           CONSTANT      00002003           8195
_INDF                             EXTERNAL      00000000              0
_INTCON                           EXTERNAL      00000000              0
_INTCONbits                       EXTERNAL      00000000              0
_LP_OSC                           CONSTANT      00003FFC          16380
_LVP_OFF                          CONSTANT      00003F7F          16255
_LVP_ON                           CONSTANT      00003FFF          16383
_OPTION_REG                       EXTERNAL      00000000              0
_OPTION_REGbits                   EXTERNAL      00000000              0
gpasm-1.5.2 #0 (Sep 16 2019) build/default/pr   9-16-2019  10:40:44         PAGE 50


SYMBOL TABLE
  LABEL                              TYPE        VALUE         VALUE          VALUE
                                                 (hex)         (dec)          (text)

_PCL                              EXTERNAL      00000000              0
_PCLATH                           EXTERNAL      00000000              0
_PCON                             EXTERNAL      00000000              0
_PCONbits                         EXTERNAL      00000000              0
_PIE1                             EXTERNAL      00000000              0
_PIE1bits                         EXTERNAL      00000000              0
_PIE2                             EXTERNAL      00000000              0
_PIE2bits                         EXTERNAL      00000000              0
_PIR1                             EXTERNAL      00000000              0
_PIR1bits                         EXTERNAL      00000000              0
_PIR2                             EXTERNAL      00000000              0
_PIR2bits                         EXTERNAL      00000000              0
_PORTA                            EXTERNAL      00000000              0
_PORTAbits                        EXTERNAL      00000000              0
_PORTB                            EXTERNAL      00000000              0
_PORTBbits                        EXTERNAL      00000000              0
_PORTC                            EXTERNAL      00000000              0
_PORTCbits                        EXTERNAL      00000000              0
_PR2                              EXTERNAL      00000000              0
_PWRTE_OFF                        CONSTANT      00003FFF          16383
_PWRTE_ON                         CONSTANT      00003FF7          16375
_RCREG                            EXTERNAL      00000000              0
_RCSTA                            EXTERNAL      00000000              0
_RCSTAbits                        EXTERNAL      00000000              0
_RC_OSC                           CONSTANT      00003FFF          16383
_SPBRG                            EXTERNAL      00000000              0
_SSPADD                           EXTERNAL      00000000              0
_SSPBUF                           EXTERNAL      00000000              0
_SSPCON                           EXTERNAL      00000000              0
_SSPCON2                          EXTERNAL      00000000              0
_SSPCON2bits                      EXTERNAL      00000000              0
_SSPCONbits                       EXTERNAL      00000000              0
_SSPSTAT                          EXTERNAL      00000000              0
_SSPSTATbits                      EXTERNAL      00000000              0
_STATUS                           EXTERNAL      00000000              0
_STATUSbits                       EXTERNAL      00000000              0
_S_buffer__buffer_put_005A        ADDRESS       0000005A             90
_S_buffer__buffer_puts_0011       ADDRESS       00000011             17
_S_buffer__buffer_puts_001F       ADDRESS       0000001F             31
_T1CON                            EXTERNAL      00000000              0
_T1CONbits                        EXTERNAL      00000000              0
_T2CON                            EXTERNAL      00000000              0
_T2CONbits                        EXTERNAL      00000000              0
_TMR0                             EXTERNAL      00000000              0
_TMR1                             EXTERNAL      00000000              0
_TMR1H                            EXTERNAL      00000000              0
_TMR1L                            EXTERNAL      00000000              0
_TMR2                             EXTERNAL      00000000              0
_TRISA                            EXTERNAL      00000000              0
_TRISAbits                        EXTERNAL      00000000              0
_TRISB                            EXTERNAL      00000000              0
_TRISBbits                        EXTERNAL      00000000              0
gpasm-1.5.2 #0 (Sep 16 2019) build/default/pr   9-16-2019  10:40:44         PAGE 51


SYMBOL TABLE
  LABEL                              TYPE        VALUE         VALUE          VALUE
                                                 (hex)         (dec)          (text)

_TRISC                            EXTERNAL      00000000              0
_TRISCbits                        EXTERNAL      00000000              0
_TXREG                            EXTERNAL      00000000              0
_TXSTA                            EXTERNAL      00000000              0
_TXSTAbits                        EXTERNAL      00000000              0
_WDTE_OFF                         CONSTANT      00003FFB          16379
_WDTE_ON                          CONSTANT      00003FFF          16383
_WDT_OFF                          CONSTANT      00003FFB          16379
_WDT_ON                           CONSTANT      00003FFF          16383
_WRT_1FOURTH                      CONSTANT      00003BFF          15359
_WRT_256                          CONSTANT      00003DFF          15871
_WRT_HALF                         CONSTANT      000039FF          14847
_WRT_OFF                          CONSTANT      00003FFF          16383
_XT_OSC                           CONSTANT      00003FFD          16381
__14_BIT                          CONSTANT      00000001              1
__16F876A                         CONSTANT      00000001              1
__ACTIVE_BANK_ADDR                VARIABLE      FFFFFFFF             -1
__ACTIVE_PAGE_ADDR                VARIABLE      FFFFFFFF             -1
__ASSUMED_BANK_ADDR               VARIABLE      FFFFFFFF             -1
__BANK_0                          CONSTANT      00000000              0
__BANK_1                          CONSTANT      00000080            128
__BANK_2                          CONSTANT      00000100            256
__BANK_3                          CONSTANT      00000180            384
__BANK_BITS                       CONSTANT      00000180            384
__BANK_FIRST                      CONSTANT      00000000              0
__BANK_INV                        CONSTANT      FFFFFFFF             -1
__BANK_LAST                       CONSTANT      00000180            384
__BANK_MASK                       CONSTANT      0000007F            127
__BANK_SHIFT                      CONSTANT      00000007              7
__BANK_SIZE                       CONSTANT      00000080            128
__CODE_END                        CONSTANT      00001FFF           8191
__CODE_START                      CONSTANT      00000000              0
__COMMON_RAM_END                  CONSTANT      0000007F            127
__COMMON_RAM_START                CONSTANT      00000070            112
__CONFIG_END                      CONSTANT      00002007           8199
__CONFIG_START                    CONSTANT      00002007           8199
__EEPROM_END                      CONSTANT      000021FF           8703
__EEPROM_START                    CONSTANT      00002100           8448
__GPUTILS_SVN_VERSION             CONSTANT      00000000              0
__GPUTILS_VERSION_MAJOR           CONSTANT      00000001              1
__GPUTILS_VERSION_MICRO           CONSTANT      00000002              2
__GPUTILS_VERSION_MINOR           CONSTANT      00000005              5
__IDLOCS_END                      CONSTANT      00002003           8195
__IDLOCS_START                    CONSTANT      00002000           8192
__NUM_BANKS                       CONSTANT      00000004              4
__NUM_PAGES                       CONSTANT      00000004              4
__PAGE_0                          CONSTANT      00000000              0
__PAGE_1                          CONSTANT      00000800           2048
__PAGE_2                          CONSTANT      00001000           4096
__PAGE_3                          CONSTANT      00001800           6144
__PAGE_BITS                       CONSTANT      00001800           6144
__PAGE_FIRST                      CONSTANT      00000000              0
gpasm-1.5.2 #0 (Sep 16 2019) build/default/pr   9-16-2019  10:40:44         PAGE 52


SYMBOL TABLE
  LABEL                              TYPE        VALUE         VALUE          VALUE
                                                 (hex)         (dec)          (text)

__PAGE_INV                        CONSTANT      FFFFFFFF             -1
__PAGE_LAST                       CONSTANT      00001800           6144
__PAGE_MASK                       CONSTANT      000007FF           2047
__PAGE_SHIFT                      CONSTANT      0000000B             11
__PAGE_SIZE                       CONSTANT      00000800           2048
__VECTOR_INT                      CONSTANT      00000004              4
__VECTOR_RESET                    CONSTANT      00000000              0
__WHILE_LOOP_COUNT_MAX            CONSTANT      000000FF            255
___fs2schar                       EXTERNAL      00000000              0
___fs2sint                        EXTERNAL      00000000              0
___fs2slong                       EXTERNAL      00000000              0
___fs2uchar                       EXTERNAL      00000000              0
___fs2uint                        EXTERNAL      00000000              0
___fs2ulong                       EXTERNAL      00000000              0
___fsadd                          EXTERNAL      00000000              0
___fsdiv                          EXTERNAL      00000000              0
___fseq                           EXTERNAL      00000000              0
___fsgt                           EXTERNAL      00000000              0
___fslt                           EXTERNAL      00000000              0
___fsmul                          EXTERNAL      00000000              0
___fssub                          EXTERNAL      00000000              0
___memcpy                         EXTERNAL      00000000              0
___schar2fs                       EXTERNAL      00000000              0
___sint2fs                        EXTERNAL      00000000              0
___slong2fs                       EXTERNAL      00000000              0
___uchar2fs                       EXTERNAL      00000000              0
___uint2fs                        EXTERNAL      00000000              0
___ulong2fs                       EXTERNAL      00000000              0
__gptrget1                        EXTERNAL      00000000              0
_buffer                           GLOBAL        00000000              0
_buffer_flush                     GLOBAL        00000000              0
_buffer_init                      GLOBAL        00000000              0
_buffer_put                       GLOBAL        00000000              0
_buffer_putch                     GLOBAL        00000000              0
_buffer_puts                      GLOBAL        00000000              0
_memccpy                          EXTERNAL      00000000              0
_memchr                           EXTERNAL      00000000              0
_memcmp                           EXTERNAL      00000000              0
_memcpy                           EXTERNAL      00000000              0
_memmove                          EXTERNAL      00000000              0
_memset                           EXTERNAL      00000000              0
_strcat                           EXTERNAL      00000000              0
_strchr                           EXTERNAL      00000000              0
_strcmp                           EXTERNAL      00000000              0
_strcpy                           EXTERNAL      00000000              0
_strcspn                          EXTERNAL      00000000              0
_strdup                           EXTERNAL      00000000              0
_strlen                           EXTERNAL      00000000              0
_strncat                          EXTERNAL      00000000              0
_strncmp                          EXTERNAL      00000000              0
_strncpy                          EXTERNAL      00000000              0
_strndup                          EXTERNAL      00000000              0
gpasm-1.5.2 #0 (Sep 16 2019) build/default/pr   9-16-2019  10:40:44         PAGE 53


SYMBOL TABLE
  LABEL                              TYPE        VALUE         VALUE          VALUE
                                                 (hex)         (dec)          (text)

_strpbrk                          EXTERNAL      00000000              0
_strrchr                          EXTERNAL      00000000              0
_strspn                           EXTERNAL      00000000              0
_strstr                           EXTERNAL      00000000              0
_strtok                           EXTERNAL      00000000              0
_strxfrm                          EXTERNAL      00000000              0
r0x101A                           STATIC        00000019             25
r0x101B                           STATIC        00000018             24
r0x101C                           STATIC        0000001B             27
r0x101E                           STATIC        0000000E             14
r0x101F                           STATIC        0000000D             13
r0x102A                           STATIC        00000002              2
r0x102B                           STATIC        00000003              3
r0x102C                           STATIC        00000004              4
r0x102D                           STATIC        00000005              5
r0x102E                           STATIC        00000006              6
r0x102F                           STATIC        00000001              1
r0x1013                           STATIC        00000007              7
r0x1014                           STATIC        00000008              8
r0x1015                           STATIC        00000009              9
r0x1016                           STATIC        0000000A             10
r0x1018                           STATIC        0000000B             11
r0x1019                           STATIC        0000001A             26
r0x1020                           STATIC        0000000C             12
r0x1021                           STATIC        0000000F             15
r0x1022                           STATIC        00000010             16
r0x1023                           STATIC        00000011             17
r0x1024                           STATIC        00000012             18
r0x1025                           STATIC        00000013             19
r0x1026                           STATIC        00000014             20
r0x1027                           STATIC        00000015             21
r0x1028                           STATIC        00000016             22
r0x1029                           STATIC        00000017             23
r0x1030                           STATIC        00000000              0

Errors   :     0
Warnings :     0 reported,     0 suppressed
Messages :     0 reported,     0 suppressed

