gpasm-1.5.2 #1319 (Aug 29 2019) build/default   30.08.2019  05:22:10        PAGE  1


LOC    OBJECT CODE    LINE  SOURCE TEXT
  VALUE

                      00001 ;--------------------------------------------------------
                      00002 ; File Created by SDCC : free open source ANSI-C Compiler
                      00003 ; Version 3.9.3 #11345 (Linux)
                      00004 ;--------------------------------------------------------
                      00005 ; PIC port for the 14-bit core
                      00006 ;--------------------------------------------------------
                      00007 ;       .file   "../../../lib/format.c"
                      00008         list    p=16f876a
                      00009         radix dec
                      00010         include "p16f876a.inc"
                      00001         LIST
                      00002 
                      00003 ;==========================================================================
                      00004 ; Build date : Oct 21 2015
                      00005 ;  MPASM PIC16F876A processor include
                      00006 ; 
                      00007 ;  (c) Copyright 1999-2015 Microchip Technology, All rights reserved
                      00008 ;==========================================================================
                      00009 
                      00525         LIST
                      00011 ;--------------------------------------------------------
                      00012 ; external declarations
                      00013 ;--------------------------------------------------------
  0000                00014         extern  ___uchar2fs
  0000                00015         extern  ___schar2fs
  0000                00016         extern  ___uint2fs
  0000                00017         extern  ___sint2fs
  0000                00018         extern  ___ulong2fs
  0000                00019         extern  ___slong2fs
  0000                00020         extern  ___fs2uchar
  0000                00021         extern  ___fs2schar
  0000                00022         extern  ___fs2uint
  0000                00023         extern  ___fs2sint
  0000                00024         extern  ___fs2ulong
  0000                00025         extern  ___fs2slong
  0000                00026         extern  ___fsadd
  0000                00027         extern  ___fssub
  0000                00028         extern  ___fsmul
  0000                00029         extern  ___fsdiv
  0000                00030         extern  ___fslt
  0000                00031         extern  ___fseq
  0000                00032         extern  ___fsgt
  0000                00033         extern  _sinf
  0000                00034         extern  _cosf
  0000                00035         extern  _tanf
  0000                00036         extern  _cotf
  0000                00037         extern  _asinf
  0000                00038         extern  _acosf
  0000                00039         extern  _atanf
  0000                00040         extern  _atan2f
  0000                00041         extern  _sinhf
  0000                00042         extern  _coshf
  0000                00043         extern  _tanhf
gpasm-1.5.2 #1319 (Aug 29 2019) build/default   30.08.2019  05:22:10        PAGE  2


LOC    OBJECT CODE    LINE  SOURCE TEXT
  VALUE

  0000                00044         extern  _expf
  0000                00045         extern  _logf
  0000                00046         extern  _log10f
  0000                00047         extern  _powf
  0000                00048         extern  _sqrtf
  0000                00049         extern  _fabsf
  0000                00050         extern  _frexpf
  0000                00051         extern  _ldexpf
  0000                00052         extern  _ceilf
  0000                00053         extern  _floorf
  0000                00054         extern  _modff
  0000                00055         extern  _isnan
  0000                00056         extern  _isinf
  0000                00057         extern  __moduint
  0000                00058         extern  __divuint
  0000                00059         extern  _STATUSbits
  0000                00060         extern  _PORTAbits
  0000                00061         extern  _PORTBbits
  0000                00062         extern  _PORTCbits
  0000                00063         extern  _INTCONbits
  0000                00064         extern  _PIR1bits
  0000                00065         extern  _PIR2bits
  0000                00066         extern  _T1CONbits
  0000                00067         extern  _T2CONbits
  0000                00068         extern  _SSPCONbits
  0000                00069         extern  _CCP1CONbits
  0000                00070         extern  _RCSTAbits
  0000                00071         extern  _CCP2CONbits
  0000                00072         extern  _ADCON0bits
  0000                00073         extern  _OPTION_REGbits
  0000                00074         extern  _TRISAbits
  0000                00075         extern  _TRISBbits
  0000                00076         extern  _TRISCbits
  0000                00077         extern  _PIE1bits
  0000                00078         extern  _PIE2bits
  0000                00079         extern  _PCONbits
  0000                00080         extern  _SSPCON2bits
  0000                00081         extern  _SSPSTATbits
  0000                00082         extern  _TXSTAbits
  0000                00083         extern  _CMCONbits
  0000                00084         extern  _CVRCONbits
  0000                00085         extern  _ADCON1bits
  0000                00086         extern  _EECON1bits
  0000                00087         extern  _INDF
  0000                00088         extern  _TMR0
  0000                00089         extern  _PCL
  0000                00090         extern  _STATUS
  0000                00091         extern  _FSR
  0000                00092         extern  _PORTA
  0000                00093         extern  _PORTB
  0000                00094         extern  _PORTC
  0000                00095         extern  _PCLATH
  0000                00096         extern  _INTCON
gpasm-1.5.2 #1319 (Aug 29 2019) build/default   30.08.2019  05:22:10        PAGE  3


LOC    OBJECT CODE    LINE  SOURCE TEXT
  VALUE

  0000                00097         extern  _PIR1
  0000                00098         extern  _PIR2
  0000                00099         extern  _TMR1
  0000                00100         extern  _TMR1L
  0000                00101         extern  _TMR1H
  0000                00102         extern  _T1CON
  0000                00103         extern  _TMR2
  0000                00104         extern  _T2CON
  0000                00105         extern  _SSPBUF
  0000                00106         extern  _SSPCON
  0000                00107         extern  _CCPR1
  0000                00108         extern  _CCPR1L
  0000                00109         extern  _CCPR1H
  0000                00110         extern  _CCP1CON
  0000                00111         extern  _RCSTA
  0000                00112         extern  _TXREG
  0000                00113         extern  _RCREG
  0000                00114         extern  _CCPR2
  0000                00115         extern  _CCPR2L
  0000                00116         extern  _CCPR2H
  0000                00117         extern  _CCP2CON
  0000                00118         extern  _ADRESH
  0000                00119         extern  _ADCON0
  0000                00120         extern  _OPTION_REG
  0000                00121         extern  _TRISA
  0000                00122         extern  _TRISB
  0000                00123         extern  _TRISC
  0000                00124         extern  _PIE1
  0000                00125         extern  _PIE2
  0000                00126         extern  _PCON
  0000                00127         extern  _SSPCON2
  0000                00128         extern  _PR2
  0000                00129         extern  _SSPADD
  0000                00130         extern  _SSPSTAT
  0000                00131         extern  _TXSTA
  0000                00132         extern  _SPBRG
  0000                00133         extern  _CMCON
  0000                00134         extern  _CVRCON
  0000                00135         extern  _ADRESL
  0000                00136         extern  _ADCON1
  0000                00137         extern  _EEDATA
  0000                00138         extern  _EEADR
  0000                00139         extern  _EEDATH
  0000                00140         extern  _EEADRH
  0000                00141         extern  _EECON1
  0000                00142         extern  _EECON2
                      00143 
  0000                00144         extern PSAVE
  0000                00145         extern SSAVE
  0000                00146         extern WSAVE
  0000                00147         extern STK12
  0000                00148         extern STK11
  0000                00149         extern STK10
gpasm-1.5.2 #1319 (Aug 29 2019) build/default   30.08.2019  05:22:10        PAGE  4


LOC    OBJECT CODE    LINE  SOURCE TEXT
  VALUE

  0000                00150         extern STK09
  0000                00151         extern STK08
  0000                00152         extern STK07
  0000                00153         extern STK06
  0000                00154         extern STK05
  0000                00155         extern STK04
  0000                00156         extern STK03
  0000                00157         extern STK02
  0000                00158         extern STK01
  0000                00159         extern STK00
                      00160 ;--------------------------------------------------------
                      00161 ; global declarations
                      00162 ;--------------------------------------------------------
  0000                00163         global  _format_double
  0000                00164         global  _format_xint32
  0000                00165         global  _format_number
  0000                00166         global  _format_float
  0000                00167         global  _putchar_ptr
                      00168 
                      00169 ;--------------------------------------------------------
                      00170 ; global definitions
                      00171 ;--------------------------------------------------------
                      00172 ;--------------------------------------------------------
                      00173 ; absolute symbol definitions
                      00174 ;--------------------------------------------------------
                      00175 ;--------------------------------------------------------
                      00176 ; compiler-defined variables
                      00177 ;--------------------------------------------------------
                      00178 UDL_format_0    udata
0000                  00179 r0x1043 res     1
0001                  00180 r0x1042 res     1
0002                  00181 r0x1044 res     1
0003                  00182 r0x1045 res     1
0004                  00183 r0x105B res     1
0005                  00184 r0x1047 res     1
0006                  00185 r0x1048 res     1
0007                  00186 r0x1049 res     1
0008                  00187 r0x104B res     1
0009                  00188 r0x104C res     1
000A                  00189 r0x104D res     1
000B                  00190 r0x104E res     1
000C                  00191 r0x104F res     1
000D                  00192 r0x1050 res     1
000E                  00193 r0x1054 res     1
000F                  00194 r0x1053 res     1
0010                  00195 r0x1052 res     1
0011                  00196 r0x1051 res     1
0012                  00197 r0x1055 res     1
0013                  00198 r0x1056 res     1
0014                  00199 r0x1036 res     1
0015                  00200 r0x1035 res     1
0016                  00201 r0x1034 res     1
0017                  00202 r0x1033 res     1
gpasm-1.5.2 #1319 (Aug 29 2019) build/default   30.08.2019  05:22:10        PAGE  5


LOC    OBJECT CODE    LINE  SOURCE TEXT
  VALUE

0018                  00203 r0x103A res     1
0019                  00204 r0x1039 res     1
001A                  00205 r0x1038 res     1
001B                  00206 r0x1037 res     1
001C                  00207 r0x103C res     1
001D                  00208 r0x103B res     1
001E                  00209 r0x1040 res     1
001F                  00210 r0x103F res     1
0020                  00211 r0x103E res     1
0021                  00212 r0x103D res     1
0022                  00213 r0x1041 res     1
0023                  00214 r0x1025 res     1
0024                  00215 r0x1024 res     1
0025                  00216 r0x1023 res     1
0026                  00217 r0x1022 res     1
0027                  00218 r0x102A res     1
0028                  00219 r0x1029 res     1
0029                  00220 r0x1028 res     1
002A                  00221 r0x1027 res     1
002B                  00222 r0x102C res     1
002C                  00223 r0x102B res     1
002D                  00224 r0x1030 res     1
002E                  00225 r0x102F res     1
002F                  00226 r0x102E res     1
0030                  00227 r0x102D res     1
0031                  00228 r0x1032 res     1
0032                  00229 r0x1031 res     1
0033                  00230 _format_number_buf_65536_51     res     32
                      00231 ;--------------------------------------------------------
                      00232 ; initialized data
                      00233 ;--------------------------------------------------------
                      00234 
                      00235 ID_format_0     idata
0000                  00236 _putchar_ptr
0000   00 00          00237         db      low (_format_putchar+0), high (_format_putchar+0)
                      00238 
                      00239 ;--------------------------------------------------------
                      00240 ; overlayable items in internal ram 
                      00241 ;--------------------------------------------------------
                      00242 ;       udata_ovr
                      00243 ;--------------------------------------------------------
                      00244 ; code
                      00245 ;--------------------------------------------------------
                      00246 code_format     code
                      00247 ;***
                      00248 ;  pBlock Stats: dbName = C
                      00249 ;***
                      00250 ;has an exit
                      00251 ;functions called:
                      00252 ;   _log10f
                      00253 ;   ___fs2sint
                      00254 ;   ___fslt
                      00255 ;   ___sint2fs
gpasm-1.5.2 #1319 (Aug 29 2019) build/default   30.08.2019  05:22:10        PAGE  6


LOC    OBJECT CODE    LINE  SOURCE TEXT
  VALUE

                      00256 ;   _powf
                      00257 ;   ___fsdiv
                      00258 ;   _floorf
                      00259 ;   ___fs2sint
                      00260 ;   ___sint2fs
                      00261 ;   ___fsmul
                      00262 ;   ___fssub
                      00263 ;   _00227_DS_
                      00264 ;   _00229_DS_
                      00265 ;   _log10f
                      00266 ;   ___fs2sint
                      00267 ;   ___fslt
                      00268 ;   ___sint2fs
                      00269 ;   _powf
                      00270 ;   ___fsdiv
                      00271 ;   _floorf
                      00272 ;   ___fs2sint
                      00273 ;   ___sint2fs
                      00274 ;   ___fsmul
                      00275 ;   ___fssub
                      00276 ;   _00227_DS_
                      00277 ;   _00229_DS_
                      00278 ;24 compiler assigned registers:
                      00279 ;   r0x1022
                      00280 ;   STK00
                      00281 ;   r0x1023
                      00282 ;   STK01
                      00283 ;   r0x1024
                      00284 ;   STK02
                      00285 ;   r0x1025
                      00286 ;   STK04
                      00287 ;   STK03
                      00288 ;   r0x1040
                      00289 ;   r0x1027
                      00290 ;   r0x1028
                      00291 ;   r0x1029
                      00292 ;   r0x102A
                      00293 ;   STK06
                      00294 ;   STK05
                      00295 ;   r0x102B
                      00296 ;   r0x102C
                      00297 ;   r0x102D
                      00298 ;   r0x102E
                      00299 ;   r0x102F
                      00300 ;   r0x1030
                      00301 ;   r0x1031
                      00302 ;   r0x1032
                      00303 ;; Starting pCode block
                      00304 ;<>Start of new flow, seq=0x1 ancestor = 0x1
                      00305 ;  from: ; to: 002 
                      00306 ;;; ../../../../src/pic14/gen.c:2308:resultRemat *{*
                      00307 ;;; ../../../../src/pic14/gen.c:2752:genLabel *{*
                      00308 ;; ***  genLabel  2755
gpasm-1.5.2 #1319 (Aug 29 2019) build/default   30.08.2019  05:22:10        PAGE  7


LOC    OBJECT CODE    LINE  SOURCE TEXT
  VALUE

                      00309 ;;; ../../../../src/pic14/gen.c:2308:resultRemat *{*
                      00310 ;;; ../../../../src/pic14/gen.c:2332:genFunction *{*
                      00311 ;; ***  genFunction  2334 curr label offset=78previous max_key=24 
                      00312 ;;      -----------------------------------------
                      00313 ;;       function format_double
                      00314 ;;      -----------------------------------------
                      00315 ;_format_double:
                      00316 S_format__format_double code
0000                  00317 _format_double:
                      00318 ; 2 exit points
                      00319 ;;; ../../../../src/pic14/gen.c:2308:resultRemat *{*
                      00320 ;;; ../../../../src/pic14/gen.c:7467:genReceive *{*
                      00321 ;; ***  genReceive  7468
                      00322 ;;      695 register type nRegs=4
                      00323 ;;; ../../../../src/pic14/gen.c:1892:assignResultValue *{*
                      00324 ;; ***  assignResultValue  1894
                      00325 ;;      line = 1896 result -=-, size=0, left AOP_REG=r0x106F, size=4, right -=-, size=0
                      00326 ;; >>> ../../../../src/pic14/gen.c:1378:movwf
                      00327 ;;      1097 rIdx = r0x1072 
                      00328 ;       .line   74; "../../../lib/format.c"     format_double(double num) {
0000   0??? 0???      00329         BANKSEL r0x1022 ;id=3707,key=000,inCond:0,outCond:0,flow seq=001
0002   00??           00330         MOVWF   r0x1022 ;id=2488,key=001,inCond:10,outCond:1,flow seq=001,rIdx=r0x1072
                      00331 ;; >>> ../../../../src/pic14/gen.c:1408:get_returnvalue
                      00332 ;; ***  popRegFromIdx,1030  , rIdx=0x7f
                      00333 ;; BANKOPT1 BANKSEL dropped; STK00 present in all of r0x1022's banks
0003   08??           00334         MOVF    STK00,W ;id=2491,key=002,inCond:1,outCond:14,flow seq=001
                      00335 ;; >>> ../../../../src/pic14/gen.c:1378:movwf
                      00336 ;;      1097 rIdx = r0x1071 
                      00337 ;; BANKOPT2 BANKSEL dropped; r0x1023 present in same bank as r0x1022
0004   00??           00338         MOVWF   r0x1023 ;id=2494,key=003,inCond:10,outCond:1,flow seq=001,rIdx=r0x1071
                      00339 ;; >>> ../../../../src/pic14/gen.c:1408:get_returnvalue
                      00340 ;; ***  popRegFromIdx,1030  , rIdx=0x7e
                      00341 ;; BANKOPT1 BANKSEL dropped; STK01 present in all of r0x1022's banks
0005   08??           00342         MOVF    STK01,W ;id=2497,key=004,inCond:1,outCond:14,flow seq=001
                      00343 ;; >>> ../../../../src/pic14/gen.c:1378:movwf
                      00344 ;;      1097 rIdx = r0x1070 
                      00345 ;; BANKOPT2 BANKSEL dropped; r0x1024 present in same bank as r0x1022
0006   00??           00346         MOVWF   r0x1024 ;id=2500,key=005,inCond:10,outCond:1,flow seq=001,rIdx=r0x1070
                      00347 ;; >>> ../../../../src/pic14/gen.c:1408:get_returnvalue
                      00348 ;; ***  popRegFromIdx,1030  , rIdx=0x7d
                      00349 ;; BANKOPT1 BANKSEL dropped; STK02 present in all of r0x1022's banks
0007   08??           00350         MOVF    STK02,W ;id=2503,key=006,inCond:1,outCond:14,flow seq=001
                      00351 ;; >>> ../../../../src/pic14/gen.c:1378:movwf
                      00352 ;;      1097 rIdx = r0x106F 
                      00353 ;; BANKOPT2 BANKSEL dropped; r0x1025 present in same bank as r0x1022
                      00354 ;       .line   75; "../../../lib/format.c"     short m = (short)log10(num);
0008   00??           00355         MOVWF   r0x1025 ;id=3657,key=007,inCond:10,outCond:1,flow seq=001,rIdx=r0x106F
                      00356 ;; BANKOPT1 BANKSEL dropped; STK04 present in all of r0x1022's banks
0009   00??           00357         MOVWF   STK04   ;id=2526,key=008,inCond:10,outCond:1,flow seq=001
                      00358 ;;; ../../../../src/pic14/gen.c:1328:mov2w_op *{*
                      00359 ;; ***  mov2w  1366  offset=1
                      00360 ;; >>> ../../../../src/pic14/gen.c:1371:mov2w
                      00361 ;;      1097 rIdx = r0x1070 
gpasm-1.5.2 #1319 (Aug 29 2019) build/default   30.08.2019  05:22:10        PAGE  8


LOC    OBJECT CODE    LINE  SOURCE TEXT
  VALUE

                      00362 ;; BANKOPT2 BANKSEL dropped; r0x1024 present in same bank as r0x1022
000A   08??           00363         MOVF    r0x1024,W       ;id=2531,key=009,inCond:1,outCond:14,flow seq=001,rIdx=r0x1070
                      00364 ;;      2120 left AOP_REG
                      00365 ;; >>> ../../../../src/pic14/gen.c:2128:genCall
                      00366 ;; ***  popRegFromIdx,1030  , rIdx=0x7c
                      00367 ;; BANKOPT1 BANKSEL dropped; STK03 present in all of r0x1022's banks
000B   00??           00368         MOVWF   STK03   ;id=2535,key=00a,inCond:10,outCond:1,flow seq=001
                      00369 ;;; ../../../../src/pic14/gen.c:1328:mov2w_op *{*
                      00370 ;; ***  mov2w  1366  offset=2
                      00371 ;; >>> ../../../../src/pic14/gen.c:1371:mov2w
                      00372 ;;      1097 rIdx = r0x1071 
                      00373 ;; BANKOPT2 BANKSEL dropped; r0x1023 present in same bank as r0x1022
000C   08??           00374         MOVF    r0x1023,W       ;id=2540,key=00b,inCond:1,outCond:14,flow seq=001,rIdx=r0x1071
                      00375 ;;      2120 left AOP_REG
                      00376 ;; >>> ../../../../src/pic14/gen.c:2128:genCall
                      00377 ;; ***  popRegFromIdx,1030  , rIdx=0x7d
                      00378 ;; BANKOPT1 BANKSEL dropped; STK02 present in all of r0x1022's banks
000D   00??           00379         MOVWF   STK02   ;id=2544,key=00c,inCond:10,outCond:1,flow seq=001
                      00380 ;;; ../../../../src/pic14/gen.c:1328:mov2w_op *{*
                      00381 ;; ***  mov2w  1366  offset=3
                      00382 ;; >>> ../../../../src/pic14/gen.c:1371:mov2w
                      00383 ;;      1097 rIdx = r0x1072 
                      00384 ;; BANKOPT2 BANKSEL dropped; r0x1022 present in same bank as r0x1022
000E   08??           00385         MOVF    r0x1022,W       ;id=2549,key=00d,inCond:1,outCond:14,flow seq=001,rIdx=r0x1072
                      00386 ;;      2120 left AOP_LIT
                      00387 ;; >>> ../../../../src/pic14/gen.c:2128:genCall
                      00388 ;; ***  popRegFromIdx,1030  , rIdx=0x7e
                      00389 ;; BANKOPT1 BANKSEL dropped; STK01 present in all of r0x1022's banks
000F   00??           00390         MOVWF   STK01   ;id=2553,key=00e,inCond:10,outCond:1,flow seq=001
                      00391 ;;; ../../../../src/pic14/gen.c:1328:mov2w_op *{*
                      00392 ;; >>> ../../../../src/pic14/gen.c:1346:mov2w_op
0010   302E           00393         MOVLW   0x2e    ;id=2556,key=00f,inCond:400,outCond:10,flow seq=001
                      00394 ;;      695 register type nRegs=1
                      00395 ;;      2120 left AOP_REG
                      00396 ;; >>> ../../../../src/pic14/gen.c:2128:genCall
                      00397 ;; ***  popRegFromIdx,1030  , rIdx=0x7f
                      00398 ;; BANKOPT1 BANKSEL dropped; STK00 present in all of r0x1022's banks
0011   00??           00399         MOVWF   STK00   ;id=2561,key=010,inCond:10,outCond:1,flow seq=001
                      00400 ;;; ../../../../src/pic14/gen.c:1328:mov2w_op *{*
                      00401 ;; ***  mov2w  1366  offset=0
                      00402 ;; >>> ../../../../src/pic14/gen.c:1371:mov2w
                      00403 ;;      1097 rIdx = r0x106A 
                      00404 ;; BANKOPT2 BANKSEL dropped; r0x1040 present in same bank as r0x1022
0012   08??           00405         MOVF    r0x1040,W       ;id=2566,key=011,inCond:1,outCond:14,flow seq=001,rIdx=r0x106A
                      00406 ;; >>> ../../../../src/pic14/gen.c:2160:genCall
0013   0??? 0???      00407         PAGESEL _log10f ;id=2568,key=012,inCond:0,outCond:0,flow seq=001
                      00408 ;; >>> ../../../../src/pic14/gen.c:2165:genCall
                      00409 ;; BANKOPT3 drop assumptions: PCI with label or call found
0015   2???           00410         CALL    _log10f ;id=2570,key=013,inCond:10,outCond:1e,flow seq=001
                      00411 ;<>Start of new flow, seq=0x2 ancestor = 0x1
                      00412 ;  from: 001 ; to: 003 
                      00413 ;; >>> ../../../../src/pic14/gen.c:2173:genCall
0016   0??? 0???      00414         PAGESEL $       ;id=2572,key=000,inCond:0,outCond:0,flow seq=002
gpasm-1.5.2 #1319 (Aug 29 2019) build/default   30.08.2019  05:22:10        PAGE  9


LOC    OBJECT CODE    LINE  SOURCE TEXT
  VALUE

                      00415 ;;      695 register type nRegs=4
                      00416 ;;; ../../../../src/pic14/gen.c:1892:assignResultValue *{*
                      00417 ;; ***  assignResultValue  1894
                      00418 ;;      line = 1896 result -=-, size=0, left AOP_REG=r0x1073, size=4, right -=-, size=0
                      00419 ;; >>> ../../../../src/pic14/gen.c:1378:movwf
                      00420 ;;      1097 rIdx = r0x1076 
0018   0??? 0???      00421         BANKSEL r0x1027 ;id=3724,key=001,inCond:0,outCond:0,flow seq=002
001A   00??           00422         MOVWF   r0x1027 ;id=2579,key=002,inCond:10,outCond:1,flow seq=002,rIdx=r0x1076
                      00423 ;; >>> ../../../../src/pic14/gen.c:1408:get_returnvalue
                      00424 ;; ***  popRegFromIdx,1030  , rIdx=0x7f
                      00425 ;; BANKOPT1 BANKSEL dropped; STK00 present in all of r0x1027's banks
001B   08??           00426         MOVF    STK00,W ;id=2582,key=003,inCond:1,outCond:14,flow seq=002
                      00427 ;; >>> ../../../../src/pic14/gen.c:1378:movwf
                      00428 ;;      1097 rIdx = r0x1075 
                      00429 ;; BANKOPT2 BANKSEL dropped; r0x1028 present in same bank as r0x1027
001C   00??           00430         MOVWF   r0x1028 ;id=2585,key=004,inCond:10,outCond:1,flow seq=002,rIdx=r0x1075
                      00431 ;; >>> ../../../../src/pic14/gen.c:1408:get_returnvalue
                      00432 ;; ***  popRegFromIdx,1030  , rIdx=0x7e
                      00433 ;; BANKOPT1 BANKSEL dropped; STK01 present in all of r0x1027's banks
001D   08??           00434         MOVF    STK01,W ;id=2588,key=005,inCond:1,outCond:14,flow seq=002
                      00435 ;; >>> ../../../../src/pic14/gen.c:1378:movwf
                      00436 ;;      1097 rIdx = r0x1074 
                      00437 ;; BANKOPT2 BANKSEL dropped; r0x1029 present in same bank as r0x1027
001E   00??           00438         MOVWF   r0x1029 ;id=2591,key=006,inCond:10,outCond:1,flow seq=002,rIdx=r0x1074
                      00439 ;; >>> ../../../../src/pic14/gen.c:1408:get_returnvalue
                      00440 ;; ***  popRegFromIdx,1030  , rIdx=0x7d
                      00441 ;; BANKOPT1 BANKSEL dropped; STK02 present in all of r0x1027's banks
001F   08??           00442         MOVF    STK02,W ;id=2594,key=007,inCond:1,outCond:14,flow seq=002
                      00443 ;; >>> ../../../../src/pic14/gen.c:1378:movwf
                      00444 ;;      1097 rIdx = r0x1073 
                      00445 ;; BANKOPT2 BANKSEL dropped; r0x102A present in same bank as r0x1027
0020   00??           00446         MOVWF   r0x102A ;id=3658,key=008,inCond:10,outCond:1,flow seq=002,rIdx=r0x1073
                      00447 ;; BANKOPT1 BANKSEL dropped; STK02 present in all of r0x1027's banks
0021   00??           00448         MOVWF   STK02   ;id=2618,key=009,inCond:10,outCond:1,flow seq=002
                      00449 ;;; ../../../../src/pic14/gen.c:1328:mov2w_op *{*
                      00450 ;; ***  mov2w  1366  offset=1
                      00451 ;; >>> ../../../../src/pic14/gen.c:1371:mov2w
                      00452 ;;      1097 rIdx = r0x1074 
                      00453 ;; BANKOPT2 BANKSEL dropped; r0x1029 present in same bank as r0x1027
0022   08??           00454         MOVF    r0x1029,W       ;id=2623,key=00a,inCond:1,outCond:14,flow seq=002,rIdx=r0x1074
                      00455 ;;      2120 left AOP_REG
                      00456 ;; >>> ../../../../src/pic14/gen.c:2128:genCall
                      00457 ;; ***  popRegFromIdx,1030  , rIdx=0x7e
                      00458 ;; BANKOPT1 BANKSEL dropped; STK01 present in all of r0x1027's banks
0023   00??           00459         MOVWF   STK01   ;id=2627,key=00b,inCond:10,outCond:1,flow seq=002
                      00460 ;;; ../../../../src/pic14/gen.c:1328:mov2w_op *{*
                      00461 ;; ***  mov2w  1366  offset=2
                      00462 ;; >>> ../../../../src/pic14/gen.c:1371:mov2w
                      00463 ;;      1097 rIdx = r0x1075 
                      00464 ;; BANKOPT2 BANKSEL dropped; r0x1028 present in same bank as r0x1027
0024   08??           00465         MOVF    r0x1028,W       ;id=2632,key=00c,inCond:1,outCond:14,flow seq=002,rIdx=r0x1075
                      00466 ;;      2120 left AOP_REG
                      00467 ;; >>> ../../../../src/pic14/gen.c:2128:genCall
gpasm-1.5.2 #1319 (Aug 29 2019) build/default   30.08.2019  05:22:10        PAGE 10


LOC    OBJECT CODE    LINE  SOURCE TEXT
  VALUE

                      00468 ;; ***  popRegFromIdx,1030  , rIdx=0x7f
                      00469 ;; BANKOPT1 BANKSEL dropped; STK00 present in all of r0x1027's banks
0025   00??           00470         MOVWF   STK00   ;id=2636,key=00d,inCond:10,outCond:1,flow seq=002
                      00471 ;;; ../../../../src/pic14/gen.c:1328:mov2w_op *{*
                      00472 ;; ***  mov2w  1366  offset=3
                      00473 ;; >>> ../../../../src/pic14/gen.c:1371:mov2w
                      00474 ;;      1097 rIdx = r0x1076 
                      00475 ;; BANKOPT2 BANKSEL dropped; r0x1027 present in same bank as r0x1027
0026   08??           00476         MOVF    r0x1027,W       ;id=2641,key=00e,inCond:1,outCond:14,flow seq=002,rIdx=r0x1076
                      00477 ;; >>> ../../../../src/pic14/gen.c:2160:genCall
0027   0??? 0???      00478         PAGESEL ___fs2sint      ;id=2643,key=00f,inCond:0,outCond:0,flow seq=002
                      00479 ;; >>> ../../../../src/pic14/gen.c:2165:genCall
                      00480 ;; BANKOPT3 drop assumptions: PCI with label or call found
0029   2???           00481         CALL    ___fs2sint      ;id=2645,key=010,inCond:10,outCond:1e,flow seq=002
                      00482 ;<>Start of new flow, seq=0x3 ancestor = 0x2
                      00483 ;  from: 002 ; to: 004 
                      00484 ;; >>> ../../../../src/pic14/gen.c:2173:genCall
002A   0??? 0???      00485         PAGESEL $       ;id=2647,key=000,inCond:0,outCond:0,flow seq=003
                      00486 ;;      695 register type nRegs=2
                      00487 ;;; ../../../../src/pic14/gen.c:1892:assignResultValue *{*
                      00488 ;; ***  assignResultValue  1894
                      00489 ;;      line = 1896 result -=-, size=0, left AOP_REG=r0x1073, size=2, right -=-, size=0
                      00490 ;; >>> ../../../../src/pic14/gen.c:1378:movwf
                      00491 ;;      1097 rIdx = r0x1074 
002C   0??? 0???      00492         BANKSEL r0x1029 ;id=3738,key=001,inCond:0,outCond:0,flow seq=003
002E   00??           00493         MOVWF   r0x1029 ;id=2654,key=002,inCond:10,outCond:1,flow seq=003,rIdx=r0x1074
                      00494 ;; >>> ../../../../src/pic14/gen.c:1408:get_returnvalue
                      00495 ;; ***  popRegFromIdx,1030  , rIdx=0x7f
                      00496 ;; BANKOPT1 BANKSEL dropped; STK00 present in all of r0x1029's banks
002F   08??           00497         MOVF    STK00,W ;id=2657,key=003,inCond:1,outCond:14,flow seq=003
                      00498 ;; >>> ../../../../src/pic14/gen.c:1378:movwf
                      00499 ;;      1097 rIdx = r0x1073 
                      00500 ;; BANKOPT2 BANKSEL dropped; r0x102A present in same bank as r0x1029
0030   00??           00501         MOVWF   r0x102A ;id=2660,key=004,inCond:10,outCond:1,flow seq=003,rIdx=r0x1073
                      00502 ;<>Start of new flow, seq=0x4 ancestor = 0x3
                      00503 ;  from: 019 003 ; to: 005 
                      00504 ;;      2188 left AOP_REG
                      00505 ;;; ../../../../src/pic14/gen.c:1830:unsaveRegisters *{*
                      00506 ;; ***  unsaveRegisters  1832
                      00507 ;;; ../../../../src/pic14/gen.c:2308:resultRemat *{*
                      00508 ;;; ../../../../src/pic14/gen.c:2752:genLabel *{*
                      00509 ;; ***  genLabel  2755
                      00510 ;_00209_DS_:
                      00511 ;;; ../../../../src/pic14/gen.c:2308:resultRemat *{*
                      00512 ;;; ../../../../src/pic14/gen.c:2308:resultRemat *{*
                      00513 ;;; ../../../../src/pic14/gen.c:2308:resultRemat *{*
                      00514 ;;; ../../../../src/pic14/gen.c:2071:genCall *{*
                      00515 ;; ***  genCall  2073
                      00516 ;;; ../../../../src/pic14/gen.c:1786:saveRegisters *{*
                      00517 ;; ***  saveRegisters  1788
                      00518 ;;      695 register type nRegs=4
                      00519 ;;      695 register type nRegs=4
                      00520 ;;      2120 left AOP_REG
gpasm-1.5.2 #1319 (Aug 29 2019) build/default   30.08.2019  05:22:10        PAGE 11


LOC    OBJECT CODE    LINE  SOURCE TEXT
  VALUE

                      00521 ;;; ../../../../src/pic14/gen.c:1328:mov2w_op *{*
                      00522 ;; ***  mov2w  1366  offset=0
                      00523 ;; >>> ../../../../src/pic14/gen.c:1371:mov2w
                      00524 ;;      1097 rIdx = r0x106F 
                      00525 ;; BANKOPT3 drop assumptions: PCI with label or call found
0031                  00526 _00209_DS_:
                      00527 ;       .line   79; "../../../lib/format.c"     while(num > 0 + DBL_EPSILON) {
0031   0??? 0???      00528         BANKSEL r0x1025 ;id=3742,key=000,inCond:0,outCond:0,flow seq=004
0033   08??           00529         MOVF    r0x1025,W       ;id=2684,key=001,inCond:1,outCond:14,flow seq=004,rIdx=r0x106F
                      00530 ;;      2120 left AOP_REG
                      00531 ;; >>> ../../../../src/pic14/gen.c:2128:genCall
                      00532 ;; ***  popRegFromIdx,1030  , rIdx=0x79
                      00533 ;; BANKOPT1 BANKSEL dropped; STK06 present in all of r0x1025's banks
0034   00??           00534         MOVWF   STK06   ;id=2688,key=002,inCond:10,outCond:1,flow seq=004
                      00535 ;;; ../../../../src/pic14/gen.c:1328:mov2w_op *{*
                      00536 ;; ***  mov2w  1366  offset=1
                      00537 ;; >>> ../../../../src/pic14/gen.c:1371:mov2w
                      00538 ;;      1097 rIdx = r0x1070 
                      00539 ;; BANKOPT2 BANKSEL dropped; r0x1024 present in same bank as r0x1025
0035   08??           00540         MOVF    r0x1024,W       ;id=2693,key=003,inCond:1,outCond:14,flow seq=004,rIdx=r0x1070
                      00541 ;;      2120 left AOP_REG
                      00542 ;; >>> ../../../../src/pic14/gen.c:2128:genCall
                      00543 ;; ***  popRegFromIdx,1030  , rIdx=0x7a
                      00544 ;; BANKOPT1 BANKSEL dropped; STK05 present in all of r0x1025's banks
0036   00??           00545         MOVWF   STK05   ;id=2697,key=004,inCond:10,outCond:1,flow seq=004
                      00546 ;;; ../../../../src/pic14/gen.c:1328:mov2w_op *{*
                      00547 ;; ***  mov2w  1366  offset=2
                      00548 ;; >>> ../../../../src/pic14/gen.c:1371:mov2w
                      00549 ;;      1097 rIdx = r0x1071 
                      00550 ;; BANKOPT2 BANKSEL dropped; r0x1023 present in same bank as r0x1025
0037   08??           00551         MOVF    r0x1023,W       ;id=2702,key=005,inCond:1,outCond:14,flow seq=004,rIdx=r0x1071
                      00552 ;;      2120 left AOP_REG
                      00553 ;; >>> ../../../../src/pic14/gen.c:2128:genCall
                      00554 ;; ***  popRegFromIdx,1030  , rIdx=0x7b
                      00555 ;; BANKOPT1 BANKSEL dropped; STK04 present in all of r0x1025's banks
0038   00??           00556         MOVWF   STK04   ;id=2706,key=006,inCond:10,outCond:1,flow seq=004
                      00557 ;;; ../../../../src/pic14/gen.c:1328:mov2w_op *{*
                      00558 ;; ***  mov2w  1366  offset=3
                      00559 ;; >>> ../../../../src/pic14/gen.c:1371:mov2w
                      00560 ;;      1097 rIdx = r0x1072 
                      00561 ;; BANKOPT2 BANKSEL dropped; r0x1022 present in same bank as r0x1025
0039   08??           00562         MOVF    r0x1022,W       ;id=2711,key=007,inCond:1,outCond:14,flow seq=004,rIdx=r0x1072
                      00563 ;;      2120 left AOP_LIT
                      00564 ;; >>> ../../../../src/pic14/gen.c:2128:genCall
                      00565 ;; ***  popRegFromIdx,1030  , rIdx=0x7c
                      00566 ;; BANKOPT1 BANKSEL dropped; STK03 present in all of r0x1025's banks
003A   00??           00567         MOVWF   STK03   ;id=2715,key=008,inCond:10,outCond:1,flow seq=004
                      00568 ;;; ../../../../src/pic14/gen.c:1328:mov2w_op *{*
                      00569 ;; >>> ../../../../src/pic14/gen.c:1346:mov2w_op
003B   3000           00570         MOVLW   0x00    ;id=2718,key=009,inCond:400,outCond:10,flow seq=004
                      00571 ;;      2120 left AOP_LIT
                      00572 ;; >>> ../../../../src/pic14/gen.c:2128:genCall
                      00573 ;; ***  popRegFromIdx,1030  , rIdx=0x7d
gpasm-1.5.2 #1319 (Aug 29 2019) build/default   30.08.2019  05:22:10        PAGE 12


LOC    OBJECT CODE    LINE  SOURCE TEXT
  VALUE

                      00574 ;; BANKOPT1 BANKSEL dropped; STK02 present in all of r0x1025's banks
003C   00??           00575         MOVWF   STK02   ;id=2722,key=00a,inCond:10,outCond:1,flow seq=004
                      00576 ;;; ../../../../src/pic14/gen.c:1328:mov2w_op *{*
                      00577 ;; >>> ../../../../src/pic14/gen.c:1346:mov2w_op
003D   3000           00578         MOVLW   0x00    ;id=2725,key=00b,inCond:400,outCond:10,flow seq=004
                      00579 ;;      2120 left AOP_LIT
                      00580 ;; >>> ../../../../src/pic14/gen.c:2128:genCall
                      00581 ;; ***  popRegFromIdx,1030  , rIdx=0x7e
                      00582 ;; BANKOPT1 BANKSEL dropped; STK01 present in all of r0x1025's banks
003E   00??           00583         MOVWF   STK01   ;id=2729,key=00c,inCond:10,outCond:1,flow seq=004
                      00584 ;;; ../../../../src/pic14/gen.c:1328:mov2w_op *{*
                      00585 ;; >>> ../../../../src/pic14/gen.c:1346:mov2w_op
003F   3000           00586         MOVLW   0x00    ;id=2732,key=00d,inCond:400,outCond:10,flow seq=004
                      00587 ;;      2120 left AOP_LIT
                      00588 ;; >>> ../../../../src/pic14/gen.c:2128:genCall
                      00589 ;; ***  popRegFromIdx,1030  , rIdx=0x7f
                      00590 ;; BANKOPT1 BANKSEL dropped; STK00 present in all of r0x1025's banks
0040   00??           00591         MOVWF   STK00   ;id=2736,key=00e,inCond:10,outCond:1,flow seq=004
                      00592 ;;; ../../../../src/pic14/gen.c:1328:mov2w_op *{*
                      00593 ;; >>> ../../../../src/pic14/gen.c:1346:mov2w_op
0041   3034           00594         MOVLW   0x34    ;id=2739,key=00f,inCond:400,outCond:10,flow seq=004
                      00595 ;; >>> ../../../../src/pic14/gen.c:2160:genCall
0042   0??? 0???      00596         PAGESEL ___fslt ;id=2741,key=010,inCond:0,outCond:0,flow seq=004
                      00597 ;; >>> ../../../../src/pic14/gen.c:2165:genCall
                      00598 ;; BANKOPT3 drop assumptions: PCI with label or call found
0044   2???           00599         CALL    ___fslt ;id=2743,key=011,inCond:10,outCond:1e,flow seq=004
                      00600 ;<>Start of new flow, seq=0x5 ancestor = 0x4
                      00601 ;  from: 004 ; to: 007 006 
                      00602 ;; >>> ../../../../src/pic14/gen.c:2173:genCall
0045   0??? 0???      00603         PAGESEL $       ;id=2745,key=000,inCond:0,outCond:0,flow seq=005
                      00604 ;;      695 register type nRegs=1
                      00605 ;;; ../../../../src/pic14/gen.c:1892:assignResultValue *{*
                      00606 ;; ***  assignResultValue  1894
                      00607 ;;      line = 1896 result -=-, size=0, left AOP_REG=r0x1075, size=1, right -=-, size=0
                      00608 ;; >>> ../../../../src/pic14/gen.c:1378:movwf
                      00609 ;;      1097 rIdx = r0x1075 
0047   0??? 0???      00610         BANKSEL r0x1028 ;id=3754,key=001,inCond:0,outCond:0,flow seq=005
0049   00??           00611         MOVWF   r0x1028 ;id=2752,key=002,inCond:10,outCond:1,flow seq=005,rIdx=r0x1075
                      00612 ;;      2188 left AOP_REG
                      00613 ;;; ../../../../src/pic14/gen.c:1830:unsaveRegisters *{*
                      00614 ;; ***  unsaveRegisters  1832
                      00615 ;;; ../../../../src/pic14/gen.c:2308:resultRemat *{*
                      00616 ;;; ../../../../src/pic14/gen.c:6868:genIfx *{*
                      00617 ;; ***  genIfx  6869
                      00618 ;;      695 register type nRegs=1
                      00619 ;; ***  pic14_toBoolean  1500
                      00620 ;; >>> ../../../../src/pic14/gen.c:1507:pic14_toBoolean
                      00621 ;; BANKOPT2 BANKSEL dropped; r0x1028 present in same bank as r0x1028
004A   08??           00622         MOVF    r0x1028,W       ;id=3659,key=003,inCond:1,outCond:14,flow seq=005,rIdx=r0x1075
004B   1903           00623         BTFSC   STATUS,2        ;id=2767,key=004,inCond:25,outCond:0,flow seq=005
                      00624 ;<>Start of new flow, seq=0x6 ancestor = 0x5
                      00625 ;  from: 005 ; to: 01a 
                      00626 ;; >>> ../../../../src/pic14/gen.c:6923:genIfx
gpasm-1.5.2 #1319 (Aug 29 2019) build/default   30.08.2019  05:22:10        PAGE 13


LOC    OBJECT CODE    LINE  SOURCE TEXT
  VALUE

                      00627 ;; ***  popGetLabel  key=6, label offset 106
004C   2???           00628         GOTO    _00212_DS_      ;id=2770,key=000,inCond:0,outCond:0,flow seq=006
                      00629 ;<>Start of new flow, seq=0x7 ancestor = 0x5
                      00630 ;  from: 005 ; to: 008 
                      00631 ;;; ../../../../src/pic14/gen.c:2308:resultRemat *{*
                      00632 ;;; ../../../../src/pic14/gen.c:2308:resultRemat *{*
                      00633 ;;; ../../../../src/pic14/gen.c:2071:genCall *{*
                      00634 ;; ***  genCall  2073
                      00635 ;;; ../../../../src/pic14/gen.c:1786:saveRegisters *{*
                      00636 ;; ***  saveRegisters  1788
                      00637 ;;      695 register type nRegs=2
                      00638 ;;      695 register type nRegs=2
                      00639 ;;      2120 left AOP_REG
                      00640 ;;; ../../../../src/pic14/gen.c:1328:mov2w_op *{*
                      00641 ;; ***  mov2w  1366  offset=0
                      00642 ;; >>> ../../../../src/pic14/gen.c:1371:mov2w
                      00643 ;;      1097 rIdx = r0x1073 
                      00644 ;; BANKOPT2 BANKSEL dropped; r0x102A present in same bank as r0x1028
                      00645 ;       .line   80; "../../../lib/format.c"     double weight = pow(10.0l, m);
004D   08??           00646         MOVF    r0x102A,W       ;id=2785,key=000,inCond:1,outCond:14,flow seq=007,rIdx=r0x1073
                      00647 ;;      2120 left AOP_REG
                      00648 ;; >>> ../../../../src/pic14/gen.c:2128:genCall
                      00649 ;; ***  popRegFromIdx,1030  , rIdx=0x7f
                      00650 ;; BANKOPT1 BANKSEL dropped; STK00 present in all of r0x1028's banks
004E   00??           00651         MOVWF   STK00   ;id=2789,key=001,inCond:10,outCond:1,flow seq=007
                      00652 ;;; ../../../../src/pic14/gen.c:1328:mov2w_op *{*
                      00653 ;; ***  mov2w  1366  offset=1
                      00654 ;; >>> ../../../../src/pic14/gen.c:1371:mov2w
                      00655 ;;      1097 rIdx = r0x1074 
                      00656 ;; BANKOPT2 BANKSEL dropped; r0x1029 present in same bank as r0x1028
004F   08??           00657         MOVF    r0x1029,W       ;id=2794,key=002,inCond:1,outCond:14,flow seq=007,rIdx=r0x1074
                      00658 ;; >>> ../../../../src/pic14/gen.c:2160:genCall
0050   0??? 0???      00659         PAGESEL ___sint2fs      ;id=2796,key=003,inCond:0,outCond:0,flow seq=007
                      00660 ;; >>> ../../../../src/pic14/gen.c:2165:genCall
                      00661 ;; BANKOPT3 drop assumptions: PCI with label or call found
0052   2???           00662         CALL    ___sint2fs      ;id=2798,key=004,inCond:10,outCond:1e,flow seq=007
                      00663 ;<>Start of new flow, seq=0x8 ancestor = 0x7
                      00664 ;  from: 007 ; to: 009 
                      00665 ;; >>> ../../../../src/pic14/gen.c:2173:genCall
0053   0??? 0???      00666         PAGESEL $       ;id=2800,key=000,inCond:0,outCond:0,flow seq=008
                      00667 ;;      695 register type nRegs=4
                      00668 ;;; ../../../../src/pic14/gen.c:1892:assignResultValue *{*
                      00669 ;; ***  assignResultValue  1894
                      00670 ;;      line = 1896 result -=-, size=0, left AOP_REG=r0x1075, size=4, right -=-, size=0
                      00671 ;; >>> ../../../../src/pic14/gen.c:1378:movwf
                      00672 ;;      1097 rIdx = r0x1078 
0055   0??? 0???      00673         BANKSEL r0x102B ;id=3760,key=001,inCond:0,outCond:0,flow seq=008
0057   00??           00674         MOVWF   r0x102B ;id=2807,key=002,inCond:10,outCond:1,flow seq=008,rIdx=r0x1078
                      00675 ;; >>> ../../../../src/pic14/gen.c:1408:get_returnvalue
                      00676 ;; ***  popRegFromIdx,1030  , rIdx=0x7f
                      00677 ;; BANKOPT1 BANKSEL dropped; STK00 present in all of r0x102B's banks
0058   08??           00678         MOVF    STK00,W ;id=2810,key=003,inCond:1,outCond:14,flow seq=008
                      00679 ;; >>> ../../../../src/pic14/gen.c:1378:movwf
gpasm-1.5.2 #1319 (Aug 29 2019) build/default   30.08.2019  05:22:10        PAGE 14


LOC    OBJECT CODE    LINE  SOURCE TEXT
  VALUE

                      00680 ;;      1097 rIdx = r0x1077 
                      00681 ;; BANKOPT2 BANKSEL dropped; r0x102C present in same bank as r0x102B
0059   00??           00682         MOVWF   r0x102C ;id=2813,key=004,inCond:10,outCond:1,flow seq=008,rIdx=r0x1077
                      00683 ;; >>> ../../../../src/pic14/gen.c:1408:get_returnvalue
                      00684 ;; ***  popRegFromIdx,1030  , rIdx=0x7e
                      00685 ;; BANKOPT1 BANKSEL dropped; STK01 present in all of r0x102B's banks
005A   08??           00686         MOVF    STK01,W ;id=2816,key=005,inCond:1,outCond:14,flow seq=008
                      00687 ;; >>> ../../../../src/pic14/gen.c:1378:movwf
                      00688 ;;      1097 rIdx = r0x1076 
                      00689 ;; BANKOPT2 BANKSEL dropped; r0x1027 present in same bank as r0x102B
005B   00??           00690         MOVWF   r0x1027 ;id=2819,key=006,inCond:10,outCond:1,flow seq=008,rIdx=r0x1076
                      00691 ;; >>> ../../../../src/pic14/gen.c:1408:get_returnvalue
                      00692 ;; ***  popRegFromIdx,1030  , rIdx=0x7d
                      00693 ;; BANKOPT1 BANKSEL dropped; STK02 present in all of r0x102B's banks
005C   08??           00694         MOVF    STK02,W ;id=2822,key=007,inCond:1,outCond:14,flow seq=008
                      00695 ;; >>> ../../../../src/pic14/gen.c:1378:movwf
                      00696 ;;      1097 rIdx = r0x1075 
                      00697 ;; BANKOPT2 BANKSEL dropped; r0x1028 present in same bank as r0x102B
005D   00??           00698         MOVWF   r0x1028 ;id=3660,key=008,inCond:10,outCond:1,flow seq=008,rIdx=r0x1075
                      00699 ;; BANKOPT1 BANKSEL dropped; STK06 present in all of r0x102B's banks
005E   00??           00700         MOVWF   STK06   ;id=2847,key=009,inCond:10,outCond:1,flow seq=008
                      00701 ;;; ../../../../src/pic14/gen.c:1328:mov2w_op *{*
                      00702 ;; ***  mov2w  1366  offset=1
                      00703 ;; >>> ../../../../src/pic14/gen.c:1371:mov2w
                      00704 ;;      1097 rIdx = r0x1076 
                      00705 ;; BANKOPT2 BANKSEL dropped; r0x1027 present in same bank as r0x102B
005F   08??           00706         MOVF    r0x1027,W       ;id=2852,key=00a,inCond:1,outCond:14,flow seq=008,rIdx=r0x1076
                      00707 ;;      2120 left AOP_REG
                      00708 ;; >>> ../../../../src/pic14/gen.c:2128:genCall
                      00709 ;; ***  popRegFromIdx,1030  , rIdx=0x7a
                      00710 ;; BANKOPT1 BANKSEL dropped; STK05 present in all of r0x102B's banks
0060   00??           00711         MOVWF   STK05   ;id=2856,key=00b,inCond:10,outCond:1,flow seq=008
                      00712 ;;; ../../../../src/pic14/gen.c:1328:mov2w_op *{*
                      00713 ;; ***  mov2w  1366  offset=2
                      00714 ;; >>> ../../../../src/pic14/gen.c:1371:mov2w
                      00715 ;;      1097 rIdx = r0x1077 
                      00716 ;; BANKOPT2 BANKSEL dropped; r0x102C present in same bank as r0x102B
0061   08??           00717         MOVF    r0x102C,W       ;id=2861,key=00c,inCond:1,outCond:14,flow seq=008,rIdx=r0x1077
                      00718 ;;      2120 left AOP_REG
                      00719 ;; >>> ../../../../src/pic14/gen.c:2128:genCall
                      00720 ;; ***  popRegFromIdx,1030  , rIdx=0x7b
                      00721 ;; BANKOPT1 BANKSEL dropped; STK04 present in all of r0x102B's banks
0062   00??           00722         MOVWF   STK04   ;id=2865,key=00d,inCond:10,outCond:1,flow seq=008
                      00723 ;;; ../../../../src/pic14/gen.c:1328:mov2w_op *{*
                      00724 ;; ***  mov2w  1366  offset=3
                      00725 ;; >>> ../../../../src/pic14/gen.c:1371:mov2w
                      00726 ;;      1097 rIdx = r0x1078 
                      00727 ;; BANKOPT2 BANKSEL dropped; r0x102B present in same bank as r0x102B
0063   08??           00728         MOVF    r0x102B,W       ;id=2870,key=00e,inCond:1,outCond:14,flow seq=008,rIdx=r0x1078
                      00729 ;;      2120 left AOP_LIT
                      00730 ;; >>> ../../../../src/pic14/gen.c:2128:genCall
                      00731 ;; ***  popRegFromIdx,1030  , rIdx=0x7c
                      00732 ;; BANKOPT1 BANKSEL dropped; STK03 present in all of r0x102B's banks
gpasm-1.5.2 #1319 (Aug 29 2019) build/default   30.08.2019  05:22:10        PAGE 15


LOC    OBJECT CODE    LINE  SOURCE TEXT
  VALUE

0064   00??           00733         MOVWF   STK03   ;id=2874,key=00f,inCond:10,outCond:1,flow seq=008
                      00734 ;;; ../../../../src/pic14/gen.c:1328:mov2w_op *{*
                      00735 ;; >>> ../../../../src/pic14/gen.c:1346:mov2w_op
0065   3000           00736         MOVLW   0x00    ;id=2877,key=010,inCond:400,outCond:10,flow seq=008
                      00737 ;;      2120 left AOP_LIT
                      00738 ;; >>> ../../../../src/pic14/gen.c:2128:genCall
                      00739 ;; ***  popRegFromIdx,1030  , rIdx=0x7d
                      00740 ;; BANKOPT1 BANKSEL dropped; STK02 present in all of r0x102B's banks
0066   00??           00741         MOVWF   STK02   ;id=2881,key=011,inCond:10,outCond:1,flow seq=008
                      00742 ;;; ../../../../src/pic14/gen.c:1328:mov2w_op *{*
                      00743 ;; >>> ../../../../src/pic14/gen.c:1346:mov2w_op
0067   3000           00744         MOVLW   0x00    ;id=2884,key=012,inCond:400,outCond:10,flow seq=008
                      00745 ;;      2120 left AOP_LIT
                      00746 ;; >>> ../../../../src/pic14/gen.c:2128:genCall
                      00747 ;; ***  popRegFromIdx,1030  , rIdx=0x7e
                      00748 ;; BANKOPT1 BANKSEL dropped; STK01 present in all of r0x102B's banks
0068   00??           00749         MOVWF   STK01   ;id=2888,key=013,inCond:10,outCond:1,flow seq=008
                      00750 ;;; ../../../../src/pic14/gen.c:1328:mov2w_op *{*
                      00751 ;; >>> ../../../../src/pic14/gen.c:1346:mov2w_op
0069   3020           00752         MOVLW   0x20    ;id=2891,key=014,inCond:400,outCond:10,flow seq=008
                      00753 ;;      2120 left AOP_LIT
                      00754 ;; >>> ../../../../src/pic14/gen.c:2128:genCall
                      00755 ;; ***  popRegFromIdx,1030  , rIdx=0x7f
                      00756 ;; BANKOPT1 BANKSEL dropped; STK00 present in all of r0x102B's banks
006A   00??           00757         MOVWF   STK00   ;id=2895,key=015,inCond:10,outCond:1,flow seq=008
                      00758 ;;; ../../../../src/pic14/gen.c:1328:mov2w_op *{*
                      00759 ;; >>> ../../../../src/pic14/gen.c:1346:mov2w_op
006B   3041           00760         MOVLW   0x41    ;id=2898,key=016,inCond:400,outCond:10,flow seq=008
                      00761 ;; >>> ../../../../src/pic14/gen.c:2160:genCall
006C   0??? 0???      00762         PAGESEL _powf   ;id=2900,key=017,inCond:0,outCond:0,flow seq=008
                      00763 ;; >>> ../../../../src/pic14/gen.c:2165:genCall
                      00764 ;; BANKOPT3 drop assumptions: PCI with label or call found
006E   2???           00765         CALL    _powf   ;id=2902,key=018,inCond:10,outCond:1e,flow seq=008
                      00766 ;<>Start of new flow, seq=0x9 ancestor = 0x8
                      00767 ;  from: 008 ; to: 00a 
                      00768 ;; >>> ../../../../src/pic14/gen.c:2173:genCall
006F   0??? 0???      00769         PAGESEL $       ;id=2904,key=000,inCond:0,outCond:0,flow seq=009
                      00770 ;;      695 register type nRegs=4
                      00771 ;;; ../../../../src/pic14/gen.c:1892:assignResultValue *{*
                      00772 ;; ***  assignResultValue  1894
                      00773 ;;      line = 1896 result -=-, size=0, left AOP_REG=r0x1075, size=4, right -=-, size=0
                      00774 ;; >>> ../../../../src/pic14/gen.c:1378:movwf
                      00775 ;;      1097 rIdx = r0x1078 
0071   0??? 0???      00776         BANKSEL r0x102B ;id=3778,key=001,inCond:0,outCond:0,flow seq=009
0073   00??           00777         MOVWF   r0x102B ;id=2911,key=002,inCond:10,outCond:1,flow seq=009,rIdx=r0x1078
                      00778 ;; >>> ../../../../src/pic14/gen.c:1408:get_returnvalue
                      00779 ;; ***  popRegFromIdx,1030  , rIdx=0x7f
                      00780 ;; BANKOPT1 BANKSEL dropped; STK00 present in all of r0x102B's banks
0074   08??           00781         MOVF    STK00,W ;id=2914,key=003,inCond:1,outCond:14,flow seq=009
                      00782 ;; >>> ../../../../src/pic14/gen.c:1378:movwf
                      00783 ;;      1097 rIdx = r0x1077 
                      00784 ;; BANKOPT2 BANKSEL dropped; r0x102C present in same bank as r0x102B
0075   00??           00785         MOVWF   r0x102C ;id=2917,key=004,inCond:10,outCond:1,flow seq=009,rIdx=r0x1077
gpasm-1.5.2 #1319 (Aug 29 2019) build/default   30.08.2019  05:22:10        PAGE 16


LOC    OBJECT CODE    LINE  SOURCE TEXT
  VALUE

                      00786 ;; >>> ../../../../src/pic14/gen.c:1408:get_returnvalue
                      00787 ;; ***  popRegFromIdx,1030  , rIdx=0x7e
                      00788 ;; BANKOPT1 BANKSEL dropped; STK01 present in all of r0x102B's banks
0076   08??           00789         MOVF    STK01,W ;id=2920,key=005,inCond:1,outCond:14,flow seq=009
                      00790 ;; >>> ../../../../src/pic14/gen.c:1378:movwf
                      00791 ;;      1097 rIdx = r0x1076 
                      00792 ;; BANKOPT2 BANKSEL dropped; r0x1027 present in same bank as r0x102B
0077   00??           00793         MOVWF   r0x1027 ;id=2923,key=006,inCond:10,outCond:1,flow seq=009,rIdx=r0x1076
                      00794 ;; >>> ../../../../src/pic14/gen.c:1408:get_returnvalue
                      00795 ;; ***  popRegFromIdx,1030  , rIdx=0x7d
                      00796 ;; BANKOPT1 BANKSEL dropped; STK02 present in all of r0x102B's banks
0078   08??           00797         MOVF    STK02,W ;id=2926,key=007,inCond:1,outCond:14,flow seq=009
                      00798 ;; >>> ../../../../src/pic14/gen.c:1378:movwf
                      00799 ;;      1097 rIdx = r0x1075 
                      00800 ;; BANKOPT2 BANKSEL dropped; r0x1028 present in same bank as r0x102B
                      00801 ;       .line   81; "../../../lib/format.c"     digit = (short)floor(num / weight);
0079   00??           00802         MOVWF   r0x1028 ;id=3661,key=008,inCond:10,outCond:1,flow seq=009,rIdx=r0x1075
                      00803 ;; BANKOPT1 BANKSEL dropped; STK06 present in all of r0x102B's banks
007A   00??           00804         MOVWF   STK06   ;id=2953,key=009,inCond:10,outCond:1,flow seq=009
                      00805 ;;; ../../../../src/pic14/gen.c:1328:mov2w_op *{*
                      00806 ;; ***  mov2w  1366  offset=1
                      00807 ;; >>> ../../../../src/pic14/gen.c:1371:mov2w
                      00808 ;;      1097 rIdx = r0x1076 
                      00809 ;; BANKOPT2 BANKSEL dropped; r0x1027 present in same bank as r0x102B
007B   08??           00810         MOVF    r0x1027,W       ;id=2958,key=00a,inCond:1,outCond:14,flow seq=009,rIdx=r0x1076
                      00811 ;;      2120 left AOP_REG
                      00812 ;; >>> ../../../../src/pic14/gen.c:2128:genCall
                      00813 ;; ***  popRegFromIdx,1030  , rIdx=0x7a
                      00814 ;; BANKOPT1 BANKSEL dropped; STK05 present in all of r0x102B's banks
007C   00??           00815         MOVWF   STK05   ;id=2962,key=00b,inCond:10,outCond:1,flow seq=009
                      00816 ;;; ../../../../src/pic14/gen.c:1328:mov2w_op *{*
                      00817 ;; ***  mov2w  1366  offset=2
                      00818 ;; >>> ../../../../src/pic14/gen.c:1371:mov2w
                      00819 ;;      1097 rIdx = r0x1077 
                      00820 ;; BANKOPT2 BANKSEL dropped; r0x102C present in same bank as r0x102B
007D   08??           00821         MOVF    r0x102C,W       ;id=2967,key=00c,inCond:1,outCond:14,flow seq=009,rIdx=r0x1077
                      00822 ;;      2120 left AOP_REG
                      00823 ;; >>> ../../../../src/pic14/gen.c:2128:genCall
                      00824 ;; ***  popRegFromIdx,1030  , rIdx=0x7b
                      00825 ;; BANKOPT1 BANKSEL dropped; STK04 present in all of r0x102B's banks
007E   00??           00826         MOVWF   STK04   ;id=2971,key=00d,inCond:10,outCond:1,flow seq=009
                      00827 ;;; ../../../../src/pic14/gen.c:1328:mov2w_op *{*
                      00828 ;; ***  mov2w  1366  offset=3
                      00829 ;; >>> ../../../../src/pic14/gen.c:1371:mov2w
                      00830 ;;      1097 rIdx = r0x1078 
                      00831 ;; BANKOPT2 BANKSEL dropped; r0x102B present in same bank as r0x102B
007F   08??           00832         MOVF    r0x102B,W       ;id=2976,key=00e,inCond:1,outCond:14,flow seq=009,rIdx=r0x1078
                      00833 ;;      695 register type nRegs=4
                      00834 ;;      2120 left AOP_REG
                      00835 ;; >>> ../../../../src/pic14/gen.c:2128:genCall
                      00836 ;; ***  popRegFromIdx,1030  , rIdx=0x7c
                      00837 ;; BANKOPT1 BANKSEL dropped; STK03 present in all of r0x102B's banks
0080   00??           00838         MOVWF   STK03   ;id=2981,key=00f,inCond:10,outCond:1,flow seq=009
gpasm-1.5.2 #1319 (Aug 29 2019) build/default   30.08.2019  05:22:10        PAGE 17


LOC    OBJECT CODE    LINE  SOURCE TEXT
  VALUE

                      00839 ;;; ../../../../src/pic14/gen.c:1328:mov2w_op *{*
                      00840 ;; ***  mov2w  1366  offset=0
                      00841 ;; >>> ../../../../src/pic14/gen.c:1371:mov2w
                      00842 ;;      1097 rIdx = r0x106F 
                      00843 ;; BANKOPT2 BANKSEL dropped; r0x1025 present in same bank as r0x102B
0081   08??           00844         MOVF    r0x1025,W       ;id=2986,key=010,inCond:1,outCond:14,flow seq=009,rIdx=r0x106F
                      00845 ;;      2120 left AOP_REG
                      00846 ;; >>> ../../../../src/pic14/gen.c:2128:genCall
                      00847 ;; ***  popRegFromIdx,1030  , rIdx=0x7d
                      00848 ;; BANKOPT1 BANKSEL dropped; STK02 present in all of r0x102B's banks
0082   00??           00849         MOVWF   STK02   ;id=2990,key=011,inCond:10,outCond:1,flow seq=009
                      00850 ;;; ../../../../src/pic14/gen.c:1328:mov2w_op *{*
                      00851 ;; ***  mov2w  1366  offset=1
                      00852 ;; >>> ../../../../src/pic14/gen.c:1371:mov2w
                      00853 ;;      1097 rIdx = r0x1070 
                      00854 ;; BANKOPT2 BANKSEL dropped; r0x1024 present in same bank as r0x102B
0083   08??           00855         MOVF    r0x1024,W       ;id=2995,key=012,inCond:1,outCond:14,flow seq=009,rIdx=r0x1070
                      00856 ;;      2120 left AOP_REG
                      00857 ;; >>> ../../../../src/pic14/gen.c:2128:genCall
                      00858 ;; ***  popRegFromIdx,1030  , rIdx=0x7e
                      00859 ;; BANKOPT1 BANKSEL dropped; STK01 present in all of r0x102B's banks
0084   00??           00860         MOVWF   STK01   ;id=2999,key=013,inCond:10,outCond:1,flow seq=009
                      00861 ;;; ../../../../src/pic14/gen.c:1328:mov2w_op *{*
                      00862 ;; ***  mov2w  1366  offset=2
                      00863 ;; >>> ../../../../src/pic14/gen.c:1371:mov2w
                      00864 ;;      1097 rIdx = r0x1071 
                      00865 ;; BANKOPT2 BANKSEL dropped; r0x1023 present in same bank as r0x102B
0085   08??           00866         MOVF    r0x1023,W       ;id=3004,key=014,inCond:1,outCond:14,flow seq=009,rIdx=r0x1071
                      00867 ;;      2120 left AOP_REG
                      00868 ;; >>> ../../../../src/pic14/gen.c:2128:genCall
                      00869 ;; ***  popRegFromIdx,1030  , rIdx=0x7f
                      00870 ;; BANKOPT1 BANKSEL dropped; STK00 present in all of r0x102B's banks
0086   00??           00871         MOVWF   STK00   ;id=3008,key=015,inCond:10,outCond:1,flow seq=009
                      00872 ;;; ../../../../src/pic14/gen.c:1328:mov2w_op *{*
                      00873 ;; ***  mov2w  1366  offset=3
                      00874 ;; >>> ../../../../src/pic14/gen.c:1371:mov2w
                      00875 ;;      1097 rIdx = r0x1072 
                      00876 ;; BANKOPT2 BANKSEL dropped; r0x1022 present in same bank as r0x102B
0087   08??           00877         MOVF    r0x1022,W       ;id=3013,key=016,inCond:1,outCond:14,flow seq=009,rIdx=r0x1072
                      00878 ;; >>> ../../../../src/pic14/gen.c:2160:genCall
0088   0??? 0???      00879         PAGESEL ___fsdiv        ;id=3015,key=017,inCond:0,outCond:0,flow seq=009
                      00880 ;; >>> ../../../../src/pic14/gen.c:2165:genCall
                      00881 ;; BANKOPT3 drop assumptions: PCI with label or call found
008A   2???           00882         CALL    ___fsdiv        ;id=3017,key=018,inCond:10,outCond:1e,flow seq=009
                      00883 ;<>Start of new flow, seq=0xa ancestor = 0x9
                      00884 ;  from: 009 ; to: 00b 
                      00885 ;; >>> ../../../../src/pic14/gen.c:2173:genCall
008B   0??? 0???      00886         PAGESEL $       ;id=3019,key=000,inCond:0,outCond:0,flow seq=00a
                      00887 ;;      695 register type nRegs=4
                      00888 ;;; ../../../../src/pic14/gen.c:1892:assignResultValue *{*
                      00889 ;; ***  assignResultValue  1894
                      00890 ;;      line = 1896 result -=-, size=0, left AOP_REG=r0x1079, size=4, right -=-, size=0
                      00891 ;; >>> ../../../../src/pic14/gen.c:1378:movwf
gpasm-1.5.2 #1319 (Aug 29 2019) build/default   30.08.2019  05:22:10        PAGE 18


LOC    OBJECT CODE    LINE  SOURCE TEXT
  VALUE

                      00892 ;;      1097 rIdx = r0x107C 
008D   0??? 0???      00893         BANKSEL r0x102D ;id=3800,key=001,inCond:0,outCond:0,flow seq=00a
008F   00??           00894         MOVWF   r0x102D ;id=3026,key=002,inCond:10,outCond:1,flow seq=00a,rIdx=r0x107C
                      00895 ;; >>> ../../../../src/pic14/gen.c:1408:get_returnvalue
                      00896 ;; ***  popRegFromIdx,1030  , rIdx=0x7f
                      00897 ;; BANKOPT1 BANKSEL dropped; STK00 present in all of r0x102D's banks
0090   08??           00898         MOVF    STK00,W ;id=3029,key=003,inCond:1,outCond:14,flow seq=00a
                      00899 ;; >>> ../../../../src/pic14/gen.c:1378:movwf
                      00900 ;;      1097 rIdx = r0x107B 
                      00901 ;; BANKOPT2 BANKSEL dropped; r0x102E present in same bank as r0x102D
0091   00??           00902         MOVWF   r0x102E ;id=3032,key=004,inCond:10,outCond:1,flow seq=00a,rIdx=r0x107B
                      00903 ;; >>> ../../../../src/pic14/gen.c:1408:get_returnvalue
                      00904 ;; ***  popRegFromIdx,1030  , rIdx=0x7e
                      00905 ;; BANKOPT1 BANKSEL dropped; STK01 present in all of r0x102D's banks
0092   08??           00906         MOVF    STK01,W ;id=3035,key=005,inCond:1,outCond:14,flow seq=00a
                      00907 ;; >>> ../../../../src/pic14/gen.c:1378:movwf
                      00908 ;;      1097 rIdx = r0x107A 
                      00909 ;; BANKOPT2 BANKSEL dropped; r0x102F present in same bank as r0x102D
0093   00??           00910         MOVWF   r0x102F ;id=3038,key=006,inCond:10,outCond:1,flow seq=00a,rIdx=r0x107A
                      00911 ;; >>> ../../../../src/pic14/gen.c:1408:get_returnvalue
                      00912 ;; ***  popRegFromIdx,1030  , rIdx=0x7d
                      00913 ;; BANKOPT1 BANKSEL dropped; STK02 present in all of r0x102D's banks
0094   08??           00914         MOVF    STK02,W ;id=3041,key=007,inCond:1,outCond:14,flow seq=00a
                      00915 ;; >>> ../../../../src/pic14/gen.c:1378:movwf
                      00916 ;;      1097 rIdx = r0x1079 
                      00917 ;; BANKOPT2 BANKSEL dropped; r0x1030 present in same bank as r0x102D
0095   00??           00918         MOVWF   r0x1030 ;id=3662,key=008,inCond:10,outCond:1,flow seq=00a,rIdx=r0x1079
                      00919 ;; BANKOPT1 BANKSEL dropped; STK02 present in all of r0x102D's banks
0096   00??           00920         MOVWF   STK02   ;id=3065,key=009,inCond:10,outCond:1,flow seq=00a
                      00921 ;;; ../../../../src/pic14/gen.c:1328:mov2w_op *{*
                      00922 ;; ***  mov2w  1366  offset=1
                      00923 ;; >>> ../../../../src/pic14/gen.c:1371:mov2w
                      00924 ;;      1097 rIdx = r0x107A 
                      00925 ;; BANKOPT2 BANKSEL dropped; r0x102F present in same bank as r0x102D
0097   08??           00926         MOVF    r0x102F,W       ;id=3070,key=00a,inCond:1,outCond:14,flow seq=00a,rIdx=r0x107A
                      00927 ;;      2120 left AOP_REG
                      00928 ;; >>> ../../../../src/pic14/gen.c:2128:genCall
                      00929 ;; ***  popRegFromIdx,1030  , rIdx=0x7e
                      00930 ;; BANKOPT1 BANKSEL dropped; STK01 present in all of r0x102D's banks
0098   00??           00931         MOVWF   STK01   ;id=3074,key=00b,inCond:10,outCond:1,flow seq=00a
                      00932 ;;; ../../../../src/pic14/gen.c:1328:mov2w_op *{*
                      00933 ;; ***  mov2w  1366  offset=2
                      00934 ;; >>> ../../../../src/pic14/gen.c:1371:mov2w
                      00935 ;;      1097 rIdx = r0x107B 
                      00936 ;; BANKOPT2 BANKSEL dropped; r0x102E present in same bank as r0x102D
0099   08??           00937         MOVF    r0x102E,W       ;id=3079,key=00c,inCond:1,outCond:14,flow seq=00a,rIdx=r0x107B
                      00938 ;;      2120 left AOP_REG
                      00939 ;; >>> ../../../../src/pic14/gen.c:2128:genCall
                      00940 ;; ***  popRegFromIdx,1030  , rIdx=0x7f
                      00941 ;; BANKOPT1 BANKSEL dropped; STK00 present in all of r0x102D's banks
009A   00??           00942         MOVWF   STK00   ;id=3083,key=00d,inCond:10,outCond:1,flow seq=00a
                      00943 ;;; ../../../../src/pic14/gen.c:1328:mov2w_op *{*
                      00944 ;; ***  mov2w  1366  offset=3
gpasm-1.5.2 #1319 (Aug 29 2019) build/default   30.08.2019  05:22:10        PAGE 19


LOC    OBJECT CODE    LINE  SOURCE TEXT
  VALUE

                      00945 ;; >>> ../../../../src/pic14/gen.c:1371:mov2w
                      00946 ;;      1097 rIdx = r0x107C 
                      00947 ;; BANKOPT2 BANKSEL dropped; r0x102D present in same bank as r0x102D
009B   08??           00948         MOVF    r0x102D,W       ;id=3088,key=00e,inCond:1,outCond:14,flow seq=00a,rIdx=r0x107C
                      00949 ;; >>> ../../../../src/pic14/gen.c:2160:genCall
009C   0??? 0???      00950         PAGESEL _floorf ;id=3090,key=00f,inCond:0,outCond:0,flow seq=00a
                      00951 ;; >>> ../../../../src/pic14/gen.c:2165:genCall
                      00952 ;; BANKOPT3 drop assumptions: PCI with label or call found
009E   2???           00953         CALL    _floorf ;id=3092,key=010,inCond:10,outCond:1e,flow seq=00a
                      00954 ;<>Start of new flow, seq=0xb ancestor = 0xa
                      00955 ;  from: 00a ; to: 00c 
                      00956 ;; >>> ../../../../src/pic14/gen.c:2173:genCall
009F   0??? 0???      00957         PAGESEL $       ;id=3094,key=000,inCond:0,outCond:0,flow seq=00b
                      00958 ;;      695 register type nRegs=4
                      00959 ;;; ../../../../src/pic14/gen.c:1892:assignResultValue *{*
                      00960 ;; ***  assignResultValue  1894
                      00961 ;;      line = 1896 result -=-, size=0, left AOP_REG=r0x1079, size=4, right -=-, size=0
                      00962 ;; >>> ../../../../src/pic14/gen.c:1378:movwf
                      00963 ;;      1097 rIdx = r0x107C 
00A1   0??? 0???      00964         BANKSEL r0x102D ;id=3814,key=001,inCond:0,outCond:0,flow seq=00b
00A3   00??           00965         MOVWF   r0x102D ;id=3101,key=002,inCond:10,outCond:1,flow seq=00b,rIdx=r0x107C
                      00966 ;; >>> ../../../../src/pic14/gen.c:1408:get_returnvalue
                      00967 ;; ***  popRegFromIdx,1030  , rIdx=0x7f
                      00968 ;; BANKOPT1 BANKSEL dropped; STK00 present in all of r0x102D's banks
00A4   08??           00969         MOVF    STK00,W ;id=3104,key=003,inCond:1,outCond:14,flow seq=00b
                      00970 ;; >>> ../../../../src/pic14/gen.c:1378:movwf
                      00971 ;;      1097 rIdx = r0x107B 
                      00972 ;; BANKOPT2 BANKSEL dropped; r0x102E present in same bank as r0x102D
00A5   00??           00973         MOVWF   r0x102E ;id=3107,key=004,inCond:10,outCond:1,flow seq=00b,rIdx=r0x107B
                      00974 ;; >>> ../../../../src/pic14/gen.c:1408:get_returnvalue
                      00975 ;; ***  popRegFromIdx,1030  , rIdx=0x7e
                      00976 ;; BANKOPT1 BANKSEL dropped; STK01 present in all of r0x102D's banks
00A6   08??           00977         MOVF    STK01,W ;id=3110,key=005,inCond:1,outCond:14,flow seq=00b
                      00978 ;; >>> ../../../../src/pic14/gen.c:1378:movwf
                      00979 ;;      1097 rIdx = r0x107A 
                      00980 ;; BANKOPT2 BANKSEL dropped; r0x102F present in same bank as r0x102D
00A7   00??           00981         MOVWF   r0x102F ;id=3113,key=006,inCond:10,outCond:1,flow seq=00b,rIdx=r0x107A
                      00982 ;; >>> ../../../../src/pic14/gen.c:1408:get_returnvalue
                      00983 ;; ***  popRegFromIdx,1030  , rIdx=0x7d
                      00984 ;; BANKOPT1 BANKSEL dropped; STK02 present in all of r0x102D's banks
00A8   08??           00985         MOVF    STK02,W ;id=3116,key=007,inCond:1,outCond:14,flow seq=00b
                      00986 ;; >>> ../../../../src/pic14/gen.c:1378:movwf
                      00987 ;;      1097 rIdx = r0x1079 
                      00988 ;; BANKOPT2 BANKSEL dropped; r0x1030 present in same bank as r0x102D
00A9   00??           00989         MOVWF   r0x1030 ;id=3663,key=008,inCond:10,outCond:1,flow seq=00b,rIdx=r0x1079
                      00990 ;; BANKOPT1 BANKSEL dropped; STK02 present in all of r0x102D's banks
00AA   00??           00991         MOVWF   STK02   ;id=3140,key=009,inCond:10,outCond:1,flow seq=00b
                      00992 ;;; ../../../../src/pic14/gen.c:1328:mov2w_op *{*
                      00993 ;; ***  mov2w  1366  offset=1
                      00994 ;; >>> ../../../../src/pic14/gen.c:1371:mov2w
                      00995 ;;      1097 rIdx = r0x107A 
                      00996 ;; BANKOPT2 BANKSEL dropped; r0x102F present in same bank as r0x102D
00AB   08??           00997         MOVF    r0x102F,W       ;id=3145,key=00a,inCond:1,outCond:14,flow seq=00b,rIdx=r0x107A
gpasm-1.5.2 #1319 (Aug 29 2019) build/default   30.08.2019  05:22:10        PAGE 20


LOC    OBJECT CODE    LINE  SOURCE TEXT
  VALUE

                      00998 ;;      2120 left AOP_REG
                      00999 ;; >>> ../../../../src/pic14/gen.c:2128:genCall
                      01000 ;; ***  popRegFromIdx,1030  , rIdx=0x7e
                      01001 ;; BANKOPT1 BANKSEL dropped; STK01 present in all of r0x102D's banks
00AC   00??           01002         MOVWF   STK01   ;id=3149,key=00b,inCond:10,outCond:1,flow seq=00b
                      01003 ;;; ../../../../src/pic14/gen.c:1328:mov2w_op *{*
                      01004 ;; ***  mov2w  1366  offset=2
                      01005 ;; >>> ../../../../src/pic14/gen.c:1371:mov2w
                      01006 ;;      1097 rIdx = r0x107B 
                      01007 ;; BANKOPT2 BANKSEL dropped; r0x102E present in same bank as r0x102D
00AD   08??           01008         MOVF    r0x102E,W       ;id=3154,key=00c,inCond:1,outCond:14,flow seq=00b,rIdx=r0x107B
                      01009 ;;      2120 left AOP_REG
                      01010 ;; >>> ../../../../src/pic14/gen.c:2128:genCall
                      01011 ;; ***  popRegFromIdx,1030  , rIdx=0x7f
                      01012 ;; BANKOPT1 BANKSEL dropped; STK00 present in all of r0x102D's banks
00AE   00??           01013         MOVWF   STK00   ;id=3158,key=00d,inCond:10,outCond:1,flow seq=00b
                      01014 ;;; ../../../../src/pic14/gen.c:1328:mov2w_op *{*
                      01015 ;; ***  mov2w  1366  offset=3
                      01016 ;; >>> ../../../../src/pic14/gen.c:1371:mov2w
                      01017 ;;      1097 rIdx = r0x107C 
                      01018 ;; BANKOPT2 BANKSEL dropped; r0x102D present in same bank as r0x102D
00AF   08??           01019         MOVF    r0x102D,W       ;id=3163,key=00e,inCond:1,outCond:14,flow seq=00b,rIdx=r0x107C
                      01020 ;; >>> ../../../../src/pic14/gen.c:2160:genCall
00B0   0??? 0???      01021         PAGESEL ___fs2sint      ;id=3165,key=00f,inCond:0,outCond:0,flow seq=00b
                      01022 ;; >>> ../../../../src/pic14/gen.c:2165:genCall
                      01023 ;; BANKOPT3 drop assumptions: PCI with label or call found
00B2   2???           01024         CALL    ___fs2sint      ;id=3167,key=010,inCond:10,outCond:1e,flow seq=00b
                      01025 ;<>Start of new flow, seq=0xc ancestor = 0xb
                      01026 ;  from: 00b ; to: 00d 
                      01027 ;; >>> ../../../../src/pic14/gen.c:2173:genCall
00B3   0??? 0???      01028         PAGESEL $       ;id=3169,key=000,inCond:0,outCond:0,flow seq=00c
                      01029 ;;      695 register type nRegs=2
                      01030 ;;; ../../../../src/pic14/gen.c:1892:assignResultValue *{*
                      01031 ;; ***  assignResultValue  1894
                      01032 ;;      line = 1896 result -=-, size=0, left AOP_REG=r0x1079, size=2, right -=-, size=0
                      01033 ;; >>> ../../../../src/pic14/gen.c:1378:movwf
                      01034 ;;      1097 rIdx = r0x107A 
00B5   0??? 0???      01035         BANKSEL r0x102F ;id=3828,key=001,inCond:0,outCond:0,flow seq=00c
00B7   00??           01036         MOVWF   r0x102F ;id=3176,key=002,inCond:10,outCond:1,flow seq=00c,rIdx=r0x107A
                      01037 ;; >>> ../../../../src/pic14/gen.c:1408:get_returnvalue
                      01038 ;; ***  popRegFromIdx,1030  , rIdx=0x7f
                      01039 ;; BANKOPT1 BANKSEL dropped; STK00 present in all of r0x102F's banks
00B8   08??           01040         MOVF    STK00,W ;id=3179,key=003,inCond:1,outCond:14,flow seq=00c
                      01041 ;; >>> ../../../../src/pic14/gen.c:1378:movwf
                      01042 ;;      1097 rIdx = r0x1079 
                      01043 ;; BANKOPT2 BANKSEL dropped; r0x1030 present in same bank as r0x102F
                      01044 ;       .line   82; "../../../lib/format.c"     num -= (digit * weight);
00B9   00??           01045         MOVWF   r0x1030 ;id=3664,key=004,inCond:10,outCond:1,flow seq=00c,rIdx=r0x1079
                      01046 ;; BANKOPT1 BANKSEL dropped; STK00 present in all of r0x102F's banks
00BA   00??           01047         MOVWF   STK00   ;id=3204,key=005,inCond:10,outCond:1,flow seq=00c
                      01048 ;;; ../../../../src/pic14/gen.c:1328:mov2w_op *{*
                      01049 ;; ***  mov2w  1366  offset=1
                      01050 ;; >>> ../../../../src/pic14/gen.c:1371:mov2w
gpasm-1.5.2 #1319 (Aug 29 2019) build/default   30.08.2019  05:22:10        PAGE 21


LOC    OBJECT CODE    LINE  SOURCE TEXT
  VALUE

                      01051 ;;      1097 rIdx = r0x107A 
                      01052 ;; BANKOPT2 BANKSEL dropped; r0x102F present in same bank as r0x102F
00BB   08??           01053         MOVF    r0x102F,W       ;id=3209,key=006,inCond:1,outCond:14,flow seq=00c,rIdx=r0x107A
                      01054 ;; >>> ../../../../src/pic14/gen.c:2160:genCall
00BC   0??? 0???      01055         PAGESEL ___sint2fs      ;id=3211,key=007,inCond:0,outCond:0,flow seq=00c
                      01056 ;; >>> ../../../../src/pic14/gen.c:2165:genCall
                      01057 ;; BANKOPT3 drop assumptions: PCI with label or call found
00BE   2???           01058         CALL    ___sint2fs      ;id=3213,key=008,inCond:10,outCond:1e,flow seq=00c
                      01059 ;<>Start of new flow, seq=0xd ancestor = 0xc
                      01060 ;  from: 00c ; to: 00e 
                      01061 ;; >>> ../../../../src/pic14/gen.c:2173:genCall
00BF   0??? 0???      01062         PAGESEL $       ;id=3215,key=000,inCond:0,outCond:0,flow seq=00d
                      01063 ;;      695 register type nRegs=4
                      01064 ;;; ../../../../src/pic14/gen.c:1892:assignResultValue *{*
                      01065 ;; ***  assignResultValue  1894
                      01066 ;;      line = 1896 result -=-, size=0, left AOP_REG=r0x107B, size=4, right -=-, size=0
                      01067 ;; >>> ../../../../src/pic14/gen.c:1378:movwf
                      01068 ;;      1097 rIdx = r0x107E 
00C1   0??? 0???      01069         BANKSEL r0x1031 ;id=3834,key=001,inCond:0,outCond:0,flow seq=00d
00C3   00??           01070         MOVWF   r0x1031 ;id=3222,key=002,inCond:10,outCond:1,flow seq=00d,rIdx=r0x107E
                      01071 ;; >>> ../../../../src/pic14/gen.c:1408:get_returnvalue
                      01072 ;; ***  popRegFromIdx,1030  , rIdx=0x7f
                      01073 ;; BANKOPT1 BANKSEL dropped; STK00 present in all of r0x1031's banks
00C4   08??           01074         MOVF    STK00,W ;id=3225,key=003,inCond:1,outCond:14,flow seq=00d
                      01075 ;; >>> ../../../../src/pic14/gen.c:1378:movwf
                      01076 ;;      1097 rIdx = r0x107D 
                      01077 ;; BANKOPT2 BANKSEL dropped; r0x1032 present in same bank as r0x1031
00C5   00??           01078         MOVWF   r0x1032 ;id=3228,key=004,inCond:10,outCond:1,flow seq=00d,rIdx=r0x107D
                      01079 ;; >>> ../../../../src/pic14/gen.c:1408:get_returnvalue
                      01080 ;; ***  popRegFromIdx,1030  , rIdx=0x7e
                      01081 ;; BANKOPT1 BANKSEL dropped; STK01 present in all of r0x1031's banks
00C6   08??           01082         MOVF    STK01,W ;id=3231,key=005,inCond:1,outCond:14,flow seq=00d
                      01083 ;; >>> ../../../../src/pic14/gen.c:1378:movwf
                      01084 ;;      1097 rIdx = r0x107C 
                      01085 ;; BANKOPT2 BANKSEL dropped; r0x102D present in same bank as r0x1031
00C7   00??           01086         MOVWF   r0x102D ;id=3234,key=006,inCond:10,outCond:1,flow seq=00d,rIdx=r0x107C
                      01087 ;; >>> ../../../../src/pic14/gen.c:1408:get_returnvalue
                      01088 ;; ***  popRegFromIdx,1030  , rIdx=0x7d
                      01089 ;; BANKOPT1 BANKSEL dropped; STK02 present in all of r0x1031's banks
00C8   08??           01090         MOVF    STK02,W ;id=3237,key=007,inCond:1,outCond:14,flow seq=00d
                      01091 ;; >>> ../../../../src/pic14/gen.c:1378:movwf
                      01092 ;;      1097 rIdx = r0x107B 
                      01093 ;; BANKOPT2 BANKSEL dropped; r0x102E present in same bank as r0x1031
00C9   00??           01094         MOVWF   r0x102E ;id=3240,key=008,inCond:10,outCond:1,flow seq=00d,rIdx=r0x107B
                      01095 ;;      2188 left AOP_REG
                      01096 ;;; ../../../../src/pic14/gen.c:1830:unsaveRegisters *{*
                      01097 ;; ***  unsaveRegisters  1832
                      01098 ;;; ../../../../src/pic14/gen.c:2308:resultRemat *{*
                      01099 ;;; ../../../../src/pic14/gen.c:2308:resultRemat *{*
                      01100 ;;; ../../../../src/pic14/gen.c:2308:resultRemat *{*
                      01101 ;;; ../../../../src/pic14/gen.c:2071:genCall *{*
                      01102 ;; ***  genCall  2073
                      01103 ;;; ../../../../src/pic14/gen.c:1786:saveRegisters *{*
gpasm-1.5.2 #1319 (Aug 29 2019) build/default   30.08.2019  05:22:10        PAGE 22


LOC    OBJECT CODE    LINE  SOURCE TEXT
  VALUE

                      01104 ;; ***  saveRegisters  1788
                      01105 ;;      695 register type nRegs=4
                      01106 ;;      695 register type nRegs=4
                      01107 ;;      695 register type nRegs=4
                      01108 ;;      2120 left AOP_REG
                      01109 ;;; ../../../../src/pic14/gen.c:1328:mov2w_op *{*
                      01110 ;; ***  mov2w  1366  offset=0
                      01111 ;; >>> ../../../../src/pic14/gen.c:1371:mov2w
                      01112 ;;      1097 rIdx = r0x1075 
                      01113 ;; BANKOPT2 BANKSEL dropped; r0x1028 present in same bank as r0x1031
00CA   08??           01114         MOVF    r0x1028,W       ;id=3259,key=009,inCond:1,outCond:14,flow seq=00d,rIdx=r0x1075
                      01115 ;;      2120 left AOP_REG
                      01116 ;; >>> ../../../../src/pic14/gen.c:2128:genCall
                      01117 ;; ***  popRegFromIdx,1030  , rIdx=0x79
                      01118 ;; BANKOPT1 BANKSEL dropped; STK06 present in all of r0x1031's banks
00CB   00??           01119         MOVWF   STK06   ;id=3263,key=00a,inCond:10,outCond:1,flow seq=00d
                      01120 ;;; ../../../../src/pic14/gen.c:1328:mov2w_op *{*
                      01121 ;; ***  mov2w  1366  offset=1
                      01122 ;; >>> ../../../../src/pic14/gen.c:1371:mov2w
                      01123 ;;      1097 rIdx = r0x1076 
                      01124 ;; BANKOPT2 BANKSEL dropped; r0x1027 present in same bank as r0x1031
00CC   08??           01125         MOVF    r0x1027,W       ;id=3268,key=00b,inCond:1,outCond:14,flow seq=00d,rIdx=r0x1076
                      01126 ;;      2120 left AOP_REG
                      01127 ;; >>> ../../../../src/pic14/gen.c:2128:genCall
                      01128 ;; ***  popRegFromIdx,1030  , rIdx=0x7a
                      01129 ;; BANKOPT1 BANKSEL dropped; STK05 present in all of r0x1031's banks
00CD   00??           01130         MOVWF   STK05   ;id=3272,key=00c,inCond:10,outCond:1,flow seq=00d
                      01131 ;;; ../../../../src/pic14/gen.c:1328:mov2w_op *{*
                      01132 ;; ***  mov2w  1366  offset=2
                      01133 ;; >>> ../../../../src/pic14/gen.c:1371:mov2w
                      01134 ;;      1097 rIdx = r0x1077 
                      01135 ;; BANKOPT2 BANKSEL dropped; r0x102C present in same bank as r0x1031
00CE   08??           01136         MOVF    r0x102C,W       ;id=3277,key=00d,inCond:1,outCond:14,flow seq=00d,rIdx=r0x1077
                      01137 ;;      2120 left AOP_REG
                      01138 ;; >>> ../../../../src/pic14/gen.c:2128:genCall
                      01139 ;; ***  popRegFromIdx,1030  , rIdx=0x7b
                      01140 ;; BANKOPT1 BANKSEL dropped; STK04 present in all of r0x1031's banks
00CF   00??           01141         MOVWF   STK04   ;id=3281,key=00e,inCond:10,outCond:1,flow seq=00d
                      01142 ;;; ../../../../src/pic14/gen.c:1328:mov2w_op *{*
                      01143 ;; ***  mov2w  1366  offset=3
                      01144 ;; >>> ../../../../src/pic14/gen.c:1371:mov2w
                      01145 ;;      1097 rIdx = r0x1078 
                      01146 ;; BANKOPT2 BANKSEL dropped; r0x102B present in same bank as r0x1031
00D0   08??           01147         MOVF    r0x102B,W       ;id=3286,key=00f,inCond:1,outCond:14,flow seq=00d,rIdx=r0x1078
                      01148 ;;      695 register type nRegs=4
                      01149 ;;      2120 left AOP_REG
                      01150 ;; >>> ../../../../src/pic14/gen.c:2128:genCall
                      01151 ;; ***  popRegFromIdx,1030  , rIdx=0x7c
                      01152 ;; BANKOPT1 BANKSEL dropped; STK03 present in all of r0x1031's banks
00D1   00??           01153         MOVWF   STK03   ;id=3291,key=010,inCond:10,outCond:1,flow seq=00d
                      01154 ;;; ../../../../src/pic14/gen.c:1328:mov2w_op *{*
                      01155 ;; ***  mov2w  1366  offset=0
                      01156 ;; >>> ../../../../src/pic14/gen.c:1371:mov2w
gpasm-1.5.2 #1319 (Aug 29 2019) build/default   30.08.2019  05:22:10        PAGE 23


LOC    OBJECT CODE    LINE  SOURCE TEXT
  VALUE

                      01157 ;;      1097 rIdx = r0x107B 
                      01158 ;; BANKOPT2 BANKSEL dropped; r0x102E present in same bank as r0x1031
00D2   08??           01159         MOVF    r0x102E,W       ;id=3296,key=011,inCond:1,outCond:14,flow seq=00d,rIdx=r0x107B
                      01160 ;;      2120 left AOP_REG
                      01161 ;; >>> ../../../../src/pic14/gen.c:2128:genCall
                      01162 ;; ***  popRegFromIdx,1030  , rIdx=0x7d
                      01163 ;; BANKOPT1 BANKSEL dropped; STK02 present in all of r0x1031's banks
00D3   00??           01164         MOVWF   STK02   ;id=3300,key=012,inCond:10,outCond:1,flow seq=00d
                      01165 ;;; ../../../../src/pic14/gen.c:1328:mov2w_op *{*
                      01166 ;; ***  mov2w  1366  offset=1
                      01167 ;; >>> ../../../../src/pic14/gen.c:1371:mov2w
                      01168 ;;      1097 rIdx = r0x107C 
                      01169 ;; BANKOPT2 BANKSEL dropped; r0x102D present in same bank as r0x1031
00D4   08??           01170         MOVF    r0x102D,W       ;id=3305,key=013,inCond:1,outCond:14,flow seq=00d,rIdx=r0x107C
                      01171 ;;      2120 left AOP_REG
                      01172 ;; >>> ../../../../src/pic14/gen.c:2128:genCall
                      01173 ;; ***  popRegFromIdx,1030  , rIdx=0x7e
                      01174 ;; BANKOPT1 BANKSEL dropped; STK01 present in all of r0x1031's banks
00D5   00??           01175         MOVWF   STK01   ;id=3309,key=014,inCond:10,outCond:1,flow seq=00d
                      01176 ;;; ../../../../src/pic14/gen.c:1328:mov2w_op *{*
                      01177 ;; ***  mov2w  1366  offset=2
                      01178 ;; >>> ../../../../src/pic14/gen.c:1371:mov2w
                      01179 ;;      1097 rIdx = r0x107D 
                      01180 ;; BANKOPT2 BANKSEL dropped; r0x1032 present in same bank as r0x1031
00D6   08??           01181         MOVF    r0x1032,W       ;id=3314,key=015,inCond:1,outCond:14,flow seq=00d,rIdx=r0x107D
                      01182 ;;      2120 left AOP_REG
                      01183 ;; >>> ../../../../src/pic14/gen.c:2128:genCall
                      01184 ;; ***  popRegFromIdx,1030  , rIdx=0x7f
                      01185 ;; BANKOPT1 BANKSEL dropped; STK00 present in all of r0x1031's banks
00D7   00??           01186         MOVWF   STK00   ;id=3318,key=016,inCond:10,outCond:1,flow seq=00d
                      01187 ;;; ../../../../src/pic14/gen.c:1328:mov2w_op *{*
                      01188 ;; ***  mov2w  1366  offset=3
                      01189 ;; >>> ../../../../src/pic14/gen.c:1371:mov2w
                      01190 ;;      1097 rIdx = r0x107E 
                      01191 ;; BANKOPT2 BANKSEL dropped; r0x1031 present in same bank as r0x1031
00D8   08??           01192         MOVF    r0x1031,W       ;id=3323,key=017,inCond:1,outCond:14,flow seq=00d,rIdx=r0x107E
                      01193 ;; >>> ../../../../src/pic14/gen.c:2160:genCall
00D9   0??? 0???      01194         PAGESEL ___fsmul        ;id=3325,key=018,inCond:0,outCond:0,flow seq=00d
                      01195 ;; >>> ../../../../src/pic14/gen.c:2165:genCall
                      01196 ;; BANKOPT3 drop assumptions: PCI with label or call found
00DB   2???           01197         CALL    ___fsmul        ;id=3327,key=019,inCond:10,outCond:1e,flow seq=00d
                      01198 ;<>Start of new flow, seq=0xe ancestor = 0xd
                      01199 ;  from: 00d ; to: 00f 
                      01200 ;; >>> ../../../../src/pic14/gen.c:2173:genCall
00DC   0??? 0???      01201         PAGESEL $       ;id=3329,key=000,inCond:0,outCond:0,flow seq=00e
                      01202 ;;      695 register type nRegs=4
                      01203 ;;; ../../../../src/pic14/gen.c:1892:assignResultValue *{*
                      01204 ;; ***  assignResultValue  1894
                      01205 ;;      line = 1896 result -=-, size=0, left AOP_REG=r0x1075, size=4, right -=-, size=0
                      01206 ;; >>> ../../../../src/pic14/gen.c:1378:movwf
                      01207 ;;      1097 rIdx = r0x1078 
00DE   0??? 0???      01208         BANKSEL r0x102B ;id=3857,key=001,inCond:0,outCond:0,flow seq=00e
00E0   00??           01209         MOVWF   r0x102B ;id=3336,key=002,inCond:10,outCond:1,flow seq=00e,rIdx=r0x1078
gpasm-1.5.2 #1319 (Aug 29 2019) build/default   30.08.2019  05:22:10        PAGE 24


LOC    OBJECT CODE    LINE  SOURCE TEXT
  VALUE

                      01210 ;; >>> ../../../../src/pic14/gen.c:1408:get_returnvalue
                      01211 ;; ***  popRegFromIdx,1030  , rIdx=0x7f
                      01212 ;; BANKOPT1 BANKSEL dropped; STK00 present in all of r0x102B's banks
00E1   08??           01213         MOVF    STK00,W ;id=3339,key=003,inCond:1,outCond:14,flow seq=00e
                      01214 ;; >>> ../../../../src/pic14/gen.c:1378:movwf
                      01215 ;;      1097 rIdx = r0x1077 
                      01216 ;; BANKOPT2 BANKSEL dropped; r0x102C present in same bank as r0x102B
00E2   00??           01217         MOVWF   r0x102C ;id=3342,key=004,inCond:10,outCond:1,flow seq=00e,rIdx=r0x1077
                      01218 ;; >>> ../../../../src/pic14/gen.c:1408:get_returnvalue
                      01219 ;; ***  popRegFromIdx,1030  , rIdx=0x7e
                      01220 ;; BANKOPT1 BANKSEL dropped; STK01 present in all of r0x102B's banks
00E3   08??           01221         MOVF    STK01,W ;id=3345,key=005,inCond:1,outCond:14,flow seq=00e
                      01222 ;; >>> ../../../../src/pic14/gen.c:1378:movwf
                      01223 ;;      1097 rIdx = r0x1076 
                      01224 ;; BANKOPT2 BANKSEL dropped; r0x1027 present in same bank as r0x102B
00E4   00??           01225         MOVWF   r0x1027 ;id=3348,key=006,inCond:10,outCond:1,flow seq=00e,rIdx=r0x1076
                      01226 ;; >>> ../../../../src/pic14/gen.c:1408:get_returnvalue
                      01227 ;; ***  popRegFromIdx,1030  , rIdx=0x7d
                      01228 ;; BANKOPT1 BANKSEL dropped; STK02 present in all of r0x102B's banks
00E5   08??           01229         MOVF    STK02,W ;id=3351,key=007,inCond:1,outCond:14,flow seq=00e
                      01230 ;; >>> ../../../../src/pic14/gen.c:1378:movwf
                      01231 ;;      1097 rIdx = r0x1075 
                      01232 ;; BANKOPT2 BANKSEL dropped; r0x1028 present in same bank as r0x102B
00E6   00??           01233         MOVWF   r0x1028 ;id=3665,key=008,inCond:10,outCond:1,flow seq=00e,rIdx=r0x1075
                      01234 ;; BANKOPT1 BANKSEL dropped; STK06 present in all of r0x102B's banks
00E7   00??           01235         MOVWF   STK06   ;id=3377,key=009,inCond:10,outCond:1,flow seq=00e
                      01236 ;;; ../../../../src/pic14/gen.c:1328:mov2w_op *{*
                      01237 ;; ***  mov2w  1366  offset=1
                      01238 ;; >>> ../../../../src/pic14/gen.c:1371:mov2w
                      01239 ;;      1097 rIdx = r0x1076 
                      01240 ;; BANKOPT2 BANKSEL dropped; r0x1027 present in same bank as r0x102B
00E8   08??           01241         MOVF    r0x1027,W       ;id=3382,key=00a,inCond:1,outCond:14,flow seq=00e,rIdx=r0x1076
                      01242 ;;      2120 left AOP_REG
                      01243 ;; >>> ../../../../src/pic14/gen.c:2128:genCall
                      01244 ;; ***  popRegFromIdx,1030  , rIdx=0x7a
                      01245 ;; BANKOPT1 BANKSEL dropped; STK05 present in all of r0x102B's banks
00E9   00??           01246         MOVWF   STK05   ;id=3386,key=00b,inCond:10,outCond:1,flow seq=00e
                      01247 ;;; ../../../../src/pic14/gen.c:1328:mov2w_op *{*
                      01248 ;; ***  mov2w  1366  offset=2
                      01249 ;; >>> ../../../../src/pic14/gen.c:1371:mov2w
                      01250 ;;      1097 rIdx = r0x1077 
                      01251 ;; BANKOPT2 BANKSEL dropped; r0x102C present in same bank as r0x102B
00EA   08??           01252         MOVF    r0x102C,W       ;id=3391,key=00c,inCond:1,outCond:14,flow seq=00e,rIdx=r0x1077
                      01253 ;;      2120 left AOP_REG
                      01254 ;; >>> ../../../../src/pic14/gen.c:2128:genCall
                      01255 ;; ***  popRegFromIdx,1030  , rIdx=0x7b
                      01256 ;; BANKOPT1 BANKSEL dropped; STK04 present in all of r0x102B's banks
00EB   00??           01257         MOVWF   STK04   ;id=3395,key=00d,inCond:10,outCond:1,flow seq=00e
                      01258 ;;; ../../../../src/pic14/gen.c:1328:mov2w_op *{*
                      01259 ;; ***  mov2w  1366  offset=3
                      01260 ;; >>> ../../../../src/pic14/gen.c:1371:mov2w
                      01261 ;;      1097 rIdx = r0x1078 
                      01262 ;; BANKOPT2 BANKSEL dropped; r0x102B present in same bank as r0x102B
gpasm-1.5.2 #1319 (Aug 29 2019) build/default   30.08.2019  05:22:10        PAGE 25


LOC    OBJECT CODE    LINE  SOURCE TEXT
  VALUE

00EC   08??           01263         MOVF    r0x102B,W       ;id=3400,key=00e,inCond:1,outCond:14,flow seq=00e,rIdx=r0x1078
                      01264 ;;      695 register type nRegs=4
                      01265 ;;      2120 left AOP_REG
                      01266 ;; >>> ../../../../src/pic14/gen.c:2128:genCall
                      01267 ;; ***  popRegFromIdx,1030  , rIdx=0x7c
                      01268 ;; BANKOPT1 BANKSEL dropped; STK03 present in all of r0x102B's banks
00ED   00??           01269         MOVWF   STK03   ;id=3405,key=00f,inCond:10,outCond:1,flow seq=00e
                      01270 ;;; ../../../../src/pic14/gen.c:1328:mov2w_op *{*
                      01271 ;; ***  mov2w  1366  offset=0
                      01272 ;; >>> ../../../../src/pic14/gen.c:1371:mov2w
                      01273 ;;      1097 rIdx = r0x106F 
                      01274 ;; BANKOPT2 BANKSEL dropped; r0x1025 present in same bank as r0x102B
00EE   08??           01275         MOVF    r0x1025,W       ;id=3410,key=010,inCond:1,outCond:14,flow seq=00e,rIdx=r0x106F
                      01276 ;;      2120 left AOP_REG
                      01277 ;; >>> ../../../../src/pic14/gen.c:2128:genCall
                      01278 ;; ***  popRegFromIdx,1030  , rIdx=0x7d
                      01279 ;; BANKOPT1 BANKSEL dropped; STK02 present in all of r0x102B's banks
00EF   00??           01280         MOVWF   STK02   ;id=3414,key=011,inCond:10,outCond:1,flow seq=00e
                      01281 ;;; ../../../../src/pic14/gen.c:1328:mov2w_op *{*
                      01282 ;; ***  mov2w  1366  offset=1
                      01283 ;; >>> ../../../../src/pic14/gen.c:1371:mov2w
                      01284 ;;      1097 rIdx = r0x1070 
                      01285 ;; BANKOPT2 BANKSEL dropped; r0x1024 present in same bank as r0x102B
00F0   08??           01286         MOVF    r0x1024,W       ;id=3419,key=012,inCond:1,outCond:14,flow seq=00e,rIdx=r0x1070
                      01287 ;;      2120 left AOP_REG
                      01288 ;; >>> ../../../../src/pic14/gen.c:2128:genCall
                      01289 ;; ***  popRegFromIdx,1030  , rIdx=0x7e
                      01290 ;; BANKOPT1 BANKSEL dropped; STK01 present in all of r0x102B's banks
00F1   00??           01291         MOVWF   STK01   ;id=3423,key=013,inCond:10,outCond:1,flow seq=00e
                      01292 ;;; ../../../../src/pic14/gen.c:1328:mov2w_op *{*
                      01293 ;; ***  mov2w  1366  offset=2
                      01294 ;; >>> ../../../../src/pic14/gen.c:1371:mov2w
                      01295 ;;      1097 rIdx = r0x1071 
                      01296 ;; BANKOPT2 BANKSEL dropped; r0x1023 present in same bank as r0x102B
00F2   08??           01297         MOVF    r0x1023,W       ;id=3428,key=014,inCond:1,outCond:14,flow seq=00e,rIdx=r0x1071
                      01298 ;;      2120 left AOP_REG
                      01299 ;; >>> ../../../../src/pic14/gen.c:2128:genCall
                      01300 ;; ***  popRegFromIdx,1030  , rIdx=0x7f
                      01301 ;; BANKOPT1 BANKSEL dropped; STK00 present in all of r0x102B's banks
00F3   00??           01302         MOVWF   STK00   ;id=3432,key=015,inCond:10,outCond:1,flow seq=00e
                      01303 ;;; ../../../../src/pic14/gen.c:1328:mov2w_op *{*
                      01304 ;; ***  mov2w  1366  offset=3
                      01305 ;; >>> ../../../../src/pic14/gen.c:1371:mov2w
                      01306 ;;      1097 rIdx = r0x1072 
                      01307 ;; BANKOPT2 BANKSEL dropped; r0x1022 present in same bank as r0x102B
00F4   08??           01308         MOVF    r0x1022,W       ;id=3437,key=016,inCond:1,outCond:14,flow seq=00e,rIdx=r0x1072
                      01309 ;; >>> ../../../../src/pic14/gen.c:2160:genCall
00F5   0??? 0???      01310         PAGESEL ___fssub        ;id=3439,key=017,inCond:0,outCond:0,flow seq=00e
                      01311 ;; >>> ../../../../src/pic14/gen.c:2165:genCall
                      01312 ;; BANKOPT3 drop assumptions: PCI with label or call found
00F7   2???           01313         CALL    ___fssub        ;id=3441,key=018,inCond:10,outCond:1e,flow seq=00e
                      01314 ;<>Start of new flow, seq=0xf ancestor = 0xe
                      01315 ;  from: 00e ; to: 010 011 
gpasm-1.5.2 #1319 (Aug 29 2019) build/default   30.08.2019  05:22:10        PAGE 26


LOC    OBJECT CODE    LINE  SOURCE TEXT
  VALUE

                      01316 ;; >>> ../../../../src/pic14/gen.c:2173:genCall
00F8   0??? 0???      01317         PAGESEL $       ;id=3443,key=000,inCond:0,outCond:0,flow seq=00f
                      01318 ;;      695 register type nRegs=4
                      01319 ;;; ../../../../src/pic14/gen.c:1892:assignResultValue *{*
                      01320 ;; ***  assignResultValue  1894
                      01321 ;;      line = 1896 result -=-, size=0, left AOP_REG=r0x106F, size=4, right -=-, size=0
                      01322 ;; >>> ../../../../src/pic14/gen.c:1378:movwf
                      01323 ;;      1097 rIdx = r0x1072 
00FA   0??? 0???      01324         BANKSEL r0x1022 ;id=3879,key=001,inCond:0,outCond:0,flow seq=00f
00FC   00??           01325         MOVWF   r0x1022 ;id=3450,key=002,inCond:10,outCond:1,flow seq=00f,rIdx=r0x1072
                      01326 ;; >>> ../../../../src/pic14/gen.c:1408:get_returnvalue
                      01327 ;; ***  popRegFromIdx,1030  , rIdx=0x7f
                      01328 ;; BANKOPT1 BANKSEL dropped; STK00 present in all of r0x1022's banks
00FD   08??           01329         MOVF    STK00,W ;id=3453,key=003,inCond:1,outCond:14,flow seq=00f
                      01330 ;; >>> ../../../../src/pic14/gen.c:1378:movwf
                      01331 ;;      1097 rIdx = r0x1071 
                      01332 ;; BANKOPT2 BANKSEL dropped; r0x1023 present in same bank as r0x1022
00FE   00??           01333         MOVWF   r0x1023 ;id=3456,key=004,inCond:10,outCond:1,flow seq=00f,rIdx=r0x1071
                      01334 ;; >>> ../../../../src/pic14/gen.c:1408:get_returnvalue
                      01335 ;; ***  popRegFromIdx,1030  , rIdx=0x7e
                      01336 ;; BANKOPT1 BANKSEL dropped; STK01 present in all of r0x1022's banks
00FF   08??           01337         MOVF    STK01,W ;id=3459,key=005,inCond:1,outCond:14,flow seq=00f
                      01338 ;; >>> ../../../../src/pic14/gen.c:1378:movwf
                      01339 ;;      1097 rIdx = r0x1070 
                      01340 ;; BANKOPT2 BANKSEL dropped; r0x1024 present in same bank as r0x1022
0100   00??           01341         MOVWF   r0x1024 ;id=3462,key=006,inCond:10,outCond:1,flow seq=00f,rIdx=r0x1070
                      01342 ;; >>> ../../../../src/pic14/gen.c:1408:get_returnvalue
                      01343 ;; ***  popRegFromIdx,1030  , rIdx=0x7d
                      01344 ;; BANKOPT1 BANKSEL dropped; STK02 present in all of r0x1022's banks
0101   08??           01345         MOVF    STK02,W ;id=3465,key=007,inCond:1,outCond:14,flow seq=00f
                      01346 ;; >>> ../../../../src/pic14/gen.c:1378:movwf
                      01347 ;;      1097 rIdx = r0x106F 
                      01348 ;; BANKOPT2 BANKSEL dropped; r0x1025 present in same bank as r0x1022
0102   00??           01349         MOVWF   r0x1025 ;id=3468,key=008,inCond:10,outCond:1,flow seq=00f,rIdx=r0x106F
                      01350 ;;      2188 left AOP_REG
                      01351 ;;; ../../../../src/pic14/gen.c:1830:unsaveRegisters *{*
                      01352 ;; ***  unsaveRegisters  1832
                      01353 ;;; ../../../../src/pic14/gen.c:2308:resultRemat *{*
                      01354 ;;; ../../../../src/pic14/gen.c:7229:genCast *{*
                      01355 ;; ***  genCast  7230
                      01356 ;;      695 register type nRegs=2
                      01357 ;;      695 register type nRegs=1
                      01358 ;;      line = 7238 result AOP_REG=r0x1075, size=1, left -=-, size=0, right AOP_REG=r0x1079, size=2
                      01359 ;; ***  genCast  7362
                      01360 ;; >>> ../../../../src/pic14/gen.c:7386:genCast
                      01361 ;;      1097 rIdx = r0x1079 
                      01362 ;; BANKOPT2 BANKSEL dropped; r0x1030 present in same bank as r0x1022
                      01363 ;       .line   83; "../../../lib/format.c"     putchar_ptr((char)('0' + digit));
0103   08??           01364         MOVF    r0x1030,W       ;id=3482,key=009,inCond:1,outCond:14,flow seq=00f,rIdx=r0x1079
                      01365 ;; >>> ../../../../src/pic14/gen.c:7387:genCast
                      01366 ;;      1097 rIdx = r0x1075 
                      01367 ;; BANKOPT2 BANKSEL dropped; r0x1028 present in same bank as r0x1022
0104   00??           01368         MOVWF   r0x1028 ;id=3485,key=00a,inCond:10,outCond:1,flow seq=00f,rIdx=r0x1075
gpasm-1.5.2 #1319 (Aug 29 2019) build/default   30.08.2019  05:22:10        PAGE 27


LOC    OBJECT CODE    LINE  SOURCE TEXT
  VALUE

                      01369 ;;; ../../../../src/pic14/gen.c:2308:resultRemat *{*
                      01370 ;; ***  genPlus  607
                      01371 ;;; ../../../../src/pic14/genarith.c:608:genPlus *{*
                      01372 ;;      695 register type nRegs=1
                      01373 ;;      695 register type nRegs=1
                      01374 ;;      line = 614 result AOP_REG=r0x1079, size=1, left AOP_REG=r0x1075, size=1, right AOP_LIT=0x30, siz
                            e=1
                      01375 ;;; ../../../../src/pic14/genarith.c:138:genPlusIncr *{*
                      01376 ;; ***  genPlusIncr  140
                      01377 ;;      result AOP_REG, left AOP_REG, right AOP_LIT
                      01378 ;;      genPlusIncr  152
                      01379 ;;      adding lit to something. size 1
                      01380 ;;; ../../../../src/pic14/genarith.c:265:genAddLit *{*
                      01381 ;; ***  genAddLit  266
                      01382 ;;  left and result aren't same genAddLit  510
                      01383 ;; >>> ../../../../src/pic14/genarith.c:530:genAddLit
0105   3030           01384         MOVLW   0x30    ;id=3501,key=00b,inCond:400,outCond:10,flow seq=00f
                      01385 ;; >>> ../../../../src/pic14/genarith.c:531:genAddLit
                      01386 ;;      1097 rIdx = r0x1075 
                      01387 ;; BANKOPT2 BANKSEL dropped; r0x1028 present in same bank as r0x1022
0106   07??           01388         ADDWF   r0x1028,W       ;id=3504,key=00c,inCond:11,outCond:1e,flow seq=00f,rIdx=r0x1075
                      01389 ;;; ../../../../src/pic14/genarith.c:249:emitMOVWF *{*
                      01390 ;; >>> ../../../../src/pic14/genarith.c:253:emitMOVWF
                      01391 ;;      1097 rIdx = r0x1079 
                      01392 ;; BANKOPT2 BANKSEL dropped; r0x1030 present in same bank as r0x1022
0107   00??           01393         MOVWF   r0x1030 ;id=3666,key=00d,inCond:10,outCond:1,flow seq=00f,rIdx=r0x1079
                      01394 ;; BANKOPT2 BANKSEL dropped; r0x1028 present in same bank as r0x1022
0108   00??           01395         MOVWF   r0x1028 ;id=3523,key=00e,inCond:10,outCond:1,flow seq=00f,rIdx=r0x1075
                      01396 ;;; ../../../../src/pic14/gen.c:2308:resultRemat *{*
                      01397 ;;; ../../../../src/pic14/gen.c:2308:resultRemat *{*
                      01398 ;;; ../../../../src/pic14/gen.c:2215:genPcall *{*
                      01399 ;; ***  genPcall  2217
                      01400 ;;; ../../../../src/pic14/gen.c:1786:saveRegisters *{*
                      01401 ;; ***  saveRegisters  1788
                      01402 ;; ***  aopForSym 316
                      01403 ;;      328 sym->rname = _putchar_ptr, size = 2
                      01404 ;;      line = 2231 result -=-, size=0, left AOP_DIR=_putchar_ptr, size=2, right -=-, size=0
                      01405 ;; ***  genPcall  2240 - WARNING arg-passing to indirect call not supported
                      01406 ;; >>> ../../../../src/pic14/gen.c:2260:genPcall
                      01407 ;; ***  popGetLabel  key=21, label offset 106
                      01408 ;; BANKOPT3 drop assumptions: PCI with label or call found
0109   2???           01409         CALL    _00227_DS_      ;id=3536,key=00f,inCond:10,outCond:1e,flow seq=00f
                      01410 ;<>Start of new flow, seq=0x10 ancestor = 0xf
                      01411 ;  from: 00f ; to: 012 
                      01412 ;; ***  popGetLabel  key=22, label offset 106
                      01413 ;; >>> ../../../../src/pic14/gen.c:2262:genPcall
010A   0??? 0???      01414         PAGESEL _00228_DS_      ;id=3539,key=000,inCond:0,outCond:0,flow seq=010
                      01415 ;; >>> ../../../../src/pic14/gen.c:2263:genPcall
010C   2???           01416         GOTO    _00228_DS_      ;id=3541,key=001,inCond:0,outCond:0,flow seq=010
                      01417 ;<>Start of new flow, seq=0x11 ancestor = 0xf
                      01418 ;  from: 00f ; to: 012 
                      01419 ;; >>> ../../../../src/pic14/gen.c:2266:genPcall
                      01420 ;;      998
gpasm-1.5.2 #1319 (Aug 29 2019) build/default   30.08.2019  05:22:10        PAGE 28


LOC    OBJECT CODE    LINE  SOURCE TEXT
  VALUE

                      01421 ;;      1016  _putchar_ptr   offset=1
                      01422 ;; BANKOPT3 drop assumptions: PCI with label or call found
010D                  01423 _00227_DS_:
010D   0??? 0???      01424         BANKSEL _putchar_ptr    ;id=3893,key=000,inCond:0,outCond:0,flow seq=011
010F   08??           01425         MOVF    (_putchar_ptr + 1),W    ;id=3546,key=001,inCond:1,outCond:14,flow seq=011
                      01426 ;; >>> ../../../../src/pic14/gen.c:2267:genPcall
0110   1283 1303      01427         BANKSEL PCLATH  ;id=3894,key=002,inCond:0,outCond:0,flow seq=011
0112   008A           01428         MOVWF   PCLATH  ;id=3548,key=003,inCond:10,outCond:1,flow seq=011
                      01429 ;; >>> ../../../../src/pic14/gen.c:2268:genPcall
                      01430 ;;      998
                      01431 ;;      1016  _putchar_ptr   offset=0
0113   0??? 0???      01432         BANKSEL _putchar_ptr    ;id=3895,key=004,inCond:0,outCond:0,flow seq=011
0115   08??           01433         MOVF    _putchar_ptr,W  ;id=3552,key=005,inCond:1,outCond:14,flow seq=011
                      01434 ;; >>> ../../../../src/pic14/gen.c:2269:genPcall
0116   1283 1303      01435         BANKSEL PCL     ;id=3896,key=006,inCond:0,outCond:0,flow seq=011
0118   0082           01436         MOVWF   PCL     ;id=3554,key=007,inCond:10,outCond:1,flow seq=011
                      01437 ;<>Start of new flow, seq=0x12 ancestor = 0x10
                      01438 ;  from: 011 010 ; to: 014 013 
                      01439 ;;; ../../../../src/pic14/gen.c:1830:unsaveRegisters *{*
                      01440 ;; ***  unsaveRegisters  1832
                      01441 ;;; ../../../../src/pic14/gen.c:2308:resultRemat *{*
                      01442 ;;; ../../../../src/pic14/gen.c:6868:genIfx *{*
                      01443 ;; ***  genIfx  6869
                      01444 ;;      695 register type nRegs=2
                      01445 ;; ***  pic14_toBoolean  1500
                      01446 ;; >>> ../../../../src/pic14/gen.c:1512:pic14_toBoolean
                      01447 ;;      1097 rIdx = r0x1073 
                      01448 ;; BANKOPT3 drop assumptions: PCI with label or call found
0119                  01449 _00228_DS_:
                      01450 ;       .line   84; "../../../lib/format.c"     if(m == 0)
0119   0??? 0???      01451         BANKSEL r0x102A ;id=3898,key=000,inCond:0,outCond:0,flow seq=012
011B   08??           01452         MOVF    r0x102A,W       ;id=3566,key=001,inCond:1,outCond:14,flow seq=012,rIdx=r0x1073
                      01453 ;; >>> ../../../../src/pic14/gen.c:1518:pic14_toBoolean
                      01454 ;;      1097 rIdx = r0x1074 
                      01455 ;; BANKOPT2 BANKSEL dropped; r0x1029 present in same bank as r0x102A
011C   04??           01456         IORWF   r0x1029,W       ;id=3569,key=002,inCond:11,outCond:14,flow seq=012,rIdx=r0x1074
                      01457 ;; >>> ../../../../src/pic14/gen.c:6917:genIfx
011D   1D03           01458         BTFSS   STATUS,2        ;id=3571,key=003,inCond:25,outCond:0,flow seq=012
                      01459 ;<>Start of new flow, seq=0x13 ancestor = 0x12
                      01460 ;  from: 012 ; to: 017 
                      01461 ;; >>> ../../../../src/pic14/gen.c:6918:genIfx
                      01462 ;; ***  popGetLabel  key=2, label offset 106
011E   2???           01463         GOTO    _00208_DS_      ;id=3574,key=000,inCond:0,outCond:0,flow seq=013
                      01464 ;<>Start of new flow, seq=0x14 ancestor = 0x12
                      01465 ;  from: 012 ; to: 015 016 
                      01466 ;;; ../../../../src/pic14/gen.c:2308:resultRemat *{*
                      01467 ;;; ../../../../src/pic14/gen.c:2308:resultRemat *{*
                      01468 ;;; ../../../../src/pic14/gen.c:2215:genPcall *{*
                      01469 ;; ***  genPcall  2217
                      01470 ;;; ../../../../src/pic14/gen.c:1786:saveRegisters *{*
                      01471 ;; ***  saveRegisters  1788
                      01472 ;; ***  aopForSym 316
                      01473 ;;      328 sym->rname = _putchar_ptr, size = 2
gpasm-1.5.2 #1319 (Aug 29 2019) build/default   30.08.2019  05:22:10        PAGE 29


LOC    OBJECT CODE    LINE  SOURCE TEXT
  VALUE

                      01474 ;;      line = 2231 result -=-, size=0, left AOP_DIR=_putchar_ptr, size=2, right -=-, size=0
                      01475 ;; ***  genPcall  2240 - WARNING arg-passing to indirect call not supported
                      01476 ;; >>> ../../../../src/pic14/gen.c:2260:genPcall
                      01477 ;; ***  popGetLabel  key=23, label offset 106
                      01478 ;; BANKOPT3 drop assumptions: PCI with label or call found
                      01479 ;       .line   85; "../../../lib/format.c"     putchar_ptr('.');
011F   2???           01480         CALL    _00229_DS_      ;id=3588,key=000,inCond:10,outCond:1e,flow seq=014
                      01481 ;<>Start of new flow, seq=0x15 ancestor = 0x14
                      01482 ;  from: 014 ; to: 017 
                      01483 ;; ***  popGetLabel  key=24, label offset 106
                      01484 ;; >>> ../../../../src/pic14/gen.c:2262:genPcall
0120   0??? 0???      01485         PAGESEL _00208_DS_      ;id=3591,key=000,inCond:0,outCond:0,flow seq=015
                      01486 ;; >>> ../../../../src/pic14/gen.c:2263:genPcall
0122   2???           01487         GOTO    _00208_DS_      ;id=3593,key=001,inCond:0,outCond:0,flow seq=015
                      01488 ;<>Start of new flow, seq=0x16 ancestor = 0x14
                      01489 ;  from: 014 ; to: 017 
                      01490 ;; >>> ../../../../src/pic14/gen.c:2266:genPcall
                      01491 ;;      998
                      01492 ;;      1016  _putchar_ptr   offset=1
                      01493 ;; BANKOPT3 drop assumptions: PCI with label or call found
0123                  01494 _00229_DS_:
0123   0??? 0???      01495         BANKSEL _putchar_ptr    ;id=3902,key=000,inCond:0,outCond:0,flow seq=016
0125   08??           01496         MOVF    (_putchar_ptr + 1),W    ;id=3598,key=001,inCond:1,outCond:14,flow seq=016
                      01497 ;; >>> ../../../../src/pic14/gen.c:2267:genPcall
0126   1283 1303      01498         BANKSEL PCLATH  ;id=3903,key=002,inCond:0,outCond:0,flow seq=016
0128   008A           01499         MOVWF   PCLATH  ;id=3600,key=003,inCond:10,outCond:1,flow seq=016
                      01500 ;; >>> ../../../../src/pic14/gen.c:2268:genPcall
                      01501 ;;      998
                      01502 ;;      1016  _putchar_ptr   offset=0
0129   0??? 0???      01503         BANKSEL _putchar_ptr    ;id=3904,key=004,inCond:0,outCond:0,flow seq=016
012B   08??           01504         MOVF    _putchar_ptr,W  ;id=3604,key=005,inCond:1,outCond:14,flow seq=016
                      01505 ;; >>> ../../../../src/pic14/gen.c:2269:genPcall
012C   1283 1303      01506         BANKSEL PCL     ;id=3905,key=006,inCond:0,outCond:0,flow seq=016
012E   0082           01507         MOVWF   PCL     ;id=3606,key=007,inCond:10,outCond:1,flow seq=016
                      01508 ;<>Start of new flow, seq=0x17 ancestor = 0x13
                      01509 ;  from: 016 015 013 ; to: 019 018 
                      01510 ;;; ../../../../src/pic14/gen.c:1830:unsaveRegisters *{*
                      01511 ;; ***  unsaveRegisters  1832
                      01512 ;;; ../../../../src/pic14/gen.c:2308:resultRemat *{*
                      01513 ;;; ../../../../src/pic14/gen.c:2752:genLabel *{*
                      01514 ;; ***  genLabel  2755
                      01515 ;_00208_DS_:
                      01516 ;;; ../../../../src/pic14/gen.c:2308:resultRemat *{*
                      01517 ;;; ../../../../src/pic14/gen.c:7426:genDjnz *{*
                      01518 ;; ***  genDjnz  7427
                      01519 ;;; ../../../../src/pic14/genarith.c:892:genMinus *{*
                      01520 ;; ***  genMinus  893
                      01521 ;;      695 register type nRegs=2
                      01522 ;;      576
                      01523 ;;      result AOP_REG, left AOP_REG, right AOP_LIT
                      01524 ;;; ../../../../src/pic14/genarith.c:265:genAddLit *{*
                      01525 ;; ***  genAddLit  266
                      01526 ;; hi = ff      genAddLit  379
gpasm-1.5.2 #1319 (Aug 29 2019) build/default   30.08.2019  05:22:10        PAGE 30


LOC    OBJECT CODE    LINE  SOURCE TEXT
  VALUE

                      01527 ;; >>> ../../../../src/pic14/genarith.c:391:genAddLit
                      01528 ;; BANKOPT3 drop assumptions: PCI with label or call found
012F                  01529 _00208_DS_:
                      01530 ;       .line   86; "../../../lib/format.c"     m--;
012F   30FF           01531         MOVLW   0xff    ;id=3628,key=000,inCond:400,outCond:10,flow seq=017
                      01532 ;; >>> ../../../../src/pic14/genarith.c:392:genAddLit
                      01533 ;;      1097 rIdx = r0x1073 
0130   0??? 0???      01534         BANKSEL r0x102A ;id=3907,key=001,inCond:0,outCond:0,flow seq=017
0132   07??           01535         ADDWF   r0x102A,F       ;id=3631,key=002,inCond:11,outCond:f,flow seq=017,rIdx=r0x1073
                      01536 ;; >>> ../../../../src/pic14/genarith.c:393:genAddLit
0133   1C03           01537         BTFSS   STATUS,0        ;id=3633,key=003,inCond:23,outCond:0,flow seq=017
                      01538 ;<>Start of new flow, seq=0x18 ancestor = 0x17
                      01539 ;  from: 017 ; to: 019 
                      01540 ;; >>> ../../../../src/pic14/genarith.c:394:genAddLit
                      01541 ;;      1097 rIdx = r0x1074 
                      01542 ;; BANKOPT2 BANKSEL dropped; r0x1029 present in same bank as r0x102A
0134   03??           01543         DECF    r0x1029,F       ;id=3636,key=000,inCond:1,outCond:5,flow seq=018,rIdx=r0x1074
                      01544 ;<>Start of new flow, seq=0x19 ancestor = 0x17
                      01545 ;  from: 018 017 ; to: 004 
                      01546 ;; ***  addSign  857
                      01547 ;;; ../../../../src/pic14/genarith.c:858:addSign *{*
                      01548 ;;; ../../../../src/pic14/gen.c:2308:resultRemat *{*
                      01549 ;;; ../../../../src/pic14/gen.c:2770:genGoto *{*
                      01550 ;; >>> ../../../../src/pic14/gen.c:2772:genGoto
                      01551 ;; ***  popGetLabel  key=3, label offset 106
0135   2???           01552         GOTO    _00209_DS_      ;id=3643,key=000,inCond:0,outCond:0,flow seq=019
                      01553 ;<>Start of new flow, seq=0x1a ancestor = 0x6
                      01554 ;  from: 006 ; to: 
                      01555 ;goto   _00209_DS_
                      01556 ;;; ../../../../src/pic14/gen.c:2308:resultRemat *{*
                      01557 ;;; ../../../../src/pic14/gen.c:2752:genLabel *{*
                      01558 ;; ***  genLabel  2755
                      01559 ;_00212_DS_:
                      01560 ;;; ../../../../src/pic14/gen.c:2308:resultRemat *{*
                      01561 ;;; ../../../../src/pic14/gen.c:2520:genEndFunction *{*
                      01562 ;; ***  genEndFunction  2522
                      01563 ;return
                      01564 ;; BANKOPT3 drop assumptions: PCI with label or call found
0136                  01565 _00212_DS_:
                      01566 ;       .line   88; "../../../lib/format.c"     }
0136   0008           01567         RETURN          ;id=3655,key=000,inCond:10,outCond:e,flow seq=01a
                      01568 ;<>Start of new flow, seq=0x1b
                      01569 ;  from: ; to: 
                      01570 ; exit point of _format_double
                      01571 ;; ***  aopForSym 316
                      01572 ;;      342 size = 2, name =_format_putchar
                      01573 
                      01574 ;***
                      01575 ;  pBlock Stats: dbName = C
                      01576 ;***
                      01577 ;has an exit
                      01578 ;functions called:
                      01579 ;   _log10f
gpasm-1.5.2 #1319 (Aug 29 2019) build/default   30.08.2019  05:22:10        PAGE 31


LOC    OBJECT CODE    LINE  SOURCE TEXT
  VALUE

                      01580 ;   ___fs2sint
                      01581 ;   ___fslt
                      01582 ;   ___sint2fs
                      01583 ;   _powf
                      01584 ;   ___fsdiv
                      01585 ;   _floorf
                      01586 ;   ___fs2uchar
                      01587 ;   ___uchar2fs
                      01588 ;   ___fsmul
                      01589 ;   ___fssub
                      01590 ;   _00199_DS_
                      01591 ;   _00201_DS_
                      01592 ;   _log10f
                      01593 ;   ___fs2sint
                      01594 ;   ___fslt
                      01595 ;   ___sint2fs
                      01596 ;   _powf
                      01597 ;   ___fsdiv
                      01598 ;   _floorf
                      01599 ;   ___fs2uchar
                      01600 ;   ___uchar2fs
                      01601 ;   ___fsmul
                      01602 ;   ___fssub
                      01603 ;   _00199_DS_
                      01604 ;   _00201_DS_
                      01605 ;22 compiler assigned registers:
                      01606 ;   r0x1033
                      01607 ;   STK00
                      01608 ;   r0x1034
                      01609 ;   STK01
                      01610 ;   r0x1035
                      01611 ;   STK02
                      01612 ;   r0x1036
                      01613 ;   r0x1037
                      01614 ;   r0x1038
                      01615 ;   r0x1039
                      01616 ;   r0x103A
                      01617 ;   STK06
                      01618 ;   STK05
                      01619 ;   STK04
                      01620 ;   STK03
                      01621 ;   r0x103B
                      01622 ;   r0x103C
                      01623 ;   r0x103D
                      01624 ;   r0x103E
                      01625 ;   r0x103F
                      01626 ;   r0x1040
                      01627 ;   r0x1041
                      01628 ;; Starting pCode block
                      01629 ;<>Start of new flow, seq=0x1c ancestor = 0x1c
                      01630 ;  from: ; to: 01d 
                      01631 ;;; ../../../../src/pic14/gen.c:2308:resultRemat *{*
                      01632 ;;; ../../../../src/pic14/gen.c:2752:genLabel *{*
gpasm-1.5.2 #1319 (Aug 29 2019) build/default   30.08.2019  05:22:10        PAGE 32


LOC    OBJECT CODE    LINE  SOURCE TEXT
  VALUE

                      01633 ;; ***  genLabel  2755
                      01634 ;;; ../../../../src/pic14/gen.c:2308:resultRemat *{*
                      01635 ;;; ../../../../src/pic14/gen.c:2332:genFunction *{*
                      01636 ;; ***  genFunction  2334 curr label offset=68previous max_key=6 
                      01637 ;;      -----------------------------------------
                      01638 ;;       function format_float
                      01639 ;;      -----------------------------------------
                      01640 ;_format_float:
                      01641 S_format__format_float  code
0000                  01642 _format_float:
                      01643 ; 2 exit points
                      01644 ;;; ../../../../src/pic14/gen.c:2308:resultRemat *{*
                      01645 ;;; ../../../../src/pic14/gen.c:7467:genReceive *{*
                      01646 ;; ***  genReceive  7468
                      01647 ;;      695 register type nRegs=4
                      01648 ;;; ../../../../src/pic14/gen.c:1892:assignResultValue *{*
                      01649 ;; ***  assignResultValue  1894
                      01650 ;;      line = 1896 result -=-, size=0, left AOP_REG=r0x1060, size=4, right -=-, size=0
                      01651 ;; >>> ../../../../src/pic14/gen.c:1378:movwf
                      01652 ;;      1097 rIdx = r0x1063 
                      01653 ;       .line   56; "../../../lib/format.c"     format_float(/*putchar_fn* putchar_ptr,*/ float num) {
0000   0??? 0???      01654         BANKSEL r0x1033 ;id=3910,key=000,inCond:0,outCond:0,flow seq=01c
0002   00??           01655         MOVWF   r0x1033 ;id=1342,key=001,inCond:10,outCond:1,flow seq=01c,rIdx=r0x1063
                      01656 ;; >>> ../../../../src/pic14/gen.c:1408:get_returnvalue
                      01657 ;; ***  popRegFromIdx,1030  , rIdx=0x7f
                      01658 ;; BANKOPT1 BANKSEL dropped; STK00 present in all of r0x1033's banks
0003   08??           01659         MOVF    STK00,W ;id=1345,key=002,inCond:1,outCond:14,flow seq=01c
                      01660 ;; >>> ../../../../src/pic14/gen.c:1378:movwf
                      01661 ;;      1097 rIdx = r0x1062 
                      01662 ;; BANKOPT2 BANKSEL dropped; r0x1034 present in same bank as r0x1033
0004   00??           01663         MOVWF   r0x1034 ;id=1348,key=003,inCond:10,outCond:1,flow seq=01c,rIdx=r0x1062
                      01664 ;; >>> ../../../../src/pic14/gen.c:1408:get_returnvalue
                      01665 ;; ***  popRegFromIdx,1030  , rIdx=0x7e
                      01666 ;; BANKOPT1 BANKSEL dropped; STK01 present in all of r0x1033's banks
0005   08??           01667         MOVF    STK01,W ;id=1351,key=004,inCond:1,outCond:14,flow seq=01c
                      01668 ;; >>> ../../../../src/pic14/gen.c:1378:movwf
                      01669 ;;      1097 rIdx = r0x1061 
                      01670 ;; BANKOPT2 BANKSEL dropped; r0x1035 present in same bank as r0x1033
0006   00??           01671         MOVWF   r0x1035 ;id=1354,key=005,inCond:10,outCond:1,flow seq=01c,rIdx=r0x1061
                      01672 ;; >>> ../../../../src/pic14/gen.c:1408:get_returnvalue
                      01673 ;; ***  popRegFromIdx,1030  , rIdx=0x7d
                      01674 ;; BANKOPT1 BANKSEL dropped; STK02 present in all of r0x1033's banks
0007   08??           01675         MOVF    STK02,W ;id=1357,key=006,inCond:1,outCond:14,flow seq=01c
                      01676 ;; >>> ../../../../src/pic14/gen.c:1378:movwf
                      01677 ;;      1097 rIdx = r0x1060 
                      01678 ;; BANKOPT2 BANKSEL dropped; r0x1036 present in same bank as r0x1033
                      01679 ;       .line   57; "../../../lib/format.c"     short m = (int)log10(num);
0008   00??           01680         MOVWF   r0x1036 ;id=3667,key=007,inCond:10,outCond:1,flow seq=01c,rIdx=r0x1060
                      01681 ;; BANKOPT1 BANKSEL dropped; STK02 present in all of r0x1033's banks
0009   00??           01682         MOVWF   STK02   ;id=1379,key=008,inCond:10,outCond:1,flow seq=01c
                      01683 ;;; ../../../../src/pic14/gen.c:1328:mov2w_op *{*
                      01684 ;; ***  mov2w  1366  offset=1
                      01685 ;; >>> ../../../../src/pic14/gen.c:1371:mov2w
gpasm-1.5.2 #1319 (Aug 29 2019) build/default   30.08.2019  05:22:10        PAGE 33


LOC    OBJECT CODE    LINE  SOURCE TEXT
  VALUE

                      01686 ;;      1097 rIdx = r0x1061 
                      01687 ;; BANKOPT2 BANKSEL dropped; r0x1035 present in same bank as r0x1033
000A   08??           01688         MOVF    r0x1035,W       ;id=1384,key=009,inCond:1,outCond:14,flow seq=01c,rIdx=r0x1061
                      01689 ;;      2120 left AOP_REG
                      01690 ;; >>> ../../../../src/pic14/gen.c:2128:genCall
                      01691 ;; ***  popRegFromIdx,1030  , rIdx=0x7e
                      01692 ;; BANKOPT1 BANKSEL dropped; STK01 present in all of r0x1033's banks
000B   00??           01693         MOVWF   STK01   ;id=1388,key=00a,inCond:10,outCond:1,flow seq=01c
                      01694 ;;; ../../../../src/pic14/gen.c:1328:mov2w_op *{*
                      01695 ;; ***  mov2w  1366  offset=2
                      01696 ;; >>> ../../../../src/pic14/gen.c:1371:mov2w
                      01697 ;;      1097 rIdx = r0x1062 
                      01698 ;; BANKOPT2 BANKSEL dropped; r0x1034 present in same bank as r0x1033
000C   08??           01699         MOVF    r0x1034,W       ;id=1393,key=00b,inCond:1,outCond:14,flow seq=01c,rIdx=r0x1062
                      01700 ;;      2120 left AOP_REG
                      01701 ;; >>> ../../../../src/pic14/gen.c:2128:genCall
                      01702 ;; ***  popRegFromIdx,1030  , rIdx=0x7f
                      01703 ;; BANKOPT1 BANKSEL dropped; STK00 present in all of r0x1033's banks
000D   00??           01704         MOVWF   STK00   ;id=1397,key=00c,inCond:10,outCond:1,flow seq=01c
                      01705 ;;; ../../../../src/pic14/gen.c:1328:mov2w_op *{*
                      01706 ;; ***  mov2w  1366  offset=3
                      01707 ;; >>> ../../../../src/pic14/gen.c:1371:mov2w
                      01708 ;;      1097 rIdx = r0x1063 
                      01709 ;; BANKOPT2 BANKSEL dropped; r0x1033 present in same bank as r0x1033
000E   08??           01710         MOVF    r0x1033,W       ;id=1402,key=00d,inCond:1,outCond:14,flow seq=01c,rIdx=r0x1063
                      01711 ;; >>> ../../../../src/pic14/gen.c:2160:genCall
000F   0??? 0???      01712         PAGESEL _log10f ;id=1404,key=00e,inCond:0,outCond:0,flow seq=01c
                      01713 ;; >>> ../../../../src/pic14/gen.c:2165:genCall
                      01714 ;; BANKOPT3 drop assumptions: PCI with label or call found
0011   2???           01715         CALL    _log10f ;id=1406,key=00f,inCond:10,outCond:1e,flow seq=01c
                      01716 ;<>Start of new flow, seq=0x1d ancestor = 0x1c
                      01717 ;  from: 01c ; to: 01e 
                      01718 ;; >>> ../../../../src/pic14/gen.c:2173:genCall
0012   0??? 0???      01719         PAGESEL $       ;id=1408,key=000,inCond:0,outCond:0,flow seq=01d
                      01720 ;;      695 register type nRegs=4
                      01721 ;;; ../../../../src/pic14/gen.c:1892:assignResultValue *{*
                      01722 ;; ***  assignResultValue  1894
                      01723 ;;      line = 1896 result -=-, size=0, left AOP_REG=r0x1064, size=4, right -=-, size=0
                      01724 ;; >>> ../../../../src/pic14/gen.c:1378:movwf
                      01725 ;;      1097 rIdx = r0x1067 
0014   0??? 0???      01726         BANKSEL r0x1037 ;id=3924,key=001,inCond:0,outCond:0,flow seq=01d
0016   00??           01727         MOVWF   r0x1037 ;id=1415,key=002,inCond:10,outCond:1,flow seq=01d,rIdx=r0x1067
                      01728 ;; >>> ../../../../src/pic14/gen.c:1408:get_returnvalue
                      01729 ;; ***  popRegFromIdx,1030  , rIdx=0x7f
                      01730 ;; BANKOPT1 BANKSEL dropped; STK00 present in all of r0x1037's banks
0017   08??           01731         MOVF    STK00,W ;id=1418,key=003,inCond:1,outCond:14,flow seq=01d
                      01732 ;; >>> ../../../../src/pic14/gen.c:1378:movwf
                      01733 ;;      1097 rIdx = r0x1066 
                      01734 ;; BANKOPT2 BANKSEL dropped; r0x1038 present in same bank as r0x1037
0018   00??           01735         MOVWF   r0x1038 ;id=1421,key=004,inCond:10,outCond:1,flow seq=01d,rIdx=r0x1066
                      01736 ;; >>> ../../../../src/pic14/gen.c:1408:get_returnvalue
                      01737 ;; ***  popRegFromIdx,1030  , rIdx=0x7e
                      01738 ;; BANKOPT1 BANKSEL dropped; STK01 present in all of r0x1037's banks
gpasm-1.5.2 #1319 (Aug 29 2019) build/default   30.08.2019  05:22:10        PAGE 34


LOC    OBJECT CODE    LINE  SOURCE TEXT
  VALUE

0019   08??           01739         MOVF    STK01,W ;id=1424,key=005,inCond:1,outCond:14,flow seq=01d
                      01740 ;; >>> ../../../../src/pic14/gen.c:1378:movwf
                      01741 ;;      1097 rIdx = r0x1065 
                      01742 ;; BANKOPT2 BANKSEL dropped; r0x1039 present in same bank as r0x1037
001A   00??           01743         MOVWF   r0x1039 ;id=1427,key=006,inCond:10,outCond:1,flow seq=01d,rIdx=r0x1065
                      01744 ;; >>> ../../../../src/pic14/gen.c:1408:get_returnvalue
                      01745 ;; ***  popRegFromIdx,1030  , rIdx=0x7d
                      01746 ;; BANKOPT1 BANKSEL dropped; STK02 present in all of r0x1037's banks
001B   08??           01747         MOVF    STK02,W ;id=1430,key=007,inCond:1,outCond:14,flow seq=01d
                      01748 ;; >>> ../../../../src/pic14/gen.c:1378:movwf
                      01749 ;;      1097 rIdx = r0x1064 
                      01750 ;; BANKOPT2 BANKSEL dropped; r0x103A present in same bank as r0x1037
001C   00??           01751         MOVWF   r0x103A ;id=3668,key=008,inCond:10,outCond:1,flow seq=01d,rIdx=r0x1064
                      01752 ;; BANKOPT1 BANKSEL dropped; STK02 present in all of r0x1037's banks
001D   00??           01753         MOVWF   STK02   ;id=1454,key=009,inCond:10,outCond:1,flow seq=01d
                      01754 ;;; ../../../../src/pic14/gen.c:1328:mov2w_op *{*
                      01755 ;; ***  mov2w  1366  offset=1
                      01756 ;; >>> ../../../../src/pic14/gen.c:1371:mov2w
                      01757 ;;      1097 rIdx = r0x1065 
                      01758 ;; BANKOPT2 BANKSEL dropped; r0x1039 present in same bank as r0x1037
001E   08??           01759         MOVF    r0x1039,W       ;id=1459,key=00a,inCond:1,outCond:14,flow seq=01d,rIdx=r0x1065
                      01760 ;;      2120 left AOP_REG
                      01761 ;; >>> ../../../../src/pic14/gen.c:2128:genCall
                      01762 ;; ***  popRegFromIdx,1030  , rIdx=0x7e
                      01763 ;; BANKOPT1 BANKSEL dropped; STK01 present in all of r0x1037's banks
001F   00??           01764         MOVWF   STK01   ;id=1463,key=00b,inCond:10,outCond:1,flow seq=01d
                      01765 ;;; ../../../../src/pic14/gen.c:1328:mov2w_op *{*
                      01766 ;; ***  mov2w  1366  offset=2
                      01767 ;; >>> ../../../../src/pic14/gen.c:1371:mov2w
                      01768 ;;      1097 rIdx = r0x1066 
                      01769 ;; BANKOPT2 BANKSEL dropped; r0x1038 present in same bank as r0x1037
0020   08??           01770         MOVF    r0x1038,W       ;id=1468,key=00c,inCond:1,outCond:14,flow seq=01d,rIdx=r0x1066
                      01771 ;;      2120 left AOP_REG
                      01772 ;; >>> ../../../../src/pic14/gen.c:2128:genCall
                      01773 ;; ***  popRegFromIdx,1030  , rIdx=0x7f
                      01774 ;; BANKOPT1 BANKSEL dropped; STK00 present in all of r0x1037's banks
0021   00??           01775         MOVWF   STK00   ;id=1472,key=00d,inCond:10,outCond:1,flow seq=01d
                      01776 ;;; ../../../../src/pic14/gen.c:1328:mov2w_op *{*
                      01777 ;; ***  mov2w  1366  offset=3
                      01778 ;; >>> ../../../../src/pic14/gen.c:1371:mov2w
                      01779 ;;      1097 rIdx = r0x1067 
                      01780 ;; BANKOPT2 BANKSEL dropped; r0x1037 present in same bank as r0x1037
0022   08??           01781         MOVF    r0x1037,W       ;id=1477,key=00e,inCond:1,outCond:14,flow seq=01d,rIdx=r0x1067
                      01782 ;; >>> ../../../../src/pic14/gen.c:2160:genCall
0023   0??? 0???      01783         PAGESEL ___fs2sint      ;id=1479,key=00f,inCond:0,outCond:0,flow seq=01d
                      01784 ;; >>> ../../../../src/pic14/gen.c:2165:genCall
                      01785 ;; BANKOPT3 drop assumptions: PCI with label or call found
0025   2???           01786         CALL    ___fs2sint      ;id=1481,key=010,inCond:10,outCond:1e,flow seq=01d
                      01787 ;<>Start of new flow, seq=0x1e ancestor = 0x1d
                      01788 ;  from: 01d ; to: 01f 
                      01789 ;; >>> ../../../../src/pic14/gen.c:2173:genCall
0026   0??? 0???      01790         PAGESEL $       ;id=1483,key=000,inCond:0,outCond:0,flow seq=01e
                      01791 ;;      695 register type nRegs=2
gpasm-1.5.2 #1319 (Aug 29 2019) build/default   30.08.2019  05:22:10        PAGE 35


LOC    OBJECT CODE    LINE  SOURCE TEXT
  VALUE

                      01792 ;;; ../../../../src/pic14/gen.c:1892:assignResultValue *{*
                      01793 ;; ***  assignResultValue  1894
                      01794 ;;      line = 1896 result -=-, size=0, left AOP_REG=r0x1064, size=2, right -=-, size=0
                      01795 ;; >>> ../../../../src/pic14/gen.c:1378:movwf
                      01796 ;;      1097 rIdx = r0x1065 
0028   0??? 0???      01797         BANKSEL r0x1039 ;id=3938,key=001,inCond:0,outCond:0,flow seq=01e
002A   00??           01798         MOVWF   r0x1039 ;id=1490,key=002,inCond:10,outCond:1,flow seq=01e,rIdx=r0x1065
                      01799 ;; >>> ../../../../src/pic14/gen.c:1408:get_returnvalue
                      01800 ;; ***  popRegFromIdx,1030  , rIdx=0x7f
                      01801 ;; BANKOPT1 BANKSEL dropped; STK00 present in all of r0x1039's banks
002B   08??           01802         MOVF    STK00,W ;id=1493,key=003,inCond:1,outCond:14,flow seq=01e
                      01803 ;; >>> ../../../../src/pic14/gen.c:1378:movwf
                      01804 ;;      1097 rIdx = r0x1064 
                      01805 ;; BANKOPT2 BANKSEL dropped; r0x103A present in same bank as r0x1039
002C   00??           01806         MOVWF   r0x103A ;id=1496,key=004,inCond:10,outCond:1,flow seq=01e,rIdx=r0x1064
                      01807 ;<>Start of new flow, seq=0x1f ancestor = 0x1e
                      01808 ;  from: 034 01e ; to: 020 
                      01809 ;;      2188 left AOP_REG
                      01810 ;;; ../../../../src/pic14/gen.c:1830:unsaveRegisters *{*
                      01811 ;; ***  unsaveRegisters  1832
                      01812 ;;; ../../../../src/pic14/gen.c:2308:resultRemat *{*
                      01813 ;;; ../../../../src/pic14/gen.c:2752:genLabel *{*
                      01814 ;; ***  genLabel  2755
                      01815 ;_00181_DS_:
                      01816 ;;; ../../../../src/pic14/gen.c:2308:resultRemat *{*
                      01817 ;;; ../../../../src/pic14/gen.c:2308:resultRemat *{*
                      01818 ;;; ../../../../src/pic14/gen.c:2308:resultRemat *{*
                      01819 ;;; ../../../../src/pic14/gen.c:2071:genCall *{*
                      01820 ;; ***  genCall  2073
                      01821 ;;; ../../../../src/pic14/gen.c:1786:saveRegisters *{*
                      01822 ;; ***  saveRegisters  1788
                      01823 ;;      695 register type nRegs=4
                      01824 ;;      695 register type nRegs=4
                      01825 ;;      2120 left AOP_REG
                      01826 ;;; ../../../../src/pic14/gen.c:1328:mov2w_op *{*
                      01827 ;; ***  mov2w  1366  offset=0
                      01828 ;; >>> ../../../../src/pic14/gen.c:1371:mov2w
                      01829 ;;      1097 rIdx = r0x1060 
                      01830 ;; BANKOPT3 drop assumptions: PCI with label or call found
002D                  01831 _00181_DS_:
                      01832 ;       .line   61; "../../../lib/format.c"     while(num > 0 + FLT_EPSILON) {
002D   0??? 0???      01833         BANKSEL r0x1036 ;id=3942,key=000,inCond:0,outCond:0,flow seq=01f
002F   08??           01834         MOVF    r0x1036,W       ;id=1520,key=001,inCond:1,outCond:14,flow seq=01f,rIdx=r0x1060
                      01835 ;;      2120 left AOP_REG
                      01836 ;; >>> ../../../../src/pic14/gen.c:2128:genCall
                      01837 ;; ***  popRegFromIdx,1030  , rIdx=0x79
                      01838 ;; BANKOPT1 BANKSEL dropped; STK06 present in all of r0x1036's banks
0030   00??           01839         MOVWF   STK06   ;id=1524,key=002,inCond:10,outCond:1,flow seq=01f
                      01840 ;;; ../../../../src/pic14/gen.c:1328:mov2w_op *{*
                      01841 ;; ***  mov2w  1366  offset=1
                      01842 ;; >>> ../../../../src/pic14/gen.c:1371:mov2w
                      01843 ;;      1097 rIdx = r0x1061 
                      01844 ;; BANKOPT2 BANKSEL dropped; r0x1035 present in same bank as r0x1036
gpasm-1.5.2 #1319 (Aug 29 2019) build/default   30.08.2019  05:22:10        PAGE 36


LOC    OBJECT CODE    LINE  SOURCE TEXT
  VALUE

0031   08??           01845         MOVF    r0x1035,W       ;id=1529,key=003,inCond:1,outCond:14,flow seq=01f,rIdx=r0x1061
                      01846 ;;      2120 left AOP_REG
                      01847 ;; >>> ../../../../src/pic14/gen.c:2128:genCall
                      01848 ;; ***  popRegFromIdx,1030  , rIdx=0x7a
                      01849 ;; BANKOPT1 BANKSEL dropped; STK05 present in all of r0x1036's banks
0032   00??           01850         MOVWF   STK05   ;id=1533,key=004,inCond:10,outCond:1,flow seq=01f
                      01851 ;;; ../../../../src/pic14/gen.c:1328:mov2w_op *{*
                      01852 ;; ***  mov2w  1366  offset=2
                      01853 ;; >>> ../../../../src/pic14/gen.c:1371:mov2w
                      01854 ;;      1097 rIdx = r0x1062 
                      01855 ;; BANKOPT2 BANKSEL dropped; r0x1034 present in same bank as r0x1036
0033   08??           01856         MOVF    r0x1034,W       ;id=1538,key=005,inCond:1,outCond:14,flow seq=01f,rIdx=r0x1062
                      01857 ;;      2120 left AOP_REG
                      01858 ;; >>> ../../../../src/pic14/gen.c:2128:genCall
                      01859 ;; ***  popRegFromIdx,1030  , rIdx=0x7b
                      01860 ;; BANKOPT1 BANKSEL dropped; STK04 present in all of r0x1036's banks
0034   00??           01861         MOVWF   STK04   ;id=1542,key=006,inCond:10,outCond:1,flow seq=01f
                      01862 ;;; ../../../../src/pic14/gen.c:1328:mov2w_op *{*
                      01863 ;; ***  mov2w  1366  offset=3
                      01864 ;; >>> ../../../../src/pic14/gen.c:1371:mov2w
                      01865 ;;      1097 rIdx = r0x1063 
                      01866 ;; BANKOPT2 BANKSEL dropped; r0x1033 present in same bank as r0x1036
0035   08??           01867         MOVF    r0x1033,W       ;id=1547,key=007,inCond:1,outCond:14,flow seq=01f,rIdx=r0x1063
                      01868 ;;      2120 left AOP_LIT
                      01869 ;; >>> ../../../../src/pic14/gen.c:2128:genCall
                      01870 ;; ***  popRegFromIdx,1030  , rIdx=0x7c
                      01871 ;; BANKOPT1 BANKSEL dropped; STK03 present in all of r0x1036's banks
0036   00??           01872         MOVWF   STK03   ;id=1551,key=008,inCond:10,outCond:1,flow seq=01f
                      01873 ;;; ../../../../src/pic14/gen.c:1328:mov2w_op *{*
                      01874 ;; >>> ../../../../src/pic14/gen.c:1346:mov2w_op
0037   3000           01875         MOVLW   0x00    ;id=1554,key=009,inCond:400,outCond:10,flow seq=01f
                      01876 ;;      2120 left AOP_LIT
                      01877 ;; >>> ../../../../src/pic14/gen.c:2128:genCall
                      01878 ;; ***  popRegFromIdx,1030  , rIdx=0x7d
                      01879 ;; BANKOPT1 BANKSEL dropped; STK02 present in all of r0x1036's banks
0038   00??           01880         MOVWF   STK02   ;id=1558,key=00a,inCond:10,outCond:1,flow seq=01f
                      01881 ;;; ../../../../src/pic14/gen.c:1328:mov2w_op *{*
                      01882 ;; >>> ../../../../src/pic14/gen.c:1346:mov2w_op
0039   3000           01883         MOVLW   0x00    ;id=1561,key=00b,inCond:400,outCond:10,flow seq=01f
                      01884 ;;      2120 left AOP_LIT
                      01885 ;; >>> ../../../../src/pic14/gen.c:2128:genCall
                      01886 ;; ***  popRegFromIdx,1030  , rIdx=0x7e
                      01887 ;; BANKOPT1 BANKSEL dropped; STK01 present in all of r0x1036's banks
003A   00??           01888         MOVWF   STK01   ;id=1565,key=00c,inCond:10,outCond:1,flow seq=01f
                      01889 ;;; ../../../../src/pic14/gen.c:1328:mov2w_op *{*
                      01890 ;; >>> ../../../../src/pic14/gen.c:1346:mov2w_op
003B   3000           01891         MOVLW   0x00    ;id=1568,key=00d,inCond:400,outCond:10,flow seq=01f
                      01892 ;;      2120 left AOP_LIT
                      01893 ;; >>> ../../../../src/pic14/gen.c:2128:genCall
                      01894 ;; ***  popRegFromIdx,1030  , rIdx=0x7f
                      01895 ;; BANKOPT1 BANKSEL dropped; STK00 present in all of r0x1036's banks
003C   00??           01896         MOVWF   STK00   ;id=1572,key=00e,inCond:10,outCond:1,flow seq=01f
                      01897 ;;; ../../../../src/pic14/gen.c:1328:mov2w_op *{*
gpasm-1.5.2 #1319 (Aug 29 2019) build/default   30.08.2019  05:22:10        PAGE 37


LOC    OBJECT CODE    LINE  SOURCE TEXT
  VALUE

                      01898 ;; >>> ../../../../src/pic14/gen.c:1346:mov2w_op
003D   3034           01899         MOVLW   0x34    ;id=1575,key=00f,inCond:400,outCond:10,flow seq=01f
                      01900 ;; >>> ../../../../src/pic14/gen.c:2160:genCall
003E   0??? 0???      01901         PAGESEL ___fslt ;id=1577,key=010,inCond:0,outCond:0,flow seq=01f
                      01902 ;; >>> ../../../../src/pic14/gen.c:2165:genCall
                      01903 ;; BANKOPT3 drop assumptions: PCI with label or call found
0040   2???           01904         CALL    ___fslt ;id=1579,key=011,inCond:10,outCond:1e,flow seq=01f
                      01905 ;<>Start of new flow, seq=0x20 ancestor = 0x1f
                      01906 ;  from: 01f ; to: 022 021 
                      01907 ;; >>> ../../../../src/pic14/gen.c:2173:genCall
0041   0??? 0???      01908         PAGESEL $       ;id=1581,key=000,inCond:0,outCond:0,flow seq=020
                      01909 ;;      695 register type nRegs=1
                      01910 ;;; ../../../../src/pic14/gen.c:1892:assignResultValue *{*
                      01911 ;; ***  assignResultValue  1894
                      01912 ;;      line = 1896 result -=-, size=0, left AOP_REG=r0x1066, size=1, right -=-, size=0
                      01913 ;; >>> ../../../../src/pic14/gen.c:1378:movwf
                      01914 ;;      1097 rIdx = r0x1066 
0043   0??? 0???      01915         BANKSEL r0x1038 ;id=3954,key=001,inCond:0,outCond:0,flow seq=020
0045   00??           01916         MOVWF   r0x1038 ;id=1588,key=002,inCond:10,outCond:1,flow seq=020,rIdx=r0x1066
                      01917 ;;      2188 left AOP_REG
                      01918 ;;; ../../../../src/pic14/gen.c:1830:unsaveRegisters *{*
                      01919 ;; ***  unsaveRegisters  1832
                      01920 ;;; ../../../../src/pic14/gen.c:2308:resultRemat *{*
                      01921 ;;; ../../../../src/pic14/gen.c:6868:genIfx *{*
                      01922 ;; ***  genIfx  6869
                      01923 ;;      695 register type nRegs=1
                      01924 ;; ***  pic14_toBoolean  1500
                      01925 ;; >>> ../../../../src/pic14/gen.c:1507:pic14_toBoolean
                      01926 ;; BANKOPT2 BANKSEL dropped; r0x1038 present in same bank as r0x1038
0046   08??           01927         MOVF    r0x1038,W       ;id=3669,key=003,inCond:1,outCond:14,flow seq=020,rIdx=r0x1066
0047   1903           01928         BTFSC   STATUS,2        ;id=1603,key=004,inCond:25,outCond:0,flow seq=020
                      01929 ;<>Start of new flow, seq=0x21 ancestor = 0x20
                      01930 ;  from: 020 ; to: 035 
                      01931 ;; >>> ../../../../src/pic14/gen.c:6923:genIfx
                      01932 ;; ***  popGetLabel  key=6, label offset 78
0048   2???           01933         GOTO    _00184_DS_      ;id=1606,key=000,inCond:0,outCond:0,flow seq=021
                      01934 ;<>Start of new flow, seq=0x22 ancestor = 0x20
                      01935 ;  from: 020 ; to: 023 
                      01936 ;;; ../../../../src/pic14/gen.c:2308:resultRemat *{*
                      01937 ;;; ../../../../src/pic14/gen.c:2308:resultRemat *{*
                      01938 ;;; ../../../../src/pic14/gen.c:2071:genCall *{*
                      01939 ;; ***  genCall  2073
                      01940 ;;; ../../../../src/pic14/gen.c:1786:saveRegisters *{*
                      01941 ;; ***  saveRegisters  1788
                      01942 ;;      695 register type nRegs=2
                      01943 ;;      695 register type nRegs=2
                      01944 ;;      2120 left AOP_REG
                      01945 ;;; ../../../../src/pic14/gen.c:1328:mov2w_op *{*
                      01946 ;; ***  mov2w  1366  offset=0
                      01947 ;; >>> ../../../../src/pic14/gen.c:1371:mov2w
                      01948 ;;      1097 rIdx = r0x1064 
                      01949 ;; BANKOPT2 BANKSEL dropped; r0x103A present in same bank as r0x1038
                      01950 ;       .line   62; "../../../lib/format.c"     float weight = pow(10.0l, m);
gpasm-1.5.2 #1319 (Aug 29 2019) build/default   30.08.2019  05:22:10        PAGE 38


LOC    OBJECT CODE    LINE  SOURCE TEXT
  VALUE

0049   08??           01951         MOVF    r0x103A,W       ;id=1621,key=000,inCond:1,outCond:14,flow seq=022,rIdx=r0x1064
                      01952 ;;      2120 left AOP_REG
                      01953 ;; >>> ../../../../src/pic14/gen.c:2128:genCall
                      01954 ;; ***  popRegFromIdx,1030  , rIdx=0x7f
                      01955 ;; BANKOPT1 BANKSEL dropped; STK00 present in all of r0x1038's banks
004A   00??           01956         MOVWF   STK00   ;id=1625,key=001,inCond:10,outCond:1,flow seq=022
                      01957 ;;; ../../../../src/pic14/gen.c:1328:mov2w_op *{*
                      01958 ;; ***  mov2w  1366  offset=1
                      01959 ;; >>> ../../../../src/pic14/gen.c:1371:mov2w
                      01960 ;;      1097 rIdx = r0x1065 
                      01961 ;; BANKOPT2 BANKSEL dropped; r0x1039 present in same bank as r0x1038
004B   08??           01962         MOVF    r0x1039,W       ;id=1630,key=002,inCond:1,outCond:14,flow seq=022,rIdx=r0x1065
                      01963 ;; >>> ../../../../src/pic14/gen.c:2160:genCall
004C   0??? 0???      01964         PAGESEL ___sint2fs      ;id=1632,key=003,inCond:0,outCond:0,flow seq=022
                      01965 ;; >>> ../../../../src/pic14/gen.c:2165:genCall
                      01966 ;; BANKOPT3 drop assumptions: PCI with label or call found
004E   2???           01967         CALL    ___sint2fs      ;id=1634,key=004,inCond:10,outCond:1e,flow seq=022
                      01968 ;<>Start of new flow, seq=0x23 ancestor = 0x22
                      01969 ;  from: 022 ; to: 024 
                      01970 ;; >>> ../../../../src/pic14/gen.c:2173:genCall
004F   0??? 0???      01971         PAGESEL $       ;id=1636,key=000,inCond:0,outCond:0,flow seq=023
                      01972 ;;      695 register type nRegs=4
                      01973 ;;; ../../../../src/pic14/gen.c:1892:assignResultValue *{*
                      01974 ;; ***  assignResultValue  1894
                      01975 ;;      line = 1896 result -=-, size=0, left AOP_REG=r0x1066, size=4, right -=-, size=0
                      01976 ;; >>> ../../../../src/pic14/gen.c:1378:movwf
                      01977 ;;      1097 rIdx = r0x1069 
0051   0??? 0???      01978         BANKSEL r0x103B ;id=3960,key=001,inCond:0,outCond:0,flow seq=023
0053   00??           01979         MOVWF   r0x103B ;id=1643,key=002,inCond:10,outCond:1,flow seq=023,rIdx=r0x1069
                      01980 ;; >>> ../../../../src/pic14/gen.c:1408:get_returnvalue
                      01981 ;; ***  popRegFromIdx,1030  , rIdx=0x7f
                      01982 ;; BANKOPT1 BANKSEL dropped; STK00 present in all of r0x103B's banks
0054   08??           01983         MOVF    STK00,W ;id=1646,key=003,inCond:1,outCond:14,flow seq=023
                      01984 ;; >>> ../../../../src/pic14/gen.c:1378:movwf
                      01985 ;;      1097 rIdx = r0x1068 
                      01986 ;; BANKOPT2 BANKSEL dropped; r0x103C present in same bank as r0x103B
0055   00??           01987         MOVWF   r0x103C ;id=1649,key=004,inCond:10,outCond:1,flow seq=023,rIdx=r0x1068
                      01988 ;; >>> ../../../../src/pic14/gen.c:1408:get_returnvalue
                      01989 ;; ***  popRegFromIdx,1030  , rIdx=0x7e
                      01990 ;; BANKOPT1 BANKSEL dropped; STK01 present in all of r0x103B's banks
0056   08??           01991         MOVF    STK01,W ;id=1652,key=005,inCond:1,outCond:14,flow seq=023
                      01992 ;; >>> ../../../../src/pic14/gen.c:1378:movwf
                      01993 ;;      1097 rIdx = r0x1067 
                      01994 ;; BANKOPT2 BANKSEL dropped; r0x1037 present in same bank as r0x103B
0057   00??           01995         MOVWF   r0x1037 ;id=1655,key=006,inCond:10,outCond:1,flow seq=023,rIdx=r0x1067
                      01996 ;; >>> ../../../../src/pic14/gen.c:1408:get_returnvalue
                      01997 ;; ***  popRegFromIdx,1030  , rIdx=0x7d
                      01998 ;; BANKOPT1 BANKSEL dropped; STK02 present in all of r0x103B's banks
0058   08??           01999         MOVF    STK02,W ;id=1658,key=007,inCond:1,outCond:14,flow seq=023
                      02000 ;; >>> ../../../../src/pic14/gen.c:1378:movwf
                      02001 ;;      1097 rIdx = r0x1066 
                      02002 ;; BANKOPT2 BANKSEL dropped; r0x1038 present in same bank as r0x103B
0059   00??           02003         MOVWF   r0x1038 ;id=3670,key=008,inCond:10,outCond:1,flow seq=023,rIdx=r0x1066
gpasm-1.5.2 #1319 (Aug 29 2019) build/default   30.08.2019  05:22:10        PAGE 39


LOC    OBJECT CODE    LINE  SOURCE TEXT
  VALUE

                      02004 ;; BANKOPT1 BANKSEL dropped; STK06 present in all of r0x103B's banks
005A   00??           02005         MOVWF   STK06   ;id=1683,key=009,inCond:10,outCond:1,flow seq=023
                      02006 ;;; ../../../../src/pic14/gen.c:1328:mov2w_op *{*
                      02007 ;; ***  mov2w  1366  offset=1
                      02008 ;; >>> ../../../../src/pic14/gen.c:1371:mov2w
                      02009 ;;      1097 rIdx = r0x1067 
                      02010 ;; BANKOPT2 BANKSEL dropped; r0x1037 present in same bank as r0x103B
005B   08??           02011         MOVF    r0x1037,W       ;id=1688,key=00a,inCond:1,outCond:14,flow seq=023,rIdx=r0x1067
                      02012 ;;      2120 left AOP_REG
                      02013 ;; >>> ../../../../src/pic14/gen.c:2128:genCall
                      02014 ;; ***  popRegFromIdx,1030  , rIdx=0x7a
                      02015 ;; BANKOPT1 BANKSEL dropped; STK05 present in all of r0x103B's banks
005C   00??           02016         MOVWF   STK05   ;id=1692,key=00b,inCond:10,outCond:1,flow seq=023
                      02017 ;;; ../../../../src/pic14/gen.c:1328:mov2w_op *{*
                      02018 ;; ***  mov2w  1366  offset=2
                      02019 ;; >>> ../../../../src/pic14/gen.c:1371:mov2w
                      02020 ;;      1097 rIdx = r0x1068 
                      02021 ;; BANKOPT2 BANKSEL dropped; r0x103C present in same bank as r0x103B
005D   08??           02022         MOVF    r0x103C,W       ;id=1697,key=00c,inCond:1,outCond:14,flow seq=023,rIdx=r0x1068
                      02023 ;;      2120 left AOP_REG
                      02024 ;; >>> ../../../../src/pic14/gen.c:2128:genCall
                      02025 ;; ***  popRegFromIdx,1030  , rIdx=0x7b
                      02026 ;; BANKOPT1 BANKSEL dropped; STK04 present in all of r0x103B's banks
005E   00??           02027         MOVWF   STK04   ;id=1701,key=00d,inCond:10,outCond:1,flow seq=023
                      02028 ;;; ../../../../src/pic14/gen.c:1328:mov2w_op *{*
                      02029 ;; ***  mov2w  1366  offset=3
                      02030 ;; >>> ../../../../src/pic14/gen.c:1371:mov2w
                      02031 ;;      1097 rIdx = r0x1069 
                      02032 ;; BANKOPT2 BANKSEL dropped; r0x103B present in same bank as r0x103B
005F   08??           02033         MOVF    r0x103B,W       ;id=1706,key=00e,inCond:1,outCond:14,flow seq=023,rIdx=r0x1069
                      02034 ;;      2120 left AOP_LIT
                      02035 ;; >>> ../../../../src/pic14/gen.c:2128:genCall
                      02036 ;; ***  popRegFromIdx,1030  , rIdx=0x7c
                      02037 ;; BANKOPT1 BANKSEL dropped; STK03 present in all of r0x103B's banks
0060   00??           02038         MOVWF   STK03   ;id=1710,key=00f,inCond:10,outCond:1,flow seq=023
                      02039 ;;; ../../../../src/pic14/gen.c:1328:mov2w_op *{*
                      02040 ;; >>> ../../../../src/pic14/gen.c:1346:mov2w_op
0061   3000           02041         MOVLW   0x00    ;id=1713,key=010,inCond:400,outCond:10,flow seq=023
                      02042 ;;      2120 left AOP_LIT
                      02043 ;; >>> ../../../../src/pic14/gen.c:2128:genCall
                      02044 ;; ***  popRegFromIdx,1030  , rIdx=0x7d
                      02045 ;; BANKOPT1 BANKSEL dropped; STK02 present in all of r0x103B's banks
0062   00??           02046         MOVWF   STK02   ;id=1717,key=011,inCond:10,outCond:1,flow seq=023
                      02047 ;;; ../../../../src/pic14/gen.c:1328:mov2w_op *{*
                      02048 ;; >>> ../../../../src/pic14/gen.c:1346:mov2w_op
0063   3000           02049         MOVLW   0x00    ;id=1720,key=012,inCond:400,outCond:10,flow seq=023
                      02050 ;;      2120 left AOP_LIT
                      02051 ;; >>> ../../../../src/pic14/gen.c:2128:genCall
                      02052 ;; ***  popRegFromIdx,1030  , rIdx=0x7e
                      02053 ;; BANKOPT1 BANKSEL dropped; STK01 present in all of r0x103B's banks
0064   00??           02054         MOVWF   STK01   ;id=1724,key=013,inCond:10,outCond:1,flow seq=023
                      02055 ;;; ../../../../src/pic14/gen.c:1328:mov2w_op *{*
                      02056 ;; >>> ../../../../src/pic14/gen.c:1346:mov2w_op
gpasm-1.5.2 #1319 (Aug 29 2019) build/default   30.08.2019  05:22:10        PAGE 40


LOC    OBJECT CODE    LINE  SOURCE TEXT
  VALUE

0065   3020           02057         MOVLW   0x20    ;id=1727,key=014,inCond:400,outCond:10,flow seq=023
                      02058 ;;      2120 left AOP_LIT
                      02059 ;; >>> ../../../../src/pic14/gen.c:2128:genCall
                      02060 ;; ***  popRegFromIdx,1030  , rIdx=0x7f
                      02061 ;; BANKOPT1 BANKSEL dropped; STK00 present in all of r0x103B's banks
0066   00??           02062         MOVWF   STK00   ;id=1731,key=015,inCond:10,outCond:1,flow seq=023
                      02063 ;;; ../../../../src/pic14/gen.c:1328:mov2w_op *{*
                      02064 ;; >>> ../../../../src/pic14/gen.c:1346:mov2w_op
0067   3041           02065         MOVLW   0x41    ;id=1734,key=016,inCond:400,outCond:10,flow seq=023
                      02066 ;; >>> ../../../../src/pic14/gen.c:2160:genCall
0068   0??? 0???      02067         PAGESEL _powf   ;id=1736,key=017,inCond:0,outCond:0,flow seq=023
                      02068 ;; >>> ../../../../src/pic14/gen.c:2165:genCall
                      02069 ;; BANKOPT3 drop assumptions: PCI with label or call found
006A   2???           02070         CALL    _powf   ;id=1738,key=018,inCond:10,outCond:1e,flow seq=023
                      02071 ;<>Start of new flow, seq=0x24 ancestor = 0x23
                      02072 ;  from: 023 ; to: 025 
                      02073 ;; >>> ../../../../src/pic14/gen.c:2173:genCall
006B   0??? 0???      02074         PAGESEL $       ;id=1740,key=000,inCond:0,outCond:0,flow seq=024
                      02075 ;;      695 register type nRegs=4
                      02076 ;;; ../../../../src/pic14/gen.c:1892:assignResultValue *{*
                      02077 ;; ***  assignResultValue  1894
                      02078 ;;      line = 1896 result -=-, size=0, left AOP_REG=r0x1066, size=4, right -=-, size=0
                      02079 ;; >>> ../../../../src/pic14/gen.c:1378:movwf
                      02080 ;;      1097 rIdx = r0x1069 
006D   0??? 0???      02081         BANKSEL r0x103B ;id=3978,key=001,inCond:0,outCond:0,flow seq=024
006F   00??           02082         MOVWF   r0x103B ;id=1747,key=002,inCond:10,outCond:1,flow seq=024,rIdx=r0x1069
                      02083 ;; >>> ../../../../src/pic14/gen.c:1408:get_returnvalue
                      02084 ;; ***  popRegFromIdx,1030  , rIdx=0x7f
                      02085 ;; BANKOPT1 BANKSEL dropped; STK00 present in all of r0x103B's banks
0070   08??           02086         MOVF    STK00,W ;id=1750,key=003,inCond:1,outCond:14,flow seq=024
                      02087 ;; >>> ../../../../src/pic14/gen.c:1378:movwf
                      02088 ;;      1097 rIdx = r0x1068 
                      02089 ;; BANKOPT2 BANKSEL dropped; r0x103C present in same bank as r0x103B
0071   00??           02090         MOVWF   r0x103C ;id=1753,key=004,inCond:10,outCond:1,flow seq=024,rIdx=r0x1068
                      02091 ;; >>> ../../../../src/pic14/gen.c:1408:get_returnvalue
                      02092 ;; ***  popRegFromIdx,1030  , rIdx=0x7e
                      02093 ;; BANKOPT1 BANKSEL dropped; STK01 present in all of r0x103B's banks
0072   08??           02094         MOVF    STK01,W ;id=1756,key=005,inCond:1,outCond:14,flow seq=024
                      02095 ;; >>> ../../../../src/pic14/gen.c:1378:movwf
                      02096 ;;      1097 rIdx = r0x1067 
                      02097 ;; BANKOPT2 BANKSEL dropped; r0x1037 present in same bank as r0x103B
0073   00??           02098         MOVWF   r0x1037 ;id=1759,key=006,inCond:10,outCond:1,flow seq=024,rIdx=r0x1067
                      02099 ;; >>> ../../../../src/pic14/gen.c:1408:get_returnvalue
                      02100 ;; ***  popRegFromIdx,1030  , rIdx=0x7d
                      02101 ;; BANKOPT1 BANKSEL dropped; STK02 present in all of r0x103B's banks
0074   08??           02102         MOVF    STK02,W ;id=1762,key=007,inCond:1,outCond:14,flow seq=024
                      02103 ;; >>> ../../../../src/pic14/gen.c:1378:movwf
                      02104 ;;      1097 rIdx = r0x1066 
                      02105 ;; BANKOPT2 BANKSEL dropped; r0x1038 present in same bank as r0x103B
                      02106 ;       .line   63; "../../../lib/format.c"     digit = (char)floor(num / weight);
0075   00??           02107         MOVWF   r0x1038 ;id=3671,key=008,inCond:10,outCond:1,flow seq=024,rIdx=r0x1066
                      02108 ;; BANKOPT1 BANKSEL dropped; STK06 present in all of r0x103B's banks
0076   00??           02109         MOVWF   STK06   ;id=1789,key=009,inCond:10,outCond:1,flow seq=024
gpasm-1.5.2 #1319 (Aug 29 2019) build/default   30.08.2019  05:22:10        PAGE 41


LOC    OBJECT CODE    LINE  SOURCE TEXT
  VALUE

                      02110 ;;; ../../../../src/pic14/gen.c:1328:mov2w_op *{*
                      02111 ;; ***  mov2w  1366  offset=1
                      02112 ;; >>> ../../../../src/pic14/gen.c:1371:mov2w
                      02113 ;;      1097 rIdx = r0x1067 
                      02114 ;; BANKOPT2 BANKSEL dropped; r0x1037 present in same bank as r0x103B
0077   08??           02115         MOVF    r0x1037,W       ;id=1794,key=00a,inCond:1,outCond:14,flow seq=024,rIdx=r0x1067
                      02116 ;;      2120 left AOP_REG
                      02117 ;; >>> ../../../../src/pic14/gen.c:2128:genCall
                      02118 ;; ***  popRegFromIdx,1030  , rIdx=0x7a
                      02119 ;; BANKOPT1 BANKSEL dropped; STK05 present in all of r0x103B's banks
0078   00??           02120         MOVWF   STK05   ;id=1798,key=00b,inCond:10,outCond:1,flow seq=024
                      02121 ;;; ../../../../src/pic14/gen.c:1328:mov2w_op *{*
                      02122 ;; ***  mov2w  1366  offset=2
                      02123 ;; >>> ../../../../src/pic14/gen.c:1371:mov2w
                      02124 ;;      1097 rIdx = r0x1068 
                      02125 ;; BANKOPT2 BANKSEL dropped; r0x103C present in same bank as r0x103B
0079   08??           02126         MOVF    r0x103C,W       ;id=1803,key=00c,inCond:1,outCond:14,flow seq=024,rIdx=r0x1068
                      02127 ;;      2120 left AOP_REG
                      02128 ;; >>> ../../../../src/pic14/gen.c:2128:genCall
                      02129 ;; ***  popRegFromIdx,1030  , rIdx=0x7b
                      02130 ;; BANKOPT1 BANKSEL dropped; STK04 present in all of r0x103B's banks
007A   00??           02131         MOVWF   STK04   ;id=1807,key=00d,inCond:10,outCond:1,flow seq=024
                      02132 ;;; ../../../../src/pic14/gen.c:1328:mov2w_op *{*
                      02133 ;; ***  mov2w  1366  offset=3
                      02134 ;; >>> ../../../../src/pic14/gen.c:1371:mov2w
                      02135 ;;      1097 rIdx = r0x1069 
                      02136 ;; BANKOPT2 BANKSEL dropped; r0x103B present in same bank as r0x103B
007B   08??           02137         MOVF    r0x103B,W       ;id=1812,key=00e,inCond:1,outCond:14,flow seq=024,rIdx=r0x1069
                      02138 ;;      695 register type nRegs=4
                      02139 ;;      2120 left AOP_REG
                      02140 ;; >>> ../../../../src/pic14/gen.c:2128:genCall
                      02141 ;; ***  popRegFromIdx,1030  , rIdx=0x7c
                      02142 ;; BANKOPT1 BANKSEL dropped; STK03 present in all of r0x103B's banks
007C   00??           02143         MOVWF   STK03   ;id=1817,key=00f,inCond:10,outCond:1,flow seq=024
                      02144 ;;; ../../../../src/pic14/gen.c:1328:mov2w_op *{*
                      02145 ;; ***  mov2w  1366  offset=0
                      02146 ;; >>> ../../../../src/pic14/gen.c:1371:mov2w
                      02147 ;;      1097 rIdx = r0x1060 
                      02148 ;; BANKOPT2 BANKSEL dropped; r0x1036 present in same bank as r0x103B
007D   08??           02149         MOVF    r0x1036,W       ;id=1822,key=010,inCond:1,outCond:14,flow seq=024,rIdx=r0x1060
                      02150 ;;      2120 left AOP_REG
                      02151 ;; >>> ../../../../src/pic14/gen.c:2128:genCall
                      02152 ;; ***  popRegFromIdx,1030  , rIdx=0x7d
                      02153 ;; BANKOPT1 BANKSEL dropped; STK02 present in all of r0x103B's banks
007E   00??           02154         MOVWF   STK02   ;id=1826,key=011,inCond:10,outCond:1,flow seq=024
                      02155 ;;; ../../../../src/pic14/gen.c:1328:mov2w_op *{*
                      02156 ;; ***  mov2w  1366  offset=1
                      02157 ;; >>> ../../../../src/pic14/gen.c:1371:mov2w
                      02158 ;;      1097 rIdx = r0x1061 
                      02159 ;; BANKOPT2 BANKSEL dropped; r0x1035 present in same bank as r0x103B
007F   08??           02160         MOVF    r0x1035,W       ;id=1831,key=012,inCond:1,outCond:14,flow seq=024,rIdx=r0x1061
                      02161 ;;      2120 left AOP_REG
                      02162 ;; >>> ../../../../src/pic14/gen.c:2128:genCall
gpasm-1.5.2 #1319 (Aug 29 2019) build/default   30.08.2019  05:22:10        PAGE 42


LOC    OBJECT CODE    LINE  SOURCE TEXT
  VALUE

                      02163 ;; ***  popRegFromIdx,1030  , rIdx=0x7e
                      02164 ;; BANKOPT1 BANKSEL dropped; STK01 present in all of r0x103B's banks
0080   00??           02165         MOVWF   STK01   ;id=1835,key=013,inCond:10,outCond:1,flow seq=024
                      02166 ;;; ../../../../src/pic14/gen.c:1328:mov2w_op *{*
                      02167 ;; ***  mov2w  1366  offset=2
                      02168 ;; >>> ../../../../src/pic14/gen.c:1371:mov2w
                      02169 ;;      1097 rIdx = r0x1062 
                      02170 ;; BANKOPT2 BANKSEL dropped; r0x1034 present in same bank as r0x103B
0081   08??           02171         MOVF    r0x1034,W       ;id=1840,key=014,inCond:1,outCond:14,flow seq=024,rIdx=r0x1062
                      02172 ;;      2120 left AOP_REG
                      02173 ;; >>> ../../../../src/pic14/gen.c:2128:genCall
                      02174 ;; ***  popRegFromIdx,1030  , rIdx=0x7f
                      02175 ;; BANKOPT1 BANKSEL dropped; STK00 present in all of r0x103B's banks
0082   00??           02176         MOVWF   STK00   ;id=1844,key=015,inCond:10,outCond:1,flow seq=024
                      02177 ;;; ../../../../src/pic14/gen.c:1328:mov2w_op *{*
                      02178 ;; ***  mov2w  1366  offset=3
                      02179 ;; >>> ../../../../src/pic14/gen.c:1371:mov2w
                      02180 ;;      1097 rIdx = r0x1063 
                      02181 ;; BANKOPT2 BANKSEL dropped; r0x1033 present in same bank as r0x103B
0083   08??           02182         MOVF    r0x1033,W       ;id=1849,key=016,inCond:1,outCond:14,flow seq=024,rIdx=r0x1063
                      02183 ;; >>> ../../../../src/pic14/gen.c:2160:genCall
0084   0??? 0???      02184         PAGESEL ___fsdiv        ;id=1851,key=017,inCond:0,outCond:0,flow seq=024
                      02185 ;; >>> ../../../../src/pic14/gen.c:2165:genCall
                      02186 ;; BANKOPT3 drop assumptions: PCI with label or call found
0086   2???           02187         CALL    ___fsdiv        ;id=1853,key=018,inCond:10,outCond:1e,flow seq=024
                      02188 ;<>Start of new flow, seq=0x25 ancestor = 0x24
                      02189 ;  from: 024 ; to: 026 
                      02190 ;; >>> ../../../../src/pic14/gen.c:2173:genCall
0087   0??? 0???      02191         PAGESEL $       ;id=1855,key=000,inCond:0,outCond:0,flow seq=025
                      02192 ;;      695 register type nRegs=4
                      02193 ;;; ../../../../src/pic14/gen.c:1892:assignResultValue *{*
                      02194 ;; ***  assignResultValue  1894
                      02195 ;;      line = 1896 result -=-, size=0, left AOP_REG=r0x106A, size=4, right -=-, size=0
                      02196 ;; >>> ../../../../src/pic14/gen.c:1378:movwf
                      02197 ;;      1097 rIdx = r0x106D 
0089   0??? 0???      02198         BANKSEL r0x103D ;id=4000,key=001,inCond:0,outCond:0,flow seq=025
008B   00??           02199         MOVWF   r0x103D ;id=1862,key=002,inCond:10,outCond:1,flow seq=025,rIdx=r0x106D
                      02200 ;; >>> ../../../../src/pic14/gen.c:1408:get_returnvalue
                      02201 ;; ***  popRegFromIdx,1030  , rIdx=0x7f
                      02202 ;; BANKOPT1 BANKSEL dropped; STK00 present in all of r0x103D's banks
008C   08??           02203         MOVF    STK00,W ;id=1865,key=003,inCond:1,outCond:14,flow seq=025
                      02204 ;; >>> ../../../../src/pic14/gen.c:1378:movwf
                      02205 ;;      1097 rIdx = r0x106C 
                      02206 ;; BANKOPT2 BANKSEL dropped; r0x103E present in same bank as r0x103D
008D   00??           02207         MOVWF   r0x103E ;id=1868,key=004,inCond:10,outCond:1,flow seq=025,rIdx=r0x106C
                      02208 ;; >>> ../../../../src/pic14/gen.c:1408:get_returnvalue
                      02209 ;; ***  popRegFromIdx,1030  , rIdx=0x7e
                      02210 ;; BANKOPT1 BANKSEL dropped; STK01 present in all of r0x103D's banks
008E   08??           02211         MOVF    STK01,W ;id=1871,key=005,inCond:1,outCond:14,flow seq=025
                      02212 ;; >>> ../../../../src/pic14/gen.c:1378:movwf
                      02213 ;;      1097 rIdx = r0x106B 
                      02214 ;; BANKOPT2 BANKSEL dropped; r0x103F present in same bank as r0x103D
008F   00??           02215         MOVWF   r0x103F ;id=1874,key=006,inCond:10,outCond:1,flow seq=025,rIdx=r0x106B
gpasm-1.5.2 #1319 (Aug 29 2019) build/default   30.08.2019  05:22:10        PAGE 43


LOC    OBJECT CODE    LINE  SOURCE TEXT
  VALUE

                      02216 ;; >>> ../../../../src/pic14/gen.c:1408:get_returnvalue
                      02217 ;; ***  popRegFromIdx,1030  , rIdx=0x7d
                      02218 ;; BANKOPT1 BANKSEL dropped; STK02 present in all of r0x103D's banks
0090   08??           02219         MOVF    STK02,W ;id=1877,key=007,inCond:1,outCond:14,flow seq=025
                      02220 ;; >>> ../../../../src/pic14/gen.c:1378:movwf
                      02221 ;;      1097 rIdx = r0x106A 
                      02222 ;; BANKOPT2 BANKSEL dropped; r0x1040 present in same bank as r0x103D
0091   00??           02223         MOVWF   r0x1040 ;id=3672,key=008,inCond:10,outCond:1,flow seq=025,rIdx=r0x106A
                      02224 ;; BANKOPT1 BANKSEL dropped; STK02 present in all of r0x103D's banks
0092   00??           02225         MOVWF   STK02   ;id=1901,key=009,inCond:10,outCond:1,flow seq=025
                      02226 ;;; ../../../../src/pic14/gen.c:1328:mov2w_op *{*
                      02227 ;; ***  mov2w  1366  offset=1
                      02228 ;; >>> ../../../../src/pic14/gen.c:1371:mov2w
                      02229 ;;      1097 rIdx = r0x106B 
                      02230 ;; BANKOPT2 BANKSEL dropped; r0x103F present in same bank as r0x103D
0093   08??           02231         MOVF    r0x103F,W       ;id=1906,key=00a,inCond:1,outCond:14,flow seq=025,rIdx=r0x106B
                      02232 ;;      2120 left AOP_REG
                      02233 ;; >>> ../../../../src/pic14/gen.c:2128:genCall
                      02234 ;; ***  popRegFromIdx,1030  , rIdx=0x7e
                      02235 ;; BANKOPT1 BANKSEL dropped; STK01 present in all of r0x103D's banks
0094   00??           02236         MOVWF   STK01   ;id=1910,key=00b,inCond:10,outCond:1,flow seq=025
                      02237 ;;; ../../../../src/pic14/gen.c:1328:mov2w_op *{*
                      02238 ;; ***  mov2w  1366  offset=2
                      02239 ;; >>> ../../../../src/pic14/gen.c:1371:mov2w
                      02240 ;;      1097 rIdx = r0x106C 
                      02241 ;; BANKOPT2 BANKSEL dropped; r0x103E present in same bank as r0x103D
0095   08??           02242         MOVF    r0x103E,W       ;id=1915,key=00c,inCond:1,outCond:14,flow seq=025,rIdx=r0x106C
                      02243 ;;      2120 left AOP_REG
                      02244 ;; >>> ../../../../src/pic14/gen.c:2128:genCall
                      02245 ;; ***  popRegFromIdx,1030  , rIdx=0x7f
                      02246 ;; BANKOPT1 BANKSEL dropped; STK00 present in all of r0x103D's banks
0096   00??           02247         MOVWF   STK00   ;id=1919,key=00d,inCond:10,outCond:1,flow seq=025
                      02248 ;;; ../../../../src/pic14/gen.c:1328:mov2w_op *{*
                      02249 ;; ***  mov2w  1366  offset=3
                      02250 ;; >>> ../../../../src/pic14/gen.c:1371:mov2w
                      02251 ;;      1097 rIdx = r0x106D 
                      02252 ;; BANKOPT2 BANKSEL dropped; r0x103D present in same bank as r0x103D
0097   08??           02253         MOVF    r0x103D,W       ;id=1924,key=00e,inCond:1,outCond:14,flow seq=025,rIdx=r0x106D
                      02254 ;; >>> ../../../../src/pic14/gen.c:2160:genCall
0098   0??? 0???      02255         PAGESEL _floorf ;id=1926,key=00f,inCond:0,outCond:0,flow seq=025
                      02256 ;; >>> ../../../../src/pic14/gen.c:2165:genCall
                      02257 ;; BANKOPT3 drop assumptions: PCI with label or call found
009A   2???           02258         CALL    _floorf ;id=1928,key=010,inCond:10,outCond:1e,flow seq=025
                      02259 ;<>Start of new flow, seq=0x26 ancestor = 0x25
                      02260 ;  from: 025 ; to: 027 
                      02261 ;; >>> ../../../../src/pic14/gen.c:2173:genCall
009B   0??? 0???      02262         PAGESEL $       ;id=1930,key=000,inCond:0,outCond:0,flow seq=026
                      02263 ;;      695 register type nRegs=4
                      02264 ;;; ../../../../src/pic14/gen.c:1892:assignResultValue *{*
                      02265 ;; ***  assignResultValue  1894
                      02266 ;;      line = 1896 result -=-, size=0, left AOP_REG=r0x106A, size=4, right -=-, size=0
                      02267 ;; >>> ../../../../src/pic14/gen.c:1378:movwf
                      02268 ;;      1097 rIdx = r0x106D 
gpasm-1.5.2 #1319 (Aug 29 2019) build/default   30.08.2019  05:22:10        PAGE 44


LOC    OBJECT CODE    LINE  SOURCE TEXT
  VALUE

009D   0??? 0???      02269         BANKSEL r0x103D ;id=4014,key=001,inCond:0,outCond:0,flow seq=026
009F   00??           02270         MOVWF   r0x103D ;id=1937,key=002,inCond:10,outCond:1,flow seq=026,rIdx=r0x106D
                      02271 ;; >>> ../../../../src/pic14/gen.c:1408:get_returnvalue
                      02272 ;; ***  popRegFromIdx,1030  , rIdx=0x7f
                      02273 ;; BANKOPT1 BANKSEL dropped; STK00 present in all of r0x103D's banks
00A0   08??           02274         MOVF    STK00,W ;id=1940,key=003,inCond:1,outCond:14,flow seq=026
                      02275 ;; >>> ../../../../src/pic14/gen.c:1378:movwf
                      02276 ;;      1097 rIdx = r0x106C 
                      02277 ;; BANKOPT2 BANKSEL dropped; r0x103E present in same bank as r0x103D
00A1   00??           02278         MOVWF   r0x103E ;id=1943,key=004,inCond:10,outCond:1,flow seq=026,rIdx=r0x106C
                      02279 ;; >>> ../../../../src/pic14/gen.c:1408:get_returnvalue
                      02280 ;; ***  popRegFromIdx,1030  , rIdx=0x7e
                      02281 ;; BANKOPT1 BANKSEL dropped; STK01 present in all of r0x103D's banks
00A2   08??           02282         MOVF    STK01,W ;id=1946,key=005,inCond:1,outCond:14,flow seq=026
                      02283 ;; >>> ../../../../src/pic14/gen.c:1378:movwf
                      02284 ;;      1097 rIdx = r0x106B 
                      02285 ;; BANKOPT2 BANKSEL dropped; r0x103F present in same bank as r0x103D
00A3   00??           02286         MOVWF   r0x103F ;id=1949,key=006,inCond:10,outCond:1,flow seq=026,rIdx=r0x106B
                      02287 ;; >>> ../../../../src/pic14/gen.c:1408:get_returnvalue
                      02288 ;; ***  popRegFromIdx,1030  , rIdx=0x7d
                      02289 ;; BANKOPT1 BANKSEL dropped; STK02 present in all of r0x103D's banks
00A4   08??           02290         MOVF    STK02,W ;id=1952,key=007,inCond:1,outCond:14,flow seq=026
                      02291 ;; >>> ../../../../src/pic14/gen.c:1378:movwf
                      02292 ;;      1097 rIdx = r0x106A 
                      02293 ;; BANKOPT2 BANKSEL dropped; r0x1040 present in same bank as r0x103D
00A5   00??           02294         MOVWF   r0x1040 ;id=3673,key=008,inCond:10,outCond:1,flow seq=026,rIdx=r0x106A
                      02295 ;; BANKOPT1 BANKSEL dropped; STK02 present in all of r0x103D's banks
00A6   00??           02296         MOVWF   STK02   ;id=1976,key=009,inCond:10,outCond:1,flow seq=026
                      02297 ;;; ../../../../src/pic14/gen.c:1328:mov2w_op *{*
                      02298 ;; ***  mov2w  1366  offset=1
                      02299 ;; >>> ../../../../src/pic14/gen.c:1371:mov2w
                      02300 ;;      1097 rIdx = r0x106B 
                      02301 ;; BANKOPT2 BANKSEL dropped; r0x103F present in same bank as r0x103D
00A7   08??           02302         MOVF    r0x103F,W       ;id=1981,key=00a,inCond:1,outCond:14,flow seq=026,rIdx=r0x106B
                      02303 ;;      2120 left AOP_REG
                      02304 ;; >>> ../../../../src/pic14/gen.c:2128:genCall
                      02305 ;; ***  popRegFromIdx,1030  , rIdx=0x7e
                      02306 ;; BANKOPT1 BANKSEL dropped; STK01 present in all of r0x103D's banks
00A8   00??           02307         MOVWF   STK01   ;id=1985,key=00b,inCond:10,outCond:1,flow seq=026
                      02308 ;;; ../../../../src/pic14/gen.c:1328:mov2w_op *{*
                      02309 ;; ***  mov2w  1366  offset=2
                      02310 ;; >>> ../../../../src/pic14/gen.c:1371:mov2w
                      02311 ;;      1097 rIdx = r0x106C 
                      02312 ;; BANKOPT2 BANKSEL dropped; r0x103E present in same bank as r0x103D
00A9   08??           02313         MOVF    r0x103E,W       ;id=1990,key=00c,inCond:1,outCond:14,flow seq=026,rIdx=r0x106C
                      02314 ;;      2120 left AOP_REG
                      02315 ;; >>> ../../../../src/pic14/gen.c:2128:genCall
                      02316 ;; ***  popRegFromIdx,1030  , rIdx=0x7f
                      02317 ;; BANKOPT1 BANKSEL dropped; STK00 present in all of r0x103D's banks
00AA   00??           02318         MOVWF   STK00   ;id=1994,key=00d,inCond:10,outCond:1,flow seq=026
                      02319 ;;; ../../../../src/pic14/gen.c:1328:mov2w_op *{*
                      02320 ;; ***  mov2w  1366  offset=3
                      02321 ;; >>> ../../../../src/pic14/gen.c:1371:mov2w
gpasm-1.5.2 #1319 (Aug 29 2019) build/default   30.08.2019  05:22:10        PAGE 45


LOC    OBJECT CODE    LINE  SOURCE TEXT
  VALUE

                      02322 ;;      1097 rIdx = r0x106D 
                      02323 ;; BANKOPT2 BANKSEL dropped; r0x103D present in same bank as r0x103D
00AB   08??           02324         MOVF    r0x103D,W       ;id=1999,key=00e,inCond:1,outCond:14,flow seq=026,rIdx=r0x106D
                      02325 ;; >>> ../../../../src/pic14/gen.c:2160:genCall
00AC   0??? 0???      02326         PAGESEL ___fs2uchar     ;id=2001,key=00f,inCond:0,outCond:0,flow seq=026
                      02327 ;; >>> ../../../../src/pic14/gen.c:2165:genCall
                      02328 ;; BANKOPT3 drop assumptions: PCI with label or call found
00AE   2???           02329         CALL    ___fs2uchar     ;id=2003,key=010,inCond:10,outCond:1e,flow seq=026
                      02330 ;<>Start of new flow, seq=0x27 ancestor = 0x26
                      02331 ;  from: 026 ; to: 028 
                      02332 ;; >>> ../../../../src/pic14/gen.c:2173:genCall
00AF   0??? 0???      02333         PAGESEL $       ;id=2005,key=000,inCond:0,outCond:0,flow seq=027
                      02334 ;;      695 register type nRegs=1
                      02335 ;;; ../../../../src/pic14/gen.c:1892:assignResultValue *{*
                      02336 ;; ***  assignResultValue  1894
                      02337 ;;      line = 1896 result -=-, size=0, left AOP_REG=r0x106A, size=1, right -=-, size=0
                      02338 ;; >>> ../../../../src/pic14/gen.c:1378:movwf
                      02339 ;;      1097 rIdx = r0x106A 
                      02340 ;       .line   64; "../../../lib/format.c"     num -= (digit * weight);
00B1   0??? 0???      02341         BANKSEL r0x1040 ;id=4028,key=001,inCond:0,outCond:0,flow seq=027
00B3   00??           02342         MOVWF   r0x1040 ;id=3674,key=002,inCond:10,outCond:1,flow seq=027,rIdx=r0x106A
00B4   0??? 0???      02343         PAGESEL ___uchar2fs     ;id=2032,key=003,inCond:0,outCond:0,flow seq=027
                      02344 ;; >>> ../../../../src/pic14/gen.c:2165:genCall
                      02345 ;; BANKOPT3 drop assumptions: PCI with label or call found
00B6   2???           02346         CALL    ___uchar2fs     ;id=2034,key=004,inCond:10,outCond:1e,flow seq=027
                      02347 ;<>Start of new flow, seq=0x28 ancestor = 0x27
                      02348 ;  from: 027 ; to: 029 
                      02349 ;; >>> ../../../../src/pic14/gen.c:2173:genCall
00B7   0??? 0???      02350         PAGESEL $       ;id=2036,key=000,inCond:0,outCond:0,flow seq=028
                      02351 ;;      695 register type nRegs=4
                      02352 ;;; ../../../../src/pic14/gen.c:1892:assignResultValue *{*
                      02353 ;; ***  assignResultValue  1894
                      02354 ;;      line = 1896 result -=-, size=0, left AOP_REG=r0x106B, size=4, right -=-, size=0
                      02355 ;; >>> ../../../../src/pic14/gen.c:1378:movwf
                      02356 ;;      1097 rIdx = r0x106E 
00B9   0??? 0???      02357         BANKSEL r0x1041 ;id=4030,key=001,inCond:0,outCond:0,flow seq=028
00BB   00??           02358         MOVWF   r0x1041 ;id=2043,key=002,inCond:10,outCond:1,flow seq=028,rIdx=r0x106E
                      02359 ;; >>> ../../../../src/pic14/gen.c:1408:get_returnvalue
                      02360 ;; ***  popRegFromIdx,1030  , rIdx=0x7f
                      02361 ;; BANKOPT1 BANKSEL dropped; STK00 present in all of r0x1041's banks
00BC   08??           02362         MOVF    STK00,W ;id=2046,key=003,inCond:1,outCond:14,flow seq=028
                      02363 ;; >>> ../../../../src/pic14/gen.c:1378:movwf
                      02364 ;;      1097 rIdx = r0x106D 
                      02365 ;; BANKOPT2 BANKSEL dropped; r0x103D present in same bank as r0x1041
00BD   00??           02366         MOVWF   r0x103D ;id=2049,key=004,inCond:10,outCond:1,flow seq=028,rIdx=r0x106D
                      02367 ;; >>> ../../../../src/pic14/gen.c:1408:get_returnvalue
                      02368 ;; ***  popRegFromIdx,1030  , rIdx=0x7e
                      02369 ;; BANKOPT1 BANKSEL dropped; STK01 present in all of r0x1041's banks
00BE   08??           02370         MOVF    STK01,W ;id=2052,key=005,inCond:1,outCond:14,flow seq=028
                      02371 ;; >>> ../../../../src/pic14/gen.c:1378:movwf
                      02372 ;;      1097 rIdx = r0x106C 
                      02373 ;; BANKOPT2 BANKSEL dropped; r0x103E present in same bank as r0x1041
00BF   00??           02374         MOVWF   r0x103E ;id=2055,key=006,inCond:10,outCond:1,flow seq=028,rIdx=r0x106C
gpasm-1.5.2 #1319 (Aug 29 2019) build/default   30.08.2019  05:22:10        PAGE 46


LOC    OBJECT CODE    LINE  SOURCE TEXT
  VALUE

                      02375 ;; >>> ../../../../src/pic14/gen.c:1408:get_returnvalue
                      02376 ;; ***  popRegFromIdx,1030  , rIdx=0x7d
                      02377 ;; BANKOPT1 BANKSEL dropped; STK02 present in all of r0x1041's banks
00C0   08??           02378         MOVF    STK02,W ;id=2058,key=007,inCond:1,outCond:14,flow seq=028
                      02379 ;; >>> ../../../../src/pic14/gen.c:1378:movwf
                      02380 ;;      1097 rIdx = r0x106B 
                      02381 ;; BANKOPT2 BANKSEL dropped; r0x103F present in same bank as r0x1041
00C1   00??           02382         MOVWF   r0x103F ;id=2061,key=008,inCond:10,outCond:1,flow seq=028,rIdx=r0x106B
                      02383 ;;      2188 left AOP_REG
                      02384 ;;; ../../../../src/pic14/gen.c:1830:unsaveRegisters *{*
                      02385 ;; ***  unsaveRegisters  1832
                      02386 ;;; ../../../../src/pic14/gen.c:2308:resultRemat *{*
                      02387 ;;; ../../../../src/pic14/gen.c:2308:resultRemat *{*
                      02388 ;;; ../../../../src/pic14/gen.c:2308:resultRemat *{*
                      02389 ;;; ../../../../src/pic14/gen.c:2071:genCall *{*
                      02390 ;; ***  genCall  2073
                      02391 ;;; ../../../../src/pic14/gen.c:1786:saveRegisters *{*
                      02392 ;; ***  saveRegisters  1788
                      02393 ;;      695 register type nRegs=4
                      02394 ;;      695 register type nRegs=4
                      02395 ;;      695 register type nRegs=4
                      02396 ;;      2120 left AOP_REG
                      02397 ;;; ../../../../src/pic14/gen.c:1328:mov2w_op *{*
                      02398 ;; ***  mov2w  1366  offset=0
                      02399 ;; >>> ../../../../src/pic14/gen.c:1371:mov2w
                      02400 ;;      1097 rIdx = r0x1066 
                      02401 ;; BANKOPT2 BANKSEL dropped; r0x1038 present in same bank as r0x1041
00C2   08??           02402         MOVF    r0x1038,W       ;id=2080,key=009,inCond:1,outCond:14,flow seq=028,rIdx=r0x1066
                      02403 ;;      2120 left AOP_REG
                      02404 ;; >>> ../../../../src/pic14/gen.c:2128:genCall
                      02405 ;; ***  popRegFromIdx,1030  , rIdx=0x79
                      02406 ;; BANKOPT1 BANKSEL dropped; STK06 present in all of r0x1041's banks
00C3   00??           02407         MOVWF   STK06   ;id=2084,key=00a,inCond:10,outCond:1,flow seq=028
                      02408 ;;; ../../../../src/pic14/gen.c:1328:mov2w_op *{*
                      02409 ;; ***  mov2w  1366  offset=1
                      02410 ;; >>> ../../../../src/pic14/gen.c:1371:mov2w
                      02411 ;;      1097 rIdx = r0x1067 
                      02412 ;; BANKOPT2 BANKSEL dropped; r0x1037 present in same bank as r0x1041
00C4   08??           02413         MOVF    r0x1037,W       ;id=2089,key=00b,inCond:1,outCond:14,flow seq=028,rIdx=r0x1067
                      02414 ;;      2120 left AOP_REG
                      02415 ;; >>> ../../../../src/pic14/gen.c:2128:genCall
                      02416 ;; ***  popRegFromIdx,1030  , rIdx=0x7a
                      02417 ;; BANKOPT1 BANKSEL dropped; STK05 present in all of r0x1041's banks
00C5   00??           02418         MOVWF   STK05   ;id=2093,key=00c,inCond:10,outCond:1,flow seq=028
                      02419 ;;; ../../../../src/pic14/gen.c:1328:mov2w_op *{*
                      02420 ;; ***  mov2w  1366  offset=2
                      02421 ;; >>> ../../../../src/pic14/gen.c:1371:mov2w
                      02422 ;;      1097 rIdx = r0x1068 
                      02423 ;; BANKOPT2 BANKSEL dropped; r0x103C present in same bank as r0x1041
00C6   08??           02424         MOVF    r0x103C,W       ;id=2098,key=00d,inCond:1,outCond:14,flow seq=028,rIdx=r0x1068
                      02425 ;;      2120 left AOP_REG
                      02426 ;; >>> ../../../../src/pic14/gen.c:2128:genCall
                      02427 ;; ***  popRegFromIdx,1030  , rIdx=0x7b
gpasm-1.5.2 #1319 (Aug 29 2019) build/default   30.08.2019  05:22:10        PAGE 47


LOC    OBJECT CODE    LINE  SOURCE TEXT
  VALUE

                      02428 ;; BANKOPT1 BANKSEL dropped; STK04 present in all of r0x1041's banks
00C7   00??           02429         MOVWF   STK04   ;id=2102,key=00e,inCond:10,outCond:1,flow seq=028
                      02430 ;;; ../../../../src/pic14/gen.c:1328:mov2w_op *{*
                      02431 ;; ***  mov2w  1366  offset=3
                      02432 ;; >>> ../../../../src/pic14/gen.c:1371:mov2w
                      02433 ;;      1097 rIdx = r0x1069 
                      02434 ;; BANKOPT2 BANKSEL dropped; r0x103B present in same bank as r0x1041
00C8   08??           02435         MOVF    r0x103B,W       ;id=2107,key=00f,inCond:1,outCond:14,flow seq=028,rIdx=r0x1069
                      02436 ;;      695 register type nRegs=4
                      02437 ;;      2120 left AOP_REG
                      02438 ;; >>> ../../../../src/pic14/gen.c:2128:genCall
                      02439 ;; ***  popRegFromIdx,1030  , rIdx=0x7c
                      02440 ;; BANKOPT1 BANKSEL dropped; STK03 present in all of r0x1041's banks
00C9   00??           02441         MOVWF   STK03   ;id=2112,key=010,inCond:10,outCond:1,flow seq=028
                      02442 ;;; ../../../../src/pic14/gen.c:1328:mov2w_op *{*
                      02443 ;; ***  mov2w  1366  offset=0
                      02444 ;; >>> ../../../../src/pic14/gen.c:1371:mov2w
                      02445 ;;      1097 rIdx = r0x106B 
                      02446 ;; BANKOPT2 BANKSEL dropped; r0x103F present in same bank as r0x1041
00CA   08??           02447         MOVF    r0x103F,W       ;id=2117,key=011,inCond:1,outCond:14,flow seq=028,rIdx=r0x106B
                      02448 ;;      2120 left AOP_REG
                      02449 ;; >>> ../../../../src/pic14/gen.c:2128:genCall
                      02450 ;; ***  popRegFromIdx,1030  , rIdx=0x7d
                      02451 ;; BANKOPT1 BANKSEL dropped; STK02 present in all of r0x1041's banks
00CB   00??           02452         MOVWF   STK02   ;id=2121,key=012,inCond:10,outCond:1,flow seq=028
                      02453 ;;; ../../../../src/pic14/gen.c:1328:mov2w_op *{*
                      02454 ;; ***  mov2w  1366  offset=1
                      02455 ;; >>> ../../../../src/pic14/gen.c:1371:mov2w
                      02456 ;;      1097 rIdx = r0x106C 
                      02457 ;; BANKOPT2 BANKSEL dropped; r0x103E present in same bank as r0x1041
00CC   08??           02458         MOVF    r0x103E,W       ;id=2126,key=013,inCond:1,outCond:14,flow seq=028,rIdx=r0x106C
                      02459 ;;      2120 left AOP_REG
                      02460 ;; >>> ../../../../src/pic14/gen.c:2128:genCall
                      02461 ;; ***  popRegFromIdx,1030  , rIdx=0x7e
                      02462 ;; BANKOPT1 BANKSEL dropped; STK01 present in all of r0x1041's banks
00CD   00??           02463         MOVWF   STK01   ;id=2130,key=014,inCond:10,outCond:1,flow seq=028
                      02464 ;;; ../../../../src/pic14/gen.c:1328:mov2w_op *{*
                      02465 ;; ***  mov2w  1366  offset=2
                      02466 ;; >>> ../../../../src/pic14/gen.c:1371:mov2w
                      02467 ;;      1097 rIdx = r0x106D 
                      02468 ;; BANKOPT2 BANKSEL dropped; r0x103D present in same bank as r0x1041
00CE   08??           02469         MOVF    r0x103D,W       ;id=2135,key=015,inCond:1,outCond:14,flow seq=028,rIdx=r0x106D
                      02470 ;;      2120 left AOP_REG
                      02471 ;; >>> ../../../../src/pic14/gen.c:2128:genCall
                      02472 ;; ***  popRegFromIdx,1030  , rIdx=0x7f
                      02473 ;; BANKOPT1 BANKSEL dropped; STK00 present in all of r0x1041's banks
00CF   00??           02474         MOVWF   STK00   ;id=2139,key=016,inCond:10,outCond:1,flow seq=028
                      02475 ;;; ../../../../src/pic14/gen.c:1328:mov2w_op *{*
                      02476 ;; ***  mov2w  1366  offset=3
                      02477 ;; >>> ../../../../src/pic14/gen.c:1371:mov2w
                      02478 ;;      1097 rIdx = r0x106E 
                      02479 ;; BANKOPT2 BANKSEL dropped; r0x1041 present in same bank as r0x1041
00D0   08??           02480         MOVF    r0x1041,W       ;id=2144,key=017,inCond:1,outCond:14,flow seq=028,rIdx=r0x106E
gpasm-1.5.2 #1319 (Aug 29 2019) build/default   30.08.2019  05:22:10        PAGE 48


LOC    OBJECT CODE    LINE  SOURCE TEXT
  VALUE

                      02481 ;; >>> ../../../../src/pic14/gen.c:2160:genCall
00D1   0??? 0???      02482         PAGESEL ___fsmul        ;id=2146,key=018,inCond:0,outCond:0,flow seq=028
                      02483 ;; >>> ../../../../src/pic14/gen.c:2165:genCall
                      02484 ;; BANKOPT3 drop assumptions: PCI with label or call found
00D3   2???           02485         CALL    ___fsmul        ;id=2148,key=019,inCond:10,outCond:1e,flow seq=028
                      02486 ;<>Start of new flow, seq=0x29 ancestor = 0x28
                      02487 ;  from: 028 ; to: 02a 
                      02488 ;; >>> ../../../../src/pic14/gen.c:2173:genCall
00D4   0??? 0???      02489         PAGESEL $       ;id=2150,key=000,inCond:0,outCond:0,flow seq=029
                      02490 ;;      695 register type nRegs=4
                      02491 ;;; ../../../../src/pic14/gen.c:1892:assignResultValue *{*
                      02492 ;; ***  assignResultValue  1894
                      02493 ;;      line = 1896 result -=-, size=0, left AOP_REG=r0x1066, size=4, right -=-, size=0
                      02494 ;; >>> ../../../../src/pic14/gen.c:1378:movwf
                      02495 ;;      1097 rIdx = r0x1069 
00D6   0??? 0???      02496         BANKSEL r0x103B ;id=4053,key=001,inCond:0,outCond:0,flow seq=029
00D8   00??           02497         MOVWF   r0x103B ;id=2157,key=002,inCond:10,outCond:1,flow seq=029,rIdx=r0x1069
                      02498 ;; >>> ../../../../src/pic14/gen.c:1408:get_returnvalue
                      02499 ;; ***  popRegFromIdx,1030  , rIdx=0x7f
                      02500 ;; BANKOPT1 BANKSEL dropped; STK00 present in all of r0x103B's banks
00D9   08??           02501         MOVF    STK00,W ;id=2160,key=003,inCond:1,outCond:14,flow seq=029
                      02502 ;; >>> ../../../../src/pic14/gen.c:1378:movwf
                      02503 ;;      1097 rIdx = r0x1068 
                      02504 ;; BANKOPT2 BANKSEL dropped; r0x103C present in same bank as r0x103B
00DA   00??           02505         MOVWF   r0x103C ;id=2163,key=004,inCond:10,outCond:1,flow seq=029,rIdx=r0x1068
                      02506 ;; >>> ../../../../src/pic14/gen.c:1408:get_returnvalue
                      02507 ;; ***  popRegFromIdx,1030  , rIdx=0x7e
                      02508 ;; BANKOPT1 BANKSEL dropped; STK01 present in all of r0x103B's banks
00DB   08??           02509         MOVF    STK01,W ;id=2166,key=005,inCond:1,outCond:14,flow seq=029
                      02510 ;; >>> ../../../../src/pic14/gen.c:1378:movwf
                      02511 ;;      1097 rIdx = r0x1067 
                      02512 ;; BANKOPT2 BANKSEL dropped; r0x1037 present in same bank as r0x103B
00DC   00??           02513         MOVWF   r0x1037 ;id=2169,key=006,inCond:10,outCond:1,flow seq=029,rIdx=r0x1067
                      02514 ;; >>> ../../../../src/pic14/gen.c:1408:get_returnvalue
                      02515 ;; ***  popRegFromIdx,1030  , rIdx=0x7d
                      02516 ;; BANKOPT1 BANKSEL dropped; STK02 present in all of r0x103B's banks
00DD   08??           02517         MOVF    STK02,W ;id=2172,key=007,inCond:1,outCond:14,flow seq=029
                      02518 ;; >>> ../../../../src/pic14/gen.c:1378:movwf
                      02519 ;;      1097 rIdx = r0x1066 
                      02520 ;; BANKOPT2 BANKSEL dropped; r0x1038 present in same bank as r0x103B
00DE   00??           02521         MOVWF   r0x1038 ;id=3675,key=008,inCond:10,outCond:1,flow seq=029,rIdx=r0x1066
                      02522 ;; BANKOPT1 BANKSEL dropped; STK06 present in all of r0x103B's banks
00DF   00??           02523         MOVWF   STK06   ;id=2198,key=009,inCond:10,outCond:1,flow seq=029
                      02524 ;;; ../../../../src/pic14/gen.c:1328:mov2w_op *{*
                      02525 ;; ***  mov2w  1366  offset=1
                      02526 ;; >>> ../../../../src/pic14/gen.c:1371:mov2w
                      02527 ;;      1097 rIdx = r0x1067 
                      02528 ;; BANKOPT2 BANKSEL dropped; r0x1037 present in same bank as r0x103B
00E0   08??           02529         MOVF    r0x1037,W       ;id=2203,key=00a,inCond:1,outCond:14,flow seq=029,rIdx=r0x1067
                      02530 ;;      2120 left AOP_REG
                      02531 ;; >>> ../../../../src/pic14/gen.c:2128:genCall
                      02532 ;; ***  popRegFromIdx,1030  , rIdx=0x7a
                      02533 ;; BANKOPT1 BANKSEL dropped; STK05 present in all of r0x103B's banks
gpasm-1.5.2 #1319 (Aug 29 2019) build/default   30.08.2019  05:22:10        PAGE 49


LOC    OBJECT CODE    LINE  SOURCE TEXT
  VALUE

00E1   00??           02534         MOVWF   STK05   ;id=2207,key=00b,inCond:10,outCond:1,flow seq=029
                      02535 ;;; ../../../../src/pic14/gen.c:1328:mov2w_op *{*
                      02536 ;; ***  mov2w  1366  offset=2
                      02537 ;; >>> ../../../../src/pic14/gen.c:1371:mov2w
                      02538 ;;      1097 rIdx = r0x1068 
                      02539 ;; BANKOPT2 BANKSEL dropped; r0x103C present in same bank as r0x103B
00E2   08??           02540         MOVF    r0x103C,W       ;id=2212,key=00c,inCond:1,outCond:14,flow seq=029,rIdx=r0x1068
                      02541 ;;      2120 left AOP_REG
                      02542 ;; >>> ../../../../src/pic14/gen.c:2128:genCall
                      02543 ;; ***  popRegFromIdx,1030  , rIdx=0x7b
                      02544 ;; BANKOPT1 BANKSEL dropped; STK04 present in all of r0x103B's banks
00E3   00??           02545         MOVWF   STK04   ;id=2216,key=00d,inCond:10,outCond:1,flow seq=029
                      02546 ;;; ../../../../src/pic14/gen.c:1328:mov2w_op *{*
                      02547 ;; ***  mov2w  1366  offset=3
                      02548 ;; >>> ../../../../src/pic14/gen.c:1371:mov2w
                      02549 ;;      1097 rIdx = r0x1069 
                      02550 ;; BANKOPT2 BANKSEL dropped; r0x103B present in same bank as r0x103B
00E4   08??           02551         MOVF    r0x103B,W       ;id=2221,key=00e,inCond:1,outCond:14,flow seq=029,rIdx=r0x1069
                      02552 ;;      695 register type nRegs=4
                      02553 ;;      2120 left AOP_REG
                      02554 ;; >>> ../../../../src/pic14/gen.c:2128:genCall
                      02555 ;; ***  popRegFromIdx,1030  , rIdx=0x7c
                      02556 ;; BANKOPT1 BANKSEL dropped; STK03 present in all of r0x103B's banks
00E5   00??           02557         MOVWF   STK03   ;id=2226,key=00f,inCond:10,outCond:1,flow seq=029
                      02558 ;;; ../../../../src/pic14/gen.c:1328:mov2w_op *{*
                      02559 ;; ***  mov2w  1366  offset=0
                      02560 ;; >>> ../../../../src/pic14/gen.c:1371:mov2w
                      02561 ;;      1097 rIdx = r0x1060 
                      02562 ;; BANKOPT2 BANKSEL dropped; r0x1036 present in same bank as r0x103B
00E6   08??           02563         MOVF    r0x1036,W       ;id=2231,key=010,inCond:1,outCond:14,flow seq=029,rIdx=r0x1060
                      02564 ;;      2120 left AOP_REG
                      02565 ;; >>> ../../../../src/pic14/gen.c:2128:genCall
                      02566 ;; ***  popRegFromIdx,1030  , rIdx=0x7d
                      02567 ;; BANKOPT1 BANKSEL dropped; STK02 present in all of r0x103B's banks
00E7   00??           02568         MOVWF   STK02   ;id=2235,key=011,inCond:10,outCond:1,flow seq=029
                      02569 ;;; ../../../../src/pic14/gen.c:1328:mov2w_op *{*
                      02570 ;; ***  mov2w  1366  offset=1
                      02571 ;; >>> ../../../../src/pic14/gen.c:1371:mov2w
                      02572 ;;      1097 rIdx = r0x1061 
                      02573 ;; BANKOPT2 BANKSEL dropped; r0x1035 present in same bank as r0x103B
00E8   08??           02574         MOVF    r0x1035,W       ;id=2240,key=012,inCond:1,outCond:14,flow seq=029,rIdx=r0x1061
                      02575 ;;      2120 left AOP_REG
                      02576 ;; >>> ../../../../src/pic14/gen.c:2128:genCall
                      02577 ;; ***  popRegFromIdx,1030  , rIdx=0x7e
                      02578 ;; BANKOPT1 BANKSEL dropped; STK01 present in all of r0x103B's banks
00E9   00??           02579         MOVWF   STK01   ;id=2244,key=013,inCond:10,outCond:1,flow seq=029
                      02580 ;;; ../../../../src/pic14/gen.c:1328:mov2w_op *{*
                      02581 ;; ***  mov2w  1366  offset=2
                      02582 ;; >>> ../../../../src/pic14/gen.c:1371:mov2w
                      02583 ;;      1097 rIdx = r0x1062 
                      02584 ;; BANKOPT2 BANKSEL dropped; r0x1034 present in same bank as r0x103B
00EA   08??           02585         MOVF    r0x1034,W       ;id=2249,key=014,inCond:1,outCond:14,flow seq=029,rIdx=r0x1062
                      02586 ;;      2120 left AOP_REG
gpasm-1.5.2 #1319 (Aug 29 2019) build/default   30.08.2019  05:22:10        PAGE 50


LOC    OBJECT CODE    LINE  SOURCE TEXT
  VALUE

                      02587 ;; >>> ../../../../src/pic14/gen.c:2128:genCall
                      02588 ;; ***  popRegFromIdx,1030  , rIdx=0x7f
                      02589 ;; BANKOPT1 BANKSEL dropped; STK00 present in all of r0x103B's banks
00EB   00??           02590         MOVWF   STK00   ;id=2253,key=015,inCond:10,outCond:1,flow seq=029
                      02591 ;;; ../../../../src/pic14/gen.c:1328:mov2w_op *{*
                      02592 ;; ***  mov2w  1366  offset=3
                      02593 ;; >>> ../../../../src/pic14/gen.c:1371:mov2w
                      02594 ;;      1097 rIdx = r0x1063 
                      02595 ;; BANKOPT2 BANKSEL dropped; r0x1033 present in same bank as r0x103B
00EC   08??           02596         MOVF    r0x1033,W       ;id=2258,key=016,inCond:1,outCond:14,flow seq=029,rIdx=r0x1063
                      02597 ;; >>> ../../../../src/pic14/gen.c:2160:genCall
00ED   0??? 0???      02598         PAGESEL ___fssub        ;id=2260,key=017,inCond:0,outCond:0,flow seq=029
                      02599 ;; >>> ../../../../src/pic14/gen.c:2165:genCall
                      02600 ;; BANKOPT3 drop assumptions: PCI with label or call found
00EF   2???           02601         CALL    ___fssub        ;id=2262,key=018,inCond:10,outCond:1e,flow seq=029
                      02602 ;<>Start of new flow, seq=0x2a ancestor = 0x29
                      02603 ;  from: 029 ; to: 02b 02c 
                      02604 ;; >>> ../../../../src/pic14/gen.c:2173:genCall
00F0   0??? 0???      02605         PAGESEL $       ;id=2264,key=000,inCond:0,outCond:0,flow seq=02a
                      02606 ;;      695 register type nRegs=4
                      02607 ;;; ../../../../src/pic14/gen.c:1892:assignResultValue *{*
                      02608 ;; ***  assignResultValue  1894
                      02609 ;;      line = 1896 result -=-, size=0, left AOP_REG=r0x1060, size=4, right -=-, size=0
                      02610 ;; >>> ../../../../src/pic14/gen.c:1378:movwf
                      02611 ;;      1097 rIdx = r0x1063 
00F2   0??? 0???      02612         BANKSEL r0x1033 ;id=4075,key=001,inCond:0,outCond:0,flow seq=02a
00F4   00??           02613         MOVWF   r0x1033 ;id=2271,key=002,inCond:10,outCond:1,flow seq=02a,rIdx=r0x1063
                      02614 ;; >>> ../../../../src/pic14/gen.c:1408:get_returnvalue
                      02615 ;; ***  popRegFromIdx,1030  , rIdx=0x7f
                      02616 ;; BANKOPT1 BANKSEL dropped; STK00 present in all of r0x1033's banks
00F5   08??           02617         MOVF    STK00,W ;id=2274,key=003,inCond:1,outCond:14,flow seq=02a
                      02618 ;; >>> ../../../../src/pic14/gen.c:1378:movwf
                      02619 ;;      1097 rIdx = r0x1062 
                      02620 ;; BANKOPT2 BANKSEL dropped; r0x1034 present in same bank as r0x1033
00F6   00??           02621         MOVWF   r0x1034 ;id=2277,key=004,inCond:10,outCond:1,flow seq=02a,rIdx=r0x1062
                      02622 ;; >>> ../../../../src/pic14/gen.c:1408:get_returnvalue
                      02623 ;; ***  popRegFromIdx,1030  , rIdx=0x7e
                      02624 ;; BANKOPT1 BANKSEL dropped; STK01 present in all of r0x1033's banks
00F7   08??           02625         MOVF    STK01,W ;id=2280,key=005,inCond:1,outCond:14,flow seq=02a
                      02626 ;; >>> ../../../../src/pic14/gen.c:1378:movwf
                      02627 ;;      1097 rIdx = r0x1061 
                      02628 ;; BANKOPT2 BANKSEL dropped; r0x1035 present in same bank as r0x1033
00F8   00??           02629         MOVWF   r0x1035 ;id=2283,key=006,inCond:10,outCond:1,flow seq=02a,rIdx=r0x1061
                      02630 ;; >>> ../../../../src/pic14/gen.c:1408:get_returnvalue
                      02631 ;; ***  popRegFromIdx,1030  , rIdx=0x7d
                      02632 ;; BANKOPT1 BANKSEL dropped; STK02 present in all of r0x1033's banks
00F9   08??           02633         MOVF    STK02,W ;id=2286,key=007,inCond:1,outCond:14,flow seq=02a
                      02634 ;; >>> ../../../../src/pic14/gen.c:1378:movwf
                      02635 ;;      1097 rIdx = r0x1060 
                      02636 ;; BANKOPT2 BANKSEL dropped; r0x1036 present in same bank as r0x1033
00FA   00??           02637         MOVWF   r0x1036 ;id=2289,key=008,inCond:10,outCond:1,flow seq=02a,rIdx=r0x1060
                      02638 ;;      2188 left AOP_REG
                      02639 ;;; ../../../../src/pic14/gen.c:1830:unsaveRegisters *{*
gpasm-1.5.2 #1319 (Aug 29 2019) build/default   30.08.2019  05:22:10        PAGE 51


LOC    OBJECT CODE    LINE  SOURCE TEXT
  VALUE

                      02640 ;; ***  unsaveRegisters  1832
                      02641 ;;; ../../../../src/pic14/gen.c:2308:resultRemat *{*
                      02642 ;;; ../../../../src/pic14/gen.c:7229:genCast *{*
                      02643 ;; ***  genCast  7230
                      02644 ;;      695 register type nRegs=1
                      02645 ;;      695 register type nRegs=1
                      02646 ;;      line = 7238 result AOP_REG=r0x1066, size=1, left -=-, size=0, right AOP_REG=r0x106A, size=1
                      02647 ;; ***  genCast  7362
                      02648 ;; >>> ../../../../src/pic14/gen.c:7386:genCast
                      02649 ;;      1097 rIdx = r0x106A 
                      02650 ;; BANKOPT2 BANKSEL dropped; r0x1040 present in same bank as r0x1033
                      02651 ;       .line   65; "../../../lib/format.c"     putchar_ptr('0' + digit);
00FB   08??           02652         MOVF    r0x1040,W       ;id=2303,key=009,inCond:1,outCond:14,flow seq=02a,rIdx=r0x106A
                      02653 ;; >>> ../../../../src/pic14/gen.c:7387:genCast
                      02654 ;;      1097 rIdx = r0x1066 
                      02655 ;; BANKOPT2 BANKSEL dropped; r0x1038 present in same bank as r0x1033
00FC   00??           02656         MOVWF   r0x1038 ;id=2306,key=00a,inCond:10,outCond:1,flow seq=02a,rIdx=r0x1066
                      02657 ;;; ../../../../src/pic14/gen.c:2308:resultRemat *{*
                      02658 ;; ***  genPlus  607
                      02659 ;;; ../../../../src/pic14/genarith.c:608:genPlus *{*
                      02660 ;;      695 register type nRegs=1
                      02661 ;;      695 register type nRegs=1
                      02662 ;;      line = 614 result AOP_REG=r0x106A, size=1, left AOP_REG=r0x1066, size=1, right AOP_LIT=0x30, siz
                            e=1
                      02663 ;;; ../../../../src/pic14/genarith.c:138:genPlusIncr *{*
                      02664 ;; ***  genPlusIncr  140
                      02665 ;;      result AOP_REG, left AOP_REG, right AOP_LIT
                      02666 ;;      genPlusIncr  152
                      02667 ;;      adding lit to something. size 1
                      02668 ;;; ../../../../src/pic14/genarith.c:265:genAddLit *{*
                      02669 ;; ***  genAddLit  266
                      02670 ;;  left and result aren't same genAddLit  510
                      02671 ;; >>> ../../../../src/pic14/genarith.c:530:genAddLit
00FD   3030           02672         MOVLW   0x30    ;id=2322,key=00b,inCond:400,outCond:10,flow seq=02a
                      02673 ;; >>> ../../../../src/pic14/genarith.c:531:genAddLit
                      02674 ;;      1097 rIdx = r0x1066 
                      02675 ;; BANKOPT2 BANKSEL dropped; r0x1038 present in same bank as r0x1033
00FE   07??           02676         ADDWF   r0x1038,W       ;id=2325,key=00c,inCond:11,outCond:1e,flow seq=02a,rIdx=r0x1066
                      02677 ;;; ../../../../src/pic14/genarith.c:249:emitMOVWF *{*
                      02678 ;; >>> ../../../../src/pic14/genarith.c:253:emitMOVWF
                      02679 ;;      1097 rIdx = r0x106A 
                      02680 ;; BANKOPT2 BANKSEL dropped; r0x1040 present in same bank as r0x1033
00FF   00??           02681         MOVWF   r0x1040 ;id=2329,key=00d,inCond:10,outCond:1,flow seq=02a,rIdx=r0x106A
                      02682 ;; ***  addSign  857
                      02683 ;;; ../../../../src/pic14/genarith.c:858:addSign *{*
                      02684 ;;; ../../../../src/pic14/gen.c:2308:resultRemat *{*
                      02685 ;;; ../../../../src/pic14/gen.c:2308:resultRemat *{*
                      02686 ;;; ../../../../src/pic14/gen.c:2215:genPcall *{*
                      02687 ;; ***  genPcall  2217
                      02688 ;;; ../../../../src/pic14/gen.c:1786:saveRegisters *{*
                      02689 ;; ***  saveRegisters  1788
                      02690 ;; ***  aopForSym 316
                      02691 ;;      328 sym->rname = _putchar_ptr, size = 2
gpasm-1.5.2 #1319 (Aug 29 2019) build/default   30.08.2019  05:22:10        PAGE 52


LOC    OBJECT CODE    LINE  SOURCE TEXT
  VALUE

                      02692 ;;      line = 2231 result -=-, size=0, left AOP_DIR=_putchar_ptr, size=2, right -=-, size=0
                      02693 ;; ***  genPcall  2240 - WARNING arg-passing to indirect call not supported
                      02694 ;; >>> ../../../../src/pic14/gen.c:2260:genPcall
                      02695 ;; ***  popGetLabel  key=21, label offset 78
                      02696 ;; BANKOPT3 drop assumptions: PCI with label or call found
0100   2???           02697         CALL    _00199_DS_      ;id=2344,key=00e,inCond:10,outCond:1e,flow seq=02a
                      02698 ;<>Start of new flow, seq=0x2b ancestor = 0x2a
                      02699 ;  from: 02a ; to: 02d 
                      02700 ;; ***  popGetLabel  key=22, label offset 78
                      02701 ;; >>> ../../../../src/pic14/gen.c:2262:genPcall
0101   0??? 0???      02702         PAGESEL _00200_DS_      ;id=2347,key=000,inCond:0,outCond:0,flow seq=02b
                      02703 ;; >>> ../../../../src/pic14/gen.c:2263:genPcall
0103   2???           02704         GOTO    _00200_DS_      ;id=2349,key=001,inCond:0,outCond:0,flow seq=02b
                      02705 ;<>Start of new flow, seq=0x2c ancestor = 0x2a
                      02706 ;  from: 02a ; to: 02d 
                      02707 ;; >>> ../../../../src/pic14/gen.c:2266:genPcall
                      02708 ;;      998
                      02709 ;;      1016  _putchar_ptr   offset=1
                      02710 ;; BANKOPT3 drop assumptions: PCI with label or call found
0104                  02711 _00199_DS_:
0104   0??? 0???      02712         BANKSEL _putchar_ptr    ;id=4088,key=000,inCond:0,outCond:0,flow seq=02c
0106   08??           02713         MOVF    (_putchar_ptr + 1),W    ;id=2354,key=001,inCond:1,outCond:14,flow seq=02c
                      02714 ;; >>> ../../../../src/pic14/gen.c:2267:genPcall
0107   1283 1303      02715         BANKSEL PCLATH  ;id=4089,key=002,inCond:0,outCond:0,flow seq=02c
0109   008A           02716         MOVWF   PCLATH  ;id=2356,key=003,inCond:10,outCond:1,flow seq=02c
                      02717 ;; >>> ../../../../src/pic14/gen.c:2268:genPcall
                      02718 ;;      998
                      02719 ;;      1016  _putchar_ptr   offset=0
010A   0??? 0???      02720         BANKSEL _putchar_ptr    ;id=4090,key=004,inCond:0,outCond:0,flow seq=02c
010C   08??           02721         MOVF    _putchar_ptr,W  ;id=2360,key=005,inCond:1,outCond:14,flow seq=02c
                      02722 ;; >>> ../../../../src/pic14/gen.c:2269:genPcall
010D   1283 1303      02723         BANKSEL PCL     ;id=4091,key=006,inCond:0,outCond:0,flow seq=02c
010F   0082           02724         MOVWF   PCL     ;id=2362,key=007,inCond:10,outCond:1,flow seq=02c
                      02725 ;<>Start of new flow, seq=0x2d ancestor = 0x2b
                      02726 ;  from: 02c 02b ; to: 02f 02e 
                      02727 ;;; ../../../../src/pic14/gen.c:1830:unsaveRegisters *{*
                      02728 ;; ***  unsaveRegisters  1832
                      02729 ;;; ../../../../src/pic14/gen.c:2308:resultRemat *{*
                      02730 ;;; ../../../../src/pic14/gen.c:6868:genIfx *{*
                      02731 ;; ***  genIfx  6869
                      02732 ;;      695 register type nRegs=2
                      02733 ;; ***  pic14_toBoolean  1500
                      02734 ;; >>> ../../../../src/pic14/gen.c:1512:pic14_toBoolean
                      02735 ;;      1097 rIdx = r0x1064 
                      02736 ;; BANKOPT3 drop assumptions: PCI with label or call found
0110                  02737 _00200_DS_:
                      02738 ;       .line   66; "../../../lib/format.c"     if(m == 0)
0110   0??? 0???      02739         BANKSEL r0x103A ;id=4093,key=000,inCond:0,outCond:0,flow seq=02d
0112   08??           02740         MOVF    r0x103A,W       ;id=2374,key=001,inCond:1,outCond:14,flow seq=02d,rIdx=r0x1064
                      02741 ;; >>> ../../../../src/pic14/gen.c:1518:pic14_toBoolean
                      02742 ;;      1097 rIdx = r0x1065 
                      02743 ;; BANKOPT2 BANKSEL dropped; r0x1039 present in same bank as r0x103A
0113   04??           02744         IORWF   r0x1039,W       ;id=2377,key=002,inCond:11,outCond:14,flow seq=02d,rIdx=r0x1065
gpasm-1.5.2 #1319 (Aug 29 2019) build/default   30.08.2019  05:22:10        PAGE 53


LOC    OBJECT CODE    LINE  SOURCE TEXT
  VALUE

                      02745 ;; >>> ../../../../src/pic14/gen.c:6917:genIfx
0114   1D03           02746         BTFSS   STATUS,2        ;id=2379,key=003,inCond:25,outCond:0,flow seq=02d
                      02747 ;<>Start of new flow, seq=0x2e ancestor = 0x2d
                      02748 ;  from: 02d ; to: 032 
                      02749 ;; >>> ../../../../src/pic14/gen.c:6918:genIfx
                      02750 ;; ***  popGetLabel  key=2, label offset 78
0115   2???           02751         GOTO    _00180_DS_      ;id=2382,key=000,inCond:0,outCond:0,flow seq=02e
                      02752 ;<>Start of new flow, seq=0x2f ancestor = 0x2d
                      02753 ;  from: 02d ; to: 030 031 
                      02754 ;;; ../../../../src/pic14/gen.c:2308:resultRemat *{*
                      02755 ;;; ../../../../src/pic14/gen.c:2308:resultRemat *{*
                      02756 ;;; ../../../../src/pic14/gen.c:2215:genPcall *{*
                      02757 ;; ***  genPcall  2217
                      02758 ;;; ../../../../src/pic14/gen.c:1786:saveRegisters *{*
                      02759 ;; ***  saveRegisters  1788
                      02760 ;; ***  aopForSym 316
                      02761 ;;      328 sym->rname = _putchar_ptr, size = 2
                      02762 ;;      line = 2231 result -=-, size=0, left AOP_DIR=_putchar_ptr, size=2, right -=-, size=0
                      02763 ;; ***  genPcall  2240 - WARNING arg-passing to indirect call not supported
                      02764 ;; >>> ../../../../src/pic14/gen.c:2260:genPcall
                      02765 ;; ***  popGetLabel  key=23, label offset 78
                      02766 ;; BANKOPT3 drop assumptions: PCI with label or call found
                      02767 ;       .line   67; "../../../lib/format.c"     putchar_ptr('.');
0116   2???           02768         CALL    _00201_DS_      ;id=2396,key=000,inCond:10,outCond:1e,flow seq=02f
                      02769 ;<>Start of new flow, seq=0x30 ancestor = 0x2f
                      02770 ;  from: 02f ; to: 032 
                      02771 ;; ***  popGetLabel  key=24, label offset 78
                      02772 ;; >>> ../../../../src/pic14/gen.c:2262:genPcall
0117   0??? 0???      02773         PAGESEL _00180_DS_      ;id=2399,key=000,inCond:0,outCond:0,flow seq=030
                      02774 ;; >>> ../../../../src/pic14/gen.c:2263:genPcall
0119   2???           02775         GOTO    _00180_DS_      ;id=2401,key=001,inCond:0,outCond:0,flow seq=030
                      02776 ;<>Start of new flow, seq=0x31 ancestor = 0x2f
                      02777 ;  from: 02f ; to: 032 
                      02778 ;; >>> ../../../../src/pic14/gen.c:2266:genPcall
                      02779 ;;      998
                      02780 ;;      1016  _putchar_ptr   offset=1
                      02781 ;; BANKOPT3 drop assumptions: PCI with label or call found
011A                  02782 _00201_DS_:
011A   0??? 0???      02783         BANKSEL _putchar_ptr    ;id=4097,key=000,inCond:0,outCond:0,flow seq=031
011C   08??           02784         MOVF    (_putchar_ptr + 1),W    ;id=2406,key=001,inCond:1,outCond:14,flow seq=031
                      02785 ;; >>> ../../../../src/pic14/gen.c:2267:genPcall
011D   1283 1303      02786         BANKSEL PCLATH  ;id=4098,key=002,inCond:0,outCond:0,flow seq=031
011F   008A           02787         MOVWF   PCLATH  ;id=2408,key=003,inCond:10,outCond:1,flow seq=031
                      02788 ;; >>> ../../../../src/pic14/gen.c:2268:genPcall
                      02789 ;;      998
                      02790 ;;      1016  _putchar_ptr   offset=0
0120   0??? 0???      02791         BANKSEL _putchar_ptr    ;id=4099,key=004,inCond:0,outCond:0,flow seq=031
0122   08??           02792         MOVF    _putchar_ptr,W  ;id=2412,key=005,inCond:1,outCond:14,flow seq=031
                      02793 ;; >>> ../../../../src/pic14/gen.c:2269:genPcall
0123   1283 1303      02794         BANKSEL PCL     ;id=4100,key=006,inCond:0,outCond:0,flow seq=031
0125   0082           02795         MOVWF   PCL     ;id=2414,key=007,inCond:10,outCond:1,flow seq=031
                      02796 ;<>Start of new flow, seq=0x32 ancestor = 0x2e
                      02797 ;  from: 031 030 02e ; to: 034 033 
gpasm-1.5.2 #1319 (Aug 29 2019) build/default   30.08.2019  05:22:10        PAGE 54


LOC    OBJECT CODE    LINE  SOURCE TEXT
  VALUE

                      02798 ;;; ../../../../src/pic14/gen.c:1830:unsaveRegisters *{*
                      02799 ;; ***  unsaveRegisters  1832
                      02800 ;;; ../../../../src/pic14/gen.c:2308:resultRemat *{*
                      02801 ;;; ../../../../src/pic14/gen.c:2752:genLabel *{*
                      02802 ;; ***  genLabel  2755
                      02803 ;_00180_DS_:
                      02804 ;;; ../../../../src/pic14/gen.c:2308:resultRemat *{*
                      02805 ;;; ../../../../src/pic14/gen.c:7426:genDjnz *{*
                      02806 ;; ***  genDjnz  7427
                      02807 ;;; ../../../../src/pic14/genarith.c:892:genMinus *{*
                      02808 ;; ***  genMinus  893
                      02809 ;;      695 register type nRegs=2
                      02810 ;;      576
                      02811 ;;      result AOP_REG, left AOP_REG, right AOP_LIT
                      02812 ;;; ../../../../src/pic14/genarith.c:265:genAddLit *{*
                      02813 ;; ***  genAddLit  266
                      02814 ;; hi = ff      genAddLit  379
                      02815 ;; >>> ../../../../src/pic14/genarith.c:391:genAddLit
                      02816 ;; BANKOPT3 drop assumptions: PCI with label or call found
0126                  02817 _00180_DS_:
                      02818 ;       .line   68; "../../../lib/format.c"     m--;
0126   30FF           02819         MOVLW   0xff    ;id=2436,key=000,inCond:400,outCond:10,flow seq=032
                      02820 ;; >>> ../../../../src/pic14/genarith.c:392:genAddLit
                      02821 ;;      1097 rIdx = r0x1064 
0127   0??? 0???      02822         BANKSEL r0x103A ;id=4102,key=001,inCond:0,outCond:0,flow seq=032
0129   07??           02823         ADDWF   r0x103A,F       ;id=2439,key=002,inCond:11,outCond:f,flow seq=032,rIdx=r0x1064
                      02824 ;; >>> ../../../../src/pic14/genarith.c:393:genAddLit
012A   1C03           02825         BTFSS   STATUS,0        ;id=2441,key=003,inCond:23,outCond:0,flow seq=032
                      02826 ;<>Start of new flow, seq=0x33 ancestor = 0x32
                      02827 ;  from: 032 ; to: 034 
                      02828 ;; >>> ../../../../src/pic14/genarith.c:394:genAddLit
                      02829 ;;      1097 rIdx = r0x1065 
                      02830 ;; BANKOPT2 BANKSEL dropped; r0x1039 present in same bank as r0x103A
012B   03??           02831         DECF    r0x1039,F       ;id=2444,key=000,inCond:1,outCond:5,flow seq=033,rIdx=r0x1065
                      02832 ;<>Start of new flow, seq=0x34 ancestor = 0x32
                      02833 ;  from: 033 032 ; to: 01f 
                      02834 ;; ***  addSign  857
                      02835 ;;; ../../../../src/pic14/genarith.c:858:addSign *{*
                      02836 ;;; ../../../../src/pic14/gen.c:2308:resultRemat *{*
                      02837 ;;; ../../../../src/pic14/gen.c:2770:genGoto *{*
                      02838 ;; >>> ../../../../src/pic14/gen.c:2772:genGoto
                      02839 ;; ***  popGetLabel  key=3, label offset 78
012C   2???           02840         GOTO    _00181_DS_      ;id=2451,key=000,inCond:0,outCond:0,flow seq=034
                      02841 ;<>Start of new flow, seq=0x35 ancestor = 0x21
                      02842 ;  from: 021 ; to: 
                      02843 ;goto   _00181_DS_
                      02844 ;;; ../../../../src/pic14/gen.c:2308:resultRemat *{*
                      02845 ;;; ../../../../src/pic14/gen.c:2752:genLabel *{*
                      02846 ;; ***  genLabel  2755
                      02847 ;_00184_DS_:
                      02848 ;;; ../../../../src/pic14/gen.c:2308:resultRemat *{*
                      02849 ;;; ../../../../src/pic14/gen.c:2520:genEndFunction *{*
                      02850 ;; ***  genEndFunction  2522
gpasm-1.5.2 #1319 (Aug 29 2019) build/default   30.08.2019  05:22:10        PAGE 55


LOC    OBJECT CODE    LINE  SOURCE TEXT
  VALUE

                      02851 ;return
                      02852 ;; BANKOPT3 drop assumptions: PCI with label or call found
012D                  02853 _00184_DS_:
                      02854 ;       .line   70; "../../../lib/format.c"     }
012D   0008           02855         RETURN          ;id=2463,key=000,inCond:10,outCond:e,flow seq=035
                      02856 ;<>Start of new flow, seq=0x36
                      02857 ;  from: ; to: 
                      02858 ; exit point of _format_float
                      02859 ;;; ../../../../src/pic14/gen.c:7535:genpic14Code *{*
                      02860 
                      02861 ;***
                      02862 ;  pBlock Stats: dbName = C
                      02863 ;***
                      02864 ;has an exit
                      02865 ;functions called:
                      02866 ;   _00171_DS_
                      02867 ;   _00173_DS_
                      02868 ;   _format_number
                      02869 ;   _format_number
                      02870 ;   _00171_DS_
                      02871 ;   _00173_DS_
                      02872 ;   _format_number
                      02873 ;   _format_number
                      02874 ;18 compiler assigned registers:
                      02875 ;   r0x1051
                      02876 ;   STK00
                      02877 ;   r0x1052
                      02878 ;   STK01
                      02879 ;   r0x1053
                      02880 ;   STK02
                      02881 ;   r0x1054
                      02882 ;   r0x1055
                      02883 ;   r0x1056
                      02884 ;   r0x1057
                      02885 ;   r0x1058
                      02886 ;   r0x1059
                      02887 ;   r0x105A
                      02888 ;   STK06
                      02889 ;   STK05
                      02890 ;   STK04
                      02891 ;   STK03
                      02892 ;   r0x105B
                      02893 ;; Starting pCode block
                      02894 ;<>Start of new flow, seq=0x37 ancestor = 0x37
                      02895 ;  from: ; to: 038 039 
                      02896 ;;; ../../../../src/pic14/gen.c:2308:resultRemat *{*
                      02897 ;;; ../../../../src/pic14/gen.c:2752:genLabel *{*
                      02898 ;; ***  genLabel  2755
                      02899 ;;; ../../../../src/pic14/gen.c:2308:resultRemat *{*
                      02900 ;;; ../../../../src/pic14/gen.c:2332:genFunction *{*
                      02901 ;; ***  genFunction  2334 curr label offset=8previous max_key=56 
                      02902 ;;      -----------------------------------------
                      02903 ;;       function format_xint32
gpasm-1.5.2 #1319 (Aug 29 2019) build/default   30.08.2019  05:22:10        PAGE 56


LOC    OBJECT CODE    LINE  SOURCE TEXT
  VALUE

                      02904 ;;      -----------------------------------------
                      02905 ;_format_xint32:
                      02906 S_format__format_xint32 code
0000                  02907 _format_xint32:
                      02908 ; 2 exit points
                      02909 ;;; ../../../../src/pic14/gen.c:2308:resultRemat *{*
                      02910 ;;; ../../../../src/pic14/gen.c:7467:genReceive *{*
                      02911 ;; ***  genReceive  7468
                      02912 ;;      695 register type nRegs=4
                      02913 ;;; ../../../../src/pic14/gen.c:1892:assignResultValue *{*
                      02914 ;; ***  assignResultValue  1894
                      02915 ;;      line = 1896 result -=-, size=0, left AOP_REG=r0x1056, size=4, right -=-, size=0
                      02916 ;; >>> ../../../../src/pic14/gen.c:1378:movwf
                      02917 ;;      1097 rIdx = r0x1059 
                      02918 ;       .line   48; "../../../lib/format.c"     format_xint32(/*putchar_fn* putchar,*/ uint32_t x) {
0000   0??? 0???      02919         BANKSEL r0x1051 ;id=4105,key=000,inCond:0,outCond:0,flow seq=037
0002   00??           02920         MOVWF   r0x1051 ;id=1020,key=001,inCond:10,outCond:1,flow seq=037,rIdx=r0x1059
                      02921 ;; >>> ../../../../src/pic14/gen.c:1408:get_returnvalue
                      02922 ;; ***  popRegFromIdx,1030  , rIdx=0x7f
                      02923 ;; BANKOPT1 BANKSEL dropped; STK00 present in all of r0x1051's banks
0003   08??           02924         MOVF    STK00,W ;id=1023,key=002,inCond:1,outCond:14,flow seq=037
                      02925 ;; >>> ../../../../src/pic14/gen.c:1378:movwf
                      02926 ;;      1097 rIdx = r0x1058 
                      02927 ;; BANKOPT2 BANKSEL dropped; r0x1052 present in same bank as r0x1051
0004   00??           02928         MOVWF   r0x1052 ;id=1026,key=003,inCond:10,outCond:1,flow seq=037,rIdx=r0x1058
                      02929 ;; >>> ../../../../src/pic14/gen.c:1408:get_returnvalue
                      02930 ;; ***  popRegFromIdx,1030  , rIdx=0x7e
                      02931 ;; BANKOPT1 BANKSEL dropped; STK01 present in all of r0x1051's banks
0005   08??           02932         MOVF    STK01,W ;id=1029,key=004,inCond:1,outCond:14,flow seq=037
                      02933 ;; >>> ../../../../src/pic14/gen.c:1378:movwf
                      02934 ;;      1097 rIdx = r0x1057 
                      02935 ;; BANKOPT2 BANKSEL dropped; r0x1053 present in same bank as r0x1051
0006   00??           02936         MOVWF   r0x1053 ;id=1032,key=005,inCond:10,outCond:1,flow seq=037,rIdx=r0x1057
                      02937 ;; >>> ../../../../src/pic14/gen.c:1408:get_returnvalue
                      02938 ;; ***  popRegFromIdx,1030  , rIdx=0x7d
                      02939 ;; BANKOPT1 BANKSEL dropped; STK02 present in all of r0x1051's banks
0007   08??           02940         MOVF    STK02,W ;id=1035,key=006,inCond:1,outCond:14,flow seq=037
                      02941 ;; >>> ../../../../src/pic14/gen.c:1378:movwf
                      02942 ;;      1097 rIdx = r0x1056 
                      02943 ;; BANKOPT2 BANKSEL dropped; r0x1054 present in same bank as r0x1051
0008   00??           02944         MOVWF   r0x1054 ;id=1038,key=007,inCond:10,outCond:1,flow seq=037,rIdx=r0x1056
                      02945 ;;; ../../../../src/pic14/gen.c:2308:resultRemat *{*
                      02946 ;;; ../../../../src/pic14/gen.c:2308:resultRemat *{*
                      02947 ;;; ../../../../src/pic14/gen.c:2215:genPcall *{*
                      02948 ;; ***  genPcall  2217
                      02949 ;;; ../../../../src/pic14/gen.c:1786:saveRegisters *{*
                      02950 ;; ***  saveRegisters  1788
                      02951 ;; ***  aopForSym 316
                      02952 ;;      328 sym->rname = _putchar_ptr, size = 2
                      02953 ;;      line = 2231 result -=-, size=0, left AOP_DIR=_putchar_ptr, size=2, right -=-, size=0
                      02954 ;; ***  genPcall  2240 - WARNING arg-passing to indirect call not supported
                      02955 ;; >>> ../../../../src/pic14/gen.c:2260:genPcall
                      02956 ;; ***  popGetLabel  key=3, label offset 68
gpasm-1.5.2 #1319 (Aug 29 2019) build/default   30.08.2019  05:22:10        PAGE 57


LOC    OBJECT CODE    LINE  SOURCE TEXT
  VALUE

                      02957 ;; BANKOPT3 drop assumptions: PCI with label or call found
                      02958 ;       .line   49; "../../../lib/format.c"     putchar_ptr('0');
0009   2???           02959         CALL    _00171_DS_      ;id=1052,key=008,inCond:10,outCond:1e,flow seq=037
                      02960 ;<>Start of new flow, seq=0x38 ancestor = 0x37
                      02961 ;  from: 037 ; to: 03a 
                      02962 ;; ***  popGetLabel  key=4, label offset 68
                      02963 ;; >>> ../../../../src/pic14/gen.c:2262:genPcall
000A   0??? 0???      02964         PAGESEL _00172_DS_      ;id=1055,key=000,inCond:0,outCond:0,flow seq=038
                      02965 ;; >>> ../../../../src/pic14/gen.c:2263:genPcall
000C   2???           02966         GOTO    _00172_DS_      ;id=1057,key=001,inCond:0,outCond:0,flow seq=038
                      02967 ;<>Start of new flow, seq=0x39 ancestor = 0x37
                      02968 ;  from: 037 ; to: 03a 
                      02969 ;; >>> ../../../../src/pic14/gen.c:2266:genPcall
                      02970 ;;      998
                      02971 ;;      1016  _putchar_ptr   offset=1
                      02972 ;; BANKOPT3 drop assumptions: PCI with label or call found
000D                  02973 _00171_DS_:
000D   0??? 0???      02974         BANKSEL _putchar_ptr    ;id=4114,key=000,inCond:0,outCond:0,flow seq=039
000F   08??           02975         MOVF    (_putchar_ptr + 1),W    ;id=1062,key=001,inCond:1,outCond:14,flow seq=039
                      02976 ;; >>> ../../../../src/pic14/gen.c:2267:genPcall
0010   1283 1303      02977         BANKSEL PCLATH  ;id=4115,key=002,inCond:0,outCond:0,flow seq=039
0012   008A           02978         MOVWF   PCLATH  ;id=1064,key=003,inCond:10,outCond:1,flow seq=039
                      02979 ;; >>> ../../../../src/pic14/gen.c:2268:genPcall
                      02980 ;;      998
                      02981 ;;      1016  _putchar_ptr   offset=0
0013   0??? 0???      02982         BANKSEL _putchar_ptr    ;id=4116,key=004,inCond:0,outCond:0,flow seq=039
0015   08??           02983         MOVF    _putchar_ptr,W  ;id=1068,key=005,inCond:1,outCond:14,flow seq=039
                      02984 ;; >>> ../../../../src/pic14/gen.c:2269:genPcall
0016   1283 1303      02985         BANKSEL PCL     ;id=4117,key=006,inCond:0,outCond:0,flow seq=039
0018   0082           02986         MOVWF   PCL     ;id=1070,key=007,inCond:10,outCond:1,flow seq=039
                      02987 ;<>Start of new flow, seq=0x3a ancestor = 0x38
                      02988 ;  from: 039 038 ; to: 03b 03c 
                      02989 ;;; ../../../../src/pic14/gen.c:1830:unsaveRegisters *{*
                      02990 ;; ***  unsaveRegisters  1832
                      02991 ;;; ../../../../src/pic14/gen.c:2308:resultRemat *{*
                      02992 ;;; ../../../../src/pic14/gen.c:2308:resultRemat *{*
                      02993 ;;; ../../../../src/pic14/gen.c:2215:genPcall *{*
                      02994 ;; ***  genPcall  2217
                      02995 ;;; ../../../../src/pic14/gen.c:1786:saveRegisters *{*
                      02996 ;; ***  saveRegisters  1788
                      02997 ;; ***  aopForSym 316
                      02998 ;;      328 sym->rname = _putchar_ptr, size = 2
                      02999 ;;      line = 2231 result -=-, size=0, left AOP_DIR=_putchar_ptr, size=2, right -=-, size=0
                      03000 ;; ***  genPcall  2240 - WARNING arg-passing to indirect call not supported
                      03001 ;; >>> ../../../../src/pic14/gen.c:2260:genPcall
                      03002 ;; ***  popGetLabel  key=5, label offset 68
                      03003 ;; BANKOPT3 drop assumptions: PCI with label or call found
0019                  03004 _00172_DS_:
                      03005 ;       .line   50; "../../../lib/format.c"     putchar_ptr('x');
0019   2???           03006         CALL    _00173_DS_      ;id=1087,key=000,inCond:10,outCond:1e,flow seq=03a
                      03007 ;<>Start of new flow, seq=0x3b ancestor = 0x3a
                      03008 ;  from: 03a ; to: 03d 
                      03009 ;; ***  popGetLabel  key=6, label offset 68
gpasm-1.5.2 #1319 (Aug 29 2019) build/default   30.08.2019  05:22:10        PAGE 58


LOC    OBJECT CODE    LINE  SOURCE TEXT
  VALUE

                      03010 ;; >>> ../../../../src/pic14/gen.c:2262:genPcall
001A   0??? 0???      03011         PAGESEL _00174_DS_      ;id=1090,key=000,inCond:0,outCond:0,flow seq=03b
                      03012 ;; >>> ../../../../src/pic14/gen.c:2263:genPcall
001C   2???           03013         GOTO    _00174_DS_      ;id=1092,key=001,inCond:0,outCond:0,flow seq=03b
                      03014 ;<>Start of new flow, seq=0x3c ancestor = 0x3a
                      03015 ;  from: 03a ; to: 03d 
                      03016 ;; >>> ../../../../src/pic14/gen.c:2266:genPcall
                      03017 ;;      998
                      03018 ;;      1016  _putchar_ptr   offset=1
                      03019 ;; BANKOPT3 drop assumptions: PCI with label or call found
001D                  03020 _00173_DS_:
001D   0??? 0???      03021         BANKSEL _putchar_ptr    ;id=4120,key=000,inCond:0,outCond:0,flow seq=03c
001F   08??           03022         MOVF    (_putchar_ptr + 1),W    ;id=1097,key=001,inCond:1,outCond:14,flow seq=03c
                      03023 ;; >>> ../../../../src/pic14/gen.c:2267:genPcall
0020   1283 1303      03024         BANKSEL PCLATH  ;id=4121,key=002,inCond:0,outCond:0,flow seq=03c
0022   008A           03025         MOVWF   PCLATH  ;id=1099,key=003,inCond:10,outCond:1,flow seq=03c
                      03026 ;; >>> ../../../../src/pic14/gen.c:2268:genPcall
                      03027 ;;      998
                      03028 ;;      1016  _putchar_ptr   offset=0
0023   0??? 0???      03029         BANKSEL _putchar_ptr    ;id=4122,key=004,inCond:0,outCond:0,flow seq=03c
0025   08??           03030         MOVF    _putchar_ptr,W  ;id=1103,key=005,inCond:1,outCond:14,flow seq=03c
                      03031 ;; >>> ../../../../src/pic14/gen.c:2269:genPcall
0026   1283 1303      03032         BANKSEL PCL     ;id=4123,key=006,inCond:0,outCond:0,flow seq=03c
0028   0082           03033         MOVWF   PCL     ;id=1105,key=007,inCond:10,outCond:1,flow seq=03c
                      03034 ;<>Start of new flow, seq=0x3d ancestor = 0x3b
                      03035 ;  from: 03c 03b ; to: 03e 
                      03036 ;;; ../../../../src/pic14/gen.c:1830:unsaveRegisters *{*
                      03037 ;; ***  unsaveRegisters  1832
                      03038 ;;; ../../../../src/pic14/gen.c:2308:resultRemat *{*
                      03039 ;;; ../../../../src/pic14/gen.c:5516:genGenericShift *{*
                      03040 ;; ***  genGenericShift  5519
                      03041 ;;      695 register type nRegs=4
                      03042 ;;      695 register type nRegs=4
                      03043 ;;; ../../../../src/pic14/gen.c:5150:movLeft2Result *{*
                      03044 ;; ***  movLeft2Result  5151
                      03045 ;; >>> ../../../../src/pic14/gen.c:5156:movLeft2Result
                      03046 ;;      1097 rIdx = r0x1058 
                      03047 ;;113   MOVF    r0x1052,W
                      03048 ;; >>> ../../../../src/pic14/gen.c:5157:movLeft2Result
                      03049 ;;      1097 rIdx = r0x105A 
                      03050 ;;; ../../../../src/pic14/gen.c:5150:movLeft2Result *{*
                      03051 ;; ***  movLeft2Result  5151
                      03052 ;; >>> ../../../../src/pic14/gen.c:5156:movLeft2Result
                      03053 ;;      1097 rIdx = r0x1059 
                      03054 ;;115   MOVF    r0x1051,W
                      03055 ;; >>> ../../../../src/pic14/gen.c:5157:movLeft2Result
                      03056 ;;      1097 rIdx = r0x105B 
                      03057 ;; ***  addSign  857
                      03058 ;;; ../../../../src/pic14/genarith.c:858:addSign *{*
                      03059 ;; >>> ../../../../src/pic14/genarith.c:877:addSign
                      03060 ;;      1097 rIdx = r0x105C 
                      03061 ;;1     CLRF    r0x1057
                      03062 ;; >>> ../../../../src/pic14/genarith.c:877:addSign
gpasm-1.5.2 #1319 (Aug 29 2019) build/default   30.08.2019  05:22:10        PAGE 59


LOC    OBJECT CODE    LINE  SOURCE TEXT
  VALUE

                      03063 ;;      1097 rIdx = r0x105D 
                      03064 ;;1     CLRF    r0x1058
                      03065 ;;; ../../../../src/pic14/gen.c:2308:resultRemat *{*
                      03066 ;;; ../../../../src/pic14/gen.c:7229:genCast *{*
                      03067 ;; ***  genCast  7230
                      03068 ;;      695 register type nRegs=2
                      03069 ;;      line = 7238 result AOP_REG=r0x105E, size=2, left -=-, size=0, right AOP_REG=r0x105A, size=4
                      03070 ;; ***  genCast  7362
                      03071 ;; >>> ../../../../src/pic14/gen.c:7386:genCast
                      03072 ;;      1097 rIdx = r0x105A 
                      03073 ;;101   MOVF    r0x1055,W
                      03074 ;; >>> ../../../../src/pic14/gen.c:7387:genCast
                      03075 ;;      1097 rIdx = r0x105E 
                      03076 ;;99    MOVWF   r0x1059
                      03077 ;; >>> ../../../../src/pic14/gen.c:7386:genCast
                      03078 ;;      1097 rIdx = r0x105B 
                      03079 ;;104   MOVF    r0x1056,W
                      03080 ;; >>> ../../../../src/pic14/gen.c:7387:genCast
                      03081 ;;      1097 rIdx = r0x105F 
                      03082 ;;102   MOVWF   r0x105A
                      03083 ;;; ../../../../src/pic14/gen.c:2308:resultRemat *{*
                      03084 ;;; ../../../../src/pic14/gen.c:2308:resultRemat *{*
                      03085 ;;; ../../../../src/pic14/gen.c:2308:resultRemat *{*
                      03086 ;;; ../../../../src/pic14/gen.c:2308:resultRemat *{*
                      03087 ;;; ../../../../src/pic14/gen.c:2071:genCall *{*
                      03088 ;; ***  genCall  2073
                      03089 ;;; ../../../../src/pic14/gen.c:1786:saveRegisters *{*
                      03090 ;; ***  saveRegisters  1788
                      03091 ;;      695 register type nRegs=2
                      03092 ;;      695 register type nRegs=1
                      03093 ;;      695 register type nRegs=1
                      03094 ;;      2120 left AOP_LIT
                      03095 ;;; ../../../../src/pic14/gen.c:1328:mov2w_op *{*
                      03096 ;; >>> ../../../../src/pic14/gen.c:1346:mov2w_op
                      03097 ;; BANKOPT3 drop assumptions: PCI with label or call found
0029                  03098 _00174_DS_:
                      03099 ;       .line   51; "../../../lib/format.c"     format_number((uint16_t)(x >> 16), 16, -4);
0029   30FC           03100         MOVLW   0xfc    ;id=1171,key=000,inCond:400,outCond:10,flow seq=03d
                      03101 ;;      2120 left AOP_LIT
                      03102 ;; >>> ../../../../src/pic14/gen.c:2128:genCall
                      03103 ;; ***  popRegFromIdx,1030  , rIdx=0x79
                      03104 ;; BANKOPT1 BANKSEL dropped; STK06 present in all of (null)'s banks
002A   00??           03105         MOVWF   STK06   ;id=1175,key=001,inCond:10,outCond:1,flow seq=03d
                      03106 ;;; ../../../../src/pic14/gen.c:1328:mov2w_op *{*
                      03107 ;; >>> ../../../../src/pic14/gen.c:1346:mov2w_op
002B   3010           03108         MOVLW   0x10    ;id=1178,key=002,inCond:400,outCond:10,flow seq=03d
                      03109 ;;      695 register type nRegs=2
                      03110 ;;      2120 left AOP_REG
                      03111 ;; >>> ../../../../src/pic14/gen.c:2128:genCall
                      03112 ;; ***  popRegFromIdx,1030  , rIdx=0x7a
                      03113 ;; BANKOPT1 BANKSEL dropped; STK05 present in all of (null)'s banks
002C   00??           03114         MOVWF   STK05   ;id=1183,key=003,inCond:10,outCond:1,flow seq=03d
                      03115 ;;; ../../../../src/pic14/gen.c:1328:mov2w_op *{*
gpasm-1.5.2 #1319 (Aug 29 2019) build/default   30.08.2019  05:22:10        PAGE 60


LOC    OBJECT CODE    LINE  SOURCE TEXT
  VALUE

                      03116 ;; ***  mov2w  1366  offset=0
                      03117 ;; >>> ../../../../src/pic14/gen.c:1371:mov2w
                      03118 ;;      1097 rIdx = r0x105E 
                      03119 ;;100   MOVF    r0x1059,W
                      03120 ;;112   MOVF    r0x1055,W
002D   0??? 0???      03121         BANKSEL r0x1052 ;id=4127,key=004,inCond:0,outCond:0,flow seq=03d
002F   08??           03122         MOVF    r0x1052,W       ;id=3701,key=005,inCond:1,outCond:14,flow seq=03d,rIdx=r0x1058
                      03123 ;; BANKOPT2 BANKSEL dropped; r0x1055 present in same bank as r0x1052
0030   00??           03124         MOVWF   r0x1055 ;id=1122,key=006,inCond:10,outCond:1,flow seq=03d,rIdx=r0x105A
                      03125 ;;      2120 left AOP_REG
                      03126 ;; >>> ../../../../src/pic14/gen.c:2128:genCall
                      03127 ;; ***  popRegFromIdx,1030  , rIdx=0x7b
                      03128 ;; BANKOPT1 BANKSEL dropped; STK04 present in all of r0x1052's banks
0031   00??           03129         MOVWF   STK04   ;id=1192,key=007,inCond:10,outCond:1,flow seq=03d
                      03130 ;;; ../../../../src/pic14/gen.c:1328:mov2w_op *{*
                      03131 ;; ***  mov2w  1366  offset=1
                      03132 ;; >>> ../../../../src/pic14/gen.c:1371:mov2w
                      03133 ;;      1097 rIdx = r0x105F 
                      03134 ;;103   MOVF    r0x105A,W
                      03135 ;;114   MOVF    r0x1056,W
                      03136 ;; BANKOPT2 BANKSEL dropped; r0x1051 present in same bank as r0x1052
0032   08??           03137         MOVF    r0x1051,W       ;id=3704,key=008,inCond:1,outCond:14,flow seq=03d,rIdx=r0x1059
                      03138 ;; BANKOPT2 BANKSEL dropped; r0x1056 present in same bank as r0x1052
0033   00??           03139         MOVWF   r0x1056 ;id=1130,key=009,inCond:10,outCond:1,flow seq=03d,rIdx=r0x105B
                      03140 ;;      2120 left AOP_LIT
                      03141 ;; >>> ../../../../src/pic14/gen.c:2128:genCall
                      03142 ;; ***  popRegFromIdx,1030  , rIdx=0x7c
                      03143 ;; BANKOPT1 BANKSEL dropped; STK03 present in all of r0x1052's banks
0034   00??           03144         MOVWF   STK03   ;id=1201,key=00a,inCond:10,outCond:1,flow seq=03d
                      03145 ;;; ../../../../src/pic14/gen.c:1328:mov2w_op *{*
                      03146 ;; >>> ../../../../src/pic14/gen.c:1346:mov2w_op
0035   3078           03147         MOVLW   0x78    ;id=1204,key=00b,inCond:400,outCond:10,flow seq=03d
                      03148 ;;      2120 left AOP_LIT
                      03149 ;; >>> ../../../../src/pic14/gen.c:2128:genCall
                      03150 ;; ***  popRegFromIdx,1030  , rIdx=0x7d
                      03151 ;; BANKOPT1 BANKSEL dropped; STK02 present in all of r0x1052's banks
0036   00??           03152         MOVWF   STK02   ;id=1208,key=00c,inCond:10,outCond:1,flow seq=03d
                      03153 ;;; ../../../../src/pic14/gen.c:1328:mov2w_op *{*
                      03154 ;; >>> ../../../../src/pic14/gen.c:1346:mov2w_op
0037   3030           03155         MOVLW   0x30    ;id=1211,key=00d,inCond:400,outCond:10,flow seq=03d
                      03156 ;;      695 register type nRegs=1
                      03157 ;;      2120 left AOP_REG
                      03158 ;; >>> ../../../../src/pic14/gen.c:2128:genCall
                      03159 ;; ***  popRegFromIdx,1030  , rIdx=0x7e
                      03160 ;; BANKOPT1 BANKSEL dropped; STK01 present in all of r0x1052's banks
0038   00??           03161         MOVWF   STK01   ;id=1216,key=00e,inCond:10,outCond:1,flow seq=03d
                      03162 ;;; ../../../../src/pic14/gen.c:1328:mov2w_op *{*
                      03163 ;; ***  mov2w  1366  offset=0
                      03164 ;; >>> ../../../../src/pic14/gen.c:1371:mov2w
                      03165 ;;      1097 rIdx = r0x1049 
                      03166 ;; BANKOPT2 BANKSEL dropped; r0x105B present in same bank as r0x1052
0039   08??           03167         MOVF    r0x105B,W       ;id=1221,key=00f,inCond:1,outCond:14,flow seq=03d,rIdx=r0x1049
                      03168 ;;      695 register type nRegs=1
gpasm-1.5.2 #1319 (Aug 29 2019) build/default   30.08.2019  05:22:10        PAGE 61


LOC    OBJECT CODE    LINE  SOURCE TEXT
  VALUE

                      03169 ;;      2120 left AOP_REG
                      03170 ;; >>> ../../../../src/pic14/gen.c:2128:genCall
                      03171 ;; ***  popRegFromIdx,1030  , rIdx=0x7f
                      03172 ;; BANKOPT1 BANKSEL dropped; STK00 present in all of r0x1052's banks
003A   00??           03173         MOVWF   STK00   ;id=1226,key=010,inCond:10,outCond:1,flow seq=03d
                      03174 ;;; ../../../../src/pic14/gen.c:1328:mov2w_op *{*
                      03175 ;; ***  mov2w  1366  offset=0
                      03176 ;; >>> ../../../../src/pic14/gen.c:1371:mov2w
                      03177 ;;      1097 rIdx = r0x1049 
                      03178 ;; BANKOPT2 BANKSEL dropped; r0x105B present in same bank as r0x1052
003B   08??           03179         MOVF    r0x105B,W       ;id=1231,key=011,inCond:1,outCond:14,flow seq=03d,rIdx=r0x1049
                      03180 ;; >>> ../../../../src/pic14/gen.c:2160:genCall
003C   0??? 0???      03181         PAGESEL _format_number  ;id=1233,key=012,inCond:0,outCond:0,flow seq=03d
                      03182 ;; >>> ../../../../src/pic14/gen.c:2165:genCall
                      03183 ;; BANKOPT3 drop assumptions: PCI with label or call found
003E   2???           03184         CALL    _format_number  ;id=1235,key=013,inCond:10,outCond:1e,flow seq=03d
                      03185 ;<>Start of new flow, seq=0x3e ancestor = 0x3d
                      03186 ;  from: 03d ; to: 03f 
                      03187 ;; >>> ../../../../src/pic14/gen.c:2173:genCall
003F   0??? 0???      03188         PAGESEL $       ;id=1237,key=000,inCond:0,outCond:0,flow seq=03e
                      03189 ;;; ../../../../src/pic14/gen.c:1830:unsaveRegisters *{*
                      03190 ;; ***  unsaveRegisters  1832
                      03191 ;;; ../../../../src/pic14/gen.c:2308:resultRemat *{*
                      03192 ;;; ../../../../src/pic14/gen.c:7229:genCast *{*
                      03193 ;; ***  genCast  7230
                      03194 ;;      576
                      03195 ;;      695 register type nRegs=2
                      03196 ;;      line = 7238 result AOP_REG=r0x105A, size=2, left -=-, size=0, right AOP_REG=r0x1056, size=4
                      03197 ;; ***  genCast  7362
                      03198 ;; >>> ../../../../src/pic14/gen.c:7386:genCast
                      03199 ;;      1097 rIdx = r0x1056 
                      03200 ;;109   MOVF    r0x1054,W
                      03201 ;; >>> ../../../../src/pic14/gen.c:7387:genCast
                      03202 ;;      1097 rIdx = r0x105A 
                      03203 ;; >>> ../../../../src/pic14/gen.c:7386:genCast
                      03204 ;;      1097 rIdx = r0x1057 
                      03205 ;;111   MOVF    r0x1053,W
                      03206 ;; >>> ../../../../src/pic14/gen.c:7387:genCast
                      03207 ;;      1097 rIdx = r0x105B 
                      03208 ;;; ../../../../src/pic14/gen.c:2308:resultRemat *{*
                      03209 ;;; ../../../../src/pic14/gen.c:2308:resultRemat *{*
                      03210 ;;; ../../../../src/pic14/gen.c:2308:resultRemat *{*
                      03211 ;;; ../../../../src/pic14/gen.c:2308:resultRemat *{*
                      03212 ;;; ../../../../src/pic14/gen.c:2071:genCall *{*
                      03213 ;; ***  genCall  2073
                      03214 ;;; ../../../../src/pic14/gen.c:1786:saveRegisters *{*
                      03215 ;; ***  saveRegisters  1788
                      03216 ;;      695 register type nRegs=2
                      03217 ;;      2120 left AOP_LIT
                      03218 ;;; ../../../../src/pic14/gen.c:1328:mov2w_op *{*
                      03219 ;; >>> ../../../../src/pic14/gen.c:1346:mov2w_op
                      03220 ;       .line   52; "../../../lib/format.c"     format_number((uint16_t)(x & 0xffff), 16, -4);
0041   30FC           03221         MOVLW   0xfc    ;id=1272,key=001,inCond:400,outCond:10,flow seq=03e
gpasm-1.5.2 #1319 (Aug 29 2019) build/default   30.08.2019  05:22:10        PAGE 62


LOC    OBJECT CODE    LINE  SOURCE TEXT
  VALUE

                      03222 ;;      2120 left AOP_LIT
                      03223 ;; >>> ../../../../src/pic14/gen.c:2128:genCall
                      03224 ;; ***  popRegFromIdx,1030  , rIdx=0x7d
                      03225 ;; BANKOPT1 BANKSEL dropped; STK02 present in all of (null)'s banks
0042   00??           03226         MOVWF   STK02   ;id=1276,key=002,inCond:10,outCond:1,flow seq=03e
                      03227 ;;; ../../../../src/pic14/gen.c:1328:mov2w_op *{*
                      03228 ;; >>> ../../../../src/pic14/gen.c:1346:mov2w_op
0043   3010           03229         MOVLW   0x10    ;id=1279,key=003,inCond:400,outCond:10,flow seq=03e
                      03230 ;;      695 register type nRegs=2
                      03231 ;;      2120 left AOP_REG
                      03232 ;; >>> ../../../../src/pic14/gen.c:2128:genCall
                      03233 ;; ***  popRegFromIdx,1030  , rIdx=0x7e
                      03234 ;; BANKOPT1 BANKSEL dropped; STK01 present in all of (null)'s banks
0044   00??           03235         MOVWF   STK01   ;id=1284,key=004,inCond:10,outCond:1,flow seq=03e
                      03236 ;;; ../../../../src/pic14/gen.c:1328:mov2w_op *{*
                      03237 ;; ***  mov2w  1366  offset=0
                      03238 ;; >>> ../../../../src/pic14/gen.c:1371:mov2w
                      03239 ;;      1097 rIdx = r0x105A 
                      03240 ;;108   MOVF    r0x1055,W
0045   0??? 0???      03241         BANKSEL r0x1054 ;id=4141,key=005,inCond:0,outCond:0,flow seq=03e
0047   08??           03242         MOVF    r0x1054,W       ;id=3695,key=006,inCond:1,outCond:14,flow seq=03e,rIdx=r0x1056
                      03243 ;; BANKOPT2 BANKSEL dropped; r0x1055 present in same bank as r0x1054
0048   00??           03244         MOVWF   r0x1055 ;id=1253,key=007,inCond:10,outCond:1,flow seq=03e,rIdx=r0x105A
                      03245 ;;      2120 left AOP_REG
                      03246 ;; >>> ../../../../src/pic14/gen.c:2128:genCall
                      03247 ;; ***  popRegFromIdx,1030  , rIdx=0x7f
                      03248 ;; BANKOPT1 BANKSEL dropped; STK00 present in all of r0x1054's banks
0049   00??           03249         MOVWF   STK00   ;id=1293,key=008,inCond:10,outCond:1,flow seq=03e
                      03250 ;;; ../../../../src/pic14/gen.c:1328:mov2w_op *{*
                      03251 ;; ***  mov2w  1366  offset=1
                      03252 ;; >>> ../../../../src/pic14/gen.c:1371:mov2w
                      03253 ;;      1097 rIdx = r0x105B 
                      03254 ;;110   MOVF    r0x1056,W
                      03255 ;; BANKOPT2 BANKSEL dropped; r0x1053 present in same bank as r0x1054
004A   08??           03256         MOVF    r0x1053,W       ;id=3698,key=009,inCond:1,outCond:14,flow seq=03e,rIdx=r0x1057
                      03257 ;; BANKOPT2 BANKSEL dropped; r0x1056 present in same bank as r0x1054
004B   00??           03258         MOVWF   r0x1056 ;id=1259,key=00a,inCond:10,outCond:1,flow seq=03e,rIdx=r0x105B
                      03259 ;; >>> ../../../../src/pic14/gen.c:2160:genCall
004C   0??? 0???      03260         PAGESEL _format_number  ;id=1300,key=00b,inCond:0,outCond:0,flow seq=03e
                      03261 ;; >>> ../../../../src/pic14/gen.c:2165:genCall
                      03262 ;; BANKOPT3 drop assumptions: PCI with label or call found
004E   2???           03263         CALL    _format_number  ;id=1302,key=00c,inCond:10,outCond:1e,flow seq=03e
                      03264 ;<>Start of new flow, seq=0x3f ancestor = 0x3e
                      03265 ;  from: 03e ; to: 
                      03266 ;; >>> ../../../../src/pic14/gen.c:2173:genCall
004F   0??? 0???      03267         PAGESEL $       ;id=1304,key=000,inCond:0,outCond:0,flow seq=03f
                      03268 ;;; ../../../../src/pic14/gen.c:1830:unsaveRegisters *{*
                      03269 ;; ***  unsaveRegisters  1832
                      03270 ;;; ../../../../src/pic14/gen.c:2308:resultRemat *{*
                      03271 ;;; ../../../../src/pic14/gen.c:2752:genLabel *{*
                      03272 ;; ***  genLabel  2755
                      03273 ;_00169_DS_:
                      03274 ;;; ../../../../src/pic14/gen.c:2308:resultRemat *{*
gpasm-1.5.2 #1319 (Aug 29 2019) build/default   30.08.2019  05:22:10        PAGE 63


LOC    OBJECT CODE    LINE  SOURCE TEXT
  VALUE

                      03275 ;;; ../../../../src/pic14/gen.c:2520:genEndFunction *{*
                      03276 ;; ***  genEndFunction  2522
                      03277 ;return
                      03278 ;       .line   53; "../../../lib/format.c"     }
0051   0008           03279         RETURN          ;id=1317,key=001,inCond:10,outCond:e,flow seq=03f
                      03280 ;<>Start of new flow, seq=0x40
                      03281 ;  from: ; to: 
                      03282 ; exit point of _format_xint32
                      03283 ;;; ../../../../src/pic14/gen.c:7535:genpic14Code *{*
                      03284 
                      03285 ;***
                      03286 ;  pBlock Stats: dbName = C
                      03287 ;***
                      03288 ;has an exit
                      03289 ;functions called:
                      03290 ;   __moduint
                      03291 ;   __divuint
                      03292 ;   _00160_DS_
                      03293 ;   _00163_DS_
                      03294 ;   __moduint
                      03295 ;   __divuint
                      03296 ;   _00160_DS_
                      03297 ;   _00163_DS_
                      03298 ;18 compiler assigned registers:
                      03299 ;   r0x1042
                      03300 ;   STK00
                      03301 ;   r0x1043
                      03302 ;   STK01
                      03303 ;   r0x1044
                      03304 ;   STK02
                      03305 ;   r0x1045
                      03306 ;   r0x105B
                      03307 ;   r0x1047
                      03308 ;   r0x1048
                      03309 ;   r0x1049
                      03310 ;   r0x104A
                      03311 ;   r0x104B
                      03312 ;   r0x104C
                      03313 ;   r0x104D
                      03314 ;   r0x104E
                      03315 ;   r0x104F
                      03316 ;   r0x1050
                      03317 ;; Starting pCode block
                      03318 ;<>Start of new flow, seq=0x41 ancestor = 0x41
                      03319 ;  from: ; to: 043 042 
                      03320 ;;; ../../../../src/pic14/gen.c:2308:resultRemat *{*
                      03321 ;;; ../../../../src/pic14/gen.c:2752:genLabel *{*
                      03322 ;; ***  genLabel  2755
                      03323 ;;; ../../../../src/pic14/gen.c:2308:resultRemat *{*
                      03324 ;;; ../../../../src/pic14/gen.c:2332:genFunction *{*
                      03325 ;; ***  genFunction  2334 curr label offset=4previous max_key=0 
                      03326 ;;      -----------------------------------------
                      03327 ;;       function format_number
gpasm-1.5.2 #1319 (Aug 29 2019) build/default   30.08.2019  05:22:10        PAGE 64


LOC    OBJECT CODE    LINE  SOURCE TEXT
  VALUE

                      03328 ;;      -----------------------------------------
                      03329 ;_format_number:
                      03330 S_format__format_number code
0000                  03331 _format_number:
                      03332 ; 2 exit points
                      03333 ;;; ../../../../src/pic14/gen.c:2308:resultRemat *{*
                      03334 ;;; ../../../../src/pic14/gen.c:7467:genReceive *{*
                      03335 ;; ***  genReceive  7468
                      03336 ;;      695 register type nRegs=2
                      03337 ;;; ../../../../src/pic14/gen.c:1892:assignResultValue *{*
                      03338 ;; ***  assignResultValue  1894
                      03339 ;;      line = 1896 result -=-, size=0, left AOP_REG=r0x1045, size=2, right -=-, size=0
                      03340 ;; >>> ../../../../src/pic14/gen.c:1378:movwf
                      03341 ;;      1097 rIdx = r0x1046 
                      03342 ;       .line   14; "../../../lib/format.c"     format_number(/*putchar_fn* putchar_ptr,*/ uint16_t n, u
                            int8_t base, int8_t pad /*, int8_t pointpos*/) {
0000   0??? 0???      03343         BANKSEL r0x1042 ;id=4147,key=000,inCond:0,outCond:0,flow seq=041
0002   00??           03344         MOVWF   r0x1042 ;id=155,key=001,inCond:10,outCond:1,flow seq=041,rIdx=r0x1046
                      03345 ;; >>> ../../../../src/pic14/gen.c:1408:get_returnvalue
                      03346 ;; ***  popRegFromIdx,1030  , rIdx=0x7f
                      03347 ;; BANKOPT1 BANKSEL dropped; STK00 present in all of r0x1042's banks
0003   08??           03348         MOVF    STK00,W ;id=158,key=002,inCond:1,outCond:14,flow seq=041
                      03349 ;; >>> ../../../../src/pic14/gen.c:1378:movwf
                      03350 ;;      1097 rIdx = r0x1045 
                      03351 ;; BANKOPT2 BANKSEL dropped; r0x1043 present in same bank as r0x1042
0004   00??           03352         MOVWF   r0x1043 ;id=161,key=003,inCond:10,outCond:1,flow seq=041,rIdx=r0x1045
                      03353 ;;; ../../../../src/pic14/gen.c:2308:resultRemat *{*
                      03354 ;;; ../../../../src/pic14/gen.c:7467:genReceive *{*
                      03355 ;; ***  genReceive  7468
                      03356 ;;      695 register type nRegs=1
                      03357 ;;; ../../../../src/pic14/gen.c:1892:assignResultValue *{*
                      03358 ;; ***  assignResultValue  1894
                      03359 ;;      line = 1896 result -=-, size=0, left AOP_REG=r0x1047, size=1, right -=-, size=0
                      03360 ;; >>> ../../../../src/pic14/gen.c:1408:get_returnvalue
                      03361 ;; ***  popRegFromIdx,1030  , rIdx=0x7e
                      03362 ;; BANKOPT1 BANKSEL dropped; STK01 present in all of r0x1042's banks
0005   08??           03363         MOVF    STK01,W ;id=171,key=004,inCond:1,outCond:14,flow seq=041
                      03364 ;; >>> ../../../../src/pic14/gen.c:1378:movwf
                      03365 ;;      1097 rIdx = r0x1047 
                      03366 ;; BANKOPT2 BANKSEL dropped; r0x1044 present in same bank as r0x1042
0006   00??           03367         MOVWF   r0x1044 ;id=174,key=005,inCond:10,outCond:1,flow seq=041,rIdx=r0x1047
                      03368 ;;; ../../../../src/pic14/gen.c:2308:resultRemat *{*
                      03369 ;;; ../../../../src/pic14/gen.c:7467:genReceive *{*
                      03370 ;; ***  genReceive  7468
                      03371 ;;      695 register type nRegs=1
                      03372 ;;; ../../../../src/pic14/gen.c:1892:assignResultValue *{*
                      03373 ;; ***  assignResultValue  1894
                      03374 ;;      line = 1896 result -=-, size=0, left AOP_REG=r0x1048, size=1, right -=-, size=0
                      03375 ;; >>> ../../../../src/pic14/gen.c:1408:get_returnvalue
                      03376 ;; ***  popRegFromIdx,1030  , rIdx=0x7d
                      03377 ;; BANKOPT1 BANKSEL dropped; STK02 present in all of r0x1042's banks
0007   08??           03378         MOVF    STK02,W ;id=184,key=006,inCond:1,outCond:14,flow seq=041
                      03379 ;; >>> ../../../../src/pic14/gen.c:1378:movwf
gpasm-1.5.2 #1319 (Aug 29 2019) build/default   30.08.2019  05:22:10        PAGE 65


LOC    OBJECT CODE    LINE  SOURCE TEXT
  VALUE

                      03380 ;;      1097 rIdx = r0x1048 
                      03381 ;; BANKOPT2 BANKSEL dropped; r0x1045 present in same bank as r0x1042
0008   00??           03382         MOVWF   r0x1045 ;id=187,key=007,inCond:10,outCond:1,flow seq=041,rIdx=r0x1048
                      03383 ;;; ../../../../src/pic14/gen.c:2308:resultRemat *{*
                      03384 ;;; ../../../../src/pic14/gen.c:7036:genAssign *{*
                      03385 ;; ***  genAssign  7037
                      03386 ;;      695 register type nRegs=1
                      03387 ;;      line = 7046 result AOP_REG=r0x1049, size=1, left -=-, size=0, right AOP_LIT=0x20, size=1
                      03388 ;; ***  genAssign  7132
                      03389 ;; >>> ../../../../src/pic14/gen.c:7139:genAssign
                      03390 ;       .line   18; "../../../lib/format.c"     char padchar = ' ';
0009   3020           03391         MOVLW   0x20    ;id=196,key=008,inCond:400,outCond:10,flow seq=041
                      03392 ;; >>> ../../../../src/pic14/gen.c:7141:genAssign
                      03393 ;;      1097 rIdx = r0x1049 
                      03394 ;; BANKOPT2 BANKSEL dropped; r0x105B present in same bank as r0x1042
000A   00??           03395         MOVWF   r0x105B ;id=199,key=009,inCond:10,outCond:1,flow seq=041,rIdx=r0x1049
                      03396 ;;; ../../../../src/pic14/gen.c:2308:resultRemat *{*
                      03397 ;;; ../../../../src/pic14/gen.c:3602:genCmpLt *{*
                      03398 ;; ***  genCmpLt  3603
                      03399 ;;      695 register type nRegs=1
                      03400 ;;; ../../../../src/pic14/gen.c:3304:genCmp *{*
                      03401 ;;signed compare: left < lit(0x0=0), size=1, mask=ff
                      03402 ;; >>> ../../../../src/pic14/gen.c:3419:genCmp
                      03403 ;       .line   20; "../../../lib/format.c"     if(pad < 0) {
000B   1403           03404         BSF     STATUS,0        ;id=208,key=00a,inCond:23,outCond:23,flow seq=041
                      03405 ;; >>> ../../../../src/pic14/gen.c:3422:genCmp
                      03406 ;; BANKOPT2 BANKSEL dropped; r0x1045 present in same bank as r0x1042
000C   1F??           03407         BTFSS   r0x1045,7       ;id=210,key=00b,inCond:21,outCond:0,flow seq=041
                      03408 ;<>Start of new flow, seq=0x42 ancestor = 0x41
                      03409 ;  from: 041 ; to: 043 
                      03410 ;; >>> ../../../../src/pic14/gen.c:3424:genCmp
000D   1003           03411         BCF     STATUS,0        ;id=212,key=000,inCond:23,outCond:23,flow seq=042
                      03412 ;<>Start of new flow, seq=0x43 ancestor = 0x41
                      03413 ;  from: 042 041 ; to: 045 044 
                      03414 ;;; ../../../../src/pic14/gen.c:3247:genSkipc *{*
                      03415 ;; >>> ../../../../src/pic14/gen.c:3254:genSkipc
000E   1C03           03416         BTFSS   STATUS,0        ;id=215,key=000,inCond:23,outCond:0,flow seq=043
                      03417 ;<>Start of new flow, seq=0x44 ancestor = 0x43
                      03418 ;  from: 043 ; to: 046 
                      03419 ;; >>> ../../../../src/pic14/gen.c:3256:genSkipc
                      03420 ;; ***  popGetLabel  key=19, label offset 8
000F   2???           03421         GOTO    _00127_DS_      ;id=218,key=000,inCond:0,outCond:0,flow seq=044
                      03422 ;<>Start of new flow, seq=0x45 ancestor = 0x43
                      03423 ;  from: 043 ; to: 046 
                      03424 ;;genSkipc:3257: created from rifx:0x7fffb8dba9b0
                      03425 ;;; ../../../../src/pic14/gen.c:2308:resultRemat *{*
                      03426 ;;; ../../../../src/pic14/gen.c:2308:resultRemat *{*
                      03427 ;;; ../../../../src/pic14/gen.c:1664:genUminus *{*
                      03428 ;; ***  genUminus  1666
                      03429 ;;      695 register type nRegs=1
                      03430 ;;      576
                      03431 ;; >>> ../../../../src/pic14/gen.c:1698:genUminus
                      03432 ;;      1097 rIdx = r0x1048 
gpasm-1.5.2 #1319 (Aug 29 2019) build/default   30.08.2019  05:22:10        PAGE 66


LOC    OBJECT CODE    LINE  SOURCE TEXT
  VALUE

                      03433 ;; BANKOPT2 BANKSEL dropped; r0x1045 present in same bank as r0x1042
                      03434 ;       .line   21; "../../../lib/format.c"     pad = -pad;
0010   09??           03435         COMF    r0x1045,F       ;id=229,key=000,inCond:1,outCond:5,flow seq=045,rIdx=r0x1048
                      03436 ;; >>> ../../../../src/pic14/gen.c:1706:genUminus
                      03437 ;;      1097 rIdx = r0x1048 
                      03438 ;; BANKOPT2 BANKSEL dropped; r0x1045 present in same bank as r0x1042
0011   0A??           03439         INCF    r0x1045,F       ;id=232,key=001,inCond:1,outCond:5,flow seq=045,rIdx=r0x1048
                      03440 ;;; ../../../../src/pic14/gen.c:2308:resultRemat *{*
                      03441 ;;; ../../../../src/pic14/gen.c:7036:genAssign *{*
                      03442 ;; ***  genAssign  7037
                      03443 ;;      695 register type nRegs=1
                      03444 ;;      line = 7046 result AOP_REG=r0x1049, size=1, left -=-, size=0, right AOP_LIT=0x30, size=1
                      03445 ;; ***  genAssign  7132
                      03446 ;; >>> ../../../../src/pic14/gen.c:7139:genAssign
                      03447 ;       .line   22; "../../../lib/format.c"     padchar = '0';
0012   3030           03448         MOVLW   0x30    ;id=241,key=002,inCond:400,outCond:10,flow seq=045
                      03449 ;; >>> ../../../../src/pic14/gen.c:7141:genAssign
                      03450 ;;      1097 rIdx = r0x1049 
                      03451 ;; BANKOPT2 BANKSEL dropped; r0x105B present in same bank as r0x1042
0013   00??           03452         MOVWF   r0x105B ;id=244,key=003,inCond:10,outCond:1,flow seq=045,rIdx=r0x1049
                      03453 ;<>Start of new flow, seq=0x46 ancestor = 0x44
                      03454 ;  from: 045 044 ; to: 047 
                      03455 ;;; ../../../../src/pic14/gen.c:2308:resultRemat *{*
                      03456 ;;; ../../../../src/pic14/gen.c:2752:genLabel *{*
                      03457 ;; ***  genLabel  2755
                      03458 ;_00127_DS_:
                      03459 ;;; ../../../../src/pic14/gen.c:2308:resultRemat *{*
                      03460 ;;; ../../../../src/pic14/gen.c:2308:resultRemat *{*
                      03461 ;;; ../../../../src/pic14/gen.c:7036:genAssign *{*
                      03462 ;; ***  genAssign  7037
                      03463 ;;      695 register type nRegs=1
                      03464 ;;      line = 7046 result AOP_REG=r0x104A, size=1, left -=-, size=0, right AOP_LIT=0x00, size=1
                      03465 ;; ***  genAssign  7132
                      03466 ;; >>> ../../../../src/pic14/gen.c:7144:genAssign
                      03467 ;;      1097 rIdx = r0x104A 
                      03468 ;; BANKOPT3 drop assumptions: PCI with label or call found
0014                  03469 _00127_DS_:
                      03470 ;       .line   30; "../../../lib/format.c"     do {
0014   0??? 0???      03471         BANKSEL r0x1047 ;id=4160,key=000,inCond:0,outCond:0,flow seq=046
0016   01??           03472         CLRF    r0x1047 ;id=260,key=001,inCond:0,outCond:5,flow seq=046,rIdx=r0x104A
                      03473 ;<>Start of new flow, seq=0x47 ancestor = 0x46
                      03474 ;  from: 055 046 ; to: 048 
                      03475 ;;; ../../../../src/pic14/gen.c:2308:resultRemat *{*
                      03476 ;;; ../../../../src/pic14/gen.c:2752:genLabel *{*
                      03477 ;; ***  genLabel  2755
                      03478 ;_00111_DS_:
                      03479 ;;; ../../../../src/pic14/gen.c:2308:resultRemat *{*
                      03480 ;;; ../../../../src/pic14/gen.c:7229:genCast *{*
                      03481 ;; ***  genCast  7230
                      03482 ;;      695 register type nRegs=1
                      03483 ;;      695 register type nRegs=2
                      03484 ;;      line = 7238 result AOP_REG=r0x104B, size=2, left -=-, size=0, right AOP_REG=r0x1047, size=1
                      03485 ;; >>> ../../../../src/pic14/gen.c:7407:genCast
gpasm-1.5.2 #1319 (Aug 29 2019) build/default   30.08.2019  05:22:10        PAGE 67


LOC    OBJECT CODE    LINE  SOURCE TEXT
  VALUE

                      03486 ;;      1097 rIdx = r0x1047 
                      03487 ;;106   MOVF    r0x1044,W
                      03488 ;; >>> ../../../../src/pic14/gen.c:7408:genCast
                      03489 ;;      1097 rIdx = r0x104B 
                      03490 ;; ***  addSign  857
                      03491 ;;; ../../../../src/pic14/genarith.c:858:addSign *{*
                      03492 ;; >>> ../../../../src/pic14/genarith.c:877:addSign
                      03493 ;;      1097 rIdx = r0x104C 
                      03494 ;; BANKOPT3 drop assumptions: PCI with label or call found
0017                  03495 _00111_DS_:
                      03496 ;       .line   34; "../../../lib/format.c"     di = n % base;
0017   0??? 0???      03497         BANKSEL r0x1049 ;id=4162,key=000,inCond:0,outCond:0,flow seq=047
0019   01??           03498         CLRF    r0x1049 ;id=283,key=001,inCond:0,outCond:5,flow seq=047,rIdx=r0x104C
                      03499 ;;; ../../../../src/pic14/gen.c:2308:resultRemat *{*
                      03500 ;;; ../../../../src/pic14/gen.c:2308:resultRemat *{*
                      03501 ;;; ../../../../src/pic14/gen.c:2308:resultRemat *{*
                      03502 ;;; ../../../../src/pic14/gen.c:2071:genCall *{*
                      03503 ;; ***  genCall  2073
                      03504 ;;; ../../../../src/pic14/gen.c:1786:saveRegisters *{*
                      03505 ;; ***  saveRegisters  1788
                      03506 ;;      695 register type nRegs=2
                      03507 ;;      695 register type nRegs=2
                      03508 ;;      695 register type nRegs=2
                      03509 ;;      2120 left AOP_REG
                      03510 ;;; ../../../../src/pic14/gen.c:1328:mov2w_op *{*
                      03511 ;; ***  mov2w  1366  offset=0
                      03512 ;; >>> ../../../../src/pic14/gen.c:1371:mov2w
                      03513 ;;      1097 rIdx = r0x104B 
                      03514 ;;105   MOVF    r0x1048,W
                      03515 ;; BANKOPT2 BANKSEL dropped; r0x1044 present in same bank as r0x1049
001A   08??           03516         MOVF    r0x1044,W       ;id=3690,key=002,inCond:1,outCond:14,flow seq=047,rIdx=r0x1047
                      03517 ;; BANKOPT2 BANKSEL dropped; r0x1048 present in same bank as r0x1049
001B   00??           03518         MOVWF   r0x1048 ;id=278,key=003,inCond:10,outCond:1,flow seq=047,rIdx=r0x104B
                      03519 ;;      2120 left AOP_REG
                      03520 ;; >>> ../../../../src/pic14/gen.c:2128:genCall
                      03521 ;; ***  popRegFromIdx,1030  , rIdx=0x7d
                      03522 ;; BANKOPT1 BANKSEL dropped; STK02 present in all of r0x1049's banks
001C   00??           03523         MOVWF   STK02   ;id=303,key=004,inCond:10,outCond:1,flow seq=047
                      03524 ;;; ../../../../src/pic14/gen.c:1328:mov2w_op *{*
                      03525 ;; ***  mov2w  1366  offset=1
                      03526 ;; >>> ../../../../src/pic14/gen.c:1371:mov2w
                      03527 ;;      1097 rIdx = r0x104C 
001D   3000           03528         MOVLW   0x00    ;id=3693,key=005,inCond:400,outCond:10,flow seq=047
                      03529 ;;      695 register type nRegs=2
                      03530 ;;      2120 left AOP_REG
                      03531 ;; >>> ../../../../src/pic14/gen.c:2128:genCall
                      03532 ;; ***  popRegFromIdx,1030  , rIdx=0x7e
                      03533 ;; BANKOPT1 BANKSEL dropped; STK01 present in all of r0x1049's banks
001E   00??           03534         MOVWF   STK01   ;id=313,key=006,inCond:10,outCond:1,flow seq=047
                      03535 ;;; ../../../../src/pic14/gen.c:1328:mov2w_op *{*
                      03536 ;; ***  mov2w  1366  offset=0
                      03537 ;; >>> ../../../../src/pic14/gen.c:1371:mov2w
                      03538 ;;      1097 rIdx = r0x1045 
gpasm-1.5.2 #1319 (Aug 29 2019) build/default   30.08.2019  05:22:10        PAGE 68


LOC    OBJECT CODE    LINE  SOURCE TEXT
  VALUE

                      03539 ;; BANKOPT2 BANKSEL dropped; r0x1043 present in same bank as r0x1049
001F   08??           03540         MOVF    r0x1043,W       ;id=318,key=007,inCond:1,outCond:14,flow seq=047,rIdx=r0x1045
                      03541 ;;      2120 left AOP_REG
                      03542 ;; >>> ../../../../src/pic14/gen.c:2128:genCall
                      03543 ;; ***  popRegFromIdx,1030  , rIdx=0x7f
                      03544 ;; BANKOPT1 BANKSEL dropped; STK00 present in all of r0x1049's banks
0020   00??           03545         MOVWF   STK00   ;id=322,key=008,inCond:10,outCond:1,flow seq=047
                      03546 ;;; ../../../../src/pic14/gen.c:1328:mov2w_op *{*
                      03547 ;; ***  mov2w  1366  offset=1
                      03548 ;; >>> ../../../../src/pic14/gen.c:1371:mov2w
                      03549 ;;      1097 rIdx = r0x1046 
                      03550 ;; BANKOPT2 BANKSEL dropped; r0x1042 present in same bank as r0x1049
0021   08??           03551         MOVF    r0x1042,W       ;id=327,key=009,inCond:1,outCond:14,flow seq=047,rIdx=r0x1046
                      03552 ;; >>> ../../../../src/pic14/gen.c:2160:genCall
0022   0??? 0???      03553         PAGESEL __moduint       ;id=329,key=00a,inCond:0,outCond:0,flow seq=047
                      03554 ;; >>> ../../../../src/pic14/gen.c:2165:genCall
                      03555 ;; BANKOPT3 drop assumptions: PCI with label or call found
0024   2???           03556         CALL    __moduint       ;id=331,key=00b,inCond:10,outCond:1e,flow seq=047
                      03557 ;<>Start of new flow, seq=0x48 ancestor = 0x47
                      03558 ;  from: 047 ; to: 04a 049 
                      03559 ;; >>> ../../../../src/pic14/gen.c:2173:genCall
0025   0??? 0???      03560         PAGESEL $       ;id=333,key=000,inCond:0,outCond:0,flow seq=048
                      03561 ;;      695 register type nRegs=2
                      03562 ;;; ../../../../src/pic14/gen.c:1892:assignResultValue *{*
                      03563 ;; ***  assignResultValue  1894
                      03564 ;;      line = 1896 result -=-, size=0, left AOP_REG=r0x104D, size=2, right -=-, size=0
                      03565 ;; >>> ../../../../src/pic14/gen.c:1378:movwf
                      03566 ;;      1097 rIdx = r0x104E 
                      03567 ;;1     MOVWF   r0x104A
                      03568 ;; >>> ../../../../src/pic14/gen.c:1408:get_returnvalue
                      03569 ;; ***  popRegFromIdx,1030  , rIdx=0x7f
                      03570 ;; BANKOPT1 BANKSEL dropped; STK00 present in all of (null)'s banks
0027   08??           03571         MOVF    STK00,W ;id=343,key=001,inCond:1,outCond:14,flow seq=048
                      03572 ;; >>> ../../../../src/pic14/gen.c:1378:movwf
                      03573 ;;      1097 rIdx = r0x104D 
0028   0??? 0???      03574         BANKSEL r0x104B ;id=4172,key=002,inCond:0,outCond:0,flow seq=048
002A   00??           03575         MOVWF   r0x104B ;id=3676,key=003,inCond:10,outCond:1,flow seq=048,rIdx=r0x104D
                      03576 ;; BANKOPT2 BANKSEL dropped; r0x104C present in same bank as r0x104B
002B   00??           03577         MOVWF   r0x104C ;id=362,key=004,inCond:10,outCond:1,flow seq=048,rIdx=r0x104F
                      03578 ;;; ../../../../src/pic14/gen.c:2308:resultRemat *{*
                      03579 ;;; ../../../../src/pic14/gen.c:7036:genAssign *{*
                      03580 ;; ***  genAssign  7037
                      03581 ;;      695 register type nRegs=1
                      03582 ;;      695 register type nRegs=1
                      03583 ;;      line = 7046 result AOP_REG=r0x104D, size=1, left -=-, size=0, right AOP_REG=r0x104A, size=1
                      03584 ;; ***  genAssign  7132
                      03585 ;;; ../../../../src/pic14/gen.c:1328:mov2w_op *{*
                      03586 ;; ***  mov2w  1366  offset=0
                      03587 ;; >>> ../../../../src/pic14/gen.c:1371:mov2w
                      03588 ;;      1097 rIdx = r0x104A 
                      03589 ;; BANKOPT2 BANKSEL dropped; r0x1047 present in same bank as r0x104B
                      03590 ;       .line   35; "../../../lib/format.c"     buf[i++] = (di < 10 ? (uint8_t)'0' + di : (uint8_t)'A' +
                             di - 10);
gpasm-1.5.2 #1319 (Aug 29 2019) build/default   30.08.2019  05:22:10        PAGE 69


LOC    OBJECT CODE    LINE  SOURCE TEXT
  VALUE

002C   08??           03591         MOVF    r0x1047,W       ;id=375,key=005,inCond:1,outCond:14,flow seq=048,rIdx=r0x104A
                      03592 ;; >>> ../../../../src/pic14/gen.c:7159:genAssign
                      03593 ;;      1097 rIdx = r0x104D 
                      03594 ;; BANKOPT2 BANKSEL dropped; r0x104D present in same bank as r0x104B
002D   00??           03595         MOVWF   r0x104D ;id=403,key=006,inCond:10,outCond:1,flow seq=048,rIdx=r0x1050
                      03596 ;; BANKOPT2 BANKSEL dropped; r0x104B present in same bank as r0x104B
002E   00??           03597         MOVWF   r0x104B ;id=378,key=007,inCond:10,outCond:1,flow seq=048,rIdx=r0x104D
                      03598 ;;; ../../../../src/pic14/gen.c:2308:resultRemat *{*
                      03599 ;; ***  genPlus  607
                      03600 ;;; ../../../../src/pic14/genarith.c:608:genPlus *{*
                      03601 ;;      695 register type nRegs=1
                      03602 ;;      576
                      03603 ;;      line = 614 result AOP_REG=r0x104A, size=1, left AOP_REG=r0x104A, size=1, right AOP_LIT=0x01, siz
                            e=1
                      03604 ;;; ../../../../src/pic14/genarith.c:138:genPlusIncr *{*
                      03605 ;; ***  genPlusIncr  140
                      03606 ;;      result AOP_REG, left AOP_REG, right AOP_LIT
                      03607 ;;      genPlusIncr  152
                      03608 ;; >>> ../../../../src/pic14/genarith.c:164:genPlusIncr
                      03609 ;;      1097 rIdx = r0x104A 
                      03610 ;; BANKOPT2 BANKSEL dropped; r0x1047 present in same bank as r0x104B
002F   0A??           03611         INCF    r0x1047,F       ;id=391,key=008,inCond:1,outCond:5,flow seq=048,rIdx=r0x104A
                      03612 ;;; ../../../../src/pic14/gen.c:2308:resultRemat *{*
                      03613 ;;; ../../../../src/pic14/gen.c:7229:genCast *{*
                      03614 ;; ***  genCast  7230
                      03615 ;;      695 register type nRegs=1
                      03616 ;;      695 register type nRegs=2
                      03617 ;;      line = 7238 result AOP_REG=r0x1050, size=2, left -=-, size=0, right AOP_REG=r0x104D, size=1
                      03618 ;; >>> ../../../../src/pic14/gen.c:7407:genCast
                      03619 ;;      1097 rIdx = r0x104D 
                      03620 ;;107   MOVF    r0x104B,W
                      03621 ;; >>> ../../../../src/pic14/gen.c:7408:genCast
                      03622 ;;      1097 rIdx = r0x1050 
                      03623 ;; ***  addSign  857
                      03624 ;;; ../../../../src/pic14/genarith.c:858:addSign *{*
                      03625 ;; >>> ../../../../src/pic14/genarith.c:864:addSign
                      03626 ;;      1097 rIdx = r0x1051 
                      03627 ;; BANKOPT2 BANKSEL dropped; r0x104E present in same bank as r0x104B
0030   01??           03628         CLRF    r0x104E ;id=408,key=009,inCond:0,outCond:5,flow seq=048,rIdx=r0x1051
                      03629 ;; >>> ../../../../src/pic14/genarith.c:865:addSign
                      03630 ;; BANKOPT2 BANKSEL dropped; r0x104D present in same bank as r0x104B
0031   1B??           03631         BTFSC   r0x104D,7       ;id=410,key=00a,inCond:21,outCond:0,flow seq=048
                      03632 ;<>Start of new flow, seq=0x49 ancestor = 0x48
                      03633 ;  from: 048 ; to: 04a 
                      03634 ;; >>> ../../../../src/pic14/genarith.c:866:addSign
                      03635 ;;      1097 rIdx = r0x1051 
                      03636 ;; BANKOPT2 BANKSEL dropped; r0x104E present in same bank as r0x104B
0032   03??           03637         DECF    r0x104E,F       ;id=413,key=000,inCond:1,outCond:5,flow seq=049,rIdx=r0x1051
                      03638 ;<>Start of new flow, seq=0x4a ancestor = 0x48
                      03639 ;  from: 049 048 ; to: 04c 04b 
                      03640 ;;; ../../../../src/pic14/gen.c:2308:resultRemat *{*
                      03641 ;; ***  genPlus  607
                      03642 ;;; ../../../../src/pic14/genarith.c:608:genPlus *{*
gpasm-1.5.2 #1319 (Aug 29 2019) build/default   30.08.2019  05:22:10        PAGE 70


LOC    OBJECT CODE    LINE  SOURCE TEXT
  VALUE

                      03643 ;;      614
                      03644 ;;      aopForRemat 393
                      03645 ;;      419: rname _format_number_buf_65536_51, val 0, const = 0
                      03646 ;;      695 register type nRegs=2
                      03647 ;;      695 register type nRegs=2
                      03648 ;;      824: aopGet AOP_PCODE type PO_IMMEDIATE
                      03649 ;;      _format_number_buf_65536_51
                      03650 ;;      line = 614 result AOP_REG=r0x1050, size=2, left AOP_PCODE=_format_number_buf_65536_51, size=2, r
                            ight AOP_REG=r0x1050, size=2
                      03651 ;;; ../../../../src/pic14/genarith.c:138:genPlusIncr *{*
                      03652 ;; ***  genPlusIncr  140
                      03653 ;;      result AOP_REG, left AOP_PCODE, right AOP_REG
                      03654 ;; ***  genPlus  713
                      03655 ;;      824: aopGet AOP_PCODE type PO_IMMEDIATE
                      03656 ;;      _format_number_buf_65536_51
                      03657 ;; >>> ../../../../src/pic14/genarith.c:722:genPlus
                      03658 ;;      1097 rIdx = r0x1050 
                      03659 ;; BANKOPT2 BANKSEL dropped; r0x104D present in same bank as r0x104B
0033   08??           03660         MOVF    r0x104D,W       ;id=433,key=000,inCond:1,outCond:14,flow seq=04a,rIdx=r0x1050
                      03661 ;; >>> ../../../../src/pic14/genarith.c:731:genPlus
0034   3E??           03662         ADDLW   (_format_number_buf_65536_51 + 0)       ;id=435,key=001,inCond:410,outCond:1e,flow seq=0
                            4a
                      03663 ;; >>> ../../../../src/pic14/genarith.c:732:genPlus
                      03664 ;;      1097 rIdx = r0x1050 
                      03665 ;; BANKOPT2 BANKSEL dropped; r0x104D present in same bank as r0x104B
0035   00??           03666         MOVWF   r0x104D ;id=438,key=002,inCond:10,outCond:1,flow seq=04a,rIdx=r0x1050
                      03667 ;; >>> ../../../../src/pic14/genarith.c:767:genPlus
0036   30??           03668         MOVLW   high (_format_number_buf_65536_51 + 0)  ;id=440,key=003,inCond:400,outCond:10,flow seq=0
                            4a
                      03669 ;; >>> ../../../../src/pic14/genarith.c:768:genPlus
                      03670 ;;      1097 rIdx = r0x104D 
                      03671 ;; BANKOPT2 BANKSEL dropped; r0x104B present in same bank as r0x104B
0037   00??           03672         MOVWF   r0x104B ;id=443,key=004,inCond:10,outCond:1,flow seq=04a,rIdx=r0x104D
                      03673 ;; >>> ../../../../src/pic14/genarith.c:770:genPlus
                      03674 ;;      1097 rIdx = r0x1051 
                      03675 ;; BANKOPT2 BANKSEL dropped; r0x104E present in same bank as r0x104B
0038   08??           03676         MOVF    r0x104E,W       ;id=446,key=005,inCond:1,outCond:14,flow seq=04a,rIdx=r0x1051
                      03677 ;; >>> ../../../../src/pic14/genarith.c:771:genPlus
0039   1803           03678         BTFSC   STATUS,0        ;id=448,key=006,inCond:23,outCond:0,flow seq=04a
                      03679 ;<>Start of new flow, seq=0x4b ancestor = 0x4a
                      03680 ;  from: 04a ; to: 04d 04c 
                      03681 ;; >>> ../../../../src/pic14/genarith.c:772:genPlus
                      03682 ;;      1097 rIdx = r0x1051 
                      03683 ;; BANKOPT2 BANKSEL dropped; r0x104E present in same bank as r0x104B
003A   0F??           03684         INCFSZ  r0x104E,W       ;id=451,key=000,inCond:1,outCond:14,flow seq=04b,rIdx=r0x1051
                      03685 ;<>Start of new flow, seq=0x4c ancestor = 0x4a
                      03686 ;  from: 04b 04a ; to: 04d 
                      03687 ;; >>> ../../../../src/pic14/genarith.c:773:genPlus
                      03688 ;;      1097 rIdx = r0x104D 
                      03689 ;; BANKOPT2 BANKSEL dropped; r0x104B present in same bank as r0x104B
003B   07??           03690         ADDWF   r0x104B,F       ;id=454,key=000,inCond:11,outCond:f,flow seq=04c,rIdx=r0x104D
                      03691 ;<>Start of new flow, seq=0x4d ancestor = 0x4b
                      03692 ;  from: 04c 04b ; to: 04f 04e 
gpasm-1.5.2 #1319 (Aug 29 2019) build/default   30.08.2019  05:22:10        PAGE 71


LOC    OBJECT CODE    LINE  SOURCE TEXT
  VALUE

                      03693 ;;; ../../../../src/pic14/gen.c:2308:resultRemat *{*
                      03694 ;;; ../../../../src/pic14/gen.c:3602:genCmpLt *{*
                      03695 ;; ***  genCmpLt  3603
                      03696 ;;      695 register type nRegs=1
                      03697 ;;; ../../../../src/pic14/gen.c:3304:genCmp *{*
                      03698 ;;unsigned compare: left < lit(0xA=10), size=1
                      03699 ;; >>> ../../../../src/pic14/gen.c:3275:pic14_mov2w_regOrLit
003C   300A           03700         MOVLW   0x0a    ;id=462,key=000,inCond:400,outCond:10,flow seq=04d
                      03701 ;; >>> ../../../../src/pic14/gen.c:3442:genCmp
                      03702 ;;      1097 rIdx = r0x104F 
                      03703 ;; BANKOPT2 BANKSEL dropped; r0x104C present in same bank as r0x104B
003D   02??           03704         SUBWF   r0x104C,W       ;id=465,key=001,inCond:11,outCond:1e,flow seq=04d,rIdx=r0x104F
                      03705 ;;; ../../../../src/pic14/gen.c:3247:genSkipc *{*
                      03706 ;; >>> ../../../../src/pic14/gen.c:3252:genSkipc
003E   1803           03707         BTFSC   STATUS,0        ;id=469,key=002,inCond:23,outCond:0,flow seq=04d
                      03708 ;<>Start of new flow, seq=0x4e ancestor = 0x4d
                      03709 ;  from: 04d ; to: 050 
                      03710 ;; >>> ../../../../src/pic14/gen.c:3256:genSkipc
                      03711 ;; ***  popGetLabel  key=15, label offset 8
003F   2???           03712         GOTO    _00123_DS_      ;id=472,key=000,inCond:0,outCond:0,flow seq=04e
                      03713 ;<>Start of new flow, seq=0x4f ancestor = 0x4d
                      03714 ;  from: 04d ; to: 051 
                      03715 ;;genSkipc:3257: created from rifx:0x7fffb8dba9b0
                      03716 ;;; ../../../../src/pic14/gen.c:2308:resultRemat *{*
                      03717 ;;; ../../../../src/pic14/gen.c:2308:resultRemat *{*
                      03718 ;; ***  genPlus  607
                      03719 ;;; ../../../../src/pic14/genarith.c:608:genPlus *{*
                      03720 ;;      695 register type nRegs=1
                      03721 ;;      695 register type nRegs=1
                      03722 ;;      line = 614 result AOP_REG=r0x1051, size=1, left AOP_REG=r0x104F, size=1, right AOP_LIT=0x30, siz
                            e=1
                      03723 ;;; ../../../../src/pic14/genarith.c:138:genPlusIncr *{*
                      03724 ;; ***  genPlusIncr  140
                      03725 ;;      result AOP_REG, left AOP_REG, right AOP_LIT
                      03726 ;;      genPlusIncr  152
                      03727 ;;      adding lit to something. size 1
                      03728 ;;; ../../../../src/pic14/genarith.c:265:genAddLit *{*
                      03729 ;; ***  genAddLit  266
                      03730 ;;  left and result aren't same genAddLit  510
                      03731 ;; >>> ../../../../src/pic14/genarith.c:530:genAddLit
0040   3030           03732         MOVLW   0x30    ;id=490,key=000,inCond:400,outCond:10,flow seq=04f
                      03733 ;; >>> ../../../../src/pic14/genarith.c:531:genAddLit
                      03734 ;;      1097 rIdx = r0x104F 
                      03735 ;; BANKOPT2 BANKSEL dropped; r0x104C present in same bank as r0x104B
0041   07??           03736         ADDWF   r0x104C,W       ;id=493,key=001,inCond:11,outCond:1e,flow seq=04f,rIdx=r0x104F
                      03737 ;;; ../../../../src/pic14/genarith.c:249:emitMOVWF *{*
                      03738 ;; >>> ../../../../src/pic14/genarith.c:253:emitMOVWF
                      03739 ;;      1097 rIdx = r0x1051 
                      03740 ;; BANKOPT2 BANKSEL dropped; r0x104E present in same bank as r0x104B
0042   00??           03741         MOVWF   r0x104E ;id=497,key=002,inCond:10,outCond:1,flow seq=04f,rIdx=r0x1051
                      03742 ;; ***  addSign  857
                      03743 ;;; ../../../../src/pic14/genarith.c:858:addSign *{*
                      03744 ;;; ../../../../src/pic14/gen.c:2308:resultRemat *{*
gpasm-1.5.2 #1319 (Aug 29 2019) build/default   30.08.2019  05:22:10        PAGE 72


LOC    OBJECT CODE    LINE  SOURCE TEXT
  VALUE

                      03745 ;;; ../../../../src/pic14/gen.c:2770:genGoto *{*
                      03746 ;; >>> ../../../../src/pic14/gen.c:2772:genGoto
                      03747 ;; ***  popGetLabel  key=16, label offset 8
0043   2???           03748         GOTO    _00124_DS_      ;id=504,key=003,inCond:0,outCond:0,flow seq=04f
                      03749 ;<>Start of new flow, seq=0x50 ancestor = 0x4e
                      03750 ;  from: 04e ; to: 051 
                      03751 ;goto   _00124_DS_
                      03752 ;;; ../../../../src/pic14/gen.c:2308:resultRemat *{*
                      03753 ;;; ../../../../src/pic14/gen.c:2752:genLabel *{*
                      03754 ;; ***  genLabel  2755
                      03755 ;_00123_DS_:
                      03756 ;;; ../../../../src/pic14/gen.c:2308:resultRemat *{*
                      03757 ;;; ../../../../src/pic14/gen.c:7229:genCast *{*
                      03758 ;; ***  genCast  7230
                      03759 ;;      695 register type nRegs=1
                      03760 ;;      695 register type nRegs=1
                      03761 ;;      line = 7238 result AOP_REG=r0x1052, size=1, left -=-, size=0, right AOP_REG=r0x104F, size=1
                      03762 ;; ***  genCast  7362
                      03763 ;; >>> ../../../../src/pic14/gen.c:7386:genCast
                      03764 ;;      1097 rIdx = r0x104F 
                      03765 ;; BANKOPT3 drop assumptions: PCI with label or call found
0044                  03766 _00123_DS_:
0044   0??? 0???      03767         BANKSEL r0x104C ;id=4191,key=000,inCond:0,outCond:0,flow seq=050
0046   08??           03768         MOVF    r0x104C,W       ;id=520,key=001,inCond:1,outCond:14,flow seq=050,rIdx=r0x104F
                      03769 ;; >>> ../../../../src/pic14/gen.c:7387:genCast
                      03770 ;;      1097 rIdx = r0x1052 
                      03771 ;; BANKOPT2 BANKSEL dropped; r0x104F present in same bank as r0x104C
0047   00??           03772         MOVWF   r0x104F ;id=523,key=002,inCond:10,outCond:1,flow seq=050,rIdx=r0x1052
                      03773 ;;; ../../../../src/pic14/gen.c:2308:resultRemat *{*
                      03774 ;; ***  genPlus  607
                      03775 ;;; ../../../../src/pic14/genarith.c:608:genPlus *{*
                      03776 ;;      695 register type nRegs=1
                      03777 ;;      695 register type nRegs=1
                      03778 ;;      line = 614 result AOP_REG=r0x1051, size=1, left AOP_REG=r0x1052, size=1, right AOP_LIT=0x37, siz
                            e=1
                      03779 ;;; ../../../../src/pic14/genarith.c:138:genPlusIncr *{*
                      03780 ;; ***  genPlusIncr  140
                      03781 ;;      result AOP_REG, left AOP_REG, right AOP_LIT
                      03782 ;;      genPlusIncr  152
                      03783 ;;      adding lit to something. size 1
                      03784 ;;; ../../../../src/pic14/genarith.c:265:genAddLit *{*
                      03785 ;; ***  genAddLit  266
                      03786 ;;  left and result aren't same genAddLit  510
                      03787 ;; >>> ../../../../src/pic14/genarith.c:530:genAddLit
0048   3037           03788         MOVLW   0x37    ;id=539,key=003,inCond:400,outCond:10,flow seq=050
                      03789 ;; >>> ../../../../src/pic14/genarith.c:531:genAddLit
                      03790 ;;      1097 rIdx = r0x1052 
                      03791 ;; BANKOPT2 BANKSEL dropped; r0x104F present in same bank as r0x104C
0049   07??           03792         ADDWF   r0x104F,W       ;id=542,key=004,inCond:11,outCond:1e,flow seq=050,rIdx=r0x1052
                      03793 ;;; ../../../../src/pic14/genarith.c:249:emitMOVWF *{*
                      03794 ;; >>> ../../../../src/pic14/genarith.c:253:emitMOVWF
                      03795 ;;      1097 rIdx = r0x1051 
                      03796 ;; BANKOPT2 BANKSEL dropped; r0x104E present in same bank as r0x104C
gpasm-1.5.2 #1319 (Aug 29 2019) build/default   30.08.2019  05:22:10        PAGE 73


LOC    OBJECT CODE    LINE  SOURCE TEXT
  VALUE

004A   00??           03797         MOVWF   r0x104E ;id=546,key=005,inCond:10,outCond:1,flow seq=050,rIdx=r0x1051
                      03798 ;<>Start of new flow, seq=0x51 ancestor = 0x4f
                      03799 ;  from: 050 04f ; to: 053 052 
                      03800 ;; ***  addSign  857
                      03801 ;;; ../../../../src/pic14/genarith.c:858:addSign *{*
                      03802 ;;; ../../../../src/pic14/gen.c:2308:resultRemat *{*
                      03803 ;;; ../../../../src/pic14/gen.c:2752:genLabel *{*
                      03804 ;; ***  genLabel  2755
                      03805 ;_00124_DS_:
                      03806 ;;; ../../../../src/pic14/gen.c:2308:resultRemat *{*
                      03807 ;;; ../../../../src/pic14/gen.c:6796:genPointerSet *{*
                      03808 ;; ***  genPointerSet  6797
                      03809 ;;; ../../../../src/pic14/gen.c:6615:genNearPointerSet *{*
                      03810 ;; ***  genNearPointerSet  6616
                      03811 ;;      695 register type nRegs=2
                      03812 ;; ***  genNearPointerSet  6631
                      03813 ;;      695 register type nRegs=1
                      03814 ;;      line = 6633 result AOP_REG=r0x1050, size=2, left -=-, size=0, right AOP_REG=r0x1051, size=1
                      03815 ;;; ../../../../src/pic14/gen.c:1328:mov2w_op *{*
                      03816 ;; ***  mov2w  1366  offset=0
                      03817 ;; >>> ../../../../src/pic14/gen.c:1371:mov2w
                      03818 ;;      1097 rIdx = r0x1050 
                      03819 ;; BANKOPT3 drop assumptions: PCI with label or call found
004B                  03820 _00124_DS_:
004B   0??? 0???      03821         BANKSEL r0x104D ;id=4196,key=000,inCond:0,outCond:0,flow seq=051
004D   08??           03822         MOVF    r0x104D,W       ;id=567,key=001,inCond:1,outCond:14,flow seq=051,rIdx=r0x1050
                      03823 ;; >>> ../../../../src/pic14/gen.c:5700:setup_fsr
004E   1283 1303      03824         BANKSEL FSR     ;id=4197,key=002,inCond:0,outCond:0,flow seq=051
0050   0084           03825         MOVWF   FSR     ;id=569,key=003,inCond:10,outCond:1,flow seq=051
                      03826 ;;; ../../../../src/pic14/gen.c:5651:SetIrp *{*
                      03827 ;; >>> ../../../../src/pic14/gen.c:5678:SetIrp
                      03828 ;; BANKOPT1 BANKSEL dropped; STATUS present in all of FSR's banks
0051   1383           03829         BCF     STATUS,7        ;id=572,key=004,inCond:21,outCond:21,flow seq=051
                      03830 ;; >>> ../../../../src/pic14/gen.c:5681:SetIrp
0052   0??? 0???      03831         BANKSEL r0x104B ;id=4199,key=005,inCond:0,outCond:0,flow seq=051
0054   18??           03832         BTFSC   r0x104B,0       ;id=574,key=006,inCond:21,outCond:0,flow seq=051
                      03833 ;<>Start of new flow, seq=0x52 ancestor = 0x51
                      03834 ;  from: 051 ; to: 053 
                      03835 ;; >>> ../../../../src/pic14/gen.c:5682:SetIrp
0055   1783           03836         BSF     STATUS,7        ;id=576,key=000,inCond:21,outCond:21,flow seq=052
                      03837 ;<>Start of new flow, seq=0x53 ancestor = 0x51
                      03838 ;  from: 052 051 ; to: 054 
                      03839 ;; ***  genNearPointerSet  6658
                      03840 ;; >>> ../../../../src/pic14/gen.c:6674:genNearPointerSet
                      03841 ;;      1097 rIdx = r0x1051 
                      03842 ;; BANKOPT2 BANKSEL dropped; r0x104E present in same bank as r0x104B
0056   08??           03843         MOVF    r0x104E,W       ;id=580,key=000,inCond:1,outCond:14,flow seq=053,rIdx=r0x1051
                      03844 ;; >>> ../../../../src/pic14/gen.c:6679:genNearPointerSet
0057   1283 1303      03845         BANKSEL INDF    ;id=4201,key=001,inCond:0,outCond:0,flow seq=053
0059   0080           03846         MOVWF   INDF    ;id=582,key=002,inCond:10,outCond:1,flow seq=053
                      03847 ;; ***  genNearPointerSet  6687
                      03848 ;; ***  genNearPointerSet  6713
                      03849 ;;; ../../../../src/pic14/gen.c:2308:resultRemat *{*
gpasm-1.5.2 #1319 (Aug 29 2019) build/default   30.08.2019  05:22:10        PAGE 74


LOC    OBJECT CODE    LINE  SOURCE TEXT
  VALUE

                      03850 ;;; ../../../../src/pic14/gen.c:2308:resultRemat *{*
                      03851 ;;; ../../../../src/pic14/gen.c:2308:resultRemat *{*
                      03852 ;;; ../../../../src/pic14/gen.c:2071:genCall *{*
                      03853 ;; ***  genCall  2073
                      03854 ;;; ../../../../src/pic14/gen.c:1786:saveRegisters *{*
                      03855 ;; ***  saveRegisters  1788
                      03856 ;;      695 register type nRegs=2
                      03857 ;;      695 register type nRegs=2
                      03858 ;;      695 register type nRegs=2
                      03859 ;;      2120 left AOP_REG
                      03860 ;;; ../../../../src/pic14/gen.c:1328:mov2w_op *{*
                      03861 ;; ***  mov2w  1366  offset=0
                      03862 ;; >>> ../../../../src/pic14/gen.c:1371:mov2w
                      03863 ;;      1097 rIdx = r0x104B 
                      03864 ;       .line   37; "../../../lib/format.c"     n /= base;
005A   0??? 0???      03865         BANKSEL r0x1048 ;id=4202,key=003,inCond:0,outCond:0,flow seq=053
005C   08??           03866         MOVF    r0x1048,W       ;id=601,key=004,inCond:1,outCond:14,flow seq=053,rIdx=r0x104B
                      03867 ;;      2120 left AOP_REG
                      03868 ;; >>> ../../../../src/pic14/gen.c:2128:genCall
                      03869 ;; ***  popRegFromIdx,1030  , rIdx=0x7d
                      03870 ;; BANKOPT1 BANKSEL dropped; STK02 present in all of r0x1048's banks
005D   00??           03871         MOVWF   STK02   ;id=605,key=005,inCond:10,outCond:1,flow seq=053
                      03872 ;;; ../../../../src/pic14/gen.c:1328:mov2w_op *{*
                      03873 ;; ***  mov2w  1366  offset=1
                      03874 ;; >>> ../../../../src/pic14/gen.c:1371:mov2w
                      03875 ;;      1097 rIdx = r0x104C 
                      03876 ;; BANKOPT2 BANKSEL dropped; r0x1049 present in same bank as r0x1048
005E   08??           03877         MOVF    r0x1049,W       ;id=610,key=006,inCond:1,outCond:14,flow seq=053,rIdx=r0x104C
                      03878 ;;      695 register type nRegs=2
                      03879 ;;      2120 left AOP_REG
                      03880 ;; >>> ../../../../src/pic14/gen.c:2128:genCall
                      03881 ;; ***  popRegFromIdx,1030  , rIdx=0x7e
                      03882 ;; BANKOPT1 BANKSEL dropped; STK01 present in all of r0x1048's banks
005F   00??           03883         MOVWF   STK01   ;id=615,key=007,inCond:10,outCond:1,flow seq=053
                      03884 ;;; ../../../../src/pic14/gen.c:1328:mov2w_op *{*
                      03885 ;; ***  mov2w  1366  offset=0
                      03886 ;; >>> ../../../../src/pic14/gen.c:1371:mov2w
                      03887 ;;      1097 rIdx = r0x1045 
                      03888 ;; BANKOPT2 BANKSEL dropped; r0x1043 present in same bank as r0x1048
0060   08??           03889         MOVF    r0x1043,W       ;id=620,key=008,inCond:1,outCond:14,flow seq=053,rIdx=r0x1045
                      03890 ;;      2120 left AOP_REG
                      03891 ;; >>> ../../../../src/pic14/gen.c:2128:genCall
                      03892 ;; ***  popRegFromIdx,1030  , rIdx=0x7f
                      03893 ;; BANKOPT1 BANKSEL dropped; STK00 present in all of r0x1048's banks
0061   00??           03894         MOVWF   STK00   ;id=624,key=009,inCond:10,outCond:1,flow seq=053
                      03895 ;;; ../../../../src/pic14/gen.c:1328:mov2w_op *{*
                      03896 ;; ***  mov2w  1366  offset=1
                      03897 ;; >>> ../../../../src/pic14/gen.c:1371:mov2w
                      03898 ;;      1097 rIdx = r0x1046 
                      03899 ;; BANKOPT2 BANKSEL dropped; r0x1042 present in same bank as r0x1048
0062   08??           03900         MOVF    r0x1042,W       ;id=629,key=00a,inCond:1,outCond:14,flow seq=053,rIdx=r0x1046
                      03901 ;; >>> ../../../../src/pic14/gen.c:2160:genCall
0063   0??? 0???      03902         PAGESEL __divuint       ;id=631,key=00b,inCond:0,outCond:0,flow seq=053
gpasm-1.5.2 #1319 (Aug 29 2019) build/default   30.08.2019  05:22:10        PAGE 75


LOC    OBJECT CODE    LINE  SOURCE TEXT
  VALUE

                      03903 ;; >>> ../../../../src/pic14/gen.c:2165:genCall
                      03904 ;; BANKOPT3 drop assumptions: PCI with label or call found
0065   2???           03905         CALL    __divuint       ;id=633,key=00c,inCond:10,outCond:1e,flow seq=053
                      03906 ;<>Start of new flow, seq=0x54 ancestor = 0x53
                      03907 ;  from: 053 ; to: 056 055 
                      03908 ;; >>> ../../../../src/pic14/gen.c:2173:genCall
0066   0??? 0???      03909         PAGESEL $       ;id=635,key=000,inCond:0,outCond:0,flow seq=054
                      03910 ;;      695 register type nRegs=2
                      03911 ;;; ../../../../src/pic14/gen.c:1892:assignResultValue *{*
                      03912 ;; ***  assignResultValue  1894
                      03913 ;;      line = 1896 result -=-, size=0, left AOP_REG=r0x1045, size=2, right -=-, size=0
                      03914 ;; >>> ../../../../src/pic14/gen.c:1378:movwf
                      03915 ;;      1097 rIdx = r0x1046 
0068   0??? 0???      03916         BANKSEL r0x1042 ;id=4210,key=001,inCond:0,outCond:0,flow seq=054
006A   00??           03917         MOVWF   r0x1042 ;id=642,key=002,inCond:10,outCond:1,flow seq=054,rIdx=r0x1046
                      03918 ;; >>> ../../../../src/pic14/gen.c:1408:get_returnvalue
                      03919 ;; ***  popRegFromIdx,1030  , rIdx=0x7f
                      03920 ;; BANKOPT1 BANKSEL dropped; STK00 present in all of r0x1042's banks
006B   08??           03921         MOVF    STK00,W ;id=645,key=003,inCond:1,outCond:14,flow seq=054
                      03922 ;; >>> ../../../../src/pic14/gen.c:1378:movwf
                      03923 ;;      1097 rIdx = r0x1045 
                      03924 ;; BANKOPT2 BANKSEL dropped; r0x1043 present in same bank as r0x1042
                      03925 ;       .line   38; "../../../lib/format.c"     } while(n > 0);
006C   00??           03926         MOVWF   r0x1043 ;id=3677,key=004,inCond:10,outCond:1,flow seq=054,rIdx=r0x1045
                      03927 ;; BANKOPT2 BANKSEL dropped; r0x1042 present in same bank as r0x1042
006D   04??           03928         IORWF   r0x1042,W       ;id=663,key=005,inCond:11,outCond:14,flow seq=054,rIdx=r0x1046
                      03929 ;; >>> ../../../../src/pic14/gen.c:6917:genIfx
006E   1D03           03930         BTFSS   STATUS,2        ;id=665,key=006,inCond:25,outCond:0,flow seq=054
                      03931 ;<>Start of new flow, seq=0x55 ancestor = 0x54
                      03932 ;  from: 054 ; to: 047 
                      03933 ;; >>> ../../../../src/pic14/gen.c:6918:genIfx
                      03934 ;; ***  popGetLabel  key=3, label offset 8
006F   2???           03935         GOTO    _00111_DS_      ;id=668,key=000,inCond:0,outCond:0,flow seq=055
                      03936 ;<>Start of new flow, seq=0x56 ancestor = 0x54
                      03937 ;  from: 054 ; to: 057 
                      03938 ;;; ../../../../src/pic14/gen.c:2308:resultRemat *{*
                      03939 ;;; ../../../../src/pic14/gen.c:7036:genAssign *{*
                      03940 ;; ***  genAssign  7037
                      03941 ;;      695 register type nRegs=1
                      03942 ;;      695 register type nRegs=1
                      03943 ;;      line = 7046 result AOP_REG=r0x1045, size=1, left -=-, size=0, right AOP_REG=r0x104A, size=1
                      03944 ;; ***  genAssign  7132
                      03945 ;;; ../../../../src/pic14/gen.c:1328:mov2w_op *{*
                      03946 ;; ***  mov2w  1366  offset=0
                      03947 ;; >>> ../../../../src/pic14/gen.c:1371:mov2w
                      03948 ;;      1097 rIdx = r0x104A 
                      03949 ;; BANKOPT2 BANKSEL dropped; r0x1047 present in same bank as r0x1042
                      03950 ;       .line   40; "../../../lib/format.c"     while(pad-- > i) putchar_ptr(padchar);
0070   08??           03951         MOVF    r0x1047,W       ;id=681,key=000,inCond:1,outCond:14,flow seq=056,rIdx=r0x104A
                      03952 ;; >>> ../../../../src/pic14/gen.c:7159:genAssign
                      03953 ;;      1097 rIdx = r0x1045 
                      03954 ;; BANKOPT2 BANKSEL dropped; r0x1043 present in same bank as r0x1042
0071   00??           03955         MOVWF   r0x1043 ;id=684,key=001,inCond:10,outCond:1,flow seq=056,rIdx=r0x1045
gpasm-1.5.2 #1319 (Aug 29 2019) build/default   30.08.2019  05:22:10        PAGE 76


LOC    OBJECT CODE    LINE  SOURCE TEXT
  VALUE

                      03956 ;;; ../../../../src/pic14/gen.c:2308:resultRemat *{*
                      03957 ;;; ../../../../src/pic14/gen.c:7036:genAssign *{*
                      03958 ;; ***  genAssign  7037
                      03959 ;;      695 register type nRegs=1
                      03960 ;;      695 register type nRegs=1
                      03961 ;;      line = 7046 result AOP_REG=r0x1046, size=1, left -=-, size=0, right AOP_REG=r0x1048, size=1
                      03962 ;; ***  genAssign  7132
                      03963 ;;; ../../../../src/pic14/gen.c:1328:mov2w_op *{*
                      03964 ;; ***  mov2w  1366  offset=0
                      03965 ;; >>> ../../../../src/pic14/gen.c:1371:mov2w
                      03966 ;;      1097 rIdx = r0x1048 
                      03967 ;; BANKOPT2 BANKSEL dropped; r0x1045 present in same bank as r0x1042
0072   08??           03968         MOVF    r0x1045,W       ;id=696,key=002,inCond:1,outCond:14,flow seq=056,rIdx=r0x1048
                      03969 ;; >>> ../../../../src/pic14/gen.c:7159:genAssign
                      03970 ;;      1097 rIdx = r0x1046 
                      03971 ;; BANKOPT2 BANKSEL dropped; r0x1042 present in same bank as r0x1042
0073   00??           03972         MOVWF   r0x1042 ;id=699,key=003,inCond:10,outCond:1,flow seq=056,rIdx=r0x1046
                      03973 ;<>Start of new flow, seq=0x57 ancestor = 0x56
                      03974 ;  from: 05c 056 ; to: 059 058 
                      03975 ;;; ../../../../src/pic14/gen.c:2308:resultRemat *{*
                      03976 ;;; ../../../../src/pic14/gen.c:2752:genLabel *{*
                      03977 ;; ***  genLabel  2755
                      03978 ;_00114_DS_:
                      03979 ;;; ../../../../src/pic14/gen.c:2308:resultRemat *{*
                      03980 ;;; ../../../../src/pic14/gen.c:3566:genCmpGt *{*
                      03981 ;; ***  genCmpGt  3567
                      03982 ;;      695 register type nRegs=1
                      03983 ;;      695 register type nRegs=1
                      03984 ;;; ../../../../src/pic14/gen.c:3304:genCmp *{*
                      03985 ;; ***  mov2w  1366  offset=0
                      03986 ;; >>> ../../../../src/pic14/gen.c:1371:mov2w
                      03987 ;;      1097 rIdx = r0x1045 
                      03988 ;; BANKOPT3 drop assumptions: PCI with label or call found
0074                  03989 _00114_DS_:
0074   0??? 0???      03990         BANKSEL r0x1043 ;id=4219,key=000,inCond:0,outCond:0,flow seq=057
0076   08??           03991         MOVF    r0x1043,W       ;id=714,key=001,inCond:1,outCond:14,flow seq=057,rIdx=r0x1045
                      03992 ;; >>> ../../../../src/pic14/gen.c:3472:genCmp
0077   3E80           03993         ADDLW   0x80    ;id=716,key=002,inCond:410,outCond:1e,flow seq=057
                      03994 ;; >>> ../../../../src/pic14/gen.c:3473:genCmp
                      03995 ;; BANKOPT2 BANKSEL dropped; r0x1050 present in same bank as r0x1043
0078   00??           03996         MOVWF   r0x1050 ;id=718,key=003,inCond:10,outCond:1,flow seq=057,rIdx=r0x1054
                      03997 ;; ***  mov2w  1366  offset=0
                      03998 ;; >>> ../../../../src/pic14/gen.c:1371:mov2w
                      03999 ;;      1097 rIdx = r0x1046 
                      04000 ;; BANKOPT2 BANKSEL dropped; r0x1042 present in same bank as r0x1043
0079   08??           04001         MOVF    r0x1042,W       ;id=722,key=004,inCond:1,outCond:14,flow seq=057,rIdx=r0x1046
                      04002 ;; >>> ../../../../src/pic14/gen.c:3475:genCmp
007A   3E80           04003         ADDLW   0x80    ;id=724,key=005,inCond:410,outCond:1e,flow seq=057
                      04004 ;; >>> ../../../../src/pic14/gen.c:3476:genCmp
                      04005 ;; BANKOPT2 BANKSEL dropped; r0x1050 present in same bank as r0x1043
007B   02??           04006         SUBWF   r0x1050,W       ;id=726,key=006,inCond:11,outCond:1e,flow seq=057,rIdx=r0x1054
                      04007 ;;; ../../../../src/pic14/gen.c:3247:genSkipc *{*
                      04008 ;; >>> ../../../../src/pic14/gen.c:3252:genSkipc
gpasm-1.5.2 #1319 (Aug 29 2019) build/default   30.08.2019  05:22:10        PAGE 77


LOC    OBJECT CODE    LINE  SOURCE TEXT
  VALUE

007C   1803           04009         BTFSC   STATUS,0        ;id=730,key=007,inCond:23,outCond:0,flow seq=057
                      04010 ;<>Start of new flow, seq=0x58 ancestor = 0x57
                      04011 ;  from: 057 ; to: 05d 
                      04012 ;; >>> ../../../../src/pic14/gen.c:3256:genSkipc
                      04013 ;; ***  popGetLabel  key=11, label offset 8
007D   2???           04014         GOTO    _00119_DS_      ;id=733,key=000,inCond:0,outCond:0,flow seq=058
                      04015 ;<>Start of new flow, seq=0x59 ancestor = 0x57
                      04016 ;  from: 057 ; to: 05a 05b 
                      04017 ;;genSkipc:3257: created from rifx:0x7fffb8dba9b0
                      04018 ;;; ../../../../src/pic14/gen.c:2308:resultRemat *{*
                      04019 ;;; ../../../../src/pic14/gen.c:2308:resultRemat *{*
                      04020 ;;; ../../../../src/pic14/gen.c:7426:genDjnz *{*
                      04021 ;; ***  genDjnz  7427
                      04022 ;;; ../../../../src/pic14/genarith.c:892:genMinus *{*
                      04023 ;; ***  genMinus  893
                      04024 ;;      695 register type nRegs=1
                      04025 ;;      576
                      04026 ;;      result AOP_REG, left AOP_REG, right AOP_LIT
                      04027 ;;; ../../../../src/pic14/genarith.c:265:genAddLit *{*
                      04028 ;; ***  genAddLit  266
                      04029 ;;; ../../../../src/pic14/genarith.c:229:genAddLit2byte *{*
                      04030 ;; >>> ../../../../src/pic14/genarith.c:238:genAddLit2byte
                      04031 ;;      1097 rIdx = r0x1046 
                      04032 ;; BANKOPT2 BANKSEL dropped; r0x1042 present in same bank as r0x1043
007E   03??           04033         DECF    r0x1042,F       ;id=749,key=000,inCond:1,outCond:5,flow seq=059,rIdx=r0x1046
                      04034 ;; ***  addSign  857
                      04035 ;;; ../../../../src/pic14/genarith.c:858:addSign *{*
                      04036 ;;; ../../../../src/pic14/gen.c:2308:resultRemat *{*
                      04037 ;;; ../../../../src/pic14/gen.c:2308:resultRemat *{*
                      04038 ;;; ../../../../src/pic14/gen.c:2215:genPcall *{*
                      04039 ;; ***  genPcall  2217
                      04040 ;;; ../../../../src/pic14/gen.c:1786:saveRegisters *{*
                      04041 ;; ***  saveRegisters  1788
                      04042 ;; ***  aopForSym 316
                      04043 ;;      328 sym->rname = _putchar_ptr, size = 2
                      04044 ;;      line = 2231 result -=-, size=0, left AOP_DIR=_putchar_ptr, size=2, right -=-, size=0
                      04045 ;; ***  genPcall  2240 - WARNING arg-passing to indirect call not supported
                      04046 ;; >>> ../../../../src/pic14/gen.c:2260:genPcall
                      04047 ;; ***  popGetLabel  key=52, label offset 8
                      04048 ;; BANKOPT3 drop assumptions: PCI with label or call found
007F   2???           04049         CALL    _00160_DS_      ;id=764,key=001,inCond:10,outCond:1e,flow seq=059
                      04050 ;<>Start of new flow, seq=0x5a ancestor = 0x59
                      04051 ;  from: 059 ; to: 05c 
                      04052 ;; ***  popGetLabel  key=53, label offset 8
                      04053 ;; >>> ../../../../src/pic14/gen.c:2262:genPcall
0080   0??? 0???      04054         PAGESEL _00161_DS_      ;id=767,key=000,inCond:0,outCond:0,flow seq=05a
                      04055 ;; >>> ../../../../src/pic14/gen.c:2263:genPcall
0082   2???           04056         GOTO    _00161_DS_      ;id=769,key=001,inCond:0,outCond:0,flow seq=05a
                      04057 ;<>Start of new flow, seq=0x5b ancestor = 0x59
                      04058 ;  from: 059 ; to: 05c 
                      04059 ;; >>> ../../../../src/pic14/gen.c:2266:genPcall
                      04060 ;;      998
                      04061 ;;      1012  _putchar_ptr   offset=1 - had to alloc by reg name
gpasm-1.5.2 #1319 (Aug 29 2019) build/default   30.08.2019  05:22:10        PAGE 78


LOC    OBJECT CODE    LINE  SOURCE TEXT
  VALUE

                      04062 ;; BANKOPT3 drop assumptions: PCI with label or call found
0083                  04063 _00160_DS_:
0083   0??? 0???      04064         BANKSEL _putchar_ptr    ;id=4226,key=000,inCond:0,outCond:0,flow seq=05b
0085   08??           04065         MOVF    (_putchar_ptr + 1),W    ;id=774,key=001,inCond:1,outCond:14,flow seq=05b
                      04066 ;; >>> ../../../../src/pic14/gen.c:2267:genPcall
0086   1283 1303      04067         BANKSEL PCLATH  ;id=4227,key=002,inCond:0,outCond:0,flow seq=05b
0088   008A           04068         MOVWF   PCLATH  ;id=776,key=003,inCond:10,outCond:1,flow seq=05b
                      04069 ;; >>> ../../../../src/pic14/gen.c:2268:genPcall
                      04070 ;;      998
                      04071 ;;      1016  _putchar_ptr   offset=0
0089   0??? 0???      04072         BANKSEL _putchar_ptr    ;id=4228,key=004,inCond:0,outCond:0,flow seq=05b
008B   08??           04073         MOVF    _putchar_ptr,W  ;id=780,key=005,inCond:1,outCond:14,flow seq=05b
                      04074 ;; >>> ../../../../src/pic14/gen.c:2269:genPcall
008C   1283 1303      04075         BANKSEL PCL     ;id=4229,key=006,inCond:0,outCond:0,flow seq=05b
008E   0082           04076         MOVWF   PCL     ;id=782,key=007,inCond:10,outCond:1,flow seq=05b
                      04077 ;<>Start of new flow, seq=0x5c ancestor = 0x5a
                      04078 ;  from: 05b 05a ; to: 057 
                      04079 ;;; ../../../../src/pic14/gen.c:1830:unsaveRegisters *{*
                      04080 ;; ***  unsaveRegisters  1832
                      04081 ;;; ../../../../src/pic14/gen.c:2308:resultRemat *{*
                      04082 ;;; ../../../../src/pic14/gen.c:2770:genGoto *{*
                      04083 ;; >>> ../../../../src/pic14/gen.c:2772:genGoto
                      04084 ;; ***  popGetLabel  key=6, label offset 8
                      04085 ;; BANKOPT3 drop assumptions: PCI with label or call found
008F                  04086 _00161_DS_:
008F   2???           04087         GOTO    _00114_DS_      ;id=790,key=000,inCond:0,outCond:0,flow seq=05c
                      04088 ;<>Start of new flow, seq=0x5d ancestor = 0x58
                      04089 ;  from: 069 058 ; to: 05f 05e 
                      04090 ;goto   _00114_DS_
                      04091 ;;; ../../../../src/pic14/gen.c:2308:resultRemat *{*
                      04092 ;;; ../../../../src/pic14/gen.c:2752:genLabel *{*
                      04093 ;; ***  genLabel  2755
                      04094 ;_00119_DS_:
                      04095 ;;; ../../../../src/pic14/gen.c:2308:resultRemat *{*
                      04096 ;;; ../../../../src/pic14/gen.c:3566:genCmpGt *{*
                      04097 ;; ***  genCmpGt  3567
                      04098 ;;      695 register type nRegs=1
                      04099 ;;; ../../../../src/pic14/gen.c:3304:genCmp *{*
                      04100 ;;swapping arguments (AOP_TYPEs 1/2)
                      04101 ;;signed compare: left >= lit(0x1=1), size=1, mask=ff
                      04102 ;; ***  mov2w  1366  offset=0
                      04103 ;; >>> ../../../../src/pic14/gen.c:1371:mov2w
                      04104 ;;      1097 rIdx = r0x1045 
                      04105 ;; BANKOPT3 drop assumptions: PCI with label or call found
0090                  04106 _00119_DS_:
                      04107 ;       .line   42; "../../../lib/format.c"     for(; i > 0; i--) putchar_ptr((char)buf[(int16_t)i - 1])
                            ;
0090   0??? 0???      04108         BANKSEL r0x1043 ;id=4232,key=000,inCond:0,outCond:0,flow seq=05d
0092   08??           04109         MOVF    r0x1043,W       ;id=808,key=001,inCond:1,outCond:14,flow seq=05d,rIdx=r0x1045
                      04110 ;; >>> ../../../../src/pic14/gen.c:3464:genCmp
0093   3E80           04111         ADDLW   0x80    ;id=810,key=002,inCond:410,outCond:1e,flow seq=05d
                      04112 ;; >>> ../../../../src/pic14/gen.c:3465:genCmp
0094   3E7F           04113         ADDLW   0x7f    ;id=812,key=003,inCond:410,outCond:1e,flow seq=05d
gpasm-1.5.2 #1319 (Aug 29 2019) build/default   30.08.2019  05:22:10        PAGE 79


LOC    OBJECT CODE    LINE  SOURCE TEXT
  VALUE

                      04114 ;;; ../../../../src/pic14/gen.c:3247:genSkipc *{*
                      04115 ;; >>> ../../../../src/pic14/gen.c:3254:genSkipc
0095   1C03           04116         BTFSS   STATUS,0        ;id=816,key=004,inCond:23,outCond:0,flow seq=05d
                      04117 ;<>Start of new flow, seq=0x5e ancestor = 0x5d
                      04118 ;  from: 05d ; to: 06a 
                      04119 ;; >>> ../../../../src/pic14/gen.c:3256:genSkipc
                      04120 ;; ***  popGetLabel  key=13, label offset 8
0096   2???           04121         GOTO    _00121_DS_      ;id=819,key=000,inCond:0,outCond:0,flow seq=05e
                      04122 ;<>Start of new flow, seq=0x5f ancestor = 0x5d
                      04123 ;  from: 05d ; to: 061 060 
                      04124 ;;genSkipc:3257: created from rifx:0x7fffb8dba9b0
                      04125 ;;; ../../../../src/pic14/gen.c:2308:resultRemat *{*
                      04126 ;;; ../../../../src/pic14/gen.c:2308:resultRemat *{*
                      04127 ;;; ../../../../src/pic14/gen.c:7426:genDjnz *{*
                      04128 ;; ***  genDjnz  7427
                      04129 ;;; ../../../../src/pic14/genarith.c:892:genMinus *{*
                      04130 ;; ***  genMinus  893
                      04131 ;;      695 register type nRegs=1
                      04132 ;;      695 register type nRegs=1
                      04133 ;;      result AOP_REG, left AOP_REG, right AOP_LIT
                      04134 ;;; ../../../../src/pic14/genarith.c:265:genAddLit *{*
                      04135 ;; ***  genAddLit  266
                      04136 ;;  left and result aren't same genAddLit  510
                      04137 ;; >>> ../../../../src/pic14/genarith.c:526:genAddLit
                      04138 ;;      1097 rIdx = r0x1045 
                      04139 ;; BANKOPT2 BANKSEL dropped; r0x1043 present in same bank as r0x1043
0097   03??           04140         DECF    r0x1043,W       ;id=835,key=000,inCond:1,outCond:14,flow seq=05f,rIdx=r0x1045
                      04141 ;;; ../../../../src/pic14/genarith.c:249:emitMOVWF *{*
                      04142 ;; >>> ../../../../src/pic14/genarith.c:253:emitMOVWF
                      04143 ;;      1097 rIdx = r0x1046 
                      04144 ;; BANKOPT2 BANKSEL dropped; r0x1042 present in same bank as r0x1043
0098   00??           04145         MOVWF   r0x1042 ;id=3678,key=001,inCond:10,outCond:1,flow seq=05f,rIdx=r0x1046
                      04146 ;; BANKOPT2 BANKSEL dropped; r0x1044 present in same bank as r0x1043
0099   00??           04147         MOVWF   r0x1044 ;id=853,key=002,inCond:10,outCond:1,flow seq=05f,rIdx=r0x1047
                      04148 ;; ***  addSign  857
                      04149 ;;; ../../../../src/pic14/genarith.c:858:addSign *{*
                      04150 ;; >>> ../../../../src/pic14/genarith.c:864:addSign
                      04151 ;;      1097 rIdx = r0x1048 
                      04152 ;; BANKOPT2 BANKSEL dropped; r0x1045 present in same bank as r0x1043
009A   01??           04153         CLRF    r0x1045 ;id=858,key=003,inCond:0,outCond:5,flow seq=05f,rIdx=r0x1048
                      04154 ;; >>> ../../../../src/pic14/genarith.c:865:addSign
                      04155 ;; BANKOPT2 BANKSEL dropped; r0x1044 present in same bank as r0x1043
009B   1B??           04156         BTFSC   r0x1044,7       ;id=860,key=004,inCond:21,outCond:0,flow seq=05f
                      04157 ;<>Start of new flow, seq=0x60 ancestor = 0x5f
                      04158 ;  from: 05f ; to: 061 
                      04159 ;; >>> ../../../../src/pic14/genarith.c:866:addSign
                      04160 ;;      1097 rIdx = r0x1048 
                      04161 ;; BANKOPT2 BANKSEL dropped; r0x1045 present in same bank as r0x1043
009C   03??           04162         DECF    r0x1045,F       ;id=863,key=000,inCond:1,outCond:5,flow seq=060,rIdx=r0x1048
                      04163 ;<>Start of new flow, seq=0x61 ancestor = 0x5f
                      04164 ;  from: 060 05f ; to: 063 062 
                      04165 ;;; ../../../../src/pic14/gen.c:2308:resultRemat *{*
                      04166 ;; ***  genPlus  607
gpasm-1.5.2 #1319 (Aug 29 2019) build/default   30.08.2019  05:22:10        PAGE 80


LOC    OBJECT CODE    LINE  SOURCE TEXT
  VALUE

                      04167 ;;; ../../../../src/pic14/genarith.c:608:genPlus *{*
                      04168 ;;      614
                      04169 ;;      aopForRemat 393
                      04170 ;;      419: rname _format_number_buf_65536_51, val 0, const = 0
                      04171 ;;      695 register type nRegs=2
                      04172 ;;      695 register type nRegs=2
                      04173 ;;      824: aopGet AOP_PCODE type PO_IMMEDIATE
                      04174 ;;      _format_number_buf_65536_51
                      04175 ;;      line = 614 result AOP_REG=r0x1047, size=2, left AOP_PCODE=_format_number_buf_65536_51, size=2, r
                            ight AOP_REG=r0x1047, size=2
                      04176 ;;; ../../../../src/pic14/genarith.c:138:genPlusIncr *{*
                      04177 ;; ***  genPlusIncr  140
                      04178 ;;      result AOP_REG, left AOP_PCODE, right AOP_REG
                      04179 ;; ***  genPlus  713
                      04180 ;;      824: aopGet AOP_PCODE type PO_IMMEDIATE
                      04181 ;;      _format_number_buf_65536_51
                      04182 ;; >>> ../../../../src/pic14/genarith.c:722:genPlus
                      04183 ;;      1097 rIdx = r0x1047 
                      04184 ;; BANKOPT2 BANKSEL dropped; r0x1044 present in same bank as r0x1043
009D   08??           04185         MOVF    r0x1044,W       ;id=883,key=000,inCond:1,outCond:14,flow seq=061,rIdx=r0x1047
                      04186 ;; >>> ../../../../src/pic14/genarith.c:731:genPlus
009E   3E??           04187         ADDLW   (_format_number_buf_65536_51 + 0)       ;id=885,key=001,inCond:410,outCond:1e,flow seq=0
                            61
                      04188 ;; >>> ../../../../src/pic14/genarith.c:732:genPlus
                      04189 ;;      1097 rIdx = r0x1047 
                      04190 ;; BANKOPT2 BANKSEL dropped; r0x1044 present in same bank as r0x1043
009F   00??           04191         MOVWF   r0x1044 ;id=888,key=002,inCond:10,outCond:1,flow seq=061,rIdx=r0x1047
                      04192 ;; >>> ../../../../src/pic14/genarith.c:745:genPlus
                      04193 ;;      1097 rIdx = r0x1048 
                      04194 ;; BANKOPT2 BANKSEL dropped; r0x1045 present in same bank as r0x1043
00A0   08??           04195         MOVF    r0x1045,W       ;id=891,key=003,inCond:1,outCond:14,flow seq=061,rIdx=r0x1048
                      04196 ;; >>> ../../../../src/pic14/genarith.c:746:genPlus
00A1   1803           04197         BTFSC   STATUS,0        ;id=893,key=004,inCond:23,outCond:0,flow seq=061
                      04198 ;<>Start of new flow, seq=0x62 ancestor = 0x61
                      04199 ;  from: 061 ; to: 064 063 
                      04200 ;; >>> ../../../../src/pic14/genarith.c:747:genPlus
                      04201 ;;      1097 rIdx = r0x1048 
                      04202 ;; BANKOPT2 BANKSEL dropped; r0x1045 present in same bank as r0x1043
00A2   0F??           04203         INCFSZ  r0x1045,W       ;id=896,key=000,inCond:1,outCond:14,flow seq=062,rIdx=r0x1048
                      04204 ;<>Start of new flow, seq=0x63 ancestor = 0x61
                      04205 ;  from: 062 061 ; to: 064 
                      04206 ;; >>> ../../../../src/pic14/genarith.c:748:genPlus
00A3   3E??           04207         ADDLW   high (_format_number_buf_65536_51 + 0)  ;id=898,key=000,inCond:410,outCond:1e,flow seq=0
                            63
                      04208 ;<>Start of new flow, seq=0x64 ancestor = 0x62
                      04209 ;  from: 063 062 ; to: 066 065 
                      04210 ;; >>> ../../../../src/pic14/genarith.c:749:genPlus
                      04211 ;;      1097 rIdx = r0x1048 
                      04212 ;; BANKOPT2 BANKSEL dropped; r0x1045 present in same bank as r0x1043
00A4   00??           04213         MOVWF   r0x1045 ;id=901,key=000,inCond:10,outCond:1,flow seq=064,rIdx=r0x1048
                      04214 ;;; ../../../../src/pic14/gen.c:2308:resultRemat *{*
                      04215 ;;; ../../../../src/pic14/gen.c:6260:genPointerGet *{*
                      04216 ;; ***  genPointerGet  6261
gpasm-1.5.2 #1319 (Aug 29 2019) build/default   30.08.2019  05:22:10        PAGE 81


LOC    OBJECT CODE    LINE  SOURCE TEXT
  VALUE

                      04217 ;;; ../../../../src/pic14/gen.c:6042:genNearPointerGet *{*
                      04218 ;; ***  genNearPointerGet  6043
                      04219 ;;      695 register type nRegs=2
                      04220 ;; ***  genNearPointerGet  6059
                      04221 ;;      695 register type nRegs=1
                      04222 ;;; ../../../../src/pic14/gen.c:1328:mov2w_op *{*
                      04223 ;; ***  mov2w  1366  offset=0
                      04224 ;; >>> ../../../../src/pic14/gen.c:1371:mov2w
                      04225 ;;      1097 rIdx = r0x1047 
                      04226 ;; BANKOPT2 BANKSEL dropped; r0x1044 present in same bank as r0x1043
00A5   08??           04227         MOVF    r0x1044,W       ;id=914,key=001,inCond:1,outCond:14,flow seq=064,rIdx=r0x1047
                      04228 ;; >>> ../../../../src/pic14/gen.c:5700:setup_fsr
00A6   1283 1303      04229         BANKSEL FSR     ;id=4245,key=002,inCond:0,outCond:0,flow seq=064
00A8   0084           04230         MOVWF   FSR     ;id=916,key=003,inCond:10,outCond:1,flow seq=064
                      04231 ;;; ../../../../src/pic14/gen.c:5651:SetIrp *{*
                      04232 ;; >>> ../../../../src/pic14/gen.c:5678:SetIrp
                      04233 ;; BANKOPT1 BANKSEL dropped; STATUS present in all of FSR's banks
00A9   1383           04234         BCF     STATUS,7        ;id=919,key=004,inCond:21,outCond:21,flow seq=064
                      04235 ;; >>> ../../../../src/pic14/gen.c:5681:SetIrp
00AA   0??? 0???      04236         BANKSEL r0x1045 ;id=4247,key=005,inCond:0,outCond:0,flow seq=064
00AC   18??           04237         BTFSC   r0x1045,0       ;id=921,key=006,inCond:21,outCond:0,flow seq=064
                      04238 ;<>Start of new flow, seq=0x65 ancestor = 0x64
                      04239 ;  from: 064 ; to: 066 
                      04240 ;; >>> ../../../../src/pic14/gen.c:5682:SetIrp
00AD   1783           04241         BSF     STATUS,7        ;id=923,key=000,inCond:21,outCond:21,flow seq=065
                      04242 ;<>Start of new flow, seq=0x66 ancestor = 0x64
                      04243 ;  from: 065 064 ; to: 067 068 
                      04244 ;; ***  genNearPointerGet  6086
                      04245 ;; >>> ../../../../src/pic14/gen.c:6093:genNearPointerGet
00AE   1283 1303      04246         BANKSEL INDF    ;id=4248,key=000,inCond:0,outCond:0,flow seq=066
00B0   0800           04247         MOVF    INDF,W  ;id=926,key=001,inCond:1,outCond:14,flow seq=066
                      04248 ;; >>> ../../../../src/pic14/gen.c:6100:genNearPointerGet
                      04249 ;;      1097 rIdx = r0x1049 
00B1   0??? 0???      04250         BANKSEL r0x105B ;id=4249,key=002,inCond:0,outCond:0,flow seq=066
00B3   00??           04251         MOVWF   r0x105B ;id=929,key=003,inCond:10,outCond:1,flow seq=066,rIdx=r0x1049
                      04252 ;;; ../../../../src/pic14/gen.c:2308:resultRemat *{*
                      04253 ;;; ../../../../src/pic14/gen.c:2308:resultRemat *{*
                      04254 ;;; ../../../../src/pic14/gen.c:2215:genPcall *{*
                      04255 ;; ***  genPcall  2217
                      04256 ;;; ../../../../src/pic14/gen.c:1786:saveRegisters *{*
                      04257 ;; ***  saveRegisters  1788
                      04258 ;; ***  aopForSym 316
                      04259 ;;      328 sym->rname = _putchar_ptr, size = 2
                      04260 ;;      line = 2231 result -=-, size=0, left AOP_DIR=_putchar_ptr, size=2, right -=-, size=0
                      04261 ;; ***  genPcall  2240 - WARNING arg-passing to indirect call not supported
                      04262 ;; >>> ../../../../src/pic14/gen.c:2260:genPcall
                      04263 ;; ***  popGetLabel  key=55, label offset 8
                      04264 ;; BANKOPT3 drop assumptions: PCI with label or call found
00B4   2???           04265         CALL    _00163_DS_      ;id=942,key=004,inCond:10,outCond:1e,flow seq=066
                      04266 ;<>Start of new flow, seq=0x67 ancestor = 0x66
                      04267 ;  from: 066 ; to: 069 
                      04268 ;; ***  popGetLabel  key=56, label offset 8
                      04269 ;; >>> ../../../../src/pic14/gen.c:2262:genPcall
gpasm-1.5.2 #1319 (Aug 29 2019) build/default   30.08.2019  05:22:10        PAGE 82


LOC    OBJECT CODE    LINE  SOURCE TEXT
  VALUE

00B5   0??? 0???      04270         PAGESEL _00164_DS_      ;id=945,key=000,inCond:0,outCond:0,flow seq=067
                      04271 ;; >>> ../../../../src/pic14/gen.c:2263:genPcall
00B7   2???           04272         GOTO    _00164_DS_      ;id=947,key=001,inCond:0,outCond:0,flow seq=067
                      04273 ;<>Start of new flow, seq=0x68 ancestor = 0x66
                      04274 ;  from: 066 ; to: 069 
                      04275 ;; >>> ../../../../src/pic14/gen.c:2266:genPcall
                      04276 ;;      998
                      04277 ;;      1016  _putchar_ptr   offset=1
                      04278 ;; BANKOPT3 drop assumptions: PCI with label or call found
00B8                  04279 _00163_DS_:
00B8   0??? 0???      04280         BANKSEL _putchar_ptr    ;id=4252,key=000,inCond:0,outCond:0,flow seq=068
00BA   08??           04281         MOVF    (_putchar_ptr + 1),W    ;id=952,key=001,inCond:1,outCond:14,flow seq=068
                      04282 ;; >>> ../../../../src/pic14/gen.c:2267:genPcall
00BB   1283 1303      04283         BANKSEL PCLATH  ;id=4253,key=002,inCond:0,outCond:0,flow seq=068
00BD   008A           04284         MOVWF   PCLATH  ;id=954,key=003,inCond:10,outCond:1,flow seq=068
                      04285 ;; >>> ../../../../src/pic14/gen.c:2268:genPcall
                      04286 ;;      998
                      04287 ;;      1016  _putchar_ptr   offset=0
00BE   0??? 0???      04288         BANKSEL _putchar_ptr    ;id=4254,key=004,inCond:0,outCond:0,flow seq=068
00C0   08??           04289         MOVF    _putchar_ptr,W  ;id=958,key=005,inCond:1,outCond:14,flow seq=068
                      04290 ;; >>> ../../../../src/pic14/gen.c:2269:genPcall
00C1   1283 1303      04291         BANKSEL PCL     ;id=4255,key=006,inCond:0,outCond:0,flow seq=068
00C3   0082           04292         MOVWF   PCL     ;id=960,key=007,inCond:10,outCond:1,flow seq=068
                      04293 ;<>Start of new flow, seq=0x69 ancestor = 0x67
                      04294 ;  from: 068 067 ; to: 05d 
                      04295 ;;; ../../../../src/pic14/gen.c:1830:unsaveRegisters *{*
                      04296 ;; ***  unsaveRegisters  1832
                      04297 ;;; ../../../../src/pic14/gen.c:2308:resultRemat *{*
                      04298 ;;; ../../../../src/pic14/gen.c:7036:genAssign *{*
                      04299 ;; ***  genAssign  7037
                      04300 ;;      695 register type nRegs=1
                      04301 ;;      695 register type nRegs=1
                      04302 ;;      line = 7046 result AOP_REG=r0x1045, size=1, left -=-, size=0, right AOP_REG=r0x1046, size=1
                      04303 ;; ***  genAssign  7132
                      04304 ;;; ../../../../src/pic14/gen.c:1328:mov2w_op *{*
                      04305 ;; ***  mov2w  1366  offset=0
                      04306 ;; >>> ../../../../src/pic14/gen.c:1371:mov2w
                      04307 ;;      1097 rIdx = r0x1046 
                      04308 ;; BANKOPT3 drop assumptions: PCI with label or call found
00C4                  04309 _00164_DS_:
00C4   0??? 0???      04310         BANKSEL r0x1042 ;id=4257,key=000,inCond:0,outCond:0,flow seq=069
00C6   08??           04311         MOVF    r0x1042,W       ;id=975,key=001,inCond:1,outCond:14,flow seq=069,rIdx=r0x1046
                      04312 ;; >>> ../../../../src/pic14/gen.c:7159:genAssign
                      04313 ;;      1097 rIdx = r0x1045 
                      04314 ;; BANKOPT2 BANKSEL dropped; r0x1043 present in same bank as r0x1042
00C7   00??           04315         MOVWF   r0x1043 ;id=978,key=002,inCond:10,outCond:1,flow seq=069,rIdx=r0x1045
                      04316 ;;; ../../../../src/pic14/gen.c:2308:resultRemat *{*
                      04317 ;;; ../../../../src/pic14/gen.c:2770:genGoto *{*
                      04318 ;; >>> ../../../../src/pic14/gen.c:2772:genGoto
                      04319 ;; ***  popGetLabel  key=11, label offset 8
00C8   2???           04320         GOTO    _00119_DS_      ;id=983,key=003,inCond:0,outCond:0,flow seq=069
                      04321 ;<>Start of new flow, seq=0x6a ancestor = 0x5e
                      04322 ;  from: 05e ; to: 
gpasm-1.5.2 #1319 (Aug 29 2019) build/default   30.08.2019  05:22:10        PAGE 83


LOC    OBJECT CODE    LINE  SOURCE TEXT
  VALUE

                      04323 ;goto   _00119_DS_
                      04324 ;;; ../../../../src/pic14/gen.c:2308:resultRemat *{*
                      04325 ;;; ../../../../src/pic14/gen.c:2752:genLabel *{*
                      04326 ;; ***  genLabel  2755
                      04327 ;_00121_DS_:
                      04328 ;;; ../../../../src/pic14/gen.c:2308:resultRemat *{*
                      04329 ;;; ../../../../src/pic14/gen.c:2520:genEndFunction *{*
                      04330 ;; ***  genEndFunction  2522
                      04331 ;return
                      04332 ;; BANKOPT3 drop assumptions: PCI with label or call found
00C9                  04333 _00121_DS_:
                      04334 ;       .line   44; "../../../lib/format.c"     }
00C9   0008           04335         RETURN          ;id=995,key=000,inCond:10,outCond:e,flow seq=06a
                      04336 ;<>Start of new flow, seq=0x6b
                      04337 ;  from: ; to: 
                      04338 ; exit point of _format_number
                      04339 ;;; ../../../../src/pic14/gen.c:7535:genpic14Code *{*
                      04340 
                      04341 ;***
                      04342 ;  pBlock Stats: dbName = C
                      04343 ;***
                      04344 ;has an exit
                      04345 ;; Starting pCode block
                      04346 ;<>Start of new flow, seq=0x6c ancestor = 0x6c
                      04347 ;  from: ; to: 
                      04348 ;;; ../../../../src/pic14/gen.c:2308:resultRemat *{*
                      04349 ;;; ../../../../src/pic14/gen.c:2752:genLabel *{*
                      04350 ;; ***  genLabel  2755
                      04351 ;;; ../../../../src/pic14/gen.c:2308:resultRemat *{*
                      04352 ;;; ../../../../src/pic14/gen.c:2332:genFunction *{*
                      04353 ;; ***  genFunction  2334 curr label offset=0previous max_key=0 
                      04354 ;;      -----------------------------------------
                      04355 ;;       function format_putchar
                      04356 ;;      -----------------------------------------
                      04357 ;_format_putchar:
                      04358 S_format__format_putchar        code
0000                  04359 _format_putchar:
                      04360 ; 2 exit points
                      04361 ;;; ../../../../src/pic14/gen.c:2308:resultRemat *{*
                      04362 ;;; ../../../../src/pic14/gen.c:2675:genRet *{*
                      04363 ;; ***  genRet  2677
                      04364 ;;; ../../../../src/pic14/gen.c:2308:resultRemat *{*
                      04365 ;;; ../../../../src/pic14/gen.c:2752:genLabel *{*
                      04366 ;; ***  genLabel  2755
                      04367 ;_00105_DS_:
                      04368 ;;; ../../../../src/pic14/gen.c:2308:resultRemat *{*
                      04369 ;;; ../../../../src/pic14/gen.c:2520:genEndFunction *{*
                      04370 ;; ***  genEndFunction  2522
                      04371 ;return
                      04372 ;       .line   8; "../../../lib/format.c"      }
0000   0008           04373         RETURN          ;id=130,key=000,inCond:10,outCond:e,flow seq=06c
                      04374 ;<>Start of new flow, seq=0x6d
                      04375 ;  from: ; to: 
gpasm-1.5.2 #1319 (Aug 29 2019) build/default   30.08.2019  05:22:10        PAGE 84


LOC    OBJECT CODE    LINE  SOURCE TEXT
  VALUE

                      04376 ; exit point of _format_putchar
                      04377 ;;; ../../../../src/pic14/gen.c:7535:genpic14Code *{*
                      04378 
                      04379 
                      04380 ;       code size estimation:
                      04381 ;         612+  143 =   755 instructions ( 1796 byte)
                      04382 
                      04383         end
gpasm-1.5.2 #1319 (Aug 29 2019) build/default   30.08.2019  05:22:10        PAGE 85


SYMBOL TABLE
  LABEL                              TYPE        VALUE         VALUE          VALUE
                                                 (hex)         (dec)          (text)

ACKDT                             CONSTANT      00000005              5
ACKEN                             CONSTANT      00000004              4
ACKSTAT                           CONSTANT      00000006              6
ADCON0                            CONSTANT      0000001F             31
ADCON1                            CONSTANT      0000009F            159
ADCS0                             CONSTANT      00000006              6
ADCS1                             CONSTANT      00000007              7
ADCS2                             CONSTANT      00000006              6
ADDEN                             CONSTANT      00000003              3
ADFM                              CONSTANT      00000007              7
ADIE                              CONSTANT      00000006              6
ADIF                              CONSTANT      00000006              6
ADON                              CONSTANT      00000000              0
ADRESH                            CONSTANT      0000001E             30
ADRESL                            CONSTANT      0000009E            158
BCLIE                             CONSTANT      00000003              3
BCLIF                             CONSTANT      00000003              3
BF                                CONSTANT      00000000              0
BRGH                              CONSTANT      00000002              2
C                                 CONSTANT      00000000              0
C1INV                             CONSTANT      00000004              4
C1OUT                             CONSTANT      00000006              6
C2INV                             CONSTANT      00000005              5
C2OUT                             CONSTANT      00000007              7
CCP1CON                           CONSTANT      00000017             23
CCP1IE                            CONSTANT      00000002              2
CCP1IF                            CONSTANT      00000002              2
CCP1M0                            CONSTANT      00000000              0
CCP1M1                            CONSTANT      00000001              1
CCP1M2                            CONSTANT      00000002              2
CCP1M3                            CONSTANT      00000003              3
CCP1X                             CONSTANT      00000005              5
CCP1Y                             CONSTANT      00000004              4
CCP2CON                           CONSTANT      0000001D             29
CCP2IE                            CONSTANT      00000000              0
CCP2IF                            CONSTANT      00000000              0
CCP2M0                            CONSTANT      00000000              0
CCP2M1                            CONSTANT      00000001              1
CCP2M2                            CONSTANT      00000002              2
CCP2M3                            CONSTANT      00000003              3
CCP2X                             CONSTANT      00000005              5
CCP2Y                             CONSTANT      00000004              4
CCPR1                             CONSTANT      00000015             21
CCPR1H                            CONSTANT      00000016             22
CCPR1L                            CONSTANT      00000015             21
CCPR2                             CONSTANT      0000001B             27
CCPR2H                            CONSTANT      0000001C             28
CCPR2L                            CONSTANT      0000001B             27
CHS0                              CONSTANT      00000003              3
CHS1                              CONSTANT      00000004              4
CHS2                              CONSTANT      00000005              5
CIS                               CONSTANT      00000003              3
gpasm-1.5.2 #1319 (Aug 29 2019) build/default   30.08.2019  05:22:10        PAGE 86


SYMBOL TABLE
  LABEL                              TYPE        VALUE         VALUE          VALUE
                                                 (hex)         (dec)          (text)

CKE                               CONSTANT      00000006              6
CKP                               CONSTANT      00000004              4
CM0                               CONSTANT      00000000              0
CM1                               CONSTANT      00000001              1
CM2                               CONSTANT      00000002              2
CMCON                             CONSTANT      0000009C            156
CMIE                              CONSTANT      00000006              6
CMIF                              CONSTANT      00000006              6
CREN                              CONSTANT      00000004              4
CSRC                              CONSTANT      00000007              7
CVR0                              CONSTANT      00000000              0
CVR1                              CONSTANT      00000001              1
CVR2                              CONSTANT      00000002              2
CVR3                              CONSTANT      00000003              3
CVRCON                            CONSTANT      0000009D            157
CVREN                             CONSTANT      00000007              7
CVROE                             CONSTANT      00000006              6
CVRR                              CONSTANT      00000005              5
D                                 CONSTANT      00000005              5
DATA_ADDRESS                      CONSTANT      00000005              5
DC                                CONSTANT      00000001              1
D_A                               CONSTANT      00000005              5
D_NOT_A                           CONSTANT      00000005              5
EEADR                             CONSTANT      0000010D            269
EEADRH                            CONSTANT      0000010F            271
EECON1                            CONSTANT      0000018C            396
EECON2                            CONSTANT      0000018D            397
EEDATA                            CONSTANT      0000010C            268
EEDATH                            CONSTANT      0000010E            270
EEIE                              CONSTANT      00000004              4
EEIF                              CONSTANT      00000004              4
EEPGD                             CONSTANT      00000007              7
F                                 CONSTANT      00000001              1
FERR                              CONSTANT      00000002              2
FSR                               CONSTANT      00000004              4
GCEN                              CONSTANT      00000007              7
GIE                               CONSTANT      00000007              7
GO                                CONSTANT      00000002              2
GO_DONE                           CONSTANT      00000002              2
GO_NOT_DONE                       CONSTANT      00000002              2
I2C_DATA                          CONSTANT      00000005              5
I2C_READ                          CONSTANT      00000002              2
I2C_START                         CONSTANT      00000003              3
I2C_STOP                          CONSTANT      00000004              4
INDF                              CONSTANT      00000000              0
INTCON                            CONSTANT      0000000B             11
INTE                              CONSTANT      00000004              4
INTEDG                            CONSTANT      00000006              6
INTF                              CONSTANT      00000001              1
IRP                               CONSTANT      00000007              7
NOT_A                             CONSTANT      00000005              5
NOT_ADDRESS                       CONSTANT      00000005              5
gpasm-1.5.2 #1319 (Aug 29 2019) build/default   30.08.2019  05:22:10        PAGE 87


SYMBOL TABLE
  LABEL                              TYPE        VALUE         VALUE          VALUE
                                                 (hex)         (dec)          (text)

NOT_BO                            CONSTANT      00000000              0
NOT_BOR                           CONSTANT      00000000              0
NOT_DONE                          CONSTANT      00000002              2
NOT_PD                            CONSTANT      00000003              3
NOT_POR                           CONSTANT      00000001              1
NOT_RBPU                          CONSTANT      00000007              7
NOT_RC8                           CONSTANT      00000006              6
NOT_T1SYNC                        CONSTANT      00000002              2
NOT_TO                            CONSTANT      00000004              4
NOT_TX8                           CONSTANT      00000006              6
NOT_W                             CONSTANT      00000002              2
NOT_WRITE                         CONSTANT      00000002              2
OERR                              CONSTANT      00000001              1
OPTION_REG                        CONSTANT      00000081            129
P                                 CONSTANT      00000004              4
PCFG0                             CONSTANT      00000000              0
PCFG1                             CONSTANT      00000001              1
PCFG2                             CONSTANT      00000002              2
PCFG3                             CONSTANT      00000003              3
PCL                               CONSTANT      00000002              2
PCLATH                            CONSTANT      0000000A             10
PCON                              CONSTANT      0000008E            142
PEIE                              CONSTANT      00000006              6
PEN                               CONSTANT      00000002              2
PIE1                              CONSTANT      0000008C            140
PIE2                              CONSTANT      0000008D            141
PIR1                              CONSTANT      0000000C             12
PIR2                              CONSTANT      0000000D             13
PORTA                             CONSTANT      00000005              5
PORTB                             CONSTANT      00000006              6
PORTC                             CONSTANT      00000007              7
PR2                               CONSTANT      00000092            146
PS0                               CONSTANT      00000000              0
PS1                               CONSTANT      00000001              1
PS2                               CONSTANT      00000002              2
PSA                               CONSTANT      00000003              3
PSAVE                             EXTERNAL      00000000              0
R                                 CONSTANT      00000002              2
RA0                               CONSTANT      00000000              0
RA1                               CONSTANT      00000001              1
RA2                               CONSTANT      00000002              2
RA3                               CONSTANT      00000003              3
RA4                               CONSTANT      00000004              4
RA5                               CONSTANT      00000005              5
RB0                               CONSTANT      00000000              0
RB1                               CONSTANT      00000001              1
RB2                               CONSTANT      00000002              2
RB3                               CONSTANT      00000003              3
RB4                               CONSTANT      00000004              4
RB5                               CONSTANT      00000005              5
RB6                               CONSTANT      00000006              6
RB7                               CONSTANT      00000007              7
gpasm-1.5.2 #1319 (Aug 29 2019) build/default   30.08.2019  05:22:10        PAGE 88


SYMBOL TABLE
  LABEL                              TYPE        VALUE         VALUE          VALUE
                                                 (hex)         (dec)          (text)

RBIE                              CONSTANT      00000003              3
RBIF                              CONSTANT      00000000              0
RC0                               CONSTANT      00000000              0
RC1                               CONSTANT      00000001              1
RC2                               CONSTANT      00000002              2
RC3                               CONSTANT      00000003              3
RC4                               CONSTANT      00000004              4
RC5                               CONSTANT      00000005              5
RC6                               CONSTANT      00000006              6
RC7                               CONSTANT      00000007              7
RC8_9                             CONSTANT      00000006              6
RC9                               CONSTANT      00000006              6
RCD8                              CONSTANT      00000000              0
RCEN                              CONSTANT      00000003              3
RCIE                              CONSTANT      00000005              5
RCIF                              CONSTANT      00000005              5
RCREG                             CONSTANT      0000001A             26
RCSTA                             CONSTANT      00000018             24
RD                                CONSTANT      00000000              0
READ_WRITE                        CONSTANT      00000002              2
RP0                               CONSTANT      00000005              5
RP1                               CONSTANT      00000006              6
RSEN                              CONSTANT      00000001              1
RX9                               CONSTANT      00000006              6
RX9D                              CONSTANT      00000000              0
R_NOT_W                           CONSTANT      00000002              2
R_W                               CONSTANT      00000002              2
S                                 CONSTANT      00000003              3
SEN                               CONSTANT      00000000              0
SMP                               CONSTANT      00000007              7
SPBRG                             CONSTANT      00000099            153
SPEN                              CONSTANT      00000007              7
SREN                              CONSTANT      00000005              5
SSAVE                             EXTERNAL      00000000              0
SSPADD                            CONSTANT      00000093            147
SSPBUF                            CONSTANT      00000013             19
SSPCON                            CONSTANT      00000014             20
SSPCON2                           CONSTANT      00000091            145
SSPEN                             CONSTANT      00000005              5
SSPIE                             CONSTANT      00000003              3
SSPIF                             CONSTANT      00000003              3
SSPM0                             CONSTANT      00000000              0
SSPM1                             CONSTANT      00000001              1
SSPM2                             CONSTANT      00000002              2
SSPM3                             CONSTANT      00000003              3
SSPOV                             CONSTANT      00000006              6
SSPSTAT                           CONSTANT      00000094            148
STATUS                            CONSTANT      00000003              3
STK00                             EXTERNAL      00000000              0
STK01                             EXTERNAL      00000000              0
STK02                             EXTERNAL      00000000              0
STK03                             EXTERNAL      00000000              0
gpasm-1.5.2 #1319 (Aug 29 2019) build/default   30.08.2019  05:22:10        PAGE 89


SYMBOL TABLE
  LABEL                              TYPE        VALUE         VALUE          VALUE
                                                 (hex)         (dec)          (text)

STK04                             EXTERNAL      00000000              0
STK05                             EXTERNAL      00000000              0
STK06                             EXTERNAL      00000000              0
STK07                             EXTERNAL      00000000              0
STK08                             EXTERNAL      00000000              0
STK09                             EXTERNAL      00000000              0
STK10                             EXTERNAL      00000000              0
STK11                             EXTERNAL      00000000              0
STK12                             EXTERNAL      00000000              0
SYNC                              CONSTANT      00000004              4
T0CS                              CONSTANT      00000005              5
T0IE                              CONSTANT      00000005              5
T0IF                              CONSTANT      00000002              2
T0SE                              CONSTANT      00000004              4
T1CKPS0                           CONSTANT      00000004              4
T1CKPS1                           CONSTANT      00000005              5
T1CON                             CONSTANT      00000010             16
T1INSYNC                          CONSTANT      00000002              2
T1OSCEN                           CONSTANT      00000003              3
T1SYNC                            CONSTANT      00000002              2
T2CKPS0                           CONSTANT      00000000              0
T2CKPS1                           CONSTANT      00000001              1
T2CON                             CONSTANT      00000012             18
TMR0                              CONSTANT      00000001              1
TMR0IE                            CONSTANT      00000005              5
TMR0IF                            CONSTANT      00000002              2
TMR1                              CONSTANT      0000000E             14
TMR1CS                            CONSTANT      00000001              1
TMR1H                             CONSTANT      0000000F             15
TMR1IE                            CONSTANT      00000000              0
TMR1IF                            CONSTANT      00000000              0
TMR1L                             CONSTANT      0000000E             14
TMR1ON                            CONSTANT      00000000              0
TMR2                              CONSTANT      00000011             17
TMR2IE                            CONSTANT      00000001              1
TMR2IF                            CONSTANT      00000001              1
TMR2ON                            CONSTANT      00000002              2
TOUTPS0                           CONSTANT      00000003              3
TOUTPS1                           CONSTANT      00000004              4
TOUTPS2                           CONSTANT      00000005              5
TOUTPS3                           CONSTANT      00000006              6
TRISA                             CONSTANT      00000085            133
TRISA0                            CONSTANT      00000000              0
TRISA1                            CONSTANT      00000001              1
TRISA2                            CONSTANT      00000002              2
TRISA3                            CONSTANT      00000003              3
TRISA4                            CONSTANT      00000004              4
TRISA5                            CONSTANT      00000005              5
TRISB                             CONSTANT      00000086            134
TRISB0                            CONSTANT      00000000              0
TRISB1                            CONSTANT      00000001              1
TRISB2                            CONSTANT      00000002              2
gpasm-1.5.2 #1319 (Aug 29 2019) build/default   30.08.2019  05:22:10        PAGE 90


SYMBOL TABLE
  LABEL                              TYPE        VALUE         VALUE          VALUE
                                                 (hex)         (dec)          (text)

TRISB3                            CONSTANT      00000003              3
TRISB4                            CONSTANT      00000004              4
TRISB5                            CONSTANT      00000005              5
TRISB6                            CONSTANT      00000006              6
TRISB7                            CONSTANT      00000007              7
TRISC                             CONSTANT      00000087            135
TRISC0                            CONSTANT      00000000              0
TRISC1                            CONSTANT      00000001              1
TRISC2                            CONSTANT      00000002              2
TRISC3                            CONSTANT      00000003              3
TRISC4                            CONSTANT      00000004              4
TRISC5                            CONSTANT      00000005              5
TRISC6                            CONSTANT      00000006              6
TRISC7                            CONSTANT      00000007              7
TRMT                              CONSTANT      00000001              1
TX8_9                             CONSTANT      00000006              6
TX9                               CONSTANT      00000006              6
TX9D                              CONSTANT      00000000              0
TXD8                              CONSTANT      00000000              0
TXEN                              CONSTANT      00000005              5
TXIE                              CONSTANT      00000004              4
TXIF                              CONSTANT      00000004              4
TXREG                             CONSTANT      00000019             25
TXSTA                             CONSTANT      00000098            152
UA                                CONSTANT      00000001              1
W                                 CONSTANT      00000000              0
WCOL                              CONSTANT      00000007              7
WR                                CONSTANT      00000001              1
WREN                              CONSTANT      00000002              2
WRERR                             CONSTANT      00000003              3
WSAVE                             EXTERNAL      00000000              0
Z                                 CONSTANT      00000002              2
_00111_DS_                        ADDRESS       00000017             23
_00114_DS_                        ADDRESS       00000074            116
_00119_DS_                        ADDRESS       00000090            144
_00121_DS_                        ADDRESS       000000C9            201
_00123_DS_                        ADDRESS       00000044             68
_00124_DS_                        ADDRESS       0000004B             75
_00127_DS_                        ADDRESS       00000014             20
_00160_DS_                        ADDRESS       00000083            131
_00161_DS_                        ADDRESS       0000008F            143
_00163_DS_                        ADDRESS       000000B8            184
_00164_DS_                        ADDRESS       000000C4            196
_00171_DS_                        ADDRESS       0000000D             13
_00172_DS_                        ADDRESS       00000019             25
_00173_DS_                        ADDRESS       0000001D             29
_00174_DS_                        ADDRESS       00000029             41
_00180_DS_                        ADDRESS       00000126            294
_00181_DS_                        ADDRESS       0000002D             45
_00184_DS_                        ADDRESS       0000012D            301
_00199_DS_                        ADDRESS       00000104            260
_00200_DS_                        ADDRESS       00000110            272
gpasm-1.5.2 #1319 (Aug 29 2019) build/default   30.08.2019  05:22:10        PAGE 91


SYMBOL TABLE
  LABEL                              TYPE        VALUE         VALUE          VALUE
                                                 (hex)         (dec)          (text)

_00201_DS_                        ADDRESS       0000011A            282
_00208_DS_                        ADDRESS       0000012F            303
_00209_DS_                        ADDRESS       00000031             49
_00212_DS_                        ADDRESS       00000136            310
_00227_DS_                        ADDRESS       0000010D            269
_00228_DS_                        ADDRESS       00000119            281
_00229_DS_                        ADDRESS       00000123            291
_ADCON0                           EXTERNAL      00000000              0
_ADCON0bits                       EXTERNAL      00000000              0
_ADCON1                           EXTERNAL      00000000              0
_ADCON1bits                       EXTERNAL      00000000              0
_ADRESH                           EXTERNAL      00000000              0
_ADRESL                           EXTERNAL      00000000              0
_BODEN_OFF                        CONSTANT      00003FBF          16319
_BODEN_ON                         CONSTANT      00003FFF          16383
_BOREN_OFF                        CONSTANT      00003FBF          16319
_BOREN_ON                         CONSTANT      00003FFF          16383
_CCP1CON                          EXTERNAL      00000000              0
_CCP1CONbits                      EXTERNAL      00000000              0
_CCP2CON                          EXTERNAL      00000000              0
_CCP2CONbits                      EXTERNAL      00000000              0
_CCPR1                            EXTERNAL      00000000              0
_CCPR1H                           EXTERNAL      00000000              0
_CCPR1L                           EXTERNAL      00000000              0
_CCPR2                            EXTERNAL      00000000              0
_CCPR2H                           EXTERNAL      00000000              0
_CCPR2L                           EXTERNAL      00000000              0
_CMCON                            EXTERNAL      00000000              0
_CMCONbits                        EXTERNAL      00000000              0
_CONFIG                           CONSTANT      00002007           8199
_CPD_OFF                          CONSTANT      00003FFF          16383
_CPD_ON                           CONSTANT      00003EFF          16127
_CP_ALL                           CONSTANT      00001FFF           8191
_CP_OFF                           CONSTANT      00003FFF          16383
_CP_ON                            CONSTANT      00001FFF           8191
_CVRCON                           EXTERNAL      00000000              0
_CVRCONbits                       EXTERNAL      00000000              0
_DEBUG_OFF                        CONSTANT      00003FFF          16383
_DEBUG_ON                         CONSTANT      000037FF          14335
_DEVID1                           CONSTANT      00002006           8198
_EEADR                            EXTERNAL      00000000              0
_EEADRH                           EXTERNAL      00000000              0
_EECON1                           EXTERNAL      00000000              0
_EECON1bits                       EXTERNAL      00000000              0
_EECON2                           EXTERNAL      00000000              0
_EEDATA                           EXTERNAL      00000000              0
_EEDATH                           EXTERNAL      00000000              0
_FOSC_EXTRC                       CONSTANT      00003FFF          16383
_FOSC_HS                          CONSTANT      00003FFE          16382
_FOSC_LP                          CONSTANT      00003FFC          16380
_FOSC_XT                          CONSTANT      00003FFD          16381
_FSR                              EXTERNAL      00000000              0
gpasm-1.5.2 #1319 (Aug 29 2019) build/default   30.08.2019  05:22:10        PAGE 92


SYMBOL TABLE
  LABEL                              TYPE        VALUE         VALUE          VALUE
                                                 (hex)         (dec)          (text)

_HS_OSC                           CONSTANT      00003FFE          16382
_IDLOC0                           CONSTANT      00002000           8192
_IDLOC1                           CONSTANT      00002001           8193
_IDLOC2                           CONSTANT      00002002           8194
_IDLOC3                           CONSTANT      00002003           8195
_INDF                             EXTERNAL      00000000              0
_INTCON                           EXTERNAL      00000000              0
_INTCONbits                       EXTERNAL      00000000              0
_LP_OSC                           CONSTANT      00003FFC          16380
_LVP_OFF                          CONSTANT      00003F7F          16255
_LVP_ON                           CONSTANT      00003FFF          16383
_OPTION_REG                       EXTERNAL      00000000              0
_OPTION_REGbits                   EXTERNAL      00000000              0
_PCL                              EXTERNAL      00000000              0
_PCLATH                           EXTERNAL      00000000              0
_PCON                             EXTERNAL      00000000              0
_PCONbits                         EXTERNAL      00000000              0
_PIE1                             EXTERNAL      00000000              0
_PIE1bits                         EXTERNAL      00000000              0
_PIE2                             EXTERNAL      00000000              0
_PIE2bits                         EXTERNAL      00000000              0
_PIR1                             EXTERNAL      00000000              0
_PIR1bits                         EXTERNAL      00000000              0
_PIR2                             EXTERNAL      00000000              0
_PIR2bits                         EXTERNAL      00000000              0
_PORTA                            EXTERNAL      00000000              0
_PORTAbits                        EXTERNAL      00000000              0
_PORTB                            EXTERNAL      00000000              0
_PORTBbits                        EXTERNAL      00000000              0
_PORTC                            EXTERNAL      00000000              0
_PORTCbits                        EXTERNAL      00000000              0
_PR2                              EXTERNAL      00000000              0
_PWRTE_OFF                        CONSTANT      00003FFF          16383
_PWRTE_ON                         CONSTANT      00003FF7          16375
_RCREG                            EXTERNAL      00000000              0
_RCSTA                            EXTERNAL      00000000              0
_RCSTAbits                        EXTERNAL      00000000              0
_RC_OSC                           CONSTANT      00003FFF          16383
_SPBRG                            EXTERNAL      00000000              0
_SSPADD                           EXTERNAL      00000000              0
_SSPBUF                           EXTERNAL      00000000              0
_SSPCON                           EXTERNAL      00000000              0
_SSPCON2                          EXTERNAL      00000000              0
_SSPCON2bits                      EXTERNAL      00000000              0
_SSPCONbits                       EXTERNAL      00000000              0
_SSPSTAT                          EXTERNAL      00000000              0
_SSPSTATbits                      EXTERNAL      00000000              0
_STATUS                           EXTERNAL      00000000              0
_STATUSbits                       EXTERNAL      00000000              0
_S_format__format_double_0016     ADDRESS       00000016             22
_S_format__format_double_002A     ADDRESS       0000002A             42
_S_format__format_double_0045     ADDRESS       00000045             69
gpasm-1.5.2 #1319 (Aug 29 2019) build/default   30.08.2019  05:22:10        PAGE 93


SYMBOL TABLE
  LABEL                              TYPE        VALUE         VALUE          VALUE
                                                 (hex)         (dec)          (text)

_S_format__format_double_0053     ADDRESS       00000053             83
_S_format__format_double_006F     ADDRESS       0000006F            111
_S_format__format_double_008B     ADDRESS       0000008B            139
_S_format__format_double_009F     ADDRESS       0000009F            159
_S_format__format_double_00B3     ADDRESS       000000B3            179
_S_format__format_double_00BF     ADDRESS       000000BF            191
_S_format__format_double_00DC     ADDRESS       000000DC            220
_S_format__format_double_00F8     ADDRESS       000000F8            248
_S_format__format_float_0012      ADDRESS       00000012             18
_S_format__format_float_0026      ADDRESS       00000026             38
_S_format__format_float_0041      ADDRESS       00000041             65
_S_format__format_float_004F      ADDRESS       0000004F             79
_S_format__format_float_006B      ADDRESS       0000006B            107
_S_format__format_float_0087      ADDRESS       00000087            135
_S_format__format_float_009B      ADDRESS       0000009B            155
_S_format__format_float_00AF      ADDRESS       000000AF            175
_S_format__format_float_00B7      ADDRESS       000000B7            183
_S_format__format_float_00D4      ADDRESS       000000D4            212
_S_format__format_float_00F0      ADDRESS       000000F0            240
_S_format__format_number_0025     ADDRESS       00000025             37
_S_format__format_number_0066     ADDRESS       00000066            102
_S_format__format_xint32_003F     ADDRESS       0000003F             63
_S_format__format_xint32_004F     ADDRESS       0000004F             79
_T1CON                            EXTERNAL      00000000              0
_T1CONbits                        EXTERNAL      00000000              0
_T2CON                            EXTERNAL      00000000              0
_T2CONbits                        EXTERNAL      00000000              0
_TMR0                             EXTERNAL      00000000              0
_TMR1                             EXTERNAL      00000000              0
_TMR1H                            EXTERNAL      00000000              0
_TMR1L                            EXTERNAL      00000000              0
_TMR2                             EXTERNAL      00000000              0
_TRISA                            EXTERNAL      00000000              0
_TRISAbits                        EXTERNAL      00000000              0
_TRISB                            EXTERNAL      00000000              0
_TRISBbits                        EXTERNAL      00000000              0
_TRISC                            EXTERNAL      00000000              0
_TRISCbits                        EXTERNAL      00000000              0
_TXREG                            EXTERNAL      00000000              0
_TXSTA                            EXTERNAL      00000000              0
_TXSTAbits                        EXTERNAL      00000000              0
_WDTE_OFF                         CONSTANT      00003FFB          16379
_WDTE_ON                          CONSTANT      00003FFF          16383
_WDT_OFF                          CONSTANT      00003FFB          16379
_WDT_ON                           CONSTANT      00003FFF          16383
_WRT_1FOURTH                      CONSTANT      00003BFF          15359
_WRT_256                          CONSTANT      00003DFF          15871
_WRT_HALF                         CONSTANT      000039FF          14847
_WRT_OFF                          CONSTANT      00003FFF          16383
_XT_OSC                           CONSTANT      00003FFD          16381
__14_BIT                          CONSTANT      00000001              1
__16F876A                         CONSTANT      00000001              1
gpasm-1.5.2 #1319 (Aug 29 2019) build/default   30.08.2019  05:22:10        PAGE 94


SYMBOL TABLE
  LABEL                              TYPE        VALUE         VALUE          VALUE
                                                 (hex)         (dec)          (text)

__ACTIVE_BANK_ADDR                VARIABLE      FFFFFFFF             -1
__ACTIVE_PAGE_ADDR                VARIABLE      FFFFFFFF             -1
__ASSUMED_BANK_ADDR               VARIABLE      FFFFFFFF             -1
__BANK_0                          CONSTANT      00000000              0
__BANK_1                          CONSTANT      00000080            128
__BANK_2                          CONSTANT      00000100            256
__BANK_3                          CONSTANT      00000180            384
__BANK_BITS                       CONSTANT      00000180            384
__BANK_FIRST                      CONSTANT      00000000              0
__BANK_INV                        CONSTANT      FFFFFFFF             -1
__BANK_LAST                       CONSTANT      00000180            384
__BANK_MASK                       CONSTANT      0000007F            127
__BANK_SHIFT                      CONSTANT      00000007              7
__BANK_SIZE                       CONSTANT      00000080            128
__CODE_END                        CONSTANT      00001FFF           8191
__CODE_START                      CONSTANT      00000000              0
__COMMON_RAM_END                  CONSTANT      0000007F            127
__COMMON_RAM_START                CONSTANT      00000070            112
__CONFIG_END                      CONSTANT      00002007           8199
__CONFIG_START                    CONSTANT      00002007           8199
__EEPROM_END                      CONSTANT      000021FF           8703
__EEPROM_START                    CONSTANT      00002100           8448
__GPUTILS_SVN_VERSION             CONSTANT      00000527           1319
__GPUTILS_VERSION_MAJOR           CONSTANT      00000001              1
__GPUTILS_VERSION_MICRO           CONSTANT      00000002              2
__GPUTILS_VERSION_MINOR           CONSTANT      00000005              5
__IDLOCS_END                      CONSTANT      00002003           8195
__IDLOCS_START                    CONSTANT      00002000           8192
__NUM_BANKS                       CONSTANT      00000004              4
__NUM_PAGES                       CONSTANT      00000004              4
__PAGE_0                          CONSTANT      00000000              0
__PAGE_1                          CONSTANT      00000800           2048
__PAGE_2                          CONSTANT      00001000           4096
__PAGE_3                          CONSTANT      00001800           6144
__PAGE_BITS                       CONSTANT      00001800           6144
__PAGE_FIRST                      CONSTANT      00000000              0
__PAGE_INV                        CONSTANT      FFFFFFFF             -1
__PAGE_LAST                       CONSTANT      00001800           6144
__PAGE_MASK                       CONSTANT      000007FF           2047
__PAGE_SHIFT                      CONSTANT      0000000B             11
__PAGE_SIZE                       CONSTANT      00000800           2048
__VECTOR_INT                      CONSTANT      00000004              4
__VECTOR_RESET                    CONSTANT      00000000              0
__WHILE_LOOP_COUNT_MAX            CONSTANT      000000FF            255
___fs2schar                       EXTERNAL      00000000              0
___fs2sint                        EXTERNAL      00000000              0
___fs2slong                       EXTERNAL      00000000              0
___fs2uchar                       EXTERNAL      00000000              0
___fs2uint                        EXTERNAL      00000000              0
___fs2ulong                       EXTERNAL      00000000              0
___fsadd                          EXTERNAL      00000000              0
___fsdiv                          EXTERNAL      00000000              0
gpasm-1.5.2 #1319 (Aug 29 2019) build/default   30.08.2019  05:22:10        PAGE 95


SYMBOL TABLE
  LABEL                              TYPE        VALUE         VALUE          VALUE
                                                 (hex)         (dec)          (text)

___fseq                           EXTERNAL      00000000              0
___fsgt                           EXTERNAL      00000000              0
___fslt                           EXTERNAL      00000000              0
___fsmul                          EXTERNAL      00000000              0
___fssub                          EXTERNAL      00000000              0
___schar2fs                       EXTERNAL      00000000              0
___sint2fs                        EXTERNAL      00000000              0
___slong2fs                       EXTERNAL      00000000              0
___uchar2fs                       EXTERNAL      00000000              0
___uint2fs                        EXTERNAL      00000000              0
___ulong2fs                       EXTERNAL      00000000              0
__divuint                         EXTERNAL      00000000              0
__moduint                         EXTERNAL      00000000              0
_acosf                            EXTERNAL      00000000              0
_asinf                            EXTERNAL      00000000              0
_atan2f                           EXTERNAL      00000000              0
_atanf                            EXTERNAL      00000000              0
_ceilf                            EXTERNAL      00000000              0
_cosf                             EXTERNAL      00000000              0
_coshf                            EXTERNAL      00000000              0
_cotf                             EXTERNAL      00000000              0
_expf                             EXTERNAL      00000000              0
_fabsf                            EXTERNAL      00000000              0
_floorf                           EXTERNAL      00000000              0
_format_double                    GLOBAL        00000000              0
_format_float                     GLOBAL        00000000              0
_format_number                    GLOBAL        00000000              0
_format_number_buf_65536_51       STATIC        00000033             51
_format_putchar                   ADDRESS       00000000              0
_format_xint32                    GLOBAL        00000000              0
_frexpf                           EXTERNAL      00000000              0
_isinf                            EXTERNAL      00000000              0
_isnan                            EXTERNAL      00000000              0
_ldexpf                           EXTERNAL      00000000              0
_log10f                           EXTERNAL      00000000              0
_logf                             EXTERNAL      00000000              0
_modff                            EXTERNAL      00000000              0
_powf                             EXTERNAL      00000000              0
_putchar_ptr                      GLOBAL        00000000              0
_sinf                             EXTERNAL      00000000              0
_sinhf                            EXTERNAL      00000000              0
_sqrtf                            EXTERNAL      00000000              0
_tanf                             EXTERNAL      00000000              0
_tanhf                            EXTERNAL      00000000              0
r0x102A                           STATIC        00000027             39
r0x102B                           STATIC        0000002C             44
r0x102C                           STATIC        0000002B             43
r0x102D                           STATIC        00000030             48
r0x102E                           STATIC        0000002F             47
r0x102F                           STATIC        0000002E             46
r0x103A                           STATIC        00000018             24
r0x103B                           STATIC        0000001D             29
gpasm-1.5.2 #1319 (Aug 29 2019) build/default   30.08.2019  05:22:10        PAGE 96


SYMBOL TABLE
  LABEL                              TYPE        VALUE         VALUE          VALUE
                                                 (hex)         (dec)          (text)

r0x103C                           STATIC        0000001C             28
r0x103D                           STATIC        00000021             33
r0x103E                           STATIC        00000020             32
r0x103F                           STATIC        0000001F             31
r0x104B                           STATIC        00000008              8
r0x104C                           STATIC        00000009              9
r0x104D                           STATIC        0000000A             10
r0x104E                           STATIC        0000000B             11
r0x104F                           STATIC        0000000C             12
r0x105B                           STATIC        00000004              4
r0x1022                           STATIC        00000026             38
r0x1023                           STATIC        00000025             37
r0x1024                           STATIC        00000024             36
r0x1025                           STATIC        00000023             35
r0x1027                           STATIC        0000002A             42
r0x1028                           STATIC        00000029             41
r0x1029                           STATIC        00000028             40
r0x1030                           STATIC        0000002D             45
r0x1031                           STATIC        00000032             50
r0x1032                           STATIC        00000031             49
r0x1033                           STATIC        00000017             23
r0x1034                           STATIC        00000016             22
r0x1035                           STATIC        00000015             21
r0x1036                           STATIC        00000014             20
r0x1037                           STATIC        0000001B             27
r0x1038                           STATIC        0000001A             26
r0x1039                           STATIC        00000019             25
r0x1040                           STATIC        0000001E             30
r0x1041                           STATIC        00000022             34
r0x1042                           STATIC        00000001              1
r0x1043                           STATIC        00000000              0
r0x1044                           STATIC        00000002              2
r0x1045                           STATIC        00000003              3
r0x1047                           STATIC        00000005              5
r0x1048                           STATIC        00000006              6
r0x1049                           STATIC        00000007              7
r0x1050                           STATIC        0000000D             13
r0x1051                           STATIC        00000011             17
r0x1052                           STATIC        00000010             16
r0x1053                           STATIC        0000000F             15
r0x1054                           STATIC        0000000E             14
r0x1055                           STATIC        00000012             18
r0x1056                           STATIC        00000013             19

Errors   :     0
Warnings :     0 reported,     0 suppressed
Messages :     0 reported,     0 suppressed

