gpasm-1.5.2 #1319 (Aug 29 2019) build/default   30.08.2019  05:22:10        PAGE  1


LOC    OBJECT CODE    LINE  SOURCE TEXT
  VALUE

                      00001 ;--------------------------------------------------------
                      00002 ; File Created by SDCC : free open source ANSI-C Compiler
                      00003 ; Version 3.9.3 #11345 (Linux)
                      00004 ;--------------------------------------------------------
                      00005 ; PIC port for the 14-bit core
                      00006 ;--------------------------------------------------------
                      00007 ;       .file   "../../../lib/ser.c"
                      00008         list    p=16f876a
                      00009         radix dec
                      00010         include "p16f876a.inc"
                      00001         LIST
                      00002 
                      00003 ;==========================================================================
                      00004 ; Build date : Oct 21 2015
                      00005 ;  MPASM PIC16F876A processor include
                      00006 ; 
                      00007 ;  (c) Copyright 1999-2015 Microchip Technology, All rights reserved
                      00008 ;==========================================================================
                      00009 
                      00525         LIST
                      00011 ;--------------------------------------------------------
                      00012 ; external declarations
                      00013 ;--------------------------------------------------------
  0000                00014         extern  ___uchar2fs
  0000                00015         extern  ___schar2fs
  0000                00016         extern  ___uint2fs
  0000                00017         extern  ___sint2fs
  0000                00018         extern  ___ulong2fs
  0000                00019         extern  ___slong2fs
  0000                00020         extern  ___fs2uchar
  0000                00021         extern  ___fs2schar
  0000                00022         extern  ___fs2uint
  0000                00023         extern  ___fs2sint
  0000                00024         extern  ___fs2ulong
  0000                00025         extern  ___fs2slong
  0000                00026         extern  ___fsadd
  0000                00027         extern  ___fssub
  0000                00028         extern  ___fsmul
  0000                00029         extern  ___fsdiv
  0000                00030         extern  ___fslt
  0000                00031         extern  ___fseq
  0000                00032         extern  ___fsgt
  0000                00033         extern  _uart_putch
  0000                00034         extern  _uart_getch
  0000                00035         extern  _uart_poll
  0000                00036         extern  _uart_init
  0000                00037         extern  _uart_isr
  0000                00038         extern  _uart_enable
  0000                00039         extern  _uart_disable
  0000                00040         extern  _uart_puts
  0000                00041         extern  _uart_puts2
  0000                00042         extern  _STATUSbits
  0000                00043         extern  _PORTAbits
gpasm-1.5.2 #1319 (Aug 29 2019) build/default   30.08.2019  05:22:10        PAGE  2


LOC    OBJECT CODE    LINE  SOURCE TEXT
  VALUE

  0000                00044         extern  _PORTBbits
  0000                00045         extern  _PORTCbits
  0000                00046         extern  _INTCONbits
  0000                00047         extern  _PIR1bits
  0000                00048         extern  _PIR2bits
  0000                00049         extern  _T1CONbits
  0000                00050         extern  _T2CONbits
  0000                00051         extern  _SSPCONbits
  0000                00052         extern  _CCP1CONbits
  0000                00053         extern  _RCSTAbits
  0000                00054         extern  _CCP2CONbits
  0000                00055         extern  _ADCON0bits
  0000                00056         extern  _OPTION_REGbits
  0000                00057         extern  _TRISAbits
  0000                00058         extern  _TRISBbits
  0000                00059         extern  _TRISCbits
  0000                00060         extern  _PIE1bits
  0000                00061         extern  _PIE2bits
  0000                00062         extern  _PCONbits
  0000                00063         extern  _SSPCON2bits
  0000                00064         extern  _SSPSTATbits
  0000                00065         extern  _TXSTAbits
  0000                00066         extern  _CMCONbits
  0000                00067         extern  _CVRCONbits
  0000                00068         extern  _ADCON1bits
  0000                00069         extern  _EECON1bits
  0000                00070         extern  _uart_brg
  0000                00071         extern  _INDF
  0000                00072         extern  _TMR0
  0000                00073         extern  _PCL
  0000                00074         extern  _STATUS
  0000                00075         extern  _FSR
  0000                00076         extern  _PORTA
  0000                00077         extern  _PORTB
  0000                00078         extern  _PORTC
  0000                00079         extern  _PCLATH
  0000                00080         extern  _INTCON
  0000                00081         extern  _PIR1
  0000                00082         extern  _PIR2
  0000                00083         extern  _TMR1
  0000                00084         extern  _TMR1L
  0000                00085         extern  _TMR1H
  0000                00086         extern  _T1CON
  0000                00087         extern  _TMR2
  0000                00088         extern  _T2CON
  0000                00089         extern  _SSPBUF
  0000                00090         extern  _SSPCON
  0000                00091         extern  _CCPR1
  0000                00092         extern  _CCPR1L
  0000                00093         extern  _CCPR1H
  0000                00094         extern  _CCP1CON
  0000                00095         extern  _RCSTA
  0000                00096         extern  _TXREG
gpasm-1.5.2 #1319 (Aug 29 2019) build/default   30.08.2019  05:22:10        PAGE  3


LOC    OBJECT CODE    LINE  SOURCE TEXT
  VALUE

  0000                00097         extern  _RCREG
  0000                00098         extern  _CCPR2
  0000                00099         extern  _CCPR2L
  0000                00100         extern  _CCPR2H
  0000                00101         extern  _CCP2CON
  0000                00102         extern  _ADRESH
  0000                00103         extern  _ADCON0
  0000                00104         extern  _OPTION_REG
  0000                00105         extern  _TRISA
  0000                00106         extern  _TRISB
  0000                00107         extern  _TRISC
  0000                00108         extern  _PIE1
  0000                00109         extern  _PIE2
  0000                00110         extern  _PCON
  0000                00111         extern  _SSPCON2
  0000                00112         extern  _PR2
  0000                00113         extern  _SSPADD
  0000                00114         extern  _SSPSTAT
  0000                00115         extern  _TXSTA
  0000                00116         extern  _SPBRG
  0000                00117         extern  _CMCON
  0000                00118         extern  _CVRCON
  0000                00119         extern  _ADRESL
  0000                00120         extern  _ADCON1
  0000                00121         extern  _EEDATA
  0000                00122         extern  _EEADR
  0000                00123         extern  _EEDATH
  0000                00124         extern  _EEADRH
  0000                00125         extern  _EECON1
  0000                00126         extern  _EECON2
  0000                00127         extern  __gptrget1
                      00128 
  0000                00129         extern PSAVE
  0000                00130         extern SSAVE
  0000                00131         extern WSAVE
  0000                00132         extern STK12
  0000                00133         extern STK11
  0000                00134         extern STK10
  0000                00135         extern STK09
  0000                00136         extern STK08
  0000                00137         extern STK07
  0000                00138         extern STK06
  0000                00139         extern STK05
  0000                00140         extern STK04
  0000                00141         extern STK03
  0000                00142         extern STK02
  0000                00143         extern STK01
  0000                00144         extern STK00
                      00145 ;--------------------------------------------------------
                      00146 ; global declarations
                      00147 ;--------------------------------------------------------
  0000                00148         global  _ser_init
  0000                00149         global  _ser_puthex
gpasm-1.5.2 #1319 (Aug 29 2019) build/default   30.08.2019  05:22:10        PAGE  4


LOC    OBJECT CODE    LINE  SOURCE TEXT
  VALUE

  0000                00150         global  _ser_puts2
  0000                00151         global  _ser_put
  0000                00152         global  _ser_puts
  0000                00153         global  _ser_putch
  0000                00154         global  _ser_getch
  0000                00155         global  _ser_isrx
  0000                00156         global  _ser_brg
  0000                00157         global  _rxfifo
  0000                00158         global  _rxiptr
  0000                00159         global  _rxoptr
  0000                00160         global  _txfifo
  0000                00161         global  _txiptr
  0000                00162         global  _txoptr
  0000                00163         global  _ser_tmp
                      00164 
                      00165 ;--------------------------------------------------------
                      00166 ; global definitions
                      00167 ;--------------------------------------------------------
                      00168 UD_ser_0        udata
0000                  00169 _rxfifo res     16
                      00170 
                      00171 UD_ser_1        udata
0000                  00172 _rxiptr res     1
                      00173 
                      00174 UD_ser_2        udata
0000                  00175 _rxoptr res     1
                      00176 
                      00177 UD_ser_3        udata
0000                  00178 _txfifo res     16
                      00179 
                      00180 UD_ser_4        udata
0000                  00181 _txiptr res     1
                      00182 
                      00183 UD_ser_5        udata
0000                  00184 _txoptr res     1
                      00185 
                      00186 UD_ser_6        udata
0000                  00187 _ser_tmp        res     1
                      00188 
                      00189 ;--------------------------------------------------------
                      00190 ; absolute symbol definitions
                      00191 ;--------------------------------------------------------
                      00192 ;--------------------------------------------------------
                      00193 ; compiler-defined variables
                      00194 ;--------------------------------------------------------
                      00195 UDL_ser_0       udata
0000                  00196 r0x103D res     1
0001                  00197 r0x103F res     1
0002                  00198 r0x1040 res     1
0003                  00199 r0x1041 res     1
0004                  00200 r0x1025 res     1
0005                  00201 r0x1026 res     1
0006                  00202 r0x1027 res     1
gpasm-1.5.2 #1319 (Aug 29 2019) build/default   30.08.2019  05:22:10        PAGE  5


LOC    OBJECT CODE    LINE  SOURCE TEXT
  VALUE

0007                  00203 r0x1028 res     1
0008                  00204 r0x1029 res     1
0009                  00205 r0x103B res     1
000A                  00206 r0x103A res     1
000B                  00207 r0x1039 res     1
000C                  00208 r0x103C res     1
000D                  00209 r0x1034 res     1
000E                  00210 r0x1033 res     1
000F                  00211 r0x1032 res     1
0010                  00212 r0x1036 res     1
0011                  00213 r0x1035 res     1
0012                  00214 r0x1037 res     1
0013                  00215 r0x1038 res     1
0014                  00216 r0x1030 res     1
0015                  00217 r0x102F res     1
0016                  00218 r0x102E res     1
0017                  00219 r0x1031 res     1
0018                  00220 r0x102A res     1
0019                  00221 r0x102B res     1
001A                  00222 r0x102C res     1
                      00223 ;--------------------------------------------------------
                      00224 ; initialized data
                      00225 ;--------------------------------------------------------
                      00226 
                      00227 ID_ser_0        idata
0000                  00228 _ser_brg
0000   1F             00229         db      0x1f
                      00230 
                      00231 ;--------------------------------------------------------
                      00232 ; overlayable items in internal ram 
                      00233 ;--------------------------------------------------------
                      00234 ;       udata_ovr
                      00235 ;--------------------------------------------------------
                      00236 ; code
                      00237 ;--------------------------------------------------------
                      00238 code_ser        code
                      00239 ;***
                      00240 ;  pBlock Stats: dbName = C
                      00241 ;***
                      00242 ;has an exit
                      00243 ;; Starting pCode block
                      00244 ;<>Start of new flow, seq=0x1 ancestor = 0x1
                      00245 ;  from: ; to: 
                      00246 ;;; ../../../../src/pic14/gen.c:2308:resultRemat *{*
                      00247 ;;; ../../../../src/pic14/gen.c:2752:genLabel *{*
                      00248 ;; ***  genLabel  2755
                      00249 ;;; ../../../../src/pic14/gen.c:2308:resultRemat *{*
                      00250 ;;; ../../../../src/pic14/gen.c:2332:genFunction *{*
                      00251 ;; ***  genFunction  2334 curr label offset=64previous max_key=7 
                      00252 ;;      -----------------------------------------
                      00253 ;;       function ser_init
                      00254 ;;      -----------------------------------------
                      00255 ;_ser_init:
gpasm-1.5.2 #1319 (Aug 29 2019) build/default   30.08.2019  05:22:10        PAGE  6


LOC    OBJECT CODE    LINE  SOURCE TEXT
  VALUE

                      00256 S_ser__ser_init code
0000                  00257 _ser_init:
                      00258 ; 2 exit points
                      00259 ;;; ../../../../src/pic14/gen.c:2308:resultRemat *{*
                      00260 ;;; ../../../../src/pic14/gen.c:2308:resultRemat *{*
                      00261 ;;; ../../../../src/pic14/gen.c:6796:genPointerSet *{*
                      00262 ;; ***  genPointerSet  6797
                      00263 ;;; ../../../../src/pic14/gen.c:6615:genNearPointerSet *{*
                      00264 ;; ***  genNearPointerSet  6616
                      00265 ;;      614
                      00266 ;;      aopForRemat 393
                      00267 ;;      419: rname _TRISCbits, val 0, const = 0
                      00268 ;; ***  genNearPointerSet  6631
                      00269 ;;      824: aopGet AOP_PCODE type PO_IMMEDIATE
                      00270 ;;      _TRISCbits
                      00271 ;;      line = 6633 result AOP_PCODE=_TRISCbits, size=2, left -=-, size=0, right AOP_LIT=0x01, size=1
                      00272 ;;; ../../../../src/pic14/gen.c:6347:genPackBits *{*
                      00273 ;; ***  genPackBits  6348
                      00274 ;;      824: aopGet AOP_PCODE type PO_IMMEDIATE
                      00275 ;;      _TRISCbits
                      00276 ;; >>> ../../../../src/pic14/gen.c:6373:genPackBits
                      00277 ;       .line   128; "../../../lib/ser.c"       SER_TX_TRIS = INPUT;
0000   0??? 0???      00278         BANKSEL _TRISCbits      ;id=2110,key=000,inCond:0,outCond:0,flow seq=001
0002   17??           00279         BSF     _TRISCbits,6    ;id=1809,key=001,inCond:21,outCond:21,flow seq=001
                      00280 ;;; ../../../../src/pic14/gen.c:2308:resultRemat *{*
                      00281 ;;; ../../../../src/pic14/gen.c:2308:resultRemat *{*
                      00282 ;;; ../../../../src/pic14/gen.c:6796:genPointerSet *{*
                      00283 ;; ***  genPointerSet  6797
                      00284 ;;; ../../../../src/pic14/gen.c:6615:genNearPointerSet *{*
                      00285 ;; ***  genNearPointerSet  6616
                      00286 ;;      614
                      00287 ;;      aopForRemat 393
                      00288 ;;      419: rname _PORTCbits, val 0, const = 0
                      00289 ;; ***  genNearPointerSet  6631
                      00290 ;;      824: aopGet AOP_PCODE type PO_IMMEDIATE
                      00291 ;;      _PORTCbits
                      00292 ;;      line = 6633 result AOP_PCODE=_PORTCbits, size=2, left -=-, size=0, right AOP_LIT=0x01, size=1
                      00293 ;;; ../../../../src/pic14/gen.c:6347:genPackBits *{*
                      00294 ;; ***  genPackBits  6348
                      00295 ;;      824: aopGet AOP_PCODE type PO_IMMEDIATE
                      00296 ;;      _PORTCbits
                      00297 ;; >>> ../../../../src/pic14/gen.c:6373:genPackBits
                      00298 ;       .line   129; "../../../lib/ser.c"       SER_RX_PIN = INPUT;
0003   0??? 0???      00299         BANKSEL _PORTCbits      ;id=2111,key=002,inCond:0,outCond:0,flow seq=001
0005   17??           00300         BSF     _PORTCbits,7    ;id=1829,key=003,inCond:21,outCond:21,flow seq=001
                      00301 ;;; ../../../../src/pic14/gen.c:2308:resultRemat *{*
                      00302 ;;; ../../../../src/pic14/gen.c:2308:resultRemat *{*
                      00303 ;;; ../../../../src/pic14/gen.c:6796:genPointerSet *{*
                      00304 ;; ***  genPointerSet  6797
                      00305 ;;; ../../../../src/pic14/gen.c:6615:genNearPointerSet *{*
                      00306 ;; ***  genNearPointerSet  6616
                      00307 ;;      614
                      00308 ;;      aopForRemat 393
gpasm-1.5.2 #1319 (Aug 29 2019) build/default   30.08.2019  05:22:10        PAGE  7


LOC    OBJECT CODE    LINE  SOURCE TEXT
  VALUE

                      00309 ;;      419: rname _TXSTAbits, val 0, const = 0
                      00310 ;; ***  genNearPointerSet  6631
                      00311 ;;      824: aopGet AOP_PCODE type PO_IMMEDIATE
                      00312 ;;      _TXSTAbits
                      00313 ;;      line = 6633 result AOP_PCODE=_TXSTAbits, size=2, left -=-, size=0, right AOP_LIT=0x01, size=1
                      00314 ;;; ../../../../src/pic14/gen.c:6347:genPackBits *{*
                      00315 ;; ***  genPackBits  6348
                      00316 ;;      824: aopGet AOP_PCODE type PO_IMMEDIATE
                      00317 ;;      _TXSTAbits
                      00318 ;; >>> ../../../../src/pic14/gen.c:6373:genPackBits
                      00319 ;       .line   131; "../../../lib/ser.c"       BRGH = 1; // high speed
0006   0??? 0???      00320         BANKSEL _TXSTAbits      ;id=2112,key=004,inCond:0,outCond:0,flow seq=001
0008   15??           00321         BSF     _TXSTAbits,2    ;id=1849,key=005,inCond:21,outCond:21,flow seq=001
                      00322 ;;; ../../../../src/pic14/gen.c:2308:resultRemat *{*
                      00323 ;;; ../../../../src/pic14/gen.c:7036:genAssign *{*
                      00324 ;; ***  genAssign  7037
                      00325 ;; ***  aopForSym 316
                      00326 ;;      328 sym->rname = _ser_brg, size = 1
                      00327 ;; ***  aopForSym 316
                      00328 ;;      328 sym->rname = _SPBRG, size = 1
                      00329 ;;      line = 7046 result AOP_DIR=_SPBRG, size=1, left -=-, size=0, right AOP_DIR=_ser_brg, size=1
                      00330 ;; ***  genAssign  7132
                      00331 ;;; ../../../../src/pic14/gen.c:1328:mov2w_op *{*
                      00332 ;; ***  mov2w  1366  offset=0
                      00333 ;; >>> ../../../../src/pic14/gen.c:1371:mov2w
                      00334 ;;      998
                      00335 ;;      1012  _ser_brg   offset=0 - had to alloc by reg name
                      00336 ;       .line   136; "../../../lib/ser.c"       SPBRG = ser_brg; // 56.7K @ 20MHz, SPBRG = (20MHz/(16*BA
                            UD_RATE))-1;
0009   0??? 0???      00337         BANKSEL _ser_brg        ;id=2113,key=006,inCond:0,outCond:0,flow seq=001
000B   08??           00338         MOVF    _ser_brg,W      ;id=1865,key=007,inCond:1,outCond:14,flow seq=001
                      00339 ;; >>> ../../../../src/pic14/gen.c:7159:genAssign
                      00340 ;;      998
                      00341 ;;      1016  _SPBRG   offset=0
000C   0??? 0???      00342         BANKSEL _SPBRG  ;id=2114,key=008,inCond:0,outCond:0,flow seq=001
000E   00??           00343         MOVWF   _SPBRG  ;id=1869,key=009,inCond:10,outCond:1,flow seq=001
                      00344 ;;; ../../../../src/pic14/gen.c:2308:resultRemat *{*
                      00345 ;;; ../../../../src/pic14/gen.c:2308:resultRemat *{*
                      00346 ;;; ../../../../src/pic14/gen.c:6796:genPointerSet *{*
                      00347 ;; ***  genPointerSet  6797
                      00348 ;;; ../../../../src/pic14/gen.c:6615:genNearPointerSet *{*
                      00349 ;; ***  genNearPointerSet  6616
                      00350 ;;      614
                      00351 ;;      aopForRemat 393
                      00352 ;;      419: rname _TXSTAbits, val 0, const = 0
                      00353 ;; ***  genNearPointerSet  6631
                      00354 ;;      824: aopGet AOP_PCODE type PO_IMMEDIATE
                      00355 ;;      _TXSTAbits
                      00356 ;;      line = 6633 result AOP_PCODE=_TXSTAbits, size=2, left -=-, size=0, right AOP_LIT=0x00, size=1
                      00357 ;;; ../../../../src/pic14/gen.c:6347:genPackBits *{*
                      00358 ;; ***  genPackBits  6348
                      00359 ;;      824: aopGet AOP_PCODE type PO_IMMEDIATE
                      00360 ;;      _TXSTAbits
gpasm-1.5.2 #1319 (Aug 29 2019) build/default   30.08.2019  05:22:10        PAGE  8


LOC    OBJECT CODE    LINE  SOURCE TEXT
  VALUE

                      00361 ;; >>> ../../../../src/pic14/gen.c:6373:genPackBits
                      00362 ;; BANKOPT2 BANKSEL dropped; _TXSTAbits present in same bank as _SPBRG
                      00363 ;       .line   139; "../../../lib/ser.c"       TX9 = 0; // 8 bits
000F   13??           00364         BCF     _TXSTAbits,6    ;id=1889,key=00a,inCond:21,outCond:21,flow seq=001
                      00365 ;;; ../../../../src/pic14/gen.c:2308:resultRemat *{*
                      00366 ;;; ../../../../src/pic14/gen.c:2308:resultRemat *{*
                      00367 ;;; ../../../../src/pic14/gen.c:6796:genPointerSet *{*
                      00368 ;; ***  genPointerSet  6797
                      00369 ;;; ../../../../src/pic14/gen.c:6615:genNearPointerSet *{*
                      00370 ;; ***  genNearPointerSet  6616
                      00371 ;;      614
                      00372 ;;      aopForRemat 393
                      00373 ;;      419: rname _RCSTAbits, val 0, const = 0
                      00374 ;; ***  genNearPointerSet  6631
                      00375 ;;      824: aopGet AOP_PCODE type PO_IMMEDIATE
                      00376 ;;      _RCSTAbits
                      00377 ;;      line = 6633 result AOP_PCODE=_RCSTAbits, size=2, left -=-, size=0, right AOP_LIT=0x00, size=1
                      00378 ;;; ../../../../src/pic14/gen.c:6347:genPackBits *{*
                      00379 ;; ***  genPackBits  6348
                      00380 ;;      824: aopGet AOP_PCODE type PO_IMMEDIATE
                      00381 ;;      _RCSTAbits
                      00382 ;; >>> ../../../../src/pic14/gen.c:6373:genPackBits
                      00383 ;       .line   140; "../../../lib/ser.c"       RX9 = 0; //
0010   0??? 0???      00384         BANKSEL _RCSTAbits      ;id=2116,key=00b,inCond:0,outCond:0,flow seq=001
0012   13??           00385         BCF     _RCSTAbits,6    ;id=1909,key=00c,inCond:21,outCond:21,flow seq=001
                      00386 ;;; ../../../../src/pic14/gen.c:2308:resultRemat *{*
                      00387 ;;; ../../../../src/pic14/gen.c:2308:resultRemat *{*
                      00388 ;;; ../../../../src/pic14/gen.c:6796:genPointerSet *{*
                      00389 ;; ***  genPointerSet  6797
                      00390 ;;; ../../../../src/pic14/gen.c:6615:genNearPointerSet *{*
                      00391 ;; ***  genNearPointerSet  6616
                      00392 ;;      614
                      00393 ;;      aopForRemat 393
                      00394 ;;      419: rname _TXSTAbits, val 0, const = 0
                      00395 ;; ***  genNearPointerSet  6631
                      00396 ;;      824: aopGet AOP_PCODE type PO_IMMEDIATE
                      00397 ;;      _TXSTAbits
                      00398 ;;      line = 6633 result AOP_PCODE=_TXSTAbits, size=2, left -=-, size=0, right AOP_LIT=0x00, size=1
                      00399 ;;; ../../../../src/pic14/gen.c:6347:genPackBits *{*
                      00400 ;; ***  genPackBits  6348
                      00401 ;;      824: aopGet AOP_PCODE type PO_IMMEDIATE
                      00402 ;;      _TXSTAbits
                      00403 ;; >>> ../../../../src/pic14/gen.c:6373:genPackBits
                      00404 ;       .line   142; "../../../lib/ser.c"       SYNC = 0; // uart settings
0013   0??? 0???      00405         BANKSEL _TXSTAbits      ;id=2117,key=00d,inCond:0,outCond:0,flow seq=001
0015   12??           00406         BCF     _TXSTAbits,4    ;id=1929,key=00e,inCond:21,outCond:21,flow seq=001
                      00407 ;;; ../../../../src/pic14/gen.c:2308:resultRemat *{*
                      00408 ;;; ../../../../src/pic14/gen.c:2308:resultRemat *{*
                      00409 ;;; ../../../../src/pic14/gen.c:6796:genPointerSet *{*
                      00410 ;; ***  genPointerSet  6797
                      00411 ;;; ../../../../src/pic14/gen.c:6615:genNearPointerSet *{*
                      00412 ;; ***  genNearPointerSet  6616
                      00413 ;;      614
gpasm-1.5.2 #1319 (Aug 29 2019) build/default   30.08.2019  05:22:10        PAGE  9


LOC    OBJECT CODE    LINE  SOURCE TEXT
  VALUE

                      00414 ;;      aopForRemat 393
                      00415 ;;      419: rname _RCSTAbits, val 0, const = 0
                      00416 ;; ***  genNearPointerSet  6631
                      00417 ;;      824: aopGet AOP_PCODE type PO_IMMEDIATE
                      00418 ;;      _RCSTAbits
                      00419 ;;      line = 6633 result AOP_PCODE=_RCSTAbits, size=2, left -=-, size=0, right AOP_LIT=0x01, size=1
                      00420 ;;; ../../../../src/pic14/gen.c:6347:genPackBits *{*
                      00421 ;; ***  genPackBits  6348
                      00422 ;;      824: aopGet AOP_PCODE type PO_IMMEDIATE
                      00423 ;;      _RCSTAbits
                      00424 ;; >>> ../../../../src/pic14/gen.c:6373:genPackBits
                      00425 ;       .line   143; "../../../lib/ser.c"       SPEN = 1;
0016   0??? 0???      00426         BANKSEL _RCSTAbits      ;id=2118,key=00f,inCond:0,outCond:0,flow seq=001
0018   17??           00427         BSF     _RCSTAbits,7    ;id=1949,key=010,inCond:21,outCond:21,flow seq=001
                      00428 ;;; ../../../../src/pic14/gen.c:2308:resultRemat *{*
                      00429 ;;; ../../../../src/pic14/gen.c:2308:resultRemat *{*
                      00430 ;;; ../../../../src/pic14/gen.c:6796:genPointerSet *{*
                      00431 ;; ***  genPointerSet  6797
                      00432 ;;; ../../../../src/pic14/gen.c:6615:genNearPointerSet *{*
                      00433 ;; ***  genNearPointerSet  6616
                      00434 ;;      614
                      00435 ;;      aopForRemat 393
                      00436 ;;      419: rname _RCSTAbits, val 0, const = 0
                      00437 ;; ***  genNearPointerSet  6631
                      00438 ;;      824: aopGet AOP_PCODE type PO_IMMEDIATE
                      00439 ;;      _RCSTAbits
                      00440 ;;      line = 6633 result AOP_PCODE=_RCSTAbits, size=2, left -=-, size=0, right AOP_LIT=0x01, size=1
                      00441 ;;; ../../../../src/pic14/gen.c:6347:genPackBits *{*
                      00442 ;; ***  genPackBits  6348
                      00443 ;;      824: aopGet AOP_PCODE type PO_IMMEDIATE
                      00444 ;;      _RCSTAbits
                      00445 ;; >>> ../../../../src/pic14/gen.c:6373:genPackBits
                      00446 ;; BANKOPT2 BANKSEL dropped; _RCSTAbits present in same bank as _RCSTAbits
                      00447 ;       .line   144; "../../../lib/ser.c"       CREN = 1;
0019   16??           00448         BSF     _RCSTAbits,4    ;id=1969,key=011,inCond:21,outCond:21,flow seq=001
                      00449 ;;; ../../../../src/pic14/gen.c:2308:resultRemat *{*
                      00450 ;;; ../../../../src/pic14/gen.c:2308:resultRemat *{*
                      00451 ;;; ../../../../src/pic14/gen.c:6796:genPointerSet *{*
                      00452 ;; ***  genPointerSet  6797
                      00453 ;;; ../../../../src/pic14/gen.c:6615:genNearPointerSet *{*
                      00454 ;; ***  genNearPointerSet  6616
                      00455 ;;      614
                      00456 ;;      aopForRemat 393
                      00457 ;;      419: rname _PIE1bits, val 0, const = 0
                      00458 ;; ***  genNearPointerSet  6631
                      00459 ;;      824: aopGet AOP_PCODE type PO_IMMEDIATE
                      00460 ;;      _PIE1bits
                      00461 ;;      line = 6633 result AOP_PCODE=_PIE1bits, size=2, left -=-, size=0, right AOP_LIT=0x00, size=1
                      00462 ;;; ../../../../src/pic14/gen.c:6347:genPackBits *{*
                      00463 ;; ***  genPackBits  6348
                      00464 ;;      824: aopGet AOP_PCODE type PO_IMMEDIATE
                      00465 ;;      _PIE1bits
                      00466 ;; >>> ../../../../src/pic14/gen.c:6373:genPackBits
gpasm-1.5.2 #1319 (Aug 29 2019) build/default   30.08.2019  05:22:10        PAGE 10


LOC    OBJECT CODE    LINE  SOURCE TEXT
  VALUE

                      00467 ;       .line   145; "../../../lib/ser.c"       TXIE = 0;
001A   0??? 0???      00468         BANKSEL _PIE1bits       ;id=2120,key=012,inCond:0,outCond:0,flow seq=001
001C   12??           00469         BCF     _PIE1bits,4     ;id=1989,key=013,inCond:21,outCond:21,flow seq=001
                      00470 ;;; ../../../../src/pic14/gen.c:2308:resultRemat *{*
                      00471 ;;; ../../../../src/pic14/gen.c:2308:resultRemat *{*
                      00472 ;;; ../../../../src/pic14/gen.c:6796:genPointerSet *{*
                      00473 ;; ***  genPointerSet  6797
                      00474 ;;; ../../../../src/pic14/gen.c:6615:genNearPointerSet *{*
                      00475 ;; ***  genNearPointerSet  6616
                      00476 ;;      614
                      00477 ;;      aopForRemat 393
                      00478 ;;      419: rname _TXSTAbits, val 0, const = 0
                      00479 ;; ***  genNearPointerSet  6631
                      00480 ;;      824: aopGet AOP_PCODE type PO_IMMEDIATE
                      00481 ;;      _TXSTAbits
                      00482 ;;      line = 6633 result AOP_PCODE=_TXSTAbits, size=2, left -=-, size=0, right AOP_LIT=0x01, size=1
                      00483 ;;; ../../../../src/pic14/gen.c:6347:genPackBits *{*
                      00484 ;; ***  genPackBits  6348
                      00485 ;;      824: aopGet AOP_PCODE type PO_IMMEDIATE
                      00486 ;;      _TXSTAbits
                      00487 ;; >>> ../../../../src/pic14/gen.c:6373:genPackBits
                      00488 ;; BANKOPT2 BANKSEL dropped; _TXSTAbits present in same bank as _PIE1bits
                      00489 ;       .line   147; "../../../lib/ser.c"       TXEN = 1;
001D   16??           00490         BSF     _TXSTAbits,5    ;id=2009,key=014,inCond:21,outCond:21,flow seq=001
                      00491 ;;; ../../../../src/pic14/gen.c:2308:resultRemat *{*
                      00492 ;;; ../../../../src/pic14/gen.c:2308:resultRemat *{*
                      00493 ;;; ../../../../src/pic14/gen.c:6796:genPointerSet *{*
                      00494 ;; ***  genPointerSet  6797
                      00495 ;;; ../../../../src/pic14/gen.c:6615:genNearPointerSet *{*
                      00496 ;; ***  genNearPointerSet  6616
                      00497 ;;      614
                      00498 ;;      aopForRemat 393
                      00499 ;;      419: rname _INTCONbits, val 0, const = 0
                      00500 ;; ***  genNearPointerSet  6631
                      00501 ;;      824: aopGet AOP_PCODE type PO_IMMEDIATE
                      00502 ;;      _INTCONbits
                      00503 ;;      line = 6633 result AOP_PCODE=_INTCONbits, size=2, left -=-, size=0, right AOP_LIT=0x01, size=1
                      00504 ;;; ../../../../src/pic14/gen.c:6347:genPackBits *{*
                      00505 ;; ***  genPackBits  6348
                      00506 ;;      824: aopGet AOP_PCODE type PO_IMMEDIATE
                      00507 ;;      _INTCONbits
                      00508 ;; >>> ../../../../src/pic14/gen.c:6373:genPackBits
                      00509 ;       .line   148; "../../../lib/ser.c"       PEIE = 1;
001E   0??? 0???      00510         BANKSEL _INTCONbits     ;id=2122,key=015,inCond:0,outCond:0,flow seq=001
0020   17??           00511         BSF     _INTCONbits,6   ;id=2029,key=016,inCond:21,outCond:21,flow seq=001
                      00512 ;;; ../../../../src/pic14/gen.c:2308:resultRemat *{*
                      00513 ;;; ../../../../src/pic14/gen.c:7036:genAssign *{*
                      00514 ;; ***  genAssign  7037
                      00515 ;; ***  aopForSym 316
                      00516 ;;      328 sym->rname = _txoptr, size = 1
                      00517 ;;      line = 7046 result AOP_DIR=_txoptr, size=1, left -=-, size=0, right AOP_LIT=0x00, size=1
                      00518 ;; ***  genAssign  7132
                      00519 ;; >>> ../../../../src/pic14/gen.c:7144:genAssign
gpasm-1.5.2 #1319 (Aug 29 2019) build/default   30.08.2019  05:22:10        PAGE 11


LOC    OBJECT CODE    LINE  SOURCE TEXT
  VALUE

                      00520 ;;      998
                      00521 ;;      1016  _txoptr   offset=0
                      00522 ;       .line   150; "../../../lib/ser.c"       rxiptr = rxoptr = txiptr = txoptr = 0;
0021   0??? 0???      00523         BANKSEL _txoptr ;id=2123,key=017,inCond:0,outCond:0,flow seq=001
0023   01??           00524         CLRF    _txoptr ;id=2041,key=018,inCond:0,outCond:5,flow seq=001
                      00525 ;;; ../../../../src/pic14/gen.c:2308:resultRemat *{*
                      00526 ;;; ../../../../src/pic14/gen.c:7036:genAssign *{*
                      00527 ;; ***  genAssign  7037
                      00528 ;; ***  aopForSym 316
                      00529 ;;      328 sym->rname = _txiptr, size = 1
                      00530 ;;      line = 7046 result AOP_DIR=_txiptr, size=1, left -=-, size=0, right AOP_LIT=0x00, size=1
                      00531 ;; ***  genAssign  7132
                      00532 ;; >>> ../../../../src/pic14/gen.c:7144:genAssign
                      00533 ;;      998
                      00534 ;;      1016  _txiptr   offset=0
0024   0??? 0???      00535         BANKSEL _txiptr ;id=2124,key=019,inCond:0,outCond:0,flow seq=001
0026   01??           00536         CLRF    _txiptr ;id=2052,key=01a,inCond:0,outCond:5,flow seq=001
                      00537 ;;; ../../../../src/pic14/gen.c:2308:resultRemat *{*
                      00538 ;;; ../../../../src/pic14/gen.c:7036:genAssign *{*
                      00539 ;; ***  genAssign  7037
                      00540 ;; ***  aopForSym 316
                      00541 ;;      328 sym->rname = _rxoptr, size = 1
                      00542 ;;      line = 7046 result AOP_DIR=_rxoptr, size=1, left -=-, size=0, right AOP_LIT=0x00, size=1
                      00543 ;; ***  genAssign  7132
                      00544 ;; >>> ../../../../src/pic14/gen.c:7144:genAssign
                      00545 ;;      998
                      00546 ;;      1016  _rxoptr   offset=0
0027   0??? 0???      00547         BANKSEL _rxoptr ;id=2125,key=01b,inCond:0,outCond:0,flow seq=001
0029   01??           00548         CLRF    _rxoptr ;id=2063,key=01c,inCond:0,outCond:5,flow seq=001
                      00549 ;;; ../../../../src/pic14/gen.c:2308:resultRemat *{*
                      00550 ;;; ../../../../src/pic14/gen.c:7036:genAssign *{*
                      00551 ;; ***  genAssign  7037
                      00552 ;; ***  aopForSym 316
                      00553 ;;      328 sym->rname = _rxiptr, size = 1
                      00554 ;;      line = 7046 result AOP_DIR=_rxiptr, size=1, left -=-, size=0, right AOP_LIT=0x00, size=1
                      00555 ;; ***  genAssign  7132
                      00556 ;; >>> ../../../../src/pic14/gen.c:7144:genAssign
                      00557 ;;      998
                      00558 ;;      1016  _rxiptr   offset=0
002A   0??? 0???      00559         BANKSEL _rxiptr ;id=2126,key=01d,inCond:0,outCond:0,flow seq=001
002C   01??           00560         CLRF    _rxiptr ;id=2074,key=01e,inCond:0,outCond:5,flow seq=001
                      00561 ;;; ../../../../src/pic14/gen.c:2308:resultRemat *{*
                      00562 ;;; ../../../../src/pic14/gen.c:2752:genLabel *{*
                      00563 ;; ***  genLabel  2755
                      00564 ;_00176_DS_:
                      00565 ;;; ../../../../src/pic14/gen.c:2308:resultRemat *{*
                      00566 ;;; ../../../../src/pic14/gen.c:2520:genEndFunction *{*
                      00567 ;; ***  genEndFunction  2522
                      00568 ;return
                      00569 ;       .line   151; "../../../lib/ser.c"       }
002D   0008           00570         RETURN          ;id=2085,key=01f,inCond:10,outCond:e,flow seq=001
                      00571 ;<>Start of new flow, seq=0x2
                      00572 ;  from: ; to: 
gpasm-1.5.2 #1319 (Aug 29 2019) build/default   30.08.2019  05:22:10        PAGE 12


LOC    OBJECT CODE    LINE  SOURCE TEXT
  VALUE

                      00573 ; exit point of _ser_init
                      00574 
                      00575 ;***
                      00576 ;  pBlock Stats: dbName = C
                      00577 ;***
                      00578 ;has an exit
                      00579 ;functions called:
                      00580 ;   _ser_putch
                      00581 ;   _ser_putch
                      00582 ;   _ser_putch
                      00583 ;   _ser_putch
                      00584 ;   _ser_putch
                      00585 ;   _ser_putch
                      00586 ;   _ser_putch
                      00587 ;   _ser_putch
                      00588 ;4 compiler assigned registers:
                      00589 ;   r0x102A
                      00590 ;   r0x102B
                      00591 ;   r0x102C
                      00592 ;   r0x102D
                      00593 ;; Starting pCode block
                      00594 ;<>Start of new flow, seq=0x3 ancestor = 0x3
                      00595 ;  from: ; to: 005 004 
                      00596 ;;; ../../../../src/pic14/gen.c:2308:resultRemat *{*
                      00597 ;;; ../../../../src/pic14/gen.c:2752:genLabel *{*
                      00598 ;; ***  genLabel  2755
                      00599 ;;; ../../../../src/pic14/gen.c:2308:resultRemat *{*
                      00600 ;;; ../../../../src/pic14/gen.c:2332:genFunction *{*
                      00601 ;; ***  genFunction  2334 curr label offset=56previous max_key=4 
                      00602 ;;      -----------------------------------------
                      00603 ;;       function ser_puthex
                      00604 ;;      -----------------------------------------
                      00605 ;_ser_puthex:
                      00606 S_ser__ser_puthex       code
0000                  00607 _ser_puthex:
                      00608 ; 2 exit points
                      00609 ;;; ../../../../src/pic14/gen.c:2308:resultRemat *{*
                      00610 ;;; ../../../../src/pic14/gen.c:7467:genReceive *{*
                      00611 ;; ***  genReceive  7468
                      00612 ;;      695 register type nRegs=1
                      00613 ;;; ../../../../src/pic14/gen.c:1892:assignResultValue *{*
                      00614 ;; ***  assignResultValue  1894
                      00615 ;;      line = 1896 result -=-, size=0, left AOP_REG=r0x1064, size=1, right -=-, size=0
                      00616 ;; >>> ../../../../src/pic14/gen.c:1378:movwf
                      00617 ;;      1097 rIdx = r0x1064 
                      00618 ;       .line   106; "../../../lib/ser.c"       ser_puthex(uint8_t v) {
0000   0??? 0???      00619         BANKSEL r0x102A ;id=2127,key=000,inCond:0,outCond:0,flow seq=003
0002   00??           00620         MOVWF   r0x102A ;id=1380,key=001,inCond:10,outCond:1,flow seq=003,rIdx=r0x1064
                      00621 ;;; ../../../../src/pic14/gen.c:2308:resultRemat *{*
                      00622 ;;; ../../../../src/pic14/gen.c:5516:genGenericShift *{*
                      00623 ;; ***  genGenericShift  5519
                      00624 ;;      695 register type nRegs=1
                      00625 ;;      695 register type nRegs=1
gpasm-1.5.2 #1319 (Aug 29 2019) build/default   30.08.2019  05:22:10        PAGE 13


LOC    OBJECT CODE    LINE  SOURCE TEXT
  VALUE

                      00626 ;; >>> ../../../../src/pic14/gen.c:5404:shiftRight_Left2ResultLit
                      00627 ;;      1097 rIdx = r0x1064 
                      00628 ;; BANKOPT2 BANKSEL dropped; r0x102A present in same bank as r0x102A
                      00629 ;       .line   109; "../../../lib/ser.c"       c = v >> 4;
0003   0E??           00630         SWAPF   r0x102A,W       ;id=1389,key=002,inCond:1,outCond:10,flow seq=003,rIdx=r0x1064
                      00631 ;; >>> ../../../../src/pic14/gen.c:5405:shiftRight_Left2ResultLit
0004   390F           00632         ANDLW   0x0f    ;id=1391,key=003,inCond:410,outCond:14,flow seq=003
                      00633 ;; >>> ../../../../src/pic14/gen.c:5406:shiftRight_Left2ResultLit
                      00634 ;;      1097 rIdx = r0x1065 
                      00635 ;; BANKOPT2 BANKSEL dropped; r0x102B present in same bank as r0x102A
0005   00??           00636         MOVWF   r0x102B ;id=1394,key=004,inCond:10,outCond:1,flow seq=003,rIdx=r0x1065
                      00637 ;; ***  addSign  857
                      00638 ;;; ../../../../src/pic14/genarith.c:858:addSign *{*
                      00639 ;;; ../../../../src/pic14/gen.c:2308:resultRemat *{*
                      00640 ;;; ../../../../src/pic14/gen.c:3566:genCmpGt *{*
                      00641 ;; ***  genCmpGt  3567
                      00642 ;;      576
                      00643 ;;; ../../../../src/pic14/gen.c:3304:genCmp *{*
                      00644 ;;swapping arguments (AOP_TYPEs 1/2)
                      00645 ;;unsigned compare: left >= lit(0xA=10), size=1
                      00646 ;; >>> ../../../../src/pic14/gen.c:3275:pic14_mov2w_regOrLit
                      00647 ;       .line   110; "../../../lib/ser.c"       if(c > 9) {
0006   300A           00648         MOVLW   0x0a    ;id=1406,key=005,inCond:400,outCond:10,flow seq=003
                      00649 ;; >>> ../../../../src/pic14/gen.c:3442:genCmp
                      00650 ;;      1097 rIdx = r0x1065 
                      00651 ;; BANKOPT2 BANKSEL dropped; r0x102B present in same bank as r0x102A
0007   02??           00652         SUBWF   r0x102B,W       ;id=1409,key=006,inCond:11,outCond:1e,flow seq=003,rIdx=r0x1065
                      00653 ;;; ../../../../src/pic14/gen.c:3247:genSkipc *{*
                      00654 ;; >>> ../../../../src/pic14/gen.c:3254:genSkipc
0008   1C03           00655         BTFSS   STATUS,0        ;id=1413,key=007,inCond:23,outCond:0,flow seq=003
                      00656 ;<>Start of new flow, seq=0x4 ancestor = 0x3
                      00657 ;  from: 003 ; to: 007 
                      00658 ;; >>> ../../../../src/pic14/gen.c:3256:genSkipc
                      00659 ;; ***  popGetLabel  key=2, label offset 64
0009   2???           00660         GOTO    _00166_DS_      ;id=1416,key=000,inCond:0,outCond:0,flow seq=004
                      00661 ;<>Start of new flow, seq=0x5 ancestor = 0x3
                      00662 ;  from: 003 ; to: 006 
                      00663 ;;genSkipc:3257: created from rifx:0x7fffc8af7b80
                      00664 ;;; ../../../../src/pic14/gen.c:2308:resultRemat *{*
                      00665 ;;; ../../../../src/pic14/gen.c:2308:resultRemat *{*
                      00666 ;;; ../../../../src/pic14/gen.c:7229:genCast *{*
                      00667 ;; ***  genCast  7230
                      00668 ;;      695 register type nRegs=1
                      00669 ;;      695 register type nRegs=1
                      00670 ;;      line = 7238 result AOP_REG=r0x1066, size=1, left -=-, size=0, right AOP_REG=r0x1065, size=1
                      00671 ;; ***  genCast  7362
                      00672 ;; >>> ../../../../src/pic14/gen.c:7386:genCast
                      00673 ;;      1097 rIdx = r0x1065 
                      00674 ;; BANKOPT2 BANKSEL dropped; r0x102B present in same bank as r0x102A
                      00675 ;       .line   111; "../../../lib/ser.c"       ser_putch((char)('A' - 10 + c));
000A   08??           00676         MOVF    r0x102B,W       ;id=1429,key=000,inCond:1,outCond:14,flow seq=005,rIdx=r0x1065
                      00677 ;; >>> ../../../../src/pic14/gen.c:7387:genCast
                      00678 ;;      1097 rIdx = r0x1066 
gpasm-1.5.2 #1319 (Aug 29 2019) build/default   30.08.2019  05:22:10        PAGE 14


LOC    OBJECT CODE    LINE  SOURCE TEXT
  VALUE

                      00679 ;; BANKOPT2 BANKSEL dropped; r0x102C present in same bank as r0x102A
000B   00??           00680         MOVWF   r0x102C ;id=1432,key=001,inCond:10,outCond:1,flow seq=005,rIdx=r0x1066
                      00681 ;;; ../../../../src/pic14/gen.c:2308:resultRemat *{*
                      00682 ;; ***  genPlus  607
                      00683 ;;; ../../../../src/pic14/genarith.c:608:genPlus *{*
                      00684 ;;      695 register type nRegs=1
                      00685 ;;      695 register type nRegs=1
                      00686 ;;      line = 614 result AOP_REG=r0x1066, size=1, left AOP_REG=r0x1066, size=1, right AOP_LIT=0x37, siz
                            e=1
                      00687 ;;; ../../../../src/pic14/genarith.c:138:genPlusIncr *{*
                      00688 ;; ***  genPlusIncr  140
                      00689 ;;      result AOP_REG, left AOP_REG, right AOP_LIT
                      00690 ;;      genPlusIncr  152
                      00691 ;;      adding lit to something. size 1
                      00692 ;;; ../../../../src/pic14/genarith.c:265:genAddLit *{*
                      00693 ;; ***  genAddLit  266
                      00694 ;;; ../../../../src/pic14/genarith.c:229:genAddLit2byte *{*
                      00695 ;; >>> ../../../../src/pic14/genarith.c:241:genAddLit2byte
000C   3037           00696         MOVLW   0x37    ;id=1448,key=002,inCond:400,outCond:10,flow seq=005
                      00697 ;; >>> ../../../../src/pic14/genarith.c:242:genAddLit2byte
                      00698 ;;      1097 rIdx = r0x1066 
                      00699 ;; BANKOPT2 BANKSEL dropped; r0x102C present in same bank as r0x102A
000D   07??           00700         ADDWF   r0x102C,F       ;id=1451,key=003,inCond:11,outCond:f,flow seq=005,rIdx=r0x1066
                      00701 ;; ***  addSign  857
                      00702 ;;; ../../../../src/pic14/genarith.c:858:addSign *{*
                      00703 ;;; ../../../../src/pic14/gen.c:2308:resultRemat *{*
                      00704 ;;; ../../../../src/pic14/gen.c:7229:genCast *{*
                      00705 ;; ***  genCast  7230
                      00706 ;;      695 register type nRegs=1
                      00707 ;;      695 register type nRegs=1
                      00708 ;;      line = 7238 result AOP_REG=r0x1067, size=1, left -=-, size=0, right AOP_REG=r0x1066, size=1
                      00709 ;; ***  genCast  7362
                      00710 ;; >>> ../../../../src/pic14/gen.c:7386:genCast
                      00711 ;;      1097 rIdx = r0x1066 
                      00712 ;; BANKOPT2 BANKSEL dropped; r0x102C present in same bank as r0x102A
000E   08??           00713         MOVF    r0x102C,W       ;id=2087,key=004,inCond:1,outCond:14,flow seq=005,rIdx=r0x1066
                      00714 ;;1     MOVWF   r0x102D
000F   0??? 0???      00715         PAGESEL _ser_putch      ;id=1482,key=005,inCond:0,outCond:0,flow seq=005
                      00716 ;; >>> ../../../../src/pic14/gen.c:2165:genCall
                      00717 ;; BANKOPT3 drop assumptions: PCI with label or call found
0011   2???           00718         CALL    _ser_putch      ;id=1484,key=006,inCond:10,outCond:1e,flow seq=005
                      00719 ;<>Start of new flow, seq=0x6 ancestor = 0x5
                      00720 ;  from: 005 ; to: 009 
                      00721 ;; >>> ../../../../src/pic14/gen.c:2173:genCall
0012   0??? 0???      00722         PAGESEL $       ;id=1486,key=000,inCond:0,outCond:0,flow seq=006
                      00723 ;;; ../../../../src/pic14/gen.c:1830:unsaveRegisters *{*
                      00724 ;; ***  unsaveRegisters  1832
                      00725 ;;; ../../../../src/pic14/gen.c:2308:resultRemat *{*
                      00726 ;;; ../../../../src/pic14/gen.c:2770:genGoto *{*
                      00727 ;; >>> ../../../../src/pic14/gen.c:2772:genGoto
                      00728 ;; ***  popGetLabel  key=3, label offset 64
0014   2???           00729         GOTO    _00167_DS_      ;id=1493,key=001,inCond:0,outCond:0,flow seq=006
                      00730 ;<>Start of new flow, seq=0x7 ancestor = 0x4
gpasm-1.5.2 #1319 (Aug 29 2019) build/default   30.08.2019  05:22:10        PAGE 15


LOC    OBJECT CODE    LINE  SOURCE TEXT
  VALUE

                      00731 ;  from: 004 ; to: 008 
                      00732 ;goto   _00167_DS_
                      00733 ;;; ../../../../src/pic14/gen.c:2308:resultRemat *{*
                      00734 ;;; ../../../../src/pic14/gen.c:2752:genLabel *{*
                      00735 ;; ***  genLabel  2755
                      00736 ;_00166_DS_:
                      00737 ;;; ../../../../src/pic14/gen.c:2308:resultRemat *{*
                      00738 ;;; ../../../../src/pic14/gen.c:7229:genCast *{*
                      00739 ;; ***  genCast  7230
                      00740 ;;      695 register type nRegs=1
                      00741 ;;      695 register type nRegs=1
                      00742 ;;      line = 7238 result AOP_REG=r0x1066, size=1, left -=-, size=0, right AOP_REG=r0x1065, size=1
                      00743 ;; ***  genCast  7362
                      00744 ;; >>> ../../../../src/pic14/gen.c:7386:genCast
                      00745 ;;      1097 rIdx = r0x1065 
                      00746 ;; BANKOPT3 drop assumptions: PCI with label or call found
0015                  00747 _00166_DS_:
                      00748 ;       .line   113; "../../../lib/ser.c"       ser_putch((char)('0' + c));
0015   0??? 0???      00749         BANKSEL r0x102B ;id=2137,key=000,inCond:0,outCond:0,flow seq=007
0017   08??           00750         MOVF    r0x102B,W       ;id=1510,key=001,inCond:1,outCond:14,flow seq=007,rIdx=r0x1065
                      00751 ;; >>> ../../../../src/pic14/gen.c:7387:genCast
                      00752 ;;      1097 rIdx = r0x1066 
                      00753 ;; BANKOPT2 BANKSEL dropped; r0x102C present in same bank as r0x102B
0018   00??           00754         MOVWF   r0x102C ;id=1513,key=002,inCond:10,outCond:1,flow seq=007,rIdx=r0x1066
                      00755 ;;; ../../../../src/pic14/gen.c:2308:resultRemat *{*
                      00756 ;; ***  genPlus  607
                      00757 ;;; ../../../../src/pic14/genarith.c:608:genPlus *{*
                      00758 ;;      695 register type nRegs=1
                      00759 ;;      695 register type nRegs=1
                      00760 ;;      line = 614 result AOP_REG=r0x1066, size=1, left AOP_REG=r0x1066, size=1, right AOP_LIT=0x30, siz
                            e=1
                      00761 ;;; ../../../../src/pic14/genarith.c:138:genPlusIncr *{*
                      00762 ;; ***  genPlusIncr  140
                      00763 ;;      result AOP_REG, left AOP_REG, right AOP_LIT
                      00764 ;;      genPlusIncr  152
                      00765 ;;      adding lit to something. size 1
                      00766 ;;; ../../../../src/pic14/genarith.c:265:genAddLit *{*
                      00767 ;; ***  genAddLit  266
                      00768 ;;; ../../../../src/pic14/genarith.c:229:genAddLit2byte *{*
                      00769 ;; >>> ../../../../src/pic14/genarith.c:241:genAddLit2byte
0019   3030           00770         MOVLW   0x30    ;id=1529,key=003,inCond:400,outCond:10,flow seq=007
                      00771 ;; >>> ../../../../src/pic14/genarith.c:242:genAddLit2byte
                      00772 ;;      1097 rIdx = r0x1066 
                      00773 ;; BANKOPT2 BANKSEL dropped; r0x102C present in same bank as r0x102B
001A   07??           00774         ADDWF   r0x102C,F       ;id=1532,key=004,inCond:11,outCond:f,flow seq=007,rIdx=r0x1066
                      00775 ;; ***  addSign  857
                      00776 ;;; ../../../../src/pic14/genarith.c:858:addSign *{*
                      00777 ;;; ../../../../src/pic14/gen.c:2308:resultRemat *{*
                      00778 ;;; ../../../../src/pic14/gen.c:7229:genCast *{*
                      00779 ;; ***  genCast  7230
                      00780 ;;      695 register type nRegs=1
                      00781 ;;      695 register type nRegs=1
                      00782 ;;      line = 7238 result AOP_REG=r0x1065, size=1, left -=-, size=0, right AOP_REG=r0x1066, size=1
gpasm-1.5.2 #1319 (Aug 29 2019) build/default   30.08.2019  05:22:10        PAGE 16


LOC    OBJECT CODE    LINE  SOURCE TEXT
  VALUE

                      00783 ;; ***  genCast  7362
                      00784 ;; >>> ../../../../src/pic14/gen.c:7386:genCast
                      00785 ;;      1097 rIdx = r0x1066 
                      00786 ;; BANKOPT2 BANKSEL dropped; r0x102C present in same bank as r0x102B
001B   08??           00787         MOVF    r0x102C,W       ;id=2089,key=005,inCond:1,outCond:14,flow seq=007,rIdx=r0x1066
                      00788 ;; BANKOPT2 BANKSEL dropped; r0x102B present in same bank as r0x102B
001C   00??           00789         MOVWF   r0x102B ;id=2090,key=006,inCond:10,outCond:1,flow seq=007,rIdx=r0x1065
001D   0??? 0???      00790         PAGESEL _ser_putch      ;id=1563,key=007,inCond:0,outCond:0,flow seq=007
                      00791 ;; >>> ../../../../src/pic14/gen.c:2165:genCall
                      00792 ;; BANKOPT3 drop assumptions: PCI with label or call found
001F   2???           00793         CALL    _ser_putch      ;id=1565,key=008,inCond:10,outCond:1e,flow seq=007
                      00794 ;<>Start of new flow, seq=0x8 ancestor = 0x7
                      00795 ;  from: 007 ; to: 009 
                      00796 ;; >>> ../../../../src/pic14/gen.c:2173:genCall
0020   0??? 0???      00797         PAGESEL $       ;id=1567,key=000,inCond:0,outCond:0,flow seq=008
                      00798 ;<>Start of new flow, seq=0x9 ancestor = 0x6
                      00799 ;  from: 008 006 ; to: 00b 00a 
                      00800 ;;; ../../../../src/pic14/gen.c:1830:unsaveRegisters *{*
                      00801 ;; ***  unsaveRegisters  1832
                      00802 ;;; ../../../../src/pic14/gen.c:2308:resultRemat *{*
                      00803 ;;; ../../../../src/pic14/gen.c:2752:genLabel *{*
                      00804 ;; ***  genLabel  2755
                      00805 ;_00167_DS_:
                      00806 ;;; ../../../../src/pic14/gen.c:2308:resultRemat *{*
                      00807 ;;; ../../../../src/pic14/gen.c:3938:genAnd *{*
                      00808 ;; ***  genAnd  3939
                      00809 ;;      576
                      00810 ;;      695 register type nRegs=1
                      00811 ;;      line = 3974 result AOP_REG=r0x1064, size=1, left AOP_REG=r0x1064, size=1, right AOP_LIT=0x0f, si
                            ze=1
                      00812 ;; >>> ../../../../src/pic14/gen.c:4147:genAnd
                      00813 ;; BANKOPT3 drop assumptions: PCI with label or call found
0022                  00814 _00167_DS_:
                      00815 ;       .line   116; "../../../lib/ser.c"       c = v & 0x0F;
0022   300F           00816         MOVLW   0x0f    ;id=1583,key=000,inCond:400,outCond:10,flow seq=009
                      00817 ;; >>> ../../../../src/pic14/gen.c:4149:genAnd
                      00818 ;;      1097 rIdx = r0x1064 
0023   0??? 0???      00819         BANKSEL r0x102A ;id=2144,key=001,inCond:0,outCond:0,flow seq=009
0025   05??           00820         ANDWF   r0x102A,F       ;id=1586,key=002,inCond:11,outCond:5,flow seq=009,rIdx=r0x1064
                      00821 ;;; ../../../../src/pic14/gen.c:2308:resultRemat *{*
                      00822 ;;; ../../../../src/pic14/gen.c:3566:genCmpGt *{*
                      00823 ;; ***  genCmpGt  3567
                      00824 ;;      695 register type nRegs=1
                      00825 ;;; ../../../../src/pic14/gen.c:3304:genCmp *{*
                      00826 ;;swapping arguments (AOP_TYPEs 1/2)
                      00827 ;;unsigned compare: left >= lit(0xA=10), size=1
                      00828 ;; >>> ../../../../src/pic14/gen.c:3275:pic14_mov2w_regOrLit
                      00829 ;       .line   117; "../../../lib/ser.c"       if(c > 9) {
0026   300A           00830         MOVLW   0x0a    ;id=1596,key=003,inCond:400,outCond:10,flow seq=009
                      00831 ;; >>> ../../../../src/pic14/gen.c:3442:genCmp
                      00832 ;;      1097 rIdx = r0x1064 
                      00833 ;; BANKOPT2 BANKSEL dropped; r0x102A present in same bank as r0x102A
0027   02??           00834         SUBWF   r0x102A,W       ;id=1599,key=004,inCond:11,outCond:1e,flow seq=009,rIdx=r0x1064
gpasm-1.5.2 #1319 (Aug 29 2019) build/default   30.08.2019  05:22:10        PAGE 17


LOC    OBJECT CODE    LINE  SOURCE TEXT
  VALUE

                      00835 ;;; ../../../../src/pic14/gen.c:3247:genSkipc *{*
                      00836 ;; >>> ../../../../src/pic14/gen.c:3254:genSkipc
0028   1C03           00837         BTFSS   STATUS,0        ;id=1603,key=005,inCond:23,outCond:0,flow seq=009
                      00838 ;<>Start of new flow, seq=0xa ancestor = 0x9
                      00839 ;  from: 009 ; to: 00d 
                      00840 ;; >>> ../../../../src/pic14/gen.c:3256:genSkipc
                      00841 ;; ***  popGetLabel  key=5, label offset 64
0029   2???           00842         GOTO    _00169_DS_      ;id=1606,key=000,inCond:0,outCond:0,flow seq=00a
                      00843 ;<>Start of new flow, seq=0xb ancestor = 0x9
                      00844 ;  from: 009 ; to: 00c 
                      00845 ;;genSkipc:3257: created from rifx:0x7fffc8af7b80
                      00846 ;;; ../../../../src/pic14/gen.c:2308:resultRemat *{*
                      00847 ;;; ../../../../src/pic14/gen.c:2308:resultRemat *{*
                      00848 ;;; ../../../../src/pic14/gen.c:7229:genCast *{*
                      00849 ;; ***  genCast  7230
                      00850 ;;      695 register type nRegs=1
                      00851 ;;      695 register type nRegs=1
                      00852 ;;      line = 7238 result AOP_REG=r0x1065, size=1, left -=-, size=0, right AOP_REG=r0x1064, size=1
                      00853 ;; ***  genCast  7362
                      00854 ;; >>> ../../../../src/pic14/gen.c:7386:genCast
                      00855 ;;      1097 rIdx = r0x1064 
                      00856 ;; BANKOPT2 BANKSEL dropped; r0x102A present in same bank as r0x102A
                      00857 ;       .line   118; "../../../lib/ser.c"       ser_putch((char)('A' - 10 + c));
002A   08??           00858         MOVF    r0x102A,W       ;id=1619,key=000,inCond:1,outCond:14,flow seq=00b,rIdx=r0x1064
                      00859 ;; >>> ../../../../src/pic14/gen.c:7387:genCast
                      00860 ;;      1097 rIdx = r0x1065 
                      00861 ;; BANKOPT2 BANKSEL dropped; r0x102B present in same bank as r0x102A
002B   00??           00862         MOVWF   r0x102B ;id=1622,key=001,inCond:10,outCond:1,flow seq=00b,rIdx=r0x1065
                      00863 ;;; ../../../../src/pic14/gen.c:2308:resultRemat *{*
                      00864 ;; ***  genPlus  607
                      00865 ;;; ../../../../src/pic14/genarith.c:608:genPlus *{*
                      00866 ;;      695 register type nRegs=1
                      00867 ;;      695 register type nRegs=1
                      00868 ;;      line = 614 result AOP_REG=r0x1065, size=1, left AOP_REG=r0x1065, size=1, right AOP_LIT=0x37, siz
                            e=1
                      00869 ;;; ../../../../src/pic14/genarith.c:138:genPlusIncr *{*
                      00870 ;; ***  genPlusIncr  140
                      00871 ;;      result AOP_REG, left AOP_REG, right AOP_LIT
                      00872 ;;      genPlusIncr  152
                      00873 ;;      adding lit to something. size 1
                      00874 ;;; ../../../../src/pic14/genarith.c:265:genAddLit *{*
                      00875 ;; ***  genAddLit  266
                      00876 ;;; ../../../../src/pic14/genarith.c:229:genAddLit2byte *{*
                      00877 ;; >>> ../../../../src/pic14/genarith.c:241:genAddLit2byte
002C   3037           00878         MOVLW   0x37    ;id=1638,key=002,inCond:400,outCond:10,flow seq=00b
                      00879 ;; >>> ../../../../src/pic14/genarith.c:242:genAddLit2byte
                      00880 ;;      1097 rIdx = r0x1065 
                      00881 ;; BANKOPT2 BANKSEL dropped; r0x102B present in same bank as r0x102A
002D   07??           00882         ADDWF   r0x102B,F       ;id=1641,key=003,inCond:11,outCond:f,flow seq=00b,rIdx=r0x1065
                      00883 ;; ***  addSign  857
                      00884 ;;; ../../../../src/pic14/genarith.c:858:addSign *{*
                      00885 ;;; ../../../../src/pic14/gen.c:2308:resultRemat *{*
                      00886 ;;; ../../../../src/pic14/gen.c:7229:genCast *{*
gpasm-1.5.2 #1319 (Aug 29 2019) build/default   30.08.2019  05:22:10        PAGE 18


LOC    OBJECT CODE    LINE  SOURCE TEXT
  VALUE

                      00887 ;; ***  genCast  7230
                      00888 ;;      695 register type nRegs=1
                      00889 ;;      695 register type nRegs=1
                      00890 ;;      line = 7238 result AOP_REG=r0x1066, size=1, left -=-, size=0, right AOP_REG=r0x1065, size=1
                      00891 ;; ***  genCast  7362
                      00892 ;; >>> ../../../../src/pic14/gen.c:7386:genCast
                      00893 ;;      1097 rIdx = r0x1065 
                      00894 ;; BANKOPT2 BANKSEL dropped; r0x102B present in same bank as r0x102A
002E   08??           00895         MOVF    r0x102B,W       ;id=2091,key=004,inCond:1,outCond:14,flow seq=00b,rIdx=r0x1065
                      00896 ;; BANKOPT2 BANKSEL dropped; r0x102C present in same bank as r0x102A
002F   00??           00897         MOVWF   r0x102C ;id=2092,key=005,inCond:10,outCond:1,flow seq=00b,rIdx=r0x1066
0030   0??? 0???      00898         PAGESEL _ser_putch      ;id=1672,key=006,inCond:0,outCond:0,flow seq=00b
                      00899 ;; >>> ../../../../src/pic14/gen.c:2165:genCall
                      00900 ;; BANKOPT3 drop assumptions: PCI with label or call found
0032   2???           00901         CALL    _ser_putch      ;id=1674,key=007,inCond:10,outCond:1e,flow seq=00b
                      00902 ;<>Start of new flow, seq=0xc ancestor = 0xb
                      00903 ;  from: 00b ; to: 00f 
                      00904 ;; >>> ../../../../src/pic14/gen.c:2173:genCall
0033   0??? 0???      00905         PAGESEL $       ;id=1676,key=000,inCond:0,outCond:0,flow seq=00c
                      00906 ;;; ../../../../src/pic14/gen.c:1830:unsaveRegisters *{*
                      00907 ;; ***  unsaveRegisters  1832
                      00908 ;;; ../../../../src/pic14/gen.c:2308:resultRemat *{*
                      00909 ;;; ../../../../src/pic14/gen.c:2770:genGoto *{*
                      00910 ;; >>> ../../../../src/pic14/gen.c:2772:genGoto
                      00911 ;; ***  popGetLabel  key=7, label offset 64
0035   2???           00912         GOTO    _00171_DS_      ;id=1683,key=001,inCond:0,outCond:0,flow seq=00c
                      00913 ;<>Start of new flow, seq=0xd ancestor = 0xa
                      00914 ;  from: 00a ; to: 00e 
                      00915 ;goto   _00171_DS_
                      00916 ;;; ../../../../src/pic14/gen.c:2308:resultRemat *{*
                      00917 ;;; ../../../../src/pic14/gen.c:2752:genLabel *{*
                      00918 ;; ***  genLabel  2755
                      00919 ;_00169_DS_:
                      00920 ;;; ../../../../src/pic14/gen.c:2308:resultRemat *{*
                      00921 ;;; ../../../../src/pic14/gen.c:7229:genCast *{*
                      00922 ;; ***  genCast  7230
                      00923 ;;      695 register type nRegs=1
                      00924 ;;      695 register type nRegs=1
                      00925 ;;      line = 7238 result AOP_REG=r0x1065, size=1, left -=-, size=0, right AOP_REG=r0x1064, size=1
                      00926 ;; ***  genCast  7362
                      00927 ;; >>> ../../../../src/pic14/gen.c:7386:genCast
                      00928 ;;      1097 rIdx = r0x1064 
                      00929 ;; BANKOPT3 drop assumptions: PCI with label or call found
0036                  00930 _00169_DS_:
                      00931 ;       .line   120; "../../../lib/ser.c"       ser_putch((char)('0' + c));
0036   0??? 0???      00932         BANKSEL r0x102A ;id=2153,key=000,inCond:0,outCond:0,flow seq=00d
0038   08??           00933         MOVF    r0x102A,W       ;id=1700,key=001,inCond:1,outCond:14,flow seq=00d,rIdx=r0x1064
                      00934 ;; >>> ../../../../src/pic14/gen.c:7387:genCast
                      00935 ;;      1097 rIdx = r0x1065 
                      00936 ;; BANKOPT2 BANKSEL dropped; r0x102B present in same bank as r0x102A
0039   00??           00937         MOVWF   r0x102B ;id=1703,key=002,inCond:10,outCond:1,flow seq=00d,rIdx=r0x1065
                      00938 ;;; ../../../../src/pic14/gen.c:2308:resultRemat *{*
                      00939 ;; ***  genPlus  607
gpasm-1.5.2 #1319 (Aug 29 2019) build/default   30.08.2019  05:22:10        PAGE 19


LOC    OBJECT CODE    LINE  SOURCE TEXT
  VALUE

                      00940 ;;; ../../../../src/pic14/genarith.c:608:genPlus *{*
                      00941 ;;      695 register type nRegs=1
                      00942 ;;      695 register type nRegs=1
                      00943 ;;      line = 614 result AOP_REG=r0x1064, size=1, left AOP_REG=r0x1065, size=1, right AOP_LIT=0x30, siz
                            e=1
                      00944 ;;; ../../../../src/pic14/genarith.c:138:genPlusIncr *{*
                      00945 ;; ***  genPlusIncr  140
                      00946 ;;      result AOP_REG, left AOP_REG, right AOP_LIT
                      00947 ;;      genPlusIncr  152
                      00948 ;;      adding lit to something. size 1
                      00949 ;;; ../../../../src/pic14/genarith.c:265:genAddLit *{*
                      00950 ;; ***  genAddLit  266
                      00951 ;;  left and result aren't same genAddLit  510
                      00952 ;; >>> ../../../../src/pic14/genarith.c:530:genAddLit
003A   3030           00953         MOVLW   0x30    ;id=1719,key=003,inCond:400,outCond:10,flow seq=00d
                      00954 ;; >>> ../../../../src/pic14/genarith.c:531:genAddLit
                      00955 ;;      1097 rIdx = r0x1065 
                      00956 ;; BANKOPT2 BANKSEL dropped; r0x102B present in same bank as r0x102A
003B   07??           00957         ADDWF   r0x102B,W       ;id=1722,key=004,inCond:11,outCond:1e,flow seq=00d,rIdx=r0x1065
                      00958 ;;; ../../../../src/pic14/genarith.c:249:emitMOVWF *{*
                      00959 ;; >>> ../../../../src/pic14/genarith.c:253:emitMOVWF
                      00960 ;;      1097 rIdx = r0x1064 
                      00961 ;; BANKOPT2 BANKSEL dropped; r0x102A present in same bank as r0x102A
003C   00??           00962         MOVWF   r0x102A ;id=2093,key=005,inCond:10,outCond:1,flow seq=00d,rIdx=r0x1064
                      00963 ;; BANKOPT2 BANKSEL dropped; r0x102B present in same bank as r0x102A
003D   00??           00964         MOVWF   r0x102B ;id=2094,key=006,inCond:10,outCond:1,flow seq=00d,rIdx=r0x1065
003E   0??? 0???      00965         PAGESEL _ser_putch      ;id=1757,key=007,inCond:0,outCond:0,flow seq=00d
                      00966 ;; >>> ../../../../src/pic14/gen.c:2165:genCall
                      00967 ;; BANKOPT3 drop assumptions: PCI with label or call found
0040   2???           00968         CALL    _ser_putch      ;id=1759,key=008,inCond:10,outCond:1e,flow seq=00d
                      00969 ;<>Start of new flow, seq=0xe ancestor = 0xd
                      00970 ;  from: 00d ; to: 00f 
                      00971 ;; >>> ../../../../src/pic14/gen.c:2173:genCall
0041   0??? 0???      00972         PAGESEL $       ;id=1761,key=000,inCond:0,outCond:0,flow seq=00e
                      00973 ;<>Start of new flow, seq=0xf ancestor = 0xc
                      00974 ;  from: 00e 00c ; to: 
                      00975 ;;; ../../../../src/pic14/gen.c:1830:unsaveRegisters *{*
                      00976 ;; ***  unsaveRegisters  1832
                      00977 ;;; ../../../../src/pic14/gen.c:2308:resultRemat *{*
                      00978 ;;; ../../../../src/pic14/gen.c:2752:genLabel *{*
                      00979 ;; ***  genLabel  2755
                      00980 ;_00171_DS_:
                      00981 ;;; ../../../../src/pic14/gen.c:2308:resultRemat *{*
                      00982 ;;; ../../../../src/pic14/gen.c:2520:genEndFunction *{*
                      00983 ;; ***  genEndFunction  2522
                      00984 ;return
                      00985 ;; BANKOPT3 drop assumptions: PCI with label or call found
0043                  00986 _00171_DS_:
                      00987 ;       .line   122; "../../../lib/ser.c"       }
0043   0008           00988         RETURN          ;id=1774,key=000,inCond:10,outCond:e,flow seq=00f
                      00989 ;<>Start of new flow, seq=0x10
                      00990 ;  from: ; to: 
                      00991 ; exit point of _ser_puthex
gpasm-1.5.2 #1319 (Aug 29 2019) build/default   30.08.2019  05:22:10        PAGE 20


LOC    OBJECT CODE    LINE  SOURCE TEXT
  VALUE

                      00992 ;;; ../../../../src/pic14/gen.c:7535:genpic14Code *{*
                      00993 
                      00994 ;***
                      00995 ;  pBlock Stats: dbName = C
                      00996 ;***
                      00997 ;has an exit
                      00998 ;functions called:
                      00999 ;   __gptrget1
                      01000 ;   _ser_putch
                      01001 ;   __gptrget1
                      01002 ;   _ser_putch
                      01003 ;6 compiler assigned registers:
                      01004 ;   r0x102E
                      01005 ;   STK00
                      01006 ;   r0x102F
                      01007 ;   STK01
                      01008 ;   r0x1030
                      01009 ;   r0x1031
                      01010 ;; Starting pCode block
                      01011 ;<>Start of new flow, seq=0x11 ancestor = 0x11
                      01012 ;  from: ; to: 012 
                      01013 ;;; ../../../../src/pic14/gen.c:2308:resultRemat *{*
                      01014 ;;; ../../../../src/pic14/gen.c:2752:genLabel *{*
                      01015 ;; ***  genLabel  2755
                      01016 ;;; ../../../../src/pic14/gen.c:2308:resultRemat *{*
                      01017 ;;; ../../../../src/pic14/gen.c:2332:genFunction *{*
                      01018 ;; ***  genFunction  2334 curr label offset=48previous max_key=4 
                      01019 ;;      -----------------------------------------
                      01020 ;;       function ser_puts2
                      01021 ;;      -----------------------------------------
                      01022 ;_ser_puts2:
                      01023 S_ser__ser_puts2        code
0000                  01024 _ser_puts2:
                      01025 ; 2 exit points
                      01026 ;;; ../../../../src/pic14/gen.c:2308:resultRemat *{*
                      01027 ;;; ../../../../src/pic14/gen.c:7467:genReceive *{*
                      01028 ;; ***  genReceive  7468
                      01029 ;;      695 register type nRegs=3
                      01030 ;;; ../../../../src/pic14/gen.c:1892:assignResultValue *{*
                      01031 ;; ***  assignResultValue  1894
                      01032 ;;      line = 1896 result -=-, size=0, left AOP_REG=r0x1060, size=3, right -=-, size=0
                      01033 ;; >>> ../../../../src/pic14/gen.c:1378:movwf
                      01034 ;;      1097 rIdx = r0x1062 
                      01035 ;       .line   101; "../../../lib/ser.c"       ser_puts2(uint8_t* s) {
0000   0??? 0???      01036         BANKSEL r0x102E ;id=2160,key=000,inCond:0,outCond:0,flow seq=011
0002   00??           01037         MOVWF   r0x102E ;id=1219,key=001,inCond:10,outCond:1,flow seq=011,rIdx=r0x1062
                      01038 ;; >>> ../../../../src/pic14/gen.c:1408:get_returnvalue
                      01039 ;; ***  popRegFromIdx,1030  , rIdx=0x7f
                      01040 ;; BANKOPT1 BANKSEL dropped; STK00 present in all of r0x102E's banks
0003   08??           01041         MOVF    STK00,W ;id=1222,key=002,inCond:1,outCond:14,flow seq=011
                      01042 ;; >>> ../../../../src/pic14/gen.c:1378:movwf
                      01043 ;;      1097 rIdx = r0x1061 
                      01044 ;; BANKOPT2 BANKSEL dropped; r0x102F present in same bank as r0x102E
gpasm-1.5.2 #1319 (Aug 29 2019) build/default   30.08.2019  05:22:10        PAGE 21


LOC    OBJECT CODE    LINE  SOURCE TEXT
  VALUE

0004   00??           01045         MOVWF   r0x102F ;id=1225,key=003,inCond:10,outCond:1,flow seq=011,rIdx=r0x1061
                      01046 ;; >>> ../../../../src/pic14/gen.c:1408:get_returnvalue
                      01047 ;; ***  popRegFromIdx,1030  , rIdx=0x7e
                      01048 ;; BANKOPT1 BANKSEL dropped; STK01 present in all of r0x102E's banks
0005   08??           01049         MOVF    STK01,W ;id=1228,key=004,inCond:1,outCond:14,flow seq=011
                      01050 ;; >>> ../../../../src/pic14/gen.c:1378:movwf
                      01051 ;;      1097 rIdx = r0x1060 
                      01052 ;; BANKOPT2 BANKSEL dropped; r0x1030 present in same bank as r0x102E
0006   00??           01053         MOVWF   r0x1030 ;id=1231,key=005,inCond:10,outCond:1,flow seq=011,rIdx=r0x1060
                      01054 ;<>Start of new flow, seq=0x12 ancestor = 0x11
                      01055 ;  from: 01a 011 ; to: 013 
                      01056 ;;; ../../../../src/pic14/gen.c:2308:resultRemat *{*
                      01057 ;;; ../../../../src/pic14/gen.c:2752:genLabel *{*
                      01058 ;; ***  genLabel  2755
                      01059 ;_00157_DS_:
                      01060 ;;; ../../../../src/pic14/gen.c:2308:resultRemat *{*
                      01061 ;;; ../../../../src/pic14/gen.c:6260:genPointerGet *{*
                      01062 ;; ***  genPointerGet  6261
                      01063 ;;; ../../../../src/pic14/gen.c:6149:genGenPointerGet *{*
                      01064 ;; ***  genGenPointerGet  6150
                      01065 ;;      695 register type nRegs=3
                      01066 ;;      695 register type nRegs=1
                      01067 ;;      line = 6155 result AOP_REG=r0x1063, size=1, left AOP_REG=r0x1060, size=3, right -=-, size=0
                      01068 ;; ***  mov2w  1366  offset=0
                      01069 ;; >>> ../../../../src/pic14/gen.c:1371:mov2w
                      01070 ;;      1097 rIdx = r0x1060 
                      01071 ;; BANKOPT3 drop assumptions: PCI with label or call found
0007                  01072 _00157_DS_:
                      01073 ;       .line   102; "../../../lib/ser.c"       while(*s) ser_putch(*s++);
0007   0??? 0???      01074         BANKSEL r0x1030 ;id=2166,key=000,inCond:0,outCond:0,flow seq=012
0009   08??           01075         MOVF    r0x1030,W       ;id=1249,key=001,inCond:1,outCond:14,flow seq=012,rIdx=r0x1060
                      01076 ;; >>> ../../../../src/pic14/gen.c:6174:genGenPointerGet
                      01077 ;; ***  popRegFromIdx,1030  , rIdx=0x7e
                      01078 ;; BANKOPT1 BANKSEL dropped; STK01 present in all of r0x1030's banks
000A   00??           01079         MOVWF   STK01   ;id=1252,key=002,inCond:10,outCond:1,flow seq=012
                      01080 ;; ***  mov2w  1366  offset=1
                      01081 ;; >>> ../../../../src/pic14/gen.c:1371:mov2w
                      01082 ;;      1097 rIdx = r0x1061 
                      01083 ;; BANKOPT2 BANKSEL dropped; r0x102F present in same bank as r0x1030
000B   08??           01084         MOVF    r0x102F,W       ;id=1256,key=003,inCond:1,outCond:14,flow seq=012,rIdx=r0x1061
                      01085 ;; >>> ../../../../src/pic14/gen.c:6176:genGenPointerGet
                      01086 ;; ***  popRegFromIdx,1030  , rIdx=0x7f
                      01087 ;; BANKOPT1 BANKSEL dropped; STK00 present in all of r0x1030's banks
000C   00??           01088         MOVWF   STK00   ;id=1259,key=004,inCond:10,outCond:1,flow seq=012
                      01089 ;; ***  mov2w  1366  offset=2
                      01090 ;; >>> ../../../../src/pic14/gen.c:1371:mov2w
                      01091 ;;      1097 rIdx = r0x1062 
                      01092 ;; BANKOPT2 BANKSEL dropped; r0x102E present in same bank as r0x1030
000D   08??           01093         MOVF    r0x102E,W       ;id=1263,key=005,inCond:1,outCond:14,flow seq=012,rIdx=r0x1062
                      01094 ;; >>> ../../../../src/pic14/gen.c:1418:call_libraryfunc
000E   0??? 0???      01095         PAGESEL __gptrget1      ;id=1265,key=006,inCond:0,outCond:0,flow seq=012
                      01096 ;; >>> ../../../../src/pic14/gen.c:1420:call_libraryfunc
                      01097 ;; BANKOPT3 drop assumptions: PCI with label or call found
gpasm-1.5.2 #1319 (Aug 29 2019) build/default   30.08.2019  05:22:10        PAGE 22


LOC    OBJECT CODE    LINE  SOURCE TEXT
  VALUE

0010   2???           01098         CALL    __gptrget1      ;id=1267,key=007,inCond:10,outCond:1e,flow seq=012
                      01099 ;<>Start of new flow, seq=0x13 ancestor = 0x12
                      01100 ;  from: 012 ; to: 015 014 
                      01101 ;; >>> ../../../../src/pic14/gen.c:1422:call_libraryfunc
0011   0??? 0???      01102         PAGESEL $       ;id=1269,key=000,inCond:0,outCond:0,flow seq=013
                      01103 ;; >>> ../../../../src/pic14/gen.c:1378:movwf
                      01104 ;;      1097 rIdx = r0x1063 
0013   0??? 0???      01105         BANKSEL r0x1031 ;id=2172,key=001,inCond:0,outCond:0,flow seq=013
0015   00??           01106         MOVWF   r0x1031 ;id=1272,key=002,inCond:10,outCond:1,flow seq=013,rIdx=r0x1063
                      01107 ;;; ../../../../src/pic14/gen.c:2308:resultRemat *{*
                      01108 ;;; ../../../../src/pic14/gen.c:6868:genIfx *{*
                      01109 ;; ***  genIfx  6869
                      01110 ;;      695 register type nRegs=1
                      01111 ;; ***  pic14_toBoolean  1500
                      01112 ;; >>> ../../../../src/pic14/gen.c:1507:pic14_toBoolean
                      01113 ;; BANKOPT2 BANKSEL dropped; r0x1031 present in same bank as r0x1031
0016   08??           01114         MOVF    r0x1031,W       ;id=2095,key=003,inCond:1,outCond:14,flow seq=013,rIdx=r0x1063
0017   1903           01115         BTFSC   STATUS,2        ;id=1284,key=004,inCond:25,outCond:0,flow seq=013
                      01116 ;<>Start of new flow, seq=0x14 ancestor = 0x13
                      01117 ;  from: 013 ; to: 01b 
                      01118 ;; >>> ../../../../src/pic14/gen.c:6923:genIfx
                      01119 ;; ***  popGetLabel  key=4, label offset 56
0018   2???           01120         GOTO    _00160_DS_      ;id=1287,key=000,inCond:0,outCond:0,flow seq=014
                      01121 ;<>Start of new flow, seq=0x15 ancestor = 0x13
                      01122 ;  from: 013 ; to: 017 016 
                      01123 ;;; ../../../../src/pic14/gen.c:2308:resultRemat *{*
                      01124 ;;; ../../../../src/pic14/gen.c:7036:genAssign *{*
                      01125 ;; ***  genAssign  7037
                      01126 ;;      695 register type nRegs=1
                      01127 ;;      695 register type nRegs=1
                      01128 ;;      line = 7046 result AOP_REG=r0x1063, size=1, left -=-, size=0, right AOP_REG=r0x1063, size=1
                      01129 ;;; ../../../../src/pic14/gen.c:2308:resultRemat *{*
                      01130 ;; ***  genPlus  607
                      01131 ;;; ../../../../src/pic14/genarith.c:608:genPlus *{*
                      01132 ;;      695 register type nRegs=3
                      01133 ;;      576
                      01134 ;;      line = 614 result AOP_REG=r0x1060, size=3, left AOP_REG=r0x1060, size=3, right AOP_LIT=0x01, siz
                            e=1
                      01135 ;;; ../../../../src/pic14/genarith.c:138:genPlusIncr *{*
                      01136 ;; ***  genPlusIncr  140
                      01137 ;;      result AOP_REG, left AOP_REG, right AOP_LIT
                      01138 ;;      genPlusIncr  152
                      01139 ;; >>> ../../../../src/pic14/genarith.c:164:genPlusIncr
                      01140 ;;      1097 rIdx = r0x1060 
                      01141 ;; BANKOPT2 BANKSEL dropped; r0x1030 present in same bank as r0x1031
0019   0A??           01142         INCF    r0x1030,F       ;id=1306,key=000,inCond:1,outCond:5,flow seq=015,rIdx=r0x1060
                      01143 ;; >>> ../../../../src/pic14/genarith.c:168:genPlusIncr
001A   1903           01144         BTFSC   STATUS,2        ;id=1308,key=001,inCond:25,outCond:0,flow seq=015
                      01145 ;<>Start of new flow, seq=0x16 ancestor = 0x15
                      01146 ;  from: 015 ; to: 017 
                      01147 ;; >>> ../../../../src/pic14/genarith.c:169:genPlusIncr
                      01148 ;;      1097 rIdx = r0x1061 
                      01149 ;; BANKOPT2 BANKSEL dropped; r0x102F present in same bank as r0x1031
gpasm-1.5.2 #1319 (Aug 29 2019) build/default   30.08.2019  05:22:10        PAGE 23


LOC    OBJECT CODE    LINE  SOURCE TEXT
  VALUE

001B   0A??           01150         INCF    r0x102F,F       ;id=1311,key=000,inCond:1,outCond:5,flow seq=016,rIdx=r0x1061
                      01151 ;<>Start of new flow, seq=0x17 ancestor = 0x15
                      01152 ;  from: 016 015 ; to: 019 018 
                      01153 ;; >>> ../../../../src/pic14/genarith.c:168:genPlusIncr
001C   1903           01154         BTFSC   STATUS,2        ;id=1313,key=000,inCond:25,outCond:0,flow seq=017
                      01155 ;<>Start of new flow, seq=0x18 ancestor = 0x17
                      01156 ;  from: 017 ; to: 019 
                      01157 ;; >>> ../../../../src/pic14/genarith.c:169:genPlusIncr
                      01158 ;;      1097 rIdx = r0x1062 
                      01159 ;; BANKOPT2 BANKSEL dropped; r0x102E present in same bank as r0x1031
001D   0A??           01160         INCF    r0x102E,F       ;id=1316,key=000,inCond:1,outCond:5,flow seq=018,rIdx=r0x1062
                      01161 ;<>Start of new flow, seq=0x19 ancestor = 0x17
                      01162 ;  from: 018 017 ; to: 01a 
                      01163 ;;; ../../../../src/pic14/gen.c:2308:resultRemat *{*
                      01164 ;;; ../../../../src/pic14/gen.c:2308:resultRemat *{*
                      01165 ;;; ../../../../src/pic14/gen.c:2071:genCall *{*
                      01166 ;; ***  genCall  2073
                      01167 ;;; ../../../../src/pic14/gen.c:1786:saveRegisters *{*
                      01168 ;; ***  saveRegisters  1788
                      01169 ;;      695 register type nRegs=1
                      01170 ;;      695 register type nRegs=1
                      01171 ;;      2120 left AOP_REG
                      01172 ;;; ../../../../src/pic14/gen.c:1328:mov2w_op *{*
                      01173 ;; ***  mov2w  1366  offset=0
                      01174 ;; >>> ../../../../src/pic14/gen.c:1371:mov2w
                      01175 ;;      1097 rIdx = r0x1063 
                      01176 ;; BANKOPT2 BANKSEL dropped; r0x1031 present in same bank as r0x1031
001E   08??           01177         MOVF    r0x1031,W       ;id=1330,key=000,inCond:1,outCond:14,flow seq=019,rIdx=r0x1063
                      01178 ;; >>> ../../../../src/pic14/gen.c:2160:genCall
001F   0??? 0???      01179         PAGESEL _ser_putch      ;id=1332,key=001,inCond:0,outCond:0,flow seq=019
                      01180 ;; >>> ../../../../src/pic14/gen.c:2165:genCall
                      01181 ;; BANKOPT3 drop assumptions: PCI with label or call found
0021   2???           01182         CALL    _ser_putch      ;id=1334,key=002,inCond:10,outCond:1e,flow seq=019
                      01183 ;<>Start of new flow, seq=0x1a ancestor = 0x19
                      01184 ;  from: 019 ; to: 012 
                      01185 ;; >>> ../../../../src/pic14/gen.c:2173:genCall
0022   0??? 0???      01186         PAGESEL $       ;id=1336,key=000,inCond:0,outCond:0,flow seq=01a
                      01187 ;;; ../../../../src/pic14/gen.c:1830:unsaveRegisters *{*
                      01188 ;; ***  unsaveRegisters  1832
                      01189 ;;; ../../../../src/pic14/gen.c:2308:resultRemat *{*
                      01190 ;;; ../../../../src/pic14/gen.c:2770:genGoto *{*
                      01191 ;; >>> ../../../../src/pic14/gen.c:2772:genGoto
                      01192 ;; ***  popGetLabel  key=1, label offset 56
0024   2???           01193         GOTO    _00157_DS_      ;id=1343,key=001,inCond:0,outCond:0,flow seq=01a
                      01194 ;<>Start of new flow, seq=0x1b ancestor = 0x14
                      01195 ;  from: 014 ; to: 
                      01196 ;goto   _00157_DS_
                      01197 ;;; ../../../../src/pic14/gen.c:2308:resultRemat *{*
                      01198 ;;; ../../../../src/pic14/gen.c:2752:genLabel *{*
                      01199 ;; ***  genLabel  2755
                      01200 ;_00160_DS_:
                      01201 ;;; ../../../../src/pic14/gen.c:2308:resultRemat *{*
                      01202 ;;; ../../../../src/pic14/gen.c:2520:genEndFunction *{*
gpasm-1.5.2 #1319 (Aug 29 2019) build/default   30.08.2019  05:22:10        PAGE 24


LOC    OBJECT CODE    LINE  SOURCE TEXT
  VALUE

                      01203 ;; ***  genEndFunction  2522
                      01204 ;return
                      01205 ;; BANKOPT3 drop assumptions: PCI with label or call found
0025                  01206 _00160_DS_:
                      01207 ;       .line   103; "../../../lib/ser.c"       }
0025   0008           01208         RETURN          ;id=1355,key=000,inCond:10,outCond:e,flow seq=01b
                      01209 ;<>Start of new flow, seq=0x1c
                      01210 ;  from: ; to: 
                      01211 ; exit point of _ser_puts2
                      01212 ;;; ../../../../src/pic14/gen.c:7535:genpic14Code *{*
                      01213 
                      01214 ;***
                      01215 ;  pBlock Stats: dbName = C
                      01216 ;***
                      01217 ;has an exit
                      01218 ;functions called:
                      01219 ;   __gptrget1
                      01220 ;   _ser_putch
                      01221 ;   __gptrget1
                      01222 ;   _ser_putch
                      01223 ;11 compiler assigned registers:
                      01224 ;   r0x1032
                      01225 ;   STK00
                      01226 ;   r0x1033
                      01227 ;   STK01
                      01228 ;   r0x1034
                      01229 ;   STK02
                      01230 ;   r0x1035
                      01231 ;   STK03
                      01232 ;   r0x1036
                      01233 ;   r0x1037
                      01234 ;   r0x1038
                      01235 ;; Starting pCode block
                      01236 ;<>Start of new flow, seq=0x1d ancestor = 0x1d
                      01237 ;  from: ; to: 01e 
                      01238 ;;; ../../../../src/pic14/gen.c:2308:resultRemat *{*
                      01239 ;;; ../../../../src/pic14/gen.c:2752:genLabel *{*
                      01240 ;; ***  genLabel  2755
                      01241 ;;; ../../../../src/pic14/gen.c:2308:resultRemat *{*
                      01242 ;;; ../../../../src/pic14/gen.c:2332:genFunction *{*
                      01243 ;; ***  genFunction  2334 curr label offset=40previous max_key=4 
                      01244 ;;      -----------------------------------------
                      01245 ;;       function ser_put
                      01246 ;;      -----------------------------------------
                      01247 ;_ser_put:
                      01248 S_ser__ser_put  code
0000                  01249 _ser_put:
                      01250 ; 2 exit points
                      01251 ;;; ../../../../src/pic14/gen.c:2308:resultRemat *{*
                      01252 ;;; ../../../../src/pic14/gen.c:7467:genReceive *{*
                      01253 ;; ***  genReceive  7468
                      01254 ;;      695 register type nRegs=3
                      01255 ;;; ../../../../src/pic14/gen.c:1892:assignResultValue *{*
gpasm-1.5.2 #1319 (Aug 29 2019) build/default   30.08.2019  05:22:10        PAGE 25


LOC    OBJECT CODE    LINE  SOURCE TEXT
  VALUE

                      01256 ;; ***  assignResultValue  1894
                      01257 ;;      line = 1896 result -=-, size=0, left AOP_REG=r0x1059, size=3, right -=-, size=0
                      01258 ;; >>> ../../../../src/pic14/gen.c:1378:movwf
                      01259 ;;      1097 rIdx = r0x105B 
                      01260 ;       .line   96; "../../../lib/ser.c"        ser_put(const char* s, unsigned n) {
0000   0??? 0???      01261         BANKSEL r0x1032 ;id=2180,key=000,inCond:0,outCond:0,flow seq=01d
0002   00??           01262         MOVWF   r0x1032 ;id=997,key=001,inCond:10,outCond:1,flow seq=01d,rIdx=r0x105B
                      01263 ;; >>> ../../../../src/pic14/gen.c:1408:get_returnvalue
                      01264 ;; ***  popRegFromIdx,1030  , rIdx=0x7f
                      01265 ;; BANKOPT1 BANKSEL dropped; STK00 present in all of r0x1032's banks
0003   08??           01266         MOVF    STK00,W ;id=1000,key=002,inCond:1,outCond:14,flow seq=01d
                      01267 ;; >>> ../../../../src/pic14/gen.c:1378:movwf
                      01268 ;;      1097 rIdx = r0x105A 
                      01269 ;; BANKOPT2 BANKSEL dropped; r0x1033 present in same bank as r0x1032
0004   00??           01270         MOVWF   r0x1033 ;id=1003,key=003,inCond:10,outCond:1,flow seq=01d,rIdx=r0x105A
                      01271 ;; >>> ../../../../src/pic14/gen.c:1408:get_returnvalue
                      01272 ;; ***  popRegFromIdx,1030  , rIdx=0x7e
                      01273 ;; BANKOPT1 BANKSEL dropped; STK01 present in all of r0x1032's banks
0005   08??           01274         MOVF    STK01,W ;id=1006,key=004,inCond:1,outCond:14,flow seq=01d
                      01275 ;; >>> ../../../../src/pic14/gen.c:1378:movwf
                      01276 ;;      1097 rIdx = r0x1059 
                      01277 ;; BANKOPT2 BANKSEL dropped; r0x1034 present in same bank as r0x1032
0006   00??           01278         MOVWF   r0x1034 ;id=1009,key=005,inCond:10,outCond:1,flow seq=01d,rIdx=r0x1059
                      01279 ;;; ../../../../src/pic14/gen.c:2308:resultRemat *{*
                      01280 ;;; ../../../../src/pic14/gen.c:7467:genReceive *{*
                      01281 ;; ***  genReceive  7468
                      01282 ;;      695 register type nRegs=2
                      01283 ;;; ../../../../src/pic14/gen.c:1892:assignResultValue *{*
                      01284 ;; ***  assignResultValue  1894
                      01285 ;;      line = 1896 result -=-, size=0, left AOP_REG=r0x105C, size=2, right -=-, size=0
                      01286 ;; >>> ../../../../src/pic14/gen.c:1408:get_returnvalue
                      01287 ;; ***  popRegFromIdx,1030  , rIdx=0x7d
                      01288 ;; BANKOPT1 BANKSEL dropped; STK02 present in all of r0x1032's banks
0007   08??           01289         MOVF    STK02,W ;id=1019,key=006,inCond:1,outCond:14,flow seq=01d
                      01290 ;; >>> ../../../../src/pic14/gen.c:1378:movwf
                      01291 ;;      1097 rIdx = r0x105D 
                      01292 ;; BANKOPT2 BANKSEL dropped; r0x1035 present in same bank as r0x1032
0008   00??           01293         MOVWF   r0x1035 ;id=1022,key=007,inCond:10,outCond:1,flow seq=01d,rIdx=r0x105D
                      01294 ;; >>> ../../../../src/pic14/gen.c:1408:get_returnvalue
                      01295 ;; ***  popRegFromIdx,1030  , rIdx=0x7c
                      01296 ;; BANKOPT1 BANKSEL dropped; STK03 present in all of r0x1032's banks
0009   08??           01297         MOVF    STK03,W ;id=1025,key=008,inCond:1,outCond:14,flow seq=01d
                      01298 ;; >>> ../../../../src/pic14/gen.c:1378:movwf
                      01299 ;;      1097 rIdx = r0x105C 
                      01300 ;; BANKOPT2 BANKSEL dropped; r0x1036 present in same bank as r0x1032
000A   00??           01301         MOVWF   r0x1036 ;id=1028,key=009,inCond:10,outCond:1,flow seq=01d,rIdx=r0x105C
                      01302 ;<>Start of new flow, seq=0x1e ancestor = 0x1d
                      01303 ;  from: 028 01d ; to: 020 01f 
                      01304 ;;; ../../../../src/pic14/gen.c:2308:resultRemat *{*
                      01305 ;;; ../../../../src/pic14/gen.c:2752:genLabel *{*
                      01306 ;; ***  genLabel  2755
                      01307 ;_00149_DS_:
                      01308 ;;; ../../../../src/pic14/gen.c:2308:resultRemat *{*
gpasm-1.5.2 #1319 (Aug 29 2019) build/default   30.08.2019  05:22:10        PAGE 26


LOC    OBJECT CODE    LINE  SOURCE TEXT
  VALUE

                      01309 ;;; ../../../../src/pic14/gen.c:7036:genAssign *{*
                      01310 ;; ***  genAssign  7037
                      01311 ;;      695 register type nRegs=2
                      01312 ;;      695 register type nRegs=2
                      01313 ;;      line = 7046 result AOP_REG=r0x105E, size=2, left -=-, size=0, right AOP_REG=r0x105C, size=2
                      01314 ;; ***  genAssign  7132
                      01315 ;;; ../../../../src/pic14/gen.c:1328:mov2w_op *{*
                      01316 ;; ***  mov2w  1366  offset=0
                      01317 ;; >>> ../../../../src/pic14/gen.c:1371:mov2w
                      01318 ;;      1097 rIdx = r0x105C 
                      01319 ;; BANKOPT3 drop assumptions: PCI with label or call found
000B                  01320 _00149_DS_:
                      01321 ;       .line   97; "../../../lib/ser.c"        while(n--) ser_putch(*s++);
000B   0??? 0???      01322         BANKSEL r0x1036 ;id=2190,key=000,inCond:0,outCond:0,flow seq=01e
000D   08??           01323         MOVF    r0x1036,W       ;id=1046,key=001,inCond:1,outCond:14,flow seq=01e,rIdx=r0x105C
                      01324 ;; >>> ../../../../src/pic14/gen.c:7159:genAssign
                      01325 ;;      1097 rIdx = r0x105E 
                      01326 ;; BANKOPT2 BANKSEL dropped; r0x1037 present in same bank as r0x1036
000E   00??           01327         MOVWF   r0x1037 ;id=1049,key=002,inCond:10,outCond:1,flow seq=01e,rIdx=r0x105E
                      01328 ;; ***  genAssign  7132
                      01329 ;;; ../../../../src/pic14/gen.c:1328:mov2w_op *{*
                      01330 ;; ***  mov2w  1366  offset=1
                      01331 ;; >>> ../../../../src/pic14/gen.c:1371:mov2w
                      01332 ;;      1097 rIdx = r0x105D 
                      01333 ;; BANKOPT2 BANKSEL dropped; r0x1035 present in same bank as r0x1036
000F   08??           01334         MOVF    r0x1035,W       ;id=1055,key=003,inCond:1,outCond:14,flow seq=01e,rIdx=r0x105D
                      01335 ;; >>> ../../../../src/pic14/gen.c:7159:genAssign
                      01336 ;;      1097 rIdx = r0x105F 
                      01337 ;; BANKOPT2 BANKSEL dropped; r0x1038 present in same bank as r0x1036
0010   00??           01338         MOVWF   r0x1038 ;id=1058,key=004,inCond:10,outCond:1,flow seq=01e,rIdx=r0x105F
                      01339 ;;; ../../../../src/pic14/gen.c:2308:resultRemat *{*
                      01340 ;;; ../../../../src/pic14/gen.c:7426:genDjnz *{*
                      01341 ;; ***  genDjnz  7427
                      01342 ;;; ../../../../src/pic14/genarith.c:892:genMinus *{*
                      01343 ;; ***  genMinus  893
                      01344 ;;      695 register type nRegs=2
                      01345 ;;      576
                      01346 ;;      result AOP_REG, left AOP_REG, right AOP_LIT
                      01347 ;;; ../../../../src/pic14/genarith.c:265:genAddLit *{*
                      01348 ;; ***  genAddLit  266
                      01349 ;; hi = ff      genAddLit  379
                      01350 ;; >>> ../../../../src/pic14/genarith.c:391:genAddLit
0011   30FF           01351         MOVLW   0xff    ;id=1071,key=005,inCond:400,outCond:10,flow seq=01e
                      01352 ;; >>> ../../../../src/pic14/genarith.c:392:genAddLit
                      01353 ;;      1097 rIdx = r0x105C 
                      01354 ;; BANKOPT2 BANKSEL dropped; r0x1036 present in same bank as r0x1036
0012   07??           01355         ADDWF   r0x1036,F       ;id=1074,key=006,inCond:11,outCond:f,flow seq=01e,rIdx=r0x105C
                      01356 ;; >>> ../../../../src/pic14/genarith.c:393:genAddLit
0013   1C03           01357         BTFSS   STATUS,0        ;id=1076,key=007,inCond:23,outCond:0,flow seq=01e
                      01358 ;<>Start of new flow, seq=0x1f ancestor = 0x1e
                      01359 ;  from: 01e ; to: 020 
                      01360 ;; >>> ../../../../src/pic14/genarith.c:394:genAddLit
                      01361 ;;      1097 rIdx = r0x105D 
gpasm-1.5.2 #1319 (Aug 29 2019) build/default   30.08.2019  05:22:10        PAGE 27


LOC    OBJECT CODE    LINE  SOURCE TEXT
  VALUE

                      01362 ;; BANKOPT2 BANKSEL dropped; r0x1035 present in same bank as r0x1036
0014   03??           01363         DECF    r0x1035,F       ;id=1079,key=000,inCond:1,outCond:5,flow seq=01f,rIdx=r0x105D
                      01364 ;<>Start of new flow, seq=0x20 ancestor = 0x1e
                      01365 ;  from: 01f 01e ; to: 022 021 
                      01366 ;; ***  addSign  857
                      01367 ;;; ../../../../src/pic14/genarith.c:858:addSign *{*
                      01368 ;;; ../../../../src/pic14/gen.c:2308:resultRemat *{*
                      01369 ;;; ../../../../src/pic14/gen.c:6868:genIfx *{*
                      01370 ;; ***  genIfx  6869
                      01371 ;;      695 register type nRegs=2
                      01372 ;; ***  pic14_toBoolean  1500
                      01373 ;; >>> ../../../../src/pic14/gen.c:1512:pic14_toBoolean
                      01374 ;;      1097 rIdx = r0x105E 
                      01375 ;; BANKOPT2 BANKSEL dropped; r0x1037 present in same bank as r0x1036
0015   08??           01376         MOVF    r0x1037,W       ;id=1089,key=000,inCond:1,outCond:14,flow seq=020,rIdx=r0x105E
                      01377 ;; >>> ../../../../src/pic14/gen.c:1518:pic14_toBoolean
                      01378 ;;      1097 rIdx = r0x105F 
                      01379 ;; BANKOPT2 BANKSEL dropped; r0x1038 present in same bank as r0x1036
0016   04??           01380         IORWF   r0x1038,W       ;id=1092,key=001,inCond:11,outCond:14,flow seq=020,rIdx=r0x105F
                      01381 ;; >>> ../../../../src/pic14/gen.c:6922:genIfx
0017   1903           01382         BTFSC   STATUS,2        ;id=1094,key=002,inCond:25,outCond:0,flow seq=020
                      01383 ;<>Start of new flow, seq=0x21 ancestor = 0x20
                      01384 ;  from: 020 ; to: 029 
                      01385 ;; >>> ../../../../src/pic14/gen.c:6923:genIfx
                      01386 ;; ***  popGetLabel  key=4, label offset 48
0018   2???           01387         GOTO    _00152_DS_      ;id=1097,key=000,inCond:0,outCond:0,flow seq=021
                      01388 ;<>Start of new flow, seq=0x22 ancestor = 0x20
                      01389 ;  from: 020 ; to: 023 
                      01390 ;;; ../../../../src/pic14/gen.c:2308:resultRemat *{*
                      01391 ;;; ../../../../src/pic14/gen.c:6260:genPointerGet *{*
                      01392 ;; ***  genPointerGet  6261
                      01393 ;;; ../../../../src/pic14/gen.c:6149:genGenPointerGet *{*
                      01394 ;; ***  genGenPointerGet  6150
                      01395 ;;      695 register type nRegs=3
                      01396 ;;      695 register type nRegs=1
                      01397 ;;      line = 6155 result AOP_REG=r0x105E, size=1, left AOP_REG=r0x1059, size=3, right -=-, size=0
                      01398 ;; ***  mov2w  1366  offset=0
                      01399 ;; >>> ../../../../src/pic14/gen.c:1371:mov2w
                      01400 ;;      1097 rIdx = r0x1059 
                      01401 ;; BANKOPT2 BANKSEL dropped; r0x1034 present in same bank as r0x1036
0019   08??           01402         MOVF    r0x1034,W       ;id=1109,key=000,inCond:1,outCond:14,flow seq=022,rIdx=r0x1059
                      01403 ;; >>> ../../../../src/pic14/gen.c:6174:genGenPointerGet
                      01404 ;; ***  popRegFromIdx,1030  , rIdx=0x7e
                      01405 ;; BANKOPT1 BANKSEL dropped; STK01 present in all of r0x1036's banks
001A   00??           01406         MOVWF   STK01   ;id=1112,key=001,inCond:10,outCond:1,flow seq=022
                      01407 ;; ***  mov2w  1366  offset=1
                      01408 ;; >>> ../../../../src/pic14/gen.c:1371:mov2w
                      01409 ;;      1097 rIdx = r0x105A 
                      01410 ;; BANKOPT2 BANKSEL dropped; r0x1033 present in same bank as r0x1036
001B   08??           01411         MOVF    r0x1033,W       ;id=1116,key=002,inCond:1,outCond:14,flow seq=022,rIdx=r0x105A
                      01412 ;; >>> ../../../../src/pic14/gen.c:6176:genGenPointerGet
                      01413 ;; ***  popRegFromIdx,1030  , rIdx=0x7f
                      01414 ;; BANKOPT1 BANKSEL dropped; STK00 present in all of r0x1036's banks
gpasm-1.5.2 #1319 (Aug 29 2019) build/default   30.08.2019  05:22:10        PAGE 28


LOC    OBJECT CODE    LINE  SOURCE TEXT
  VALUE

001C   00??           01415         MOVWF   STK00   ;id=1119,key=003,inCond:10,outCond:1,flow seq=022
                      01416 ;; ***  mov2w  1366  offset=2
                      01417 ;; >>> ../../../../src/pic14/gen.c:1371:mov2w
                      01418 ;;      1097 rIdx = r0x105B 
                      01419 ;; BANKOPT2 BANKSEL dropped; r0x1032 present in same bank as r0x1036
001D   08??           01420         MOVF    r0x1032,W       ;id=1123,key=004,inCond:1,outCond:14,flow seq=022,rIdx=r0x105B
                      01421 ;; >>> ../../../../src/pic14/gen.c:1418:call_libraryfunc
001E   0??? 0???      01422         PAGESEL __gptrget1      ;id=1125,key=005,inCond:0,outCond:0,flow seq=022
                      01423 ;; >>> ../../../../src/pic14/gen.c:1420:call_libraryfunc
                      01424 ;; BANKOPT3 drop assumptions: PCI with label or call found
0020   2???           01425         CALL    __gptrget1      ;id=1127,key=006,inCond:10,outCond:1e,flow seq=022
                      01426 ;<>Start of new flow, seq=0x23 ancestor = 0x22
                      01427 ;  from: 022 ; to: 025 024 
                      01428 ;; >>> ../../../../src/pic14/gen.c:1422:call_libraryfunc
0021   0??? 0???      01429         PAGESEL $       ;id=1129,key=000,inCond:0,outCond:0,flow seq=023
                      01430 ;; >>> ../../../../src/pic14/gen.c:1378:movwf
                      01431 ;;      1097 rIdx = r0x105E 
0023   0??? 0???      01432         BANKSEL r0x1037 ;id=2204,key=001,inCond:0,outCond:0,flow seq=023
0025   00??           01433         MOVWF   r0x1037 ;id=1132,key=002,inCond:10,outCond:1,flow seq=023,rIdx=r0x105E
                      01434 ;;; ../../../../src/pic14/gen.c:2308:resultRemat *{*
                      01435 ;; ***  genPlus  607
                      01436 ;;; ../../../../src/pic14/genarith.c:608:genPlus *{*
                      01437 ;;      695 register type nRegs=3
                      01438 ;;      576
                      01439 ;;      line = 614 result AOP_REG=r0x1059, size=3, left AOP_REG=r0x1059, size=3, right AOP_LIT=0x01, siz
                            e=1
                      01440 ;;; ../../../../src/pic14/genarith.c:138:genPlusIncr *{*
                      01441 ;; ***  genPlusIncr  140
                      01442 ;;      result AOP_REG, left AOP_REG, right AOP_LIT
                      01443 ;;      genPlusIncr  152
                      01444 ;; >>> ../../../../src/pic14/genarith.c:164:genPlusIncr
                      01445 ;;      1097 rIdx = r0x1059 
                      01446 ;; BANKOPT2 BANKSEL dropped; r0x1034 present in same bank as r0x1037
0026   0A??           01447         INCF    r0x1034,F       ;id=1145,key=003,inCond:1,outCond:5,flow seq=023,rIdx=r0x1059
                      01448 ;; >>> ../../../../src/pic14/genarith.c:168:genPlusIncr
0027   1903           01449         BTFSC   STATUS,2        ;id=1147,key=004,inCond:25,outCond:0,flow seq=023
                      01450 ;<>Start of new flow, seq=0x24 ancestor = 0x23
                      01451 ;  from: 023 ; to: 025 
                      01452 ;; >>> ../../../../src/pic14/genarith.c:169:genPlusIncr
                      01453 ;;      1097 rIdx = r0x105A 
                      01454 ;; BANKOPT2 BANKSEL dropped; r0x1033 present in same bank as r0x1037
0028   0A??           01455         INCF    r0x1033,F       ;id=1150,key=000,inCond:1,outCond:5,flow seq=024,rIdx=r0x105A
                      01456 ;<>Start of new flow, seq=0x25 ancestor = 0x23
                      01457 ;  from: 024 023 ; to: 027 026 
                      01458 ;; >>> ../../../../src/pic14/genarith.c:168:genPlusIncr
0029   1903           01459         BTFSC   STATUS,2        ;id=1152,key=000,inCond:25,outCond:0,flow seq=025
                      01460 ;<>Start of new flow, seq=0x26 ancestor = 0x25
                      01461 ;  from: 025 ; to: 027 
                      01462 ;; >>> ../../../../src/pic14/genarith.c:169:genPlusIncr
                      01463 ;;      1097 rIdx = r0x105B 
                      01464 ;; BANKOPT2 BANKSEL dropped; r0x1032 present in same bank as r0x1037
002A   0A??           01465         INCF    r0x1032,F       ;id=1155,key=000,inCond:1,outCond:5,flow seq=026,rIdx=r0x105B
                      01466 ;<>Start of new flow, seq=0x27 ancestor = 0x25
gpasm-1.5.2 #1319 (Aug 29 2019) build/default   30.08.2019  05:22:10        PAGE 29


LOC    OBJECT CODE    LINE  SOURCE TEXT
  VALUE

                      01467 ;  from: 026 025 ; to: 028 
                      01468 ;;; ../../../../src/pic14/gen.c:2308:resultRemat *{*
                      01469 ;;; ../../../../src/pic14/gen.c:2308:resultRemat *{*
                      01470 ;;; ../../../../src/pic14/gen.c:2071:genCall *{*
                      01471 ;; ***  genCall  2073
                      01472 ;;; ../../../../src/pic14/gen.c:1786:saveRegisters *{*
                      01473 ;; ***  saveRegisters  1788
                      01474 ;;      695 register type nRegs=1
                      01475 ;;      695 register type nRegs=1
                      01476 ;;      2120 left AOP_REG
                      01477 ;;; ../../../../src/pic14/gen.c:1328:mov2w_op *{*
                      01478 ;; ***  mov2w  1366  offset=0
                      01479 ;; >>> ../../../../src/pic14/gen.c:1371:mov2w
                      01480 ;;      1097 rIdx = r0x105E 
                      01481 ;; BANKOPT2 BANKSEL dropped; r0x1037 present in same bank as r0x1037
002B   08??           01482         MOVF    r0x1037,W       ;id=1169,key=000,inCond:1,outCond:14,flow seq=027,rIdx=r0x105E
                      01483 ;; >>> ../../../../src/pic14/gen.c:2160:genCall
002C   0??? 0???      01484         PAGESEL _ser_putch      ;id=1171,key=001,inCond:0,outCond:0,flow seq=027
                      01485 ;; >>> ../../../../src/pic14/gen.c:2165:genCall
                      01486 ;; BANKOPT3 drop assumptions: PCI with label or call found
002E   2???           01487         CALL    _ser_putch      ;id=1173,key=002,inCond:10,outCond:1e,flow seq=027
                      01488 ;<>Start of new flow, seq=0x28 ancestor = 0x27
                      01489 ;  from: 027 ; to: 01e 
                      01490 ;; >>> ../../../../src/pic14/gen.c:2173:genCall
002F   0??? 0???      01491         PAGESEL $       ;id=1175,key=000,inCond:0,outCond:0,flow seq=028
                      01492 ;;; ../../../../src/pic14/gen.c:1830:unsaveRegisters *{*
                      01493 ;; ***  unsaveRegisters  1832
                      01494 ;;; ../../../../src/pic14/gen.c:2308:resultRemat *{*
                      01495 ;;; ../../../../src/pic14/gen.c:2770:genGoto *{*
                      01496 ;; >>> ../../../../src/pic14/gen.c:2772:genGoto
                      01497 ;; ***  popGetLabel  key=1, label offset 48
0031   2???           01498         GOTO    _00149_DS_      ;id=1182,key=001,inCond:0,outCond:0,flow seq=028
                      01499 ;<>Start of new flow, seq=0x29 ancestor = 0x21
                      01500 ;  from: 021 ; to: 
                      01501 ;goto   _00149_DS_
                      01502 ;;; ../../../../src/pic14/gen.c:2308:resultRemat *{*
                      01503 ;;; ../../../../src/pic14/gen.c:2752:genLabel *{*
                      01504 ;; ***  genLabel  2755
                      01505 ;_00152_DS_:
                      01506 ;;; ../../../../src/pic14/gen.c:2308:resultRemat *{*
                      01507 ;;; ../../../../src/pic14/gen.c:2520:genEndFunction *{*
                      01508 ;; ***  genEndFunction  2522
                      01509 ;return
                      01510 ;; BANKOPT3 drop assumptions: PCI with label or call found
0032                  01511 _00152_DS_:
                      01512 ;       .line   98; "../../../lib/ser.c"        }
0032   0008           01513         RETURN          ;id=1194,key=000,inCond:10,outCond:e,flow seq=029
                      01514 ;<>Start of new flow, seq=0x2a
                      01515 ;  from: ; to: 
                      01516 ; exit point of _ser_put
                      01517 ;;; ../../../../src/pic14/gen.c:7535:genpic14Code *{*
                      01518 
                      01519 ;***
gpasm-1.5.2 #1319 (Aug 29 2019) build/default   30.08.2019  05:22:10        PAGE 30


LOC    OBJECT CODE    LINE  SOURCE TEXT
  VALUE

                      01520 ;  pBlock Stats: dbName = C
                      01521 ;***
                      01522 ;has an exit
                      01523 ;functions called:
                      01524 ;   __gptrget1
                      01525 ;   _ser_putch
                      01526 ;   __gptrget1
                      01527 ;   _ser_putch
                      01528 ;6 compiler assigned registers:
                      01529 ;   r0x1039
                      01530 ;   STK00
                      01531 ;   r0x103A
                      01532 ;   STK01
                      01533 ;   r0x103B
                      01534 ;   r0x103C
                      01535 ;; Starting pCode block
                      01536 ;<>Start of new flow, seq=0x2b ancestor = 0x2b
                      01537 ;  from: ; to: 02c 
                      01538 ;;; ../../../../src/pic14/gen.c:2308:resultRemat *{*
                      01539 ;;; ../../../../src/pic14/gen.c:2752:genLabel *{*
                      01540 ;; ***  genLabel  2755
                      01541 ;;; ../../../../src/pic14/gen.c:2308:resultRemat *{*
                      01542 ;;; ../../../../src/pic14/gen.c:2332:genFunction *{*
                      01543 ;; ***  genFunction  2334 curr label offset=22previous max_key=14 
                      01544 ;;      -----------------------------------------
                      01545 ;;       function ser_puts
                      01546 ;;      -----------------------------------------
                      01547 ;_ser_puts:
                      01548 S_ser__ser_puts code
0000                  01549 _ser_puts:
                      01550 ; 2 exit points
                      01551 ;;; ../../../../src/pic14/gen.c:2308:resultRemat *{*
                      01552 ;;; ../../../../src/pic14/gen.c:7467:genReceive *{*
                      01553 ;; ***  genReceive  7468
                      01554 ;;      695 register type nRegs=3
                      01555 ;;; ../../../../src/pic14/gen.c:1892:assignResultValue *{*
                      01556 ;; ***  assignResultValue  1894
                      01557 ;;      line = 1896 result -=-, size=0, left AOP_REG=r0x1055, size=3, right -=-, size=0
                      01558 ;; >>> ../../../../src/pic14/gen.c:1378:movwf
                      01559 ;;      1097 rIdx = r0x1057 
                      01560 ;       .line   92; "../../../lib/ser.c"        ser_puts(const char* s) {
0000   0??? 0???      01561         BANKSEL r0x1039 ;id=2211,key=000,inCond:0,outCond:0,flow seq=02b
0002   00??           01562         MOVWF   r0x1039 ;id=836,key=001,inCond:10,outCond:1,flow seq=02b,rIdx=r0x1057
                      01563 ;; >>> ../../../../src/pic14/gen.c:1408:get_returnvalue
                      01564 ;; ***  popRegFromIdx,1030  , rIdx=0x7f
                      01565 ;; BANKOPT1 BANKSEL dropped; STK00 present in all of r0x1039's banks
0003   08??           01566         MOVF    STK00,W ;id=839,key=002,inCond:1,outCond:14,flow seq=02b
                      01567 ;; >>> ../../../../src/pic14/gen.c:1378:movwf
                      01568 ;;      1097 rIdx = r0x1056 
                      01569 ;; BANKOPT2 BANKSEL dropped; r0x103A present in same bank as r0x1039
0004   00??           01570         MOVWF   r0x103A ;id=842,key=003,inCond:10,outCond:1,flow seq=02b,rIdx=r0x1056
                      01571 ;; >>> ../../../../src/pic14/gen.c:1408:get_returnvalue
                      01572 ;; ***  popRegFromIdx,1030  , rIdx=0x7e
gpasm-1.5.2 #1319 (Aug 29 2019) build/default   30.08.2019  05:22:10        PAGE 31


LOC    OBJECT CODE    LINE  SOURCE TEXT
  VALUE

                      01573 ;; BANKOPT1 BANKSEL dropped; STK01 present in all of r0x1039's banks
0005   08??           01574         MOVF    STK01,W ;id=845,key=004,inCond:1,outCond:14,flow seq=02b
                      01575 ;; >>> ../../../../src/pic14/gen.c:1378:movwf
                      01576 ;;      1097 rIdx = r0x1055 
                      01577 ;; BANKOPT2 BANKSEL dropped; r0x103B present in same bank as r0x1039
0006   00??           01578         MOVWF   r0x103B ;id=848,key=005,inCond:10,outCond:1,flow seq=02b,rIdx=r0x1055
                      01579 ;<>Start of new flow, seq=0x2c ancestor = 0x2b
                      01580 ;  from: 034 02b ; to: 02d 
                      01581 ;;; ../../../../src/pic14/gen.c:2308:resultRemat *{*
                      01582 ;;; ../../../../src/pic14/gen.c:2752:genLabel *{*
                      01583 ;; ***  genLabel  2755
                      01584 ;_00141_DS_:
                      01585 ;;; ../../../../src/pic14/gen.c:2308:resultRemat *{*
                      01586 ;;; ../../../../src/pic14/gen.c:6260:genPointerGet *{*
                      01587 ;; ***  genPointerGet  6261
                      01588 ;;; ../../../../src/pic14/gen.c:6149:genGenPointerGet *{*
                      01589 ;; ***  genGenPointerGet  6150
                      01590 ;;      695 register type nRegs=3
                      01591 ;;      695 register type nRegs=1
                      01592 ;;      line = 6155 result AOP_REG=r0x1058, size=1, left AOP_REG=r0x1055, size=3, right -=-, size=0
                      01593 ;; ***  mov2w  1366  offset=0
                      01594 ;; >>> ../../../../src/pic14/gen.c:1371:mov2w
                      01595 ;;      1097 rIdx = r0x1055 
                      01596 ;; BANKOPT3 drop assumptions: PCI with label or call found
0007                  01597 _00141_DS_:
                      01598 ;       .line   93; "../../../lib/ser.c"        while(*s) ser_putch(*s++);
0007   0??? 0???      01599         BANKSEL r0x103B ;id=2217,key=000,inCond:0,outCond:0,flow seq=02c
0009   08??           01600         MOVF    r0x103B,W       ;id=866,key=001,inCond:1,outCond:14,flow seq=02c,rIdx=r0x1055
                      01601 ;; >>> ../../../../src/pic14/gen.c:6174:genGenPointerGet
                      01602 ;; ***  popRegFromIdx,1030  , rIdx=0x7e
                      01603 ;; BANKOPT1 BANKSEL dropped; STK01 present in all of r0x103B's banks
000A   00??           01604         MOVWF   STK01   ;id=869,key=002,inCond:10,outCond:1,flow seq=02c
                      01605 ;; ***  mov2w  1366  offset=1
                      01606 ;; >>> ../../../../src/pic14/gen.c:1371:mov2w
                      01607 ;;      1097 rIdx = r0x1056 
                      01608 ;; BANKOPT2 BANKSEL dropped; r0x103A present in same bank as r0x103B
000B   08??           01609         MOVF    r0x103A,W       ;id=873,key=003,inCond:1,outCond:14,flow seq=02c,rIdx=r0x1056
                      01610 ;; >>> ../../../../src/pic14/gen.c:6176:genGenPointerGet
                      01611 ;; ***  popRegFromIdx,1030  , rIdx=0x7f
                      01612 ;; BANKOPT1 BANKSEL dropped; STK00 present in all of r0x103B's banks
000C   00??           01613         MOVWF   STK00   ;id=876,key=004,inCond:10,outCond:1,flow seq=02c
                      01614 ;; ***  mov2w  1366  offset=2
                      01615 ;; >>> ../../../../src/pic14/gen.c:1371:mov2w
                      01616 ;;      1097 rIdx = r0x1057 
                      01617 ;; BANKOPT2 BANKSEL dropped; r0x1039 present in same bank as r0x103B
000D   08??           01618         MOVF    r0x1039,W       ;id=880,key=005,inCond:1,outCond:14,flow seq=02c,rIdx=r0x1057
                      01619 ;; >>> ../../../../src/pic14/gen.c:1418:call_libraryfunc
000E   0??? 0???      01620         PAGESEL __gptrget1      ;id=882,key=006,inCond:0,outCond:0,flow seq=02c
                      01621 ;; >>> ../../../../src/pic14/gen.c:1420:call_libraryfunc
                      01622 ;; BANKOPT3 drop assumptions: PCI with label or call found
0010   2???           01623         CALL    __gptrget1      ;id=884,key=007,inCond:10,outCond:1e,flow seq=02c
                      01624 ;<>Start of new flow, seq=0x2d ancestor = 0x2c
                      01625 ;  from: 02c ; to: 02f 02e 
gpasm-1.5.2 #1319 (Aug 29 2019) build/default   30.08.2019  05:22:10        PAGE 32


LOC    OBJECT CODE    LINE  SOURCE TEXT
  VALUE

                      01626 ;; >>> ../../../../src/pic14/gen.c:1422:call_libraryfunc
0011   0??? 0???      01627         PAGESEL $       ;id=886,key=000,inCond:0,outCond:0,flow seq=02d
                      01628 ;; >>> ../../../../src/pic14/gen.c:1378:movwf
                      01629 ;;      1097 rIdx = r0x1058 
0013   0??? 0???      01630         BANKSEL r0x103C ;id=2223,key=001,inCond:0,outCond:0,flow seq=02d
0015   00??           01631         MOVWF   r0x103C ;id=889,key=002,inCond:10,outCond:1,flow seq=02d,rIdx=r0x1058
                      01632 ;;; ../../../../src/pic14/gen.c:2308:resultRemat *{*
                      01633 ;;; ../../../../src/pic14/gen.c:6868:genIfx *{*
                      01634 ;; ***  genIfx  6869
                      01635 ;;      695 register type nRegs=1
                      01636 ;; ***  pic14_toBoolean  1500
                      01637 ;; >>> ../../../../src/pic14/gen.c:1507:pic14_toBoolean
                      01638 ;; BANKOPT2 BANKSEL dropped; r0x103C present in same bank as r0x103C
0016   08??           01639         MOVF    r0x103C,W       ;id=2096,key=003,inCond:1,outCond:14,flow seq=02d,rIdx=r0x1058
0017   1903           01640         BTFSC   STATUS,2        ;id=901,key=004,inCond:25,outCond:0,flow seq=02d
                      01641 ;<>Start of new flow, seq=0x2e ancestor = 0x2d
                      01642 ;  from: 02d ; to: 035 
                      01643 ;; >>> ../../../../src/pic14/gen.c:6923:genIfx
                      01644 ;; ***  popGetLabel  key=4, label offset 40
0018   2???           01645         GOTO    _00144_DS_      ;id=904,key=000,inCond:0,outCond:0,flow seq=02e
                      01646 ;<>Start of new flow, seq=0x2f ancestor = 0x2d
                      01647 ;  from: 02d ; to: 031 030 
                      01648 ;;; ../../../../src/pic14/gen.c:2308:resultRemat *{*
                      01649 ;;; ../../../../src/pic14/gen.c:7036:genAssign *{*
                      01650 ;; ***  genAssign  7037
                      01651 ;;      695 register type nRegs=1
                      01652 ;;      695 register type nRegs=1
                      01653 ;;      line = 7046 result AOP_REG=r0x1058, size=1, left -=-, size=0, right AOP_REG=r0x1058, size=1
                      01654 ;;; ../../../../src/pic14/gen.c:2308:resultRemat *{*
                      01655 ;; ***  genPlus  607
                      01656 ;;; ../../../../src/pic14/genarith.c:608:genPlus *{*
                      01657 ;;      695 register type nRegs=3
                      01658 ;;      576
                      01659 ;;      line = 614 result AOP_REG=r0x1055, size=3, left AOP_REG=r0x1055, size=3, right AOP_LIT=0x01, siz
                            e=1
                      01660 ;;; ../../../../src/pic14/genarith.c:138:genPlusIncr *{*
                      01661 ;; ***  genPlusIncr  140
                      01662 ;;      result AOP_REG, left AOP_REG, right AOP_LIT
                      01663 ;;      genPlusIncr  152
                      01664 ;; >>> ../../../../src/pic14/genarith.c:164:genPlusIncr
                      01665 ;;      1097 rIdx = r0x1055 
                      01666 ;; BANKOPT2 BANKSEL dropped; r0x103B present in same bank as r0x103C
0019   0A??           01667         INCF    r0x103B,F       ;id=923,key=000,inCond:1,outCond:5,flow seq=02f,rIdx=r0x1055
                      01668 ;; >>> ../../../../src/pic14/genarith.c:168:genPlusIncr
001A   1903           01669         BTFSC   STATUS,2        ;id=925,key=001,inCond:25,outCond:0,flow seq=02f
                      01670 ;<>Start of new flow, seq=0x30 ancestor = 0x2f
                      01671 ;  from: 02f ; to: 031 
                      01672 ;; >>> ../../../../src/pic14/genarith.c:169:genPlusIncr
                      01673 ;;      1097 rIdx = r0x1056 
                      01674 ;; BANKOPT2 BANKSEL dropped; r0x103A present in same bank as r0x103C
001B   0A??           01675         INCF    r0x103A,F       ;id=928,key=000,inCond:1,outCond:5,flow seq=030,rIdx=r0x1056
                      01676 ;<>Start of new flow, seq=0x31 ancestor = 0x2f
                      01677 ;  from: 030 02f ; to: 033 032 
gpasm-1.5.2 #1319 (Aug 29 2019) build/default   30.08.2019  05:22:10        PAGE 33


LOC    OBJECT CODE    LINE  SOURCE TEXT
  VALUE

                      01678 ;; >>> ../../../../src/pic14/genarith.c:168:genPlusIncr
001C   1903           01679         BTFSC   STATUS,2        ;id=930,key=000,inCond:25,outCond:0,flow seq=031
                      01680 ;<>Start of new flow, seq=0x32 ancestor = 0x31
                      01681 ;  from: 031 ; to: 033 
                      01682 ;; >>> ../../../../src/pic14/genarith.c:169:genPlusIncr
                      01683 ;;      1097 rIdx = r0x1057 
                      01684 ;; BANKOPT2 BANKSEL dropped; r0x1039 present in same bank as r0x103C
001D   0A??           01685         INCF    r0x1039,F       ;id=933,key=000,inCond:1,outCond:5,flow seq=032,rIdx=r0x1057
                      01686 ;<>Start of new flow, seq=0x33 ancestor = 0x31
                      01687 ;  from: 032 031 ; to: 034 
                      01688 ;;; ../../../../src/pic14/gen.c:2308:resultRemat *{*
                      01689 ;;; ../../../../src/pic14/gen.c:2308:resultRemat *{*
                      01690 ;;; ../../../../src/pic14/gen.c:2071:genCall *{*
                      01691 ;; ***  genCall  2073
                      01692 ;;; ../../../../src/pic14/gen.c:1786:saveRegisters *{*
                      01693 ;; ***  saveRegisters  1788
                      01694 ;;      695 register type nRegs=1
                      01695 ;;      695 register type nRegs=1
                      01696 ;;      2120 left AOP_REG
                      01697 ;;; ../../../../src/pic14/gen.c:1328:mov2w_op *{*
                      01698 ;; ***  mov2w  1366  offset=0
                      01699 ;; >>> ../../../../src/pic14/gen.c:1371:mov2w
                      01700 ;;      1097 rIdx = r0x1058 
                      01701 ;; BANKOPT2 BANKSEL dropped; r0x103C present in same bank as r0x103C
001E   08??           01702         MOVF    r0x103C,W       ;id=947,key=000,inCond:1,outCond:14,flow seq=033,rIdx=r0x1058
                      01703 ;; >>> ../../../../src/pic14/gen.c:2160:genCall
001F   0??? 0???      01704         PAGESEL _ser_putch      ;id=949,key=001,inCond:0,outCond:0,flow seq=033
                      01705 ;; >>> ../../../../src/pic14/gen.c:2165:genCall
                      01706 ;; BANKOPT3 drop assumptions: PCI with label or call found
0021   2???           01707         CALL    _ser_putch      ;id=951,key=002,inCond:10,outCond:1e,flow seq=033
                      01708 ;<>Start of new flow, seq=0x34 ancestor = 0x33
                      01709 ;  from: 033 ; to: 02c 
                      01710 ;; >>> ../../../../src/pic14/gen.c:2173:genCall
0022   0??? 0???      01711         PAGESEL $       ;id=953,key=000,inCond:0,outCond:0,flow seq=034
                      01712 ;;; ../../../../src/pic14/gen.c:1830:unsaveRegisters *{*
                      01713 ;; ***  unsaveRegisters  1832
                      01714 ;;; ../../../../src/pic14/gen.c:2308:resultRemat *{*
                      01715 ;;; ../../../../src/pic14/gen.c:2770:genGoto *{*
                      01716 ;; >>> ../../../../src/pic14/gen.c:2772:genGoto
                      01717 ;; ***  popGetLabel  key=1, label offset 40
0024   2???           01718         GOTO    _00141_DS_      ;id=960,key=001,inCond:0,outCond:0,flow seq=034
                      01719 ;<>Start of new flow, seq=0x35 ancestor = 0x2e
                      01720 ;  from: 02e ; to: 
                      01721 ;goto   _00141_DS_
                      01722 ;;; ../../../../src/pic14/gen.c:2308:resultRemat *{*
                      01723 ;;; ../../../../src/pic14/gen.c:2752:genLabel *{*
                      01724 ;; ***  genLabel  2755
                      01725 ;_00144_DS_:
                      01726 ;;; ../../../../src/pic14/gen.c:2308:resultRemat *{*
                      01727 ;;; ../../../../src/pic14/gen.c:2520:genEndFunction *{*
                      01728 ;; ***  genEndFunction  2522
                      01729 ;return
                      01730 ;; BANKOPT3 drop assumptions: PCI with label or call found
gpasm-1.5.2 #1319 (Aug 29 2019) build/default   30.08.2019  05:22:10        PAGE 34


LOC    OBJECT CODE    LINE  SOURCE TEXT
  VALUE

0025                  01731 _00144_DS_:
                      01732 ;       .line   94; "../../../lib/ser.c"        }
0025   0008           01733         RETURN          ;id=972,key=000,inCond:10,outCond:e,flow seq=035
                      01734 ;<>Start of new flow, seq=0x36
                      01735 ;  from: ; to: 
                      01736 ; exit point of _ser_puts
                      01737 ;;; ../../../../src/pic14/gen.c:7535:genpic14Code *{*
                      01738 
                      01739 ;***
                      01740 ;  pBlock Stats: dbName = C
                      01741 ;***
                      01742 ;has an exit
                      01743 ;5 compiler assigned registers:
                      01744 ;   r0x1025
                      01745 ;   r0x1026
                      01746 ;   r0x1027
                      01747 ;   r0x1028
                      01748 ;   r0x1029
                      01749 ;; Starting pCode block
                      01750 ;<>Start of new flow, seq=0x37 ancestor = 0x37
                      01751 ;  from: ; to: 038 
                      01752 ;;; ../../../../src/pic14/gen.c:2308:resultRemat *{*
                      01753 ;;; ../../../../src/pic14/gen.c:2752:genLabel *{*
                      01754 ;; ***  genLabel  2755
                      01755 ;;; ../../../../src/pic14/gen.c:2308:resultRemat *{*
                      01756 ;;; ../../../../src/pic14/gen.c:2332:genFunction *{*
                      01757 ;; ***  genFunction  2334 curr label offset=17previous max_key=1 
                      01758 ;;      -----------------------------------------
                      01759 ;;       function ser_putch
                      01760 ;;      -----------------------------------------
                      01761 ;_ser_putch:
                      01762 S_ser__ser_putch        code
0000                  01763 _ser_putch:
                      01764 ; 2 exit points
                      01765 ;;; ../../../../src/pic14/gen.c:2308:resultRemat *{*
                      01766 ;;; ../../../../src/pic14/gen.c:7467:genReceive *{*
                      01767 ;; ***  genReceive  7468
                      01768 ;;      695 register type nRegs=1
                      01769 ;;; ../../../../src/pic14/gen.c:1892:assignResultValue *{*
                      01770 ;; ***  assignResultValue  1894
                      01771 ;;      line = 1896 result -=-, size=0, left AOP_REG=r0x104E, size=1, right -=-, size=0
                      01772 ;; >>> ../../../../src/pic14/gen.c:1378:movwf
                      01773 ;;      1097 rIdx = r0x104E 
                      01774 ;       .line   82; "../../../lib/ser.c"        ser_putch(char c) {
0000   0??? 0???      01775         BANKSEL r0x1025 ;id=2231,key=000,inCond:0,outCond:0,flow seq=037
0002   00??           01776         MOVWF   r0x1025 ;id=514,key=001,inCond:10,outCond:1,flow seq=037,rIdx=r0x104E
                      01777 ;<>Start of new flow, seq=0x38 ancestor = 0x37
                      01778 ;  from: 03d 037 ; to: 03a 039 
                      01779 ;;; ../../../../src/pic14/gen.c:2308:resultRemat *{*
                      01780 ;;; ../../../../src/pic14/gen.c:2752:genLabel *{*
                      01781 ;; ***  genLabel  2755
                      01782 ;_00123_DS_:
                      01783 ;;; ../../../../src/pic14/gen.c:2308:resultRemat *{*
gpasm-1.5.2 #1319 (Aug 29 2019) build/default   30.08.2019  05:22:10        PAGE 35


LOC    OBJECT CODE    LINE  SOURCE TEXT
  VALUE

                      01784 ;;; ../../../../src/pic14/gen.c:7229:genCast *{*
                      01785 ;; ***  genCast  7230
                      01786 ;; ***  aopForSym 316
                      01787 ;;      328 sym->rname = _txiptr, size = 1
                      01788 ;;      695 register type nRegs=2
                      01789 ;;      line = 7238 result AOP_REG=r0x104F, size=2, left -=-, size=0, right AOP_DIR=_txiptr, size=1
                      01790 ;; >>> ../../../../src/pic14/gen.c:7407:genCast
                      01791 ;;      998
                      01792 ;;      1016  _txiptr   offset=0
                      01793 ;; BANKOPT3 drop assumptions: PCI with label or call found
0003                  01794 _00123_DS_:
                      01795 ;       .line   83; "../../../lib/ser.c"        while(((txiptr + 1) & SER_FIFO_MASK) == txoptr) continue
                            ;
0003   0??? 0???      01796         BANKSEL _txiptr ;id=2233,key=000,inCond:0,outCond:0,flow seq=038
0005   08??           01797         MOVF    _txiptr,W       ;id=531,key=001,inCond:1,outCond:14,flow seq=038
                      01798 ;; >>> ../../../../src/pic14/gen.c:7408:genCast
                      01799 ;;      1097 rIdx = r0x104F 
0006   0??? 0???      01800         BANKSEL r0x1026 ;id=2234,key=002,inCond:0,outCond:0,flow seq=038
0008   00??           01801         MOVWF   r0x1026 ;id=534,key=003,inCond:10,outCond:1,flow seq=038,rIdx=r0x104F
                      01802 ;; ***  addSign  857
                      01803 ;;; ../../../../src/pic14/genarith.c:858:addSign *{*
                      01804 ;; >>> ../../../../src/pic14/genarith.c:877:addSign
                      01805 ;;      1097 rIdx = r0x1050 
                      01806 ;; BANKOPT2 BANKSEL dropped; r0x1027 present in same bank as r0x1026
0009   01??           01807         CLRF    r0x1027 ;id=539,key=004,inCond:0,outCond:5,flow seq=038,rIdx=r0x1050
                      01808 ;;; ../../../../src/pic14/gen.c:2308:resultRemat *{*
                      01809 ;; ***  genPlus  607
                      01810 ;;; ../../../../src/pic14/genarith.c:608:genPlus *{*
                      01811 ;;      695 register type nRegs=2
                      01812 ;;      695 register type nRegs=2
                      01813 ;;      line = 614 result AOP_REG=r0x104F, size=2, left AOP_REG=r0x104F, size=2, right AOP_LIT=0x01, siz
                            e=2
                      01814 ;;; ../../../../src/pic14/genarith.c:138:genPlusIncr *{*
                      01815 ;; ***  genPlusIncr  140
                      01816 ;;      result AOP_REG, left AOP_REG, right AOP_LIT
                      01817 ;;      genPlusIncr  152
                      01818 ;; >>> ../../../../src/pic14/genarith.c:164:genPlusIncr
                      01819 ;;      1097 rIdx = r0x104F 
                      01820 ;; BANKOPT2 BANKSEL dropped; r0x1026 present in same bank as r0x1026
000A   0A??           01821         INCF    r0x1026,F       ;id=552,key=005,inCond:1,outCond:5,flow seq=038,rIdx=r0x104F
                      01822 ;; >>> ../../../../src/pic14/genarith.c:168:genPlusIncr
000B   1903           01823         BTFSC   STATUS,2        ;id=554,key=006,inCond:25,outCond:0,flow seq=038
                      01824 ;<>Start of new flow, seq=0x39 ancestor = 0x38
                      01825 ;  from: 038 ; to: 03a 
                      01826 ;; >>> ../../../../src/pic14/genarith.c:169:genPlusIncr
                      01827 ;;      1097 rIdx = r0x1050 
                      01828 ;; BANKOPT2 BANKSEL dropped; r0x1027 present in same bank as r0x1026
000C   0A??           01829         INCF    r0x1027,F       ;id=557,key=000,inCond:1,outCond:5,flow seq=039,rIdx=r0x1050
                      01830 ;<>Start of new flow, seq=0x3a ancestor = 0x38
                      01831 ;  from: 039 038 ; to: 03c 03b 
                      01832 ;;; ../../../../src/pic14/gen.c:2308:resultRemat *{*
                      01833 ;;; ../../../../src/pic14/gen.c:3938:genAnd *{*
                      01834 ;; ***  genAnd  3939
gpasm-1.5.2 #1319 (Aug 29 2019) build/default   30.08.2019  05:22:10        PAGE 36


LOC    OBJECT CODE    LINE  SOURCE TEXT
  VALUE

                      01835 ;;      695 register type nRegs=2
                      01836 ;;      695 register type nRegs=2
                      01837 ;;      line = 3974 result AOP_REG=r0x104F, size=2, left AOP_REG=r0x104F, size=2, right AOP_LIT=0x0f, si
                            ze=2
                      01838 ;; >>> ../../../../src/pic14/gen.c:4147:genAnd
000D   300F           01839         MOVLW   0x0f    ;id=565,key=000,inCond:400,outCond:10,flow seq=03a
                      01840 ;; >>> ../../../../src/pic14/gen.c:4149:genAnd
                      01841 ;;      1097 rIdx = r0x104F 
                      01842 ;; BANKOPT2 BANKSEL dropped; r0x1026 present in same bank as r0x1026
000E   05??           01843         ANDWF   r0x1026,F       ;id=568,key=001,inCond:11,outCond:5,flow seq=03a,rIdx=r0x104F
                      01844 ;; >>> ../../../../src/pic14/gen.c:4129:genAnd
                      01845 ;;      1097 rIdx = r0x1050 
                      01846 ;; BANKOPT2 BANKSEL dropped; r0x1027 present in same bank as r0x1026
000F   01??           01847         CLRF    r0x1027 ;id=571,key=002,inCond:0,outCond:5,flow seq=03a,rIdx=r0x1050
                      01848 ;;; ../../../../src/pic14/gen.c:2308:resultRemat *{*
                      01849 ;;; ../../../../src/pic14/gen.c:7229:genCast *{*
                      01850 ;; ***  genCast  7230
                      01851 ;; ***  aopForSym 316
                      01852 ;;      328 sym->rname = _txoptr, size = 1
                      01853 ;;      695 register type nRegs=2
                      01854 ;;      line = 7238 result AOP_REG=r0x1051, size=2, left -=-, size=0, right AOP_DIR=_txoptr, size=1
                      01855 ;; >>> ../../../../src/pic14/gen.c:7407:genCast
                      01856 ;;      998
                      01857 ;;      1012  _txoptr   offset=0 - had to alloc by reg name
0010   0??? 0???      01858         BANKSEL _txoptr ;id=2240,key=003,inCond:0,outCond:0,flow seq=03a
0012   08??           01859         MOVF    _txoptr,W       ;id=582,key=004,inCond:1,outCond:14,flow seq=03a
                      01860 ;; >>> ../../../../src/pic14/gen.c:7408:genCast
                      01861 ;;      1097 rIdx = r0x1051 
0013   0??? 0???      01862         BANKSEL r0x1028 ;id=2241,key=005,inCond:0,outCond:0,flow seq=03a
0015   00??           01863         MOVWF   r0x1028 ;id=585,key=006,inCond:10,outCond:1,flow seq=03a,rIdx=r0x1051
                      01864 ;; ***  addSign  857
                      01865 ;;; ../../../../src/pic14/genarith.c:858:addSign *{*
                      01866 ;; >>> ../../../../src/pic14/genarith.c:877:addSign
                      01867 ;;      1097 rIdx = r0x1052 
                      01868 ;; BANKOPT2 BANKSEL dropped; r0x1029 present in same bank as r0x1028
0016   01??           01869         CLRF    r0x1029 ;id=590,key=007,inCond:0,outCond:5,flow seq=03a,rIdx=r0x1052
                      01870 ;;; ../../../../src/pic14/gen.c:2308:resultRemat *{*
                      01871 ;;; ../../../../src/pic14/gen.c:3638:genCmpEq *{*
                      01872 ;; ***  genCmpEq  3639
                      01873 ;; ifx is non-null
                      01874 ;;      695 register type nRegs=2
                      01875 ;;      695 register type nRegs=2
                      01876 ;;      line = 3650 result AOP_CRY=0x00, size=0, left AOP_REG=r0x104F, size=2, right AOP_REG=r0x1051, si
                            ze=2
                      01877 ;; ***  mov2w  1366  offset=0
                      01878 ;; >>> ../../../../src/pic14/gen.c:1371:mov2w
                      01879 ;;      1097 rIdx = r0x1051 
                      01880 ;; BANKOPT2 BANKSEL dropped; r0x1028 present in same bank as r0x1028
0017   08??           01881         MOVF    r0x1028,W       ;id=601,key=008,inCond:1,outCond:14,flow seq=03a,rIdx=r0x1051
                      01882 ;; >>> ../../../../src/pic14/gen.c:3722:genCmpEq
                      01883 ;;      1097 rIdx = r0x104F 
                      01884 ;; BANKOPT2 BANKSEL dropped; r0x1026 present in same bank as r0x1028
0018   06??           01885         XORWF   r0x1026,W       ;id=604,key=009,inCond:11,outCond:14,flow seq=03a,rIdx=r0x104F
gpasm-1.5.2 #1319 (Aug 29 2019) build/default   30.08.2019  05:22:10        PAGE 37


LOC    OBJECT CODE    LINE  SOURCE TEXT
  VALUE

                      01886 ;; >>> ../../../../src/pic14/gen.c:3724:genCmpEq
0019   1D03           01887         BTFSS   STATUS,2        ;id=606,key=00a,inCond:25,outCond:0,flow seq=03a
                      01888 ;<>Start of new flow, seq=0x3b ancestor = 0x3a
                      01889 ;  from: 03a ; to: 03e 
                      01890 ;; >>> ../../../../src/pic14/gen.c:3727:genCmpEq
                      01891 ;; ***  popGetLabel  key=14, label offset 22
001A   2???           01892         GOTO    _00136_DS_      ;id=609,key=000,inCond:0,outCond:0,flow seq=03b
                      01893 ;<>Start of new flow, seq=0x3c ancestor = 0x3a
                      01894 ;  from: 03a ; to: 03e 03d 
                      01895 ;; ***  mov2w  1366  offset=1
                      01896 ;; >>> ../../../../src/pic14/gen.c:1371:mov2w
                      01897 ;;      1097 rIdx = r0x1052 
                      01898 ;; BANKOPT2 BANKSEL dropped; r0x1029 present in same bank as r0x1028
001B   08??           01899         MOVF    r0x1029,W       ;id=613,key=000,inCond:1,outCond:14,flow seq=03c,rIdx=r0x1052
                      01900 ;; >>> ../../../../src/pic14/gen.c:3722:genCmpEq
                      01901 ;;      1097 rIdx = r0x1050 
                      01902 ;; BANKOPT2 BANKSEL dropped; r0x1027 present in same bank as r0x1028
                      01903 ;       .line   84; "../../../lib/ser.c"        GIE = 0;
001C   06??           01904         XORWF   r0x1027,W       ;id=2097,key=001,inCond:11,outCond:14,flow seq=03c,rIdx=r0x1050
001D   1903           01905         BTFSC   STATUS,2        ;id=2098,key=002,inCond:25,outCond:0,flow seq=03c
                      01906 ;<>Start of new flow, seq=0x3d ancestor = 0x3c
                      01907 ;  from: 03c ; to: 038 
001E   2???           01908         GOTO    _00123_DS_      ;id=2099,key=000,inCond:0,outCond:0,flow seq=03d
                      01909 ;<>Start of new flow, seq=0x3e ancestor = 0x3b
                      01910 ;  from: 03c 03b ; to: 040 03f 
                      01911 ;; BANKOPT3 drop assumptions: PCI with label or call found
001F                  01912 _00136_DS_:
001F   0??? 0???      01913         BANKSEL _INTCONbits     ;id=2248,key=000,inCond:0,outCond:0,flow seq=03e
0021   13??           01914         BCF     _INTCONbits,7   ;id=2100,key=001,inCond:21,outCond:21,flow seq=03e
                      01915 ;       .line   85; "../../../lib/ser.c"        txfifo[txiptr] = c;
0022   0??? 0???      01916         BANKSEL _txiptr ;id=2249,key=002,inCond:0,outCond:0,flow seq=03e
0024   08??           01917         MOVF    _txiptr,W       ;id=670,key=003,inCond:1,outCond:14,flow seq=03e
                      01918 ;; >>> ../../../../src/pic14/genarith.c:731:genPlus
0025   3E??           01919         ADDLW   (_txfifo + 0)   ;id=672,key=004,inCond:410,outCond:1e,flow seq=03e
                      01920 ;; >>> ../../../../src/pic14/genarith.c:732:genPlus
                      01921 ;;      1097 rIdx = r0x104F 
0026   0??? 0???      01922         BANKSEL r0x1026 ;id=2250,key=005,inCond:0,outCond:0,flow seq=03e
0028   00??           01923         MOVWF   r0x1026 ;id=675,key=006,inCond:10,outCond:1,flow seq=03e,rIdx=r0x104F
                      01924 ;; >>> ../../../../src/pic14/genarith.c:795:genPlus
0029   30??           01925         MOVLW   high (_txfifo + 0)      ;id=677,key=007,inCond:400,outCond:10,flow seq=03e
                      01926 ;; >>> ../../../../src/pic14/genarith.c:796:genPlus
002A   1803           01927         BTFSC   STATUS,0        ;id=679,key=008,inCond:23,outCond:0,flow seq=03e
                      01928 ;<>Start of new flow, seq=0x3f ancestor = 0x3e
                      01929 ;  from: 03e ; to: 040 
                      01930 ;; >>> ../../../../src/pic14/genarith.c:797:genPlus
002B   3E01           01931         ADDLW   0x01    ;id=681,key=000,inCond:410,outCond:1e,flow seq=03f
                      01932 ;<>Start of new flow, seq=0x40 ancestor = 0x3e
                      01933 ;  from: 03f 03e ; to: 042 041 
                      01934 ;; >>> ../../../../src/pic14/genarith.c:798:genPlus
                      01935 ;;      1097 rIdx = r0x1050 
                      01936 ;; BANKOPT2 BANKSEL dropped; r0x1027 present in same bank as r0x1026
002C   00??           01937         MOVWF   r0x1027 ;id=684,key=000,inCond:10,outCond:1,flow seq=040,rIdx=r0x1050
                      01938 ;;; ../../../../src/pic14/gen.c:2308:resultRemat *{*
gpasm-1.5.2 #1319 (Aug 29 2019) build/default   30.08.2019  05:22:10        PAGE 38


LOC    OBJECT CODE    LINE  SOURCE TEXT
  VALUE

                      01939 ;;; ../../../../src/pic14/gen.c:6796:genPointerSet *{*
                      01940 ;; ***  genPointerSet  6797
                      01941 ;;; ../../../../src/pic14/gen.c:6615:genNearPointerSet *{*
                      01942 ;; ***  genNearPointerSet  6616
                      01943 ;;      695 register type nRegs=2
                      01944 ;; ***  genNearPointerSet  6631
                      01945 ;;      695 register type nRegs=1
                      01946 ;;      line = 6633 result AOP_REG=r0x104F, size=2, left -=-, size=0, right AOP_REG=r0x104E, size=1
                      01947 ;;; ../../../../src/pic14/gen.c:1328:mov2w_op *{*
                      01948 ;; ***  mov2w  1366  offset=0
                      01949 ;; >>> ../../../../src/pic14/gen.c:1371:mov2w
                      01950 ;;      1097 rIdx = r0x104F 
                      01951 ;; BANKOPT2 BANKSEL dropped; r0x1026 present in same bank as r0x1026
002D   08??           01952         MOVF    r0x1026,W       ;id=698,key=001,inCond:1,outCond:14,flow seq=040,rIdx=r0x104F
                      01953 ;; >>> ../../../../src/pic14/gen.c:5700:setup_fsr
002E   1283 1303      01954         BANKSEL FSR     ;id=2253,key=002,inCond:0,outCond:0,flow seq=040
0030   0084           01955         MOVWF   FSR     ;id=700,key=003,inCond:10,outCond:1,flow seq=040
                      01956 ;;; ../../../../src/pic14/gen.c:5651:SetIrp *{*
                      01957 ;; >>> ../../../../src/pic14/gen.c:5678:SetIrp
                      01958 ;; BANKOPT1 BANKSEL dropped; STATUS present in all of FSR's banks
0031   1383           01959         BCF     STATUS,7        ;id=703,key=004,inCond:21,outCond:21,flow seq=040
                      01960 ;; >>> ../../../../src/pic14/gen.c:5681:SetIrp
0032   0??? 0???      01961         BANKSEL r0x1027 ;id=2255,key=005,inCond:0,outCond:0,flow seq=040
0034   18??           01962         BTFSC   r0x1027,0       ;id=705,key=006,inCond:21,outCond:0,flow seq=040
                      01963 ;<>Start of new flow, seq=0x41 ancestor = 0x40
                      01964 ;  from: 040 ; to: 042 
                      01965 ;; >>> ../../../../src/pic14/gen.c:5682:SetIrp
0035   1783           01966         BSF     STATUS,7        ;id=707,key=000,inCond:21,outCond:21,flow seq=041
                      01967 ;<>Start of new flow, seq=0x42 ancestor = 0x40
                      01968 ;  from: 041 040 ; to: 
                      01969 ;; ***  genNearPointerSet  6658
                      01970 ;; >>> ../../../../src/pic14/gen.c:6674:genNearPointerSet
                      01971 ;;      1097 rIdx = r0x104E 
                      01972 ;; BANKOPT2 BANKSEL dropped; r0x1025 present in same bank as r0x1027
0036   08??           01973         MOVF    r0x1025,W       ;id=711,key=000,inCond:1,outCond:14,flow seq=042,rIdx=r0x104E
                      01974 ;; >>> ../../../../src/pic14/gen.c:6679:genNearPointerSet
0037   1283 1303      01975         BANKSEL INDF    ;id=2257,key=001,inCond:0,outCond:0,flow seq=042
0039   0080           01976         MOVWF   INDF    ;id=713,key=002,inCond:10,outCond:1,flow seq=042
                      01977 ;; ***  genNearPointerSet  6687
                      01978 ;; ***  genNearPointerSet  6713
                      01979 ;;; ../../../../src/pic14/gen.c:2308:resultRemat *{*
                      01980 ;;; ../../../../src/pic14/gen.c:7229:genCast *{*
                      01981 ;; ***  genCast  7230
                      01982 ;; ***  aopForSym 316
                      01983 ;;      328 sym->rname = _txiptr, size = 1
                      01984 ;;      695 register type nRegs=1
                      01985 ;;      line = 7238 result AOP_REG=r0x104E, size=1, left -=-, size=0, right AOP_DIR=_txiptr, size=1
                      01986 ;; ***  genCast  7362
                      01987 ;; >>> ../../../../src/pic14/gen.c:7386:genCast
                      01988 ;;      998
                      01989 ;;      1016  _txiptr   offset=0
                      01990 ;       .line   86; "../../../lib/ser.c"        txiptr = (txiptr + 1) & SER_FIFO_MASK;
003A   0??? 0???      01991         BANKSEL _txiptr ;id=2258,key=003,inCond:0,outCond:0,flow seq=042
gpasm-1.5.2 #1319 (Aug 29 2019) build/default   30.08.2019  05:22:10        PAGE 39


LOC    OBJECT CODE    LINE  SOURCE TEXT
  VALUE

003C   08??           01992         MOVF    _txiptr,W       ;id=728,key=004,inCond:1,outCond:14,flow seq=042
                      01993 ;; >>> ../../../../src/pic14/gen.c:7387:genCast
                      01994 ;;      1097 rIdx = r0x104E 
003D   0??? 0???      01995         BANKSEL r0x1025 ;id=2259,key=005,inCond:0,outCond:0,flow seq=042
003F   00??           01996         MOVWF   r0x1025 ;id=731,key=006,inCond:10,outCond:1,flow seq=042,rIdx=r0x104E
                      01997 ;;; ../../../../src/pic14/gen.c:2308:resultRemat *{*
                      01998 ;; ***  genPlus  607
                      01999 ;;; ../../../../src/pic14/genarith.c:608:genPlus *{*
                      02000 ;;      695 register type nRegs=1
                      02001 ;;      695 register type nRegs=1
                      02002 ;;      line = 614 result AOP_REG=r0x104E, size=1, left AOP_REG=r0x104E, size=1, right AOP_LIT=0x01, siz
                            e=1
                      02003 ;;; ../../../../src/pic14/genarith.c:138:genPlusIncr *{*
                      02004 ;; ***  genPlusIncr  140
                      02005 ;;      result AOP_REG, left AOP_REG, right AOP_LIT
                      02006 ;;      genPlusIncr  152
                      02007 ;; >>> ../../../../src/pic14/genarith.c:164:genPlusIncr
                      02008 ;;      1097 rIdx = r0x104E 
                      02009 ;; BANKOPT2 BANKSEL dropped; r0x1025 present in same bank as r0x1025
0040   0A??           02010         INCF    r0x1025,F       ;id=744,key=007,inCond:1,outCond:5,flow seq=042,rIdx=r0x104E
                      02011 ;;; ../../../../src/pic14/gen.c:2308:resultRemat *{*
                      02012 ;;; ../../../../src/pic14/gen.c:3938:genAnd *{*
                      02013 ;; ***  genAnd  3939
                      02014 ;;      695 register type nRegs=1
                      02015 ;; ***  aopForSym 316
                      02016 ;;      328 sym->rname = _txiptr, size = 1
                      02017 ;;      line = 3974 result AOP_DIR=_txiptr, size=1, left AOP_REG=r0x104E, size=1, right AOP_LIT=0x0f, si
                            ze=1
                      02018 ;; >>> ../../../../src/pic14/gen.c:4209:genAnd
0041   300F           02019         MOVLW   0x0f    ;id=753,key=008,inCond:400,outCond:10,flow seq=042
                      02020 ;; >>> ../../../../src/pic14/gen.c:4210:genAnd
                      02021 ;;      1097 rIdx = r0x104E 
                      02022 ;; BANKOPT2 BANKSEL dropped; r0x1025 present in same bank as r0x1025
0042   05??           02023         ANDWF   r0x1025,W       ;id=756,key=009,inCond:11,outCond:14,flow seq=042,rIdx=r0x104E
                      02024 ;; >>> ../../../../src/pic14/gen.c:4211:genAnd
                      02025 ;;      998
                      02026 ;;      1016  _txiptr   offset=0
0043   0??? 0???      02027         BANKSEL _txiptr ;id=2262,key=00a,inCond:0,outCond:0,flow seq=042
0045   00??           02028         MOVWF   _txiptr ;id=760,key=00b,inCond:10,outCond:1,flow seq=042
                      02029 ;;; ../../../../src/pic14/gen.c:2308:resultRemat *{*
                      02030 ;;; ../../../../src/pic14/gen.c:2308:resultRemat *{*
                      02031 ;;; ../../../../src/pic14/gen.c:6796:genPointerSet *{*
                      02032 ;; ***  genPointerSet  6797
                      02033 ;;; ../../../../src/pic14/gen.c:6615:genNearPointerSet *{*
                      02034 ;; ***  genNearPointerSet  6616
                      02035 ;;      614
                      02036 ;;      aopForRemat 393
                      02037 ;;      419: rname _PIE1bits, val 0, const = 0
                      02038 ;; ***  genNearPointerSet  6631
                      02039 ;;      824: aopGet AOP_PCODE type PO_IMMEDIATE
                      02040 ;;      _PIE1bits
                      02041 ;;      line = 6633 result AOP_PCODE=_PIE1bits, size=2, left -=-, size=0, right AOP_LIT=0x01, size=1
                      02042 ;;; ../../../../src/pic14/gen.c:6347:genPackBits *{*
gpasm-1.5.2 #1319 (Aug 29 2019) build/default   30.08.2019  05:22:10        PAGE 40


LOC    OBJECT CODE    LINE  SOURCE TEXT
  VALUE

                      02043 ;; ***  genPackBits  6348
                      02044 ;;      824: aopGet AOP_PCODE type PO_IMMEDIATE
                      02045 ;;      _PIE1bits
                      02046 ;; >>> ../../../../src/pic14/gen.c:6373:genPackBits
                      02047 ;       .line   87; "../../../lib/ser.c"        TXIE = 1;
0046   0??? 0???      02048         BANKSEL _PIE1bits       ;id=2263,key=00c,inCond:0,outCond:0,flow seq=042
0048   16??           02049         BSF     _PIE1bits,4     ;id=780,key=00d,inCond:21,outCond:21,flow seq=042
                      02050 ;;; ../../../../src/pic14/gen.c:2308:resultRemat *{*
                      02051 ;;; ../../../../src/pic14/gen.c:2308:resultRemat *{*
                      02052 ;;; ../../../../src/pic14/gen.c:6796:genPointerSet *{*
                      02053 ;; ***  genPointerSet  6797
                      02054 ;;; ../../../../src/pic14/gen.c:6615:genNearPointerSet *{*
                      02055 ;; ***  genNearPointerSet  6616
                      02056 ;;      614
                      02057 ;;      aopForRemat 393
                      02058 ;;      419: rname _INTCONbits, val 0, const = 0
                      02059 ;; ***  genNearPointerSet  6631
                      02060 ;;      824: aopGet AOP_PCODE type PO_IMMEDIATE
                      02061 ;;      _INTCONbits
                      02062 ;;      line = 6633 result AOP_PCODE=_INTCONbits, size=2, left -=-, size=0, right AOP_LIT=0x01, size=1
                      02063 ;;; ../../../../src/pic14/gen.c:6347:genPackBits *{*
                      02064 ;; ***  genPackBits  6348
                      02065 ;;      824: aopGet AOP_PCODE type PO_IMMEDIATE
                      02066 ;;      _INTCONbits
                      02067 ;; >>> ../../../../src/pic14/gen.c:6373:genPackBits
                      02068 ;       .line   88; "../../../lib/ser.c"        GIE = 1;
0049   0??? 0???      02069         BANKSEL _INTCONbits     ;id=2264,key=00e,inCond:0,outCond:0,flow seq=042
004B   17??           02070         BSF     _INTCONbits,7   ;id=800,key=00f,inCond:21,outCond:21,flow seq=042
                      02071 ;;; ../../../../src/pic14/gen.c:2308:resultRemat *{*
                      02072 ;;; ../../../../src/pic14/gen.c:2752:genLabel *{*
                      02073 ;; ***  genLabel  2755
                      02074 ;_00126_DS_:
                      02075 ;;; ../../../../src/pic14/gen.c:2308:resultRemat *{*
                      02076 ;;; ../../../../src/pic14/gen.c:2520:genEndFunction *{*
                      02077 ;; ***  genEndFunction  2522
                      02078 ;return
                      02079 ;       .line   89; "../../../lib/ser.c"        }
004C   0008           02080         RETURN          ;id=811,key=010,inCond:10,outCond:e,flow seq=042
                      02081 ;<>Start of new flow, seq=0x43
                      02082 ;  from: ; to: 
                      02083 ; exit point of _ser_putch
                      02084 ;;; ../../../../src/pic14/gen.c:7535:genpic14Code *{*
                      02085 
                      02086 ;***
                      02087 ;  pBlock Stats: dbName = C
                      02088 ;***
                      02089 ;has an exit
                      02090 ;functions called:
                      02091 ;   _ser_isrx
                      02092 ;   _ser_isrx
                      02093 ;3 compiler assigned registers:
                      02094 ;   r0x103F
                      02095 ;   r0x1040
gpasm-1.5.2 #1319 (Aug 29 2019) build/default   30.08.2019  05:22:10        PAGE 41


LOC    OBJECT CODE    LINE  SOURCE TEXT
  VALUE

                      02096 ;   r0x1041
                      02097 ;; Starting pCode block
                      02098 ;<>Start of new flow, seq=0x44 ancestor = 0x44
                      02099 ;  from: 046 ; to: 045 
                      02100 ;;; ../../../../src/pic14/gen.c:2308:resultRemat *{*
                      02101 ;;; ../../../../src/pic14/gen.c:2752:genLabel *{*
                      02102 ;; ***  genLabel  2755
                      02103 ;;; ../../../../src/pic14/gen.c:2308:resultRemat *{*
                      02104 ;;; ../../../../src/pic14/gen.c:2332:genFunction *{*
                      02105 ;; ***  genFunction  2334 curr label offset=4previous max_key=9 
                      02106 ;;      -----------------------------------------
                      02107 ;;       function ser_getch
                      02108 ;;      -----------------------------------------
                      02109 ;_ser_getch:
                      02110 S_ser__ser_getch        code
0000                  02111 _ser_getch:
                      02112 ; 2 exit points
                      02113 ;;; ../../../../src/pic14/gen.c:2308:resultRemat *{*
                      02114 ;;; ../../../../src/pic14/gen.c:2752:genLabel *{*
                      02115 ;; ***  genLabel  2755
                      02116 ;_00118_DS_:
                      02117 ;;; ../../../../src/pic14/gen.c:2308:resultRemat *{*
                      02118 ;;; ../../../../src/pic14/gen.c:2071:genCall *{*
                      02119 ;; ***  genCall  2073
                      02120 ;;; ../../../../src/pic14/gen.c:1786:saveRegisters *{*
                      02121 ;; ***  saveRegisters  1788
                      02122 ;; >>> ../../../../src/pic14/gen.c:2160:genCall
                      02123 ;; BANKOPT3 drop assumptions: PCI with label or call found
0000                  02124 _00118_DS_:
                      02125 ;       .line   71; "../../../lib/ser.c"        while(ser_isrx() == 0) continue;
0000   0??? 0???      02126         PAGESEL _ser_isrx       ;id=304,key=000,inCond:0,outCond:0,flow seq=044
                      02127 ;; >>> ../../../../src/pic14/gen.c:2165:genCall
                      02128 ;; BANKOPT3 drop assumptions: PCI with label or call found
0002   2???           02129         CALL    _ser_isrx       ;id=306,key=001,inCond:10,outCond:1e,flow seq=044
                      02130 ;<>Start of new flow, seq=0x45 ancestor = 0x44
                      02131 ;  from: 044 ; to: 047 046 
                      02132 ;; >>> ../../../../src/pic14/gen.c:2173:genCall
0003   0??? 0???      02133         PAGESEL $       ;id=308,key=000,inCond:0,outCond:0,flow seq=045
                      02134 ;;      695 register type nRegs=1
                      02135 ;;; ../../../../src/pic14/gen.c:1892:assignResultValue *{*
                      02136 ;; ***  assignResultValue  1894
                      02137 ;;      line = 1896 result -=-, size=0, left AOP_REG=r0x1049, size=1, right -=-, size=0
                      02138 ;; >>> ../../../../src/pic14/gen.c:1378:movwf
                      02139 ;;      1097 rIdx = r0x1049 
0005   0??? 0???      02140         BANKSEL r0x103F ;id=2267,key=001,inCond:0,outCond:0,flow seq=045
0007   00??           02141         MOVWF   r0x103F ;id=315,key=002,inCond:10,outCond:1,flow seq=045,rIdx=r0x1049
                      02142 ;;      2188 left AOP_REG
                      02143 ;;; ../../../../src/pic14/gen.c:1830:unsaveRegisters *{*
                      02144 ;; ***  unsaveRegisters  1832
                      02145 ;;; ../../../../src/pic14/gen.c:2308:resultRemat *{*
                      02146 ;;; ../../../../src/pic14/gen.c:6868:genIfx *{*
                      02147 ;; ***  genIfx  6869
                      02148 ;;      695 register type nRegs=1
gpasm-1.5.2 #1319 (Aug 29 2019) build/default   30.08.2019  05:22:10        PAGE 42


LOC    OBJECT CODE    LINE  SOURCE TEXT
  VALUE

                      02149 ;; ***  pic14_toBoolean  1500
                      02150 ;; >>> ../../../../src/pic14/gen.c:1507:pic14_toBoolean
                      02151 ;; BANKOPT2 BANKSEL dropped; r0x103F present in same bank as r0x103F
0008   08??           02152         MOVF    r0x103F,W       ;id=2101,key=003,inCond:1,outCond:14,flow seq=045,rIdx=r0x1049
0009   1903           02153         BTFSC   STATUS,2        ;id=330,key=004,inCond:25,outCond:0,flow seq=045
                      02154 ;<>Start of new flow, seq=0x46 ancestor = 0x45
                      02155 ;  from: 045 ; to: 044 
                      02156 ;; >>> ../../../../src/pic14/gen.c:6923:genIfx
                      02157 ;; ***  popGetLabel  key=1, label offset 17
000A   2???           02158         GOTO    _00118_DS_      ;id=333,key=000,inCond:0,outCond:0,flow seq=046
                      02159 ;<>Start of new flow, seq=0x47 ancestor = 0x45
                      02160 ;  from: 045 ; to: 049 048 
                      02161 ;;; ../../../../src/pic14/gen.c:2308:resultRemat *{*
                      02162 ;;; ../../../../src/pic14/gen.c:2308:resultRemat *{*
                      02163 ;;; ../../../../src/pic14/gen.c:6796:genPointerSet *{*
                      02164 ;; ***  genPointerSet  6797
                      02165 ;;; ../../../../src/pic14/gen.c:6615:genNearPointerSet *{*
                      02166 ;; ***  genNearPointerSet  6616
                      02167 ;;      614
                      02168 ;;      aopForRemat 393
                      02169 ;;      419: rname _INTCONbits, val 0, const = 0
                      02170 ;; ***  genNearPointerSet  6631
                      02171 ;;      824: aopGet AOP_PCODE type PO_IMMEDIATE
                      02172 ;;      _INTCONbits
                      02173 ;;      line = 6633 result AOP_PCODE=_INTCONbits, size=2, left -=-, size=0, right AOP_LIT=0x00, size=1
                      02174 ;;; ../../../../src/pic14/gen.c:6347:genPackBits *{*
                      02175 ;; ***  genPackBits  6348
                      02176 ;;      824: aopGet AOP_PCODE type PO_IMMEDIATE
                      02177 ;;      _INTCONbits
                      02178 ;; >>> ../../../../src/pic14/gen.c:6373:genPackBits
                      02179 ;       .line   73; "../../../lib/ser.c"        GIE = 0;
000B   0??? 0???      02180         BANKSEL _INTCONbits     ;id=2269,key=000,inCond:0,outCond:0,flow seq=047
000D   13??           02181         BCF     _INTCONbits,7   ;id=353,key=001,inCond:21,outCond:21,flow seq=047
                      02182 ;;; ../../../../src/pic14/gen.c:2308:resultRemat *{*
                      02183 ;;; ../../../../src/pic14/gen.c:2308:resultRemat *{*
                      02184 ;; ***  genPlus  607
                      02185 ;;; ../../../../src/pic14/genarith.c:608:genPlus *{*
                      02186 ;;      614
                      02187 ;;      aopForRemat 393
                      02188 ;;      419: rname _rxfifo, val 0, const = 0
                      02189 ;; ***  aopForSym 316
                      02190 ;;      328 sym->rname = _rxoptr, size = 1
                      02191 ;;      695 register type nRegs=2
                      02192 ;;      824: aopGet AOP_PCODE type PO_IMMEDIATE
                      02193 ;;      _rxfifo
                      02194 ;;      line = 614 result AOP_REG=r0x1049, size=2, left AOP_PCODE=_rxfifo, size=2, right AOP_DIR=_rxoptr
                            , size=1
                      02195 ;;; ../../../../src/pic14/genarith.c:138:genPlusIncr *{*
                      02196 ;; ***  genPlusIncr  140
                      02197 ;;      result AOP_REG, left AOP_PCODE, right AOP_DIR
                      02198 ;; ***  genPlus  713
                      02199 ;;      824: aopGet AOP_PCODE type PO_IMMEDIATE
                      02200 ;;      _rxfifo
gpasm-1.5.2 #1319 (Aug 29 2019) build/default   30.08.2019  05:22:10        PAGE 43


LOC    OBJECT CODE    LINE  SOURCE TEXT
  VALUE

                      02201 ;; >>> ../../../../src/pic14/genarith.c:722:genPlus
                      02202 ;;      998
                      02203 ;;      1016  _rxoptr   offset=0
                      02204 ;       .line   74; "../../../lib/ser.c"        c = rxfifo[rxoptr];
000E   0??? 0???      02205         BANKSEL _rxoptr ;id=2270,key=002,inCond:0,outCond:0,flow seq=047
0010   08??           02206         MOVF    _rxoptr,W       ;id=377,key=003,inCond:1,outCond:14,flow seq=047
                      02207 ;; >>> ../../../../src/pic14/genarith.c:731:genPlus
0011   3E??           02208         ADDLW   (_rxfifo + 0)   ;id=379,key=004,inCond:410,outCond:1e,flow seq=047
                      02209 ;; >>> ../../../../src/pic14/genarith.c:732:genPlus
                      02210 ;;      1097 rIdx = r0x1049 
0012   0??? 0???      02211         BANKSEL r0x103F ;id=2271,key=005,inCond:0,outCond:0,flow seq=047
0014   00??           02212         MOVWF   r0x103F ;id=382,key=006,inCond:10,outCond:1,flow seq=047,rIdx=r0x1049
                      02213 ;; >>> ../../../../src/pic14/genarith.c:795:genPlus
0015   30??           02214         MOVLW   high (_rxfifo + 0)      ;id=384,key=007,inCond:400,outCond:10,flow seq=047
                      02215 ;; >>> ../../../../src/pic14/genarith.c:796:genPlus
0016   1803           02216         BTFSC   STATUS,0        ;id=386,key=008,inCond:23,outCond:0,flow seq=047
                      02217 ;<>Start of new flow, seq=0x48 ancestor = 0x47
                      02218 ;  from: 047 ; to: 049 
                      02219 ;; >>> ../../../../src/pic14/genarith.c:797:genPlus
0017   3E01           02220         ADDLW   0x01    ;id=388,key=000,inCond:410,outCond:1e,flow seq=048
                      02221 ;<>Start of new flow, seq=0x49 ancestor = 0x47
                      02222 ;  from: 048 047 ; to: 04b 04a 
                      02223 ;; >>> ../../../../src/pic14/genarith.c:798:genPlus
                      02224 ;;      1097 rIdx = r0x104A 
                      02225 ;; BANKOPT2 BANKSEL dropped; r0x1040 present in same bank as r0x103F
0018   00??           02226         MOVWF   r0x1040 ;id=391,key=000,inCond:10,outCond:1,flow seq=049,rIdx=r0x104A
                      02227 ;;; ../../../../src/pic14/gen.c:2308:resultRemat *{*
                      02228 ;;; ../../../../src/pic14/gen.c:6260:genPointerGet *{*
                      02229 ;; ***  genPointerGet  6261
                      02230 ;;; ../../../../src/pic14/gen.c:6042:genNearPointerGet *{*
                      02231 ;; ***  genNearPointerGet  6043
                      02232 ;;      695 register type nRegs=2
                      02233 ;; ***  genNearPointerGet  6059
                      02234 ;;      695 register type nRegs=1
                      02235 ;;; ../../../../src/pic14/gen.c:1328:mov2w_op *{*
                      02236 ;; ***  mov2w  1366  offset=0
                      02237 ;; >>> ../../../../src/pic14/gen.c:1371:mov2w
                      02238 ;;      1097 rIdx = r0x1049 
                      02239 ;; BANKOPT2 BANKSEL dropped; r0x103F present in same bank as r0x103F
0019   08??           02240         MOVF    r0x103F,W       ;id=404,key=001,inCond:1,outCond:14,flow seq=049,rIdx=r0x1049
                      02241 ;; >>> ../../../../src/pic14/gen.c:5700:setup_fsr
001A   1283 1303      02242         BANKSEL FSR     ;id=2274,key=002,inCond:0,outCond:0,flow seq=049
001C   0084           02243         MOVWF   FSR     ;id=406,key=003,inCond:10,outCond:1,flow seq=049
                      02244 ;;; ../../../../src/pic14/gen.c:5651:SetIrp *{*
                      02245 ;; >>> ../../../../src/pic14/gen.c:5678:SetIrp
                      02246 ;; BANKOPT1 BANKSEL dropped; STATUS present in all of FSR's banks
001D   1383           02247         BCF     STATUS,7        ;id=409,key=004,inCond:21,outCond:21,flow seq=049
                      02248 ;; >>> ../../../../src/pic14/gen.c:5681:SetIrp
001E   0??? 0???      02249         BANKSEL r0x1040 ;id=2276,key=005,inCond:0,outCond:0,flow seq=049
0020   18??           02250         BTFSC   r0x1040,0       ;id=411,key=006,inCond:21,outCond:0,flow seq=049
                      02251 ;<>Start of new flow, seq=0x4a ancestor = 0x49
                      02252 ;  from: 049 ; to: 04b 
                      02253 ;; >>> ../../../../src/pic14/gen.c:5682:SetIrp
gpasm-1.5.2 #1319 (Aug 29 2019) build/default   30.08.2019  05:22:10        PAGE 44


LOC    OBJECT CODE    LINE  SOURCE TEXT
  VALUE

0021   1783           02254         BSF     STATUS,7        ;id=413,key=000,inCond:21,outCond:21,flow seq=04a
                      02255 ;<>Start of new flow, seq=0x4b ancestor = 0x49
                      02256 ;  from: 04a 049 ; to: 
                      02257 ;; ***  genNearPointerGet  6086
                      02258 ;; >>> ../../../../src/pic14/gen.c:6093:genNearPointerGet
0022   1283 1303      02259         BANKSEL INDF    ;id=2277,key=000,inCond:0,outCond:0,flow seq=04b
0024   0800           02260         MOVF    INDF,W  ;id=416,key=001,inCond:1,outCond:14,flow seq=04b
                      02261 ;; >>> ../../../../src/pic14/gen.c:6100:genNearPointerGet
                      02262 ;;      1097 rIdx = r0x104B 
0025   0??? 0???      02263         BANKSEL r0x1041 ;id=2278,key=002,inCond:0,outCond:0,flow seq=04b
0027   00??           02264         MOVWF   r0x1041 ;id=419,key=003,inCond:10,outCond:1,flow seq=04b,rIdx=r0x104B
                      02265 ;;; ../../../../src/pic14/gen.c:2308:resultRemat *{*
                      02266 ;; ***  genPlus  607
                      02267 ;;; ../../../../src/pic14/genarith.c:608:genPlus *{*
                      02268 ;; ***  aopForSym 316
                      02269 ;;      328 sym->rname = _rxoptr, size = 1
                      02270 ;;      line = 614 result AOP_DIR=_rxoptr, size=1, left AOP_DIR=_rxoptr, size=1, right AOP_LIT=0x01, siz
                            e=1
                      02271 ;;; ../../../../src/pic14/genarith.c:138:genPlusIncr *{*
                      02272 ;; ***  genPlusIncr  140
                      02273 ;;      result AOP_DIR, left AOP_DIR, right AOP_LIT
                      02274 ;;      genPlusIncr  152
                      02275 ;; >>> ../../../../src/pic14/genarith.c:164:genPlusIncr
                      02276 ;;      998
                      02277 ;;      1016  _rxoptr   offset=0
                      02278 ;       .line   75; "../../../lib/ser.c"        ++rxoptr;
0028   0??? 0???      02279         BANKSEL _rxoptr ;id=2279,key=004,inCond:0,outCond:0,flow seq=04b
002A   0A??           02280         INCF    _rxoptr,F       ;id=434,key=005,inCond:1,outCond:5,flow seq=04b
                      02281 ;;; ../../../../src/pic14/gen.c:2308:resultRemat *{*
                      02282 ;;; ../../../../src/pic14/gen.c:3938:genAnd *{*
                      02283 ;; ***  genAnd  3939
                      02284 ;; ***  aopForSym 316
                      02285 ;;      328 sym->rname = _rxoptr, size = 1
                      02286 ;;      576
                      02287 ;;      line = 3974 result AOP_DIR=_rxoptr, size=1, left AOP_DIR=_rxoptr, size=1, right AOP_LIT=0x0f, si
                            ze=1
                      02288 ;; >>> ../../../../src/pic14/gen.c:4147:genAnd
                      02289 ;       .line   76; "../../../lib/ser.c"        rxoptr &= SER_FIFO_MASK;
002B   300F           02290         MOVLW   0x0f    ;id=444,key=006,inCond:400,outCond:10,flow seq=04b
                      02291 ;; >>> ../../../../src/pic14/gen.c:4149:genAnd
                      02292 ;;      998
                      02293 ;;      1016  _rxoptr   offset=0
                      02294 ;; BANKOPT2 BANKSEL dropped; _rxoptr present in same bank as _rxoptr
002C   05??           02295         ANDWF   _rxoptr,F       ;id=448,key=007,inCond:11,outCond:5,flow seq=04b
                      02296 ;;; ../../../../src/pic14/gen.c:2308:resultRemat *{*
                      02297 ;;; ../../../../src/pic14/gen.c:2308:resultRemat *{*
                      02298 ;;; ../../../../src/pic14/gen.c:6796:genPointerSet *{*
                      02299 ;; ***  genPointerSet  6797
                      02300 ;;; ../../../../src/pic14/gen.c:6615:genNearPointerSet *{*
                      02301 ;; ***  genNearPointerSet  6616
                      02302 ;;      614
                      02303 ;;      aopForRemat 393
                      02304 ;;      419: rname _INTCONbits, val 0, const = 0
gpasm-1.5.2 #1319 (Aug 29 2019) build/default   30.08.2019  05:22:10        PAGE 45


LOC    OBJECT CODE    LINE  SOURCE TEXT
  VALUE

                      02305 ;; ***  genNearPointerSet  6631
                      02306 ;;      824: aopGet AOP_PCODE type PO_IMMEDIATE
                      02307 ;;      _INTCONbits
                      02308 ;;      line = 6633 result AOP_PCODE=_INTCONbits, size=2, left -=-, size=0, right AOP_LIT=0x01, size=1
                      02309 ;;; ../../../../src/pic14/gen.c:6347:genPackBits *{*
                      02310 ;; ***  genPackBits  6348
                      02311 ;;      824: aopGet AOP_PCODE type PO_IMMEDIATE
                      02312 ;;      _INTCONbits
                      02313 ;; >>> ../../../../src/pic14/gen.c:6373:genPackBits
                      02314 ;       .line   77; "../../../lib/ser.c"        GIE = 1;
002D   0??? 0???      02315         BANKSEL _INTCONbits     ;id=2281,key=008,inCond:0,outCond:0,flow seq=04b
002F   17??           02316         BSF     _INTCONbits,7   ;id=468,key=009,inCond:21,outCond:21,flow seq=04b
                      02317 ;;; ../../../../src/pic14/gen.c:2308:resultRemat *{*
                      02318 ;;; ../../../../src/pic14/gen.c:2675:genRet *{*
                      02319 ;; ***  genRet  2677
                      02320 ;;      695 register type nRegs=1
                      02321 ;;; ../../../../src/pic14/gen.c:1328:mov2w_op *{*
                      02322 ;; ***  mov2w  1366  offset=0
                      02323 ;; >>> ../../../../src/pic14/gen.c:1371:mov2w
                      02324 ;;      1097 rIdx = r0x104B 
                      02325 ;       .line   78; "../../../lib/ser.c"        return c;
0030   0??? 0???      02326         BANKSEL r0x1041 ;id=2282,key=00a,inCond:0,outCond:0,flow seq=04b
0032   08??           02327         MOVF    r0x1041,W       ;id=478,key=00b,inCond:1,outCond:14,flow seq=04b,rIdx=r0x104B
                      02328 ;;; ../../../../src/pic14/gen.c:2308:resultRemat *{*
                      02329 ;;; ../../../../src/pic14/gen.c:2752:genLabel *{*
                      02330 ;; ***  genLabel  2755
                      02331 ;_00121_DS_:
                      02332 ;;; ../../../../src/pic14/gen.c:2308:resultRemat *{*
                      02333 ;;; ../../../../src/pic14/gen.c:2520:genEndFunction *{*
                      02334 ;; ***  genEndFunction  2522
                      02335 ;return
                      02336 ;       .line   79; "../../../lib/ser.c"        }
0033   0008           02337         RETURN          ;id=489,key=00c,inCond:10,outCond:e,flow seq=04b
                      02338 ;<>Start of new flow, seq=0x4c
                      02339 ;  from: ; to: 
                      02340 ; exit point of _ser_getch
                      02341 ;;; ../../../../src/pic14/gen.c:7535:genpic14Code *{*
                      02342 
                      02343 ;***
                      02344 ;  pBlock Stats: dbName = C
                      02345 ;***
                      02346 ;has an exit
                      02347 ;2 compiler assigned registers:
                      02348 ;   r0x103D
                      02349 ;   r0x103E
                      02350 ;; Starting pCode block
                      02351 ;<>Start of new flow, seq=0x4d ancestor = 0x4d
                      02352 ;  from: ; to: 04f 04e 
                      02353 ;;; ../../../../src/pic14/gen.c:2308:resultRemat *{*
                      02354 ;;; ../../../../src/pic14/gen.c:2752:genLabel *{*
                      02355 ;; ***  genLabel  2755
                      02356 ;;; ../../../../src/pic14/gen.c:2308:resultRemat *{*
                      02357 ;;; ../../../../src/pic14/gen.c:2332:genFunction *{*
gpasm-1.5.2 #1319 (Aug 29 2019) build/default   30.08.2019  05:22:10        PAGE 46


LOC    OBJECT CODE    LINE  SOURCE TEXT
  VALUE

                      02358 ;; ***  genFunction  2334 curr label offset=0previous max_key=0 
                      02359 ;;      -----------------------------------------
                      02360 ;;       function ser_isrx
                      02361 ;;      -----------------------------------------
                      02362 ;_ser_isrx:
                      02363 S_ser__ser_isrx code
0000                  02364 _ser_isrx:
                      02365 ; 2 exit points
                      02366 ;;; ../../../../src/pic14/gen.c:2308:resultRemat *{*
                      02367 ;;; ../../../../src/pic14/gen.c:2308:resultRemat *{*
                      02368 ;;; ../../../../src/pic14/gen.c:6260:genPointerGet *{*
                      02369 ;; ***  genPointerGet  6261
                      02370 ;;; ../../../../src/pic14/gen.c:6042:genNearPointerGet *{*
                      02371 ;; ***  genNearPointerGet  6043
                      02372 ;;      614
                      02373 ;;      aopForRemat 393
                      02374 ;;      419: rname _RCSTAbits, val 0, const = 0
                      02375 ;; ***  genNearPointerGet  6059
                      02376 ;;      695 register type nRegs=1
                      02377 ;;; ../../../../src/pic14/gen.c:5858:genUnpackBits *{*
                      02378 ;; ***  genUnpackBits  5859
                      02379 ;;      824: aopGet AOP_PCODE type PO_IMMEDIATE
                      02380 ;;      _RCSTAbits
                      02381 ;; >>> ../../../../src/pic14/gen.c:5881:genUnpackBits
                      02382 ;       .line   59; "../../../lib/ser.c"        if(OERR) {
0000   0??? 0???      02383         BANKSEL _RCSTAbits      ;id=2283,key=000,inCond:0,outCond:0,flow seq=04d
0002   1C??           02384         BTFSS   _RCSTAbits,1    ;id=133,key=001,inCond:21,outCond:0,flow seq=04d
                      02385 ;<>Start of new flow, seq=0x4e ancestor = 0x4d
                      02386 ;  from: 04d ; to: 050 
                      02387 ;; >>> ../../../../src/pic14/gen.c:5882:genUnpackBits
                      02388 ;; ***  popGetLabel  key=2, label offset 4
0003   2???           02389         GOTO    _00106_DS_      ;id=136,key=000,inCond:0,outCond:0,flow seq=04e
                      02390 ;<>Start of new flow, seq=0x4f ancestor = 0x4d
                      02391 ;  from: 04d ; to: 056 
                      02392 ;;; ../../../../src/pic14/gen.c:2308:resultRemat *{*
                      02393 ;;; ../../../../src/pic14/gen.c:2308:resultRemat *{*
                      02394 ;;; ../../../../src/pic14/gen.c:2308:resultRemat *{*
                      02395 ;;; ../../../../src/pic14/gen.c:6796:genPointerSet *{*
                      02396 ;; ***  genPointerSet  6797
                      02397 ;;; ../../../../src/pic14/gen.c:6615:genNearPointerSet *{*
                      02398 ;; ***  genNearPointerSet  6616
                      02399 ;;      614
                      02400 ;;      aopForRemat 393
                      02401 ;;      419: rname _RCSTAbits, val 0, const = 0
                      02402 ;; ***  genNearPointerSet  6631
                      02403 ;;      824: aopGet AOP_PCODE type PO_IMMEDIATE
                      02404 ;;      _RCSTAbits
                      02405 ;;      line = 6633 result AOP_PCODE=_RCSTAbits, size=2, left -=-, size=0, right AOP_LIT=0x00, size=1
                      02406 ;;; ../../../../src/pic14/gen.c:6347:genPackBits *{*
                      02407 ;; ***  genPackBits  6348
                      02408 ;;      824: aopGet AOP_PCODE type PO_IMMEDIATE
                      02409 ;;      _RCSTAbits
                      02410 ;; >>> ../../../../src/pic14/gen.c:6373:genPackBits
gpasm-1.5.2 #1319 (Aug 29 2019) build/default   30.08.2019  05:22:10        PAGE 47


LOC    OBJECT CODE    LINE  SOURCE TEXT
  VALUE

                      02411 ;; BANKOPT2 BANKSEL dropped; _RCSTAbits present in same bank as _RCSTAbits
                      02412 ;       .line   60; "../../../lib/ser.c"        CREN = 0;
0004   12??           02413         BCF     _RCSTAbits,4    ;id=157,key=000,inCond:21,outCond:21,flow seq=04f
                      02414 ;;; ../../../../src/pic14/gen.c:2308:resultRemat *{*
                      02415 ;;; ../../../../src/pic14/gen.c:2308:resultRemat *{*
                      02416 ;;; ../../../../src/pic14/gen.c:6796:genPointerSet *{*
                      02417 ;; ***  genPointerSet  6797
                      02418 ;;; ../../../../src/pic14/gen.c:6615:genNearPointerSet *{*
                      02419 ;; ***  genNearPointerSet  6616
                      02420 ;;      614
                      02421 ;;      aopForRemat 393
                      02422 ;;      419: rname _RCSTAbits, val 0, const = 0
                      02423 ;; ***  genNearPointerSet  6631
                      02424 ;;      824: aopGet AOP_PCODE type PO_IMMEDIATE
                      02425 ;;      _RCSTAbits
                      02426 ;;      line = 6633 result AOP_PCODE=_RCSTAbits, size=2, left -=-, size=0, right AOP_LIT=0x01, size=1
                      02427 ;;; ../../../../src/pic14/gen.c:6347:genPackBits *{*
                      02428 ;; ***  genPackBits  6348
                      02429 ;;      824: aopGet AOP_PCODE type PO_IMMEDIATE
                      02430 ;;      _RCSTAbits
                      02431 ;; >>> ../../../../src/pic14/gen.c:6373:genPackBits
                      02432 ;; BANKOPT2 BANKSEL dropped; _RCSTAbits present in same bank as _RCSTAbits
                      02433 ;       .line   61; "../../../lib/ser.c"        CREN = 1;
0005   16??           02434         BSF     _RCSTAbits,4    ;id=177,key=001,inCond:21,outCond:21,flow seq=04f
                      02435 ;;; ../../../../src/pic14/gen.c:2308:resultRemat *{*
                      02436 ;;; ../../../../src/pic14/gen.c:2675:genRet *{*
                      02437 ;; ***  genRet  2677
                      02438 ;;; ../../../../src/pic14/gen.c:1328:mov2w_op *{*
                      02439 ;; >>> ../../../../src/pic14/gen.c:1346:mov2w_op
                      02440 ;       .line   62; "../../../lib/ser.c"        return 0;
0006   3000           02441         MOVLW   0x00    ;id=184,key=002,inCond:400,outCond:10,flow seq=04f
                      02442 ;; >>> ../../../../src/pic14/gen.c:2701:genRet
                      02443 ;; ***  popGetLabel  key=3, label offset 4
0007   2???           02444         GOTO    _00107_DS_      ;id=187,key=003,inCond:0,outCond:0,flow seq=04f
                      02445 ;<>Start of new flow, seq=0x50 ancestor = 0x4e
                      02446 ;  from: 04e ; to: 052 051 
                      02447 ;;; ../../../../src/pic14/gen.c:2308:resultRemat *{*
                      02448 ;;; ../../../../src/pic14/gen.c:2752:genLabel *{*
                      02449 ;; ***  genLabel  2755
                      02450 ;_00106_DS_:
                      02451 ;;; ../../../../src/pic14/gen.c:2308:resultRemat *{*
                      02452 ;;; ../../../../src/pic14/gen.c:3638:genCmpEq *{*
                      02453 ;; ***  genCmpEq  3639
                      02454 ;; ifx is null
                      02455 ;; ***  aopForSym 316
                      02456 ;;      328 sym->rname = _rxiptr, size = 1
                      02457 ;; ***  aopForSym 316
                      02458 ;;      328 sym->rname = _rxoptr, size = 1
                      02459 ;;      695 register type nRegs=1
                      02460 ;;      line = 3650 result AOP_REG=r0x1045, size=1, left AOP_DIR=_rxiptr, size=1, right AOP_DIR=_rxoptr,
                             size=1
                      02461 ;; >>> ../../../../src/pic14/gen.c:3676:genCmpEq
                      02462 ;;      1097 rIdx = r0x1045 
gpasm-1.5.2 #1319 (Aug 29 2019) build/default   30.08.2019  05:22:10        PAGE 48


LOC    OBJECT CODE    LINE  SOURCE TEXT
  VALUE

                      02463 ;; BANKOPT3 drop assumptions: PCI with label or call found
0008                  02464 _00106_DS_:
                      02465 ;       .line   64; "../../../lib/ser.c"        return (rxiptr != rxoptr);
0008   0??? 0???      02466         BANKSEL r0x103D ;id=2287,key=000,inCond:0,outCond:0,flow seq=050
000A   01??           02467         CLRF    r0x103D ;id=206,key=001,inCond:0,outCond:5,flow seq=050,rIdx=r0x1045
                      02468 ;; ***  mov2w  1366  offset=0
                      02469 ;; >>> ../../../../src/pic14/gen.c:1371:mov2w
                      02470 ;;      998
                      02471 ;;      1012  _rxoptr   offset=0 - had to alloc by reg name
000B   0??? 0???      02472         BANKSEL _rxoptr ;id=2288,key=002,inCond:0,outCond:0,flow seq=050
000D   08??           02473         MOVF    _rxoptr,W       ;id=211,key=003,inCond:1,outCond:14,flow seq=050
                      02474 ;; >>> ../../../../src/pic14/gen.c:3722:genCmpEq
                      02475 ;;      998
                      02476 ;;      1012  _rxiptr   offset=0 - had to alloc by reg name
000E   0??? 0???      02477         BANKSEL _rxiptr ;id=2289,key=004,inCond:0,outCond:0,flow seq=050
0010   06??           02478         XORWF   _rxiptr,W       ;id=2102,key=005,inCond:11,outCond:14,flow seq=050
0011   1D03           02479         BTFSS   STATUS,2        ;id=2293,key=006,inCond:25,outCond:0,flow seq=050
                      02480 ;<>Start of new flow, seq=0x51 ancestor = 0x50
                      02481 ;  from: 050 ; to: 053 
0012   2???           02482         GOTO    _00001_DS_      ;id=2292,key=000,inCond:0,outCond:0,flow seq=051
                      02483 ;<>Start of new flow, seq=0x52 ancestor = 0x50
                      02484 ;  from: 050 ; to: 053 
0013   0??? 0???      02485         BANKSEL r0x103D ;id=2290,key=000,inCond:0,outCond:0,flow seq=052
0015   0A??           02486         INCF    r0x103D,F       ;id=2104,key=001,inCond:1,outCond:5,flow seq=052,rIdx=r0x1045
                      02487 ;<>Start of new flow, seq=0x53 ancestor = 0x51
                      02488 ;  from: 052 051 ; to: 055 054 
                      02489 ;; BANKOPT3 drop assumptions: PCI with label or call found
0016                  02490 _00001_DS_:
0016   0??? 0???      02491         BANKSEL r0x103D ;id=2295,key=000,inCond:0,outCond:0,flow seq=053
0018   08??           02492         MOVF    r0x103D,W       ;id=2105,key=001,inCond:1,outCond:14,flow seq=053,rIdx=r0x1045
0019   3000           02493         MOVLW   0x00    ;id=236,key=002,inCond:400,outCond:10,flow seq=053
                      02494 ;; >>> ../../../../src/pic14/gen.c:1568:genNot
001A   1903           02495         BTFSC   STATUS,2        ;id=238,key=003,inCond:25,outCond:0,flow seq=053
                      02496 ;<>Start of new flow, seq=0x54 ancestor = 0x53
                      02497 ;  from: 053 ; to: 055 
                      02498 ;; >>> ../../../../src/pic14/gen.c:1569:genNot
001B   3001           02499         MOVLW   0x01    ;id=240,key=000,inCond:400,outCond:10,flow seq=054
                      02500 ;<>Start of new flow, seq=0x55 ancestor = 0x53
                      02501 ;  from: 054 053 ; to: 056 
                      02502 ;; >>> ../../../../src/pic14/gen.c:1378:movwf
                      02503 ;;      1097 rIdx = r0x1046 
                      02504 ;;1     MOVWF   r0x103E
                      02505 ;; BANKOPT2 BANKSEL dropped; r0x103D present in same bank as r0x103D
001C   00??           02506         MOVWF   r0x103D ;id=2107,key=000,inCond:10,outCond:1,flow seq=055,rIdx=r0x1045
                      02507 ;<>Start of new flow, seq=0x56 ancestor = 0x4f
                      02508 ;  from: 055 04f ; to: 
                      02509 ;; BANKOPT3 drop assumptions: PCI with label or call found
001D                  02510 _00107_DS_:
                      02511 ;       .line   65; "../../../lib/ser.c"        }
001D   0008           02512         RETURN          ;id=276,key=000,inCond:10,outCond:e,flow seq=056
                      02513 ;<>Start of new flow, seq=0x57
                      02514 ;  from: ; to: 
                      02515 ; exit point of _ser_isrx
gpasm-1.5.2 #1319 (Aug 29 2019) build/default   30.08.2019  05:22:10        PAGE 49


LOC    OBJECT CODE    LINE  SOURCE TEXT
  VALUE

                      02516 ;;; ../../../../src/pic14/gen.c:7535:genpic14Code *{*
                      02517 
                      02518 
                      02519 ;       code size estimation:
                      02520 ;         236+   82 =   318 instructions (  800 byte)
                      02521 
                      02522         end
gpasm-1.5.2 #1319 (Aug 29 2019) build/default   30.08.2019  05:22:10        PAGE 50


SYMBOL TABLE
  LABEL                              TYPE        VALUE         VALUE          VALUE
                                                 (hex)         (dec)          (text)

ACKDT                             CONSTANT      00000005              5
ACKEN                             CONSTANT      00000004              4
ACKSTAT                           CONSTANT      00000006              6
ADCON0                            CONSTANT      0000001F             31
ADCON1                            CONSTANT      0000009F            159
ADCS0                             CONSTANT      00000006              6
ADCS1                             CONSTANT      00000007              7
ADCS2                             CONSTANT      00000006              6
ADDEN                             CONSTANT      00000003              3
ADFM                              CONSTANT      00000007              7
ADIE                              CONSTANT      00000006              6
ADIF                              CONSTANT      00000006              6
ADON                              CONSTANT      00000000              0
ADRESH                            CONSTANT      0000001E             30
ADRESL                            CONSTANT      0000009E            158
BCLIE                             CONSTANT      00000003              3
BCLIF                             CONSTANT      00000003              3
BF                                CONSTANT      00000000              0
BRGH                              CONSTANT      00000002              2
C                                 CONSTANT      00000000              0
C1INV                             CONSTANT      00000004              4
C1OUT                             CONSTANT      00000006              6
C2INV                             CONSTANT      00000005              5
C2OUT                             CONSTANT      00000007              7
CCP1CON                           CONSTANT      00000017             23
CCP1IE                            CONSTANT      00000002              2
CCP1IF                            CONSTANT      00000002              2
CCP1M0                            CONSTANT      00000000              0
CCP1M1                            CONSTANT      00000001              1
CCP1M2                            CONSTANT      00000002              2
CCP1M3                            CONSTANT      00000003              3
CCP1X                             CONSTANT      00000005              5
CCP1Y                             CONSTANT      00000004              4
CCP2CON                           CONSTANT      0000001D             29
CCP2IE                            CONSTANT      00000000              0
CCP2IF                            CONSTANT      00000000              0
CCP2M0                            CONSTANT      00000000              0
CCP2M1                            CONSTANT      00000001              1
CCP2M2                            CONSTANT      00000002              2
CCP2M3                            CONSTANT      00000003              3
CCP2X                             CONSTANT      00000005              5
CCP2Y                             CONSTANT      00000004              4
CCPR1                             CONSTANT      00000015             21
CCPR1H                            CONSTANT      00000016             22
CCPR1L                            CONSTANT      00000015             21
CCPR2                             CONSTANT      0000001B             27
CCPR2H                            CONSTANT      0000001C             28
CCPR2L                            CONSTANT      0000001B             27
CHS0                              CONSTANT      00000003              3
CHS1                              CONSTANT      00000004              4
CHS2                              CONSTANT      00000005              5
CIS                               CONSTANT      00000003              3
gpasm-1.5.2 #1319 (Aug 29 2019) build/default   30.08.2019  05:22:10        PAGE 51


SYMBOL TABLE
  LABEL                              TYPE        VALUE         VALUE          VALUE
                                                 (hex)         (dec)          (text)

CKE                               CONSTANT      00000006              6
CKP                               CONSTANT      00000004              4
CM0                               CONSTANT      00000000              0
CM1                               CONSTANT      00000001              1
CM2                               CONSTANT      00000002              2
CMCON                             CONSTANT      0000009C            156
CMIE                              CONSTANT      00000006              6
CMIF                              CONSTANT      00000006              6
CREN                              CONSTANT      00000004              4
CSRC                              CONSTANT      00000007              7
CVR0                              CONSTANT      00000000              0
CVR1                              CONSTANT      00000001              1
CVR2                              CONSTANT      00000002              2
CVR3                              CONSTANT      00000003              3
CVRCON                            CONSTANT      0000009D            157
CVREN                             CONSTANT      00000007              7
CVROE                             CONSTANT      00000006              6
CVRR                              CONSTANT      00000005              5
D                                 CONSTANT      00000005              5
DATA_ADDRESS                      CONSTANT      00000005              5
DC                                CONSTANT      00000001              1
D_A                               CONSTANT      00000005              5
D_NOT_A                           CONSTANT      00000005              5
EEADR                             CONSTANT      0000010D            269
EEADRH                            CONSTANT      0000010F            271
EECON1                            CONSTANT      0000018C            396
EECON2                            CONSTANT      0000018D            397
EEDATA                            CONSTANT      0000010C            268
EEDATH                            CONSTANT      0000010E            270
EEIE                              CONSTANT      00000004              4
EEIF                              CONSTANT      00000004              4
EEPGD                             CONSTANT      00000007              7
F                                 CONSTANT      00000001              1
FERR                              CONSTANT      00000002              2
FSR                               CONSTANT      00000004              4
GCEN                              CONSTANT      00000007              7
GIE                               CONSTANT      00000007              7
GO                                CONSTANT      00000002              2
GO_DONE                           CONSTANT      00000002              2
GO_NOT_DONE                       CONSTANT      00000002              2
I2C_DATA                          CONSTANT      00000005              5
I2C_READ                          CONSTANT      00000002              2
I2C_START                         CONSTANT      00000003              3
I2C_STOP                          CONSTANT      00000004              4
INDF                              CONSTANT      00000000              0
INTCON                            CONSTANT      0000000B             11
INTE                              CONSTANT      00000004              4
INTEDG                            CONSTANT      00000006              6
INTF                              CONSTANT      00000001              1
IRP                               CONSTANT      00000007              7
NOT_A                             CONSTANT      00000005              5
NOT_ADDRESS                       CONSTANT      00000005              5
gpasm-1.5.2 #1319 (Aug 29 2019) build/default   30.08.2019  05:22:10        PAGE 52


SYMBOL TABLE
  LABEL                              TYPE        VALUE         VALUE          VALUE
                                                 (hex)         (dec)          (text)

NOT_BO                            CONSTANT      00000000              0
NOT_BOR                           CONSTANT      00000000              0
NOT_DONE                          CONSTANT      00000002              2
NOT_PD                            CONSTANT      00000003              3
NOT_POR                           CONSTANT      00000001              1
NOT_RBPU                          CONSTANT      00000007              7
NOT_RC8                           CONSTANT      00000006              6
NOT_T1SYNC                        CONSTANT      00000002              2
NOT_TO                            CONSTANT      00000004              4
NOT_TX8                           CONSTANT      00000006              6
NOT_W                             CONSTANT      00000002              2
NOT_WRITE                         CONSTANT      00000002              2
OERR                              CONSTANT      00000001              1
OPTION_REG                        CONSTANT      00000081            129
P                                 CONSTANT      00000004              4
PCFG0                             CONSTANT      00000000              0
PCFG1                             CONSTANT      00000001              1
PCFG2                             CONSTANT      00000002              2
PCFG3                             CONSTANT      00000003              3
PCL                               CONSTANT      00000002              2
PCLATH                            CONSTANT      0000000A             10
PCON                              CONSTANT      0000008E            142
PEIE                              CONSTANT      00000006              6
PEN                               CONSTANT      00000002              2
PIE1                              CONSTANT      0000008C            140
PIE2                              CONSTANT      0000008D            141
PIR1                              CONSTANT      0000000C             12
PIR2                              CONSTANT      0000000D             13
PORTA                             CONSTANT      00000005              5
PORTB                             CONSTANT      00000006              6
PORTC                             CONSTANT      00000007              7
PR2                               CONSTANT      00000092            146
PS0                               CONSTANT      00000000              0
PS1                               CONSTANT      00000001              1
PS2                               CONSTANT      00000002              2
PSA                               CONSTANT      00000003              3
PSAVE                             EXTERNAL      00000000              0
R                                 CONSTANT      00000002              2
RA0                               CONSTANT      00000000              0
RA1                               CONSTANT      00000001              1
RA2                               CONSTANT      00000002              2
RA3                               CONSTANT      00000003              3
RA4                               CONSTANT      00000004              4
RA5                               CONSTANT      00000005              5
RB0                               CONSTANT      00000000              0
RB1                               CONSTANT      00000001              1
RB2                               CONSTANT      00000002              2
RB3                               CONSTANT      00000003              3
RB4                               CONSTANT      00000004              4
RB5                               CONSTANT      00000005              5
RB6                               CONSTANT      00000006              6
RB7                               CONSTANT      00000007              7
gpasm-1.5.2 #1319 (Aug 29 2019) build/default   30.08.2019  05:22:10        PAGE 53


SYMBOL TABLE
  LABEL                              TYPE        VALUE         VALUE          VALUE
                                                 (hex)         (dec)          (text)

RBIE                              CONSTANT      00000003              3
RBIF                              CONSTANT      00000000              0
RC0                               CONSTANT      00000000              0
RC1                               CONSTANT      00000001              1
RC2                               CONSTANT      00000002              2
RC3                               CONSTANT      00000003              3
RC4                               CONSTANT      00000004              4
RC5                               CONSTANT      00000005              5
RC6                               CONSTANT      00000006              6
RC7                               CONSTANT      00000007              7
RC8_9                             CONSTANT      00000006              6
RC9                               CONSTANT      00000006              6
RCD8                              CONSTANT      00000000              0
RCEN                              CONSTANT      00000003              3
RCIE                              CONSTANT      00000005              5
RCIF                              CONSTANT      00000005              5
RCREG                             CONSTANT      0000001A             26
RCSTA                             CONSTANT      00000018             24
RD                                CONSTANT      00000000              0
READ_WRITE                        CONSTANT      00000002              2
RP0                               CONSTANT      00000005              5
RP1                               CONSTANT      00000006              6
RSEN                              CONSTANT      00000001              1
RX9                               CONSTANT      00000006              6
RX9D                              CONSTANT      00000000              0
R_NOT_W                           CONSTANT      00000002              2
R_W                               CONSTANT      00000002              2
S                                 CONSTANT      00000003              3
SEN                               CONSTANT      00000000              0
SMP                               CONSTANT      00000007              7
SPBRG                             CONSTANT      00000099            153
SPEN                              CONSTANT      00000007              7
SREN                              CONSTANT      00000005              5
SSAVE                             EXTERNAL      00000000              0
SSPADD                            CONSTANT      00000093            147
SSPBUF                            CONSTANT      00000013             19
SSPCON                            CONSTANT      00000014             20
SSPCON2                           CONSTANT      00000091            145
SSPEN                             CONSTANT      00000005              5
SSPIE                             CONSTANT      00000003              3
SSPIF                             CONSTANT      00000003              3
SSPM0                             CONSTANT      00000000              0
SSPM1                             CONSTANT      00000001              1
SSPM2                             CONSTANT      00000002              2
SSPM3                             CONSTANT      00000003              3
SSPOV                             CONSTANT      00000006              6
SSPSTAT                           CONSTANT      00000094            148
STATUS                            CONSTANT      00000003              3
STK00                             EXTERNAL      00000000              0
STK01                             EXTERNAL      00000000              0
STK02                             EXTERNAL      00000000              0
STK03                             EXTERNAL      00000000              0
gpasm-1.5.2 #1319 (Aug 29 2019) build/default   30.08.2019  05:22:10        PAGE 54


SYMBOL TABLE
  LABEL                              TYPE        VALUE         VALUE          VALUE
                                                 (hex)         (dec)          (text)

STK04                             EXTERNAL      00000000              0
STK05                             EXTERNAL      00000000              0
STK06                             EXTERNAL      00000000              0
STK07                             EXTERNAL      00000000              0
STK08                             EXTERNAL      00000000              0
STK09                             EXTERNAL      00000000              0
STK10                             EXTERNAL      00000000              0
STK11                             EXTERNAL      00000000              0
STK12                             EXTERNAL      00000000              0
SYNC                              CONSTANT      00000004              4
T0CS                              CONSTANT      00000005              5
T0IE                              CONSTANT      00000005              5
T0IF                              CONSTANT      00000002              2
T0SE                              CONSTANT      00000004              4
T1CKPS0                           CONSTANT      00000004              4
T1CKPS1                           CONSTANT      00000005              5
T1CON                             CONSTANT      00000010             16
T1INSYNC                          CONSTANT      00000002              2
T1OSCEN                           CONSTANT      00000003              3
T1SYNC                            CONSTANT      00000002              2
T2CKPS0                           CONSTANT      00000000              0
T2CKPS1                           CONSTANT      00000001              1
T2CON                             CONSTANT      00000012             18
TMR0                              CONSTANT      00000001              1
TMR0IE                            CONSTANT      00000005              5
TMR0IF                            CONSTANT      00000002              2
TMR1                              CONSTANT      0000000E             14
TMR1CS                            CONSTANT      00000001              1
TMR1H                             CONSTANT      0000000F             15
TMR1IE                            CONSTANT      00000000              0
TMR1IF                            CONSTANT      00000000              0
TMR1L                             CONSTANT      0000000E             14
TMR1ON                            CONSTANT      00000000              0
TMR2                              CONSTANT      00000011             17
TMR2IE                            CONSTANT      00000001              1
TMR2IF                            CONSTANT      00000001              1
TMR2ON                            CONSTANT      00000002              2
TOUTPS0                           CONSTANT      00000003              3
TOUTPS1                           CONSTANT      00000004              4
TOUTPS2                           CONSTANT      00000005              5
TOUTPS3                           CONSTANT      00000006              6
TRISA                             CONSTANT      00000085            133
TRISA0                            CONSTANT      00000000              0
TRISA1                            CONSTANT      00000001              1
TRISA2                            CONSTANT      00000002              2
TRISA3                            CONSTANT      00000003              3
TRISA4                            CONSTANT      00000004              4
TRISA5                            CONSTANT      00000005              5
TRISB                             CONSTANT      00000086            134
TRISB0                            CONSTANT      00000000              0
TRISB1                            CONSTANT      00000001              1
TRISB2                            CONSTANT      00000002              2
gpasm-1.5.2 #1319 (Aug 29 2019) build/default   30.08.2019  05:22:10        PAGE 55


SYMBOL TABLE
  LABEL                              TYPE        VALUE         VALUE          VALUE
                                                 (hex)         (dec)          (text)

TRISB3                            CONSTANT      00000003              3
TRISB4                            CONSTANT      00000004              4
TRISB5                            CONSTANT      00000005              5
TRISB6                            CONSTANT      00000006              6
TRISB7                            CONSTANT      00000007              7
TRISC                             CONSTANT      00000087            135
TRISC0                            CONSTANT      00000000              0
TRISC1                            CONSTANT      00000001              1
TRISC2                            CONSTANT      00000002              2
TRISC3                            CONSTANT      00000003              3
TRISC4                            CONSTANT      00000004              4
TRISC5                            CONSTANT      00000005              5
TRISC6                            CONSTANT      00000006              6
TRISC7                            CONSTANT      00000007              7
TRMT                              CONSTANT      00000001              1
TX8_9                             CONSTANT      00000006              6
TX9                               CONSTANT      00000006              6
TX9D                              CONSTANT      00000000              0
TXD8                              CONSTANT      00000000              0
TXEN                              CONSTANT      00000005              5
TXIE                              CONSTANT      00000004              4
TXIF                              CONSTANT      00000004              4
TXREG                             CONSTANT      00000019             25
TXSTA                             CONSTANT      00000098            152
UA                                CONSTANT      00000001              1
W                                 CONSTANT      00000000              0
WCOL                              CONSTANT      00000007              7
WR                                CONSTANT      00000001              1
WREN                              CONSTANT      00000002              2
WRERR                             CONSTANT      00000003              3
WSAVE                             EXTERNAL      00000000              0
Z                                 CONSTANT      00000002              2
_00001_DS_                        ADDRESS       00000016             22
_00106_DS_                        ADDRESS       00000008              8
_00107_DS_                        ADDRESS       0000001D             29
_00118_DS_                        ADDRESS       00000000              0
_00123_DS_                        ADDRESS       00000003              3
_00136_DS_                        ADDRESS       0000001F             31
_00141_DS_                        ADDRESS       00000007              7
_00144_DS_                        ADDRESS       00000025             37
_00149_DS_                        ADDRESS       0000000B             11
_00152_DS_                        ADDRESS       00000032             50
_00157_DS_                        ADDRESS       00000007              7
_00160_DS_                        ADDRESS       00000025             37
_00166_DS_                        ADDRESS       00000015             21
_00167_DS_                        ADDRESS       00000022             34
_00169_DS_                        ADDRESS       00000036             54
_00171_DS_                        ADDRESS       00000043             67
_ADCON0                           EXTERNAL      00000000              0
_ADCON0bits                       EXTERNAL      00000000              0
_ADCON1                           EXTERNAL      00000000              0
_ADCON1bits                       EXTERNAL      00000000              0
gpasm-1.5.2 #1319 (Aug 29 2019) build/default   30.08.2019  05:22:10        PAGE 56


SYMBOL TABLE
  LABEL                              TYPE        VALUE         VALUE          VALUE
                                                 (hex)         (dec)          (text)

_ADRESH                           EXTERNAL      00000000              0
_ADRESL                           EXTERNAL      00000000              0
_BODEN_OFF                        CONSTANT      00003FBF          16319
_BODEN_ON                         CONSTANT      00003FFF          16383
_BOREN_OFF                        CONSTANT      00003FBF          16319
_BOREN_ON                         CONSTANT      00003FFF          16383
_CCP1CON                          EXTERNAL      00000000              0
_CCP1CONbits                      EXTERNAL      00000000              0
_CCP2CON                          EXTERNAL      00000000              0
_CCP2CONbits                      EXTERNAL      00000000              0
_CCPR1                            EXTERNAL      00000000              0
_CCPR1H                           EXTERNAL      00000000              0
_CCPR1L                           EXTERNAL      00000000              0
_CCPR2                            EXTERNAL      00000000              0
_CCPR2H                           EXTERNAL      00000000              0
_CCPR2L                           EXTERNAL      00000000              0
_CMCON                            EXTERNAL      00000000              0
_CMCONbits                        EXTERNAL      00000000              0
_CONFIG                           CONSTANT      00002007           8199
_CPD_OFF                          CONSTANT      00003FFF          16383
_CPD_ON                           CONSTANT      00003EFF          16127
_CP_ALL                           CONSTANT      00001FFF           8191
_CP_OFF                           CONSTANT      00003FFF          16383
_CP_ON                            CONSTANT      00001FFF           8191
_CVRCON                           EXTERNAL      00000000              0
_CVRCONbits                       EXTERNAL      00000000              0
_DEBUG_OFF                        CONSTANT      00003FFF          16383
_DEBUG_ON                         CONSTANT      000037FF          14335
_DEVID1                           CONSTANT      00002006           8198
_EEADR                            EXTERNAL      00000000              0
_EEADRH                           EXTERNAL      00000000              0
_EECON1                           EXTERNAL      00000000              0
_EECON1bits                       EXTERNAL      00000000              0
_EECON2                           EXTERNAL      00000000              0
_EEDATA                           EXTERNAL      00000000              0
_EEDATH                           EXTERNAL      00000000              0
_FOSC_EXTRC                       CONSTANT      00003FFF          16383
_FOSC_HS                          CONSTANT      00003FFE          16382
_FOSC_LP                          CONSTANT      00003FFC          16380
_FOSC_XT                          CONSTANT      00003FFD          16381
_FSR                              EXTERNAL      00000000              0
_HS_OSC                           CONSTANT      00003FFE          16382
_IDLOC0                           CONSTANT      00002000           8192
_IDLOC1                           CONSTANT      00002001           8193
_IDLOC2                           CONSTANT      00002002           8194
_IDLOC3                           CONSTANT      00002003           8195
_INDF                             EXTERNAL      00000000              0
_INTCON                           EXTERNAL      00000000              0
_INTCONbits                       EXTERNAL      00000000              0
_LP_OSC                           CONSTANT      00003FFC          16380
_LVP_OFF                          CONSTANT      00003F7F          16255
_LVP_ON                           CONSTANT      00003FFF          16383
gpasm-1.5.2 #1319 (Aug 29 2019) build/default   30.08.2019  05:22:10        PAGE 57


SYMBOL TABLE
  LABEL                              TYPE        VALUE         VALUE          VALUE
                                                 (hex)         (dec)          (text)

_OPTION_REG                       EXTERNAL      00000000              0
_OPTION_REGbits                   EXTERNAL      00000000              0
_PCL                              EXTERNAL      00000000              0
_PCLATH                           EXTERNAL      00000000              0
_PCON                             EXTERNAL      00000000              0
_PCONbits                         EXTERNAL      00000000              0
_PIE1                             EXTERNAL      00000000              0
_PIE1bits                         EXTERNAL      00000000              0
_PIE2                             EXTERNAL      00000000              0
_PIE2bits                         EXTERNAL      00000000              0
_PIR1                             EXTERNAL      00000000              0
_PIR1bits                         EXTERNAL      00000000              0
_PIR2                             EXTERNAL      00000000              0
_PIR2bits                         EXTERNAL      00000000              0
_PORTA                            EXTERNAL      00000000              0
_PORTAbits                        EXTERNAL      00000000              0
_PORTB                            EXTERNAL      00000000              0
_PORTBbits                        EXTERNAL      00000000              0
_PORTC                            EXTERNAL      00000000              0
_PORTCbits                        EXTERNAL      00000000              0
_PR2                              EXTERNAL      00000000              0
_PWRTE_OFF                        CONSTANT      00003FFF          16383
_PWRTE_ON                         CONSTANT      00003FF7          16375
_RCREG                            EXTERNAL      00000000              0
_RCSTA                            EXTERNAL      00000000              0
_RCSTAbits                        EXTERNAL      00000000              0
_RC_OSC                           CONSTANT      00003FFF          16383
_SPBRG                            EXTERNAL      00000000              0
_SSPADD                           EXTERNAL      00000000              0
_SSPBUF                           EXTERNAL      00000000              0
_SSPCON                           EXTERNAL      00000000              0
_SSPCON2                          EXTERNAL      00000000              0
_SSPCON2bits                      EXTERNAL      00000000              0
_SSPCONbits                       EXTERNAL      00000000              0
_SSPSTAT                          EXTERNAL      00000000              0
_SSPSTATbits                      EXTERNAL      00000000              0
_STATUS                           EXTERNAL      00000000              0
_STATUSbits                       EXTERNAL      00000000              0
_S_ser__ser_getch_0003            ADDRESS       00000003              3
_S_ser__ser_put_0021              ADDRESS       00000021             33
_S_ser__ser_put_002F              ADDRESS       0000002F             47
_S_ser__ser_puthex_0012           ADDRESS       00000012             18
_S_ser__ser_puthex_0020           ADDRESS       00000020             32
_S_ser__ser_puthex_0033           ADDRESS       00000033             51
_S_ser__ser_puthex_0041           ADDRESS       00000041             65
_S_ser__ser_puts2_0011            ADDRESS       00000011             17
_S_ser__ser_puts2_0022            ADDRESS       00000022             34
_S_ser__ser_puts_0011             ADDRESS       00000011             17
_S_ser__ser_puts_0022             ADDRESS       00000022             34
_T1CON                            EXTERNAL      00000000              0
_T1CONbits                        EXTERNAL      00000000              0
_T2CON                            EXTERNAL      00000000              0
gpasm-1.5.2 #1319 (Aug 29 2019) build/default   30.08.2019  05:22:10        PAGE 58


SYMBOL TABLE
  LABEL                              TYPE        VALUE         VALUE          VALUE
                                                 (hex)         (dec)          (text)

_T2CONbits                        EXTERNAL      00000000              0
_TMR0                             EXTERNAL      00000000              0
_TMR1                             EXTERNAL      00000000              0
_TMR1H                            EXTERNAL      00000000              0
_TMR1L                            EXTERNAL      00000000              0
_TMR2                             EXTERNAL      00000000              0
_TRISA                            EXTERNAL      00000000              0
_TRISAbits                        EXTERNAL      00000000              0
_TRISB                            EXTERNAL      00000000              0
_TRISBbits                        EXTERNAL      00000000              0
_TRISC                            EXTERNAL      00000000              0
_TRISCbits                        EXTERNAL      00000000              0
_TXREG                            EXTERNAL      00000000              0
_TXSTA                            EXTERNAL      00000000              0
_TXSTAbits                        EXTERNAL      00000000              0
_WDTE_OFF                         CONSTANT      00003FFB          16379
_WDTE_ON                          CONSTANT      00003FFF          16383
_WDT_OFF                          CONSTANT      00003FFB          16379
_WDT_ON                           CONSTANT      00003FFF          16383
_WRT_1FOURTH                      CONSTANT      00003BFF          15359
_WRT_256                          CONSTANT      00003DFF          15871
_WRT_HALF                         CONSTANT      000039FF          14847
_WRT_OFF                          CONSTANT      00003FFF          16383
_XT_OSC                           CONSTANT      00003FFD          16381
__14_BIT                          CONSTANT      00000001              1
__16F876A                         CONSTANT      00000001              1
__ACTIVE_BANK_ADDR                VARIABLE      FFFFFFFF             -1
__ACTIVE_PAGE_ADDR                VARIABLE      FFFFFFFF             -1
__ASSUMED_BANK_ADDR               VARIABLE      FFFFFFFF             -1
__BANK_0                          CONSTANT      00000000              0
__BANK_1                          CONSTANT      00000080            128
__BANK_2                          CONSTANT      00000100            256
__BANK_3                          CONSTANT      00000180            384
__BANK_BITS                       CONSTANT      00000180            384
__BANK_FIRST                      CONSTANT      00000000              0
__BANK_INV                        CONSTANT      FFFFFFFF             -1
__BANK_LAST                       CONSTANT      00000180            384
__BANK_MASK                       CONSTANT      0000007F            127
__BANK_SHIFT                      CONSTANT      00000007              7
__BANK_SIZE                       CONSTANT      00000080            128
__CODE_END                        CONSTANT      00001FFF           8191
__CODE_START                      CONSTANT      00000000              0
__COMMON_RAM_END                  CONSTANT      0000007F            127
__COMMON_RAM_START                CONSTANT      00000070            112
__CONFIG_END                      CONSTANT      00002007           8199
__CONFIG_START                    CONSTANT      00002007           8199
__EEPROM_END                      CONSTANT      000021FF           8703
__EEPROM_START                    CONSTANT      00002100           8448
__GPUTILS_SVN_VERSION             CONSTANT      00000527           1319
__GPUTILS_VERSION_MAJOR           CONSTANT      00000001              1
__GPUTILS_VERSION_MICRO           CONSTANT      00000002              2
__GPUTILS_VERSION_MINOR           CONSTANT      00000005              5
gpasm-1.5.2 #1319 (Aug 29 2019) build/default   30.08.2019  05:22:10        PAGE 59


SYMBOL TABLE
  LABEL                              TYPE        VALUE         VALUE          VALUE
                                                 (hex)         (dec)          (text)

__IDLOCS_END                      CONSTANT      00002003           8195
__IDLOCS_START                    CONSTANT      00002000           8192
__NUM_BANKS                       CONSTANT      00000004              4
__NUM_PAGES                       CONSTANT      00000004              4
__PAGE_0                          CONSTANT      00000000              0
__PAGE_1                          CONSTANT      00000800           2048
__PAGE_2                          CONSTANT      00001000           4096
__PAGE_3                          CONSTANT      00001800           6144
__PAGE_BITS                       CONSTANT      00001800           6144
__PAGE_FIRST                      CONSTANT      00000000              0
__PAGE_INV                        CONSTANT      FFFFFFFF             -1
__PAGE_LAST                       CONSTANT      00001800           6144
__PAGE_MASK                       CONSTANT      000007FF           2047
__PAGE_SHIFT                      CONSTANT      0000000B             11
__PAGE_SIZE                       CONSTANT      00000800           2048
__VECTOR_INT                      CONSTANT      00000004              4
__VECTOR_RESET                    CONSTANT      00000000              0
__WHILE_LOOP_COUNT_MAX            CONSTANT      000000FF            255
___fs2schar                       EXTERNAL      00000000              0
___fs2sint                        EXTERNAL      00000000              0
___fs2slong                       EXTERNAL      00000000              0
___fs2uchar                       EXTERNAL      00000000              0
___fs2uint                        EXTERNAL      00000000              0
___fs2ulong                       EXTERNAL      00000000              0
___fsadd                          EXTERNAL      00000000              0
___fsdiv                          EXTERNAL      00000000              0
___fseq                           EXTERNAL      00000000              0
___fsgt                           EXTERNAL      00000000              0
___fslt                           EXTERNAL      00000000              0
___fsmul                          EXTERNAL      00000000              0
___fssub                          EXTERNAL      00000000              0
___schar2fs                       EXTERNAL      00000000              0
___sint2fs                        EXTERNAL      00000000              0
___slong2fs                       EXTERNAL      00000000              0
___uchar2fs                       EXTERNAL      00000000              0
___uint2fs                        EXTERNAL      00000000              0
___ulong2fs                       EXTERNAL      00000000              0
__gptrget1                        EXTERNAL      00000000              0
_rxfifo                           GLOBAL        00000000              0
_rxiptr                           GLOBAL        00000000              0
_rxoptr                           GLOBAL        00000000              0
_ser_brg                          GLOBAL        00000000              0
_ser_getch                        GLOBAL        00000000              0
_ser_init                         GLOBAL        00000000              0
_ser_isrx                         GLOBAL        00000000              0
_ser_put                          GLOBAL        00000000              0
_ser_putch                        GLOBAL        00000000              0
_ser_puthex                       GLOBAL        00000000              0
_ser_puts                         GLOBAL        00000000              0
_ser_puts2                        GLOBAL        00000000              0
_ser_tmp                          GLOBAL        00000000              0
_txfifo                           GLOBAL        00000000              0
gpasm-1.5.2 #1319 (Aug 29 2019) build/default   30.08.2019  05:22:10        PAGE 60


SYMBOL TABLE
  LABEL                              TYPE        VALUE         VALUE          VALUE
                                                 (hex)         (dec)          (text)

_txiptr                           GLOBAL        00000000              0
_txoptr                           GLOBAL        00000000              0
_uart_brg                         EXTERNAL      00000000              0
_uart_disable                     EXTERNAL      00000000              0
_uart_enable                      EXTERNAL      00000000              0
_uart_getch                       EXTERNAL      00000000              0
_uart_init                        EXTERNAL      00000000              0
_uart_isr                         EXTERNAL      00000000              0
_uart_poll                        EXTERNAL      00000000              0
_uart_putch                       EXTERNAL      00000000              0
_uart_puts                        EXTERNAL      00000000              0
_uart_puts2                       EXTERNAL      00000000              0
r0x102A                           STATIC        00000018             24
r0x102B                           STATIC        00000019             25
r0x102C                           STATIC        0000001A             26
r0x102E                           STATIC        00000016             22
r0x102F                           STATIC        00000015             21
r0x103A                           STATIC        0000000A             10
r0x103B                           STATIC        00000009              9
r0x103C                           STATIC        0000000C             12
r0x103D                           STATIC        00000000              0
r0x103F                           STATIC        00000001              1
r0x1025                           STATIC        00000004              4
r0x1026                           STATIC        00000005              5
r0x1027                           STATIC        00000006              6
r0x1028                           STATIC        00000007              7
r0x1029                           STATIC        00000008              8
r0x1030                           STATIC        00000014             20
r0x1031                           STATIC        00000017             23
r0x1032                           STATIC        0000000F             15
r0x1033                           STATIC        0000000E             14
r0x1034                           STATIC        0000000D             13
r0x1035                           STATIC        00000011             17
r0x1036                           STATIC        00000010             16
r0x1037                           STATIC        00000012             18
r0x1038                           STATIC        00000013             19
r0x1039                           STATIC        0000000B             11
r0x1040                           STATIC        00000002              2
r0x1041                           STATIC        00000003              3

Errors   :     0
Warnings :     0 reported,     0 suppressed
Messages :     0 reported,     0 suppressed

