gpasm-1.5.2 #0 (Sep 16 2019) build/default/pr   9-16-2019  10:40:43         PAGE  1


LOC    OBJECT CODE    LINE  SOURCE TEXT
  VALUE

                      00001 ;--------------------------------------------------------
                      00002 ; File Created by SDCC : free open source ANSI-C Compiler
                      00003 ; Version 3.9.3 #11377 (MINGW64)
                      00004 ;--------------------------------------------------------
                      00005 ; PIC port for the 14-bit core
                      00006 ;--------------------------------------------------------
                      00007 ;       .file   "../../../lib/uart.c"
                      00008         list    p=16f876a
                      00009         radix dec
                      00010         include "p16f876a.inc"
                      00001         LIST
                      00002 
                      00003 ;==========================================================================
                      00004 ; Build date : Oct 21 2015
                      00005 ;  MPASM PIC16F876A processor include
                      00006 ; 
                      00007 ;  (c) Copyright 1999-2015 Microchip Technology, All rights reserved
                      00008 ;==========================================================================
                      00009 
                      00525         LIST
                      00011 ;--------------------------------------------------------
                      00012 ; external declarations
                      00013 ;--------------------------------------------------------
  0000                00014         extern  ___uchar2fs
  0000                00015         extern  ___schar2fs
  0000                00016         extern  ___uint2fs
  0000                00017         extern  ___sint2fs
  0000                00018         extern  ___ulong2fs
  0000                00019         extern  ___slong2fs
  0000                00020         extern  ___fs2uchar
  0000                00021         extern  ___fs2schar
  0000                00022         extern  ___fs2uint
  0000                00023         extern  ___fs2sint
  0000                00024         extern  ___fs2ulong
  0000                00025         extern  ___fs2slong
  0000                00026         extern  ___fsadd
  0000                00027         extern  ___fssub
  0000                00028         extern  ___fsmul
  0000                00029         extern  ___fsdiv
  0000                00030         extern  ___fslt
  0000                00031         extern  ___fseq
  0000                00032         extern  ___fsgt
  0000                00033         extern  _cycle_eater
  0000                00034         extern  _delay_ms
  0000                00035         extern  _delay_us
  0000                00036         extern  _Delay100TCYx
  0000                00037         extern  _Delay10KTCYx
  0000                00038         extern  _Delay10TCYx
  0000                00039         extern  _Delay1KTCYx
  0000                00040         extern  __divslong
  0000                00041         extern  _STATUSbits
  0000                00042         extern  _PORTAbits
  0000                00043         extern  _PORTBbits
gpasm-1.5.2 #0 (Sep 16 2019) build/default/pr   9-16-2019  10:40:43         PAGE  2


LOC    OBJECT CODE    LINE  SOURCE TEXT
  VALUE

  0000                00044         extern  _PORTCbits
  0000                00045         extern  _INTCONbits
  0000                00046         extern  _PIR1bits
  0000                00047         extern  _PIR2bits
  0000                00048         extern  _T1CONbits
  0000                00049         extern  _T2CONbits
  0000                00050         extern  _SSPCONbits
  0000                00051         extern  _CCP1CONbits
  0000                00052         extern  _RCSTAbits
  0000                00053         extern  _CCP2CONbits
  0000                00054         extern  _ADCON0bits
  0000                00055         extern  _OPTION_REGbits
  0000                00056         extern  _TRISAbits
  0000                00057         extern  _TRISBbits
  0000                00058         extern  _TRISCbits
  0000                00059         extern  _PIE1bits
  0000                00060         extern  _PIE2bits
  0000                00061         extern  _PCONbits
  0000                00062         extern  _SSPCON2bits
  0000                00063         extern  _SSPSTATbits
  0000                00064         extern  _TXSTAbits
  0000                00065         extern  _CMCONbits
  0000                00066         extern  _CVRCONbits
  0000                00067         extern  _ADCON1bits
  0000                00068         extern  _EECON1bits
  0000                00069         extern  _dvar
  0000                00070         extern  _INDF
  0000                00071         extern  _TMR0
  0000                00072         extern  _PCL
  0000                00073         extern  _STATUS
  0000                00074         extern  _FSR
  0000                00075         extern  _PORTA
  0000                00076         extern  _PORTB
  0000                00077         extern  _PORTC
  0000                00078         extern  _PCLATH
  0000                00079         extern  _INTCON
  0000                00080         extern  _PIR1
  0000                00081         extern  _PIR2
  0000                00082         extern  _TMR1
  0000                00083         extern  _TMR1L
  0000                00084         extern  _TMR1H
  0000                00085         extern  _T1CON
  0000                00086         extern  _TMR2
  0000                00087         extern  _T2CON
  0000                00088         extern  _SSPBUF
  0000                00089         extern  _SSPCON
  0000                00090         extern  _CCPR1
  0000                00091         extern  _CCPR1L
  0000                00092         extern  _CCPR1H
  0000                00093         extern  _CCP1CON
  0000                00094         extern  _RCSTA
  0000                00095         extern  _TXREG
  0000                00096         extern  _RCREG
gpasm-1.5.2 #0 (Sep 16 2019) build/default/pr   9-16-2019  10:40:43         PAGE  3


LOC    OBJECT CODE    LINE  SOURCE TEXT
  VALUE

  0000                00097         extern  _CCPR2
  0000                00098         extern  _CCPR2L
  0000                00099         extern  _CCPR2H
  0000                00100         extern  _CCP2CON
  0000                00101         extern  _ADRESH
  0000                00102         extern  _ADCON0
  0000                00103         extern  _OPTION_REG
  0000                00104         extern  _TRISA
  0000                00105         extern  _TRISB
  0000                00106         extern  _TRISC
  0000                00107         extern  _PIE1
  0000                00108         extern  _PIE2
  0000                00109         extern  _PCON
  0000                00110         extern  _SSPCON2
  0000                00111         extern  _PR2
  0000                00112         extern  _SSPADD
  0000                00113         extern  _SSPSTAT
  0000                00114         extern  _TXSTA
  0000                00115         extern  _SPBRG
  0000                00116         extern  _CMCON
  0000                00117         extern  _CVRCON
  0000                00118         extern  _ADRESL
  0000                00119         extern  _ADCON1
  0000                00120         extern  _EEDATA
  0000                00121         extern  _EEADR
  0000                00122         extern  _EEDATH
  0000                00123         extern  _EEADRH
  0000                00124         extern  _EECON1
  0000                00125         extern  _EECON2
  0000                00126         extern  __gptrget1
                      00127 
  0000                00128         extern PSAVE
  0000                00129         extern SSAVE
  0000                00130         extern WSAVE
  0000                00131         extern STK12
  0000                00132         extern STK11
  0000                00133         extern STK10
  0000                00134         extern STK09
  0000                00135         extern STK08
  0000                00136         extern STK07
  0000                00137         extern STK06
  0000                00138         extern STK05
  0000                00139         extern STK04
  0000                00140         extern STK03
  0000                00141         extern STK02
  0000                00142         extern STK01
  0000                00143         extern STK00
                      00144 ;--------------------------------------------------------
                      00145 ; global declarations
                      00146 ;--------------------------------------------------------
  0000                00147         global  _uart_puts2
  0000                00148         global  _uart_puts
  0000                00149         global  _uart_init
gpasm-1.5.2 #0 (Sep 16 2019) build/default/pr   9-16-2019  10:40:43         PAGE  4


LOC    OBJECT CODE    LINE  SOURCE TEXT
  VALUE

  0000                00150         global  _uart_disable
  0000                00151         global  _uart_enable
  0000                00152         global  _uart_isr
  0000                00153         global  _uart_poll
  0000                00154         global  _uart_getch
  0000                00155         global  _uart_putch
  0000                00156         global  _uart_brg
                      00157 
                      00158 ;--------------------------------------------------------
                      00159 ; global definitions
                      00160 ;--------------------------------------------------------
                      00161 ;--------------------------------------------------------
                      00162 ; absolute symbol definitions
                      00163 ;--------------------------------------------------------
                      00164 ;--------------------------------------------------------
                      00165 ; compiler-defined variables
                      00166 ;--------------------------------------------------------
                      00167 UDL_uart_0      udata
0000                  00168 r0x1000 res     1
0001                  00169 r0x1001 res     1
0002                  00170 r0x1010 res     1
0003                  00171 r0x100B res     1
0004                  00172 r0x100C res     1
0005                  00173 r0x100D res     1
0006                  00174 r0x100E res     1
0007                  00175 r0x100F res     1
0008                  00176 r0x100A res     1
0009                  00177 r0x1008 res     1
000A                  00178 r0x1007 res     1
000B                  00179 r0x1006 res     1
000C                  00180 r0x1009 res     1
000D                  00181 r0x1004 res     1
000E                  00182 r0x1003 res     1
000F                  00183 r0x1002 res     1
0010                  00184 r0x1005 res     1
                      00185 ;--------------------------------------------------------
                      00186 ; initialized data
                      00187 ;--------------------------------------------------------
                      00188 
                      00189 ID_uart_0       code
0000                  00190 _uart_brg
0000   3441           00191         retlw 0x41
                      00192 
                      00193 ;--------------------------------------------------------
                      00194 ; overlayable items in internal ram 
                      00195 ;--------------------------------------------------------
                      00196 ;       udata_ovr
                      00197 ;--------------------------------------------------------
                      00198 ; code
                      00199 ;--------------------------------------------------------
                      00200 code_uart       code
                      00201 ;***
                      00202 ;  pBlock Stats: dbName = C
gpasm-1.5.2 #0 (Sep 16 2019) build/default/pr   9-16-2019  10:40:43         PAGE  5


LOC    OBJECT CODE    LINE  SOURCE TEXT
  VALUE

                      00203 ;***
                      00204 ;has an exit
                      00205 ;functions called:
                      00206 ;   __gptrget1
                      00207 ;   _uart_putch
                      00208 ;   __gptrget1
                      00209 ;   _uart_putch
                      00210 ;6 compiler assigned registers:
                      00211 ;   r0x1002
                      00212 ;   STK00
                      00213 ;   r0x1003
                      00214 ;   STK01
                      00215 ;   r0x1004
                      00216 ;   r0x1005
                      00217 ;; Starting pCode block
                      00218 ;<>Start of new flow, seq=0x1 ancestor = 0x1
                      00219 ;  from: ; to: 002 
                      00220 ;;; /home/sdcc-builder/build/sdcc-build/orig/sdcc/src/pic14/gen.c:2308:resultRemat *{*
                      00221 ;;; /home/sdcc-builder/build/sdcc-build/orig/sdcc/src/pic14/gen.c:2752:genLabel *{*
                      00222 ;; ***  genLabel  2755
                      00223 ;;; /home/sdcc-builder/build/sdcc-build/orig/sdcc/src/pic14/gen.c:2308:resultRemat *{*
                      00224 ;;; /home/sdcc-builder/build/sdcc-build/orig/sdcc/src/pic14/gen.c:2332:genFunction *{*
                      00225 ;; ***  genFunction  2334 curr label offset=45previous max_key=4 
                      00226 ;;      -----------------------------------------
                      00227 ;;       function uart_puts2
                      00228 ;;      -----------------------------------------
                      00229 ;_uart_puts2:
                      00230 S_uart__uart_puts2      code
0000                  00231 _uart_puts2:
                      00232 ; 2 exit points
                      00233 ;;; /home/sdcc-builder/build/sdcc-build/orig/sdcc/src/pic14/gen.c:2308:resultRemat *{*
                      00234 ;;; /home/sdcc-builder/build/sdcc-build/orig/sdcc/src/pic14/gen.c:7467:genReceive *{*
                      00235 ;; ***  genReceive  7468
                      00236 ;;      695 register type nRegs=3
                      00237 ;;; /home/sdcc-builder/build/sdcc-build/orig/sdcc/src/pic14/gen.c:1892:assignResultValue *{*
                      00238 ;; ***  assignResultValue  1894
                      00239 ;;      line = 1896 result -=-, size=0, left AOP_REG=r0x1056, size=3, right -=-, size=0
                      00240 ;; >>> /home/sdcc-builder/build/sdcc-build/orig/sdcc/src/pic14/gen.c:1378:movwf
                      00241 ;;      1097 rIdx = r0x1058 
                      00242 ;       .line   120; "../../../lib/uart.c"      uart_puts2(uint8_t* s) {
0000   0??? 0???      00243         BANKSEL r0x1002 ;id=1368,key=000,inCond:0,outCond:0,flow seq=001
0002   00??           00244         MOVWF   r0x1002 ;id=1216,key=001,inCond:10,outCond:1,flow seq=001,rIdx=r0x1058
                      00245 ;; >>> /home/sdcc-builder/build/sdcc-build/orig/sdcc/src/pic14/gen.c:1408:get_returnvalue
                      00246 ;; ***  popRegFromIdx,1030  , rIdx=0x7f
                      00247 ;; BANKOPT1 BANKSEL dropped; STK00 present in all of r0x1002's banks
0003   08??           00248         MOVF    STK00,W ;id=1219,key=002,inCond:1,outCond:14,flow seq=001
                      00249 ;; >>> /home/sdcc-builder/build/sdcc-build/orig/sdcc/src/pic14/gen.c:1378:movwf
                      00250 ;;      1097 rIdx = r0x1057 
                      00251 ;; BANKOPT2 BANKSEL dropped; r0x1003 present in same bank as r0x1002
0004   00??           00252         MOVWF   r0x1003 ;id=1222,key=003,inCond:10,outCond:1,flow seq=001,rIdx=r0x1057
                      00253 ;; >>> /home/sdcc-builder/build/sdcc-build/orig/sdcc/src/pic14/gen.c:1408:get_returnvalue
                      00254 ;; ***  popRegFromIdx,1030  , rIdx=0x7e
                      00255 ;; BANKOPT1 BANKSEL dropped; STK01 present in all of r0x1002's banks
gpasm-1.5.2 #0 (Sep 16 2019) build/default/pr   9-16-2019  10:40:43         PAGE  6


LOC    OBJECT CODE    LINE  SOURCE TEXT
  VALUE

0005   08??           00256         MOVF    STK01,W ;id=1225,key=004,inCond:1,outCond:14,flow seq=001
                      00257 ;; >>> /home/sdcc-builder/build/sdcc-build/orig/sdcc/src/pic14/gen.c:1378:movwf
                      00258 ;;      1097 rIdx = r0x1056 
                      00259 ;; BANKOPT2 BANKSEL dropped; r0x1004 present in same bank as r0x1002
0006   00??           00260         MOVWF   r0x1004 ;id=1228,key=005,inCond:10,outCond:1,flow seq=001,rIdx=r0x1056
                      00261 ;<>Start of new flow, seq=0x2 ancestor = 0x1
                      00262 ;  from: 00a 001 ; to: 003 
                      00263 ;;; /home/sdcc-builder/build/sdcc-build/orig/sdcc/src/pic14/gen.c:2308:resultRemat *{*
                      00264 ;;; /home/sdcc-builder/build/sdcc-build/orig/sdcc/src/pic14/gen.c:2752:genLabel *{*
                      00265 ;; ***  genLabel  2755
                      00266 ;_00154_DS_:
                      00267 ;;; /home/sdcc-builder/build/sdcc-build/orig/sdcc/src/pic14/gen.c:2308:resultRemat *{*
                      00268 ;;; /home/sdcc-builder/build/sdcc-build/orig/sdcc/src/pic14/gen.c:6260:genPointerGet *{*
                      00269 ;; ***  genPointerGet  6261
                      00270 ;;; /home/sdcc-builder/build/sdcc-build/orig/sdcc/src/pic14/gen.c:6149:genGenPointerGet *{*
                      00271 ;; ***  genGenPointerGet  6150
                      00272 ;;      695 register type nRegs=3
                      00273 ;;      695 register type nRegs=1
                      00274 ;;      line = 6155 result AOP_REG=r0x1059, size=1, left AOP_REG=r0x1056, size=3, right -=-, size=0
                      00275 ;; ***  mov2w  1366  offset=0
                      00276 ;; >>> /home/sdcc-builder/build/sdcc-build/orig/sdcc/src/pic14/gen.c:1371:mov2w
                      00277 ;;      1097 rIdx = r0x1056 
                      00278 ;; BANKOPT3 drop assumptions: PCI with label or call found
0007                  00279 _00154_DS_:
                      00280 ;       .line   121; "../../../lib/uart.c"      while(*s) uart_putch(*s++);
0007   0??? 0???      00281         BANKSEL r0x1004 ;id=1374,key=000,inCond:0,outCond:0,flow seq=002
0009   08??           00282         MOVF    r0x1004,W       ;id=1246,key=001,inCond:1,outCond:14,flow seq=002,rIdx=r0x1056
                      00283 ;; >>> /home/sdcc-builder/build/sdcc-build/orig/sdcc/src/pic14/gen.c:6174:genGenPointerGet
                      00284 ;; ***  popRegFromIdx,1030  , rIdx=0x7e
                      00285 ;; BANKOPT1 BANKSEL dropped; STK01 present in all of r0x1004's banks
000A   00??           00286         MOVWF   STK01   ;id=1249,key=002,inCond:10,outCond:1,flow seq=002
                      00287 ;; ***  mov2w  1366  offset=1
                      00288 ;; >>> /home/sdcc-builder/build/sdcc-build/orig/sdcc/src/pic14/gen.c:1371:mov2w
                      00289 ;;      1097 rIdx = r0x1057 
                      00290 ;; BANKOPT2 BANKSEL dropped; r0x1003 present in same bank as r0x1004
000B   08??           00291         MOVF    r0x1003,W       ;id=1253,key=003,inCond:1,outCond:14,flow seq=002,rIdx=r0x1057
                      00292 ;; >>> /home/sdcc-builder/build/sdcc-build/orig/sdcc/src/pic14/gen.c:6176:genGenPointerGet
                      00293 ;; ***  popRegFromIdx,1030  , rIdx=0x7f
                      00294 ;; BANKOPT1 BANKSEL dropped; STK00 present in all of r0x1004's banks
000C   00??           00295         MOVWF   STK00   ;id=1256,key=004,inCond:10,outCond:1,flow seq=002
                      00296 ;; ***  mov2w  1366  offset=2
                      00297 ;; >>> /home/sdcc-builder/build/sdcc-build/orig/sdcc/src/pic14/gen.c:1371:mov2w
                      00298 ;;      1097 rIdx = r0x1058 
                      00299 ;; BANKOPT2 BANKSEL dropped; r0x1002 present in same bank as r0x1004
000D   08??           00300         MOVF    r0x1002,W       ;id=1260,key=005,inCond:1,outCond:14,flow seq=002,rIdx=r0x1058
                      00301 ;; >>> /home/sdcc-builder/build/sdcc-build/orig/sdcc/src/pic14/gen.c:1418:call_libraryfunc
000E   0??? 0???      00302         PAGESEL __gptrget1      ;id=1262,key=006,inCond:0,outCond:0,flow seq=002
                      00303 ;; >>> /home/sdcc-builder/build/sdcc-build/orig/sdcc/src/pic14/gen.c:1420:call_libraryfunc
                      00304 ;; BANKOPT3 drop assumptions: PCI with label or call found
0010   2???           00305         CALL    __gptrget1      ;id=1264,key=007,inCond:10,outCond:1e,flow seq=002
                      00306 ;<>Start of new flow, seq=0x3 ancestor = 0x2
                      00307 ;  from: 002 ; to: 005 004 
                      00308 ;; >>> /home/sdcc-builder/build/sdcc-build/orig/sdcc/src/pic14/gen.c:1422:call_libraryfunc
gpasm-1.5.2 #0 (Sep 16 2019) build/default/pr   9-16-2019  10:40:43         PAGE  7


LOC    OBJECT CODE    LINE  SOURCE TEXT
  VALUE

0011   0??? 0???      00309         PAGESEL $       ;id=1266,key=000,inCond:0,outCond:0,flow seq=003
                      00310 ;; >>> /home/sdcc-builder/build/sdcc-build/orig/sdcc/src/pic14/gen.c:1378:movwf
                      00311 ;;      1097 rIdx = r0x1059 
0013   0??? 0???      00312         BANKSEL r0x1005 ;id=1380,key=001,inCond:0,outCond:0,flow seq=003
0015   00??           00313         MOVWF   r0x1005 ;id=1269,key=002,inCond:10,outCond:1,flow seq=003,rIdx=r0x1059
                      00314 ;;; /home/sdcc-builder/build/sdcc-build/orig/sdcc/src/pic14/gen.c:2308:resultRemat *{*
                      00315 ;;; /home/sdcc-builder/build/sdcc-build/orig/sdcc/src/pic14/gen.c:6868:genIfx *{*
                      00316 ;; ***  genIfx  6869
                      00317 ;;      695 register type nRegs=1
                      00318 ;; ***  pic14_toBoolean  1500
                      00319 ;; >>> /home/sdcc-builder/build/sdcc-build/orig/sdcc/src/pic14/gen.c:1507:pic14_toBoolean
                      00320 ;; BANKOPT2 BANKSEL dropped; r0x1005 present in same bank as r0x1005
0016   08??           00321         MOVF    r0x1005,W       ;id=1354,key=003,inCond:1,outCond:14,flow seq=003,rIdx=r0x1059
0017   1903           00322         BTFSC   STATUS,2        ;id=1281,key=004,inCond:25,outCond:0,flow seq=003
                      00323 ;<>Start of new flow, seq=0x4 ancestor = 0x3
                      00324 ;  from: 003 ; to: 00b 
                      00325 ;; >>> /home/sdcc-builder/build/sdcc-build/orig/sdcc/src/pic14/gen.c:6923:genIfx
                      00326 ;; ***  popGetLabel  key=4, label offset 53
0018   2???           00327         GOTO    _00157_DS_      ;id=1284,key=000,inCond:0,outCond:0,flow seq=004
                      00328 ;<>Start of new flow, seq=0x5 ancestor = 0x3
                      00329 ;  from: 003 ; to: 007 006 
                      00330 ;;; /home/sdcc-builder/build/sdcc-build/orig/sdcc/src/pic14/gen.c:2308:resultRemat *{*
                      00331 ;;; /home/sdcc-builder/build/sdcc-build/orig/sdcc/src/pic14/gen.c:7036:genAssign *{*
                      00332 ;; ***  genAssign  7037
                      00333 ;;      695 register type nRegs=1
                      00334 ;;      695 register type nRegs=1
                      00335 ;;      line = 7046 result AOP_REG=r0x1059, size=1, left -=-, size=0, right AOP_REG=r0x1059, size=1
                      00336 ;;; /home/sdcc-builder/build/sdcc-build/orig/sdcc/src/pic14/gen.c:2308:resultRemat *{*
                      00337 ;; ***  genPlus  607
                      00338 ;;; /home/sdcc-builder/build/sdcc-build/orig/sdcc/src/pic14/genarith.c:608:genPlus *{*
                      00339 ;;      695 register type nRegs=3
                      00340 ;;      576
                      00341 ;;      line = 614 result AOP_REG=r0x1056, size=3, left AOP_REG=r0x1056, size=3, right AOP_LIT=0x01, siz
                            e=1
                      00342 ;;; /home/sdcc-builder/build/sdcc-build/orig/sdcc/src/pic14/genarith.c:138:genPlusIncr *{*
                      00343 ;; ***  genPlusIncr  140
                      00344 ;;      result AOP_REG, left AOP_REG, right AOP_LIT
                      00345 ;;      genPlusIncr  152
                      00346 ;; >>> /home/sdcc-builder/build/sdcc-build/orig/sdcc/src/pic14/genarith.c:164:genPlusIncr
                      00347 ;;      1097 rIdx = r0x1056 
                      00348 ;; BANKOPT2 BANKSEL dropped; r0x1004 present in same bank as r0x1005
0019   0A??           00349         INCF    r0x1004,F       ;id=1303,key=000,inCond:1,outCond:5,flow seq=005,rIdx=r0x1056
                      00350 ;; >>> /home/sdcc-builder/build/sdcc-build/orig/sdcc/src/pic14/genarith.c:168:genPlusIncr
001A   1903           00351         BTFSC   STATUS,2        ;id=1305,key=001,inCond:25,outCond:0,flow seq=005
                      00352 ;<>Start of new flow, seq=0x6 ancestor = 0x5
                      00353 ;  from: 005 ; to: 007 
                      00354 ;; >>> /home/sdcc-builder/build/sdcc-build/orig/sdcc/src/pic14/genarith.c:169:genPlusIncr
                      00355 ;;      1097 rIdx = r0x1057 
                      00356 ;; BANKOPT2 BANKSEL dropped; r0x1003 present in same bank as r0x1005
001B   0A??           00357         INCF    r0x1003,F       ;id=1308,key=000,inCond:1,outCond:5,flow seq=006,rIdx=r0x1057
                      00358 ;<>Start of new flow, seq=0x7 ancestor = 0x5
                      00359 ;  from: 006 005 ; to: 009 008 
                      00360 ;; >>> /home/sdcc-builder/build/sdcc-build/orig/sdcc/src/pic14/genarith.c:168:genPlusIncr
gpasm-1.5.2 #0 (Sep 16 2019) build/default/pr   9-16-2019  10:40:43         PAGE  8


LOC    OBJECT CODE    LINE  SOURCE TEXT
  VALUE

001C   1903           00361         BTFSC   STATUS,2        ;id=1310,key=000,inCond:25,outCond:0,flow seq=007
                      00362 ;<>Start of new flow, seq=0x8 ancestor = 0x7
                      00363 ;  from: 007 ; to: 009 
                      00364 ;; >>> /home/sdcc-builder/build/sdcc-build/orig/sdcc/src/pic14/genarith.c:169:genPlusIncr
                      00365 ;;      1097 rIdx = r0x1058 
                      00366 ;; BANKOPT2 BANKSEL dropped; r0x1002 present in same bank as r0x1005
001D   0A??           00367         INCF    r0x1002,F       ;id=1313,key=000,inCond:1,outCond:5,flow seq=008,rIdx=r0x1058
                      00368 ;<>Start of new flow, seq=0x9 ancestor = 0x7
                      00369 ;  from: 008 007 ; to: 00a 
                      00370 ;;; /home/sdcc-builder/build/sdcc-build/orig/sdcc/src/pic14/gen.c:2308:resultRemat *{*
                      00371 ;;; /home/sdcc-builder/build/sdcc-build/orig/sdcc/src/pic14/gen.c:2308:resultRemat *{*
                      00372 ;;; /home/sdcc-builder/build/sdcc-build/orig/sdcc/src/pic14/gen.c:2071:genCall *{*
                      00373 ;; ***  genCall  2073
                      00374 ;;; /home/sdcc-builder/build/sdcc-build/orig/sdcc/src/pic14/gen.c:1786:saveRegisters *{*
                      00375 ;; ***  saveRegisters  1788
                      00376 ;;      695 register type nRegs=1
                      00377 ;;      695 register type nRegs=1
                      00378 ;;      2120 left AOP_REG
                      00379 ;;; /home/sdcc-builder/build/sdcc-build/orig/sdcc/src/pic14/gen.c:1328:mov2w_op *{*
                      00380 ;; ***  mov2w  1366  offset=0
                      00381 ;; >>> /home/sdcc-builder/build/sdcc-build/orig/sdcc/src/pic14/gen.c:1371:mov2w
                      00382 ;;      1097 rIdx = r0x1059 
                      00383 ;; BANKOPT2 BANKSEL dropped; r0x1005 present in same bank as r0x1005
001E   08??           00384         MOVF    r0x1005,W       ;id=1327,key=000,inCond:1,outCond:14,flow seq=009,rIdx=r0x1059
                      00385 ;; >>> /home/sdcc-builder/build/sdcc-build/orig/sdcc/src/pic14/gen.c:2160:genCall
001F   0??? 0???      00386         PAGESEL _uart_putch     ;id=1329,key=001,inCond:0,outCond:0,flow seq=009
                      00387 ;; >>> /home/sdcc-builder/build/sdcc-build/orig/sdcc/src/pic14/gen.c:2165:genCall
                      00388 ;; BANKOPT3 drop assumptions: PCI with label or call found
0021   2???           00389         CALL    _uart_putch     ;id=1331,key=002,inCond:10,outCond:1e,flow seq=009
                      00390 ;<>Start of new flow, seq=0xa ancestor = 0x9
                      00391 ;  from: 009 ; to: 002 
                      00392 ;; >>> /home/sdcc-builder/build/sdcc-build/orig/sdcc/src/pic14/gen.c:2173:genCall
0022   0??? 0???      00393         PAGESEL $       ;id=1333,key=000,inCond:0,outCond:0,flow seq=00a
                      00394 ;;; /home/sdcc-builder/build/sdcc-build/orig/sdcc/src/pic14/gen.c:1830:unsaveRegisters *{*
                      00395 ;; ***  unsaveRegisters  1832
                      00396 ;;; /home/sdcc-builder/build/sdcc-build/orig/sdcc/src/pic14/gen.c:2308:resultRemat *{*
                      00397 ;;; /home/sdcc-builder/build/sdcc-build/orig/sdcc/src/pic14/gen.c:2770:genGoto *{*
                      00398 ;; >>> /home/sdcc-builder/build/sdcc-build/orig/sdcc/src/pic14/gen.c:2772:genGoto
                      00399 ;; ***  popGetLabel  key=1, label offset 53
0024   2???           00400         GOTO    _00154_DS_      ;id=1340,key=001,inCond:0,outCond:0,flow seq=00a
                      00401 ;<>Start of new flow, seq=0xb ancestor = 0x4
                      00402 ;  from: 004 ; to: 
                      00403 ;goto   _00154_DS_
                      00404 ;;; /home/sdcc-builder/build/sdcc-build/orig/sdcc/src/pic14/gen.c:2308:resultRemat *{*
                      00405 ;;; /home/sdcc-builder/build/sdcc-build/orig/sdcc/src/pic14/gen.c:2752:genLabel *{*
                      00406 ;; ***  genLabel  2755
                      00407 ;_00157_DS_:
                      00408 ;;; /home/sdcc-builder/build/sdcc-build/orig/sdcc/src/pic14/gen.c:2308:resultRemat *{*
                      00409 ;;; /home/sdcc-builder/build/sdcc-build/orig/sdcc/src/pic14/gen.c:2520:genEndFunction *{*
                      00410 ;; ***  genEndFunction  2522
                      00411 ;return
                      00412 ;; BANKOPT3 drop assumptions: PCI with label or call found
0025                  00413 _00157_DS_:
gpasm-1.5.2 #0 (Sep 16 2019) build/default/pr   9-16-2019  10:40:43         PAGE  9


LOC    OBJECT CODE    LINE  SOURCE TEXT
  VALUE

                      00414 ;       .line   122; "../../../lib/uart.c"      }
0025   0008           00415         RETURN          ;id=1352,key=000,inCond:10,outCond:e,flow seq=00b
                      00416 ;<>Start of new flow, seq=0xc
                      00417 ;  from: ; to: 
                      00418 ; exit point of _uart_puts2
                      00419 
                      00420 ;***
                      00421 ;  pBlock Stats: dbName = C
                      00422 ;***
                      00423 ;has an exit
                      00424 ;functions called:
                      00425 ;   __gptrget1
                      00426 ;   _uart_putch
                      00427 ;   __gptrget1
                      00428 ;   _uart_putch
                      00429 ;6 compiler assigned registers:
                      00430 ;   r0x1006
                      00431 ;   STK00
                      00432 ;   r0x1007
                      00433 ;   STK01
                      00434 ;   r0x1008
                      00435 ;   r0x1009
                      00436 ;; Starting pCode block
                      00437 ;<>Start of new flow, seq=0xd ancestor = 0xd
                      00438 ;  from: ; to: 00e 
                      00439 ;;; /home/sdcc-builder/build/sdcc-build/orig/sdcc/src/pic14/gen.c:2308:resultRemat *{*
                      00440 ;;; /home/sdcc-builder/build/sdcc-build/orig/sdcc/src/pic14/gen.c:2752:genLabel *{*
                      00441 ;; ***  genLabel  2755
                      00442 ;;; /home/sdcc-builder/build/sdcc-build/orig/sdcc/src/pic14/gen.c:2308:resultRemat *{*
                      00443 ;;; /home/sdcc-builder/build/sdcc-build/orig/sdcc/src/pic14/gen.c:2332:genFunction *{*
                      00444 ;; ***  genFunction  2334 curr label offset=41previous max_key=0 
                      00445 ;;      -----------------------------------------
                      00446 ;;       function uart_puts
                      00447 ;;      -----------------------------------------
                      00448 ;_uart_puts:
                      00449 S_uart__uart_puts       code
0000                  00450 _uart_puts:
                      00451 ; 2 exit points
                      00452 ;;; /home/sdcc-builder/build/sdcc-build/orig/sdcc/src/pic14/gen.c:2308:resultRemat *{*
                      00453 ;;; /home/sdcc-builder/build/sdcc-build/orig/sdcc/src/pic14/gen.c:7467:genReceive *{*
                      00454 ;; ***  genReceive  7468
                      00455 ;;      695 register type nRegs=3
                      00456 ;;; /home/sdcc-builder/build/sdcc-build/orig/sdcc/src/pic14/gen.c:1892:assignResultValue *{*
                      00457 ;; ***  assignResultValue  1894
                      00458 ;;      line = 1896 result -=-, size=0, left AOP_REG=r0x1052, size=3, right -=-, size=0
                      00459 ;; >>> /home/sdcc-builder/build/sdcc-build/orig/sdcc/src/pic14/gen.c:1378:movwf
                      00460 ;;      1097 rIdx = r0x1054 
                      00461 ;       .line   115; "../../../lib/uart.c"      uart_puts(const char* s) {
0000   0??? 0???      00462         BANKSEL r0x1006 ;id=1388,key=000,inCond:0,outCond:0,flow seq=00d
0002   00??           00463         MOVWF   r0x1006 ;id=1055,key=001,inCond:10,outCond:1,flow seq=00d,rIdx=r0x1054
                      00464 ;; >>> /home/sdcc-builder/build/sdcc-build/orig/sdcc/src/pic14/gen.c:1408:get_returnvalue
                      00465 ;; ***  popRegFromIdx,1030  , rIdx=0x7f
                      00466 ;; BANKOPT1 BANKSEL dropped; STK00 present in all of r0x1006's banks
gpasm-1.5.2 #0 (Sep 16 2019) build/default/pr   9-16-2019  10:40:43         PAGE 10


LOC    OBJECT CODE    LINE  SOURCE TEXT
  VALUE

0003   08??           00467         MOVF    STK00,W ;id=1058,key=002,inCond:1,outCond:14,flow seq=00d
                      00468 ;; >>> /home/sdcc-builder/build/sdcc-build/orig/sdcc/src/pic14/gen.c:1378:movwf
                      00469 ;;      1097 rIdx = r0x1053 
                      00470 ;; BANKOPT2 BANKSEL dropped; r0x1007 present in same bank as r0x1006
0004   00??           00471         MOVWF   r0x1007 ;id=1061,key=003,inCond:10,outCond:1,flow seq=00d,rIdx=r0x1053
                      00472 ;; >>> /home/sdcc-builder/build/sdcc-build/orig/sdcc/src/pic14/gen.c:1408:get_returnvalue
                      00473 ;; ***  popRegFromIdx,1030  , rIdx=0x7e
                      00474 ;; BANKOPT1 BANKSEL dropped; STK01 present in all of r0x1006's banks
0005   08??           00475         MOVF    STK01,W ;id=1064,key=004,inCond:1,outCond:14,flow seq=00d
                      00476 ;; >>> /home/sdcc-builder/build/sdcc-build/orig/sdcc/src/pic14/gen.c:1378:movwf
                      00477 ;;      1097 rIdx = r0x1052 
                      00478 ;; BANKOPT2 BANKSEL dropped; r0x1008 present in same bank as r0x1006
0006   00??           00479         MOVWF   r0x1008 ;id=1067,key=005,inCond:10,outCond:1,flow seq=00d,rIdx=r0x1052
                      00480 ;<>Start of new flow, seq=0xe ancestor = 0xd
                      00481 ;  from: 016 00d ; to: 00f 
                      00482 ;;; /home/sdcc-builder/build/sdcc-build/orig/sdcc/src/pic14/gen.c:2308:resultRemat *{*
                      00483 ;;; /home/sdcc-builder/build/sdcc-build/orig/sdcc/src/pic14/gen.c:2752:genLabel *{*
                      00484 ;; ***  genLabel  2755
                      00485 ;_00146_DS_:
                      00486 ;;; /home/sdcc-builder/build/sdcc-build/orig/sdcc/src/pic14/gen.c:2308:resultRemat *{*
                      00487 ;;; /home/sdcc-builder/build/sdcc-build/orig/sdcc/src/pic14/gen.c:6260:genPointerGet *{*
                      00488 ;; ***  genPointerGet  6261
                      00489 ;;; /home/sdcc-builder/build/sdcc-build/orig/sdcc/src/pic14/gen.c:6149:genGenPointerGet *{*
                      00490 ;; ***  genGenPointerGet  6150
                      00491 ;;      695 register type nRegs=3
                      00492 ;;      695 register type nRegs=1
                      00493 ;;      line = 6155 result AOP_REG=r0x1055, size=1, left AOP_REG=r0x1052, size=3, right -=-, size=0
                      00494 ;; ***  mov2w  1366  offset=0
                      00495 ;; >>> /home/sdcc-builder/build/sdcc-build/orig/sdcc/src/pic14/gen.c:1371:mov2w
                      00496 ;;      1097 rIdx = r0x1052 
                      00497 ;; BANKOPT3 drop assumptions: PCI with label or call found
0007                  00498 _00146_DS_:
                      00499 ;       .line   116; "../../../lib/uart.c"      while(*s) uart_putch(*s++);
0007   0??? 0???      00500         BANKSEL r0x1008 ;id=1394,key=000,inCond:0,outCond:0,flow seq=00e
0009   08??           00501         MOVF    r0x1008,W       ;id=1085,key=001,inCond:1,outCond:14,flow seq=00e,rIdx=r0x1052
                      00502 ;; >>> /home/sdcc-builder/build/sdcc-build/orig/sdcc/src/pic14/gen.c:6174:genGenPointerGet
                      00503 ;; ***  popRegFromIdx,1030  , rIdx=0x7e
                      00504 ;; BANKOPT1 BANKSEL dropped; STK01 present in all of r0x1008's banks
000A   00??           00505         MOVWF   STK01   ;id=1088,key=002,inCond:10,outCond:1,flow seq=00e
                      00506 ;; ***  mov2w  1366  offset=1
                      00507 ;; >>> /home/sdcc-builder/build/sdcc-build/orig/sdcc/src/pic14/gen.c:1371:mov2w
                      00508 ;;      1097 rIdx = r0x1053 
                      00509 ;; BANKOPT2 BANKSEL dropped; r0x1007 present in same bank as r0x1008
000B   08??           00510         MOVF    r0x1007,W       ;id=1092,key=003,inCond:1,outCond:14,flow seq=00e,rIdx=r0x1053
                      00511 ;; >>> /home/sdcc-builder/build/sdcc-build/orig/sdcc/src/pic14/gen.c:6176:genGenPointerGet
                      00512 ;; ***  popRegFromIdx,1030  , rIdx=0x7f
                      00513 ;; BANKOPT1 BANKSEL dropped; STK00 present in all of r0x1008's banks
000C   00??           00514         MOVWF   STK00   ;id=1095,key=004,inCond:10,outCond:1,flow seq=00e
                      00515 ;; ***  mov2w  1366  offset=2
                      00516 ;; >>> /home/sdcc-builder/build/sdcc-build/orig/sdcc/src/pic14/gen.c:1371:mov2w
                      00517 ;;      1097 rIdx = r0x1054 
                      00518 ;; BANKOPT2 BANKSEL dropped; r0x1006 present in same bank as r0x1008
000D   08??           00519         MOVF    r0x1006,W       ;id=1099,key=005,inCond:1,outCond:14,flow seq=00e,rIdx=r0x1054
gpasm-1.5.2 #0 (Sep 16 2019) build/default/pr   9-16-2019  10:40:43         PAGE 11


LOC    OBJECT CODE    LINE  SOURCE TEXT
  VALUE

                      00520 ;; >>> /home/sdcc-builder/build/sdcc-build/orig/sdcc/src/pic14/gen.c:1418:call_libraryfunc
000E   0??? 0???      00521         PAGESEL __gptrget1      ;id=1101,key=006,inCond:0,outCond:0,flow seq=00e
                      00522 ;; >>> /home/sdcc-builder/build/sdcc-build/orig/sdcc/src/pic14/gen.c:1420:call_libraryfunc
                      00523 ;; BANKOPT3 drop assumptions: PCI with label or call found
0010   2???           00524         CALL    __gptrget1      ;id=1103,key=007,inCond:10,outCond:1e,flow seq=00e
                      00525 ;<>Start of new flow, seq=0xf ancestor = 0xe
                      00526 ;  from: 00e ; to: 011 010 
                      00527 ;; >>> /home/sdcc-builder/build/sdcc-build/orig/sdcc/src/pic14/gen.c:1422:call_libraryfunc
0011   0??? 0???      00528         PAGESEL $       ;id=1105,key=000,inCond:0,outCond:0,flow seq=00f
                      00529 ;; >>> /home/sdcc-builder/build/sdcc-build/orig/sdcc/src/pic14/gen.c:1378:movwf
                      00530 ;;      1097 rIdx = r0x1055 
0013   0??? 0???      00531         BANKSEL r0x1009 ;id=1400,key=001,inCond:0,outCond:0,flow seq=00f
0015   00??           00532         MOVWF   r0x1009 ;id=1108,key=002,inCond:10,outCond:1,flow seq=00f,rIdx=r0x1055
                      00533 ;;; /home/sdcc-builder/build/sdcc-build/orig/sdcc/src/pic14/gen.c:2308:resultRemat *{*
                      00534 ;;; /home/sdcc-builder/build/sdcc-build/orig/sdcc/src/pic14/gen.c:6868:genIfx *{*
                      00535 ;; ***  genIfx  6869
                      00536 ;;      695 register type nRegs=1
                      00537 ;; ***  pic14_toBoolean  1500
                      00538 ;; >>> /home/sdcc-builder/build/sdcc-build/orig/sdcc/src/pic14/gen.c:1507:pic14_toBoolean
                      00539 ;; BANKOPT2 BANKSEL dropped; r0x1009 present in same bank as r0x1009
0016   08??           00540         MOVF    r0x1009,W       ;id=1355,key=003,inCond:1,outCond:14,flow seq=00f,rIdx=r0x1055
0017   1903           00541         BTFSC   STATUS,2        ;id=1120,key=004,inCond:25,outCond:0,flow seq=00f
                      00542 ;<>Start of new flow, seq=0x10 ancestor = 0xf
                      00543 ;  from: 00f ; to: 017 
                      00544 ;; >>> /home/sdcc-builder/build/sdcc-build/orig/sdcc/src/pic14/gen.c:6923:genIfx
                      00545 ;; ***  popGetLabel  key=4, label offset 45
0018   2???           00546         GOTO    _00149_DS_      ;id=1123,key=000,inCond:0,outCond:0,flow seq=010
                      00547 ;<>Start of new flow, seq=0x11 ancestor = 0xf
                      00548 ;  from: 00f ; to: 013 012 
                      00549 ;;; /home/sdcc-builder/build/sdcc-build/orig/sdcc/src/pic14/gen.c:2308:resultRemat *{*
                      00550 ;;; /home/sdcc-builder/build/sdcc-build/orig/sdcc/src/pic14/gen.c:7036:genAssign *{*
                      00551 ;; ***  genAssign  7037
                      00552 ;;      695 register type nRegs=1
                      00553 ;;      695 register type nRegs=1
                      00554 ;;      line = 7046 result AOP_REG=r0x1055, size=1, left -=-, size=0, right AOP_REG=r0x1055, size=1
                      00555 ;;; /home/sdcc-builder/build/sdcc-build/orig/sdcc/src/pic14/gen.c:2308:resultRemat *{*
                      00556 ;; ***  genPlus  607
                      00557 ;;; /home/sdcc-builder/build/sdcc-build/orig/sdcc/src/pic14/genarith.c:608:genPlus *{*
                      00558 ;;      695 register type nRegs=3
                      00559 ;;      576
                      00560 ;;      line = 614 result AOP_REG=r0x1052, size=3, left AOP_REG=r0x1052, size=3, right AOP_LIT=0x01, siz
                            e=1
                      00561 ;;; /home/sdcc-builder/build/sdcc-build/orig/sdcc/src/pic14/genarith.c:138:genPlusIncr *{*
                      00562 ;; ***  genPlusIncr  140
                      00563 ;;      result AOP_REG, left AOP_REG, right AOP_LIT
                      00564 ;;      genPlusIncr  152
                      00565 ;; >>> /home/sdcc-builder/build/sdcc-build/orig/sdcc/src/pic14/genarith.c:164:genPlusIncr
                      00566 ;;      1097 rIdx = r0x1052 
                      00567 ;; BANKOPT2 BANKSEL dropped; r0x1008 present in same bank as r0x1009
0019   0A??           00568         INCF    r0x1008,F       ;id=1142,key=000,inCond:1,outCond:5,flow seq=011,rIdx=r0x1052
                      00569 ;; >>> /home/sdcc-builder/build/sdcc-build/orig/sdcc/src/pic14/genarith.c:168:genPlusIncr
001A   1903           00570         BTFSC   STATUS,2        ;id=1144,key=001,inCond:25,outCond:0,flow seq=011
                      00571 ;<>Start of new flow, seq=0x12 ancestor = 0x11
gpasm-1.5.2 #0 (Sep 16 2019) build/default/pr   9-16-2019  10:40:43         PAGE 12


LOC    OBJECT CODE    LINE  SOURCE TEXT
  VALUE

                      00572 ;  from: 011 ; to: 013 
                      00573 ;; >>> /home/sdcc-builder/build/sdcc-build/orig/sdcc/src/pic14/genarith.c:169:genPlusIncr
                      00574 ;;      1097 rIdx = r0x1053 
                      00575 ;; BANKOPT2 BANKSEL dropped; r0x1007 present in same bank as r0x1009
001B   0A??           00576         INCF    r0x1007,F       ;id=1147,key=000,inCond:1,outCond:5,flow seq=012,rIdx=r0x1053
                      00577 ;<>Start of new flow, seq=0x13 ancestor = 0x11
                      00578 ;  from: 012 011 ; to: 015 014 
                      00579 ;; >>> /home/sdcc-builder/build/sdcc-build/orig/sdcc/src/pic14/genarith.c:168:genPlusIncr
001C   1903           00580         BTFSC   STATUS,2        ;id=1149,key=000,inCond:25,outCond:0,flow seq=013
                      00581 ;<>Start of new flow, seq=0x14 ancestor = 0x13
                      00582 ;  from: 013 ; to: 015 
                      00583 ;; >>> /home/sdcc-builder/build/sdcc-build/orig/sdcc/src/pic14/genarith.c:169:genPlusIncr
                      00584 ;;      1097 rIdx = r0x1054 
                      00585 ;; BANKOPT2 BANKSEL dropped; r0x1006 present in same bank as r0x1009
001D   0A??           00586         INCF    r0x1006,F       ;id=1152,key=000,inCond:1,outCond:5,flow seq=014,rIdx=r0x1054
                      00587 ;<>Start of new flow, seq=0x15 ancestor = 0x13
                      00588 ;  from: 014 013 ; to: 016 
                      00589 ;;; /home/sdcc-builder/build/sdcc-build/orig/sdcc/src/pic14/gen.c:2308:resultRemat *{*
                      00590 ;;; /home/sdcc-builder/build/sdcc-build/orig/sdcc/src/pic14/gen.c:2308:resultRemat *{*
                      00591 ;;; /home/sdcc-builder/build/sdcc-build/orig/sdcc/src/pic14/gen.c:2071:genCall *{*
                      00592 ;; ***  genCall  2073
                      00593 ;;; /home/sdcc-builder/build/sdcc-build/orig/sdcc/src/pic14/gen.c:1786:saveRegisters *{*
                      00594 ;; ***  saveRegisters  1788
                      00595 ;;      695 register type nRegs=1
                      00596 ;;      695 register type nRegs=1
                      00597 ;;      2120 left AOP_REG
                      00598 ;;; /home/sdcc-builder/build/sdcc-build/orig/sdcc/src/pic14/gen.c:1328:mov2w_op *{*
                      00599 ;; ***  mov2w  1366  offset=0
                      00600 ;; >>> /home/sdcc-builder/build/sdcc-build/orig/sdcc/src/pic14/gen.c:1371:mov2w
                      00601 ;;      1097 rIdx = r0x1055 
                      00602 ;; BANKOPT2 BANKSEL dropped; r0x1009 present in same bank as r0x1009
001E   08??           00603         MOVF    r0x1009,W       ;id=1166,key=000,inCond:1,outCond:14,flow seq=015,rIdx=r0x1055
                      00604 ;; >>> /home/sdcc-builder/build/sdcc-build/orig/sdcc/src/pic14/gen.c:2160:genCall
001F   0??? 0???      00605         PAGESEL _uart_putch     ;id=1168,key=001,inCond:0,outCond:0,flow seq=015
                      00606 ;; >>> /home/sdcc-builder/build/sdcc-build/orig/sdcc/src/pic14/gen.c:2165:genCall
                      00607 ;; BANKOPT3 drop assumptions: PCI with label or call found
0021   2???           00608         CALL    _uart_putch     ;id=1170,key=002,inCond:10,outCond:1e,flow seq=015
                      00609 ;<>Start of new flow, seq=0x16 ancestor = 0x15
                      00610 ;  from: 015 ; to: 00e 
                      00611 ;; >>> /home/sdcc-builder/build/sdcc-build/orig/sdcc/src/pic14/gen.c:2173:genCall
0022   0??? 0???      00612         PAGESEL $       ;id=1172,key=000,inCond:0,outCond:0,flow seq=016
                      00613 ;;; /home/sdcc-builder/build/sdcc-build/orig/sdcc/src/pic14/gen.c:1830:unsaveRegisters *{*
                      00614 ;; ***  unsaveRegisters  1832
                      00615 ;;; /home/sdcc-builder/build/sdcc-build/orig/sdcc/src/pic14/gen.c:2308:resultRemat *{*
                      00616 ;;; /home/sdcc-builder/build/sdcc-build/orig/sdcc/src/pic14/gen.c:2770:genGoto *{*
                      00617 ;; >>> /home/sdcc-builder/build/sdcc-build/orig/sdcc/src/pic14/gen.c:2772:genGoto
                      00618 ;; ***  popGetLabel  key=1, label offset 45
0024   2???           00619         GOTO    _00146_DS_      ;id=1179,key=001,inCond:0,outCond:0,flow seq=016
                      00620 ;<>Start of new flow, seq=0x17 ancestor = 0x10
                      00621 ;  from: 010 ; to: 
                      00622 ;goto   _00146_DS_
                      00623 ;;; /home/sdcc-builder/build/sdcc-build/orig/sdcc/src/pic14/gen.c:2308:resultRemat *{*
                      00624 ;;; /home/sdcc-builder/build/sdcc-build/orig/sdcc/src/pic14/gen.c:2752:genLabel *{*
gpasm-1.5.2 #0 (Sep 16 2019) build/default/pr   9-16-2019  10:40:43         PAGE 13


LOC    OBJECT CODE    LINE  SOURCE TEXT
  VALUE

                      00625 ;; ***  genLabel  2755
                      00626 ;_00149_DS_:
                      00627 ;;; /home/sdcc-builder/build/sdcc-build/orig/sdcc/src/pic14/gen.c:2308:resultRemat *{*
                      00628 ;;; /home/sdcc-builder/build/sdcc-build/orig/sdcc/src/pic14/gen.c:2520:genEndFunction *{*
                      00629 ;; ***  genEndFunction  2522
                      00630 ;return
                      00631 ;; BANKOPT3 drop assumptions: PCI with label or call found
0025                  00632 _00149_DS_:
                      00633 ;       .line   117; "../../../lib/uart.c"      }
0025   0008           00634         RETURN          ;id=1191,key=000,inCond:10,outCond:e,flow seq=017
                      00635 ;<>Start of new flow, seq=0x18
                      00636 ;  from: ; to: 
                      00637 ; exit point of _uart_puts
                      00638 ;;; /home/sdcc-builder/build/sdcc-build/orig/sdcc/src/pic14/gen.c:7535:genpic14Code *{*
                      00639 
                      00640 ;***
                      00641 ;  pBlock Stats: dbName = C
                      00642 ;***
                      00643 ;has an exit
                      00644 ;functions called:
                      00645 ;   _uart_enable
                      00646 ;   _uart_enable
                      00647 ;; Starting pCode block
                      00648 ;<>Start of new flow, seq=0x19 ancestor = 0x19
                      00649 ;  from: ; to: 01a 
                      00650 ;;; /home/sdcc-builder/build/sdcc-build/orig/sdcc/src/pic14/gen.c:2308:resultRemat *{*
                      00651 ;;; /home/sdcc-builder/build/sdcc-build/orig/sdcc/src/pic14/gen.c:2752:genLabel *{*
                      00652 ;; ***  genLabel  2755
                      00653 ;;; /home/sdcc-builder/build/sdcc-build/orig/sdcc/src/pic14/gen.c:2308:resultRemat *{*
                      00654 ;;; /home/sdcc-builder/build/sdcc-build/orig/sdcc/src/pic14/gen.c:2332:genFunction *{*
                      00655 ;; ***  genFunction  2334 curr label offset=37previous max_key=0 
                      00656 ;;      -----------------------------------------
                      00657 ;;       function uart_init
                      00658 ;;      -----------------------------------------
                      00659 ;_uart_init:
                      00660 S_uart__uart_init       code
0000                  00661 _uart_init:
                      00662 ; 2 exit points
                      00663 ;;; /home/sdcc-builder/build/sdcc-build/orig/sdcc/src/pic14/gen.c:2308:resultRemat *{*
                      00664 ;;; /home/sdcc-builder/build/sdcc-build/orig/sdcc/src/pic14/gen.c:4239:genOr *{*
                      00665 ;; ***  genOr  4240
                      00666 ;; ***  aopForSym 316
                      00667 ;;      328 sym->rname = _TRISC, size = 1
                      00668 ;;      line = 4246 result AOP_DIR=_TRISC, size=1, left AOP_DIR=_TRISC, size=1, right AOP_LIT=0x80, size
                            =1
                      00669 ;;      line = 4272 result AOP_DIR=_TRISC, size=1, left AOP_DIR=_TRISC, size=1, right AOP_LIT=0x80, size
                            =1
                      00670 ;; >>> /home/sdcc-builder/build/sdcc-build/orig/sdcc/src/pic14/gen.c:4423:genOr
                      00671 ;       .line   97; "../../../lib/uart.c"       RX_TRIS();
0000   0??? 0???      00672         BANKSEL _TRISC  ;id=1408,key=000,inCond:0,outCond:0,flow seq=019
0002   17??           00673         BSF     _TRISC,7        ;id=939,key=001,inCond:21,outCond:21,flow seq=019
                      00674 ;;; /home/sdcc-builder/build/sdcc-build/orig/sdcc/src/pic14/gen.c:2308:resultRemat *{*
                      00675 ;;; /home/sdcc-builder/build/sdcc-build/orig/sdcc/src/pic14/gen.c:3938:genAnd *{*
gpasm-1.5.2 #0 (Sep 16 2019) build/default/pr   9-16-2019  10:40:43         PAGE 14


LOC    OBJECT CODE    LINE  SOURCE TEXT
  VALUE

                      00676 ;; ***  genAnd  3939
                      00677 ;; ***  aopForSym 316
                      00678 ;;      328 sym->rname = _TRISC, size = 1
                      00679 ;;      576
                      00680 ;;      line = 3974 result AOP_DIR=_TRISC, size=1, left AOP_DIR=_TRISC, size=1, right AOP_LIT=0xbf, size
                            =1
                      00681 ;; >>> /home/sdcc-builder/build/sdcc-build/orig/sdcc/src/pic14/gen.c:4141:genAnd
                      00682 ;; BANKOPT2 BANKSEL dropped; _TRISC present in same bank as _TRISC
                      00683 ;       .line   98; "../../../lib/uart.c"       TX_TRIS();
0003   13??           00684         BCF     _TRISC,6        ;id=949,key=002,inCond:21,outCond:21,flow seq=019
                      00685 ;;; /home/sdcc-builder/build/sdcc-build/orig/sdcc/src/pic14/gen.c:2308:resultRemat *{*
                      00686 ;;; /home/sdcc-builder/build/sdcc-build/orig/sdcc/src/pic14/gen.c:3938:genAnd *{*
                      00687 ;; ***  genAnd  3939
                      00688 ;; ***  aopForSym 316
                      00689 ;;      328 sym->rname = _PORTC, size = 1
                      00690 ;;      line = 3974 result AOP_DIR=_PORTC, size=1, left AOP_DIR=_PORTC, size=1, right AOP_LIT=0x40, size
                            =1
                      00691 ;; >>> /home/sdcc-builder/build/sdcc-build/orig/sdcc/src/pic14/gen.c:4147:genAnd
                      00692 ;       .line   99; "../../../lib/uart.c"       TX_SET(0);
0004   3040           00693         MOVLW   0x40    ;id=958,key=003,inCond:400,outCond:10,flow seq=019
                      00694 ;; >>> /home/sdcc-builder/build/sdcc-build/orig/sdcc/src/pic14/gen.c:4149:genAnd
                      00695 ;;      998
                      00696 ;;      1016  _PORTC   offset=0
0005   0??? 0???      00697         BANKSEL _PORTC  ;id=1410,key=004,inCond:0,outCond:0,flow seq=019
0007   05??           00698         ANDWF   _PORTC,F        ;id=962,key=005,inCond:11,outCond:5,flow seq=019
                      00699 ;;; /home/sdcc-builder/build/sdcc-build/orig/sdcc/src/pic14/gen.c:2308:resultRemat *{*
                      00700 ;;; /home/sdcc-builder/build/sdcc-build/orig/sdcc/src/pic14/gen.c:7036:genAssign *{*
                      00701 ;; ***  genAssign  7037
                      00702 ;; ***  aopForSym 316
                      00703 ;;      328 sym->rname = _SPBRG, size = 1
                      00704 ;;      line = 7046 result AOP_DIR=_SPBRG, size=1, left -=-, size=0, right AOP_LIT=0x41, size=1
                      00705 ;; ***  genAssign  7132
                      00706 ;; >>> /home/sdcc-builder/build/sdcc-build/orig/sdcc/src/pic14/gen.c:7139:genAssign
                      00707 ;       .line   100; "../../../lib/uart.c"      SPBRG = UART_BRG; // UART_BRG;
0008   3041           00708         MOVLW   0x41    ;id=972,key=006,inCond:400,outCond:10,flow seq=019
                      00709 ;; >>> /home/sdcc-builder/build/sdcc-build/orig/sdcc/src/pic14/gen.c:7141:genAssign
                      00710 ;;      998
                      00711 ;;      1016  _SPBRG   offset=0
0009   0??? 0???      00712         BANKSEL _SPBRG  ;id=1411,key=007,inCond:0,outCond:0,flow seq=019
000B   00??           00713         MOVWF   _SPBRG  ;id=976,key=008,inCond:10,outCond:1,flow seq=019
                      00714 ;;; /home/sdcc-builder/build/sdcc-build/orig/sdcc/src/pic14/gen.c:2308:resultRemat *{*
                      00715 ;;; /home/sdcc-builder/build/sdcc-build/orig/sdcc/src/pic14/gen.c:4239:genOr *{*
                      00716 ;; ***  genOr  4240
                      00717 ;; ***  aopForSym 316
                      00718 ;;      328 sym->rname = _RCSTA, size = 1
                      00719 ;;      576
                      00720 ;;      line = 4246 result AOP_DIR=_RCSTA, size=1, left AOP_DIR=_RCSTA, size=1, right AOP_LIT=0x90, size
                            =1
                      00721 ;;      line = 4272 result AOP_DIR=_RCSTA, size=1, left AOP_DIR=_RCSTA, size=1, right AOP_LIT=0x90, size
                            =1
                      00722 ;; >>> /home/sdcc-builder/build/sdcc-build/orig/sdcc/src/pic14/gen.c:4428:genOr
                      00723 ;       .line   103; "../../../lib/uart.c"      | /*RX9D =*/(NINE == 1 ? 0b1 : 0);
000C   3090           00724         MOVLW   0x90    ;id=987,key=009,inCond:400,outCond:10,flow seq=019
gpasm-1.5.2 #0 (Sep 16 2019) build/default/pr   9-16-2019  10:40:43         PAGE 15


LOC    OBJECT CODE    LINE  SOURCE TEXT
  VALUE

                      00725 ;; >>> /home/sdcc-builder/build/sdcc-build/orig/sdcc/src/pic14/gen.c:4430:genOr
                      00726 ;;      998
                      00727 ;;      1016  _RCSTA   offset=0
000D   0??? 0???      00728         BANKSEL _RCSTA  ;id=1412,key=00a,inCond:0,outCond:0,flow seq=019
000F   04??           00729         IORWF   _RCSTA,F        ;id=991,key=00b,inCond:11,outCond:5,flow seq=019
                      00730 ;;; /home/sdcc-builder/build/sdcc-build/orig/sdcc/src/pic14/gen.c:2308:resultRemat *{*
                      00731 ;;; /home/sdcc-builder/build/sdcc-build/orig/sdcc/src/pic14/gen.c:4239:genOr *{*
                      00732 ;; ***  genOr  4240
                      00733 ;; ***  aopForSym 316
                      00734 ;;      328 sym->rname = _TXSTA, size = 1
                      00735 ;;      line = 4246 result AOP_DIR=_TXSTA, size=1, left AOP_DIR=_TXSTA, size=1, right AOP_LIT=0x04, size
                            =1
                      00736 ;;      line = 4272 result AOP_DIR=_TXSTA, size=1, left AOP_DIR=_TXSTA, size=1, right AOP_LIT=0x04, size
                            =1
                      00737 ;; >>> /home/sdcc-builder/build/sdcc-build/orig/sdcc/src/pic14/gen.c:4423:genOr
                      00738 ;       .line   108; "../../../lib/uart.c"      : 0b000;
0010   0??? 0???      00739         BANKSEL _TXSTA  ;id=1413,key=00c,inCond:0,outCond:0,flow seq=019
0012   15??           00740         BSF     _TXSTA,2        ;id=1001,key=00d,inCond:21,outCond:21,flow seq=019
                      00741 ;;; /home/sdcc-builder/build/sdcc-build/orig/sdcc/src/pic14/gen.c:2308:resultRemat *{*
                      00742 ;;; /home/sdcc-builder/build/sdcc-build/orig/sdcc/src/pic14/gen.c:7036:genAssign *{*
                      00743 ;; ***  genAssign  7037
                      00744 ;;; /home/sdcc-builder/build/sdcc-build/orig/sdcc/src/pic14/gen.c:2308:resultRemat *{*
                      00745 ;;; /home/sdcc-builder/build/sdcc-build/orig/sdcc/src/pic14/gen.c:2071:genCall *{*
                      00746 ;; ***  genCall  2073
                      00747 ;;; /home/sdcc-builder/build/sdcc-build/orig/sdcc/src/pic14/gen.c:1786:saveRegisters *{*
                      00748 ;; ***  saveRegisters  1788
                      00749 ;; >>> /home/sdcc-builder/build/sdcc-build/orig/sdcc/src/pic14/gen.c:2160:genCall
                      00750 ;       .line   111; "../../../lib/uart.c"      uart_enable();
0013   0??? 0???      00751         PAGESEL _uart_enable    ;id=1013,key=00e,inCond:0,outCond:0,flow seq=019
                      00752 ;; >>> /home/sdcc-builder/build/sdcc-build/orig/sdcc/src/pic14/gen.c:2165:genCall
                      00753 ;; BANKOPT3 drop assumptions: PCI with label or call found
0015   2???           00754         CALL    _uart_enable    ;id=1015,key=00f,inCond:10,outCond:1e,flow seq=019
                      00755 ;<>Start of new flow, seq=0x1a ancestor = 0x19
                      00756 ;  from: 019 ; to: 
                      00757 ;; >>> /home/sdcc-builder/build/sdcc-build/orig/sdcc/src/pic14/gen.c:2173:genCall
0016   0??? 0???      00758         PAGESEL $       ;id=1017,key=000,inCond:0,outCond:0,flow seq=01a
                      00759 ;;; /home/sdcc-builder/build/sdcc-build/orig/sdcc/src/pic14/gen.c:1830:unsaveRegisters *{*
                      00760 ;; ***  unsaveRegisters  1832
                      00761 ;;; /home/sdcc-builder/build/sdcc-build/orig/sdcc/src/pic14/gen.c:2308:resultRemat *{*
                      00762 ;;; /home/sdcc-builder/build/sdcc-build/orig/sdcc/src/pic14/gen.c:2752:genLabel *{*
                      00763 ;; ***  genLabel  2755
                      00764 ;_00145_DS_:
                      00765 ;;; /home/sdcc-builder/build/sdcc-build/orig/sdcc/src/pic14/gen.c:2308:resultRemat *{*
                      00766 ;;; /home/sdcc-builder/build/sdcc-build/orig/sdcc/src/pic14/gen.c:2520:genEndFunction *{*
                      00767 ;; ***  genEndFunction  2522
                      00768 ;return
                      00769 ;       .line   112; "../../../lib/uart.c"      }
0018   0008           00770         RETURN          ;id=1030,key=001,inCond:10,outCond:e,flow seq=01a
                      00771 ;<>Start of new flow, seq=0x1b
                      00772 ;  from: ; to: 
                      00773 ; exit point of _uart_init
                      00774 ;;; /home/sdcc-builder/build/sdcc-build/orig/sdcc/src/pic14/gen.c:7535:genpic14Code *{*
                      00775 
gpasm-1.5.2 #0 (Sep 16 2019) build/default/pr   9-16-2019  10:40:43         PAGE 16


LOC    OBJECT CODE    LINE  SOURCE TEXT
  VALUE

                      00776 ;***
                      00777 ;  pBlock Stats: dbName = C
                      00778 ;***
                      00779 ;has an exit
                      00780 ;; Starting pCode block
                      00781 ;<>Start of new flow, seq=0x1c ancestor = 0x1c
                      00782 ;  from: ; to: 
                      00783 ;;; /home/sdcc-builder/build/sdcc-build/orig/sdcc/src/pic14/gen.c:2308:resultRemat *{*
                      00784 ;;; /home/sdcc-builder/build/sdcc-build/orig/sdcc/src/pic14/gen.c:2752:genLabel *{*
                      00785 ;; ***  genLabel  2755
                      00786 ;;; /home/sdcc-builder/build/sdcc-build/orig/sdcc/src/pic14/gen.c:2308:resultRemat *{*
                      00787 ;;; /home/sdcc-builder/build/sdcc-build/orig/sdcc/src/pic14/gen.c:2332:genFunction *{*
                      00788 ;; ***  genFunction  2334 curr label offset=33previous max_key=0 
                      00789 ;;      -----------------------------------------
                      00790 ;;       function uart_disable
                      00791 ;;      -----------------------------------------
                      00792 ;_uart_disable:
                      00793 S_uart__uart_disable    code
0000                  00794 _uart_disable:
                      00795 ; 2 exit points
                      00796 ;;; /home/sdcc-builder/build/sdcc-build/orig/sdcc/src/pic14/gen.c:2308:resultRemat *{*
                      00797 ;;; /home/sdcc-builder/build/sdcc-build/orig/sdcc/src/pic14/gen.c:3938:genAnd *{*
                      00798 ;; ***  genAnd  3939
                      00799 ;; ***  aopForSym 316
                      00800 ;;      328 sym->rname = _TXSTA, size = 1
                      00801 ;;      576
                      00802 ;;      line = 3974 result AOP_DIR=_TXSTA, size=1, left AOP_DIR=_TXSTA, size=1, right AOP_LIT=0xdf, size
                            =1
                      00803 ;; >>> /home/sdcc-builder/build/sdcc-build/orig/sdcc/src/pic14/gen.c:4141:genAnd
                      00804 ;       .line   85; "../../../lib/uart.c"       TXSTA &= ~0b00100000; //  TXEN = 0;
0000   0??? 0???      00805         BANKSEL _TXSTA  ;id=1415,key=000,inCond:0,outCond:0,flow seq=01c
0002   12??           00806         BCF     _TXSTA,5        ;id=850,key=001,inCond:21,outCond:21,flow seq=01c
                      00807 ;;; /home/sdcc-builder/build/sdcc-build/orig/sdcc/src/pic14/gen.c:2308:resultRemat *{*
                      00808 ;;; /home/sdcc-builder/build/sdcc-build/orig/sdcc/src/pic14/gen.c:3938:genAnd *{*
                      00809 ;; ***  genAnd  3939
                      00810 ;; ***  aopForSym 316
                      00811 ;;      328 sym->rname = _RCSTA, size = 1
                      00812 ;;      576
                      00813 ;;      line = 3974 result AOP_DIR=_RCSTA, size=1, left AOP_DIR=_RCSTA, size=1, right AOP_LIT=0x7f, size
                            =1
                      00814 ;; >>> /home/sdcc-builder/build/sdcc-build/orig/sdcc/src/pic14/gen.c:4141:genAnd
                      00815 ;       .line   86; "../../../lib/uart.c"       RCSTA &= ~0b10000000; // SPEN = 0;
0003   0??? 0???      00816         BANKSEL _RCSTA  ;id=1416,key=002,inCond:0,outCond:0,flow seq=01c
0005   13??           00817         BCF     _RCSTA,7        ;id=860,key=003,inCond:21,outCond:21,flow seq=01c
                      00818 ;;; /home/sdcc-builder/build/sdcc-build/orig/sdcc/src/pic14/gen.c:2308:resultRemat *{*
                      00819 ;;; /home/sdcc-builder/build/sdcc-build/orig/sdcc/src/pic14/gen.c:3938:genAnd *{*
                      00820 ;; ***  genAnd  3939
                      00821 ;; ***  aopForSym 316
                      00822 ;;      328 sym->rname = _PIE1, size = 1
                      00823 ;;      576
                      00824 ;;      line = 3974 result AOP_DIR=_PIE1, size=1, left AOP_DIR=_PIE1, size=1, right AOP_LIT=0xdf, size=1
                      00825 ;; >>> /home/sdcc-builder/build/sdcc-build/orig/sdcc/src/pic14/gen.c:4141:genAnd
                      00826 ;       .line   87; "../../../lib/uart.c"       PIE1 &= ~0b100000; //RCIE = 0;
gpasm-1.5.2 #0 (Sep 16 2019) build/default/pr   9-16-2019  10:40:43         PAGE 17


LOC    OBJECT CODE    LINE  SOURCE TEXT
  VALUE

0006   0??? 0???      00827         BANKSEL _PIE1   ;id=1417,key=004,inCond:0,outCond:0,flow seq=01c
0008   12??           00828         BCF     _PIE1,5 ;id=870,key=005,inCond:21,outCond:21,flow seq=01c
                      00829 ;;; /home/sdcc-builder/build/sdcc-build/orig/sdcc/src/pic14/gen.c:2308:resultRemat *{*
                      00830 ;;; /home/sdcc-builder/build/sdcc-build/orig/sdcc/src/pic14/gen.c:4239:genOr *{*
                      00831 ;; ***  genOr  4240
                      00832 ;; ***  aopForSym 316
                      00833 ;;      328 sym->rname = _TRISC, size = 1
                      00834 ;;      line = 4246 result AOP_DIR=_TRISC, size=1, left AOP_DIR=_TRISC, size=1, right AOP_LIT=0x80, size
                            =1
                      00835 ;;      line = 4272 result AOP_DIR=_TRISC, size=1, left AOP_DIR=_TRISC, size=1, right AOP_LIT=0x80, size
                            =1
                      00836 ;; >>> /home/sdcc-builder/build/sdcc-build/orig/sdcc/src/pic14/gen.c:4423:genOr
                      00837 ;; BANKOPT2 BANKSEL dropped; _TRISC present in same bank as _PIE1
                      00838 ;       .line   88; "../../../lib/uart.c"       RX_TRIS();
0009   17??           00839         BSF     _TRISC,7        ;id=880,key=006,inCond:21,outCond:21,flow seq=01c
                      00840 ;;; /home/sdcc-builder/build/sdcc-build/orig/sdcc/src/pic14/gen.c:2308:resultRemat *{*
                      00841 ;;; /home/sdcc-builder/build/sdcc-build/orig/sdcc/src/pic14/gen.c:3938:genAnd *{*
                      00842 ;; ***  genAnd  3939
                      00843 ;; ***  aopForSym 316
                      00844 ;;      328 sym->rname = _TRISC, size = 1
                      00845 ;;      576
                      00846 ;;      line = 3974 result AOP_DIR=_TRISC, size=1, left AOP_DIR=_TRISC, size=1, right AOP_LIT=0xbf, size
                            =1
                      00847 ;; >>> /home/sdcc-builder/build/sdcc-build/orig/sdcc/src/pic14/gen.c:4141:genAnd
                      00848 ;; BANKOPT2 BANKSEL dropped; _TRISC present in same bank as _PIE1
                      00849 ;       .line   89; "../../../lib/uart.c"       TX_TRIS();
000A   13??           00850         BCF     _TRISC,6        ;id=890,key=007,inCond:21,outCond:21,flow seq=01c
                      00851 ;;; /home/sdcc-builder/build/sdcc-build/orig/sdcc/src/pic14/gen.c:2308:resultRemat *{*
                      00852 ;;; /home/sdcc-builder/build/sdcc-build/orig/sdcc/src/pic14/gen.c:3938:genAnd *{*
                      00853 ;; ***  genAnd  3939
                      00854 ;; ***  aopForSym 316
                      00855 ;;      328 sym->rname = _PORTC, size = 1
                      00856 ;;      line = 3974 result AOP_DIR=_PORTC, size=1, left AOP_DIR=_PORTC, size=1, right AOP_LIT=0x40, size
                            =1
                      00857 ;; >>> /home/sdcc-builder/build/sdcc-build/orig/sdcc/src/pic14/gen.c:4147:genAnd
                      00858 ;       .line   90; "../../../lib/uart.c"       TX_SET(0);
000B   3040           00859         MOVLW   0x40    ;id=899,key=008,inCond:400,outCond:10,flow seq=01c
                      00860 ;; >>> /home/sdcc-builder/build/sdcc-build/orig/sdcc/src/pic14/gen.c:4149:genAnd
                      00861 ;;      998
                      00862 ;;      1016  _PORTC   offset=0
000C   0??? 0???      00863         BANKSEL _PORTC  ;id=1420,key=009,inCond:0,outCond:0,flow seq=01c
000E   05??           00864         ANDWF   _PORTC,F        ;id=903,key=00a,inCond:11,outCond:5,flow seq=01c
                      00865 ;;; /home/sdcc-builder/build/sdcc-build/orig/sdcc/src/pic14/gen.c:2308:resultRemat *{*
                      00866 ;;; /home/sdcc-builder/build/sdcc-build/orig/sdcc/src/pic14/gen.c:2752:genLabel *{*
                      00867 ;; ***  genLabel  2755
                      00868 ;_00141_DS_:
                      00869 ;;; /home/sdcc-builder/build/sdcc-build/orig/sdcc/src/pic14/gen.c:2308:resultRemat *{*
                      00870 ;;; /home/sdcc-builder/build/sdcc-build/orig/sdcc/src/pic14/gen.c:2520:genEndFunction *{*
                      00871 ;; ***  genEndFunction  2522
                      00872 ;return
                      00873 ;       .line   91; "../../../lib/uart.c"       }
000F   0008           00874         RETURN          ;id=914,key=00b,inCond:10,outCond:e,flow seq=01c
                      00875 ;<>Start of new flow, seq=0x1d
gpasm-1.5.2 #0 (Sep 16 2019) build/default/pr   9-16-2019  10:40:43         PAGE 18


LOC    OBJECT CODE    LINE  SOURCE TEXT
  VALUE

                      00876 ;  from: ; to: 
                      00877 ; exit point of _uart_disable
                      00878 ;;; /home/sdcc-builder/build/sdcc-build/orig/sdcc/src/pic14/gen.c:7535:genpic14Code *{*
                      00879 
                      00880 ;***
                      00881 ;  pBlock Stats: dbName = C
                      00882 ;***
                      00883 ;has an exit
                      00884 ;; Starting pCode block
                      00885 ;<>Start of new flow, seq=0x1e ancestor = 0x1e
                      00886 ;  from: ; to: 
                      00887 ;;; /home/sdcc-builder/build/sdcc-build/orig/sdcc/src/pic14/gen.c:2308:resultRemat *{*
                      00888 ;;; /home/sdcc-builder/build/sdcc-build/orig/sdcc/src/pic14/gen.c:2752:genLabel *{*
                      00889 ;; ***  genLabel  2755
                      00890 ;;; /home/sdcc-builder/build/sdcc-build/orig/sdcc/src/pic14/gen.c:2308:resultRemat *{*
                      00891 ;;; /home/sdcc-builder/build/sdcc-build/orig/sdcc/src/pic14/gen.c:2332:genFunction *{*
                      00892 ;; ***  genFunction  2334 curr label offset=26previous max_key=3 
                      00893 ;;      -----------------------------------------
                      00894 ;;       function uart_enable
                      00895 ;;      -----------------------------------------
                      00896 ;_uart_enable:
                      00897 S_uart__uart_enable     code
0000                  00898 _uart_enable:
                      00899 ; 2 exit points
                      00900 ;;; /home/sdcc-builder/build/sdcc-build/orig/sdcc/src/pic14/gen.c:2308:resultRemat *{*
                      00901 ;;; /home/sdcc-builder/build/sdcc-build/orig/sdcc/src/pic14/gen.c:4239:genOr *{*
                      00902 ;; ***  genOr  4240
                      00903 ;; ***  aopForSym 316
                      00904 ;;      328 sym->rname = _TRISC, size = 1
                      00905 ;;      line = 4246 result AOP_DIR=_TRISC, size=1, left AOP_DIR=_TRISC, size=1, right AOP_LIT=0x80, size
                            =1
                      00906 ;;      line = 4272 result AOP_DIR=_TRISC, size=1, left AOP_DIR=_TRISC, size=1, right AOP_LIT=0x80, size
                            =1
                      00907 ;; >>> /home/sdcc-builder/build/sdcc-build/orig/sdcc/src/pic14/gen.c:4423:genOr
                      00908 ;       .line   75; "../../../lib/uart.c"       RX_TRIS();
0000   0??? 0???      00909         BANKSEL _TRISC  ;id=1421,key=000,inCond:0,outCond:0,flow seq=01e
0002   17??           00910         BSF     _TRISC,7        ;id=761,key=001,inCond:21,outCond:21,flow seq=01e
                      00911 ;;; /home/sdcc-builder/build/sdcc-build/orig/sdcc/src/pic14/gen.c:2308:resultRemat *{*
                      00912 ;;; /home/sdcc-builder/build/sdcc-build/orig/sdcc/src/pic14/gen.c:3938:genAnd *{*
                      00913 ;; ***  genAnd  3939
                      00914 ;; ***  aopForSym 316
                      00915 ;;      328 sym->rname = _TRISC, size = 1
                      00916 ;;      576
                      00917 ;;      line = 3974 result AOP_DIR=_TRISC, size=1, left AOP_DIR=_TRISC, size=1, right AOP_LIT=0xbf, size
                            =1
                      00918 ;; >>> /home/sdcc-builder/build/sdcc-build/orig/sdcc/src/pic14/gen.c:4141:genAnd
                      00919 ;; BANKOPT2 BANKSEL dropped; _TRISC present in same bank as _TRISC
                      00920 ;       .line   76; "../../../lib/uart.c"       TX_TRIS();
0003   13??           00921         BCF     _TRISC,6        ;id=771,key=002,inCond:21,outCond:21,flow seq=01e
                      00922 ;;; /home/sdcc-builder/build/sdcc-build/orig/sdcc/src/pic14/gen.c:2308:resultRemat *{*
                      00923 ;;; /home/sdcc-builder/build/sdcc-build/orig/sdcc/src/pic14/gen.c:3938:genAnd *{*
                      00924 ;; ***  genAnd  3939
                      00925 ;; ***  aopForSym 316
gpasm-1.5.2 #0 (Sep 16 2019) build/default/pr   9-16-2019  10:40:43         PAGE 19


LOC    OBJECT CODE    LINE  SOURCE TEXT
  VALUE

                      00926 ;;      328 sym->rname = _PORTC, size = 1
                      00927 ;;      line = 3974 result AOP_DIR=_PORTC, size=1, left AOP_DIR=_PORTC, size=1, right AOP_LIT=0x40, size
                            =1
                      00928 ;; >>> /home/sdcc-builder/build/sdcc-build/orig/sdcc/src/pic14/gen.c:4147:genAnd
                      00929 ;       .line   77; "../../../lib/uart.c"       TX_SET(0);
0004   3040           00930         MOVLW   0x40    ;id=780,key=003,inCond:400,outCond:10,flow seq=01e
                      00931 ;; >>> /home/sdcc-builder/build/sdcc-build/orig/sdcc/src/pic14/gen.c:4149:genAnd
                      00932 ;;      998
                      00933 ;;      1016  _PORTC   offset=0
0005   0??? 0???      00934         BANKSEL _PORTC  ;id=1423,key=004,inCond:0,outCond:0,flow seq=01e
0007   05??           00935         ANDWF   _PORTC,F        ;id=784,key=005,inCond:11,outCond:5,flow seq=01e
                      00936 ;;; /home/sdcc-builder/build/sdcc-build/orig/sdcc/src/pic14/gen.c:2308:resultRemat *{*
                      00937 ;;; /home/sdcc-builder/build/sdcc-build/orig/sdcc/src/pic14/gen.c:4239:genOr *{*
                      00938 ;; ***  genOr  4240
                      00939 ;; ***  aopForSym 316
                      00940 ;;      328 sym->rname = _TXSTA, size = 1
                      00941 ;;      line = 4246 result AOP_DIR=_TXSTA, size=1, left AOP_DIR=_TXSTA, size=1, right AOP_LIT=0x20, size
                            =1
                      00942 ;;      line = 4272 result AOP_DIR=_TXSTA, size=1, left AOP_DIR=_TXSTA, size=1, right AOP_LIT=0x20, size
                            =1
                      00943 ;; >>> /home/sdcc-builder/build/sdcc-build/orig/sdcc/src/pic14/gen.c:4423:genOr
                      00944 ;       .line   78; "../../../lib/uart.c"       TXSTA |= 0b00100000; //  TXEN = 1;
0008   0??? 0???      00945         BANKSEL _TXSTA  ;id=1424,key=006,inCond:0,outCond:0,flow seq=01e
000A   16??           00946         BSF     _TXSTA,5        ;id=794,key=007,inCond:21,outCond:21,flow seq=01e
                      00947 ;;; /home/sdcc-builder/build/sdcc-build/orig/sdcc/src/pic14/gen.c:2308:resultRemat *{*
                      00948 ;;; /home/sdcc-builder/build/sdcc-build/orig/sdcc/src/pic14/gen.c:4239:genOr *{*
                      00949 ;; ***  genOr  4240
                      00950 ;; ***  aopForSym 316
                      00951 ;;      328 sym->rname = _RCSTA, size = 1
                      00952 ;;      line = 4246 result AOP_DIR=_RCSTA, size=1, left AOP_DIR=_RCSTA, size=1, right AOP_LIT=0x80, size
                            =1
                      00953 ;;      line = 4272 result AOP_DIR=_RCSTA, size=1, left AOP_DIR=_RCSTA, size=1, right AOP_LIT=0x80, size
                            =1
                      00954 ;; >>> /home/sdcc-builder/build/sdcc-build/orig/sdcc/src/pic14/gen.c:4423:genOr
                      00955 ;       .line   79; "../../../lib/uart.c"       RCSTA |= 0x80; // SPEN = 1;
000B   0??? 0???      00956         BANKSEL _RCSTA  ;id=1425,key=008,inCond:0,outCond:0,flow seq=01e
000D   17??           00957         BSF     _RCSTA,7        ;id=804,key=009,inCond:21,outCond:21,flow seq=01e
                      00958 ;;; /home/sdcc-builder/build/sdcc-build/orig/sdcc/src/pic14/gen.c:2308:resultRemat *{*
                      00959 ;;; /home/sdcc-builder/build/sdcc-build/orig/sdcc/src/pic14/gen.c:3938:genAnd *{*
                      00960 ;; ***  genAnd  3939
                      00961 ;; ***  aopForSym 316
                      00962 ;;      328 sym->rname = _PIE1, size = 1
                      00963 ;;      576
                      00964 ;;      line = 3974 result AOP_DIR=_PIE1, size=1, left AOP_DIR=_PIE1, size=1, right AOP_LIT=0xdf, size=1
                      00965 ;; >>> /home/sdcc-builder/build/sdcc-build/orig/sdcc/src/pic14/gen.c:4141:genAnd
                      00966 ;       .line   80; "../../../lib/uart.c"       PIE1 &= ~0b100000; //RCIE = 0;
000E   0??? 0???      00967         BANKSEL _PIE1   ;id=1426,key=00a,inCond:0,outCond:0,flow seq=01e
0010   12??           00968         BCF     _PIE1,5 ;id=814,key=00b,inCond:21,outCond:21,flow seq=01e
                      00969 ;;; /home/sdcc-builder/build/sdcc-build/orig/sdcc/src/pic14/gen.c:2308:resultRemat *{*
                      00970 ;;; /home/sdcc-builder/build/sdcc-build/orig/sdcc/src/pic14/gen.c:2752:genLabel *{*
                      00971 ;; ***  genLabel  2755
                      00972 ;_00137_DS_:
                      00973 ;;; /home/sdcc-builder/build/sdcc-build/orig/sdcc/src/pic14/gen.c:2308:resultRemat *{*
gpasm-1.5.2 #0 (Sep 16 2019) build/default/pr   9-16-2019  10:40:43         PAGE 20


LOC    OBJECT CODE    LINE  SOURCE TEXT
  VALUE

                      00974 ;;; /home/sdcc-builder/build/sdcc-build/orig/sdcc/src/pic14/gen.c:2520:genEndFunction *{*
                      00975 ;; ***  genEndFunction  2522
                      00976 ;return
                      00977 ;       .line   81; "../../../lib/uart.c"       }
0011   0008           00978         RETURN          ;id=825,key=00c,inCond:10,outCond:e,flow seq=01e
                      00979 ;<>Start of new flow, seq=0x1f
                      00980 ;  from: ; to: 
                      00981 ; exit point of _uart_enable
                      00982 ;;; /home/sdcc-builder/build/sdcc-build/orig/sdcc/src/pic14/gen.c:7535:genpic14Code *{*
                      00983 
                      00984 ;***
                      00985 ;  pBlock Stats: dbName = C
                      00986 ;***
                      00987 ;has an exit
                      00988 ;1 compiler assigned register :
                      00989 ;   r0x100A
                      00990 ;; Starting pCode block
                      00991 ;<>Start of new flow, seq=0x20 ancestor = 0x20
                      00992 ;  from: ; to: 022 021 
                      00993 ;;; /home/sdcc-builder/build/sdcc-build/orig/sdcc/src/pic14/gen.c:2308:resultRemat *{*
                      00994 ;;; /home/sdcc-builder/build/sdcc-build/orig/sdcc/src/pic14/gen.c:2752:genLabel *{*
                      00995 ;; ***  genLabel  2755
                      00996 ;;; /home/sdcc-builder/build/sdcc-build/orig/sdcc/src/pic14/gen.c:2308:resultRemat *{*
                      00997 ;;; /home/sdcc-builder/build/sdcc-build/orig/sdcc/src/pic14/gen.c:2332:genFunction *{*
                      00998 ;; ***  genFunction  2334 curr label offset=16previous max_key=6 
                      00999 ;;      -----------------------------------------
                      01000 ;;       function uart_isr
                      01001 ;;      -----------------------------------------
                      01002 ;_uart_isr:
                      01003 S_uart__uart_isr        code
0000                  01004 _uart_isr:
                      01005 ; 2 exit points
                      01006 ;;; /home/sdcc-builder/build/sdcc-build/orig/sdcc/src/pic14/gen.c:2308:resultRemat *{*
                      01007 ;;; /home/sdcc-builder/build/sdcc-build/orig/sdcc/src/pic14/gen.c:7036:genAssign *{*
                      01008 ;; ***  genAssign  7037
                      01009 ;; ***  aopForSym 316
                      01010 ;;      328 sym->rname = _PIR1, size = 1
                      01011 ;;      695 register type nRegs=1
                      01012 ;;      line = 7046 result AOP_REG=r0x1051, size=1, left -=-, size=0, right AOP_DIR=_PIR1, size=1
                      01013 ;; ***  genAssign  7116
                      01014 ;; WARNING      genAssign  7125 ignoring register storage
                      01015 ;; ***  genAssign  7132
                      01016 ;;; /home/sdcc-builder/build/sdcc-build/orig/sdcc/src/pic14/gen.c:1328:mov2w_op *{*
                      01017 ;; ***  mov2w  1366  offset=0
                      01018 ;; >>> /home/sdcc-builder/build/sdcc-build/orig/sdcc/src/pic14/gen.c:1371:mov2w
                      01019 ;;      998
                      01020 ;;      1016  _PIR1   offset=0
                      01021 ;       .line   66; "../../../lib/uart.c"       if((PIR1 & 0b00100000)) {
0000   0??? 0???      01022         BANKSEL _PIR1   ;id=1427,key=000,inCond:0,outCond:0,flow seq=020
0002   08??           01023         MOVF    _PIR1,W ;id=672,key=001,inCond:1,outCond:14,flow seq=020
                      01024 ;; >>> /home/sdcc-builder/build/sdcc-build/orig/sdcc/src/pic14/gen.c:7159:genAssign
                      01025 ;;      1097 rIdx = r0x1051 
0003   0??? 0???      01026         BANKSEL r0x100A ;id=1428,key=002,inCond:0,outCond:0,flow seq=020
gpasm-1.5.2 #0 (Sep 16 2019) build/default/pr   9-16-2019  10:40:43         PAGE 21


LOC    OBJECT CODE    LINE  SOURCE TEXT
  VALUE

0005   00??           01027         MOVWF   r0x100A ;id=675,key=003,inCond:10,outCond:1,flow seq=020,rIdx=r0x1051
                      01028 ;;; /home/sdcc-builder/build/sdcc-build/orig/sdcc/src/pic14/gen.c:2308:resultRemat *{*
                      01029 ;;; /home/sdcc-builder/build/sdcc-build/orig/sdcc/src/pic14/gen.c:3938:genAnd *{*
                      01030 ;; ***  genAnd  3939
                      01031 ;;      695 register type nRegs=1
                      01032 ;;      line = 3974 result AOP_CRY=0x00, size=0, left AOP_REG=r0x1051, size=1, right AOP_LIT=0x20, size=
                            1
                      01033 ;;; /home/sdcc-builder/build/sdcc-build/orig/sdcc/src/pic14/gen.c:3861:isLiteralBit *{*
                      01034 ;; ***  isLiteralBit  3862
                      01035 ;; >>> /home/sdcc-builder/build/sdcc-build/orig/sdcc/src/pic14/gen.c:4058:genAnd
                      01036 ;; BANKOPT2 BANKSEL dropped; r0x100A present in same bank as r0x100A
0006   1E??           01037         BTFSS   r0x100A,5       ;id=684,key=004,inCond:21,outCond:0,flow seq=020
                      01038 ;<>Start of new flow, seq=0x21 ancestor = 0x20
                      01039 ;  from: 020 ; to: 023 
                      01040 ;; >>> /home/sdcc-builder/build/sdcc-build/orig/sdcc/src/pic14/gen.c:4059:genAnd
                      01041 ;; ***  popGetLabel  key=2, label offset 26
0007   2???           01042         GOTO    _00128_DS_      ;id=687,key=000,inCond:0,outCond:0,flow seq=021
                      01043 ;<>Start of new flow, seq=0x22 ancestor = 0x20
                      01044 ;  from: 020 ; to: 024 
                      01045 ;;; /home/sdcc-builder/build/sdcc-build/orig/sdcc/src/pic14/gen.c:2308:resultRemat *{*
                      01046 ;;; /home/sdcc-builder/build/sdcc-build/orig/sdcc/src/pic14/gen.c:2308:resultRemat *{*
                      01047 ;;; /home/sdcc-builder/build/sdcc-build/orig/sdcc/src/pic14/gen.c:3938:genAnd *{*
                      01048 ;; ***  genAnd  3939
                      01049 ;; ***  aopForSym 316
                      01050 ;;      328 sym->rname = _PIR1, size = 1
                      01051 ;;      576
                      01052 ;;      line = 3974 result AOP_DIR=_PIR1, size=1, left AOP_DIR=_PIR1, size=1, right AOP_LIT=0xdf, size=1
                      01053 ;; >>> /home/sdcc-builder/build/sdcc-build/orig/sdcc/src/pic14/gen.c:4141:genAnd
                      01054 ;       .line   67; "../../../lib/uart.c"       PIR1 &= ~0b00100000; //  RCIF = 0;
0008   0??? 0???      01055         BANKSEL _PIR1   ;id=1430,key=000,inCond:0,outCond:0,flow seq=022
000A   12??           01056         BCF     _PIR1,5 ;id=698,key=001,inCond:21,outCond:21,flow seq=022
                      01057 ;;; /home/sdcc-builder/build/sdcc-build/orig/sdcc/src/pic14/gen.c:2308:resultRemat *{*
                      01058 ;;; /home/sdcc-builder/build/sdcc-build/orig/sdcc/src/pic14/gen.c:2675:genRet *{*
                      01059 ;; ***  genRet  2677
                      01060 ;; ***  aopForSym 316
                      01061 ;;      328 sym->rname = _RCREG, size = 1
                      01062 ;;; /home/sdcc-builder/build/sdcc-build/orig/sdcc/src/pic14/gen.c:1328:mov2w_op *{*
                      01063 ;; ***  mov2w  1366  offset=0
                      01064 ;; >>> /home/sdcc-builder/build/sdcc-build/orig/sdcc/src/pic14/gen.c:1371:mov2w
                      01065 ;;      998
                      01066 ;;      1016  _RCREG   offset=0
                      01067 ;; BANKOPT2 BANKSEL dropped; _RCREG present in same bank as _PIR1
                      01068 ;       .line   68; "../../../lib/uart.c"       return RCREG;
000B   08??           01069         MOVF    _RCREG,W        ;id=710,key=002,inCond:1,outCond:14,flow seq=022
                      01070 ;; >>> /home/sdcc-builder/build/sdcc-build/orig/sdcc/src/pic14/gen.c:2701:genRet
                      01071 ;; ***  popGetLabel  key=3, label offset 26
000C   2???           01072         GOTO    _00129_DS_      ;id=713,key=003,inCond:0,outCond:0,flow seq=022
                      01073 ;<>Start of new flow, seq=0x23 ancestor = 0x21
                      01074 ;  from: 021 ; to: 024 
                      01075 ;;; /home/sdcc-builder/build/sdcc-build/orig/sdcc/src/pic14/gen.c:2308:resultRemat *{*
                      01076 ;;; /home/sdcc-builder/build/sdcc-build/orig/sdcc/src/pic14/gen.c:2752:genLabel *{*
                      01077 ;; ***  genLabel  2755
                      01078 ;_00128_DS_:
gpasm-1.5.2 #0 (Sep 16 2019) build/default/pr   9-16-2019  10:40:43         PAGE 22


LOC    OBJECT CODE    LINE  SOURCE TEXT
  VALUE

                      01079 ;;; /home/sdcc-builder/build/sdcc-build/orig/sdcc/src/pic14/gen.c:2308:resultRemat *{*
                      01080 ;;; /home/sdcc-builder/build/sdcc-build/orig/sdcc/src/pic14/gen.c:2675:genRet *{*
                      01081 ;; ***  genRet  2677
                      01082 ;;; /home/sdcc-builder/build/sdcc-build/orig/sdcc/src/pic14/gen.c:1328:mov2w_op *{*
                      01083 ;; >>> /home/sdcc-builder/build/sdcc-build/orig/sdcc/src/pic14/gen.c:1346:mov2w_op
                      01084 ;; BANKOPT3 drop assumptions: PCI with label or call found
000D                  01085 _00128_DS_:
                      01086 ;       .line   70; "../../../lib/uart.c"       return 0;
000D   3000           01087         MOVLW   0x00    ;id=725,key=000,inCond:400,outCond:10,flow seq=023
                      01088 ;<>Start of new flow, seq=0x24 ancestor = 0x22
                      01089 ;  from: 023 022 ; to: 
                      01090 ;;; /home/sdcc-builder/build/sdcc-build/orig/sdcc/src/pic14/gen.c:2308:resultRemat *{*
                      01091 ;;; /home/sdcc-builder/build/sdcc-build/orig/sdcc/src/pic14/gen.c:2752:genLabel *{*
                      01092 ;; ***  genLabel  2755
                      01093 ;_00129_DS_:
                      01094 ;;; /home/sdcc-builder/build/sdcc-build/orig/sdcc/src/pic14/gen.c:2308:resultRemat *{*
                      01095 ;;; /home/sdcc-builder/build/sdcc-build/orig/sdcc/src/pic14/gen.c:2520:genEndFunction *{*
                      01096 ;; ***  genEndFunction  2522
                      01097 ;return
                      01098 ;; BANKOPT3 drop assumptions: PCI with label or call found
000E                  01099 _00129_DS_:
                      01100 ;       .line   71; "../../../lib/uart.c"       }
000E   0008           01101         RETURN          ;id=736,key=000,inCond:10,outCond:e,flow seq=024
                      01102 ;<>Start of new flow, seq=0x25
                      01103 ;  from: ; to: 
                      01104 ; exit point of _uart_isr
                      01105 ;;; /home/sdcc-builder/build/sdcc-build/orig/sdcc/src/pic14/gen.c:7535:genpic14Code *{*
                      01106 
                      01107 ;***
                      01108 ;  pBlock Stats: dbName = C
                      01109 ;***
                      01110 ;has an exit
                      01111 ;functions called:
                      01112 ;   __divslong
                      01113 ;   __divslong
                      01114 ;12 compiler assigned registers:
                      01115 ;   r0x100B
                      01116 ;   r0x100C
                      01117 ;   r0x100D
                      01118 ;   r0x100E
                      01119 ;   r0x100F
                      01120 ;   STK06
                      01121 ;   STK05
                      01122 ;   STK04
                      01123 ;   STK03
                      01124 ;   STK02
                      01125 ;   STK01
                      01126 ;   STK00
                      01127 ;; Starting pCode block
                      01128 ;<>Start of new flow, seq=0x26 ancestor = 0x26
                      01129 ;  from: ; to: 027 
                      01130 ;;; /home/sdcc-builder/build/sdcc-build/orig/sdcc/src/pic14/gen.c:2308:resultRemat *{*
                      01131 ;;; /home/sdcc-builder/build/sdcc-build/orig/sdcc/src/pic14/gen.c:2752:genLabel *{*
gpasm-1.5.2 #0 (Sep 16 2019) build/default/pr   9-16-2019  10:40:43         PAGE 23


LOC    OBJECT CODE    LINE  SOURCE TEXT
  VALUE

                      01132 ;; ***  genLabel  2755
                      01133 ;;; /home/sdcc-builder/build/sdcc-build/orig/sdcc/src/pic14/gen.c:2308:resultRemat *{*
                      01134 ;;; /home/sdcc-builder/build/sdcc-build/orig/sdcc/src/pic14/gen.c:2332:genFunction *{*
                      01135 ;; ***  genFunction  2334 curr label offset=9previous max_key=3 
                      01136 ;;      -----------------------------------------
                      01137 ;;       function uart_poll
                      01138 ;;      -----------------------------------------
                      01139 ;_uart_poll:
                      01140 S_uart__uart_poll       code
0000                  01141 _uart_poll:
                      01142 ; 2 exit points
                      01143 ;;; /home/sdcc-builder/build/sdcc-build/orig/sdcc/src/pic14/gen.c:2308:resultRemat *{*
                      01144 ;;; /home/sdcc-builder/build/sdcc-build/orig/sdcc/src/pic14/gen.c:7467:genReceive *{*
                      01145 ;; ***  genReceive  7468
                      01146 ;;      695 register type nRegs=1
                      01147 ;;; /home/sdcc-builder/build/sdcc-build/orig/sdcc/src/pic14/gen.c:1892:assignResultValue *{*
                      01148 ;; ***  assignResultValue  1894
                      01149 ;;      line = 1896 result -=-, size=0, left AOP_REG=r0x104C, size=1, right -=-, size=0
                      01150 ;; >>> /home/sdcc-builder/build/sdcc-build/orig/sdcc/src/pic14/gen.c:1378:movwf
                      01151 ;;      1097 rIdx = r0x104C 
                      01152 ;       .line   46; "../../../lib/uart.c"       uart_poll(uint8_t bauds) {
0000   0??? 0???      01153         BANKSEL r0x100B ;id=1434,key=000,inCond:0,outCond:0,flow seq=026
0002   00??           01154         MOVWF   r0x100B ;id=1356,key=001,inCond:10,outCond:1,flow seq=026,rIdx=r0x104C
                      01155 ;; BANKOPT2 BANKSEL dropped; r0x100C present in same bank as r0x100B
                      01156 ;       .line   50; "../../../lib/uart.c"       TMR0 = (256 - UART_BRG_FN(bauds));
0003   00??           01157         MOVWF   r0x100C ;id=384,key=002,inCond:10,outCond:1,flow seq=026,rIdx=r0x104D
                      01158 ;; ***  addSign  857
                      01159 ;;; /home/sdcc-builder/build/sdcc-build/orig/sdcc/src/pic14/genarith.c:858:addSign *{*
                      01160 ;; >>> /home/sdcc-builder/build/sdcc-build/orig/sdcc/src/pic14/genarith.c:877:addSign
                      01161 ;;      1097 rIdx = r0x104E 
                      01162 ;; BANKOPT2 BANKSEL dropped; r0x100D present in same bank as r0x100B
0004   01??           01163         CLRF    r0x100D ;id=389,key=003,inCond:0,outCond:5,flow seq=026,rIdx=r0x104E
                      01164 ;; >>> /home/sdcc-builder/build/sdcc-build/orig/sdcc/src/pic14/genarith.c:877:addSign
                      01165 ;;      1097 rIdx = r0x104F 
                      01166 ;; BANKOPT2 BANKSEL dropped; r0x100E present in same bank as r0x100B
0005   01??           01167         CLRF    r0x100E ;id=392,key=004,inCond:0,outCond:5,flow seq=026,rIdx=r0x104F
                      01168 ;; >>> /home/sdcc-builder/build/sdcc-build/orig/sdcc/src/pic14/genarith.c:877:addSign
                      01169 ;;      1097 rIdx = r0x1050 
                      01170 ;; BANKOPT2 BANKSEL dropped; r0x100F present in same bank as r0x100B
0006   01??           01171         CLRF    r0x100F ;id=395,key=005,inCond:0,outCond:5,flow seq=026,rIdx=r0x1050
                      01172 ;;; /home/sdcc-builder/build/sdcc-build/orig/sdcc/src/pic14/gen.c:2308:resultRemat *{*
                      01173 ;;; /home/sdcc-builder/build/sdcc-build/orig/sdcc/src/pic14/gen.c:2308:resultRemat *{*
                      01174 ;;; /home/sdcc-builder/build/sdcc-build/orig/sdcc/src/pic14/gen.c:2308:resultRemat *{*
                      01175 ;;; /home/sdcc-builder/build/sdcc-build/orig/sdcc/src/pic14/gen.c:2071:genCall *{*
                      01176 ;; ***  genCall  2073
                      01177 ;;; /home/sdcc-builder/build/sdcc-build/orig/sdcc/src/pic14/gen.c:1786:saveRegisters *{*
                      01178 ;; ***  saveRegisters  1788
                      01179 ;;      695 register type nRegs=4
                      01180 ;;      695 register type nRegs=4
                      01181 ;;      2120 left AOP_REG
                      01182 ;;; /home/sdcc-builder/build/sdcc-build/orig/sdcc/src/pic14/gen.c:1328:mov2w_op *{*
                      01183 ;; ***  mov2w  1366  offset=0
                      01184 ;; >>> /home/sdcc-builder/build/sdcc-build/orig/sdcc/src/pic14/gen.c:1371:mov2w
gpasm-1.5.2 #0 (Sep 16 2019) build/default/pr   9-16-2019  10:40:43         PAGE 24


LOC    OBJECT CODE    LINE  SOURCE TEXT
  VALUE

                      01185 ;;      1097 rIdx = r0x104D 
                      01186 ;; BANKOPT2 BANKSEL dropped; r0x100C present in same bank as r0x100B
0007   08??           01187         MOVF    r0x100C,W       ;id=410,key=006,inCond:1,outCond:14,flow seq=026,rIdx=r0x104D
                      01188 ;;      2120 left AOP_REG
                      01189 ;; >>> /home/sdcc-builder/build/sdcc-build/orig/sdcc/src/pic14/gen.c:2128:genCall
                      01190 ;; ***  popRegFromIdx,1030  , rIdx=0x79
                      01191 ;; BANKOPT1 BANKSEL dropped; STK06 present in all of r0x100B's banks
0008   00??           01192         MOVWF   STK06   ;id=414,key=007,inCond:10,outCond:1,flow seq=026
                      01193 ;;; /home/sdcc-builder/build/sdcc-build/orig/sdcc/src/pic14/gen.c:1328:mov2w_op *{*
                      01194 ;; ***  mov2w  1366  offset=1
                      01195 ;; >>> /home/sdcc-builder/build/sdcc-build/orig/sdcc/src/pic14/gen.c:1371:mov2w
                      01196 ;;      1097 rIdx = r0x104E 
0009   3000           01197         MOVLW   0x00    ;id=1365,key=008,inCond:400,outCond:10,flow seq=026
                      01198 ;;      2120 left AOP_REG
                      01199 ;; >>> /home/sdcc-builder/build/sdcc-build/orig/sdcc/src/pic14/gen.c:2128:genCall
                      01200 ;; ***  popRegFromIdx,1030  , rIdx=0x7a
                      01201 ;; BANKOPT1 BANKSEL dropped; STK05 present in all of r0x100B's banks
000A   00??           01202         MOVWF   STK05   ;id=423,key=009,inCond:10,outCond:1,flow seq=026
                      01203 ;;; /home/sdcc-builder/build/sdcc-build/orig/sdcc/src/pic14/gen.c:1328:mov2w_op *{*
                      01204 ;; ***  mov2w  1366  offset=2
                      01205 ;; >>> /home/sdcc-builder/build/sdcc-build/orig/sdcc/src/pic14/gen.c:1371:mov2w
                      01206 ;;      1097 rIdx = r0x104F 
000B   3000           01207         MOVLW   0x00    ;id=1366,key=00a,inCond:400,outCond:10,flow seq=026
                      01208 ;;      2120 left AOP_REG
                      01209 ;; >>> /home/sdcc-builder/build/sdcc-build/orig/sdcc/src/pic14/gen.c:2128:genCall
                      01210 ;; ***  popRegFromIdx,1030  , rIdx=0x7b
                      01211 ;; BANKOPT1 BANKSEL dropped; STK04 present in all of r0x100B's banks
000C   00??           01212         MOVWF   STK04   ;id=432,key=00b,inCond:10,outCond:1,flow seq=026
                      01213 ;;; /home/sdcc-builder/build/sdcc-build/orig/sdcc/src/pic14/gen.c:1328:mov2w_op *{*
                      01214 ;; ***  mov2w  1366  offset=3
                      01215 ;; >>> /home/sdcc-builder/build/sdcc-build/orig/sdcc/src/pic14/gen.c:1371:mov2w
                      01216 ;;      1097 rIdx = r0x1050 
000D   3000           01217         MOVLW   0x00    ;id=1367,key=00c,inCond:400,outCond:10,flow seq=026
                      01218 ;;      2120 left AOP_LIT
                      01219 ;; >>> /home/sdcc-builder/build/sdcc-build/orig/sdcc/src/pic14/gen.c:2128:genCall
                      01220 ;; ***  popRegFromIdx,1030  , rIdx=0x7c
                      01221 ;; BANKOPT1 BANKSEL dropped; STK03 present in all of r0x100B's banks
000E   00??           01222         MOVWF   STK03   ;id=441,key=00d,inCond:10,outCond:1,flow seq=026
                      01223 ;;; /home/sdcc-builder/build/sdcc-build/orig/sdcc/src/pic14/gen.c:1328:mov2w_op *{*
                      01224 ;; >>> /home/sdcc-builder/build/sdcc-build/orig/sdcc/src/pic14/gen.c:1346:mov2w_op
000F   30A0           01225         MOVLW   0xa0    ;id=444,key=00e,inCond:400,outCond:10,flow seq=026
                      01226 ;;      2120 left AOP_LIT
                      01227 ;; >>> /home/sdcc-builder/build/sdcc-build/orig/sdcc/src/pic14/gen.c:2128:genCall
                      01228 ;; ***  popRegFromIdx,1030  , rIdx=0x7d
                      01229 ;; BANKOPT1 BANKSEL dropped; STK02 present in all of r0x100B's banks
0010   00??           01230         MOVWF   STK02   ;id=448,key=00f,inCond:10,outCond:1,flow seq=026
                      01231 ;;; /home/sdcc-builder/build/sdcc-build/orig/sdcc/src/pic14/gen.c:1328:mov2w_op *{*
                      01232 ;; >>> /home/sdcc-builder/build/sdcc-build/orig/sdcc/src/pic14/gen.c:1346:mov2w_op
0011   3025           01233         MOVLW   0x25    ;id=451,key=010,inCond:400,outCond:10,flow seq=026
                      01234 ;;      2120 left AOP_LIT
                      01235 ;; >>> /home/sdcc-builder/build/sdcc-build/orig/sdcc/src/pic14/gen.c:2128:genCall
                      01236 ;; ***  popRegFromIdx,1030  , rIdx=0x7e
                      01237 ;; BANKOPT1 BANKSEL dropped; STK01 present in all of r0x100B's banks
gpasm-1.5.2 #0 (Sep 16 2019) build/default/pr   9-16-2019  10:40:43         PAGE 25


LOC    OBJECT CODE    LINE  SOURCE TEXT
  VALUE

0012   00??           01238         MOVWF   STK01   ;id=455,key=011,inCond:10,outCond:1,flow seq=026
                      01239 ;;; /home/sdcc-builder/build/sdcc-build/orig/sdcc/src/pic14/gen.c:1328:mov2w_op *{*
                      01240 ;; >>> /home/sdcc-builder/build/sdcc-build/orig/sdcc/src/pic14/gen.c:1346:mov2w_op
0013   3026           01241         MOVLW   0x26    ;id=458,key=012,inCond:400,outCond:10,flow seq=026
                      01242 ;;      2120 left AOP_LIT
                      01243 ;; >>> /home/sdcc-builder/build/sdcc-build/orig/sdcc/src/pic14/gen.c:2128:genCall
                      01244 ;; ***  popRegFromIdx,1030  , rIdx=0x7f
                      01245 ;; BANKOPT1 BANKSEL dropped; STK00 present in all of r0x100B's banks
0014   00??           01246         MOVWF   STK00   ;id=462,key=013,inCond:10,outCond:1,flow seq=026
                      01247 ;;; /home/sdcc-builder/build/sdcc-build/orig/sdcc/src/pic14/gen.c:1328:mov2w_op *{*
                      01248 ;; >>> /home/sdcc-builder/build/sdcc-build/orig/sdcc/src/pic14/gen.c:1346:mov2w_op
0015   3000           01249         MOVLW   0x00    ;id=465,key=014,inCond:400,outCond:10,flow seq=026
                      01250 ;; >>> /home/sdcc-builder/build/sdcc-build/orig/sdcc/src/pic14/gen.c:2160:genCall
0016   0??? 0???      01251         PAGESEL __divslong      ;id=467,key=015,inCond:0,outCond:0,flow seq=026
                      01252 ;; >>> /home/sdcc-builder/build/sdcc-build/orig/sdcc/src/pic14/gen.c:2165:genCall
                      01253 ;; BANKOPT3 drop assumptions: PCI with label or call found
0018   2???           01254         CALL    __divslong      ;id=469,key=016,inCond:10,outCond:1e,flow seq=026
                      01255 ;<>Start of new flow, seq=0x27 ancestor = 0x26
                      01256 ;  from: 026 ; to: 028 
                      01257 ;; >>> /home/sdcc-builder/build/sdcc-build/orig/sdcc/src/pic14/gen.c:2173:genCall
0019   0??? 0???      01258         PAGESEL $       ;id=471,key=000,inCond:0,outCond:0,flow seq=027
                      01259 ;;      695 register type nRegs=4
                      01260 ;;; /home/sdcc-builder/build/sdcc-build/orig/sdcc/src/pic14/gen.c:1892:assignResultValue *{*
                      01261 ;; ***  assignResultValue  1894
                      01262 ;;      line = 1896 result -=-, size=0, left AOP_REG=r0x104C, size=4, right -=-, size=0
                      01263 ;; >>> /home/sdcc-builder/build/sdcc-build/orig/sdcc/src/pic14/gen.c:1378:movwf
                      01264 ;;      1097 rIdx = r0x104F 
001B   0??? 0???      01265         BANKSEL r0x100E ;id=1448,key=001,inCond:0,outCond:0,flow seq=027
001D   00??           01266         MOVWF   r0x100E ;id=478,key=002,inCond:10,outCond:1,flow seq=027,rIdx=r0x104F
                      01267 ;; >>> /home/sdcc-builder/build/sdcc-build/orig/sdcc/src/pic14/gen.c:1408:get_returnvalue
                      01268 ;; ***  popRegFromIdx,1030  , rIdx=0x7f
                      01269 ;; BANKOPT1 BANKSEL dropped; STK00 present in all of r0x100E's banks
001E   08??           01270         MOVF    STK00,W ;id=481,key=003,inCond:1,outCond:14,flow seq=027
                      01271 ;; >>> /home/sdcc-builder/build/sdcc-build/orig/sdcc/src/pic14/gen.c:1378:movwf
                      01272 ;;      1097 rIdx = r0x104E 
                      01273 ;; BANKOPT2 BANKSEL dropped; r0x100D present in same bank as r0x100E
001F   00??           01274         MOVWF   r0x100D ;id=484,key=004,inCond:10,outCond:1,flow seq=027,rIdx=r0x104E
                      01275 ;; >>> /home/sdcc-builder/build/sdcc-build/orig/sdcc/src/pic14/gen.c:1408:get_returnvalue
                      01276 ;; ***  popRegFromIdx,1030  , rIdx=0x7e
                      01277 ;; BANKOPT1 BANKSEL dropped; STK01 present in all of r0x100E's banks
0020   08??           01278         MOVF    STK01,W ;id=487,key=005,inCond:1,outCond:14,flow seq=027
                      01279 ;; >>> /home/sdcc-builder/build/sdcc-build/orig/sdcc/src/pic14/gen.c:1378:movwf
                      01280 ;;      1097 rIdx = r0x104D 
                      01281 ;; BANKOPT2 BANKSEL dropped; r0x100C present in same bank as r0x100E
0021   00??           01282         MOVWF   r0x100C ;id=490,key=006,inCond:10,outCond:1,flow seq=027,rIdx=r0x104D
                      01283 ;; >>> /home/sdcc-builder/build/sdcc-build/orig/sdcc/src/pic14/gen.c:1408:get_returnvalue
                      01284 ;; ***  popRegFromIdx,1030  , rIdx=0x7d
                      01285 ;; BANKOPT1 BANKSEL dropped; STK02 present in all of r0x100E's banks
0022   08??           01286         MOVF    STK02,W ;id=493,key=007,inCond:1,outCond:14,flow seq=027
                      01287 ;; >>> /home/sdcc-builder/build/sdcc-build/orig/sdcc/src/pic14/gen.c:1378:movwf
                      01288 ;;      1097 rIdx = r0x104C 
                      01289 ;; BANKOPT2 BANKSEL dropped; r0x100B present in same bank as r0x100E
0023   00??           01290         MOVWF   r0x100B ;id=1357,key=008,inCond:10,outCond:1,flow seq=027,rIdx=r0x104C
gpasm-1.5.2 #0 (Sep 16 2019) build/default/pr   9-16-2019  10:40:43         PAGE 26


LOC    OBJECT CODE    LINE  SOURCE TEXT
  VALUE

                      01291 ;; BANKOPT2 BANKSEL dropped; r0x100F present in same bank as r0x100E
0024   00??           01292         MOVWF   r0x100F ;id=512,key=009,inCond:10,outCond:1,flow seq=027,rIdx=r0x1050
                      01293 ;;; /home/sdcc-builder/build/sdcc-build/orig/sdcc/src/pic14/gen.c:2308:resultRemat *{*
                      01294 ;; ***  genPlus  607
                      01295 ;;; /home/sdcc-builder/build/sdcc-build/orig/sdcc/src/pic14/genarith.c:608:genPlus *{*
                      01296 ;;      695 register type nRegs=1
                      01297 ;;      695 register type nRegs=1
                      01298 ;;      line = 614 result AOP_REG=r0x104C, size=1, left AOP_REG=r0x1050, size=1, right AOP_LIT=0x01, siz
                            e=1
                      01299 ;;; /home/sdcc-builder/build/sdcc-build/orig/sdcc/src/pic14/genarith.c:138:genPlusIncr *{*
                      01300 ;; ***  genPlusIncr  140
                      01301 ;;      result AOP_REG, left AOP_REG, right AOP_LIT
                      01302 ;;      genPlusIncr  152
                      01303 ;;      genPlusIncr  176
                      01304 ;;      couldn't increment 
                      01305 ;;      adding lit to something. size 1
                      01306 ;;; /home/sdcc-builder/build/sdcc-build/orig/sdcc/src/pic14/genarith.c:265:genAddLit *{*
                      01307 ;; ***  genAddLit  266
                      01308 ;;  left and result aren't same genAddLit  510
                      01309 ;; >>> /home/sdcc-builder/build/sdcc-build/orig/sdcc/src/pic14/genarith.c:522:genAddLit
                      01310 ;;      1097 rIdx = r0x1050 
                      01311 ;; BANKOPT2 BANKSEL dropped; r0x100F present in same bank as r0x100E
0025   0A??           01312         INCF    r0x100F,W       ;id=531,key=00a,inCond:1,outCond:14,flow seq=027,rIdx=r0x1050
                      01313 ;;; /home/sdcc-builder/build/sdcc-build/orig/sdcc/src/pic14/genarith.c:249:emitMOVWF *{*
                      01314 ;; >>> /home/sdcc-builder/build/sdcc-build/orig/sdcc/src/pic14/genarith.c:253:emitMOVWF
                      01315 ;;      1097 rIdx = r0x104C 
                      01316 ;; BANKOPT2 BANKSEL dropped; r0x100B present in same bank as r0x100E
0026   00??           01317         MOVWF   r0x100B ;id=535,key=00b,inCond:10,outCond:1,flow seq=027,rIdx=r0x104C
                      01318 ;; ***  addSign  857
                      01319 ;;; /home/sdcc-builder/build/sdcc-build/orig/sdcc/src/pic14/genarith.c:858:addSign *{*
                      01320 ;;; /home/sdcc-builder/build/sdcc-build/orig/sdcc/src/pic14/gen.c:2308:resultRemat *{*
                      01321 ;;; /home/sdcc-builder/build/sdcc-build/orig/sdcc/src/pic14/gen.c:1664:genUminus *{*
                      01322 ;; ***  genUminus  1666
                      01323 ;;      695 register type nRegs=1
                      01324 ;; ***  aopForSym 316
                      01325 ;;      328 sym->rname = _TMR0, size = 1
                      01326 ;; >>> /home/sdcc-builder/build/sdcc-build/orig/sdcc/src/pic14/gen.c:1701:genUminus
                      01327 ;;      1097 rIdx = r0x104C 
                      01328 ;; BANKOPT2 BANKSEL dropped; r0x100B present in same bank as r0x100E
0027   09??           01329         COMF    r0x100B,W       ;id=546,key=00c,inCond:1,outCond:14,flow seq=027,rIdx=r0x104C
                      01330 ;; >>> /home/sdcc-builder/build/sdcc-build/orig/sdcc/src/pic14/gen.c:1702:genUminus
                      01331 ;;      998
                      01332 ;;      1016  _TMR0   offset=0
0028   0??? 0???      01333         BANKSEL _TMR0   ;id=1459,key=00d,inCond:0,outCond:0,flow seq=027
002A   00??           01334         MOVWF   _TMR0   ;id=550,key=00e,inCond:10,outCond:1,flow seq=027
                      01335 ;; >>> /home/sdcc-builder/build/sdcc-build/orig/sdcc/src/pic14/gen.c:1706:genUminus
                      01336 ;;      998
                      01337 ;;      1016  _TMR0   offset=0
                      01338 ;; BANKOPT2 BANKSEL dropped; _TMR0 present in same bank as _TMR0
002B   0A??           01339         INCF    _TMR0,F ;id=554,key=00f,inCond:1,outCond:5,flow seq=027
                      01340 ;<>Start of new flow, seq=0x28 ancestor = 0x27
                      01341 ;  from: 02b 027 ; to: 02a 029 
                      01342 ;;; /home/sdcc-builder/build/sdcc-build/orig/sdcc/src/pic14/gen.c:2308:resultRemat *{*
gpasm-1.5.2 #0 (Sep 16 2019) build/default/pr   9-16-2019  10:40:43         PAGE 27


LOC    OBJECT CODE    LINE  SOURCE TEXT
  VALUE

                      01343 ;;; /home/sdcc-builder/build/sdcc-build/orig/sdcc/src/pic14/gen.c:2752:genLabel *{*
                      01344 ;; ***  genLabel  2755
                      01345 ;_00119_DS_:
                      01346 ;;; /home/sdcc-builder/build/sdcc-build/orig/sdcc/src/pic14/gen.c:2308:resultRemat *{*
                      01347 ;;; /home/sdcc-builder/build/sdcc-build/orig/sdcc/src/pic14/gen.c:3938:genAnd *{*
                      01348 ;; ***  genAnd  3939
                      01349 ;; ***  aopForSym 316
                      01350 ;;      328 sym->rname = _TMR0, size = 1
                      01351 ;;      line = 3974 result AOP_CRY=0x00, size=0, left AOP_DIR=_TMR0, size=1, right AOP_LIT=0x80, size=1
                      01352 ;;; /home/sdcc-builder/build/sdcc-build/orig/sdcc/src/pic14/gen.c:3861:isLiteralBit *{*
                      01353 ;; ***  isLiteralBit  3862
                      01354 ;; >>> /home/sdcc-builder/build/sdcc-build/orig/sdcc/src/pic14/gen.c:4058:genAnd
                      01355 ;; BANKOPT3 drop assumptions: PCI with label or call found
002C                  01356 _00119_DS_:
                      01357 ;       .line   51; "../../../lib/uart.c"       while(TMR0 & (1 << 7)) {
002C   0??? 0???      01358         BANKSEL _TMR0   ;id=1462,key=000,inCond:0,outCond:0,flow seq=028
002E   1F??           01359         BTFSS   _TMR0,7 ;id=570,key=001,inCond:21,outCond:0,flow seq=028
                      01360 ;<>Start of new flow, seq=0x29 ancestor = 0x28
                      01361 ;  from: 028 ; to: 02d 
                      01362 ;; >>> /home/sdcc-builder/build/sdcc-build/orig/sdcc/src/pic14/gen.c:4059:genAnd
                      01363 ;; ***  popGetLabel  key=5, label offset 16
002F   2???           01364         GOTO    _00121_DS_      ;id=573,key=000,inCond:0,outCond:0,flow seq=029
                      01365 ;<>Start of new flow, seq=0x2a ancestor = 0x28
                      01366 ;  from: 028 ; to: 02c 02b 
                      01367 ;;; /home/sdcc-builder/build/sdcc-build/orig/sdcc/src/pic14/gen.c:2308:resultRemat *{*
                      01368 ;;; /home/sdcc-builder/build/sdcc-build/orig/sdcc/src/pic14/gen.c:2308:resultRemat *{*
                      01369 ;;; /home/sdcc-builder/build/sdcc-build/orig/sdcc/src/pic14/gen.c:7036:genAssign *{*
                      01370 ;; ***  genAssign  7037
                      01371 ;; ***  aopForSym 316
                      01372 ;;      328 sym->rname = _PIR1, size = 1
                      01373 ;;      695 register type nRegs=1
                      01374 ;;      line = 7046 result AOP_REG=r0x104C, size=1, left -=-, size=0, right AOP_DIR=_PIR1, size=1
                      01375 ;; ***  genAssign  7116
                      01376 ;; WARNING      genAssign  7125 ignoring register storage
                      01377 ;; ***  genAssign  7132
                      01378 ;;; /home/sdcc-builder/build/sdcc-build/orig/sdcc/src/pic14/gen.c:1328:mov2w_op *{*
                      01379 ;; ***  mov2w  1366  offset=0
                      01380 ;; >>> /home/sdcc-builder/build/sdcc-build/orig/sdcc/src/pic14/gen.c:1371:mov2w
                      01381 ;;      998
                      01382 ;;      1016  _PIR1   offset=0
                      01383 ;; BANKOPT2 BANKSEL dropped; _PIR1 present in same bank as _TMR0
                      01384 ;       .line   52; "../../../lib/uart.c"       if((PIR1 & 0b00100000))
0030   08??           01385         MOVF    _PIR1,W ;id=591,key=000,inCond:1,outCond:14,flow seq=02a
                      01386 ;; >>> /home/sdcc-builder/build/sdcc-build/orig/sdcc/src/pic14/gen.c:7159:genAssign
                      01387 ;;      1097 rIdx = r0x104C 
0031   0??? 0???      01388         BANKSEL r0x100B ;id=1464,key=001,inCond:0,outCond:0,flow seq=02a
0033   00??           01389         MOVWF   r0x100B ;id=594,key=002,inCond:10,outCond:1,flow seq=02a,rIdx=r0x104C
                      01390 ;;; /home/sdcc-builder/build/sdcc-build/orig/sdcc/src/pic14/gen.c:2308:resultRemat *{*
                      01391 ;;; /home/sdcc-builder/build/sdcc-build/orig/sdcc/src/pic14/gen.c:3938:genAnd *{*
                      01392 ;; ***  genAnd  3939
                      01393 ;;      695 register type nRegs=1
                      01394 ;;      line = 3974 result AOP_CRY=0x00, size=0, left AOP_REG=r0x104C, size=1, right AOP_LIT=0x20, size=
                            1
gpasm-1.5.2 #0 (Sep 16 2019) build/default/pr   9-16-2019  10:40:43         PAGE 28


LOC    OBJECT CODE    LINE  SOURCE TEXT
  VALUE

                      01395 ;;; /home/sdcc-builder/build/sdcc-build/orig/sdcc/src/pic14/gen.c:3861:isLiteralBit *{*
                      01396 ;; ***  isLiteralBit  3862
                      01397 ;; >>> /home/sdcc-builder/build/sdcc-build/orig/sdcc/src/pic14/gen.c:4058:genAnd
                      01398 ;; BANKOPT2 BANKSEL dropped; r0x100B present in same bank as r0x100B
0034   1E??           01399         BTFSS   r0x100B,5       ;id=603,key=003,inCond:21,outCond:0,flow seq=02a
                      01400 ;<>Start of new flow, seq=0x2b ancestor = 0x2a
                      01401 ;  from: 02a ; to: 028 
                      01402 ;; >>> /home/sdcc-builder/build/sdcc-build/orig/sdcc/src/pic14/gen.c:4059:genAnd
                      01403 ;; ***  popGetLabel  key=3, label offset 16
0035   2???           01404         GOTO    _00119_DS_      ;id=606,key=000,inCond:0,outCond:0,flow seq=02b
                      01405 ;<>Start of new flow, seq=0x2c ancestor = 0x2a
                      01406 ;  from: 02a ; to: 02e 
                      01407 ;;; /home/sdcc-builder/build/sdcc-build/orig/sdcc/src/pic14/gen.c:2308:resultRemat *{*
                      01408 ;;; /home/sdcc-builder/build/sdcc-build/orig/sdcc/src/pic14/gen.c:2308:resultRemat *{*
                      01409 ;;; /home/sdcc-builder/build/sdcc-build/orig/sdcc/src/pic14/gen.c:2675:genRet *{*
                      01410 ;; ***  genRet  2677
                      01411 ;;; /home/sdcc-builder/build/sdcc-build/orig/sdcc/src/pic14/gen.c:1328:mov2w_op *{*
                      01412 ;; >>> /home/sdcc-builder/build/sdcc-build/orig/sdcc/src/pic14/gen.c:1346:mov2w_op
                      01413 ;       .line   53; "../../../lib/uart.c"       return 1;
0036   3001           01414         MOVLW   0x01    ;id=614,key=000,inCond:400,outCond:10,flow seq=02c
                      01415 ;; >>> /home/sdcc-builder/build/sdcc-build/orig/sdcc/src/pic14/gen.c:2701:genRet
                      01416 ;; ***  popGetLabel  key=6, label offset 16
0037   2???           01417         GOTO    _00122_DS_      ;id=617,key=001,inCond:0,outCond:0,flow seq=02c
                      01418 ;<>Start of new flow, seq=0x2d ancestor = 0x29
                      01419 ;  from: 029 ; to: 02e 
                      01420 ;;; /home/sdcc-builder/build/sdcc-build/orig/sdcc/src/pic14/gen.c:2308:resultRemat *{*
                      01421 ;;; /home/sdcc-builder/build/sdcc-build/orig/sdcc/src/pic14/gen.c:2752:genLabel *{*
                      01422 ;; ***  genLabel  2755
                      01423 ;_00121_DS_:
                      01424 ;;; /home/sdcc-builder/build/sdcc-build/orig/sdcc/src/pic14/gen.c:2308:resultRemat *{*
                      01425 ;;; /home/sdcc-builder/build/sdcc-build/orig/sdcc/src/pic14/gen.c:2675:genRet *{*
                      01426 ;; ***  genRet  2677
                      01427 ;;; /home/sdcc-builder/build/sdcc-build/orig/sdcc/src/pic14/gen.c:1328:mov2w_op *{*
                      01428 ;; >>> /home/sdcc-builder/build/sdcc-build/orig/sdcc/src/pic14/gen.c:1346:mov2w_op
                      01429 ;; BANKOPT3 drop assumptions: PCI with label or call found
0038                  01430 _00121_DS_:
                      01431 ;       .line   56; "../../../lib/uart.c"       return 0;
0038   3000           01432         MOVLW   0x00    ;id=629,key=000,inCond:400,outCond:10,flow seq=02d
                      01433 ;<>Start of new flow, seq=0x2e ancestor = 0x2c
                      01434 ;  from: 02d 02c ; to: 
                      01435 ;;; /home/sdcc-builder/build/sdcc-build/orig/sdcc/src/pic14/gen.c:2308:resultRemat *{*
                      01436 ;;; /home/sdcc-builder/build/sdcc-build/orig/sdcc/src/pic14/gen.c:2752:genLabel *{*
                      01437 ;; ***  genLabel  2755
                      01438 ;_00122_DS_:
                      01439 ;;; /home/sdcc-builder/build/sdcc-build/orig/sdcc/src/pic14/gen.c:2308:resultRemat *{*
                      01440 ;;; /home/sdcc-builder/build/sdcc-build/orig/sdcc/src/pic14/gen.c:2520:genEndFunction *{*
                      01441 ;; ***  genEndFunction  2522
                      01442 ;return
                      01443 ;; BANKOPT3 drop assumptions: PCI with label or call found
0039                  01444 _00122_DS_:
                      01445 ;       .line   57; "../../../lib/uart.c"       }
0039   0008           01446         RETURN          ;id=640,key=000,inCond:10,outCond:e,flow seq=02e
                      01447 ;<>Start of new flow, seq=0x2f
gpasm-1.5.2 #0 (Sep 16 2019) build/default/pr   9-16-2019  10:40:43         PAGE 29


LOC    OBJECT CODE    LINE  SOURCE TEXT
  VALUE

                      01448 ;  from: ; to: 
                      01449 ; exit point of _uart_poll
                      01450 ;;; /home/sdcc-builder/build/sdcc-build/orig/sdcc/src/pic14/gen.c:7535:genpic14Code *{*
                      01451 
                      01452 ;***
                      01453 ;  pBlock Stats: dbName = C
                      01454 ;***
                      01455 ;has an exit
                      01456 ;functions called:
                      01457 ;   _uart_poll
                      01458 ;   _uart_poll
                      01459 ;4 compiler assigned registers:
                      01460 ;   r0x1010
                      01461 ;   r0x1011
                      01462 ;   r0x1012
                      01463 ;   STK00
                      01464 ;; Starting pCode block
                      01465 ;<>Start of new flow, seq=0x30 ancestor = 0x30
                      01466 ;  from: ; to: 031 
                      01467 ;;; /home/sdcc-builder/build/sdcc-build/orig/sdcc/src/pic14/gen.c:2308:resultRemat *{*
                      01468 ;;; /home/sdcc-builder/build/sdcc-build/orig/sdcc/src/pic14/gen.c:2752:genLabel *{*
                      01469 ;; ***  genLabel  2755
                      01470 ;;; /home/sdcc-builder/build/sdcc-build/orig/sdcc/src/pic14/gen.c:2308:resultRemat *{*
                      01471 ;;; /home/sdcc-builder/build/sdcc-build/orig/sdcc/src/pic14/gen.c:2332:genFunction *{*
                      01472 ;; ***  genFunction  2334 curr label offset=4previous max_key=1 
                      01473 ;;      -----------------------------------------
                      01474 ;;       function uart_getch
                      01475 ;;      -----------------------------------------
                      01476 ;_uart_getch:
                      01477 S_uart__uart_getch      code
0000                  01478 _uart_getch:
                      01479 ; 2 exit points
                      01480 ;;; /home/sdcc-builder/build/sdcc-build/orig/sdcc/src/pic14/gen.c:2308:resultRemat *{*
                      01481 ;;; /home/sdcc-builder/build/sdcc-build/orig/sdcc/src/pic14/gen.c:2308:resultRemat *{*
                      01482 ;;; /home/sdcc-builder/build/sdcc-build/orig/sdcc/src/pic14/gen.c:2071:genCall *{*
                      01483 ;; ***  genCall  2073
                      01484 ;;; /home/sdcc-builder/build/sdcc-build/orig/sdcc/src/pic14/gen.c:1786:saveRegisters *{*
                      01485 ;; ***  saveRegisters  1788
                      01486 ;;      2120 left AOP_LIT
                      01487 ;;; /home/sdcc-builder/build/sdcc-build/orig/sdcc/src/pic14/gen.c:1328:mov2w_op *{*
                      01488 ;; >>> /home/sdcc-builder/build/sdcc-build/orig/sdcc/src/pic14/gen.c:1346:mov2w_op
                      01489 ;       .line   34; "../../../lib/uart.c"       if(uart_poll(UART_TIMEOUT)) {
0000   3000           01490         MOVLW   0x00    ;id=218,key=000,inCond:400,outCond:10,flow seq=030
                      01491 ;; >>> /home/sdcc-builder/build/sdcc-build/orig/sdcc/src/pic14/gen.c:2160:genCall
0001   0??? 0???      01492         PAGESEL _uart_poll      ;id=220,key=001,inCond:0,outCond:0,flow seq=030
                      01493 ;; >>> /home/sdcc-builder/build/sdcc-build/orig/sdcc/src/pic14/gen.c:2165:genCall
                      01494 ;; BANKOPT3 drop assumptions: PCI with label or call found
0003   2???           01495         CALL    _uart_poll      ;id=222,key=002,inCond:10,outCond:1e,flow seq=030
                      01496 ;<>Start of new flow, seq=0x31 ancestor = 0x30
                      01497 ;  from: 030 ; to: 033 032 
                      01498 ;; >>> /home/sdcc-builder/build/sdcc-build/orig/sdcc/src/pic14/gen.c:2173:genCall
0004   0??? 0???      01499         PAGESEL $       ;id=224,key=000,inCond:0,outCond:0,flow seq=031
                      01500 ;;      695 register type nRegs=1
gpasm-1.5.2 #0 (Sep 16 2019) build/default/pr   9-16-2019  10:40:43         PAGE 30


LOC    OBJECT CODE    LINE  SOURCE TEXT
  VALUE

                      01501 ;;; /home/sdcc-builder/build/sdcc-build/orig/sdcc/src/pic14/gen.c:1892:assignResultValue *{*
                      01502 ;; ***  assignResultValue  1894
                      01503 ;;      line = 1896 result -=-, size=0, left AOP_REG=r0x1048, size=1, right -=-, size=0
                      01504 ;; >>> /home/sdcc-builder/build/sdcc-build/orig/sdcc/src/pic14/gen.c:1378:movwf
                      01505 ;;      1097 rIdx = r0x1048 
0006   0??? 0???      01506         BANKSEL r0x1010 ;id=1469,key=001,inCond:0,outCond:0,flow seq=031
0008   00??           01507         MOVWF   r0x1010 ;id=231,key=002,inCond:10,outCond:1,flow seq=031,rIdx=r0x1048
                      01508 ;;      2188 left AOP_REG
                      01509 ;;; /home/sdcc-builder/build/sdcc-build/orig/sdcc/src/pic14/gen.c:1830:unsaveRegisters *{*
                      01510 ;; ***  unsaveRegisters  1832
                      01511 ;;; /home/sdcc-builder/build/sdcc-build/orig/sdcc/src/pic14/gen.c:2308:resultRemat *{*
                      01512 ;;; /home/sdcc-builder/build/sdcc-build/orig/sdcc/src/pic14/gen.c:6868:genIfx *{*
                      01513 ;; ***  genIfx  6869
                      01514 ;;      695 register type nRegs=1
                      01515 ;; ***  pic14_toBoolean  1500
                      01516 ;; >>> /home/sdcc-builder/build/sdcc-build/orig/sdcc/src/pic14/gen.c:1507:pic14_toBoolean
                      01517 ;; BANKOPT2 BANKSEL dropped; r0x1010 present in same bank as r0x1010
0009   08??           01518         MOVF    r0x1010,W       ;id=1358,key=003,inCond:1,outCond:14,flow seq=031,rIdx=r0x1048
000A   1903           01519         BTFSC   STATUS,2        ;id=246,key=004,inCond:25,outCond:0,flow seq=031
                      01520 ;<>Start of new flow, seq=0x32 ancestor = 0x31
                      01521 ;  from: 031 ; to: 034 
                      01522 ;; >>> /home/sdcc-builder/build/sdcc-build/orig/sdcc/src/pic14/gen.c:6923:genIfx
                      01523 ;; ***  popGetLabel  key=2, label offset 9
000B   2???           01524         GOTO    _00111_DS_      ;id=249,key=000,inCond:0,outCond:0,flow seq=032
                      01525 ;<>Start of new flow, seq=0x33 ancestor = 0x31
                      01526 ;  from: 031 ; to: 035 
                      01527 ;;; /home/sdcc-builder/build/sdcc-build/orig/sdcc/src/pic14/gen.c:2308:resultRemat *{*
                      01528 ;;; /home/sdcc-builder/build/sdcc-build/orig/sdcc/src/pic14/gen.c:7036:genAssign *{*
                      01529 ;; ***  genAssign  7037
                      01530 ;; ***  aopForSym 316
                      01531 ;;      328 sym->rname = _RCREG, size = 1
                      01532 ;;      695 register type nRegs=1
                      01533 ;;      line = 7046 result AOP_REG=r0x1048, size=1, left -=-, size=0, right AOP_DIR=_RCREG, size=1
                      01534 ;; ***  genAssign  7116
                      01535 ;; WARNING      genAssign  7125 ignoring register storage
                      01536 ;; ***  genAssign  7132
                      01537 ;;; /home/sdcc-builder/build/sdcc-build/orig/sdcc/src/pic14/gen.c:1328:mov2w_op *{*
                      01538 ;; ***  mov2w  1366  offset=0
                      01539 ;; >>> /home/sdcc-builder/build/sdcc-build/orig/sdcc/src/pic14/gen.c:1371:mov2w
                      01540 ;;      998
                      01541 ;;      1012  _RCREG   offset=0 - had to alloc by reg name
                      01542 ;       .line   36; "../../../lib/uart.c"       ch = RCREG;
000C   0??? 0???      01543         BANKSEL _RCREG  ;id=1471,key=000,inCond:0,outCond:0,flow seq=033
000E   08??           01544         MOVF    _RCREG,W        ;id=266,key=001,inCond:1,outCond:14,flow seq=033
                      01545 ;; >>> /home/sdcc-builder/build/sdcc-build/orig/sdcc/src/pic14/gen.c:7159:genAssign
                      01546 ;;      1097 rIdx = r0x1048 
000F   0??? 0???      01547         BANKSEL r0x1010 ;id=1472,key=002,inCond:0,outCond:0,flow seq=033
0011   00??           01548         MOVWF   r0x1010 ;id=269,key=003,inCond:10,outCond:1,flow seq=033,rIdx=r0x1048
                      01549 ;;; /home/sdcc-builder/build/sdcc-build/orig/sdcc/src/pic14/gen.c:2308:resultRemat *{*
                      01550 ;;; /home/sdcc-builder/build/sdcc-build/orig/sdcc/src/pic14/gen.c:3938:genAnd *{*
                      01551 ;; ***  genAnd  3939
                      01552 ;; ***  aopForSym 316
                      01553 ;;      328 sym->rname = _PIR1, size = 1
gpasm-1.5.2 #0 (Sep 16 2019) build/default/pr   9-16-2019  10:40:43         PAGE 31


LOC    OBJECT CODE    LINE  SOURCE TEXT
  VALUE

                      01554 ;;      576
                      01555 ;;      line = 3974 result AOP_DIR=_PIR1, size=1, left AOP_DIR=_PIR1, size=1, right AOP_LIT=0xdf, size=1
                      01556 ;; >>> /home/sdcc-builder/build/sdcc-build/orig/sdcc/src/pic14/gen.c:4141:genAnd
                      01557 ;       .line   37; "../../../lib/uart.c"       PIR1 &= ~0b00100000; //  RCIF = 0;
0012   0??? 0???      01558         BANKSEL _PIR1   ;id=1473,key=004,inCond:0,outCond:0,flow seq=033
0014   12??           01559         BCF     _PIR1,5 ;id=279,key=005,inCond:21,outCond:21,flow seq=033
                      01560 ;;; /home/sdcc-builder/build/sdcc-build/orig/sdcc/src/pic14/gen.c:2308:resultRemat *{*
                      01561 ;;; /home/sdcc-builder/build/sdcc-build/orig/sdcc/src/pic14/gen.c:7229:genCast *{*
                      01562 ;; ***  genCast  7230
                      01563 ;;      695 register type nRegs=1
                      01564 ;;      695 register type nRegs=2
                      01565 ;;      line = 7238 result AOP_REG=r0x1049, size=2, left -=-, size=0, right AOP_REG=r0x1048, size=1
                      01566 ;; >>> /home/sdcc-builder/build/sdcc-build/orig/sdcc/src/pic14/gen.c:7407:genCast
                      01567 ;;      1097 rIdx = r0x1048 
                      01568 ;;101   MOVF    r0x1010,W
                      01569 ;; >>> /home/sdcc-builder/build/sdcc-build/orig/sdcc/src/pic14/gen.c:7408:genCast
                      01570 ;;      1097 rIdx = r0x1049 
                      01571 ;;99    MOVWF   r0x1011
                      01572 ;; ***  addSign  857
                      01573 ;;; /home/sdcc-builder/build/sdcc-build/orig/sdcc/src/pic14/genarith.c:858:addSign *{*
                      01574 ;; >>> /home/sdcc-builder/build/sdcc-build/orig/sdcc/src/pic14/genarith.c:877:addSign
                      01575 ;;      1097 rIdx = r0x104A 
                      01576 ;;1     CLRF    r0x1012
                      01577 ;;; /home/sdcc-builder/build/sdcc-build/orig/sdcc/src/pic14/gen.c:2308:resultRemat *{*
                      01578 ;;; /home/sdcc-builder/build/sdcc-build/orig/sdcc/src/pic14/gen.c:2675:genRet *{*
                      01579 ;; ***  genRet  2677
                      01580 ;;      695 register type nRegs=2
                      01581 ;;; /home/sdcc-builder/build/sdcc-build/orig/sdcc/src/pic14/gen.c:1328:mov2w_op *{*
                      01582 ;; ***  mov2w  1366  offset=0
                      01583 ;; >>> /home/sdcc-builder/build/sdcc-build/orig/sdcc/src/pic14/gen.c:1371:mov2w
                      01584 ;;      1097 rIdx = r0x1049 
                      01585 ;;100   MOVF    r0x1011,W
                      01586 ;       .line   38; "../../../lib/uart.c"       return (int)ch;
0015   0??? 0???      01587         BANKSEL r0x1010 ;id=1474,key=006,inCond:0,outCond:0,flow seq=033
0017   08??           01588         MOVF    r0x1010,W       ;id=1359,key=007,inCond:1,outCond:14,flow seq=033,rIdx=r0x1048
                      01589 ;; >>> /home/sdcc-builder/build/sdcc-build/orig/sdcc/src/pic14/gen.c:1401:pass_argument
                      01590 ;; ***  popRegFromIdx,1030  , rIdx=0x7f
                      01591 ;; BANKOPT1 BANKSEL dropped; STK00 present in all of r0x1010's banks
0018   00??           01592         MOVWF   STK00   ;id=309,key=008,inCond:10,outCond:1,flow seq=033
                      01593 ;;; /home/sdcc-builder/build/sdcc-build/orig/sdcc/src/pic14/gen.c:1328:mov2w_op *{*
                      01594 ;; ***  mov2w  1366  offset=1
                      01595 ;; >>> /home/sdcc-builder/build/sdcc-build/orig/sdcc/src/pic14/gen.c:1371:mov2w
                      01596 ;;      1097 rIdx = r0x104A 
0019   3000           01597         MOVLW   0x00    ;id=1363,key=009,inCond:400,outCond:10,flow seq=033
                      01598 ;; >>> /home/sdcc-builder/build/sdcc-build/orig/sdcc/src/pic14/gen.c:2701:genRet
                      01599 ;; ***  popGetLabel  key=3, label offset 9
001A   2???           01600         GOTO    _00112_DS_      ;id=317,key=00a,inCond:0,outCond:0,flow seq=033
                      01601 ;<>Start of new flow, seq=0x34 ancestor = 0x32
                      01602 ;  from: 032 ; to: 035 
                      01603 ;;; /home/sdcc-builder/build/sdcc-build/orig/sdcc/src/pic14/gen.c:2308:resultRemat *{*
                      01604 ;;; /home/sdcc-builder/build/sdcc-build/orig/sdcc/src/pic14/gen.c:2752:genLabel *{*
                      01605 ;; ***  genLabel  2755
                      01606 ;_00111_DS_:
gpasm-1.5.2 #0 (Sep 16 2019) build/default/pr   9-16-2019  10:40:43         PAGE 32


LOC    OBJECT CODE    LINE  SOURCE TEXT
  VALUE

                      01607 ;;; /home/sdcc-builder/build/sdcc-build/orig/sdcc/src/pic14/gen.c:2308:resultRemat *{*
                      01608 ;;; /home/sdcc-builder/build/sdcc-build/orig/sdcc/src/pic14/gen.c:2675:genRet *{*
                      01609 ;; ***  genRet  2677
                      01610 ;;; /home/sdcc-builder/build/sdcc-build/orig/sdcc/src/pic14/gen.c:1328:mov2w_op *{*
                      01611 ;; >>> /home/sdcc-builder/build/sdcc-build/orig/sdcc/src/pic14/gen.c:1346:mov2w_op
                      01612 ;; BANKOPT3 drop assumptions: PCI with label or call found
001B                  01613 _00111_DS_:
                      01614 ;       .line   40; "../../../lib/uart.c"       return -1;
001B   30FF           01615         MOVLW   0xff    ;id=329,key=000,inCond:400,outCond:10,flow seq=034
                      01616 ;; >>> /home/sdcc-builder/build/sdcc-build/orig/sdcc/src/pic14/gen.c:1401:pass_argument
                      01617 ;; ***  popRegFromIdx,1030  , rIdx=0x7f
                      01618 ;; BANKOPT1 BANKSEL dropped; STK00 present in all of (null)'s banks
001C   00??           01619         MOVWF   STK00   ;id=332,key=001,inCond:10,outCond:1,flow seq=034
                      01620 ;;; /home/sdcc-builder/build/sdcc-build/orig/sdcc/src/pic14/gen.c:1328:mov2w_op *{*
                      01621 ;; >>> /home/sdcc-builder/build/sdcc-build/orig/sdcc/src/pic14/gen.c:1346:mov2w_op
001D   30FF           01622         MOVLW   0xff    ;id=335,key=002,inCond:400,outCond:10,flow seq=034
                      01623 ;<>Start of new flow, seq=0x35 ancestor = 0x33
                      01624 ;  from: 034 033 ; to: 
                      01625 ;;; /home/sdcc-builder/build/sdcc-build/orig/sdcc/src/pic14/gen.c:2308:resultRemat *{*
                      01626 ;;; /home/sdcc-builder/build/sdcc-build/orig/sdcc/src/pic14/gen.c:2752:genLabel *{*
                      01627 ;; ***  genLabel  2755
                      01628 ;_00112_DS_:
                      01629 ;;; /home/sdcc-builder/build/sdcc-build/orig/sdcc/src/pic14/gen.c:2308:resultRemat *{*
                      01630 ;;; /home/sdcc-builder/build/sdcc-build/orig/sdcc/src/pic14/gen.c:2520:genEndFunction *{*
                      01631 ;; ***  genEndFunction  2522
                      01632 ;return
                      01633 ;; BANKOPT3 drop assumptions: PCI with label or call found
001E                  01634 _00112_DS_:
                      01635 ;       .line   41; "../../../lib/uart.c"       }
001E   0008           01636         RETURN          ;id=346,key=000,inCond:10,outCond:e,flow seq=035
                      01637 ;<>Start of new flow, seq=0x36
                      01638 ;  from: ; to: 
                      01639 ; exit point of _uart_getch
                      01640 ;;; /home/sdcc-builder/build/sdcc-build/orig/sdcc/src/pic14/gen.c:7535:genpic14Code *{*
                      01641 
                      01642 ;***
                      01643 ;  pBlock Stats: dbName = C
                      01644 ;***
                      01645 ;has an exit
                      01646 ;2 compiler assigned registers:
                      01647 ;   r0x1000
                      01648 ;   r0x1001
                      01649 ;; Starting pCode block
                      01650 ;<>Start of new flow, seq=0x37 ancestor = 0x37
                      01651 ;  from: ; to: 038 
                      01652 ;;; /home/sdcc-builder/build/sdcc-build/orig/sdcc/src/pic14/gen.c:2308:resultRemat *{*
                      01653 ;;; /home/sdcc-builder/build/sdcc-build/orig/sdcc/src/pic14/gen.c:2752:genLabel *{*
                      01654 ;; ***  genLabel  2755
                      01655 ;;; /home/sdcc-builder/build/sdcc-build/orig/sdcc/src/pic14/gen.c:2308:resultRemat *{*
                      01656 ;;; /home/sdcc-builder/build/sdcc-build/orig/sdcc/src/pic14/gen.c:2332:genFunction *{*
                      01657 ;; ***  genFunction  2334 curr label offset=0previous max_key=0 
                      01658 ;;      -----------------------------------------
                      01659 ;;       function uart_putch
gpasm-1.5.2 #0 (Sep 16 2019) build/default/pr   9-16-2019  10:40:43         PAGE 33


LOC    OBJECT CODE    LINE  SOURCE TEXT
  VALUE

                      01660 ;;      -----------------------------------------
                      01661 ;_uart_putch:
                      01662 S_uart__uart_putch      code
0000                  01663 _uart_putch:
                      01664 ; 2 exit points
                      01665 ;;; /home/sdcc-builder/build/sdcc-build/orig/sdcc/src/pic14/gen.c:2308:resultRemat *{*
                      01666 ;;; /home/sdcc-builder/build/sdcc-build/orig/sdcc/src/pic14/gen.c:7467:genReceive *{*
                      01667 ;; ***  genReceive  7468
                      01668 ;;      695 register type nRegs=1
                      01669 ;;; /home/sdcc-builder/build/sdcc-build/orig/sdcc/src/pic14/gen.c:1892:assignResultValue *{*
                      01670 ;; ***  assignResultValue  1894
                      01671 ;;      line = 1896 result -=-, size=0, left AOP_REG=r0x1045, size=1, right -=-, size=0
                      01672 ;; >>> /home/sdcc-builder/build/sdcc-build/orig/sdcc/src/pic14/gen.c:1378:movwf
                      01673 ;;      1097 rIdx = r0x1045 
                      01674 ;       .line   22; "../../../lib/uart.c"       uart_putch(uint8_t byte) {
0000   0??? 0???      01675         BANKSEL r0x1000 ;id=1479,key=000,inCond:0,outCond:0,flow seq=037
0002   00??           01676         MOVWF   r0x1000 ;id=125,key=001,inCond:10,outCond:1,flow seq=037,rIdx=r0x1045
                      01677 ;<>Start of new flow, seq=0x38 ancestor = 0x37
                      01678 ;  from: 039 037 ; to: 03a 039 
                      01679 ;;; /home/sdcc-builder/build/sdcc-build/orig/sdcc/src/pic14/gen.c:2308:resultRemat *{*
                      01680 ;;; /home/sdcc-builder/build/sdcc-build/orig/sdcc/src/pic14/gen.c:2752:genLabel *{*
                      01681 ;; ***  genLabel  2755
                      01682 ;_00105_DS_:
                      01683 ;;; /home/sdcc-builder/build/sdcc-build/orig/sdcc/src/pic14/gen.c:2308:resultRemat *{*
                      01684 ;;; /home/sdcc-builder/build/sdcc-build/orig/sdcc/src/pic14/gen.c:7036:genAssign *{*
                      01685 ;; ***  genAssign  7037
                      01686 ;; ***  aopForSym 316
                      01687 ;;      328 sym->rname = _PIR1, size = 1
                      01688 ;;      695 register type nRegs=1
                      01689 ;;      line = 7046 result AOP_REG=r0x1046, size=1, left -=-, size=0, right AOP_DIR=_PIR1, size=1
                      01690 ;; ***  genAssign  7116
                      01691 ;; WARNING      genAssign  7125 ignoring register storage
                      01692 ;; ***  genAssign  7132
                      01693 ;;; /home/sdcc-builder/build/sdcc-build/orig/sdcc/src/pic14/gen.c:1328:mov2w_op *{*
                      01694 ;; ***  mov2w  1366  offset=0
                      01695 ;; >>> /home/sdcc-builder/build/sdcc-build/orig/sdcc/src/pic14/gen.c:1371:mov2w
                      01696 ;;      998
                      01697 ;;      1012  _PIR1   offset=0 - had to alloc by reg name
                      01698 ;; BANKOPT3 drop assumptions: PCI with label or call found
0003                  01699 _00105_DS_:
                      01700 ;       .line   24; "../../../lib/uart.c"       while(!(PIR1 & 0b00010000)) {
0003   0??? 0???      01701         BANKSEL _PIR1   ;id=1481,key=000,inCond:0,outCond:0,flow seq=038
0005   08??           01702         MOVF    _PIR1,W ;id=147,key=001,inCond:1,outCond:14,flow seq=038
                      01703 ;; >>> /home/sdcc-builder/build/sdcc-build/orig/sdcc/src/pic14/gen.c:7159:genAssign
                      01704 ;;      1097 rIdx = r0x1046 
0006   0??? 0???      01705         BANKSEL r0x1001 ;id=1482,key=002,inCond:0,outCond:0,flow seq=038
0008   00??           01706         MOVWF   r0x1001 ;id=150,key=003,inCond:10,outCond:1,flow seq=038,rIdx=r0x1046
                      01707 ;;; /home/sdcc-builder/build/sdcc-build/orig/sdcc/src/pic14/gen.c:2308:resultRemat *{*
                      01708 ;;; /home/sdcc-builder/build/sdcc-build/orig/sdcc/src/pic14/gen.c:3938:genAnd *{*
                      01709 ;; ***  genAnd  3939
                      01710 ;;      695 register type nRegs=1
                      01711 ;;      line = 3974 result AOP_CRY=0x00, size=0, left AOP_REG=r0x1046, size=1, right AOP_LIT=0x10, size=
                            1
gpasm-1.5.2 #0 (Sep 16 2019) build/default/pr   9-16-2019  10:40:43         PAGE 34


LOC    OBJECT CODE    LINE  SOURCE TEXT
  VALUE

                      01712 ;;; /home/sdcc-builder/build/sdcc-build/orig/sdcc/src/pic14/gen.c:3861:isLiteralBit *{*
                      01713 ;; ***  isLiteralBit  3862
                      01714 ;; >>> /home/sdcc-builder/build/sdcc-build/orig/sdcc/src/pic14/gen.c:4058:genAnd
                      01715 ;; BANKOPT2 BANKSEL dropped; r0x1001 present in same bank as r0x1001
0009   1E??           01716         BTFSS   r0x1001,4       ;id=159,key=004,inCond:21,outCond:0,flow seq=038
                      01717 ;<>Start of new flow, seq=0x39 ancestor = 0x38
                      01718 ;  from: 038 ; to: 038 
                      01719 ;; >>> /home/sdcc-builder/build/sdcc-build/orig/sdcc/src/pic14/gen.c:4059:genAnd
                      01720 ;; ***  popGetLabel  key=1, label offset 4
000A   2???           01721         GOTO    _00105_DS_      ;id=162,key=000,inCond:0,outCond:0,flow seq=039
                      01722 ;<>Start of new flow, seq=0x3a ancestor = 0x38
                      01723 ;  from: 038 ; to: 
                      01724 ;;; /home/sdcc-builder/build/sdcc-build/orig/sdcc/src/pic14/gen.c:2308:resultRemat *{*
                      01725 ;;; /home/sdcc-builder/build/sdcc-build/orig/sdcc/src/pic14/gen.c:2308:resultRemat *{*
                      01726 ;;; /home/sdcc-builder/build/sdcc-build/orig/sdcc/src/pic14/gen.c:7036:genAssign *{*
                      01727 ;; ***  genAssign  7037
                      01728 ;;      695 register type nRegs=1
                      01729 ;; ***  aopForSym 316
                      01730 ;;      328 sym->rname = _TXREG, size = 1
                      01731 ;;      line = 7046 result AOP_DIR=_TXREG, size=1, left -=-, size=0, right AOP_REG=r0x1045, size=1
                      01732 ;; ***  genAssign  7132
                      01733 ;;; /home/sdcc-builder/build/sdcc-build/orig/sdcc/src/pic14/gen.c:1328:mov2w_op *{*
                      01734 ;; ***  mov2w  1366  offset=0
                      01735 ;; >>> /home/sdcc-builder/build/sdcc-build/orig/sdcc/src/pic14/gen.c:1371:mov2w
                      01736 ;;      1097 rIdx = r0x1045 
                      01737 ;; BANKOPT2 BANKSEL dropped; r0x1000 present in same bank as r0x1001
                      01738 ;       .line   28; "../../../lib/uart.c"       TXREG = (uint8_t)byte;
000B   08??           01739         MOVF    r0x1000,W       ;id=177,key=000,inCond:1,outCond:14,flow seq=03a,rIdx=r0x1045
                      01740 ;; >>> /home/sdcc-builder/build/sdcc-build/orig/sdcc/src/pic14/gen.c:7159:genAssign
                      01741 ;;      998
                      01742 ;;      1016  _TXREG   offset=0
000C   0??? 0???      01743         BANKSEL _TXREG  ;id=1485,key=001,inCond:0,outCond:0,flow seq=03a
000E   00??           01744         MOVWF   _TXREG  ;id=181,key=002,inCond:10,outCond:1,flow seq=03a
                      01745 ;;; /home/sdcc-builder/build/sdcc-build/orig/sdcc/src/pic14/gen.c:2308:resultRemat *{*
                      01746 ;;; /home/sdcc-builder/build/sdcc-build/orig/sdcc/src/pic14/gen.c:2752:genLabel *{*
                      01747 ;; ***  genLabel  2755
                      01748 ;_00108_DS_:
                      01749 ;;; /home/sdcc-builder/build/sdcc-build/orig/sdcc/src/pic14/gen.c:2308:resultRemat *{*
                      01750 ;;; /home/sdcc-builder/build/sdcc-build/orig/sdcc/src/pic14/gen.c:2520:genEndFunction *{*
                      01751 ;; ***  genEndFunction  2522
                      01752 ;return
                      01753 ;       .line   29; "../../../lib/uart.c"       }
000F   0008           01754         RETURN          ;id=192,key=003,inCond:10,outCond:e,flow seq=03a
                      01755 ;<>Start of new flow, seq=0x3b
                      01756 ;  from: ; to: 
                      01757 ; exit point of _uart_putch
                      01758 ;;; /home/sdcc-builder/build/sdcc-build/orig/sdcc/src/pic14/gen.c:7535:genpic14Code *{*
                      01759 
                      01760 
                      01761 ;       code size estimation:
                      01762 ;         153+   51 =   204 instructions (  510 byte)
                      01763 
                      01764         end
gpasm-1.5.2 #0 (Sep 16 2019) build/default/pr   9-16-2019  10:40:43         PAGE 35


SYMBOL TABLE
  LABEL                              TYPE        VALUE         VALUE          VALUE
                                                 (hex)         (dec)          (text)

ACKDT                             CONSTANT      00000005              5
ACKEN                             CONSTANT      00000004              4
ACKSTAT                           CONSTANT      00000006              6
ADCON0                            CONSTANT      0000001F             31
ADCON1                            CONSTANT      0000009F            159
ADCS0                             CONSTANT      00000006              6
ADCS1                             CONSTANT      00000007              7
ADCS2                             CONSTANT      00000006              6
ADDEN                             CONSTANT      00000003              3
ADFM                              CONSTANT      00000007              7
ADIE                              CONSTANT      00000006              6
ADIF                              CONSTANT      00000006              6
ADON                              CONSTANT      00000000              0
ADRESH                            CONSTANT      0000001E             30
ADRESL                            CONSTANT      0000009E            158
BCLIE                             CONSTANT      00000003              3
BCLIF                             CONSTANT      00000003              3
BF                                CONSTANT      00000000              0
BRGH                              CONSTANT      00000002              2
C                                 CONSTANT      00000000              0
C1INV                             CONSTANT      00000004              4
C1OUT                             CONSTANT      00000006              6
C2INV                             CONSTANT      00000005              5
C2OUT                             CONSTANT      00000007              7
CCP1CON                           CONSTANT      00000017             23
CCP1IE                            CONSTANT      00000002              2
CCP1IF                            CONSTANT      00000002              2
CCP1M0                            CONSTANT      00000000              0
CCP1M1                            CONSTANT      00000001              1
CCP1M2                            CONSTANT      00000002              2
CCP1M3                            CONSTANT      00000003              3
CCP1X                             CONSTANT      00000005              5
CCP1Y                             CONSTANT      00000004              4
CCP2CON                           CONSTANT      0000001D             29
CCP2IE                            CONSTANT      00000000              0
CCP2IF                            CONSTANT      00000000              0
CCP2M0                            CONSTANT      00000000              0
CCP2M1                            CONSTANT      00000001              1
CCP2M2                            CONSTANT      00000002              2
CCP2M3                            CONSTANT      00000003              3
CCP2X                             CONSTANT      00000005              5
CCP2Y                             CONSTANT      00000004              4
CCPR1                             CONSTANT      00000015             21
CCPR1H                            CONSTANT      00000016             22
CCPR1L                            CONSTANT      00000015             21
CCPR2                             CONSTANT      0000001B             27
CCPR2H                            CONSTANT      0000001C             28
CCPR2L                            CONSTANT      0000001B             27
CHS0                              CONSTANT      00000003              3
CHS1                              CONSTANT      00000004              4
CHS2                              CONSTANT      00000005              5
CIS                               CONSTANT      00000003              3
gpasm-1.5.2 #0 (Sep 16 2019) build/default/pr   9-16-2019  10:40:43         PAGE 36


SYMBOL TABLE
  LABEL                              TYPE        VALUE         VALUE          VALUE
                                                 (hex)         (dec)          (text)

CKE                               CONSTANT      00000006              6
CKP                               CONSTANT      00000004              4
CM0                               CONSTANT      00000000              0
CM1                               CONSTANT      00000001              1
CM2                               CONSTANT      00000002              2
CMCON                             CONSTANT      0000009C            156
CMIE                              CONSTANT      00000006              6
CMIF                              CONSTANT      00000006              6
CREN                              CONSTANT      00000004              4
CSRC                              CONSTANT      00000007              7
CVR0                              CONSTANT      00000000              0
CVR1                              CONSTANT      00000001              1
CVR2                              CONSTANT      00000002              2
CVR3                              CONSTANT      00000003              3
CVRCON                            CONSTANT      0000009D            157
CVREN                             CONSTANT      00000007              7
CVROE                             CONSTANT      00000006              6
CVRR                              CONSTANT      00000005              5
D                                 CONSTANT      00000005              5
DATA_ADDRESS                      CONSTANT      00000005              5
DC                                CONSTANT      00000001              1
D_A                               CONSTANT      00000005              5
D_NOT_A                           CONSTANT      00000005              5
EEADR                             CONSTANT      0000010D            269
EEADRH                            CONSTANT      0000010F            271
EECON1                            CONSTANT      0000018C            396
EECON2                            CONSTANT      0000018D            397
EEDATA                            CONSTANT      0000010C            268
EEDATH                            CONSTANT      0000010E            270
EEIE                              CONSTANT      00000004              4
EEIF                              CONSTANT      00000004              4
EEPGD                             CONSTANT      00000007              7
F                                 CONSTANT      00000001              1
FERR                              CONSTANT      00000002              2
FSR                               CONSTANT      00000004              4
GCEN                              CONSTANT      00000007              7
GIE                               CONSTANT      00000007              7
GO                                CONSTANT      00000002              2
GO_DONE                           CONSTANT      00000002              2
GO_NOT_DONE                       CONSTANT      00000002              2
I2C_DATA                          CONSTANT      00000005              5
I2C_READ                          CONSTANT      00000002              2
I2C_START                         CONSTANT      00000003              3
I2C_STOP                          CONSTANT      00000004              4
INDF                              CONSTANT      00000000              0
INTCON                            CONSTANT      0000000B             11
INTE                              CONSTANT      00000004              4
INTEDG                            CONSTANT      00000006              6
INTF                              CONSTANT      00000001              1
IRP                               CONSTANT      00000007              7
NOT_A                             CONSTANT      00000005              5
NOT_ADDRESS                       CONSTANT      00000005              5
gpasm-1.5.2 #0 (Sep 16 2019) build/default/pr   9-16-2019  10:40:43         PAGE 37


SYMBOL TABLE
  LABEL                              TYPE        VALUE         VALUE          VALUE
                                                 (hex)         (dec)          (text)

NOT_BO                            CONSTANT      00000000              0
NOT_BOR                           CONSTANT      00000000              0
NOT_DONE                          CONSTANT      00000002              2
NOT_PD                            CONSTANT      00000003              3
NOT_POR                           CONSTANT      00000001              1
NOT_RBPU                          CONSTANT      00000007              7
NOT_RC8                           CONSTANT      00000006              6
NOT_T1SYNC                        CONSTANT      00000002              2
NOT_TO                            CONSTANT      00000004              4
NOT_TX8                           CONSTANT      00000006              6
NOT_W                             CONSTANT      00000002              2
NOT_WRITE                         CONSTANT      00000002              2
OERR                              CONSTANT      00000001              1
OPTION_REG                        CONSTANT      00000081            129
P                                 CONSTANT      00000004              4
PCFG0                             CONSTANT      00000000              0
PCFG1                             CONSTANT      00000001              1
PCFG2                             CONSTANT      00000002              2
PCFG3                             CONSTANT      00000003              3
PCL                               CONSTANT      00000002              2
PCLATH                            CONSTANT      0000000A             10
PCON                              CONSTANT      0000008E            142
PEIE                              CONSTANT      00000006              6
PEN                               CONSTANT      00000002              2
PIE1                              CONSTANT      0000008C            140
PIE2                              CONSTANT      0000008D            141
PIR1                              CONSTANT      0000000C             12
PIR2                              CONSTANT      0000000D             13
PORTA                             CONSTANT      00000005              5
PORTB                             CONSTANT      00000006              6
PORTC                             CONSTANT      00000007              7
PR2                               CONSTANT      00000092            146
PS0                               CONSTANT      00000000              0
PS1                               CONSTANT      00000001              1
PS2                               CONSTANT      00000002              2
PSA                               CONSTANT      00000003              3
PSAVE                             EXTERNAL      00000000              0
R                                 CONSTANT      00000002              2
RA0                               CONSTANT      00000000              0
RA1                               CONSTANT      00000001              1
RA2                               CONSTANT      00000002              2
RA3                               CONSTANT      00000003              3
RA4                               CONSTANT      00000004              4
RA5                               CONSTANT      00000005              5
RB0                               CONSTANT      00000000              0
RB1                               CONSTANT      00000001              1
RB2                               CONSTANT      00000002              2
RB3                               CONSTANT      00000003              3
RB4                               CONSTANT      00000004              4
RB5                               CONSTANT      00000005              5
RB6                               CONSTANT      00000006              6
RB7                               CONSTANT      00000007              7
gpasm-1.5.2 #0 (Sep 16 2019) build/default/pr   9-16-2019  10:40:43         PAGE 38


SYMBOL TABLE
  LABEL                              TYPE        VALUE         VALUE          VALUE
                                                 (hex)         (dec)          (text)

RBIE                              CONSTANT      00000003              3
RBIF                              CONSTANT      00000000              0
RC0                               CONSTANT      00000000              0
RC1                               CONSTANT      00000001              1
RC2                               CONSTANT      00000002              2
RC3                               CONSTANT      00000003              3
RC4                               CONSTANT      00000004              4
RC5                               CONSTANT      00000005              5
RC6                               CONSTANT      00000006              6
RC7                               CONSTANT      00000007              7
RC8_9                             CONSTANT      00000006              6
RC9                               CONSTANT      00000006              6
RCD8                              CONSTANT      00000000              0
RCEN                              CONSTANT      00000003              3
RCIE                              CONSTANT      00000005              5
RCIF                              CONSTANT      00000005              5
RCREG                             CONSTANT      0000001A             26
RCSTA                             CONSTANT      00000018             24
RD                                CONSTANT      00000000              0
READ_WRITE                        CONSTANT      00000002              2
RP0                               CONSTANT      00000005              5
RP1                               CONSTANT      00000006              6
RSEN                              CONSTANT      00000001              1
RX9                               CONSTANT      00000006              6
RX9D                              CONSTANT      00000000              0
R_NOT_W                           CONSTANT      00000002              2
R_W                               CONSTANT      00000002              2
S                                 CONSTANT      00000003              3
SEN                               CONSTANT      00000000              0
SMP                               CONSTANT      00000007              7
SPBRG                             CONSTANT      00000099            153
SPEN                              CONSTANT      00000007              7
SREN                              CONSTANT      00000005              5
SSAVE                             EXTERNAL      00000000              0
SSPADD                            CONSTANT      00000093            147
SSPBUF                            CONSTANT      00000013             19
SSPCON                            CONSTANT      00000014             20
SSPCON2                           CONSTANT      00000091            145
SSPEN                             CONSTANT      00000005              5
SSPIE                             CONSTANT      00000003              3
SSPIF                             CONSTANT      00000003              3
SSPM0                             CONSTANT      00000000              0
SSPM1                             CONSTANT      00000001              1
SSPM2                             CONSTANT      00000002              2
SSPM3                             CONSTANT      00000003              3
SSPOV                             CONSTANT      00000006              6
SSPSTAT                           CONSTANT      00000094            148
STATUS                            CONSTANT      00000003              3
STK00                             EXTERNAL      00000000              0
STK01                             EXTERNAL      00000000              0
STK02                             EXTERNAL      00000000              0
STK03                             EXTERNAL      00000000              0
gpasm-1.5.2 #0 (Sep 16 2019) build/default/pr   9-16-2019  10:40:43         PAGE 39


SYMBOL TABLE
  LABEL                              TYPE        VALUE         VALUE          VALUE
                                                 (hex)         (dec)          (text)

STK04                             EXTERNAL      00000000              0
STK05                             EXTERNAL      00000000              0
STK06                             EXTERNAL      00000000              0
STK07                             EXTERNAL      00000000              0
STK08                             EXTERNAL      00000000              0
STK09                             EXTERNAL      00000000              0
STK10                             EXTERNAL      00000000              0
STK11                             EXTERNAL      00000000              0
STK12                             EXTERNAL      00000000              0
SYNC                              CONSTANT      00000004              4
T0CS                              CONSTANT      00000005              5
T0IE                              CONSTANT      00000005              5
T0IF                              CONSTANT      00000002              2
T0SE                              CONSTANT      00000004              4
T1CKPS0                           CONSTANT      00000004              4
T1CKPS1                           CONSTANT      00000005              5
T1CON                             CONSTANT      00000010             16
T1INSYNC                          CONSTANT      00000002              2
T1OSCEN                           CONSTANT      00000003              3
T1SYNC                            CONSTANT      00000002              2
T2CKPS0                           CONSTANT      00000000              0
T2CKPS1                           CONSTANT      00000001              1
T2CON                             CONSTANT      00000012             18
TMR0                              CONSTANT      00000001              1
TMR0IE                            CONSTANT      00000005              5
TMR0IF                            CONSTANT      00000002              2
TMR1                              CONSTANT      0000000E             14
TMR1CS                            CONSTANT      00000001              1
TMR1H                             CONSTANT      0000000F             15
TMR1IE                            CONSTANT      00000000              0
TMR1IF                            CONSTANT      00000000              0
TMR1L                             CONSTANT      0000000E             14
TMR1ON                            CONSTANT      00000000              0
TMR2                              CONSTANT      00000011             17
TMR2IE                            CONSTANT      00000001              1
TMR2IF                            CONSTANT      00000001              1
TMR2ON                            CONSTANT      00000002              2
TOUTPS0                           CONSTANT      00000003              3
TOUTPS1                           CONSTANT      00000004              4
TOUTPS2                           CONSTANT      00000005              5
TOUTPS3                           CONSTANT      00000006              6
TRISA                             CONSTANT      00000085            133
TRISA0                            CONSTANT      00000000              0
TRISA1                            CONSTANT      00000001              1
TRISA2                            CONSTANT      00000002              2
TRISA3                            CONSTANT      00000003              3
TRISA4                            CONSTANT      00000004              4
TRISA5                            CONSTANT      00000005              5
TRISB                             CONSTANT      00000086            134
TRISB0                            CONSTANT      00000000              0
TRISB1                            CONSTANT      00000001              1
TRISB2                            CONSTANT      00000002              2
gpasm-1.5.2 #0 (Sep 16 2019) build/default/pr   9-16-2019  10:40:43         PAGE 40


SYMBOL TABLE
  LABEL                              TYPE        VALUE         VALUE          VALUE
                                                 (hex)         (dec)          (text)

TRISB3                            CONSTANT      00000003              3
TRISB4                            CONSTANT      00000004              4
TRISB5                            CONSTANT      00000005              5
TRISB6                            CONSTANT      00000006              6
TRISB7                            CONSTANT      00000007              7
TRISC                             CONSTANT      00000087            135
TRISC0                            CONSTANT      00000000              0
TRISC1                            CONSTANT      00000001              1
TRISC2                            CONSTANT      00000002              2
TRISC3                            CONSTANT      00000003              3
TRISC4                            CONSTANT      00000004              4
TRISC5                            CONSTANT      00000005              5
TRISC6                            CONSTANT      00000006              6
TRISC7                            CONSTANT      00000007              7
TRMT                              CONSTANT      00000001              1
TX8_9                             CONSTANT      00000006              6
TX9                               CONSTANT      00000006              6
TX9D                              CONSTANT      00000000              0
TXD8                              CONSTANT      00000000              0
TXEN                              CONSTANT      00000005              5
TXIE                              CONSTANT      00000004              4
TXIF                              CONSTANT      00000004              4
TXREG                             CONSTANT      00000019             25
TXSTA                             CONSTANT      00000098            152
UA                                CONSTANT      00000001              1
W                                 CONSTANT      00000000              0
WCOL                              CONSTANT      00000007              7
WR                                CONSTANT      00000001              1
WREN                              CONSTANT      00000002              2
WRERR                             CONSTANT      00000003              3
WSAVE                             EXTERNAL      00000000              0
Z                                 CONSTANT      00000002              2
_00105_DS_                        ADDRESS       00000003              3
_00111_DS_                        ADDRESS       0000001B             27
_00112_DS_                        ADDRESS       0000001E             30
_00119_DS_                        ADDRESS       0000002C             44
_00121_DS_                        ADDRESS       00000038             56
_00122_DS_                        ADDRESS       00000039             57
_00128_DS_                        ADDRESS       0000000D             13
_00129_DS_                        ADDRESS       0000000E             14
_00146_DS_                        ADDRESS       00000007              7
_00149_DS_                        ADDRESS       00000025             37
_00154_DS_                        ADDRESS       00000007              7
_00157_DS_                        ADDRESS       00000025             37
_ADCON0                           EXTERNAL      00000000              0
_ADCON0bits                       EXTERNAL      00000000              0
_ADCON1                           EXTERNAL      00000000              0
_ADCON1bits                       EXTERNAL      00000000              0
_ADRESH                           EXTERNAL      00000000              0
_ADRESL                           EXTERNAL      00000000              0
_BODEN_OFF                        CONSTANT      00003FBF          16319
_BODEN_ON                         CONSTANT      00003FFF          16383
gpasm-1.5.2 #0 (Sep 16 2019) build/default/pr   9-16-2019  10:40:43         PAGE 41


SYMBOL TABLE
  LABEL                              TYPE        VALUE         VALUE          VALUE
                                                 (hex)         (dec)          (text)

_BOREN_OFF                        CONSTANT      00003FBF          16319
_BOREN_ON                         CONSTANT      00003FFF          16383
_CCP1CON                          EXTERNAL      00000000              0
_CCP1CONbits                      EXTERNAL      00000000              0
_CCP2CON                          EXTERNAL      00000000              0
_CCP2CONbits                      EXTERNAL      00000000              0
_CCPR1                            EXTERNAL      00000000              0
_CCPR1H                           EXTERNAL      00000000              0
_CCPR1L                           EXTERNAL      00000000              0
_CCPR2                            EXTERNAL      00000000              0
_CCPR2H                           EXTERNAL      00000000              0
_CCPR2L                           EXTERNAL      00000000              0
_CMCON                            EXTERNAL      00000000              0
_CMCONbits                        EXTERNAL      00000000              0
_CONFIG                           CONSTANT      00002007           8199
_CPD_OFF                          CONSTANT      00003FFF          16383
_CPD_ON                           CONSTANT      00003EFF          16127
_CP_ALL                           CONSTANT      00001FFF           8191
_CP_OFF                           CONSTANT      00003FFF          16383
_CP_ON                            CONSTANT      00001FFF           8191
_CVRCON                           EXTERNAL      00000000              0
_CVRCONbits                       EXTERNAL      00000000              0
_DEBUG_OFF                        CONSTANT      00003FFF          16383
_DEBUG_ON                         CONSTANT      000037FF          14335
_DEVID1                           CONSTANT      00002006           8198
_Delay1KTCYx                      EXTERNAL      00000000              0
_Delay10KTCYx                     EXTERNAL      00000000              0
_Delay10TCYx                      EXTERNAL      00000000              0
_Delay100TCYx                     EXTERNAL      00000000              0
_EEADR                            EXTERNAL      00000000              0
_EEADRH                           EXTERNAL      00000000              0
_EECON1                           EXTERNAL      00000000              0
_EECON1bits                       EXTERNAL      00000000              0
_EECON2                           EXTERNAL      00000000              0
_EEDATA                           EXTERNAL      00000000              0
_EEDATH                           EXTERNAL      00000000              0
_FOSC_EXTRC                       CONSTANT      00003FFF          16383
_FOSC_HS                          CONSTANT      00003FFE          16382
_FOSC_LP                          CONSTANT      00003FFC          16380
_FOSC_XT                          CONSTANT      00003FFD          16381
_FSR                              EXTERNAL      00000000              0
_HS_OSC                           CONSTANT      00003FFE          16382
_IDLOC0                           CONSTANT      00002000           8192
_IDLOC1                           CONSTANT      00002001           8193
_IDLOC2                           CONSTANT      00002002           8194
_IDLOC3                           CONSTANT      00002003           8195
_INDF                             EXTERNAL      00000000              0
_INTCON                           EXTERNAL      00000000              0
_INTCONbits                       EXTERNAL      00000000              0
_LP_OSC                           CONSTANT      00003FFC          16380
_LVP_OFF                          CONSTANT      00003F7F          16255
_LVP_ON                           CONSTANT      00003FFF          16383
gpasm-1.5.2 #0 (Sep 16 2019) build/default/pr   9-16-2019  10:40:43         PAGE 42


SYMBOL TABLE
  LABEL                              TYPE        VALUE         VALUE          VALUE
                                                 (hex)         (dec)          (text)

_OPTION_REG                       EXTERNAL      00000000              0
_OPTION_REGbits                   EXTERNAL      00000000              0
_PCL                              EXTERNAL      00000000              0
_PCLATH                           EXTERNAL      00000000              0
_PCON                             EXTERNAL      00000000              0
_PCONbits                         EXTERNAL      00000000              0
_PIE1                             EXTERNAL      00000000              0
_PIE1bits                         EXTERNAL      00000000              0
_PIE2                             EXTERNAL      00000000              0
_PIE2bits                         EXTERNAL      00000000              0
_PIR1                             EXTERNAL      00000000              0
_PIR1bits                         EXTERNAL      00000000              0
_PIR2                             EXTERNAL      00000000              0
_PIR2bits                         EXTERNAL      00000000              0
_PORTA                            EXTERNAL      00000000              0
_PORTAbits                        EXTERNAL      00000000              0
_PORTB                            EXTERNAL      00000000              0
_PORTBbits                        EXTERNAL      00000000              0
_PORTC                            EXTERNAL      00000000              0
_PORTCbits                        EXTERNAL      00000000              0
_PR2                              EXTERNAL      00000000              0
_PWRTE_OFF                        CONSTANT      00003FFF          16383
_PWRTE_ON                         CONSTANT      00003FF7          16375
_RCREG                            EXTERNAL      00000000              0
_RCSTA                            EXTERNAL      00000000              0
_RCSTAbits                        EXTERNAL      00000000              0
_RC_OSC                           CONSTANT      00003FFF          16383
_SPBRG                            EXTERNAL      00000000              0
_SSPADD                           EXTERNAL      00000000              0
_SSPBUF                           EXTERNAL      00000000              0
_SSPCON                           EXTERNAL      00000000              0
_SSPCON2                          EXTERNAL      00000000              0
_SSPCON2bits                      EXTERNAL      00000000              0
_SSPCONbits                       EXTERNAL      00000000              0
_SSPSTAT                          EXTERNAL      00000000              0
_SSPSTATbits                      EXTERNAL      00000000              0
_STATUS                           EXTERNAL      00000000              0
_STATUSbits                       EXTERNAL      00000000              0
_S_uart__uart_getch_0004          ADDRESS       00000004              4
_S_uart__uart_init_0016           ADDRESS       00000016             22
_S_uart__uart_poll_0019           ADDRESS       00000019             25
_S_uart__uart_puts2_0011          ADDRESS       00000011             17
_S_uart__uart_puts2_0022          ADDRESS       00000022             34
_S_uart__uart_puts_0011           ADDRESS       00000011             17
_S_uart__uart_puts_0022           ADDRESS       00000022             34
_T1CON                            EXTERNAL      00000000              0
_T1CONbits                        EXTERNAL      00000000              0
_T2CON                            EXTERNAL      00000000              0
_T2CONbits                        EXTERNAL      00000000              0
_TMR0                             EXTERNAL      00000000              0
_TMR1                             EXTERNAL      00000000              0
_TMR1H                            EXTERNAL      00000000              0
gpasm-1.5.2 #0 (Sep 16 2019) build/default/pr   9-16-2019  10:40:43         PAGE 43


SYMBOL TABLE
  LABEL                              TYPE        VALUE         VALUE          VALUE
                                                 (hex)         (dec)          (text)

_TMR1L                            EXTERNAL      00000000              0
_TMR2                             EXTERNAL      00000000              0
_TRISA                            EXTERNAL      00000000              0
_TRISAbits                        EXTERNAL      00000000              0
_TRISB                            EXTERNAL      00000000              0
_TRISBbits                        EXTERNAL      00000000              0
_TRISC                            EXTERNAL      00000000              0
_TRISCbits                        EXTERNAL      00000000              0
_TXREG                            EXTERNAL      00000000              0
_TXSTA                            EXTERNAL      00000000              0
_TXSTAbits                        EXTERNAL      00000000              0
_WDTE_OFF                         CONSTANT      00003FFB          16379
_WDTE_ON                          CONSTANT      00003FFF          16383
_WDT_OFF                          CONSTANT      00003FFB          16379
_WDT_ON                           CONSTANT      00003FFF          16383
_WRT_1FOURTH                      CONSTANT      00003BFF          15359
_WRT_256                          CONSTANT      00003DFF          15871
_WRT_HALF                         CONSTANT      000039FF          14847
_WRT_OFF                          CONSTANT      00003FFF          16383
_XT_OSC                           CONSTANT      00003FFD          16381
__14_BIT                          CONSTANT      00000001              1
__16F876A                         CONSTANT      00000001              1
__ACTIVE_BANK_ADDR                VARIABLE      FFFFFFFF             -1
__ACTIVE_PAGE_ADDR                VARIABLE      FFFFFFFF             -1
__ASSUMED_BANK_ADDR               VARIABLE      FFFFFFFF             -1
__BANK_0                          CONSTANT      00000000              0
__BANK_1                          CONSTANT      00000080            128
__BANK_2                          CONSTANT      00000100            256
__BANK_3                          CONSTANT      00000180            384
__BANK_BITS                       CONSTANT      00000180            384
__BANK_FIRST                      CONSTANT      00000000              0
__BANK_INV                        CONSTANT      FFFFFFFF             -1
__BANK_LAST                       CONSTANT      00000180            384
__BANK_MASK                       CONSTANT      0000007F            127
__BANK_SHIFT                      CONSTANT      00000007              7
__BANK_SIZE                       CONSTANT      00000080            128
__CODE_END                        CONSTANT      00001FFF           8191
__CODE_START                      CONSTANT      00000000              0
__COMMON_RAM_END                  CONSTANT      0000007F            127
__COMMON_RAM_START                CONSTANT      00000070            112
__CONFIG_END                      CONSTANT      00002007           8199
__CONFIG_START                    CONSTANT      00002007           8199
__EEPROM_END                      CONSTANT      000021FF           8703
__EEPROM_START                    CONSTANT      00002100           8448
__GPUTILS_SVN_VERSION             CONSTANT      00000000              0
__GPUTILS_VERSION_MAJOR           CONSTANT      00000001              1
__GPUTILS_VERSION_MICRO           CONSTANT      00000002              2
__GPUTILS_VERSION_MINOR           CONSTANT      00000005              5
__IDLOCS_END                      CONSTANT      00002003           8195
__IDLOCS_START                    CONSTANT      00002000           8192
__NUM_BANKS                       CONSTANT      00000004              4
__NUM_PAGES                       CONSTANT      00000004              4
gpasm-1.5.2 #0 (Sep 16 2019) build/default/pr   9-16-2019  10:40:43         PAGE 44


SYMBOL TABLE
  LABEL                              TYPE        VALUE         VALUE          VALUE
                                                 (hex)         (dec)          (text)

__PAGE_0                          CONSTANT      00000000              0
__PAGE_1                          CONSTANT      00000800           2048
__PAGE_2                          CONSTANT      00001000           4096
__PAGE_3                          CONSTANT      00001800           6144
__PAGE_BITS                       CONSTANT      00001800           6144
__PAGE_FIRST                      CONSTANT      00000000              0
__PAGE_INV                        CONSTANT      FFFFFFFF             -1
__PAGE_LAST                       CONSTANT      00001800           6144
__PAGE_MASK                       CONSTANT      000007FF           2047
__PAGE_SHIFT                      CONSTANT      0000000B             11
__PAGE_SIZE                       CONSTANT      00000800           2048
__VECTOR_INT                      CONSTANT      00000004              4
__VECTOR_RESET                    CONSTANT      00000000              0
__WHILE_LOOP_COUNT_MAX            CONSTANT      000000FF            255
___fs2schar                       EXTERNAL      00000000              0
___fs2sint                        EXTERNAL      00000000              0
___fs2slong                       EXTERNAL      00000000              0
___fs2uchar                       EXTERNAL      00000000              0
___fs2uint                        EXTERNAL      00000000              0
___fs2ulong                       EXTERNAL      00000000              0
___fsadd                          EXTERNAL      00000000              0
___fsdiv                          EXTERNAL      00000000              0
___fseq                           EXTERNAL      00000000              0
___fsgt                           EXTERNAL      00000000              0
___fslt                           EXTERNAL      00000000              0
___fsmul                          EXTERNAL      00000000              0
___fssub                          EXTERNAL      00000000              0
___schar2fs                       EXTERNAL      00000000              0
___sint2fs                        EXTERNAL      00000000              0
___slong2fs                       EXTERNAL      00000000              0
___uchar2fs                       EXTERNAL      00000000              0
___uint2fs                        EXTERNAL      00000000              0
___ulong2fs                       EXTERNAL      00000000              0
__divslong                        EXTERNAL      00000000              0
__gptrget1                        EXTERNAL      00000000              0
_cycle_eater                      EXTERNAL      00000000              0
_delay_ms                         EXTERNAL      00000000              0
_delay_us                         EXTERNAL      00000000              0
_dvar                             EXTERNAL      00000000              0
_uart_brg                         GLOBAL        00000000              0
_uart_disable                     GLOBAL        00000000              0
_uart_enable                      GLOBAL        00000000              0
_uart_getch                       GLOBAL        00000000              0
_uart_init                        GLOBAL        00000000              0
_uart_isr                         GLOBAL        00000000              0
_uart_poll                        GLOBAL        00000000              0
_uart_putch                       GLOBAL        00000000              0
_uart_puts                        GLOBAL        00000000              0
_uart_puts2                       GLOBAL        00000000              0
r0x100A                           STATIC        00000008              8
r0x100B                           STATIC        00000003              3
r0x100C                           STATIC        00000004              4
gpasm-1.5.2 #0 (Sep 16 2019) build/default/pr   9-16-2019  10:40:43         PAGE 45


SYMBOL TABLE
  LABEL                              TYPE        VALUE         VALUE          VALUE
                                                 (hex)         (dec)          (text)

r0x100D                           STATIC        00000005              5
r0x100E                           STATIC        00000006              6
r0x100F                           STATIC        00000007              7
r0x1000                           STATIC        00000000              0
r0x1001                           STATIC        00000001              1
r0x1002                           STATIC        0000000F             15
r0x1003                           STATIC        0000000E             14
r0x1004                           STATIC        0000000D             13
r0x1005                           STATIC        00000010             16
r0x1006                           STATIC        0000000B             11
r0x1007                           STATIC        0000000A             10
r0x1008                           STATIC        00000009              9
r0x1009                           STATIC        0000000C             12
r0x1010                           STATIC        00000002              2

Errors   :     0
Warnings :     0 reported,     0 suppressed
Messages :     0 reported,     0 suppressed

