

Microchip Technology PIC PRO Macro Assembler V1.34 build -361300703 
                                                                                               Thu Sep 05 11:51:10 2019

Microchip Technology Omniscient Code Generator (PRO mode) build 201502162209
     1                           	processor	16F876A
     2                           	opt	pw 120
     3                           	opt	pm
     4                           	psect	idataCOMMON,global,class=CODE,delta=2
     5                           	psect	strings,global,class=STRING,delta=2
     6                           	psect	nvBANK3,global,class=BANK3,space=1,delta=1
     7                           	psect	cinit,global,class=CODE,merge=1,delta=2
     8                           	psect	bssCOMMON,global,class=COMMON,space=1,delta=1
     9                           	psect	dataCOMMON,global,class=COMMON,space=1,delta=1
    10                           	psect	bssBANK1,global,class=BANK1,space=1,delta=1
    11                           	psect	bssBANK3,global,class=BANK3,space=1,delta=1
    12                           	psect	bssBANK2,global,class=BANK2,space=1,delta=1
    13                           	psect	clrtext,global,class=CODE,delta=2
    14                           	psect	cstackBANK3,global,class=BANK3,space=1,delta=1
    15                           	psect	cstackBANK1,global,class=BANK1,space=1,delta=1
    16                           	psect	cstackCOMMON,global,class=COMMON,space=1,delta=1
    17                           	psect	cstackBANK0,global,class=BANK0,space=1,delta=1
    18                           	psect	maintext,global,class=CODE,split=1,delta=2
    19                           	psect	text1,local,class=CODE,merge=1,delta=2
    20                           	psect	text2,local,class=CODE,merge=1,delta=2
    21                           	psect	text9,local,class=CODE,merge=1,delta=2
    22                           	psect	text10,local,class=CODE,merge=1,delta=2
    23                           	psect	text12,local,class=CODE,merge=1,delta=2
    24                           	psect	text14,local,class=CODE,merge=1,delta=2
    25                           	psect	text22,local,class=CODE,merge=1,delta=2
    26                           	psect	text24,local,class=CODE,merge=1,delta=2
    27                           	psect	text25,local,class=CODE,merge=1,delta=2
    28                           	psect	text28,local,class=CODE,merge=1,delta=2
    29                           	psect	text33,local,class=CODE,merge=1,delta=2
    30                           	psect	text34,local,class=CODE,merge=1,delta=2
    31                           	psect	text41,local,class=CODE,merge=1,delta=2
    32                           	psect	intentry,global,class=CODE,delta=2
    33                           	psect	functab,global,reloc=256,class=CODE,delta=2
    34                           	psect	pa_nodes,global,class=CODE,delta=2
    35                           	dabs	1,0x7E,2
    36  0000                     	;# 
    37  0001                     	;# 
    38  0002                     	;# 
    39  0003                     	;# 
    40  0004                     	;# 
    41  0005                     	;# 
    42  0006                     	;# 
    43  0007                     	;# 
    44  000A                     	;# 
    45  000B                     	;# 
    46  000C                     	;# 
    47  000D                     	;# 
    48  000E                     	;# 
    49  000E                     	;# 
    50  000F                     	;# 
    51  0010                     	;# 
    52  0011                     	;# 
    53  0012                     	;# 
    54  0013                     	;# 
    55  0014                     	;# 
    56  0015                     	;# 
    57  0015                     	;# 
    58  0016                     	;# 
    59  0017                     	;# 
    60  0018                     	;# 
    61  0019                     	;# 
    62  001A                     	;# 
    63  001B                     	;# 
    64  001B                     	;# 
    65  001C                     	;# 
    66  001D                     	;# 
    67  001E                     	;# 
    68  001F                     	;# 
    69  0081                     	;# 
    70  0085                     	;# 
    71  0086                     	;# 
    72  0087                     	;# 
    73  008C                     	;# 
    74  008D                     	;# 
    75  008E                     	;# 
    76  0091                     	;# 
    77  0092                     	;# 
    78  0093                     	;# 
    79  0094                     	;# 
    80  0098                     	;# 
    81  0099                     	;# 
    82  009C                     	;# 
    83  009D                     	;# 
    84  009E                     	;# 
    85  009F                     	;# 
    86  010C                     	;# 
    87  010D                     	;# 
    88  010E                     	;# 
    89  010F                     	;# 
    90  018C                     	;# 
    91  018D                     	;# 
    92  0000                     	;# 
    93  0001                     	;# 
    94  0002                     	;# 
    95  0003                     	;# 
    96  0004                     	;# 
    97  0005                     	;# 
    98  0006                     	;# 
    99  0007                     	;# 
   100  000A                     	;# 
   101  000B                     	;# 
   102  000C                     	;# 
   103  000D                     	;# 
   104  000E                     	;# 
   105  000E                     	;# 
   106  000F                     	;# 
   107  0010                     	;# 
   108  0011                     	;# 
   109  0012                     	;# 
   110  0013                     	;# 
   111  0014                     	;# 
   112  0015                     	;# 
   113  0015                     	;# 
   114  0016                     	;# 
   115  0017                     	;# 
   116  0018                     	;# 
   117  0019                     	;# 
   118  001A                     	;# 
   119  001B                     	;# 
   120  001B                     	;# 
   121  001C                     	;# 
   122  001D                     	;# 
   123  001E                     	;# 
   124  001F                     	;# 
   125  0081                     	;# 
   126  0085                     	;# 
   127  0086                     	;# 
   128  0087                     	;# 
   129  008C                     	;# 
   130  008D                     	;# 
   131  008E                     	;# 
   132  0091                     	;# 
   133  0092                     	;# 
   134  0093                     	;# 
   135  0094                     	;# 
   136  0098                     	;# 
   137  0099                     	;# 
   138  009C                     	;# 
   139  009D                     	;# 
   140  009E                     	;# 
   141  009F                     	;# 
   142  010C                     	;# 
   143  010D                     	;# 
   144  010E                     	;# 
   145  010F                     	;# 
   146  018C                     	;# 
   147  018D                     	;# 
   148  0000                     	;# 
   149  0001                     	;# 
   150  0002                     	;# 
   151  0003                     	;# 
   152  0004                     	;# 
   153  0005                     	;# 
   154  0006                     	;# 
   155  0007                     	;# 
   156  000A                     	;# 
   157  000B                     	;# 
   158  000C                     	;# 
   159  000D                     	;# 
   160  000E                     	;# 
   161  000E                     	;# 
   162  000F                     	;# 
   163  0010                     	;# 
   164  0011                     	;# 
   165  0012                     	;# 
   166  0013                     	;# 
   167  0014                     	;# 
   168  0015                     	;# 
   169  0015                     	;# 
   170  0016                     	;# 
   171  0017                     	;# 
   172  0018                     	;# 
   173  0019                     	;# 
   174  001A                     	;# 
   175  001B                     	;# 
   176  001B                     	;# 
   177  001C                     	;# 
   178  001D                     	;# 
   179  001E                     	;# 
   180  001F                     	;# 
   181  0081                     	;# 
   182  0085                     	;# 
   183  0086                     	;# 
   184  0087                     	;# 
   185  008C                     	;# 
   186  008D                     	;# 
   187  008E                     	;# 
   188  0091                     	;# 
   189  0092                     	;# 
   190  0093                     	;# 
   191  0094                     	;# 
   192  0098                     	;# 
   193  0099                     	;# 
   194  009C                     	;# 
   195  009D                     	;# 
   196  009E                     	;# 
   197  009F                     	;# 
   198  010C                     	;# 
   199  010D                     	;# 
   200  010E                     	;# 
   201  010F                     	;# 
   202  018C                     	;# 
   203  018D                     	;# 
   204  0000                     	;# 
   205  0001                     	;# 
   206  0002                     	;# 
   207  0003                     	;# 
   208  0004                     	;# 
   209  0005                     	;# 
   210  0006                     	;# 
   211  0007                     	;# 
   212  000A                     	;# 
   213  000B                     	;# 
   214  000C                     	;# 
   215  000D                     	;# 
   216  000E                     	;# 
   217  000E                     	;# 
   218  000F                     	;# 
   219  0010                     	;# 
   220  0011                     	;# 
   221  0012                     	;# 
   222  0013                     	;# 
   223  0014                     	;# 
   224  0015                     	;# 
   225  0015                     	;# 
   226  0016                     	;# 
   227  0017                     	;# 
   228  0018                     	;# 
   229  0019                     	;# 
   230  001A                     	;# 
   231  001B                     	;# 
   232  001B                     	;# 
   233  001C                     	;# 
   234  001D                     	;# 
   235  001E                     	;# 
   236  001F                     	;# 
   237  0081                     	;# 
   238  0085                     	;# 
   239  0086                     	;# 
   240  0087                     	;# 
   241  008C                     	;# 
   242  008D                     	;# 
   243  008E                     	;# 
   244  0091                     	;# 
   245  0092                     	;# 
   246  0093                     	;# 
   247  0094                     	;# 
   248  0098                     	;# 
   249  0099                     	;# 
   250  009C                     	;# 
   251  009D                     	;# 
   252  009E                     	;# 
   253  009F                     	;# 
   254  010C                     	;# 
   255  010D                     	;# 
   256  010E                     	;# 
   257  010F                     	;# 
   258  018C                     	;# 
   259  018D                     	;# 
   260  0000                     	;# 
   261  0001                     	;# 
   262  0002                     	;# 
   263  0003                     	;# 
   264  0004                     	;# 
   265  0005                     	;# 
   266  0006                     	;# 
   267  0007                     	;# 
   268  000A                     	;# 
   269  000B                     	;# 
   270  000C                     	;# 
   271  000D                     	;# 
   272  000E                     	;# 
   273  000E                     	;# 
   274  000F                     	;# 
   275  0010                     	;# 
   276  0011                     	;# 
   277  0012                     	;# 
   278  0013                     	;# 
   279  0014                     	;# 
   280  0015                     	;# 
   281  0015                     	;# 
   282  0016                     	;# 
   283  0017                     	;# 
   284  0018                     	;# 
   285  0019                     	;# 
   286  001A                     	;# 
   287  001B                     	;# 
   288  001B                     	;# 
   289  001C                     	;# 
   290  001D                     	;# 
   291  001E                     	;# 
   292  001F                     	;# 
   293  0081                     	;# 
   294  0085                     	;# 
   295  0086                     	;# 
   296  0087                     	;# 
   297  008C                     	;# 
   298  008D                     	;# 
   299  008E                     	;# 
   300  0091                     	;# 
   301  0092                     	;# 
   302  0093                     	;# 
   303  0094                     	;# 
   304  0098                     	;# 
   305  0099                     	;# 
   306  009C                     	;# 
   307  009D                     	;# 
   308  009E                     	;# 
   309  009F                     	;# 
   310  010C                     	;# 
   311  010D                     	;# 
   312  010E                     	;# 
   313  010F                     	;# 
   314  018C                     	;# 
   315  018D                     	;# 
   316                           
   317                           	psect	idataCOMMON
   318  0000                     __pidataCOMMON:	
   319                           
   320                           	psect	strings
   321  1800                     __pstrings:	
   322  1800                     stringtab:	
   323  1800                     __stringtab:	
   324  1800                     stringcode:	
   325                           ;	String table - string pointers are 1 byte each
   326                           
   327  1800                     stringdir:	
   328  1800  3018               	movlw	high stringdir
   329  1801  008A               	movwf	10
   330  1802  0804               	movf	4,w
   331  1803  0A84               	incf	4,f
   332  1804  0782               	addwf	2,f
   333  1805                     __stringbase:	
   334  1805  3400               	retlw	0
   335  1806                     __end_of__stringtab:	
   336  1806                     exp@coeff:	
   337  1806  3400               	retlw	0
   338  1807  3400               	retlw	0
   339  1808  3480               	retlw	128
   340  1809  343F               	retlw	63
   341  180A  3418               	retlw	24
   342  180B  3472               	retlw	114
   343  180C  3431               	retlw	49
   344  180D  343F               	retlw	63
   345  180E  34F0               	retlw	240
   346  180F  34FD               	retlw	253
   347  1810  3475               	retlw	117
   348  1811  343E               	retlw	62
   349  1812  3447               	retlw	71
   350  1813  3458               	retlw	88
   351  1814  3463               	retlw	99
   352  1815  343D               	retlw	61
   353  1816  3458               	retlw	88
   354  1817  3495               	retlw	149
   355  1818  341D               	retlw	29
   356  1819  343C               	retlw	60
   357  181A  3482               	retlw	130
   358  181B  34C4               	retlw	196
   359  181C  34AE               	retlw	174
   360  181D  343A               	retlw	58
   361  181E  34A8               	retlw	168
   362  181F  3478               	retlw	120
   363  1820  3421               	retlw	33
   364  1821  3439               	retlw	57
   365  1822  34EF               	retlw	239
   366  1823  3493               	retlw	147
   367  1824  3480               	retlw	128
   368  1825  3437               	retlw	55
   369  1826  34A0               	retlw	160
   370  1827  3492               	retlw	146
   371  1828  34A7               	retlw	167
   372  1829  3435               	retlw	53
   373  182A  3446               	retlw	70
   374  182B  3456               	retlw	86
   375  182C  3415               	retlw	21
   376  182D  3434               	retlw	52
   377  182E                     __end_ofexp@coeff:	
   378  182E                     log@coeff:	
   379  182E  3400               	retlw	0
   380  182F  3400               	retlw	0
   381  1830  3400               	retlw	0
   382  1831  3400               	retlw	0
   383  1832  34C4               	retlw	196
   384  1833  34FF               	retlw	255
   385  1834  347F               	retlw	127
   386  1835  343F               	retlw	63
   387  1836  3480               	retlw	128
   388  1837  34EF               	retlw	239
   389  1838  34FF               	retlw	255
   390  1839  34BE               	retlw	190
   391  183A  3490               	retlw	144
   392  183B  34E1               	retlw	225
   393  183C  34A9               	retlw	169
   394  183D  343E               	retlw	62
   395  183E  34EC               	retlw	236
   396  183F  3482               	retlw	130
   397  1840  3476               	retlw	118
   398  1841  34BE               	retlw	190
   399  1842  3482               	retlw	130
   400  1843  34AD               	retlw	173
   401  1844  342B               	retlw	43
   402  1845  343E               	retlw	62
   403  1846  340E               	retlw	14
   404  1847  343C               	retlw	60
   405  1848  34C3               	retlw	195
   406  1849  34BD               	retlw	189
   407  184A  3487               	retlw	135
   408  184B  34D1               	retlw	209
   409  184C  3413               	retlw	19
   410  184D  343D               	retlw	61
   411  184E  3441               	retlw	65
   412  184F  3478               	retlw	120
   413  1850  34D3               	retlw	211
   414  1851  34BB               	retlw	187
   415  1852                     __end_oflog@coeff:	
   416  1852                     STR_8:	
   417  1852  340D               	retlw	13
   418  1853  340A               	retlw	10
   419  1854  3443               	retlw	67	;'C'
   420  1855  3443               	retlw	67	;'C'
   421  1856  3461               	retlw	97	;'a'
   422  1857  346C               	retlw	108	;'l'
   423  1858  343D               	retlw	61	;'='
   424  1859  3400               	retlw	0
   425  185A                     STR_1:	
   426  185A  342E               	retlw	46	;'.'
   427  185B  342E               	retlw	46	;'.'
   428  185C  342E               	retlw	46	;'.'
   429  185D  340D               	retlw	13
   430  185E  340A               	retlw	10
   431  185F  3400               	retlw	0
   432  1860                     STR_5:	
   433  1860  340D               	retlw	13
   434  1861  340A               	retlw	10
   435  1862  3446               	retlw	70	;'F'
   436  1863  3431               	retlw	49	;'1'
   437  1864  343D               	retlw	61	;'='
   438  1865  3400               	retlw	0
   439  1866                     STR_6:	
   440  1866  340D               	retlw	13
   441  1867  340A               	retlw	10
   442  1868  3446               	retlw	70	;'F'
   443  1869  3432               	retlw	50	;'2'
   444  186A  343D               	retlw	61	;'='
   445  186B  3400               	retlw	0
   446  186C                     STR_7:	
   447  186C  340D               	retlw	13
   448  186D  340A               	retlw	10
   449  186E  3446               	retlw	70	;'F'
   450  186F  3433               	retlw	51	;'3'
   451  1870  343D               	retlw	61	;'='
   452  1871  3400               	retlw	0
   453  1872                     STR_10:	
   454  1872  3443               	retlw	67	;'C'
   455  1873  3469               	retlw	105	;'i'
   456  1874  346E               	retlw	110	;'n'
   457  1875  343D               	retlw	61	;'='
   458  1876  3400               	retlw	0
   459  1877                     STR_4:	
   460  1877  3476               	retlw	118	;'v'
   461  1878  3461               	retlw	97	;'a'
   462  1879  3472               	retlw	114	;'r'
   463  187A  343D               	retlw	61	;'='
   464  187B  3400               	retlw	0
   465  185D                     
   466                           ; #config settings
   467  0000                     
   468                           	psect	nvBANK3
   469  01DD                     __pnvBANK3:	
   470  01DD                     _CCal:	
   471  01DD                     	ds	4
   472  01E1                     _bres:	
   473  01E1                     	ds	2
   474  01E3                     _msecpart:	
   475  01E3                     	ds	2
   476  0007                     _PORTC	set	7
   477  001A                     _RCREG	set	26
   478  0001                     _TMR0	set	1
   479  0011                     _TMR2	set	17
   480  0019                     _TXREG	set	25
   481  00C4                     _CREN	set	196
   482  005F                     _GIE	set	95
   483  005E                     _PEIE	set	94
   484  003B                     _RC3	set	59
   485  003C                     _RC4	set	60
   486  003F                     _RC7	set	63
   487  0065                     _RCIF	set	101
   488  00C6                     _RX9	set	198
   489  00C7                     _SPEN	set	199
   490  00A5                     _SSPEN	set	165
   491  0090                     _T2CKPS0	set	144
   492  0091                     _T2CKPS1	set	145
   493  005A                     _TMR0IF	set	90
   494  0061                     _TMR2IF	set	97
   495  0092                     _TMR2ON	set	146
   496  0093                     _TOUTPS0	set	147
   497  0094                     _TOUTPS1	set	148
   498  0095                     _TOUTPS2	set	149
   499  0064                     _TXIF	set	100
   500  009C                     _CMCON	set	156
   501  0099                     _SPBRG	set	153
   502  0085                     _TRISA	set	133
   503  0087                     _TRISC	set	135
   504  04C2                     _BRGH	set	1218
   505  04C4                     _SYNC	set	1220
   506  040D                     _T0CS	set	1037
   507  040C                     _T0SE	set	1036
   508  0461                     _TMR2IE	set	1121
   509  0438                     _TRISC0	set	1080
   510  0439                     _TRISC1	set	1081
   511  043A                     _TRISC2	set	1082
   512  043B                     _TRISC3	set	1083
   513  043E                     _TRISC6	set	1086
   514  04C6                     _TX9	set	1222
   515  04C5                     _TXEN	set	1221
   516  0464                     _TXIE	set	1124
   517  040F                     _nRBPU	set	1039
   518                           
   519                           	psect	cinit
   520  0011                     start_initialization:	
   521  0011                     __initialization:	
   522                           
   523                           ; Clear objects allocated to COMMON
   524  0011  01F8               	clrf	__pbssCOMMON& (0+127)
   525  0012  01F9               	clrf	(__pbssCOMMON+1)& (0+127)
   526                           
   527                           ; Clear objects allocated to BANK1
   528  0013  1683               	bsf	3,5	;RP0=1, select bank1
   529  0014  01E6               	clrf	__pbssBANK1& (0+127)
   530  0015  01E7               	clrf	(__pbssBANK1+1)& (0+127)
   531  0016  01E8               	clrf	(__pbssBANK1+2)& (0+127)
   532  0017  01E9               	clrf	(__pbssBANK1+3)& (0+127)
   533  0018  01EA               	clrf	(__pbssBANK1+4)& (0+127)
   534  0019  01EB               	clrf	(__pbssBANK1+5)& (0+127)
   535  001A  01EC               	clrf	(__pbssBANK1+6)& (0+127)
   536                           
   537                           ; Clear objects allocated to BANK3
   538  001B  1783               	bsf	3,7	;select IRP bank2
   539  001C  30B7               	movlw	low __pbssBANK3
   540  001D  0084               	movwf	4
   541  001E  30DD               	movlw	low (__pbssBANK3+38)
   542  001F  120A  118A  27F2  120A  118A  	fcall	clear_ram0
   543                           
   544                           ; Clear objects allocated to BANK2
   545  0024  3010               	movlw	low __pbssBANK2
   546  0025  0084               	movwf	4
   547  0026  3020               	movlw	low (__pbssBANK2+16)
   548  0027  120A  118A  27F2   	fcall	clear_ram0
   549                           
   550                           ;initializer for _putchar_ptr
   551  002A  3007               	movlw	low (fp__format_putchar-fpbase)
   552  002B  00FA               	movwf	__pdataCOMMON& (0+127)
   553  002C                     end_of_initialization:	
   554                           ;End of C runtime variable initialization code
   555                           
   556  002C                     __end_of__initialization:	
   557  002C  0183               	clrf	3
   558  002D  120A  118A  2F42   	ljmp	_main	;jump to C main() function
   559                           
   560                           	psect	bssCOMMON
   561  0078                     __pbssCOMMON:	
   562  0078                     _txiptr:	
   563  0078                     	ds	1
   564  0079                     _txoptr:	
   565  0079                     	ds	1
   566                           
   567                           	psect	dataCOMMON
   568  007A                     __pdataCOMMON:	
   569  007A                     _putchar_ptr:	
   570  007A                     	ds	1
   571                           
   572                           	psect	bssBANK1
   573  00E6                     __pbssBANK1:	
   574  00E6                     _msecs:	
   575  00E6                     	ds	4
   576  00EA                     _rxiptr:	
   577  00EA                     	ds	1
   578  00EB                     _rxoptr:	
   579  00EB                     	ds	1
   580  00EC                     _ser_tmp:	
   581  00EC                     	ds	1
   582                           
   583                           	psect	bssBANK3
   584  01B7                     __pbssBANK3:	
   585  01B7                     _txfifo:	
   586  01B7                     	ds	16
   587  01C7                     _F2:	
   588  01C7                     	ds	4
   589  01CB                     _F3:	
   590  01CB                     	ds	4
   591  01CF                     _seconds:	
   592  01CF                     	ds	4
   593  01D3                     _timer1of:	
   594  01D3                     	ds	4
   595  01D7                     _blink:	
   596  01D7                     	ds	2
   597  01D9                     _F1:	
   598  01D9                     	ds	4
   599                           
   600                           	psect	bssBANK2
   601  0110                     __pbssBANK2:	
   602  0110                     _rxfifo:	
   603  0110                     	ds	16
   604                           
   605                           	psect	clrtext
   606  07F2                     clear_ram0:	
   607                           ;	Called with FSR containing the base address, and
   608                           ;	W with the last address+1
   609                           
   610  07F2  0064               	clrwdt	;clear the watchdog before getting into this loop
   611  07F3                     clrloop0:	
   612  07F3  0180               	clrf	0	;clear RAM location pointed to by FSR
   613  07F4  0A84               	incf	4,f	;increment pointer
   614  07F5  0604               	xorwf	4,w	;XOR with final address
   615  07F6  1903               	btfsc	3,2	;have we reached the end yet?
   616  07F7  3400               	retlw	0	;all done for this memory range, return
   617  07F8  0604               	xorwf	4,w	;XOR again to restore value
   618  07F9  2FF3               	goto	clrloop0	;do the next byte
   619                           
   620                           	psect	cstackBANK3
   621  0190                     __pcstackBANK3:	
   622  0190                     ?_format_double:	
   623  0190                     format_double@num:	
   624                           ; 0 bytes @ 0x0
   625                           
   626                           
   627                           ; 4 bytes @ 0x0
   628  0190                     	ds	4
   629  0194                     _format_double$805:	
   630                           
   631                           ; 4 bytes @ 0x4
   632  0194                     	ds	4
   633  0198                     _format_double$806:	
   634                           
   635                           ; 4 bytes @ 0x8
   636  0198                     	ds	4
   637  019C                     format_double@weight:	
   638                           
   639                           ; 4 bytes @ 0xC
   640  019C                     	ds	4
   641  01A0                     format_double@digit:	
   642                           
   643                           ; 2 bytes @ 0x10
   644  01A0                     	ds	2
   645  01A2                     format_double@m:	
   646                           
   647                           ; 2 bytes @ 0x12
   648  01A2                     	ds	2
   649  01A4                     _measure_capacitance$807:	
   650                           
   651                           ; 4 bytes @ 0x14
   652  01A4                     	ds	4
   653  01A8                     _measure_capacitance$808:	
   654                           
   655                           ; 4 bytes @ 0x18
   656  01A8                     	ds	4
   657  01AC                     _measure_capacitance$809:	
   658                           
   659                           ; 4 bytes @ 0x1C
   660  01AC                     	ds	4
   661  01B0                     measure_capacitance@unit:	
   662                           
   663                           ; 1 bytes @ 0x20
   664  01B0                     	ds	1
   665  01B1                     measure_capacitance@var:	
   666                           
   667                           ; 2 bytes @ 0x21
   668  01B1                     	ds	2
   669  01B3                     measure_capacitance@Cin:	
   670                           
   671                           ; 4 bytes @ 0x23
   672  01B3                     	ds	4
   673                           
   674                           	psect	cstackBANK1
   675  00A0                     __pcstackBANK1:	
   676  00A0                     ?_ldexp:	
   677  00A0                     log@exponent:	
   678                           ; 4 bytes @ 0x0
   679                           
   680  00A0                     ldexp@value:	
   681                           ; 2 bytes @ 0x0
   682                           
   683                           
   684                           ; 4 bytes @ 0x0
   685  00A0                     	ds	2
   686  00A2                     ?_log10:	
   687  00A2                     log10@x:	
   688                           ; 4 bytes @ 0x2
   689                           
   690                           
   691                           ; 4 bytes @ 0x2
   692  00A2                     	ds	2
   693  00A4                     ldexp@newexp:	
   694                           
   695                           ; 2 bytes @ 0x4
   696  00A4                     	ds	2
   697  00A6                     _ldexp$495:	
   698  00A6                     _log10$817:	
   699                           ; 4 bytes @ 0x6
   700                           
   701                           
   702                           ; 4 bytes @ 0x6
   703  00A6                     	ds	4
   704  00AA                     ?___fltol:	
   705  00AA                     ___fltol@f1:	
   706                           ; 4 bytes @ 0xA
   707                           
   708                           
   709                           ; 4 bytes @ 0xA
   710  00AA                     	ds	4
   711  00AE                     ??___fltol:	
   712                           
   713                           ; 0 bytes @ 0xE
   714  00AE                     	ds	4
   715  00B2                     ___fltol@sign1:	
   716                           
   717                           ; 1 bytes @ 0x12
   718  00B2                     	ds	1
   719  00B3                     ___fltol@exp1:	
   720                           
   721                           ; 1 bytes @ 0x13
   722  00B3                     	ds	1
   723  00B4                     ?___altofl:	
   724  00B4                     measure_inductance@numerator:	
   725                           ; 4 bytes @ 0x14
   726                           
   727  00B4                     ___altofl@c:	
   728                           ; 4 bytes @ 0x14
   729                           
   730                           
   731                           ; 4 bytes @ 0x14
   732  00B4                     	ds	4
   733  00B8                     ?_floor:	
   734  00B8                     measure_inductance@denominator:	
   735                           ; 4 bytes @ 0x18
   736                           
   737  00B8                     floor@x:	
   738                           ; 4 bytes @ 0x18
   739                           
   740                           
   741                           ; 4 bytes @ 0x18
   742  00B8                     	ds	4
   743  00BC                     floor@i:	
   744  00BC                     _measure_inductance$810:	
   745                           ; 4 bytes @ 0x1C
   746                           
   747                           
   748                           ; 4 bytes @ 0x1C
   749  00BC                     	ds	4
   750  00C0                     floor@expon:	
   751  00C0                     _measure_inductance$814:	
   752                           ; 2 bytes @ 0x20
   753                           
   754                           
   755                           ; 4 bytes @ 0x20
   756  00C0                     	ds	2
   757  00C2                     ?_exp:	
   758  00C2                     exp@x:	
   759                           ; 4 bytes @ 0x22
   760                           
   761                           
   762                           ; 4 bytes @ 0x22
   763  00C2                     	ds	2
   764  00C4                     _measure_inductance$815:	
   765                           
   766                           ; 4 bytes @ 0x24
   767  00C4                     	ds	2
   768  00C6                     _exp$820:	
   769                           
   770                           ; 4 bytes @ 0x26
   771  00C6                     	ds	2
   772  00C8                     _measure_inductance$816:	
   773                           
   774                           ; 4 bytes @ 0x28
   775  00C8                     	ds	2
   776  00CA                     _exp$589:	
   777                           
   778                           ; 4 bytes @ 0x2A
   779  00CA                     	ds	2
   780  00CC                     measure_inductance@unit:	
   781                           
   782                           ; 1 bytes @ 0x2C
   783  00CC                     	ds	1
   784  00CD                     _measure_inductance$811:	
   785                           
   786                           ; 4 bytes @ 0x2D
   787  00CD                     	ds	1
   788  00CE                     exp@exponent:	
   789                           
   790                           ; 2 bytes @ 0x2E
   791  00CE                     	ds	2
   792  00D0                     exp@sign:	
   793                           
   794                           ; 1 bytes @ 0x30
   795  00D0                     	ds	1
   796  00D1                     ?_pow:	
   797  00D1                     pow@x:	
   798                           ; 4 bytes @ 0x31
   799                           
   800  00D1                     _measure_inductance$812:	
   801                           ; 4 bytes @ 0x31
   802                           
   803                           
   804                           ; 4 bytes @ 0x31
   805  00D1                     	ds	4
   806  00D5                     pow@y:	
   807  00D5                     _measure_inductance$813:	
   808                           ; 4 bytes @ 0x35
   809                           
   810                           
   811                           ; 4 bytes @ 0x35
   812  00D5                     	ds	4
   813  00D9                     measure_inductance@var:	
   814  00D9                     _pow$818:	
   815                           ; 2 bytes @ 0x39
   816                           
   817                           
   818                           ; 4 bytes @ 0x39
   819  00D9                     	ds	2
   820  00DB                     measure_inductance@Lin:	
   821                           
   822                           ; 4 bytes @ 0x3B
   823  00DB                     	ds	2
   824  00DD                     _pow$819:	
   825                           
   826                           ; 4 bytes @ 0x3D
   827  00DD                     	ds	4
   828  00E1                     pow@sign:	
   829                           
   830                           ; 1 bytes @ 0x41
   831  00E1                     	ds	1
   832  00E2                     pow@yi:	
   833                           
   834                           ; 4 bytes @ 0x42
   835  00E2                     	ds	4
   836                           
   837                           	psect	cstackCOMMON
   838  0070                     __pcstackCOMMON:	
   839  0070                     ?_calibrate:	
   840  0070                     ?_measure_capacitance:	
   841                           ; 0 bytes @ 0x0
   842                           
   843  0070                     ?_measure_inductance:	
   844                           ; 0 bytes @ 0x0
   845                           
   846  0070                     ?_print_unit:	
   847                           ; 0 bytes @ 0x0
   848                           
   849  0070                     ?_indicator:	
   850                           ; 0 bytes @ 0x0
   851                           
   852  0070                     ?_ser_puts:	
   853                           ; 0 bytes @ 0x0
   854                           
   855  0070                     ?_ser_init:	
   856                           ; 0 bytes @ 0x0
   857                           
   858  0070                     ?_timer2_init:	
   859                           ; 0 bytes @ 0x0
   860                           
   861  0070                     ??_isr:	
   862                           ; 0 bytes @ 0x0
   863                           
   864  0070                     ?_main:	
   865                           ; 0 bytes @ 0x0
   866                           
   867  0070                     ?_isr:	
   868                           ; 0 bytes @ 0x0
   869                           
   870  0070                     print_unit@unit:	
   871                           ; 2 bytes @ 0x0
   872                           
   873  0070                     indicator@indicate:	
   874                           ; 1 bytes @ 0x0
   875                           
   876                           
   877                           ; 1 bytes @ 0x0
   878  0070                     	ds	3
   879  0073                     ??___flpack:	
   880  0073                     ??_print_unit:	
   881                           ; 0 bytes @ 0x3
   882                           
   883  0073                     ?_print_reading:	
   884                           ; 0 bytes @ 0x3
   885                           
   886  0073                     ??_indicator:	
   887                           ; 0 bytes @ 0x3
   888                           
   889  0073                     ??_ser_init:	
   890                           ; 0 bytes @ 0x3
   891                           
   892  0073                     ??_timer2_init:	
   893                           ; 0 bytes @ 0x3
   894                           
   895  0073                     ??___flge:	
   896                           ; 0 bytes @ 0x3
   897                           
   898  0073                     ?_measure_freq:	
   899                           ; 0 bytes @ 0x3
   900                           
   901  0073                     ?___wmul:	
   902                           ; 2 bytes @ 0x3
   903                           
   904  0073                     ?___lwdiv:	
   905                           ; 2 bytes @ 0x3
   906                           
   907  0073                     ?___lwmod:	
   908                           ; 2 bytes @ 0x3
   909                           
   910  0073                     ?_frexp:	
   911                           ; 2 bytes @ 0x3
   912                           
   913  0073                     ?___flneg:	
   914                           ; 4 bytes @ 0x3
   915                           
   916  0073                     print_reading@measurement:	
   917                           ; 4 bytes @ 0x3
   918                           
   919  0073                     ___wmul@multiplier:	
   920                           ; 2 bytes @ 0x3
   921                           
   922  0073                     ___lwdiv@divisor:	
   923                           ; 2 bytes @ 0x3
   924                           
   925  0073                     ___lwmod@divisor:	
   926                           ; 2 bytes @ 0x3
   927                           
   928  0073                     ___flneg@f1:	
   929                           ; 2 bytes @ 0x3
   930                           
   931  0073                     frexp@value:	
   932                           ; 4 bytes @ 0x3
   933                           
   934                           
   935                           ; 4 bytes @ 0x3
   936  0073                     	ds	1
   937  0074                     ??_ser_putch:	
   938  0074                     timer2_init@ps_mode:	
   939                           ; 0 bytes @ 0x4
   940                           
   941                           
   942                           ; 1 bytes @ 0x4
   943  0074                     	ds	1
   944  0075                     ??_print_reading:	
   945  0075                     ?_ser_putch:	
   946                           ; 0 bytes @ 0x5
   947                           
   948  0075                     ?_format_putchar:	
   949                           ; 0 bytes @ 0x5
   950                           
   951  0075                     ??_format_putchar:	
   952                           ; 0 bytes @ 0x5
   953                           
   954  0075                     ?_output_putch:	
   955                           ; 0 bytes @ 0x5
   956                           
   957  0075                     ser_putch@c:	
   958                           ; 0 bytes @ 0x5
   959                           
   960  0075                     timer2_init@ps:	
   961                           ; 1 bytes @ 0x5
   962                           
   963  0075                     format_putchar@c:	
   964                           ; 1 bytes @ 0x5
   965                           
   966  0075                     output_putch@c:	
   967                           ; 1 bytes @ 0x5
   968                           
   969  0075                     ___wmul@multiplicand:	
   970                           ; 1 bytes @ 0x5
   971                           
   972  0075                     ___lwdiv@dividend:	
   973                           ; 2 bytes @ 0x5
   974                           
   975  0075                     ___lwmod@dividend:	
   976                           ; 2 bytes @ 0x5
   977                           
   978                           
   979                           ; 2 bytes @ 0x5
   980  0075                     	ds	1
   981  0076                     ??_ser_puts:	
   982  0076                     ??_output_putch:	
   983                           ; 0 bytes @ 0x6
   984                           
   985  0076                     ser_puts@s:	
   986                           ; 0 bytes @ 0x6
   987                           
   988                           
   989                           ; 1 bytes @ 0x6
   990  0076                     	ds	1
   991  0077                     ??_calibrate:	
   992  0077                     ??___wmul:	
   993                           ; 0 bytes @ 0x7
   994                           
   995  0077                     ??___awtofl:	
   996                           ; 0 bytes @ 0x7
   997                           
   998  0077                     ??___flneg:	
   999                           ; 0 bytes @ 0x7
  1000                           
  1001  0077                     ??___lltofl:	
  1002                           ; 0 bytes @ 0x7
  1003                           
  1004  0077                     ??___lwdiv:	
  1005                           ; 0 bytes @ 0x7
  1006                           
  1007  0077                     ??___lwmod:	
  1008                           ; 0 bytes @ 0x7
  1009                           
  1010  0077                     ??___lwtofl:	
  1011                           ; 0 bytes @ 0x7
  1012                           
  1013  0077                     ___awtofl@sign:	
  1014                           ; 0 bytes @ 0x7
  1015                           
  1016  0077                     frexp@eptr:	
  1017                           ; 1 bytes @ 0x7
  1018                           
  1019  0077                     ___lwmod@counter:	
  1020                           ; 1 bytes @ 0x7
  1021                           
  1022                           
  1023                           ; 1 bytes @ 0x7
  1024  0077                     	ds	1
  1025  0078                     ??_log10:	
  1026  0078                     ??_pow:	
  1027                           ; 0 bytes @ 0x8
  1028                           
  1029  0078                     ??_floor:	
  1030                           ; 0 bytes @ 0x8
  1031                           
  1032  0078                     ??_measure_capacitance:	
  1033                           ; 0 bytes @ 0x8
  1034                           
  1035  0078                     ??_measure_inductance:	
  1036                           ; 0 bytes @ 0x8
  1037                           
  1038  0078                     ??_exp:	
  1039                           ; 0 bytes @ 0x8
  1040                           
  1041  0078                     ??_format_xint32:	
  1042                           ; 0 bytes @ 0x8
  1043                           
  1044  0078                     ??_format_double:	
  1045                           ; 0 bytes @ 0x8
  1046                           
  1047  0078                     ??_main:	
  1048                           ; 0 bytes @ 0x8
  1049                           
  1050  0078                     ??___altofl:	
  1051                           ; 0 bytes @ 0x8
  1052                           
  1053  0078                     ??___flsub:	
  1054                           ; 0 bytes @ 0x8
  1055                           
  1056  0078                     ??_log:	
  1057                           ; 0 bytes @ 0x8
  1058                           
  1059                           
  1060                           	psect	cstackBANK0
  1061  0020                     __pcstackBANK0:	
  1062                           ; 0 bytes @ 0x8
  1063                           
  1064  0020                     ??_frexp:	
  1065  0020                     ??_measure_freq:	
  1066                           ; 0 bytes @ 0x0
  1067                           
  1068  0020                     ?___flge:	
  1069                           ; 0 bytes @ 0x0
  1070                           
  1071  0020                     ?___flpack:	
  1072                           ; 1 bit 
  1073                           
  1074  0020                     ___lwdiv@counter:	
  1075                           ; 4 bytes @ 0x0
  1076                           
  1077  0020                     ___wmul@product:	
  1078                           ; 1 bytes @ 0x0
  1079                           
  1080  0020                     ___flpack@arg:	
  1081                           ; 2 bytes @ 0x0
  1082                           
  1083  0020                     ___flge@ff1:	
  1084                           ; 4 bytes @ 0x0
  1085                           
  1086                           
  1087                           ; 4 bytes @ 0x0
  1088  0020                     	ds	1
  1089  0021                     ___lwdiv@quotient:	
  1090                           
  1091                           ; 2 bytes @ 0x1
  1092  0021                     	ds	1
  1093  0022                     ?_delay10ms:	
  1094  0022                     delay10ms@period_10ms:	
  1095                           ; 0 bytes @ 0x2
  1096                           
  1097                           
  1098                           ; 2 bytes @ 0x2
  1099  0022                     	ds	1
  1100  0023                     ?_format_number:	
  1101  0023                     format_number@n:	
  1102                           ; 0 bytes @ 0x3
  1103                           
  1104                           
  1105                           ; 2 bytes @ 0x3
  1106  0023                     	ds	1
  1107  0024                     ??_delay10ms:	
  1108  0024                     measure_freq@prev:	
  1109                           ; 0 bytes @ 0x4
  1110                           
  1111  0024                     ___flpack@exp:	
  1112                           ; 1 bytes @ 0x4
  1113                           
  1114  0024                     ___flge@ff2:	
  1115                           ; 1 bytes @ 0x4
  1116                           
  1117                           
  1118                           ; 4 bytes @ 0x4
  1119  0024                     	ds	1
  1120  0025                     format_number@base:	
  1121  0025                     measure_freq@i:	
  1122                           ; 1 bytes @ 0x5
  1123                           
  1124  0025                     ___flpack@sign:	
  1125                           ; 1 bytes @ 0x5
  1126                           
  1127                           
  1128                           ; 1 bytes @ 0x5
  1129  0025                     	ds	1
  1130  0026                     ?___awtofl:	
  1131  0026                     ?___fldiv:	
  1132                           ; 4 bytes @ 0x6
  1133                           
  1134  0026                     ?___lltofl:	
  1135                           ; 4 bytes @ 0x6
  1136                           
  1137  0026                     format_number@pad:	
  1138                           ; 4 bytes @ 0x6
  1139                           
  1140  0026                     measure_freq@count:	
  1141                           ; 1 bytes @ 0x6
  1142                           
  1143  0026                     ___awtofl@c:	
  1144                           ; 2 bytes @ 0x6
  1145                           
  1146  0026                     ___fldiv@f2:	
  1147                           ; 2 bytes @ 0x6
  1148                           
  1149  0026                     ___lltofl@c:	
  1150                           ; 4 bytes @ 0x6
  1151                           
  1152                           
  1153                           ; 4 bytes @ 0x6
  1154  0026                     	ds	1
  1155  0027                     ??_format_number:	
  1156                           
  1157                           ; 0 bytes @ 0x7
  1158  0027                     	ds	1
  1159  0028                     ?___lwtofl:	
  1160  0028                     ___lwtofl@c:	
  1161                           ; 4 bytes @ 0x8
  1162                           
  1163  0028                     delay10ms@ms:	
  1164                           ; 2 bytes @ 0x8
  1165                           
  1166  0028                     format_number@buf:	
  1167                           ; 4 bytes @ 0x8
  1168                           
  1169                           
  1170                           ; 32 bytes @ 0x8
  1171  0028                     	ds	2
  1172  002A                     ___fldiv@f1:	
  1173                           
  1174                           ; 4 bytes @ 0xA
  1175  002A                     	ds	2
  1176  002C                     delay10ms@run:	
  1177                           
  1178                           ; 1 bytes @ 0xC
  1179  002C                     	ds	2
  1180  002E                     ??___fldiv:	
  1181                           
  1182                           ; 0 bytes @ 0xE
  1183  002E                     	ds	4
  1184  0032                     ___fldiv@f3:	
  1185                           
  1186                           ; 4 bytes @ 0x12
  1187  0032                     	ds	4
  1188  0036                     ___fldiv@cntr:	
  1189                           
  1190                           ; 1 bytes @ 0x16
  1191  0036                     	ds	1
  1192  0037                     ___fldiv@exp:	
  1193                           
  1194                           ; 1 bytes @ 0x17
  1195  0037                     	ds	1
  1196  0038                     ___fldiv@sign:	
  1197                           
  1198                           ; 1 bytes @ 0x18
  1199  0038                     	ds	1
  1200  0039                     ?___flmul:	
  1201  0039                     ___flmul@f1:	
  1202                           ; 4 bytes @ 0x19
  1203                           
  1204                           
  1205                           ; 4 bytes @ 0x19
  1206  0039                     	ds	4
  1207  003D                     ___flmul@f2:	
  1208                           
  1209                           ; 4 bytes @ 0x1D
  1210  003D                     	ds	4
  1211  0041                     ??___flmul:	
  1212                           
  1213                           ; 0 bytes @ 0x21
  1214  0041                     	ds	4
  1215  0045                     ___flmul@exp:	
  1216                           
  1217                           ; 1 bytes @ 0x25
  1218  0045                     	ds	1
  1219  0046                     ___flmul@f3_as_product:	
  1220                           
  1221                           ; 4 bytes @ 0x26
  1222  0046                     	ds	2
  1223  0048                     format_number@padchar:	
  1224                           
  1225                           ; 1 bytes @ 0x28
  1226  0048                     	ds	1
  1227  0049                     _format_number$126:	
  1228                           
  1229                           ; 2 bytes @ 0x29
  1230  0049                     	ds	1
  1231  004A                     ___flmul@cntr:	
  1232                           
  1233                           ; 1 bytes @ 0x2A
  1234  004A                     	ds	1
  1235  004B                     format_number@di:	
  1236  004B                     ___flmul@sign:	
  1237                           ; 1 bytes @ 0x2B
  1238                           
  1239                           
  1240                           ; 1 bytes @ 0x2B
  1241  004B                     	ds	1
  1242  004C                     ?___fladd:	
  1243  004C                     format_number@i:	
  1244                           ; 4 bytes @ 0x2C
  1245                           
  1246  004C                     ___fladd@f1:	
  1247                           ; 1 bytes @ 0x2C
  1248                           
  1249                           
  1250                           ; 4 bytes @ 0x2C
  1251  004C                     	ds	1
  1252  004D                     ?_format_xint32:	
  1253  004D                     format_xint32@x:	
  1254                           ; 0 bytes @ 0x2D
  1255                           
  1256                           
  1257                           ; 4 bytes @ 0x2D
  1258  004D                     	ds	3
  1259  0050                     ___fladd@f2:	
  1260                           
  1261                           ; 4 bytes @ 0x30
  1262  0050                     	ds	4
  1263  0054                     ??___fladd:	
  1264                           
  1265                           ; 0 bytes @ 0x34
  1266  0054                     	ds	4
  1267  0058                     ___fladd@sign:	
  1268                           
  1269                           ; 1 bytes @ 0x38
  1270  0058                     	ds	1
  1271  0059                     ___fladd@exp2:	
  1272                           
  1273                           ; 1 bytes @ 0x39
  1274  0059                     	ds	1
  1275  005A                     ___fladd@exp1:	
  1276                           
  1277                           ; 1 bytes @ 0x3A
  1278  005A                     	ds	1
  1279  005B                     ?_eval_poly:	
  1280  005B                     ?___flsub:	
  1281                           ; 4 bytes @ 0x3B
  1282                           
  1283  005B                     ___flsub@f2:	
  1284                           ; 4 bytes @ 0x3B
  1285                           
  1286  005B                     eval_poly@x:	
  1287                           ; 4 bytes @ 0x3B
  1288                           
  1289                           
  1290                           ; 4 bytes @ 0x3B
  1291  005B                     	ds	4
  1292  005F                     eval_poly@d:	
  1293  005F                     ___flsub@f1:	
  1294                           ; 1 bytes @ 0x3F
  1295                           
  1296                           
  1297                           ; 4 bytes @ 0x3F
  1298  005F                     	ds	1
  1299  0060                     eval_poly@n:	
  1300                           
  1301                           ; 2 bytes @ 0x40
  1302  0060                     	ds	2
  1303  0062                     ??_eval_poly:	
  1304                           
  1305                           ; 0 bytes @ 0x42
  1306  0062                     	ds	5
  1307  0067                     eval_poly@res:	
  1308                           
  1309                           ; 4 bytes @ 0x47
  1310  0067                     	ds	4
  1311  006B                     ??_ldexp:	
  1312  006B                     ?_log:	
  1313                           ; 0 bytes @ 0x4B
  1314                           
  1315  006B                     log@x:	
  1316                           ; 4 bytes @ 0x4B
  1317                           
  1318                           
  1319                           ; 4 bytes @ 0x4B
  1320  006B                     	ds	4
  1321  006F                     ___altofl@sign:	
  1322                           
  1323                           ; 1 bytes @ 0x4F
  1324  006F                     	ds	1
  1325                           
  1326                           	psect	maintext
  1327  0742                     __pmaintext:	
  1328 ;;
  1329 ;;Main: autosize = 0, tempsize = 0, incstack = 0, save=0
  1330 ;;
  1331 ;; *************** function _main *****************
  1332 ;; Defined at:
  1333 ;;		line 115 in file "../../../src/LC-meter.c"
  1334 ;; Parameters:    Size  Location     Type
  1335 ;;		None
  1336 ;; Auto vars:     Size  Location     Type
  1337 ;;		None
  1338 ;; Return value:  Size  Location     Type
  1339 ;;		None               void
  1340 ;; Registers used:
  1341 ;;		wreg, fsr0l, fsr0h, status,2, status,0, btemp+1, pclath, cstack
  1342 ;; Tracked objects:
  1343 ;;		On entry : B00/0
  1344 ;;		On exit  : 300/0
  1345 ;;		Unchanged: 0/0
  1346 ;; Data sizes:     COMMON   BANK0   BANK1   BANK3   BANK2
  1347 ;;      Params:         0       0       0       0       0
  1348 ;;      Locals:         0       0       0       0       0
  1349 ;;      Temps:          0       0       0       0       0
  1350 ;;      Totals:         0       0       0       0       0
  1351 ;;Total ram usage:        0 bytes
  1352 ;; Hardware stack levels required when called:    8
  1353 ;; This function calls:
  1354 ;;		_calibrate
  1355 ;;		_delay10ms
  1356 ;;		_indicator
  1357 ;;		_measure_capacitance
  1358 ;;		_measure_inductance
  1359 ;;		_ser_init
  1360 ;;		_ser_puts
  1361 ;;		_timer2_init
  1362 ;; This function is called by:
  1363 ;;		Startup code after reset
  1364 ;; This function uses a non-reentrant model
  1365 ;;
  1366                           
  1367                           
  1368                           ;psect for function _main
  1369  0742                     _main:	
  1370                           
  1371                           ;LC-meter.c: 116: bres = msecpart = msecs = seconds = 0;
  1372                           
  1373                           ;incstack = 0
  1374                           ; Regs used in _main: [wreg-fsr0h+status,2+status,0+btemp+1+pclath+cstack]
  1375  0742  1683               	bsf	3,5	;RP0=1, select bank3
  1376  0743  1703               	bsf	3,6	;RP1=1, select bank3
  1377  0744  01CF               	clrf	_seconds^(0+384)	;volatile
  1378  0745  01D0               	clrf	(_seconds+1)^(0+384)	;volatile
  1379  0746  01D1               	clrf	(_seconds+2)^(0+384)	;volatile
  1380  0747  01D2               	clrf	(_seconds+3)^(0+384)	;volatile
  1381  0748  0852               	movf	(_seconds+3)^(0+384),w	;volatile
  1382  0749  1303               	bcf	3,6	;RP1=0, select bank1
  1383  074A  00E9               	movwf	(_msecs+3)^(0+128)	;volatile
  1384  074B  1703               	bsf	3,6	;RP1=1, select bank3
  1385  074C  0851               	movf	(_seconds+2)^(0+384),w	;volatile
  1386  074D  1303               	bcf	3,6	;RP1=0, select bank1
  1387  074E  00E8               	movwf	(_msecs+2)^(0+128)	;volatile
  1388  074F  1703               	bsf	3,6	;RP1=1, select bank3
  1389  0750  0850               	movf	(_seconds+1)^(0+384),w	;volatile
  1390  0751  1303               	bcf	3,6	;RP1=0, select bank1
  1391  0752  00E7               	movwf	(_msecs+1)^(0+128)	;volatile
  1392  0753  1703               	bsf	3,6	;RP1=1, select bank3
  1393  0754  084F               	movf	_seconds^(0+384),w	;volatile
  1394  0755  1303               	bcf	3,6	;RP1=0, select bank1
  1395  0756  00E6               	movwf	_msecs^(0+128)	;volatile
  1396  0757  0867               	movf	(_msecs^(0+128)+1),w	;volatile
  1397  0758  1703               	bsf	3,6	;RP1=1, select bank3
  1398  0759  00E4               	movwf	(_msecpart+1)^(0+384)	;volatile
  1399  075A  1303               	bcf	3,6	;RP1=0, select bank1
  1400  075B  0866               	movf	_msecs^(0+128),w	;volatile
  1401  075C  1703               	bsf	3,6	;RP1=1, select bank3
  1402  075D  00E3               	movwf	_msecpart^(0+384)	;volatile
  1403  075E  0864               	movf	(_msecpart+1)^(0+384),w	;volatile
  1404  075F  00E2               	movwf	(_bres+1)^(0+384)	;volatile
  1405  0760  0863               	movf	_msecpart^(0+384),w	;volatile
  1406  0761  00E1               	movwf	_bres^(0+384)	;volatile
  1407                           
  1408                           ;LC-meter.c: 118: CCal = 1000;
  1409  0762  3044               	movlw	68
  1410  0763  00E0               	movwf	(_CCal+3)^(0+384)
  1411  0764  307A               	movlw	122
  1412  0765  00DF               	movwf	(_CCal+2)^(0+384)
  1413  0766  3005               	movlw	5
  1414  0767  01DE               	clrf	(_CCal+1)^(0+384)
  1415  0768  01DD               	clrf	_CCal^(0+384)
  1416                           
  1417                           ;LC-meter.c: 125: CMCON = 0b00000101;
  1418  0769  1303               	bcf	3,6	;RP1=0, select bank1
  1419  076A  009C               	movwf	28	;volatile
  1420                           
  1421                           ;LC-meter.c: 127: TRISA = 0b11001111;
  1422  076B  30CF               	movlw	207
  1423  076C  0085               	movwf	5	;volatile
  1424                           
  1425                           ;LC-meter.c: 129: T0CS = 1;
  1426  076D  1681               	bsf	1,5	;volatile
  1427                           
  1428                           ;LC-meter.c: 130: T0SE = 1;
  1429  076E  1601               	bsf	1,4	;volatile
  1430                           
  1431                           ;LC-meter.c: 141: nRBPU = 0;
  1432  076F  1381               	bcf	1,7	;volatile
  1433                           
  1434                           ;LC-meter.c: 144: TRISC3 = 0;
  1435  0770  1187               	bcf	7,3	;volatile
  1436                           
  1437                           ;LC-meter.c: 145: RC3 = ((1) == 0);
  1438  0771  1283               	bcf	3,5	;RP0=0, select bank0
  1439  0772  1187               	bcf	7,3	;volatile
  1440                           
  1441                           ;LC-meter.c: 147: SSPEN = 0;
  1442  0773  1294               	bcf	20,5	;volatile
  1443                           
  1444                           ;LC-meter.c: 152: timer2_init(0b000 | 0x80);
  1445  0774  3080               	movlw	128
  1446  0775  120A  118A  20C7  120A  118A  	fcall	_timer2_init
  1447                           
  1448                           ;LC-meter.c: 157: TRISC1 = 0;
  1449  077A  1087               	bcf	7,1	;volatile
  1450                           
  1451                           ;LC-meter.c: 160: TRISC3 = 0;
  1452  077B  1187               	bcf	7,3	;volatile
  1453                           
  1454                           ;LC-meter.c: 162: TRISC0 = 1;
  1455  077C  1407               	bsf	7,0	;volatile
  1456                           
  1457                           ;LC-meter.c: 163: TRISC2 = 1;
  1458  077D  1507               	bsf	7,2	;volatile
  1459                           
  1460                           ;LC-meter.c: 173: TRISC |= (1 << 4);
  1461  077E  1607               	bsf	7,4	;volatile
  1462                           
  1463                           ;LC-meter.c: 174: TRISC &= ~(1 << 5);
  1464  077F  1287               	bcf	7,5	;volatile
  1465                           
  1466                           ;LC-meter.c: 176: PORTC &= ~(1 << 5);
  1467  0780  1283               	bcf	3,5	;RP0=0, select bank0
  1468  0781  1287               	bcf	7,5	;volatile
  1469                           
  1470                           ;LC-meter.c: 177: delay10ms(50);
  1471  0782  3032               	movlw	50
  1472  0783  00A2               	movwf	delay10ms@period_10ms
  1473  0784  01A3               	clrf	delay10ms@period_10ms+1
  1474  0785  120A  118A  26D2  120A  118A  	fcall	_delay10ms
  1475                           
  1476                           ;LC-meter.c: 178: PORTC |= (1 << 5);
  1477  078A  1687               	bsf	7,5	;volatile
  1478                           
  1479                           ;LC-meter.c: 179: delay10ms(50);
  1480  078B  3032               	movlw	50
  1481  078C  00A2               	movwf	delay10ms@period_10ms
  1482  078D  01A3               	clrf	delay10ms@period_10ms+1
  1483  078E  120A  118A  26D2  120A  118A  	fcall	_delay10ms
  1484                           
  1485                           ;LC-meter.c: 180: PORTC &= ~(1 << 5);
  1486  0793  1287               	bcf	7,5	;volatile
  1487                           
  1488                           ;LC-meter.c: 181: delay10ms(50);
  1489  0794  3032               	movlw	50
  1490  0795  00A2               	movwf	delay10ms@period_10ms
  1491  0796  01A3               	clrf	delay10ms@period_10ms+1
  1492  0797  120A  118A  26D2  120A  118A  	fcall	_delay10ms
  1493                           
  1494                           ;LC-meter.c: 182: PORTC |= (1 << 5);
  1495  079C  1687               	bsf	7,5	;volatile
  1496                           
  1497                           ;LC-meter.c: 183: delay10ms(50);
  1498  079D  3032               	movlw	50
  1499  079E  00A2               	movwf	delay10ms@period_10ms
  1500  079F  01A3               	clrf	delay10ms@period_10ms+1
  1501  07A0  120A  118A  26D2  120A  118A  	fcall	_delay10ms
  1502                           
  1503                           ;LC-meter.c: 184: PORTC &= ~(1 << 5);
  1504  07A5  1287               	bcf	7,5	;volatile
  1505                           
  1506                           ;LC-meter.c: 187: ser_init();
  1507  07A6  120A  158A  2000  120A  118A  	fcall	_ser_init
  1508                           
  1509                           ;LC-meter.c: 192: TRISC &= ~0b01000000;
  1510  07AB  1307               	bcf	7,6	;volatile
  1511                           
  1512                           ;LC-meter.c: 194: PEIE = 1;
  1513  07AC  170B               	bsf	11,6	;volatile
  1514                           
  1515                           ;LC-meter.c: 195: GIE = 1;
  1516  07AD  178B               	bsf	11,7	;volatile
  1517                           
  1518                           ;LC-meter.c: 214: delay10ms(200);
  1519  07AE  30C8               	movlw	200
  1520  07AF  1283               	bcf	3,5	;RP0=0, select bank0
  1521  07B0  00A2               	movwf	delay10ms@period_10ms
  1522  07B1  01A3               	clrf	delay10ms@period_10ms+1
  1523  07B2  120A  118A  26D2  120A  118A  	fcall	_delay10ms
  1524                           
  1525                           ;LC-meter.c: 217: calibrate();
  1526  07B7  120A  118A  262B  120A  118A  	fcall	_calibrate
  1527  07BC                     l3893:	
  1528                           
  1529                           ;LC-meter.c: 230: ser_puts("...\r\n");
  1530  07BC  3055               	movlw	(low ((STR_1-__stringbase)| (0+32768)))& (0+255)
  1531  07BD  120A  158A  248E  120A  118A  	fcall	_ser_puts
  1532                           
  1533                           ;LC-meter.c: 231: if(RC4)
  1534  07C2  1283               	bcf	3,5	;RP0=0, select bank0
  1535  07C3  1303               	bcf	3,6	;RP1=0, select bank0
  1536  07C4  1E07               	btfss	7,4	;volatile
  1537  07C5  2FCC               	goto	l3899
  1538                           
  1539                           ;LC-meter.c: 232: measure_capacitance();
  1540  07C6  120A  158A  201C  120A  118A  	fcall	_measure_capacitance
  1541  07CB  2FD1               	goto	l3901
  1542  07CC                     l3899:	
  1543                           
  1544                           ;LC-meter.c: 233: else
  1545                           ;LC-meter.c: 234: measure_inductance();
  1546  07CC  160A  118A  2196  120A  118A  	fcall	_measure_inductance
  1547  07D1                     l3901:	
  1548                           
  1549                           ;LC-meter.c: 236: indicator(1);
  1550  07D1  3001               	movlw	1
  1551  07D2  120A  118A  27FB  120A  118A  	fcall	_indicator
  1552                           
  1553                           ;LC-meter.c: 237: delay10ms(30);
  1554  07D7  301E               	movlw	30
  1555  07D8  1283               	bcf	3,5	;RP0=0, select bank0
  1556  07D9  1303               	bcf	3,6	;RP1=0, select bank0
  1557  07DA  00A2               	movwf	delay10ms@period_10ms
  1558  07DB  01A3               	clrf	delay10ms@period_10ms+1
  1559  07DC  120A  118A  26D2  120A  118A  	fcall	_delay10ms
  1560                           
  1561                           ;LC-meter.c: 238: indicator(0);
  1562  07E1  3000               	movlw	0
  1563  07E2  120A  118A  27FB  120A  118A  	fcall	_indicator
  1564                           
  1565                           ;LC-meter.c: 239: delay10ms(20);
  1566  07E7  3014               	movlw	20
  1567  07E8  1283               	bcf	3,5	;RP0=0, select bank0
  1568  07E9  1303               	bcf	3,6	;RP1=0, select bank0
  1569  07EA  00A2               	movwf	delay10ms@period_10ms
  1570  07EB  01A3               	clrf	delay10ms@period_10ms+1
  1571  07EC  120A  118A  26D2  120A  118A  	fcall	_delay10ms
  1572                           
  1573                           ;LC-meter.c: 240: }
  1574  07F1  2FBC               	goto	l3893
  1575  07F2                     __end_of_main:	
  1576                           
  1577                           	psect	text1
  1578  00C7                     __ptext1:	
  1579 ;; *************** function _timer2_init *****************
  1580 ;; Defined at:
  1581 ;;		line 81 in file "../../../lib/timer.c"
  1582 ;; Parameters:    Size  Location     Type
  1583 ;;  ps_mode         1    wreg     unsigned char 
  1584 ;; Auto vars:     Size  Location     Type
  1585 ;;  ps_mode         1    4[COMMON] unsigned char 
  1586 ;;  postscaler      1    0        unsigned char 
  1587 ;;  ps              1    5[COMMON] unsigned char 
  1588 ;; Return value:  Size  Location     Type
  1589 ;;		None               void
  1590 ;; Registers used:
  1591 ;;		wreg, status,2, status,0
  1592 ;; Tracked objects:
  1593 ;;		On entry : B00/0
  1594 ;;		On exit  : 300/100
  1595 ;;		Unchanged: 0/0
  1596 ;; Data sizes:     COMMON   BANK0   BANK1   BANK3   BANK2
  1597 ;;      Params:         0       0       0       0       0
  1598 ;;      Locals:         3       0       0       0       0
  1599 ;;      Temps:          1       0       0       0       0
  1600 ;;      Totals:         4       0       0       0       0
  1601 ;;Total ram usage:        4 bytes
  1602 ;; Hardware stack levels used:    1
  1603 ;; Hardware stack levels required when called:    1
  1604 ;; This function calls:
  1605 ;;		Nothing
  1606 ;; This function is called by:
  1607 ;;		_main
  1608 ;; This function uses a non-reentrant model
  1609 ;;
  1610                           
  1611                           
  1612                           ;psect for function _timer2_init
  1613  00C7                     _timer2_init:	
  1614                           
  1615                           ;incstack = 0
  1616                           ; Regs used in _timer2_init: [wreg+status,2+status,0]
  1617                           ;timer2_init@ps_mode stored from wreg
  1618  00C7  00F4               	movwf	timer2_init@ps_mode
  1619                           
  1620                           ;timer.c: 82: unsigned char ps = ps_mode & 0b1111;
  1621  00C8  00F5               	movwf	timer2_init@ps
  1622  00C9  300F               	movlw	15
  1623  00CA  05F5               	andwf	timer2_init@ps,f
  1624                           
  1625                           ;timer.c: 86: TOUTPS0 = postscaler & 1;
  1626  00CB  1192               	bcf	18,3	;volatile
  1627                           
  1628                           ;timer.c: 87: TOUTPS1 = (postscaler >> 1) & 1;
  1629  00CC  1212               	bcf	18,4	;volatile
  1630                           
  1631                           ;timer.c: 88: TOUTPS2 = (postscaler >> 2) & 1;
  1632  00CD  1292               	bcf	18,5	;volatile
  1633                           
  1634                           ;timer.c: 90: T2CKPS0 = (ps >> 1) & 1;
  1635  00CE  0875               	movf	timer2_init@ps,w
  1636  00CF  00F3               	movwf	??_timer2_init
  1637  00D0  1003               	clrc
  1638  00D1  0CF3               	rrf	??_timer2_init,f
  1639  00D2  1C73               	btfss	??_timer2_init,0
  1640  00D3  28D8               	goto	u2450
  1641  00D4  1283               	bcf	3,5	;RP0=0, select bank0
  1642  00D5  1303               	bcf	3,6	;RP1=0, select bank0
  1643  00D6  1412               	bsf	18,0	;volatile
  1644  00D7  28DB               	goto	l2737
  1645  00D8                     u2450:	
  1646  00D8  1283               	bcf	3,5	;RP0=0, select bank0
  1647  00D9  1303               	bcf	3,6	;RP1=0, select bank0
  1648  00DA  1012               	bcf	18,0	;volatile
  1649  00DB                     l2737:	
  1650                           
  1651                           ;timer.c: 91: T2CKPS1 = (ps >> 2) & 1;
  1652  00DB  0875               	movf	timer2_init@ps,w
  1653  00DC  00F3               	movwf	??_timer2_init
  1654  00DD  1003               	clrc
  1655  00DE  0CF3               	rrf	??_timer2_init,f
  1656  00DF  1003               	clrc
  1657  00E0  0CF3               	rrf	??_timer2_init,f
  1658  00E1  1C73               	btfss	??_timer2_init,0
  1659  00E2  28E7               	goto	u2470
  1660  00E3  1283               	bcf	3,5	;RP0=0, select bank0
  1661  00E4  1303               	bcf	3,6	;RP1=0, select bank0
  1662  00E5  1492               	bsf	18,1	;volatile
  1663  00E6  28EA               	goto	l2739
  1664  00E7                     u2470:	
  1665  00E7  1283               	bcf	3,5	;RP0=0, select bank0
  1666  00E8  1303               	bcf	3,6	;RP1=0, select bank0
  1667  00E9  1092               	bcf	18,1	;volatile
  1668  00EA                     l2739:	
  1669                           
  1670                           ;timer.c: 93: TMR2 = 0;
  1671  00EA  0191               	clrf	17	;volatile
  1672                           
  1673                           ;timer.c: 95: TMR2ON = 1;
  1674  00EB  1512               	bsf	18,2	;volatile
  1675                           
  1676                           ;timer.c: 97: TMR2IF = 0;
  1677  00EC  108C               	bcf	12,1	;volatile
  1678                           
  1679                           ;timer.c: 98: TMR2IE = !!(ps_mode & 0x80);
  1680  00ED  1FF4               	btfss	timer2_init@ps_mode,7
  1681  00EE  28F3               	goto	u2490
  1682  00EF  1683               	bsf	3,5	;RP0=1, select bank1
  1683  00F0  1303               	bcf	3,6	;RP1=0, select bank1
  1684  00F1  148C               	bsf	12,1	;volatile
  1685  00F2  0008               	return
  1686  00F3                     u2490:	
  1687  00F3  1683               	bsf	3,5	;RP0=1, select bank1
  1688  00F4  1303               	bcf	3,6	;RP1=0, select bank1
  1689  00F5  108C               	bcf	12,1	;volatile
  1690  00F6  0008               	return
  1691  00F7                     __end_of_timer2_init:	
  1692                           
  1693                           	psect	text2
  1694  0800                     __ptext2:	
  1695 ;; *************** function _ser_init *****************
  1696 ;; Defined at:
  1697 ;;		line 125 in file "../../../lib/ser.c"
  1698 ;; Parameters:    Size  Location     Type
  1699 ;;		None
  1700 ;; Auto vars:     Size  Location     Type
  1701 ;;		None
  1702 ;; Return value:  Size  Location     Type
  1703 ;;		None               void
  1704 ;; Registers used:
  1705 ;;		wreg, status,2
  1706 ;; Tracked objects:
  1707 ;;		On entry : 300/0
  1708 ;;		On exit  : 300/100
  1709 ;;		Unchanged: 0/0
  1710 ;; Data sizes:     COMMON   BANK0   BANK1   BANK3   BANK2
  1711 ;;      Params:         0       0       0       0       0
  1712 ;;      Locals:         0       0       0       0       0
  1713 ;;      Temps:          0       0       0       0       0
  1714 ;;      Totals:         0       0       0       0       0
  1715 ;;Total ram usage:        0 bytes
  1716 ;; Hardware stack levels used:    1
  1717 ;; Hardware stack levels required when called:    1
  1718 ;; This function calls:
  1719 ;;		Nothing
  1720 ;; This function is called by:
  1721 ;;		_main
  1722 ;; This function uses a non-reentrant model
  1723 ;;
  1724                           
  1725                           
  1726                           ;psect for function _ser_init
  1727  0800                     _ser_init:	
  1728                           
  1729                           ;ser.c: 128: TRISC6 = 1;
  1730                           
  1731                           ;incstack = 0
  1732                           ; Regs used in _ser_init: [wreg+status,2]
  1733  0800  1683               	bsf	3,5	;RP0=1, select bank1
  1734  0801  1707               	bsf	7,6	;volatile
  1735                           
  1736                           ;ser.c: 129: RC7 = 1;
  1737  0802  1283               	bcf	3,5	;RP0=0, select bank0
  1738  0803  1787               	bsf	7,7	;volatile
  1739                           
  1740                           ;ser.c: 131: BRGH = 1;
  1741  0804  1683               	bsf	3,5	;RP0=1, select bank1
  1742  0805  1518               	bsf	24,2	;volatile
  1743                           
  1744                           ;ser.c: 136: SPBRG = ser_brg;
  1745  0806  301F               	movlw	31
  1746  0807  0099               	movwf	25	;volatile
  1747                           
  1748                           ;ser.c: 139: TX9 = 0;
  1749  0808  1318               	bcf	24,6	;volatile
  1750                           
  1751                           ;ser.c: 140: RX9 = 0;
  1752  0809  1283               	bcf	3,5	;RP0=0, select bank0
  1753  080A  1318               	bcf	24,6	;volatile
  1754                           
  1755                           ;ser.c: 142: SYNC = 0;
  1756  080B  1683               	bsf	3,5	;RP0=1, select bank1
  1757  080C  1218               	bcf	24,4	;volatile
  1758                           
  1759                           ;ser.c: 143: SPEN = 1;
  1760  080D  1283               	bcf	3,5	;RP0=0, select bank0
  1761  080E  1798               	bsf	24,7	;volatile
  1762                           
  1763                           ;ser.c: 144: CREN = 1;
  1764  080F  1618               	bsf	24,4	;volatile
  1765                           
  1766                           ;ser.c: 145: TXIE = 0;
  1767  0810  1683               	bsf	3,5	;RP0=1, select bank1
  1768  0811  120C               	bcf	12,4	;volatile
  1769                           
  1770                           ;ser.c: 147: TXEN = 1;
  1771  0812  1698               	bsf	24,5	;volatile
  1772                           
  1773                           ;ser.c: 148: PEIE = 1;
  1774  0813  170B               	bsf	11,6	;volatile
  1775                           
  1776                           ;ser.c: 150: rxiptr = rxoptr = txiptr = txoptr = 0;
  1777  0814  01F9               	clrf	_txoptr	;volatile
  1778  0815  01F8               	clrf	_txiptr	;volatile
  1779  0816  01EB               	clrf	_rxoptr^(0+128)	;volatile
  1780  0817  01EA               	clrf	_rxiptr^(0+128)	;volatile
  1781  0818  0008               	return
  1782  0819                     __end_of_ser_init:	
  1783                           
  1784                           	psect	text9
  1785  1F4E                     __ptext9:	
  1786 ;; *************** function ___lwmod *****************
  1787 ;; Defined at:
  1788 ;;		line 6 in file "C:\Program Files (x86)\Microchip\xc8\v1.34\sources\common\lwmod.c"
  1789 ;; Parameters:    Size  Location     Type
  1790 ;;  divisor         2    3[COMMON] unsigned int 
  1791 ;;  dividend        2    5[COMMON] unsigned int 
  1792 ;; Auto vars:     Size  Location     Type
  1793 ;;  counter         1    7[COMMON] unsigned char 
  1794 ;; Return value:  Size  Location     Type
  1795 ;;                  2    3[COMMON] unsigned int 
  1796 ;; Registers used:
  1797 ;;		wreg, status,2, status,0
  1798 ;; Tracked objects:
  1799 ;;		On entry : 300/0
  1800 ;;		On exit  : 300/0
  1801 ;;		Unchanged: 300/0
  1802 ;; Data sizes:     COMMON   BANK0   BANK1   BANK3   BANK2
  1803 ;;      Params:         4       0       0       0       0
  1804 ;;      Locals:         1       0       0       0       0
  1805 ;;      Temps:          0       0       0       0       0
  1806 ;;      Totals:         5       0       0       0       0
  1807 ;;Total ram usage:        5 bytes
  1808 ;; Hardware stack levels used:    1
  1809 ;; Hardware stack levels required when called:    1
  1810 ;; This function calls:
  1811 ;;		Nothing
  1812 ;; This function is called by:
  1813 ;;		_format_number
  1814 ;; This function uses a non-reentrant model
  1815 ;;
  1816                           
  1817                           
  1818                           ;psect for function ___lwmod
  1819  1F4E                     ___lwmod:	
  1820                           
  1821                           ;incstack = 0
  1822                           ; Regs used in ___lwmod: [wreg+status,2+status,0]
  1823  1F4E  0873               	movf	___lwmod@divisor,w
  1824  1F4F  0474               	iorwf	___lwmod@divisor+1,w
  1825  1F50  1903               	btfsc	3,2
  1826  1F51  2F6D               	goto	l2457
  1827  1F52  01F7               	clrf	___lwmod@counter
  1828  1F53                     L5:	
  1829  1F53  0AF7               	incf	___lwmod@counter,f
  1830  1F54  1BF4               	btfsc	___lwmod@divisor+1,7
  1831  1F55  2F5A               	goto	l2449
  1832  1F56  1003               	clrc
  1833  1F57  0DF3               	rlf	___lwmod@divisor,f
  1834  1F58  0DF4               	rlf	___lwmod@divisor+1,f
  1835  1F59  2F53               	goto	L5
  1836  1F5A                     l2449:	
  1837  1F5A  0874               	movf	___lwmod@divisor+1,w
  1838  1F5B  0276               	subwf	___lwmod@dividend+1,w
  1839  1F5C  1D03               	skipz
  1840  1F5D  2F60               	goto	u2145
  1841  1F5E  0873               	movf	___lwmod@divisor,w
  1842  1F5F  0275               	subwf	___lwmod@dividend,w
  1843  1F60                     u2145:	
  1844  1F60  1C03               	skipc
  1845  1F61  2F69               	goto	L6
  1846  1F62  0873               	movf	___lwmod@divisor,w
  1847  1F63  02F5               	subwf	___lwmod@dividend,f
  1848  1F64  0874               	movf	___lwmod@divisor+1,w
  1849  1F65  1C03               	skipc
  1850  1F66  03F6               	decf	___lwmod@dividend+1,f
  1851  1F67  02F6               	subwf	___lwmod@dividend+1,f
  1852  1F68  1003               	clrc
  1853  1F69                     L6:	
  1854  1F69  0CF4               	rrf	___lwmod@divisor+1,f
  1855  1F6A  0CF3               	rrf	___lwmod@divisor,f
  1856  1F6B  0BF7               	decfsz	___lwmod@counter,f
  1857  1F6C  2F5A               	goto	l2449
  1858  1F6D                     l2457:	
  1859  1F6D  0876               	movf	___lwmod@dividend+1,w
  1860  1F6E  00F4               	movwf	?___lwmod+1
  1861  1F6F  0875               	movf	___lwmod@dividend,w
  1862  1F70  00F3               	movwf	?___lwmod
  1863  1F71  0008               	return
  1864  1F72                     __end_of___lwmod:	
  1865                           
  1866                           	psect	text10
  1867  1002                     __ptext10:	
  1868 ;; *************** function ___lwdiv *****************
  1869 ;; Defined at:
  1870 ;;		line 6 in file "C:\Program Files (x86)\Microchip\xc8\v1.34\sources\common\lwdiv.c"
  1871 ;; Parameters:    Size  Location     Type
  1872 ;;  divisor         2    3[COMMON] unsigned int 
  1873 ;;  dividend        2    5[COMMON] unsigned int 
  1874 ;; Auto vars:     Size  Location     Type
  1875 ;;  quotient        2    1[BANK0 ] unsigned int 
  1876 ;;  counter         1    0[BANK0 ] unsigned char 
  1877 ;; Return value:  Size  Location     Type
  1878 ;;                  2    3[COMMON] unsigned int 
  1879 ;; Registers used:
  1880 ;;		wreg, status,2, status,0
  1881 ;; Tracked objects:
  1882 ;;		On entry : B00/0
  1883 ;;		On exit  : B00/0
  1884 ;;		Unchanged: 800/0
  1885 ;; Data sizes:     COMMON   BANK0   BANK1   BANK3   BANK2
  1886 ;;      Params:         4       0       0       0       0
  1887 ;;      Locals:         0       3       0       0       0
  1888 ;;      Temps:          0       0       0       0       0
  1889 ;;      Totals:         4       3       0       0       0
  1890 ;;Total ram usage:        7 bytes
  1891 ;; Hardware stack levels used:    1
  1892 ;; Hardware stack levels required when called:    1
  1893 ;; This function calls:
  1894 ;;		Nothing
  1895 ;; This function is called by:
  1896 ;;		_format_number
  1897 ;; This function uses a non-reentrant model
  1898 ;;
  1899                           
  1900                           
  1901                           ;psect for function ___lwdiv
  1902  1002                     ___lwdiv:	
  1903                           
  1904                           ;incstack = 0
  1905                           ; Regs used in ___lwdiv: [wreg+status,2+status,0]
  1906  1002  01A1               	clrf	___lwdiv@quotient
  1907  1003  01A2               	clrf	___lwdiv@quotient+1
  1908  1004  0873               	movf	___lwdiv@divisor,w
  1909  1005  0474               	iorwf	___lwdiv@divisor+1,w
  1910  1006  1903               	btfsc	3,2
  1911  1007  2827               	goto	l3423
  1912  1008  01A0               	clrf	___lwdiv@counter
  1913  1009                     L7:	
  1914  1009  0AA0               	incf	___lwdiv@counter,f
  1915  100A  1BF4               	btfsc	___lwdiv@divisor+1,7
  1916  100B  2810               	goto	l3411
  1917  100C  1003               	clrc
  1918  100D  0DF3               	rlf	___lwdiv@divisor,f
  1919  100E  0DF4               	rlf	___lwdiv@divisor+1,f
  1920  100F  2809               	goto	L7
  1921  1010                     l3411:	
  1922  1010  1003               	clrc
  1923  1011  0DA1               	rlf	___lwdiv@quotient,f
  1924  1012  0DA2               	rlf	___lwdiv@quotient+1,f
  1925  1013  0874               	movf	___lwdiv@divisor+1,w
  1926  1014  0276               	subwf	___lwdiv@dividend+1,w
  1927  1015  1D03               	skipz
  1928  1016  2819               	goto	u3355
  1929  1017  0873               	movf	___lwdiv@divisor,w
  1930  1018  0275               	subwf	___lwdiv@dividend,w
  1931  1019                     u3355:	
  1932  1019  1C03               	skipc
  1933  101A  2823               	goto	L8
  1934  101B  0873               	movf	___lwdiv@divisor,w
  1935  101C  02F5               	subwf	___lwdiv@dividend,f
  1936  101D  0874               	movf	___lwdiv@divisor+1,w
  1937  101E  1C03               	skipc
  1938  101F  03F6               	decf	___lwdiv@dividend+1,f
  1939  1020  02F6               	subwf	___lwdiv@dividend+1,f
  1940  1021  1421               	bsf	___lwdiv@quotient,0
  1941  1022  1003               	clrc
  1942  1023                     L8:	
  1943  1023  0CF4               	rrf	___lwdiv@divisor+1,f
  1944  1024  0CF3               	rrf	___lwdiv@divisor,f
  1945  1025  0BA0               	decfsz	___lwdiv@counter,f
  1946  1026  2810               	goto	l3411
  1947  1027                     l3423:	
  1948  1027  0822               	movf	___lwdiv@quotient+1,w
  1949  1028  00F4               	movwf	?___lwdiv+1
  1950  1029  0821               	movf	___lwdiv@quotient,w
  1951  102A  00F3               	movwf	?___lwdiv
  1952  102B  0008               	return
  1953  102C                     __end_of___lwdiv:	
  1954                           
  1955                           	psect	text12
  1956  04E4                     __ptext12:	
  1957 ;; *************** function _pow *****************
  1958 ;; Defined at:
  1959 ;;		line 5 in file "C:\Program Files (x86)\Microchip\xc8\v1.34\sources\common\pow.c"
  1960 ;; Parameters:    Size  Location     Type
  1961 ;;  x               4   49[BANK1 ] short 
  1962 ;;  y               4   53[BANK1 ] short 
  1963 ;; Auto vars:     Size  Location     Type
  1964 ;;  yi              4   66[BANK1 ] unsigned long 
  1965 ;;  sign            1   65[BANK1 ] unsigned char 
  1966 ;; Return value:  Size  Location     Type
  1967 ;;                  4   49[BANK1 ] unsigned char 
  1968 ;; Registers used:
  1969 ;;		wreg, fsr0l, fsr0h, status,2, status,0, btemp+1, pclath, cstack
  1970 ;; Tracked objects:
  1971 ;;		On entry : 300/100
  1972 ;;		On exit  : 300/100
  1973 ;;		Unchanged: 0/0
  1974 ;; Data sizes:     COMMON   BANK0   BANK1   BANK3   BANK2
  1975 ;;      Params:         0       0       8       0       0
  1976 ;;      Locals:         0       0      13       0       0
  1977 ;;      Temps:          0       0       0       0       0
  1978 ;;      Totals:         0       0      21       0       0
  1979 ;;Total ram usage:       21 bytes
  1980 ;; Hardware stack levels used:    1
  1981 ;; Hardware stack levels required when called:    5
  1982 ;; This function calls:
  1983 ;;		___flge
  1984 ;;		___flmul
  1985 ;;		___flneg
  1986 ;;		___fltol
  1987 ;;		___lltofl
  1988 ;;		_exp
  1989 ;;		_log
  1990 ;; This function is called by:
  1991 ;;		_format_double
  1992 ;; This function uses a non-reentrant model
  1993 ;;
  1994                           
  1995                           
  1996                           ;psect for function _pow
  1997  04E4                     _pow:	
  1998                           
  1999                           ;incstack = 0
  2000                           ; Regs used in _pow: [wreg-fsr0h+status,2+status,0+btemp+1+pclath+cstack]
  2001  04E4  01E1               	clrf	pow@sign^(0+128)
  2002  04E5  0854               	movf	(pow@x+3)^(0+128),w
  2003  04E6  0453               	iorwf	(pow@x+2)^(0+128),w
  2004  04E7  0452               	iorwf	(pow@x+1)^(0+128),w
  2005  04E8  0451               	iorwf	pow@x^(0+128),w
  2006  04E9  1D03               	skipz
  2007  04EA  2D09               	goto	l3529
  2008  04EB  1283               	bcf	3,5	;RP0=0, select bank0
  2009  04EC  01A0               	clrf	___flge@ff1
  2010  04ED  01A1               	clrf	___flge@ff1+1
  2011  04EE  01A2               	clrf	___flge@ff1+2
  2012  04EF  01A3               	clrf	___flge@ff1+3
  2013  04F0  1683               	bsf	3,5	;RP0=1, select bank1
  2014  04F1  0858               	movf	(pow@y+3)^(0+128),w
  2015  04F2  1283               	bcf	3,5	;RP0=0, select bank0
  2016  04F3  00A7               	movwf	___flge@ff2+3
  2017  04F4  1683               	bsf	3,5	;RP0=1, select bank1
  2018  04F5  0857               	movf	(pow@y+2)^(0+128),w
  2019  04F6  1283               	bcf	3,5	;RP0=0, select bank0
  2020  04F7  00A6               	movwf	___flge@ff2+2
  2021  04F8  1683               	bsf	3,5	;RP0=1, select bank1
  2022  04F9  0856               	movf	(pow@y+1)^(0+128),w
  2023  04FA  1283               	bcf	3,5	;RP0=0, select bank0
  2024  04FB  00A5               	movwf	___flge@ff2+1
  2025  04FC  1683               	bsf	3,5	;RP0=1, select bank1
  2026  04FD  0855               	movf	pow@y^(0+128),w
  2027  04FE  1283               	bcf	3,5	;RP0=0, select bank0
  2028  04FF  00A4               	movwf	___flge@ff2
  2029  0500  160A  118A  270A   	fcall	___flge
  2030  0503  1683               	bsf	3,5	;RP0=1, select bank1
  2031  0504  01D1               	clrf	?_pow^(0+128)
  2032  0505  01D2               	clrf	(?_pow+1)^(0+128)
  2033  0506  01D3               	clrf	(?_pow+2)^(0+128)
  2034  0507  01D4               	clrf	(?_pow+3)^(0+128)
  2035  0508  0008               	return
  2036  0509                     l3529:	
  2037  0509  0858               	movf	(pow@y+3)^(0+128),w
  2038  050A  0457               	iorwf	(pow@y+2)^(0+128),w
  2039  050B  0456               	iorwf	(pow@y+1)^(0+128),w
  2040  050C  0455               	iorwf	pow@y^(0+128),w
  2041  050D  1D03               	skipz
  2042  050E  2D17               	goto	l3535
  2043  050F  303F               	movlw	63
  2044  0510  00D4               	movwf	(?_pow+3)^(0+128)
  2045  0511  3080               	movlw	128
  2046  0512  00D3               	movwf	(?_pow+2)^(0+128)
  2047  0513  3000               	movlw	0
  2048  0514  01D2               	clrf	(?_pow+1)^(0+128)
  2049  0515  01D1               	clrf	?_pow^(0+128)
  2050  0516  0008               	return
  2051  0517                     l3535:	
  2052  0517  0854               	movf	(pow@x+3)^(0+128),w
  2053  0518  1283               	bcf	3,5	;RP0=0, select bank0
  2054  0519  00A3               	movwf	___flge@ff1+3
  2055  051A  1683               	bsf	3,5	;RP0=1, select bank1
  2056  051B  0853               	movf	(pow@x+2)^(0+128),w
  2057  051C  1283               	bcf	3,5	;RP0=0, select bank0
  2058  051D  00A2               	movwf	___flge@ff1+2
  2059  051E  1683               	bsf	3,5	;RP0=1, select bank1
  2060  051F  0852               	movf	(pow@x+1)^(0+128),w
  2061  0520  1283               	bcf	3,5	;RP0=0, select bank0
  2062  0521  00A1               	movwf	___flge@ff1+1
  2063  0522  1683               	bsf	3,5	;RP0=1, select bank1
  2064  0523  0851               	movf	pow@x^(0+128),w
  2065  0524  1283               	bcf	3,5	;RP0=0, select bank0
  2066  0525  00A0               	movwf	___flge@ff1
  2067  0526  01A4               	clrf	___flge@ff2
  2068  0527  01A5               	clrf	___flge@ff2+1
  2069  0528  01A6               	clrf	___flge@ff2+2
  2070  0529  01A7               	clrf	___flge@ff2+3
  2071  052A  160A  118A  270A  120A  118A  	fcall	___flge
  2072  052F  1803               	btfsc	3,0
  2073  0530  2D91               	goto	l3547
  2074  0531  1683               	bsf	3,5	;RP0=1, select bank1
  2075  0532  0858               	movf	(pow@y+3)^(0+128),w
  2076  0533  00AD               	movwf	(___fltol@f1+3)^(0+128)
  2077  0534  0857               	movf	(pow@y+2)^(0+128),w
  2078  0535  00AC               	movwf	(___fltol@f1+2)^(0+128)
  2079  0536  0856               	movf	(pow@y+1)^(0+128),w
  2080  0537  00AB               	movwf	(___fltol@f1+1)^(0+128)
  2081  0538  0855               	movf	pow@y^(0+128),w
  2082  0539  00AA               	movwf	___fltol@f1^(0+128)
  2083  053A  120A  158A  26E7  120A  118A  	fcall	___fltol
  2084  053F  082D               	movf	(?___fltol+3)^(0+128),w
  2085  0540  00E5               	movwf	(pow@yi+3)^(0+128)
  2086  0541  082C               	movf	(?___fltol+2)^(0+128),w
  2087  0542  00E4               	movwf	(pow@yi+2)^(0+128)
  2088  0543  082B               	movf	(?___fltol+1)^(0+128),w
  2089  0544  00E3               	movwf	(pow@yi+1)^(0+128)
  2090  0545  082A               	movf	?___fltol^(0+128),w
  2091  0546  00E2               	movwf	pow@yi^(0+128)
  2092  0547  0865               	movf	(pow@yi+3)^(0+128),w
  2093  0548  1283               	bcf	3,5	;RP0=0, select bank0
  2094  0549  00A9               	movwf	___lltofl@c+3
  2095  054A  1683               	bsf	3,5	;RP0=1, select bank1
  2096  054B  0864               	movf	(pow@yi+2)^(0+128),w
  2097  054C  1283               	bcf	3,5	;RP0=0, select bank0
  2098  054D  00A8               	movwf	___lltofl@c+2
  2099  054E  1683               	bsf	3,5	;RP0=1, select bank1
  2100  054F  0863               	movf	(pow@yi+1)^(0+128),w
  2101  0550  1283               	bcf	3,5	;RP0=0, select bank0
  2102  0551  00A7               	movwf	___lltofl@c+1
  2103  0552  1683               	bsf	3,5	;RP0=1, select bank1
  2104  0553  0862               	movf	pow@yi^(0+128),w
  2105  0554  1283               	bcf	3,5	;RP0=0, select bank0
  2106  0555  00A6               	movwf	___lltofl@c
  2107  0556  2614  120A  118A   	fcall	___lltofl
  2108  0559  1683               	bsf	3,5	;RP0=1, select bank1
  2109  055A  0858               	movf	(pow@y+3)^(0+128),w
  2110  055B  1283               	bcf	3,5	;RP0=0, select bank0
  2111  055C  0629               	xorwf	?___lltofl+3,w
  2112  055D  1D03               	skipz
  2113  055E  2D6F               	goto	u3535
  2114  055F  1683               	bsf	3,5	;RP0=1, select bank1
  2115  0560  0857               	movf	(pow@y+2)^(0+128),w
  2116  0561  1283               	bcf	3,5	;RP0=0, select bank0
  2117  0562  0628               	xorwf	?___lltofl+2,w
  2118  0563  1D03               	skipz
  2119  0564  2D6F               	goto	u3535
  2120  0565  1683               	bsf	3,5	;RP0=1, select bank1
  2121  0566  0856               	movf	(pow@y+1)^(0+128),w
  2122  0567  1283               	bcf	3,5	;RP0=0, select bank0
  2123  0568  0627               	xorwf	?___lltofl+1,w
  2124  0569  1D03               	skipz
  2125  056A  2D6F               	goto	u3535
  2126  056B  1683               	bsf	3,5	;RP0=1, select bank1
  2127  056C  0855               	movf	pow@y^(0+128),w
  2128  056D  1283               	bcf	3,5	;RP0=0, select bank0
  2129  056E  0626               	xorwf	?___lltofl,w
  2130  056F                     u3535:	
  2131  056F  1903               	skipnz
  2132  0570  2D77               	goto	l3541
  2133  0571  1683               	bsf	3,5	;RP0=1, select bank1
  2134  0572  01D1               	clrf	?_pow^(0+128)
  2135  0573  01D2               	clrf	(?_pow+1)^(0+128)
  2136  0574  01D3               	clrf	(?_pow+2)^(0+128)
  2137  0575  01D4               	clrf	(?_pow+3)^(0+128)
  2138  0576  0008               	return
  2139  0577                     l3541:	
  2140  0577  1683               	bsf	3,5	;RP0=1, select bank1
  2141  0578  0862               	movf	pow@yi^(0+128),w
  2142  0579  00E1               	movwf	pow@sign^(0+128)
  2143  057A  3001               	movlw	1
  2144  057B  05E1               	andwf	pow@sign^(0+128),f
  2145  057C  0854               	movf	(pow@x+3)^(0+128),w
  2146  057D  00F6               	movwf	___flneg@f1+3
  2147  057E  0853               	movf	(pow@x+2)^(0+128),w
  2148  057F  00F5               	movwf	___flneg@f1+2
  2149  0580  0852               	movf	(pow@x+1)^(0+128),w
  2150  0581  00F4               	movwf	___flneg@f1+1
  2151  0582  0851               	movf	pow@x^(0+128),w
  2152  0583  00F3               	movwf	___flneg@f1
  2153  0584  120A  118A  24DB  120A  118A  	fcall	___flneg
  2154  0589  0876               	movf	?___flneg+3,w
  2155  058A  00D4               	movwf	(pow@x+3)^(0+128)
  2156  058B  0875               	movf	?___flneg+2,w
  2157  058C  00D3               	movwf	(pow@x+2)^(0+128)
  2158  058D  0874               	movf	?___flneg+1,w
  2159  058E  00D2               	movwf	(pow@x+1)^(0+128)
  2160  058F  0873               	movf	?___flneg,w
  2161  0590  00D1               	movwf	pow@x^(0+128)
  2162  0591                     l3547:	
  2163  0591  1683               	bsf	3,5	;RP0=1, select bank1
  2164  0592  0854               	movf	(pow@x+3)^(0+128),w
  2165  0593  1283               	bcf	3,5	;RP0=0, select bank0
  2166  0594  00EE               	movwf	log@x+3
  2167  0595  1683               	bsf	3,5	;RP0=1, select bank1
  2168  0596  0853               	movf	(pow@x+2)^(0+128),w
  2169  0597  1283               	bcf	3,5	;RP0=0, select bank0
  2170  0598  00ED               	movwf	log@x+2
  2171  0599  1683               	bsf	3,5	;RP0=1, select bank1
  2172  059A  0852               	movf	(pow@x+1)^(0+128),w
  2173  059B  1283               	bcf	3,5	;RP0=0, select bank0
  2174  059C  00EC               	movwf	log@x+1
  2175  059D  1683               	bsf	3,5	;RP0=1, select bank1
  2176  059E  0851               	movf	pow@x^(0+128),w
  2177  059F  1283               	bcf	3,5	;RP0=0, select bank0
  2178  05A0  00EB               	movwf	log@x
  2179  05A1  120A  118A  23A8  120A  118A  	fcall	_log
  2180  05A6  086E               	movf	?_log+3,w
  2181  05A7  1683               	bsf	3,5	;RP0=1, select bank1
  2182  05A8  00DC               	movwf	(_pow$818+3)^(0+128)
  2183  05A9  1283               	bcf	3,5	;RP0=0, select bank0
  2184  05AA  086D               	movf	?_log+2,w
  2185  05AB  1683               	bsf	3,5	;RP0=1, select bank1
  2186  05AC  00DB               	movwf	(_pow$818+2)^(0+128)
  2187  05AD  1283               	bcf	3,5	;RP0=0, select bank0
  2188  05AE  086C               	movf	?_log+1,w
  2189  05AF  1683               	bsf	3,5	;RP0=1, select bank1
  2190  05B0  00DA               	movwf	(_pow$818+1)^(0+128)
  2191  05B1  1283               	bcf	3,5	;RP0=0, select bank0
  2192  05B2  086B               	movf	?_log,w
  2193  05B3  1683               	bsf	3,5	;RP0=1, select bank1
  2194  05B4  00D9               	movwf	_pow$818^(0+128)
  2195  05B5  0858               	movf	(pow@y+3)^(0+128),w
  2196  05B6  1283               	bcf	3,5	;RP0=0, select bank0
  2197  05B7  00BC               	movwf	___flmul@f1+3
  2198  05B8  1683               	bsf	3,5	;RP0=1, select bank1
  2199  05B9  0857               	movf	(pow@y+2)^(0+128),w
  2200  05BA  1283               	bcf	3,5	;RP0=0, select bank0
  2201  05BB  00BB               	movwf	___flmul@f1+2
  2202  05BC  1683               	bsf	3,5	;RP0=1, select bank1
  2203  05BD  0856               	movf	(pow@y+1)^(0+128),w
  2204  05BE  1283               	bcf	3,5	;RP0=0, select bank0
  2205  05BF  00BA               	movwf	___flmul@f1+1
  2206  05C0  1683               	bsf	3,5	;RP0=1, select bank1
  2207  05C1  0855               	movf	pow@y^(0+128),w
  2208  05C2  1283               	bcf	3,5	;RP0=0, select bank0
  2209  05C3  00B9               	movwf	___flmul@f1
  2210  05C4  1683               	bsf	3,5	;RP0=1, select bank1
  2211  05C5  085C               	movf	(_pow$818+3)^(0+128),w
  2212  05C6  1283               	bcf	3,5	;RP0=0, select bank0
  2213  05C7  00C0               	movwf	___flmul@f2+3
  2214  05C8  1683               	bsf	3,5	;RP0=1, select bank1
  2215  05C9  085B               	movf	(_pow$818+2)^(0+128),w
  2216  05CA  1283               	bcf	3,5	;RP0=0, select bank0
  2217  05CB  00BF               	movwf	___flmul@f2+2
  2218  05CC  1683               	bsf	3,5	;RP0=1, select bank1
  2219  05CD  085A               	movf	(_pow$818+1)^(0+128),w
  2220  05CE  1283               	bcf	3,5	;RP0=0, select bank0
  2221  05CF  00BE               	movwf	___flmul@f2+1
  2222  05D0  1683               	bsf	3,5	;RP0=1, select bank1
  2223  05D1  0859               	movf	_pow$818^(0+128),w
  2224  05D2  1283               	bcf	3,5	;RP0=0, select bank0
  2225  05D3  00BD               	movwf	___flmul@f2
  2226  05D4  160A  118A  2674  120A  118A  	fcall	___flmul
  2227  05D9  083C               	movf	?___flmul+3,w
  2228  05DA  1683               	bsf	3,5	;RP0=1, select bank1
  2229  05DB  00E0               	movwf	(_pow$819+3)^(0+128)
  2230  05DC  1283               	bcf	3,5	;RP0=0, select bank0
  2231  05DD  083B               	movf	?___flmul+2,w
  2232  05DE  1683               	bsf	3,5	;RP0=1, select bank1
  2233  05DF  00DF               	movwf	(_pow$819+2)^(0+128)
  2234  05E0  1283               	bcf	3,5	;RP0=0, select bank0
  2235  05E1  083A               	movf	?___flmul+1,w
  2236  05E2  1683               	bsf	3,5	;RP0=1, select bank1
  2237  05E3  00DE               	movwf	(_pow$819+1)^(0+128)
  2238  05E4  1283               	bcf	3,5	;RP0=0, select bank0
  2239  05E5  0839               	movf	?___flmul,w
  2240  05E6  1683               	bsf	3,5	;RP0=1, select bank1
  2241  05E7  00DD               	movwf	_pow$819^(0+128)
  2242  05E8  0860               	movf	(_pow$819+3)^(0+128),w
  2243  05E9  00C5               	movwf	(exp@x+3)^(0+128)
  2244  05EA  085F               	movf	(_pow$819+2)^(0+128),w
  2245  05EB  00C4               	movwf	(exp@x+2)^(0+128)
  2246  05EC  085E               	movf	(_pow$819+1)^(0+128),w
  2247  05ED  00C3               	movwf	(exp@x+1)^(0+128)
  2248  05EE  085D               	movf	_pow$819^(0+128),w
  2249  05EF  00C2               	movwf	exp@x^(0+128)
  2250  05F0  120A  118A  215A  120A  118A  	fcall	_exp
  2251  05F5  0845               	movf	(?_exp+3)^(0+128),w
  2252  05F6  00D4               	movwf	(pow@x+3)^(0+128)
  2253  05F7  0844               	movf	(?_exp+2)^(0+128),w
  2254  05F8  00D3               	movwf	(pow@x+2)^(0+128)
  2255  05F9  0843               	movf	(?_exp+1)^(0+128),w
  2256  05FA  00D2               	movwf	(pow@x+1)^(0+128)
  2257  05FB  0842               	movf	?_exp^(0+128),w
  2258  05FC  00D1               	movwf	pow@x^(0+128)
  2259  05FD  0861               	movf	pow@sign^(0+128),w
  2260  05FE  1903               	btfsc	3,2
  2261  05FF  0008               	return
  2262  0600  0854               	movf	(pow@x+3)^(0+128),w
  2263  0601  00F6               	movwf	___flneg@f1+3
  2264  0602  0853               	movf	(pow@x+2)^(0+128),w
  2265  0603  00F5               	movwf	___flneg@f1+2
  2266  0604  0852               	movf	(pow@x+1)^(0+128),w
  2267  0605  00F4               	movwf	___flneg@f1+1
  2268  0606  0851               	movf	pow@x^(0+128),w
  2269  0607  00F3               	movwf	___flneg@f1
  2270  0608  120A  118A  24DB   	fcall	___flneg
  2271  060B  0876               	movf	?___flneg+3,w
  2272  060C  00D4               	movwf	(?_pow+3)^(0+128)
  2273  060D  0875               	movf	?___flneg+2,w
  2274  060E  00D3               	movwf	(?_pow+2)^(0+128)
  2275  060F  0874               	movf	?___flneg+1,w
  2276  0610  00D2               	movwf	(?_pow+1)^(0+128)
  2277  0611  0873               	movf	?___flneg,w
  2278  0612  00D1               	movwf	?_pow^(0+128)
  2279  0613  0008               	return
  2280  0614                     __end_of_pow:	
  2281  0614                     __ptext21:	
  2282 ;; *************** function ___lltofl *****************
  2283 ;; Defined at:
  2284 ;;		line 30 in file "C:\Program Files (x86)\Microchip\xc8\v1.34\sources\common\lltofl.c"
  2285 ;; Parameters:    Size  Location     Type
  2286 ;;  c               4    6[BANK0 ] unsigned long 
  2287 ;; Auto vars:     Size  Location     Type
  2288 ;;		None
  2289 ;; Return value:  Size  Location     Type
  2290 ;;                  4    6[BANK0 ] unsigned long 
  2291 ;; Registers used:
  2292 ;;		wreg, status,2, status,0, pclath, cstack
  2293 ;; Tracked objects:
  2294 ;;		On entry : 300/0
  2295 ;;		On exit  : 300/0
  2296 ;;		Unchanged: 0/0
  2297 ;; Data sizes:     COMMON   BANK0   BANK1   BANK3   BANK2
  2298 ;;      Params:         0       4       0       0       0
  2299 ;;      Locals:         0       0       0       0       0
  2300 ;;      Temps:          0       0       0       0       0
  2301 ;;      Totals:         0       4       0       0       0
  2302 ;;Total ram usage:        4 bytes
  2303 ;; Hardware stack levels used:    1
  2304 ;; Hardware stack levels required when called:    2
  2305 ;; This function calls:
  2306 ;;		___flpack
  2307 ;; This function is called by:
  2308 ;;		_pow
  2309 ;; This function uses a non-reentrant model
  2310 ;;
  2311                           
  2312                           
  2313                           ;psect for function ___lltofl
  2314  0614                     ___lltofl:	
  2315                           
  2316                           ;incstack = 0
  2317                           ; Regs used in ___lltofl: [wreg+status,2+status,0+pclath+cstack]
  2318  0614  0829               	movf	___lltofl@c+3,w
  2319  0615  00A3               	movwf	___flpack@arg+3
  2320  0616  0828               	movf	___lltofl@c+2,w
  2321  0617  00A2               	movwf	___flpack@arg+2
  2322  0618  0827               	movf	___lltofl@c+1,w
  2323  0619  00A1               	movwf	___flpack@arg+1
  2324  061A  0826               	movf	___lltofl@c,w
  2325  061B  00A0               	movwf	___flpack@arg
  2326  061C  3096               	movlw	150
  2327  061D  00A4               	movwf	___flpack@exp
  2328  061E  01A5               	clrf	___flpack@sign
  2329  061F  160A  118A  2756   	fcall	___flpack
  2330  0622  0823               	movf	?___flpack+3,w
  2331  0623  00A9               	movwf	?___lltofl+3
  2332  0624  0822               	movf	?___flpack+2,w
  2333  0625  00A8               	movwf	?___lltofl+2
  2334  0626  0821               	movf	?___flpack+1,w
  2335  0627  00A7               	movwf	?___lltofl+1
  2336  0628  0820               	movf	?___flpack,w
  2337  0629  00A6               	movwf	?___lltofl
  2338  062A  0008               	return
  2339  062B                     __end_of___lltofl:	
  2340                           
  2341                           	psect	text14
  2342  0030                     __ptext14:	
  2343 ;; *************** function _ldexp *****************
  2344 ;; Defined at:
  2345 ;;		line 277 in file "C:\Program Files (x86)\Microchip\xc8\v1.34\sources\common\frexp.c"
  2346 ;; Parameters:    Size  Location     Type
  2347 ;;  value           4    0[BANK1 ] unsigned char 
  2348 ;;  newexp          2    4[BANK1 ] int 
  2349 ;; Auto vars:     Size  Location     Type
  2350 ;;		None
  2351 ;; Return value:  Size  Location     Type
  2352 ;;                  4    0[BANK1 ] int 
  2353 ;; Registers used:
  2354 ;;		wreg, status,2, status,0, btemp+1, pclath, cstack
  2355 ;; Tracked objects:
  2356 ;;		On entry : 300/100
  2357 ;;		On exit  : 300/100
  2358 ;;		Unchanged: 0/0
  2359 ;; Data sizes:     COMMON   BANK0   BANK1   BANK3   BANK2
  2360 ;;      Params:         0       0       6       0       0
  2361 ;;      Locals:         0       0       4       0       0
  2362 ;;      Temps:          0       2       0       0       0
  2363 ;;      Totals:         0       2      10       0       0
  2364 ;;Total ram usage:       12 bytes
  2365 ;; Hardware stack levels used:    1
  2366 ;; Hardware stack levels required when called:    2
  2367 ;; This function calls:
  2368 ;;		___flge
  2369 ;;		___flneg
  2370 ;; This function is called by:
  2371 ;;		_exp
  2372 ;; This function uses a non-reentrant model
  2373 ;;
  2374                           
  2375                           
  2376                           ;psect for function _ldexp
  2377  0030                     _ldexp:	
  2378                           
  2379                           ;incstack = 0
  2380                           ; Regs used in _ldexp: [wreg+status,2+status,0+btemp+1+pclath+cstack]
  2381  0030  0823               	movf	(ldexp@value+3)^(0+128),w
  2382  0031  0422               	iorwf	(ldexp@value+2)^(0+128),w
  2383  0032  0421               	iorwf	(ldexp@value+1)^(0+128),w
  2384  0033  0420               	iorwf	ldexp@value^(0+128),w
  2385  0034  1D03               	skipz
  2386  0035  283B               	goto	l3333
  2387  0036  01A0               	clrf	?_ldexp^(0+128)
  2388  0037  01A1               	clrf	(?_ldexp+1)^(0+128)
  2389  0038  01A2               	clrf	(?_ldexp+2)^(0+128)
  2390  0039  01A3               	clrf	(?_ldexp+3)^(0+128)
  2391  003A  0008               	return
  2392  003B                     l3333:	
  2393  003B  0823               	movf	(ldexp@value^(0+128)+3),w
  2394  003C  397F               	andlw	127
  2395  003D  1283               	bcf	3,5	;RP0=0, select bank0
  2396  003E  00EB               	movwf	??_ldexp
  2397  003F  01EC               	clrf	??_ldexp+1
  2398  0040  1003               	clrc
  2399  0041  0DEB               	rlf	??_ldexp,f
  2400  0042  0DEC               	rlf	??_ldexp+1,f
  2401  0043  086B               	movf	??_ldexp,w
  2402  0044  1683               	bsf	3,5	;RP0=1, select bank1
  2403  0045  07A4               	addwf	ldexp@newexp^(0+128),f
  2404  0046  1803               	skipnc
  2405  0047  0AA5               	incf	(ldexp@newexp+1)^(0+128),f
  2406  0048  1283               	bcf	3,5	;RP0=0, select bank0
  2407  0049  086C               	movf	??_ldexp+1,w
  2408  004A  1683               	bsf	3,5	;RP0=1, select bank1
  2409  004B  07A5               	addwf	(ldexp@newexp+1)^(0+128),f
  2410  004C  0D22               	rlf	(ldexp@value^(0+128)+2),w
  2411  004D  0D22               	rlf	(ldexp@value^(0+128)+2),w
  2412  004E  3901               	andlw	1
  2413  004F  07A4               	addwf	ldexp@newexp^(0+128),f
  2414  0050  1803               	skipnc
  2415  0051  0AA5               	incf	(ldexp@newexp+1)^(0+128),f
  2416  0052  1FA5               	btfss	(ldexp@newexp+1)^(0+128),7
  2417  0053  2859               	goto	l3341
  2418  0054  01A0               	clrf	?_ldexp^(0+128)
  2419  0055  01A1               	clrf	(?_ldexp+1)^(0+128)
  2420  0056  01A2               	clrf	(?_ldexp+2)^(0+128)
  2421  0057  01A3               	clrf	(?_ldexp+3)^(0+128)
  2422  0058  0008               	return
  2423  0059                     l3341:	
  2424  0059  0825               	movf	(ldexp@newexp+1)^(0+128),w
  2425  005A  3A80               	xorlw	128
  2426  005B  00FF               	movwf	127
  2427  005C  3081               	movlw	129
  2428  005D  027F               	subwf	127,w
  2429  005E  1D03               	skipz
  2430  005F  2862               	goto	u3265
  2431  0060  3000               	movlw	0
  2432  0061  0224               	subwf	ldexp@newexp^(0+128),w
  2433  0062                     u3265:	
  2434  0062  1C03               	skipc
  2435  0063  28A4               	goto	l3363
  2436  0064  1683               	bsf	3,5	;RP0=1, select bank1
  2437  0065  1303               	bcf	3,6	;RP1=0, select bank1
  2438  0066  0823               	movf	(ldexp@value+3)^(0+128),w
  2439  0067  1283               	bcf	3,5	;RP0=0, select bank0
  2440  0068  00A3               	movwf	___flge@ff1+3
  2441  0069  1683               	bsf	3,5	;RP0=1, select bank1
  2442  006A  0822               	movf	(ldexp@value+2)^(0+128),w
  2443  006B  1283               	bcf	3,5	;RP0=0, select bank0
  2444  006C  00A2               	movwf	___flge@ff1+2
  2445  006D  1683               	bsf	3,5	;RP0=1, select bank1
  2446  006E  0821               	movf	(ldexp@value+1)^(0+128),w
  2447  006F  1283               	bcf	3,5	;RP0=0, select bank0
  2448  0070  00A1               	movwf	___flge@ff1+1
  2449  0071  1683               	bsf	3,5	;RP0=1, select bank1
  2450  0072  0820               	movf	ldexp@value^(0+128),w
  2451  0073  1283               	bcf	3,5	;RP0=0, select bank0
  2452  0074  00A0               	movwf	___flge@ff1
  2453  0075  01A4               	clrf	___flge@ff2
  2454  0076  01A5               	clrf	___flge@ff2+1
  2455  0077  01A6               	clrf	___flge@ff2+2
  2456  0078  01A7               	clrf	___flge@ff2+3
  2457  0079  160A  118A  270A  120A  118A  	fcall	___flge
  2458  007E  307F               	movlw	127
  2459  007F  1803               	btfsc	3,0
  2460  0080  289C               	goto	L9
  2461  0081  1683               	bsf	3,5	;RP0=1, select bank1
  2462  0082  00A9               	movwf	(_ldexp$495+3)^(0+128)
  2463  0083  00A8               	movwf	(_ldexp$495+2)^(0+128)
  2464  0084  30FE               	movlw	254
  2465  0085  00A7               	movwf	(_ldexp$495+1)^(0+128)
  2466  0086  30F7               	movlw	247
  2467  0087  00A6               	movwf	_ldexp$495^(0+128)
  2468  0088  0829               	movf	(_ldexp$495+3)^(0+128),w
  2469  0089  00F6               	movwf	___flneg@f1+3
  2470  008A  0828               	movf	(_ldexp$495+2)^(0+128),w
  2471  008B  00F5               	movwf	___flneg@f1+2
  2472  008C  0827               	movf	(_ldexp$495+1)^(0+128),w
  2473  008D  00F4               	movwf	___flneg@f1+1
  2474  008E  0826               	movf	_ldexp$495^(0+128),w
  2475  008F  00F3               	movwf	___flneg@f1
  2476  0090  120A  118A  24DB   	fcall	___flneg
  2477  0093  0876               	movf	?___flneg+3,w
  2478  0094  00A3               	movwf	(?_ldexp+3)^(0+128)
  2479  0095  0875               	movf	?___flneg+2,w
  2480  0096  00A2               	movwf	(?_ldexp+2)^(0+128)
  2481  0097  0874               	movf	?___flneg+1,w
  2482  0098  00A1               	movwf	(?_ldexp+1)^(0+128)
  2483  0099  0873               	movf	?___flneg,w
  2484  009A  00A0               	movwf	?_ldexp^(0+128)
  2485  009B  0008               	return
  2486  009C                     L9:	
  2487  009C  1683               	bsf	3,5	;RP0=1, select bank1
  2488  009D  00A3               	movwf	(?_ldexp+3)^(0+128)
  2489  009E  00A2               	movwf	(?_ldexp+2)^(0+128)
  2490  009F  30FE               	movlw	254
  2491  00A0  00A1               	movwf	(?_ldexp+1)^(0+128)
  2492  00A1  30F7               	movlw	247
  2493  00A2  00A0               	movwf	?_ldexp^(0+128)
  2494  00A3  0008               	return
  2495  00A4                     l3363:	
  2496  00A4  1683               	bsf	3,5	;RP0=1, select bank1
  2497  00A5  1303               	bcf	3,6	;RP1=0, select bank1
  2498  00A6  0825               	movf	(ldexp@newexp+1)^(0+128),w
  2499  00A7  1283               	bcf	3,5	;RP0=0, select bank0
  2500  00A8  00EC               	movwf	??_ldexp+1
  2501  00A9  1683               	bsf	3,5	;RP0=1, select bank1
  2502  00AA  0824               	movf	ldexp@newexp^(0+128),w
  2503  00AB  1283               	bcf	3,5	;RP0=0, select bank0
  2504  00AC  00EB               	movwf	??_ldexp
  2505  00AD  0D6C               	rlf	??_ldexp+1,w
  2506  00AE  0CEC               	rrf	??_ldexp+1,f
  2507  00AF  0CEB               	rrf	??_ldexp,f
  2508  00B0  1683               	bsf	3,5	;RP0=1, select bank1
  2509  00B1  0823               	movf	(ldexp@value^(0+128)+3),w
  2510  00B2  1283               	bcf	3,5	;RP0=0, select bank0
  2511  00B3  066B               	xorwf	??_ldexp,w
  2512  00B4  3980               	andlw	-128
  2513  00B5  066B               	xorwf	??_ldexp,w
  2514  00B6  1683               	bsf	3,5	;RP0=1, select bank1
  2515  00B7  00A3               	movwf	(ldexp@value^(0+128)+3)
  2516  00B8  0824               	movf	ldexp@newexp^(0+128),w
  2517  00B9  3901               	andlw	1
  2518  00BA  1283               	bcf	3,5	;RP0=0, select bank0
  2519  00BB  00EB               	movwf	??_ldexp
  2520  00BC  0CEB               	rrf	??_ldexp,f
  2521  00BD  0CEB               	rrf	??_ldexp,f
  2522  00BE  1683               	bsf	3,5	;RP0=1, select bank1
  2523  00BF  0822               	movf	(ldexp@value^(0+128)+2),w
  2524  00C0  1283               	bcf	3,5	;RP0=0, select bank0
  2525  00C1  066B               	xorwf	??_ldexp,w
  2526  00C2  397F               	andlw	-129
  2527  00C3  066B               	xorwf	??_ldexp,w
  2528  00C4  1683               	bsf	3,5	;RP0=1, select bank1
  2529  00C5  00A2               	movwf	(ldexp@value^(0+128)+2)
  2530  00C6  0008               	return
  2531  00C7                     __end_of_ldexp:	
  2532                           
  2533                           	psect	text22
  2534  07FA                     __ptext22:	
  2535 ;; *************** function _format_putchar *****************
  2536 ;; Defined at:
  2537 ;;		line 6 in file "../../../lib/format.c"
  2538 ;; Parameters:    Size  Location     Type
  2539 ;;  c               1    5[COMMON] unsigned char 
  2540 ;; Auto vars:     Size  Location     Type
  2541 ;;		None
  2542 ;; Return value:  Size  Location     Type
  2543 ;;		None               void
  2544 ;; Registers used:
  2545 ;;		None
  2546 ;; Tracked objects:
  2547 ;;		On entry : 0/0
  2548 ;;		On exit  : 0/0
  2549 ;;		Unchanged: 0/0
  2550 ;; Data sizes:     COMMON   BANK0   BANK1   BANK3   BANK2
  2551 ;;      Params:         1       0       0       0       0
  2552 ;;      Locals:         0       0       0       0       0
  2553 ;;      Temps:          0       0       0       0       0
  2554 ;;      Totals:         1       0       0       0       0
  2555 ;;Total ram usage:        1 bytes
  2556 ;; Hardware stack levels used:    1
  2557 ;; Hardware stack levels required when called:    1
  2558 ;; This function calls:
  2559 ;;		Nothing
  2560 ;; This function is called by:
  2561 ;;		_format_number
  2562 ;;		_format_xint32
  2563 ;;		_format_double
  2564 ;; This function uses a non-reentrant model
  2565 ;;
  2566                           
  2567                           
  2568                           ;psect for function _format_putchar
  2569  07FA                     _format_putchar:	
  2570                           
  2571                           ;format.c: 7: return;
  2572                           
  2573                           ;incstack = 0
  2574                           ; Regs used in _format_putchar: []
  2575  07FA  0008               	return
  2576  07FB                     __end_of_format_putchar:	
  2577                           
  2578                           	psect	text24
  2579  0819                     __ptext24:	
  2580 ;; *************** function _output_putch *****************
  2581 ;; Defined at:
  2582 ;;		line 48 in file "../../../src/LC-meter.c"
  2583 ;; Parameters:    Size  Location     Type
  2584 ;;  c               1    5[COMMON] unsigned char 
  2585 ;; Auto vars:     Size  Location     Type
  2586 ;;		None
  2587 ;; Return value:  Size  Location     Type
  2588 ;;		None               void
  2589 ;; Registers used:
  2590 ;;		wreg, fsr0l, fsr0h, status,2, status,0, pclath, cstack
  2591 ;; Tracked objects:
  2592 ;;		On entry : 0/0
  2593 ;;		On exit  : B00/900
  2594 ;;		Unchanged: 0/0
  2595 ;; Data sizes:     COMMON   BANK0   BANK1   BANK3   BANK2
  2596 ;;      Params:         1       0       0       0       0
  2597 ;;      Locals:         0       0       0       0       0
  2598 ;;      Temps:          0       0       0       0       0
  2599 ;;      Totals:         1       0       0       0       0
  2600 ;;Total ram usage:        1 bytes
  2601 ;; Hardware stack levels used:    1
  2602 ;; Hardware stack levels required when called:    2
  2603 ;; This function calls:
  2604 ;;		_ser_putch
  2605 ;; This function is called by:
  2606 ;;		_measure_capacitance
  2607 ;;		_format_number
  2608 ;;		_format_xint32
  2609 ;;		_format_double
  2610 ;; This function uses a non-reentrant model
  2611 ;;
  2612                           
  2613                           
  2614                           ;psect for function _output_putch
  2615  0819                     _output_putch:	
  2616                           
  2617                           ;LC-meter.c: 54: ser_putch(c);
  2618                           
  2619                           ;incstack = 0
  2620                           ; Regs used in _output_putch: [wreg-fsr0h+status,2+status,0+pclath+cstack]
  2621  0819  0875               	movf	output_putch@c,w
  2622  081A  00F5               	movwf	ser_putch@c
  2623  081B  2CA6               	ljmp	l2245
  2624  081C                     __end_of_output_putch:	
  2625  081C                     __ptext4:	
  2626 ;; *************** function _measure_capacitance *****************
  2627 ;; Defined at:
  2628 ;;		line 391 in file "../../../src/LC-meter.c"
  2629 ;; Parameters:    Size  Location     Type
  2630 ;;		None
  2631 ;; Auto vars:     Size  Location     Type
  2632 ;;  Cin             4   35[BANK3 ] unsigned char 
  2633 ;;  var             2   33[BANK3 ] unsigned short 
  2634 ;;  unit            1   32[BANK3 ] unsigned char 
  2635 ;; Return value:  Size  Location     Type
  2636 ;;		None               void
  2637 ;; Registers used:
  2638 ;;		wreg, fsr0l, fsr0h, status,2, status,0, btemp+1, pclath, cstack
  2639 ;; Tracked objects:
  2640 ;;		On entry : 300/0
  2641 ;;		On exit  : 100/100
  2642 ;;		Unchanged: 0/0
  2643 ;; Data sizes:     COMMON   BANK0   BANK1   BANK3   BANK2
  2644 ;;      Params:         0       0       0       0       0
  2645 ;;      Locals:         0       0       0      19       0
  2646 ;;      Temps:          0       0       0       0       0
  2647 ;;      Totals:         0       0       0      19       0
  2648 ;;Total ram usage:       19 bytes
  2649 ;; Hardware stack levels used:    1
  2650 ;; Hardware stack levels required when called:    7
  2651 ;; This function calls:
  2652 ;;		___fldiv
  2653 ;;		___flge
  2654 ;;		___flmul
  2655 ;;		___flsub
  2656 ;;		___fltol
  2657 ;;		___lwtofl
  2658 ;;		_format_double
  2659 ;;		_format_xint32
  2660 ;;		_measure_freq
  2661 ;;		_print_reading
  2662 ;;		_print_unit
  2663 ;;		_ser_putch
  2664 ;;		_ser_puts
  2665 ;; This function is called by:
  2666 ;;		_main
  2667 ;; This function uses a non-reentrant model
  2668 ;;
  2669                           
  2670                           
  2671                           ;psect for function _measure_capacitance
  2672  081C                     _measure_capacitance:	
  2673                           
  2674                           ;LC-meter.c: 392: unsigned char unit;
  2675                           ;LC-meter.c: 393: unsigned short int var;
  2676                           ;LC-meter.c: 395: double Cin;
  2677                           ;LC-meter.c: 402: var = measure_freq();
  2678                           
  2679                           ;incstack = 0
  2680                           ; Regs used in _measure_capacitance: [wreg-fsr0h+status,2+status,0+btemp+1+pclath+cstack
      +                          ]
  2681  081C  160A  118A  27A5  120A  158A  	fcall	_measure_freq
  2682  0821  0874               	movf	?_measure_freq+1,w
  2683  0822  1683               	bsf	3,5	;RP0=1, select bank3
  2684  0823  1703               	bsf	3,6	;RP1=1, select bank3
  2685  0824  00B2               	movwf	(measure_capacitance@var+1)^(0+384)
  2686  0825  0873               	movf	?_measure_freq,w
  2687  0826  00B1               	movwf	measure_capacitance@var^(0+384)
  2688                           
  2689                           ;LC-meter.c: 404: F3 = (double)var;
  2690  0827  0832               	movf	(measure_capacitance@var+1)^(0+384),w
  2691  0828  1283               	bcf	3,5	;RP0=0, select bank0
  2692  0829  1303               	bcf	3,6	;RP1=0, select bank0
  2693  082A  00A9               	movwf	___lwtofl@c+1
  2694  082B  1683               	bsf	3,5	;RP0=1, select bank3
  2695  082C  1703               	bsf	3,6	;RP1=1, select bank3
  2696  082D  0831               	movf	measure_capacitance@var^(0+384),w
  2697  082E  1283               	bcf	3,5	;RP0=0, select bank0
  2698  082F  1303               	bcf	3,6	;RP1=0, select bank0
  2699  0830  00A8               	movwf	___lwtofl@c
  2700  0831  27E9  120A  158A   	fcall	___lwtofl
  2701  0834  082B               	movf	?___lwtofl+3,w
  2702  0835  1683               	bsf	3,5	;RP0=1, select bank3
  2703  0836  1703               	bsf	3,6	;RP1=1, select bank3
  2704  0837  00CE               	movwf	(_F3+3)^(0+384)
  2705  0838  1283               	bcf	3,5	;RP0=0, select bank0
  2706  0839  1303               	bcf	3,6	;RP1=0, select bank0
  2707  083A  082A               	movf	?___lwtofl+2,w
  2708  083B  1683               	bsf	3,5	;RP0=1, select bank3
  2709  083C  1703               	bsf	3,6	;RP1=1, select bank3
  2710  083D  00CD               	movwf	(_F3+2)^(0+384)
  2711  083E  1283               	bcf	3,5	;RP0=0, select bank0
  2712  083F  1303               	bcf	3,6	;RP1=0, select bank0
  2713  0840  0829               	movf	?___lwtofl+1,w
  2714  0841  1683               	bsf	3,5	;RP0=1, select bank3
  2715  0842  1703               	bsf	3,6	;RP1=1, select bank3
  2716  0843  00CC               	movwf	(_F3+1)^(0+384)
  2717  0844  1283               	bcf	3,5	;RP0=0, select bank0
  2718  0845  1303               	bcf	3,6	;RP1=0, select bank0
  2719  0846  0828               	movf	?___lwtofl,w
  2720  0847  1683               	bsf	3,5	;RP0=1, select bank3
  2721  0848  1703               	bsf	3,6	;RP1=1, select bank3
  2722  0849  00CB               	movwf	_F3^(0+384)
  2723                           
  2724                           ;LC-meter.c: 406: putchar_ptr = &ser_putch;
  2725  084A  3004               	movlw	(low (fp__ser_putch-fpbase))& (0+255)
  2726  084B  00FA               	movwf	_putchar_ptr
  2727                           
  2728                           ;LC-meter.c: 407: ser_puts("var=");
  2729  084C  3072               	movlw	(low ((STR_4-__stringbase)| (0+32768)))& (0+255)
  2730  084D  248E  120A  158A   	fcall	_ser_puts
  2731                           
  2732                           ;LC-meter.c: 408: format_xint32( var);
  2733  0850  1683               	bsf	3,5	;RP0=1, select bank3
  2734  0851  1703               	bsf	3,6	;RP1=1, select bank3
  2735  0852  0831               	movf	measure_capacitance@var^(0+384),w
  2736  0853  1283               	bcf	3,5	;RP0=0, select bank0
  2737  0854  1303               	bcf	3,6	;RP1=0, select bank0
  2738  0855  00CD               	movwf	format_xint32@x
  2739  0856  1683               	bsf	3,5	;RP0=1, select bank3
  2740  0857  1703               	bsf	3,6	;RP1=1, select bank3
  2741  0858  0832               	movf	(measure_capacitance@var+1)^(0+384),w
  2742  0859  1283               	bcf	3,5	;RP0=0, select bank0
  2743  085A  1303               	bcf	3,6	;RP1=0, select bank0
  2744  085B  00CE               	movwf	format_xint32@x+1
  2745  085C  01CF               	clrf	format_xint32@x+2
  2746  085D  01D0               	clrf	format_xint32@x+3
  2747  085E  24BB  120A  158A   	fcall	_format_xint32
  2748                           
  2749                           ;LC-meter.c: 409: ser_puts("\r\nF1=");
  2750  0861  305B               	movlw	(low ((STR_5-__stringbase)| (0+32768)))& (0+255)
  2751  0862  248E  120A  158A   	fcall	_ser_puts
  2752                           
  2753                           ;LC-meter.c: 410: format_double( F1);
  2754  0865  1683               	bsf	3,5	;RP0=1, select bank3
  2755  0866  1703               	bsf	3,6	;RP1=1, select bank3
  2756  0867  085C               	movf	(_F1+3)^(0+384),w
  2757  0868  0093               	movwf	(format_double@num+3)^(0+384)
  2758  0869  085B               	movf	(_F1+2)^(0+384),w
  2759  086A  0092               	movwf	(format_double@num+2)^(0+384)
  2760  086B  085A               	movf	(_F1+1)^(0+384),w
  2761  086C  0091               	movwf	(format_double@num+1)^(0+384)
  2762  086D  0859               	movf	_F1^(0+384),w
  2763  086E  0090               	movwf	format_double@num^(0+384)
  2764  086F  24E1  120A  158A   	fcall	_format_double
  2765                           
  2766                           ;LC-meter.c: 411: ser_putch(' ');
  2767  0872  3020               	movlw	32
  2768  0873  00F5               	movwf	ser_putch@c
  2769  0874  24A6  120A  158A   	fcall	_ser_putch
  2770                           
  2771                           ;LC-meter.c: 412: format_xint32( *(unsigned long int*)&F1);
  2772  0877  1703               	bsf	3,6	;RP1=1, select bank3
  2773  0878  085C               	movf	(_F1+3)^(0+384),w
  2774  0879  1283               	bcf	3,5	;RP0=0, select bank0
  2775  087A  1303               	bcf	3,6	;RP1=0, select bank0
  2776  087B  00D0               	movwf	format_xint32@x+3
  2777  087C  1683               	bsf	3,5	;RP0=1, select bank3
  2778  087D  1703               	bsf	3,6	;RP1=1, select bank3
  2779  087E  085B               	movf	(_F1+2)^(0+384),w
  2780  087F  1283               	bcf	3,5	;RP0=0, select bank0
  2781  0880  1303               	bcf	3,6	;RP1=0, select bank0
  2782  0881  00CF               	movwf	format_xint32@x+2
  2783  0882  1683               	bsf	3,5	;RP0=1, select bank3
  2784  0883  1703               	bsf	3,6	;RP1=1, select bank3
  2785  0884  085A               	movf	(_F1+1)^(0+384),w
  2786  0885  1283               	bcf	3,5	;RP0=0, select bank0
  2787  0886  1303               	bcf	3,6	;RP1=0, select bank0
  2788  0887  00CE               	movwf	format_xint32@x+1
  2789  0888  1683               	bsf	3,5	;RP0=1, select bank3
  2790  0889  1703               	bsf	3,6	;RP1=1, select bank3
  2791  088A  0859               	movf	_F1^(0+384),w
  2792  088B  1283               	bcf	3,5	;RP0=0, select bank0
  2793  088C  1303               	bcf	3,6	;RP1=0, select bank0
  2794  088D  00CD               	movwf	format_xint32@x
  2795  088E  24BB  120A  158A   	fcall	_format_xint32
  2796                           
  2797                           ;LC-meter.c: 413: ser_puts("\r\nF2=");
  2798  0891  3061               	movlw	(low ((STR_6-__stringbase)| (0+32768)))& (0+255)
  2799  0892  248E  120A  158A   	fcall	_ser_puts
  2800                           
  2801                           ;LC-meter.c: 414: format_double( F2);
  2802  0895  1683               	bsf	3,5	;RP0=1, select bank3
  2803  0896  1703               	bsf	3,6	;RP1=1, select bank3
  2804  0897  084A               	movf	(_F2+3)^(0+384),w
  2805  0898  0093               	movwf	(format_double@num+3)^(0+384)
  2806  0899  0849               	movf	(_F2+2)^(0+384),w
  2807  089A  0092               	movwf	(format_double@num+2)^(0+384)
  2808  089B  0848               	movf	(_F2+1)^(0+384),w
  2809  089C  0091               	movwf	(format_double@num+1)^(0+384)
  2810  089D  0847               	movf	_F2^(0+384),w
  2811  089E  0090               	movwf	format_double@num^(0+384)
  2812  089F  24E1  120A  158A   	fcall	_format_double
  2813                           
  2814                           ;LC-meter.c: 415: ser_putch(' ');
  2815  08A2  3020               	movlw	32
  2816  08A3  00F5               	movwf	ser_putch@c
  2817  08A4  24A6  120A  158A   	fcall	_ser_putch
  2818                           
  2819                           ;LC-meter.c: 416: format_xint32( *(unsigned long int*)&F2);
  2820  08A7  1703               	bsf	3,6	;RP1=1, select bank3
  2821  08A8  084A               	movf	(_F2+3)^(0+384),w
  2822  08A9  1283               	bcf	3,5	;RP0=0, select bank0
  2823  08AA  1303               	bcf	3,6	;RP1=0, select bank0
  2824  08AB  00D0               	movwf	format_xint32@x+3
  2825  08AC  1683               	bsf	3,5	;RP0=1, select bank3
  2826  08AD  1703               	bsf	3,6	;RP1=1, select bank3
  2827  08AE  0849               	movf	(_F2+2)^(0+384),w
  2828  08AF  1283               	bcf	3,5	;RP0=0, select bank0
  2829  08B0  1303               	bcf	3,6	;RP1=0, select bank0
  2830  08B1  00CF               	movwf	format_xint32@x+2
  2831  08B2  1683               	bsf	3,5	;RP0=1, select bank3
  2832  08B3  1703               	bsf	3,6	;RP1=1, select bank3
  2833  08B4  0848               	movf	(_F2+1)^(0+384),w
  2834  08B5  1283               	bcf	3,5	;RP0=0, select bank0
  2835  08B6  1303               	bcf	3,6	;RP1=0, select bank0
  2836  08B7  00CE               	movwf	format_xint32@x+1
  2837  08B8  1683               	bsf	3,5	;RP0=1, select bank3
  2838  08B9  1703               	bsf	3,6	;RP1=1, select bank3
  2839  08BA  0847               	movf	_F2^(0+384),w
  2840  08BB  1283               	bcf	3,5	;RP0=0, select bank0
  2841  08BC  1303               	bcf	3,6	;RP1=0, select bank0
  2842  08BD  00CD               	movwf	format_xint32@x
  2843  08BE  24BB  120A  158A   	fcall	_format_xint32
  2844                           
  2845                           ;LC-meter.c: 417: ser_puts("\r\nF3=");
  2846  08C1  3067               	movlw	(low ((STR_7-__stringbase)| (0+32768)))& (0+255)
  2847  08C2  248E  120A  158A   	fcall	_ser_puts
  2848                           
  2849                           ;LC-meter.c: 418: format_double( F3);
  2850  08C5  1683               	bsf	3,5	;RP0=1, select bank3
  2851  08C6  1703               	bsf	3,6	;RP1=1, select bank3
  2852  08C7  084E               	movf	(_F3+3)^(0+384),w
  2853  08C8  0093               	movwf	(format_double@num+3)^(0+384)
  2854  08C9  084D               	movf	(_F3+2)^(0+384),w
  2855  08CA  0092               	movwf	(format_double@num+2)^(0+384)
  2856  08CB  084C               	movf	(_F3+1)^(0+384),w
  2857  08CC  0091               	movwf	(format_double@num+1)^(0+384)
  2858  08CD  084B               	movf	_F3^(0+384),w
  2859  08CE  0090               	movwf	format_double@num^(0+384)
  2860  08CF  24E1  120A  158A   	fcall	_format_double
  2861                           
  2862                           ;LC-meter.c: 419: ser_putch(' ');
  2863  08D2  3020               	movlw	32
  2864  08D3  00F5               	movwf	ser_putch@c
  2865  08D4  24A6  120A  158A   	fcall	_ser_putch
  2866                           
  2867                           ;LC-meter.c: 420: format_xint32( *(unsigned long int*)&F3);
  2868  08D7  1703               	bsf	3,6	;RP1=1, select bank3
  2869  08D8  084E               	movf	(_F3+3)^(0+384),w
  2870  08D9  1283               	bcf	3,5	;RP0=0, select bank0
  2871  08DA  1303               	bcf	3,6	;RP1=0, select bank0
  2872  08DB  00D0               	movwf	format_xint32@x+3
  2873  08DC  1683               	bsf	3,5	;RP0=1, select bank3
  2874  08DD  1703               	bsf	3,6	;RP1=1, select bank3
  2875  08DE  084D               	movf	(_F3+2)^(0+384),w
  2876  08DF  1283               	bcf	3,5	;RP0=0, select bank0
  2877  08E0  1303               	bcf	3,6	;RP1=0, select bank0
  2878  08E1  00CF               	movwf	format_xint32@x+2
  2879  08E2  1683               	bsf	3,5	;RP0=1, select bank3
  2880  08E3  1703               	bsf	3,6	;RP1=1, select bank3
  2881  08E4  084C               	movf	(_F3+1)^(0+384),w
  2882  08E5  1283               	bcf	3,5	;RP0=0, select bank0
  2883  08E6  1303               	bcf	3,6	;RP1=0, select bank0
  2884  08E7  00CE               	movwf	format_xint32@x+1
  2885  08E8  1683               	bsf	3,5	;RP0=1, select bank3
  2886  08E9  1703               	bsf	3,6	;RP1=1, select bank3
  2887  08EA  084B               	movf	_F3^(0+384),w
  2888  08EB  1283               	bcf	3,5	;RP0=0, select bank0
  2889  08EC  1303               	bcf	3,6	;RP1=0, select bank0
  2890  08ED  00CD               	movwf	format_xint32@x
  2891  08EE  24BB  120A  158A   	fcall	_format_xint32
  2892                           
  2893                           ;LC-meter.c: 421: ser_puts("\r\nCCal=");
  2894  08F1  304D               	movlw	(low ((STR_8-__stringbase)| (0+32768)))& (0+255)
  2895  08F2  248E  120A  158A   	fcall	_ser_puts
  2896                           
  2897                           ;LC-meter.c: 422: format_double( CCal);
  2898  08F5  1683               	bsf	3,5	;RP0=1, select bank3
  2899  08F6  1703               	bsf	3,6	;RP1=1, select bank3
  2900  08F7  0860               	movf	(_CCal+3)^(0+384),w
  2901  08F8  0093               	movwf	(format_double@num+3)^(0+384)
  2902  08F9  085F               	movf	(_CCal+2)^(0+384),w
  2903  08FA  0092               	movwf	(format_double@num+2)^(0+384)
  2904  08FB  085E               	movf	(_CCal+1)^(0+384),w
  2905  08FC  0091               	movwf	(format_double@num+1)^(0+384)
  2906  08FD  085D               	movf	_CCal^(0+384),w
  2907  08FE  0090               	movwf	format_double@num^(0+384)
  2908  08FF  24E1  120A  158A   	fcall	_format_double
  2909                           
  2910                           ;LC-meter.c: 423: ser_putch(' ');
  2911  0902  3020               	movlw	32
  2912  0903  00F5               	movwf	ser_putch@c
  2913  0904  24A6  120A  158A   	fcall	_ser_putch
  2914                           
  2915                           ;LC-meter.c: 424: format_xint32( *(unsigned long int*)&CCal);
  2916  0907  1703               	bsf	3,6	;RP1=1, select bank3
  2917  0908  0860               	movf	(_CCal+3)^(0+384),w
  2918  0909  1283               	bcf	3,5	;RP0=0, select bank0
  2919  090A  1303               	bcf	3,6	;RP1=0, select bank0
  2920  090B  00D0               	movwf	format_xint32@x+3
  2921  090C  1683               	bsf	3,5	;RP0=1, select bank3
  2922  090D  1703               	bsf	3,6	;RP1=1, select bank3
  2923  090E  085F               	movf	(_CCal+2)^(0+384),w
  2924  090F  1283               	bcf	3,5	;RP0=0, select bank0
  2925  0910  1303               	bcf	3,6	;RP1=0, select bank0
  2926  0911  00CF               	movwf	format_xint32@x+2
  2927  0912  1683               	bsf	3,5	;RP0=1, select bank3
  2928  0913  1703               	bsf	3,6	;RP1=1, select bank3
  2929  0914  085E               	movf	(_CCal+1)^(0+384),w
  2930  0915  1283               	bcf	3,5	;RP0=0, select bank0
  2931  0916  1303               	bcf	3,6	;RP1=0, select bank0
  2932  0917  00CE               	movwf	format_xint32@x+1
  2933  0918  1683               	bsf	3,5	;RP0=1, select bank3
  2934  0919  1703               	bsf	3,6	;RP1=1, select bank3
  2935  091A  085D               	movf	_CCal^(0+384),w
  2936  091B  1283               	bcf	3,5	;RP0=0, select bank0
  2937  091C  1303               	bcf	3,6	;RP1=0, select bank0
  2938  091D  00CD               	movwf	format_xint32@x
  2939  091E  24BB  120A  158A   	fcall	_format_xint32
  2940                           
  2941                           ;LC-meter.c: 425: ser_puts("\r\n");
  2942  0921  3058               	movlw	(low (((STR_1+3)-__stringbase)| (0+32768)))& (0+255)
  2943  0922  248E  120A  158A   	fcall	_ser_puts
  2944                           
  2945                           ;LC-meter.c: 427: putchar_ptr = &output_putch;
  2946  0925  3001               	movlw	(low (fp__output_putch-fpbase))& (0+255)
  2947  0926  00FA               	movwf	_putchar_ptr
  2948                           
  2949                           ;LC-meter.c: 429: if(F3 > F1)
  2950  0927  1683               	bsf	3,5	;RP0=1, select bank3
  2951  0928  1703               	bsf	3,6	;RP1=1, select bank3
  2952  0929  085C               	movf	(_F1+3)^(0+384),w
  2953  092A  1283               	bcf	3,5	;RP0=0, select bank0
  2954  092B  1303               	bcf	3,6	;RP1=0, select bank0
  2955  092C  00A3               	movwf	___flge@ff1+3
  2956  092D  1683               	bsf	3,5	;RP0=1, select bank3
  2957  092E  1703               	bsf	3,6	;RP1=1, select bank3
  2958  092F  085B               	movf	(_F1+2)^(0+384),w
  2959  0930  1283               	bcf	3,5	;RP0=0, select bank0
  2960  0931  1303               	bcf	3,6	;RP1=0, select bank0
  2961  0932  00A2               	movwf	___flge@ff1+2
  2962  0933  1683               	bsf	3,5	;RP0=1, select bank3
  2963  0934  1703               	bsf	3,6	;RP1=1, select bank3
  2964  0935  085A               	movf	(_F1+1)^(0+384),w
  2965  0936  1283               	bcf	3,5	;RP0=0, select bank0
  2966  0937  1303               	bcf	3,6	;RP1=0, select bank0
  2967  0938  00A1               	movwf	___flge@ff1+1
  2968  0939  1683               	bsf	3,5	;RP0=1, select bank3
  2969  093A  1703               	bsf	3,6	;RP1=1, select bank3
  2970  093B  0859               	movf	_F1^(0+384),w
  2971  093C  1283               	bcf	3,5	;RP0=0, select bank0
  2972  093D  1303               	bcf	3,6	;RP1=0, select bank0
  2973  093E  00A0               	movwf	___flge@ff1
  2974  093F  1683               	bsf	3,5	;RP0=1, select bank3
  2975  0940  1703               	bsf	3,6	;RP1=1, select bank3
  2976  0941  084E               	movf	(_F3+3)^(0+384),w
  2977  0942  1283               	bcf	3,5	;RP0=0, select bank0
  2978  0943  1303               	bcf	3,6	;RP1=0, select bank0
  2979  0944  00A7               	movwf	___flge@ff2+3
  2980  0945  1683               	bsf	3,5	;RP0=1, select bank3
  2981  0946  1703               	bsf	3,6	;RP1=1, select bank3
  2982  0947  084D               	movf	(_F3+2)^(0+384),w
  2983  0948  1283               	bcf	3,5	;RP0=0, select bank0
  2984  0949  1303               	bcf	3,6	;RP1=0, select bank0
  2985  094A  00A6               	movwf	___flge@ff2+2
  2986  094B  1683               	bsf	3,5	;RP0=1, select bank3
  2987  094C  1703               	bsf	3,6	;RP1=1, select bank3
  2988  094D  084C               	movf	(_F3+1)^(0+384),w
  2989  094E  1283               	bcf	3,5	;RP0=0, select bank0
  2990  094F  1303               	bcf	3,6	;RP1=0, select bank0
  2991  0950  00A5               	movwf	___flge@ff2+1
  2992  0951  1683               	bsf	3,5	;RP0=1, select bank3
  2993  0952  1703               	bsf	3,6	;RP1=1, select bank3
  2994  0953  084B               	movf	_F3^(0+384),w
  2995  0954  1283               	bcf	3,5	;RP0=0, select bank0
  2996  0955  1303               	bcf	3,6	;RP1=0, select bank0
  2997  0956  00A4               	movwf	___flge@ff2
  2998  0957  160A  118A  270A  120A  158A  	fcall	___flge
  2999  095C  1803               	btfsc	3,0
  3000  095D  2968               	goto	l3727
  3001                           
  3002                           ;LC-meter.c: 430: F3 = F1;
  3003  095E  1683               	bsf	3,5	;RP0=1, select bank3
  3004  095F  1703               	bsf	3,6	;RP1=1, select bank3
  3005  0960  085C               	movf	(_F1+3)^(0+384),w
  3006  0961  00CE               	movwf	(_F3+3)^(0+384)
  3007  0962  085B               	movf	(_F1+2)^(0+384),w
  3008  0963  00CD               	movwf	(_F3+2)^(0+384)
  3009  0964  085A               	movf	(_F1+1)^(0+384),w
  3010  0965  00CC               	movwf	(_F3+1)^(0+384)
  3011  0966  0859               	movf	_F1^(0+384),w
  3012  0967  00CB               	movwf	_F3^(0+384)
  3013  0968                     l3727:	
  3014                           
  3015                           ;LC-meter.c: 432: Cin = F2 * F2 * (F1 * F1 - F3 * F3) * CCal;
  3016  0968  1683               	bsf	3,5	;RP0=1, select bank3
  3017  0969  1703               	bsf	3,6	;RP1=1, select bank3
  3018  096A  084E               	movf	(_F3+3)^(0+384),w
  3019  096B  1283               	bcf	3,5	;RP0=0, select bank0
  3020  096C  1303               	bcf	3,6	;RP1=0, select bank0
  3021  096D  00BC               	movwf	___flmul@f1+3
  3022  096E  1683               	bsf	3,5	;RP0=1, select bank3
  3023  096F  1703               	bsf	3,6	;RP1=1, select bank3
  3024  0970  084D               	movf	(_F3+2)^(0+384),w
  3025  0971  1283               	bcf	3,5	;RP0=0, select bank0
  3026  0972  1303               	bcf	3,6	;RP1=0, select bank0
  3027  0973  00BB               	movwf	___flmul@f1+2
  3028  0974  1683               	bsf	3,5	;RP0=1, select bank3
  3029  0975  1703               	bsf	3,6	;RP1=1, select bank3
  3030  0976  084C               	movf	(_F3+1)^(0+384),w
  3031  0977  1283               	bcf	3,5	;RP0=0, select bank0
  3032  0978  1303               	bcf	3,6	;RP1=0, select bank0
  3033  0979  00BA               	movwf	___flmul@f1+1
  3034  097A  1683               	bsf	3,5	;RP0=1, select bank3
  3035  097B  1703               	bsf	3,6	;RP1=1, select bank3
  3036  097C  084B               	movf	_F3^(0+384),w
  3037  097D  1283               	bcf	3,5	;RP0=0, select bank0
  3038  097E  1303               	bcf	3,6	;RP1=0, select bank0
  3039  097F  00B9               	movwf	___flmul@f1
  3040  0980  1683               	bsf	3,5	;RP0=1, select bank3
  3041  0981  1703               	bsf	3,6	;RP1=1, select bank3
  3042  0982  084E               	movf	(_F3+3)^(0+384),w
  3043  0983  1283               	bcf	3,5	;RP0=0, select bank0
  3044  0984  1303               	bcf	3,6	;RP1=0, select bank0
  3045  0985  00C0               	movwf	___flmul@f2+3
  3046  0986  1683               	bsf	3,5	;RP0=1, select bank3
  3047  0987  1703               	bsf	3,6	;RP1=1, select bank3
  3048  0988  084D               	movf	(_F3+2)^(0+384),w
  3049  0989  1283               	bcf	3,5	;RP0=0, select bank0
  3050  098A  1303               	bcf	3,6	;RP1=0, select bank0
  3051  098B  00BF               	movwf	___flmul@f2+2
  3052  098C  1683               	bsf	3,5	;RP0=1, select bank3
  3053  098D  1703               	bsf	3,6	;RP1=1, select bank3
  3054  098E  084C               	movf	(_F3+1)^(0+384),w
  3055  098F  1283               	bcf	3,5	;RP0=0, select bank0
  3056  0990  1303               	bcf	3,6	;RP1=0, select bank0
  3057  0991  00BE               	movwf	___flmul@f2+1
  3058  0992  1683               	bsf	3,5	;RP0=1, select bank3
  3059  0993  1703               	bsf	3,6	;RP1=1, select bank3
  3060  0994  084B               	movf	_F3^(0+384),w
  3061  0995  1283               	bcf	3,5	;RP0=0, select bank0
  3062  0996  1303               	bcf	3,6	;RP1=0, select bank0
  3063  0997  00BD               	movwf	___flmul@f2
  3064  0998  160A  118A  2674  120A  158A  	fcall	___flmul
  3065  099D  083C               	movf	?___flmul+3,w
  3066  099E  00DE               	movwf	___flsub@f2+3
  3067  099F  083B               	movf	?___flmul+2,w
  3068  09A0  00DD               	movwf	___flsub@f2+2
  3069  09A1  083A               	movf	?___flmul+1,w
  3070  09A2  00DC               	movwf	___flsub@f2+1
  3071  09A3  0839               	movf	?___flmul,w
  3072  09A4  00DB               	movwf	___flsub@f2
  3073  09A5  1683               	bsf	3,5	;RP0=1, select bank3
  3074  09A6  1703               	bsf	3,6	;RP1=1, select bank3
  3075  09A7  085C               	movf	(_F1+3)^(0+384),w
  3076  09A8  1283               	bcf	3,5	;RP0=0, select bank0
  3077  09A9  1303               	bcf	3,6	;RP1=0, select bank0
  3078  09AA  00BC               	movwf	___flmul@f1+3
  3079  09AB  1683               	bsf	3,5	;RP0=1, select bank3
  3080  09AC  1703               	bsf	3,6	;RP1=1, select bank3
  3081  09AD  085B               	movf	(_F1+2)^(0+384),w
  3082  09AE  1283               	bcf	3,5	;RP0=0, select bank0
  3083  09AF  1303               	bcf	3,6	;RP1=0, select bank0
  3084  09B0  00BB               	movwf	___flmul@f1+2
  3085  09B1  1683               	bsf	3,5	;RP0=1, select bank3
  3086  09B2  1703               	bsf	3,6	;RP1=1, select bank3
  3087  09B3  085A               	movf	(_F1+1)^(0+384),w
  3088  09B4  1283               	bcf	3,5	;RP0=0, select bank0
  3089  09B5  1303               	bcf	3,6	;RP1=0, select bank0
  3090  09B6  00BA               	movwf	___flmul@f1+1
  3091  09B7  1683               	bsf	3,5	;RP0=1, select bank3
  3092  09B8  1703               	bsf	3,6	;RP1=1, select bank3
  3093  09B9  0859               	movf	_F1^(0+384),w
  3094  09BA  1283               	bcf	3,5	;RP0=0, select bank0
  3095  09BB  1303               	bcf	3,6	;RP1=0, select bank0
  3096  09BC  00B9               	movwf	___flmul@f1
  3097  09BD  1683               	bsf	3,5	;RP0=1, select bank3
  3098  09BE  1703               	bsf	3,6	;RP1=1, select bank3
  3099  09BF  085C               	movf	(_F1+3)^(0+384),w
  3100  09C0  1283               	bcf	3,5	;RP0=0, select bank0
  3101  09C1  1303               	bcf	3,6	;RP1=0, select bank0
  3102  09C2  00C0               	movwf	___flmul@f2+3
  3103  09C3  1683               	bsf	3,5	;RP0=1, select bank3
  3104  09C4  1703               	bsf	3,6	;RP1=1, select bank3
  3105  09C5  085B               	movf	(_F1+2)^(0+384),w
  3106  09C6  1283               	bcf	3,5	;RP0=0, select bank0
  3107  09C7  1303               	bcf	3,6	;RP1=0, select bank0
  3108  09C8  00BF               	movwf	___flmul@f2+2
  3109  09C9  1683               	bsf	3,5	;RP0=1, select bank3
  3110  09CA  1703               	bsf	3,6	;RP1=1, select bank3
  3111  09CB  085A               	movf	(_F1+1)^(0+384),w
  3112  09CC  1283               	bcf	3,5	;RP0=0, select bank0
  3113  09CD  1303               	bcf	3,6	;RP1=0, select bank0
  3114  09CE  00BE               	movwf	___flmul@f2+1
  3115  09CF  1683               	bsf	3,5	;RP0=1, select bank3
  3116  09D0  1703               	bsf	3,6	;RP1=1, select bank3
  3117  09D1  0859               	movf	_F1^(0+384),w
  3118  09D2  1283               	bcf	3,5	;RP0=0, select bank0
  3119  09D3  1303               	bcf	3,6	;RP1=0, select bank0
  3120  09D4  00BD               	movwf	___flmul@f2
  3121  09D5  160A  118A  2674  120A  158A  	fcall	___flmul
  3122  09DA  083C               	movf	?___flmul+3,w
  3123  09DB  00E2               	movwf	___flsub@f1+3
  3124  09DC  083B               	movf	?___flmul+2,w
  3125  09DD  00E1               	movwf	___flsub@f1+2
  3126  09DE  083A               	movf	?___flmul+1,w
  3127  09DF  00E0               	movwf	___flsub@f1+1
  3128  09E0  0839               	movf	?___flmul,w
  3129  09E1  00DF               	movwf	___flsub@f1
  3130  09E2  275D  120A  158A   	fcall	___flsub
  3131  09E5  085E               	movf	?___flsub+3,w
  3132  09E6  1683               	bsf	3,5	;RP0=1, select bank3
  3133  09E7  1703               	bsf	3,6	;RP1=1, select bank3
  3134  09E8  00A7               	movwf	(_measure_capacitance$807+3)^(0+384)
  3135  09E9  1283               	bcf	3,5	;RP0=0, select bank0
  3136  09EA  1303               	bcf	3,6	;RP1=0, select bank0
  3137  09EB  085D               	movf	?___flsub+2,w
  3138  09EC  1683               	bsf	3,5	;RP0=1, select bank3
  3139  09ED  1703               	bsf	3,6	;RP1=1, select bank3
  3140  09EE  00A6               	movwf	(_measure_capacitance$807+2)^(0+384)
  3141  09EF  1283               	bcf	3,5	;RP0=0, select bank0
  3142  09F0  1303               	bcf	3,6	;RP1=0, select bank0
  3143  09F1  085C               	movf	?___flsub+1,w
  3144  09F2  1683               	bsf	3,5	;RP0=1, select bank3
  3145  09F3  1703               	bsf	3,6	;RP1=1, select bank3
  3146  09F4  00A5               	movwf	(_measure_capacitance$807+1)^(0+384)
  3147  09F5  1283               	bcf	3,5	;RP0=0, select bank0
  3148  09F6  1303               	bcf	3,6	;RP1=0, select bank0
  3149  09F7  085B               	movf	?___flsub,w
  3150  09F8  1683               	bsf	3,5	;RP0=1, select bank3
  3151  09F9  1703               	bsf	3,6	;RP1=1, select bank3
  3152  09FA  00A4               	movwf	_measure_capacitance$807^(0+384)
  3153                           
  3154                           ;LC-meter.c: 432: Cin = F2 * F2 * (F1 * F1 - F3 * F3) * CCal;
  3155  09FB  084A               	movf	(_F2+3)^(0+384),w
  3156  09FC  1283               	bcf	3,5	;RP0=0, select bank0
  3157  09FD  1303               	bcf	3,6	;RP1=0, select bank0
  3158  09FE  00BC               	movwf	___flmul@f1+3
  3159  09FF  1683               	bsf	3,5	;RP0=1, select bank3
  3160  0A00  1703               	bsf	3,6	;RP1=1, select bank3
  3161  0A01  0849               	movf	(_F2+2)^(0+384),w
  3162  0A02  1283               	bcf	3,5	;RP0=0, select bank0
  3163  0A03  1303               	bcf	3,6	;RP1=0, select bank0
  3164  0A04  00BB               	movwf	___flmul@f1+2
  3165  0A05  1683               	bsf	3,5	;RP0=1, select bank3
  3166  0A06  1703               	bsf	3,6	;RP1=1, select bank3
  3167  0A07  0848               	movf	(_F2+1)^(0+384),w
  3168  0A08  1283               	bcf	3,5	;RP0=0, select bank0
  3169  0A09  1303               	bcf	3,6	;RP1=0, select bank0
  3170  0A0A  00BA               	movwf	___flmul@f1+1
  3171  0A0B  1683               	bsf	3,5	;RP0=1, select bank3
  3172  0A0C  1703               	bsf	3,6	;RP1=1, select bank3
  3173  0A0D  0847               	movf	_F2^(0+384),w
  3174  0A0E  1283               	bcf	3,5	;RP0=0, select bank0
  3175  0A0F  1303               	bcf	3,6	;RP1=0, select bank0
  3176  0A10  00B9               	movwf	___flmul@f1
  3177  0A11  1683               	bsf	3,5	;RP0=1, select bank3
  3178  0A12  1703               	bsf	3,6	;RP1=1, select bank3
  3179  0A13  0827               	movf	(_measure_capacitance$807+3)^(0+384),w
  3180  0A14  1283               	bcf	3,5	;RP0=0, select bank0
  3181  0A15  1303               	bcf	3,6	;RP1=0, select bank0
  3182  0A16  00C0               	movwf	___flmul@f2+3
  3183  0A17  1683               	bsf	3,5	;RP0=1, select bank3
  3184  0A18  1703               	bsf	3,6	;RP1=1, select bank3
  3185  0A19  0826               	movf	(_measure_capacitance$807+2)^(0+384),w
  3186  0A1A  1283               	bcf	3,5	;RP0=0, select bank0
  3187  0A1B  1303               	bcf	3,6	;RP1=0, select bank0
  3188  0A1C  00BF               	movwf	___flmul@f2+2
  3189  0A1D  1683               	bsf	3,5	;RP0=1, select bank3
  3190  0A1E  1703               	bsf	3,6	;RP1=1, select bank3
  3191  0A1F  0825               	movf	(_measure_capacitance$807+1)^(0+384),w
  3192  0A20  1283               	bcf	3,5	;RP0=0, select bank0
  3193  0A21  1303               	bcf	3,6	;RP1=0, select bank0
  3194  0A22  00BE               	movwf	___flmul@f2+1
  3195  0A23  1683               	bsf	3,5	;RP0=1, select bank3
  3196  0A24  1703               	bsf	3,6	;RP1=1, select bank3
  3197  0A25  0824               	movf	_measure_capacitance$807^(0+384),w
  3198  0A26  1283               	bcf	3,5	;RP0=0, select bank0
  3199  0A27  1303               	bcf	3,6	;RP1=0, select bank0
  3200  0A28  00BD               	movwf	___flmul@f2
  3201  0A29  160A  118A  2674  120A  158A  	fcall	___flmul
  3202  0A2E  083C               	movf	?___flmul+3,w
  3203  0A2F  1683               	bsf	3,5	;RP0=1, select bank3
  3204  0A30  1703               	bsf	3,6	;RP1=1, select bank3
  3205  0A31  00AB               	movwf	(_measure_capacitance$808+3)^(0+384)
  3206  0A32  1283               	bcf	3,5	;RP0=0, select bank0
  3207  0A33  1303               	bcf	3,6	;RP1=0, select bank0
  3208  0A34  083B               	movf	?___flmul+2,w
  3209  0A35  1683               	bsf	3,5	;RP0=1, select bank3
  3210  0A36  1703               	bsf	3,6	;RP1=1, select bank3
  3211  0A37  00AA               	movwf	(_measure_capacitance$808+2)^(0+384)
  3212  0A38  1283               	bcf	3,5	;RP0=0, select bank0
  3213  0A39  1303               	bcf	3,6	;RP1=0, select bank0
  3214  0A3A  083A               	movf	?___flmul+1,w
  3215  0A3B  1683               	bsf	3,5	;RP0=1, select bank3
  3216  0A3C  1703               	bsf	3,6	;RP1=1, select bank3
  3217  0A3D  00A9               	movwf	(_measure_capacitance$808+1)^(0+384)
  3218  0A3E  1283               	bcf	3,5	;RP0=0, select bank0
  3219  0A3F  1303               	bcf	3,6	;RP1=0, select bank0
  3220  0A40  0839               	movf	?___flmul,w
  3221  0A41  1683               	bsf	3,5	;RP0=1, select bank3
  3222  0A42  1703               	bsf	3,6	;RP1=1, select bank3
  3223  0A43  00A8               	movwf	_measure_capacitance$808^(0+384)
  3224                           
  3225                           ;LC-meter.c: 432: Cin = F2 * F2 * (F1 * F1 - F3 * F3) * CCal;
  3226  0A44  084A               	movf	(_F2+3)^(0+384),w
  3227  0A45  1283               	bcf	3,5	;RP0=0, select bank0
  3228  0A46  1303               	bcf	3,6	;RP1=0, select bank0
  3229  0A47  00BC               	movwf	___flmul@f1+3
  3230  0A48  1683               	bsf	3,5	;RP0=1, select bank3
  3231  0A49  1703               	bsf	3,6	;RP1=1, select bank3
  3232  0A4A  0849               	movf	(_F2+2)^(0+384),w
  3233  0A4B  1283               	bcf	3,5	;RP0=0, select bank0
  3234  0A4C  1303               	bcf	3,6	;RP1=0, select bank0
  3235  0A4D  00BB               	movwf	___flmul@f1+2
  3236  0A4E  1683               	bsf	3,5	;RP0=1, select bank3
  3237  0A4F  1703               	bsf	3,6	;RP1=1, select bank3
  3238  0A50  0848               	movf	(_F2+1)^(0+384),w
  3239  0A51  1283               	bcf	3,5	;RP0=0, select bank0
  3240  0A52  1303               	bcf	3,6	;RP1=0, select bank0
  3241  0A53  00BA               	movwf	___flmul@f1+1
  3242  0A54  1683               	bsf	3,5	;RP0=1, select bank3
  3243  0A55  1703               	bsf	3,6	;RP1=1, select bank3
  3244  0A56  0847               	movf	_F2^(0+384),w
  3245  0A57  1283               	bcf	3,5	;RP0=0, select bank0
  3246  0A58  1303               	bcf	3,6	;RP1=0, select bank0
  3247  0A59  00B9               	movwf	___flmul@f1
  3248  0A5A  1683               	bsf	3,5	;RP0=1, select bank3
  3249  0A5B  1703               	bsf	3,6	;RP1=1, select bank3
  3250  0A5C  082B               	movf	(_measure_capacitance$808+3)^(0+384),w
  3251  0A5D  1283               	bcf	3,5	;RP0=0, select bank0
  3252  0A5E  1303               	bcf	3,6	;RP1=0, select bank0
  3253  0A5F  00C0               	movwf	___flmul@f2+3
  3254  0A60  1683               	bsf	3,5	;RP0=1, select bank3
  3255  0A61  1703               	bsf	3,6	;RP1=1, select bank3
  3256  0A62  082A               	movf	(_measure_capacitance$808+2)^(0+384),w
  3257  0A63  1283               	bcf	3,5	;RP0=0, select bank0
  3258  0A64  1303               	bcf	3,6	;RP1=0, select bank0
  3259  0A65  00BF               	movwf	___flmul@f2+2
  3260  0A66  1683               	bsf	3,5	;RP0=1, select bank3
  3261  0A67  1703               	bsf	3,6	;RP1=1, select bank3
  3262  0A68  0829               	movf	(_measure_capacitance$808+1)^(0+384),w
  3263  0A69  1283               	bcf	3,5	;RP0=0, select bank0
  3264  0A6A  1303               	bcf	3,6	;RP1=0, select bank0
  3265  0A6B  00BE               	movwf	___flmul@f2+1
  3266  0A6C  1683               	bsf	3,5	;RP0=1, select bank3
  3267  0A6D  1703               	bsf	3,6	;RP1=1, select bank3
  3268  0A6E  0828               	movf	_measure_capacitance$808^(0+384),w
  3269  0A6F  1283               	bcf	3,5	;RP0=0, select bank0
  3270  0A70  1303               	bcf	3,6	;RP1=0, select bank0
  3271  0A71  00BD               	movwf	___flmul@f2
  3272  0A72  160A  118A  2674  120A  158A  	fcall	___flmul
  3273  0A77  083C               	movf	?___flmul+3,w
  3274  0A78  1683               	bsf	3,5	;RP0=1, select bank3
  3275  0A79  1703               	bsf	3,6	;RP1=1, select bank3
  3276  0A7A  00AF               	movwf	(_measure_capacitance$809+3)^(0+384)
  3277  0A7B  1283               	bcf	3,5	;RP0=0, select bank0
  3278  0A7C  1303               	bcf	3,6	;RP1=0, select bank0
  3279  0A7D  083B               	movf	?___flmul+2,w
  3280  0A7E  1683               	bsf	3,5	;RP0=1, select bank3
  3281  0A7F  1703               	bsf	3,6	;RP1=1, select bank3
  3282  0A80  00AE               	movwf	(_measure_capacitance$809+2)^(0+384)
  3283  0A81  1283               	bcf	3,5	;RP0=0, select bank0
  3284  0A82  1303               	bcf	3,6	;RP1=0, select bank0
  3285  0A83  083A               	movf	?___flmul+1,w
  3286  0A84  1683               	bsf	3,5	;RP0=1, select bank3
  3287  0A85  1703               	bsf	3,6	;RP1=1, select bank3
  3288  0A86  00AD               	movwf	(_measure_capacitance$809+1)^(0+384)
  3289  0A87  1283               	bcf	3,5	;RP0=0, select bank0
  3290  0A88  1303               	bcf	3,6	;RP1=0, select bank0
  3291  0A89  0839               	movf	?___flmul,w
  3292  0A8A  1683               	bsf	3,5	;RP0=1, select bank3
  3293  0A8B  1703               	bsf	3,6	;RP1=1, select bank3
  3294  0A8C  00AC               	movwf	_measure_capacitance$809^(0+384)
  3295                           
  3296                           ;LC-meter.c: 432: Cin = F2 * F2 * (F1 * F1 - F3 * F3) * CCal;
  3297  0A8D  0860               	movf	(_CCal+3)^(0+384),w
  3298  0A8E  1283               	bcf	3,5	;RP0=0, select bank0
  3299  0A8F  1303               	bcf	3,6	;RP1=0, select bank0
  3300  0A90  00BC               	movwf	___flmul@f1+3
  3301  0A91  1683               	bsf	3,5	;RP0=1, select bank3
  3302  0A92  1703               	bsf	3,6	;RP1=1, select bank3
  3303  0A93  085F               	movf	(_CCal+2)^(0+384),w
  3304  0A94  1283               	bcf	3,5	;RP0=0, select bank0
  3305  0A95  1303               	bcf	3,6	;RP1=0, select bank0
  3306  0A96  00BB               	movwf	___flmul@f1+2
  3307  0A97  1683               	bsf	3,5	;RP0=1, select bank3
  3308  0A98  1703               	bsf	3,6	;RP1=1, select bank3
  3309  0A99  085E               	movf	(_CCal+1)^(0+384),w
  3310  0A9A  1283               	bcf	3,5	;RP0=0, select bank0
  3311  0A9B  1303               	bcf	3,6	;RP1=0, select bank0
  3312  0A9C  00BA               	movwf	___flmul@f1+1
  3313  0A9D  1683               	bsf	3,5	;RP0=1, select bank3
  3314  0A9E  1703               	bsf	3,6	;RP1=1, select bank3
  3315  0A9F  085D               	movf	_CCal^(0+384),w
  3316  0AA0  1283               	bcf	3,5	;RP0=0, select bank0
  3317  0AA1  1303               	bcf	3,6	;RP1=0, select bank0
  3318  0AA2  00B9               	movwf	___flmul@f1
  3319  0AA3  1683               	bsf	3,5	;RP0=1, select bank3
  3320  0AA4  1703               	bsf	3,6	;RP1=1, select bank3
  3321  0AA5  082F               	movf	(_measure_capacitance$809+3)^(0+384),w
  3322  0AA6  1283               	bcf	3,5	;RP0=0, select bank0
  3323  0AA7  1303               	bcf	3,6	;RP1=0, select bank0
  3324  0AA8  00C0               	movwf	___flmul@f2+3
  3325  0AA9  1683               	bsf	3,5	;RP0=1, select bank3
  3326  0AAA  1703               	bsf	3,6	;RP1=1, select bank3
  3327  0AAB  082E               	movf	(_measure_capacitance$809+2)^(0+384),w
  3328  0AAC  1283               	bcf	3,5	;RP0=0, select bank0
  3329  0AAD  1303               	bcf	3,6	;RP1=0, select bank0
  3330  0AAE  00BF               	movwf	___flmul@f2+2
  3331  0AAF  1683               	bsf	3,5	;RP0=1, select bank3
  3332  0AB0  1703               	bsf	3,6	;RP1=1, select bank3
  3333  0AB1  082D               	movf	(_measure_capacitance$809+1)^(0+384),w
  3334  0AB2  1283               	bcf	3,5	;RP0=0, select bank0
  3335  0AB3  1303               	bcf	3,6	;RP1=0, select bank0
  3336  0AB4  00BE               	movwf	___flmul@f2+1
  3337  0AB5  1683               	bsf	3,5	;RP0=1, select bank3
  3338  0AB6  1703               	bsf	3,6	;RP1=1, select bank3
  3339  0AB7  082C               	movf	_measure_capacitance$809^(0+384),w
  3340  0AB8  1283               	bcf	3,5	;RP0=0, select bank0
  3341  0AB9  1303               	bcf	3,6	;RP1=0, select bank0
  3342  0ABA  00BD               	movwf	___flmul@f2
  3343  0ABB  160A  118A  2674  120A  158A  	fcall	___flmul
  3344  0AC0  083C               	movf	?___flmul+3,w
  3345  0AC1  1683               	bsf	3,5	;RP0=1, select bank3
  3346  0AC2  1703               	bsf	3,6	;RP1=1, select bank3
  3347  0AC3  00B6               	movwf	(measure_capacitance@Cin+3)^(0+384)
  3348  0AC4  1283               	bcf	3,5	;RP0=0, select bank0
  3349  0AC5  1303               	bcf	3,6	;RP1=0, select bank0
  3350  0AC6  083B               	movf	?___flmul+2,w
  3351  0AC7  1683               	bsf	3,5	;RP0=1, select bank3
  3352  0AC8  1703               	bsf	3,6	;RP1=1, select bank3
  3353  0AC9  00B5               	movwf	(measure_capacitance@Cin+2)^(0+384)
  3354  0ACA  1283               	bcf	3,5	;RP0=0, select bank0
  3355  0ACB  1303               	bcf	3,6	;RP1=0, select bank0
  3356  0ACC  083A               	movf	?___flmul+1,w
  3357  0ACD  1683               	bsf	3,5	;RP0=1, select bank3
  3358  0ACE  1703               	bsf	3,6	;RP1=1, select bank3
  3359  0ACF  00B4               	movwf	(measure_capacitance@Cin+1)^(0+384)
  3360  0AD0  1283               	bcf	3,5	;RP0=0, select bank0
  3361  0AD1  1303               	bcf	3,6	;RP1=0, select bank0
  3362  0AD2  0839               	movf	?___flmul,w
  3363  0AD3  1683               	bsf	3,5	;RP0=1, select bank3
  3364  0AD4  1703               	bsf	3,6	;RP1=1, select bank3
  3365  0AD5  00B3               	movwf	measure_capacitance@Cin^(0+384)
  3366                           
  3367                           ;LC-meter.c: 436: ser_puts("Cin=");
  3368  0AD6  306D               	movlw	(low ((STR_10-__stringbase)| (0+32768)))& (0+255)
  3369  0AD7  248E  120A  158A   	fcall	_ser_puts
  3370                           
  3371                           ;LC-meter.c: 437: format_double( Cin);
  3372  0ADA  1683               	bsf	3,5	;RP0=1, select bank3
  3373  0ADB  1703               	bsf	3,6	;RP1=1, select bank3
  3374  0ADC  0836               	movf	(measure_capacitance@Cin+3)^(0+384),w
  3375  0ADD  0093               	movwf	(format_double@num+3)^(0+384)
  3376  0ADE  0835               	movf	(measure_capacitance@Cin+2)^(0+384),w
  3377  0ADF  0092               	movwf	(format_double@num+2)^(0+384)
  3378  0AE0  0834               	movf	(measure_capacitance@Cin+1)^(0+384),w
  3379  0AE1  0091               	movwf	(format_double@num+1)^(0+384)
  3380  0AE2  0833               	movf	measure_capacitance@Cin^(0+384),w
  3381  0AE3  0090               	movwf	format_double@num^(0+384)
  3382  0AE4  24E1  120A  158A   	fcall	_format_double
  3383                           
  3384                           ;LC-meter.c: 438: ser_putch(' ');
  3385  0AE7  3020               	movlw	32
  3386  0AE8  00F5               	movwf	ser_putch@c
  3387  0AE9  24A6  120A  158A   	fcall	_ser_putch
  3388                           
  3389                           ;LC-meter.c: 439: format_xint32( *(unsigned long int*)&Cin);
  3390  0AEC  1703               	bsf	3,6	;RP1=1, select bank3
  3391  0AED  0836               	movf	(measure_capacitance@Cin+3)^(0+384),w
  3392  0AEE  1283               	bcf	3,5	;RP0=0, select bank0
  3393  0AEF  1303               	bcf	3,6	;RP1=0, select bank0
  3394  0AF0  00D0               	movwf	format_xint32@x+3
  3395  0AF1  1683               	bsf	3,5	;RP0=1, select bank3
  3396  0AF2  1703               	bsf	3,6	;RP1=1, select bank3
  3397  0AF3  0835               	movf	(measure_capacitance@Cin+2)^(0+384),w
  3398  0AF4  1283               	bcf	3,5	;RP0=0, select bank0
  3399  0AF5  1303               	bcf	3,6	;RP1=0, select bank0
  3400  0AF6  00CF               	movwf	format_xint32@x+2
  3401  0AF7  1683               	bsf	3,5	;RP0=1, select bank3
  3402  0AF8  1703               	bsf	3,6	;RP1=1, select bank3
  3403  0AF9  0834               	movf	(measure_capacitance@Cin+1)^(0+384),w
  3404  0AFA  1283               	bcf	3,5	;RP0=0, select bank0
  3405  0AFB  1303               	bcf	3,6	;RP1=0, select bank0
  3406  0AFC  00CE               	movwf	format_xint32@x+1
  3407  0AFD  1683               	bsf	3,5	;RP0=1, select bank3
  3408  0AFE  1703               	bsf	3,6	;RP1=1, select bank3
  3409  0AFF  0833               	movf	measure_capacitance@Cin^(0+384),w
  3410  0B00  1283               	bcf	3,5	;RP0=0, select bank0
  3411  0B01  1303               	bcf	3,6	;RP1=0, select bank0
  3412  0B02  00CD               	movwf	format_xint32@x
  3413  0B03  24BB  120A  158A   	fcall	_format_xint32
  3414                           
  3415                           ;LC-meter.c: 440: ser_puts("\r\n");
  3416  0B06  3058               	movlw	(low (((STR_1+3)-__stringbase)| (0+32768)))& (0+255)
  3417  0B07  248E               	fcall	_ser_puts
  3418                           
  3419                           ;LC-meter.c: 442: if(Cin > 999) {
  3420  0B08  3044               	movlw	68
  3421  0B09  1283               	bcf	3,5	;RP0=0, select bank0
  3422  0B0A  1303               	bcf	3,6	;RP1=0, select bank0
  3423  0B0B  00A3               	movwf	___flge@ff1+3
  3424  0B0C  3079               	movlw	121
  3425  0B0D  00A2               	movwf	___flge@ff1+2
  3426  0B0E  30C0               	movlw	192
  3427  0B0F  00A1               	movwf	___flge@ff1+1
  3428  0B10  01A0               	clrf	___flge@ff1
  3429  0B11  1683               	bsf	3,5	;RP0=1, select bank3
  3430  0B12  1703               	bsf	3,6	;RP1=1, select bank3
  3431  0B13  0836               	movf	(measure_capacitance@Cin+3)^(0+384),w
  3432  0B14  1283               	bcf	3,5	;RP0=0, select bank0
  3433  0B15  1303               	bcf	3,6	;RP1=0, select bank0
  3434  0B16  00A7               	movwf	___flge@ff2+3
  3435  0B17  1683               	bsf	3,5	;RP0=1, select bank3
  3436  0B18  1703               	bsf	3,6	;RP1=1, select bank3
  3437  0B19  0835               	movf	(measure_capacitance@Cin+2)^(0+384),w
  3438  0B1A  1283               	bcf	3,5	;RP0=0, select bank0
  3439  0B1B  1303               	bcf	3,6	;RP1=0, select bank0
  3440  0B1C  00A6               	movwf	___flge@ff2+2
  3441  0B1D  1683               	bsf	3,5	;RP0=1, select bank3
  3442  0B1E  1703               	bsf	3,6	;RP1=1, select bank3
  3443  0B1F  0834               	movf	(measure_capacitance@Cin+1)^(0+384),w
  3444  0B20  1283               	bcf	3,5	;RP0=0, select bank0
  3445  0B21  1303               	bcf	3,6	;RP1=0, select bank0
  3446  0B22  00A5               	movwf	___flge@ff2+1
  3447  0B23  1683               	bsf	3,5	;RP0=1, select bank3
  3448  0B24  1703               	bsf	3,6	;RP1=1, select bank3
  3449  0B25  0833               	movf	measure_capacitance@Cin^(0+384),w
  3450  0B26  1283               	bcf	3,5	;RP0=0, select bank0
  3451  0B27  1303               	bcf	3,6	;RP1=0, select bank0
  3452  0B28  00A4               	movwf	___flge@ff2
  3453  0B29  160A  118A  270A  120A  158A  	fcall	___flge
  3454  0B2E  1803               	btfsc	3,0
  3455  0B2F  2C2C               	goto	l3763
  3456                           
  3457                           ;LC-meter.c: 443: if(Cin > (999e+03l)) {
  3458  0B30  3049               	movlw	73
  3459  0B31  00A3               	movwf	___flge@ff1+3
  3460  0B32  3073               	movlw	115
  3461  0B33  00A2               	movwf	___flge@ff1+2
  3462  0B34  30E5               	movlw	229
  3463  0B35  00A1               	movwf	___flge@ff1+1
  3464  0B36  3080               	movlw	128
  3465  0B37  00A0               	movwf	___flge@ff1
  3466  0B38  1683               	bsf	3,5	;RP0=1, select bank3
  3467  0B39  1703               	bsf	3,6	;RP1=1, select bank3
  3468  0B3A  0836               	movf	(measure_capacitance@Cin+3)^(0+384),w
  3469  0B3B  1283               	bcf	3,5	;RP0=0, select bank0
  3470  0B3C  1303               	bcf	3,6	;RP1=0, select bank0
  3471  0B3D  00A7               	movwf	___flge@ff2+3
  3472  0B3E  1683               	bsf	3,5	;RP0=1, select bank3
  3473  0B3F  1703               	bsf	3,6	;RP1=1, select bank3
  3474  0B40  0835               	movf	(measure_capacitance@Cin+2)^(0+384),w
  3475  0B41  1283               	bcf	3,5	;RP0=0, select bank0
  3476  0B42  1303               	bcf	3,6	;RP1=0, select bank0
  3477  0B43  00A6               	movwf	___flge@ff2+2
  3478  0B44  1683               	bsf	3,5	;RP0=1, select bank3
  3479  0B45  1703               	bsf	3,6	;RP1=1, select bank3
  3480  0B46  0834               	movf	(measure_capacitance@Cin+1)^(0+384),w
  3481  0B47  1283               	bcf	3,5	;RP0=0, select bank0
  3482  0B48  1303               	bcf	3,6	;RP1=0, select bank0
  3483  0B49  00A5               	movwf	___flge@ff2+1
  3484  0B4A  1683               	bsf	3,5	;RP0=1, select bank3
  3485  0B4B  1703               	bsf	3,6	;RP1=1, select bank3
  3486  0B4C  0833               	movf	measure_capacitance@Cin^(0+384),w
  3487  0B4D  1283               	bcf	3,5	;RP0=0, select bank0
  3488  0B4E  1303               	bcf	3,6	;RP1=0, select bank0
  3489  0B4F  00A4               	movwf	___flge@ff2
  3490  0B50  160A  118A  270A  120A  158A  	fcall	___flge
  3491  0B55  1803               	btfsc	3,0
  3492  0B56  2BF3               	goto	l3759
  3493                           
  3494                           ;LC-meter.c: 444: if(Cin > (999e+06l)) {
  3495  0B57  304E               	movlw	78
  3496  0B58  00A3               	movwf	___flge@ff1+3
  3497  0B59  306E               	movlw	110
  3498  0B5A  00A2               	movwf	___flge@ff1+2
  3499  0B5B  302E               	movlw	46
  3500  0B5C  00A1               	movwf	___flge@ff1+1
  3501  0B5D  301F               	movlw	31
  3502  0B5E  00A0               	movwf	___flge@ff1
  3503  0B5F  1683               	bsf	3,5	;RP0=1, select bank3
  3504  0B60  1703               	bsf	3,6	;RP1=1, select bank3
  3505  0B61  0836               	movf	(measure_capacitance@Cin+3)^(0+384),w
  3506  0B62  1283               	bcf	3,5	;RP0=0, select bank0
  3507  0B63  1303               	bcf	3,6	;RP1=0, select bank0
  3508  0B64  00A7               	movwf	___flge@ff2+3
  3509  0B65  1683               	bsf	3,5	;RP0=1, select bank3
  3510  0B66  1703               	bsf	3,6	;RP1=1, select bank3
  3511  0B67  0835               	movf	(measure_capacitance@Cin+2)^(0+384),w
  3512  0B68  1283               	bcf	3,5	;RP0=0, select bank0
  3513  0B69  1303               	bcf	3,6	;RP1=0, select bank0
  3514  0B6A  00A6               	movwf	___flge@ff2+2
  3515  0B6B  1683               	bsf	3,5	;RP0=1, select bank3
  3516  0B6C  1703               	bsf	3,6	;RP1=1, select bank3
  3517  0B6D  0834               	movf	(measure_capacitance@Cin+1)^(0+384),w
  3518  0B6E  1283               	bcf	3,5	;RP0=0, select bank0
  3519  0B6F  1303               	bcf	3,6	;RP1=0, select bank0
  3520  0B70  00A5               	movwf	___flge@ff2+1
  3521  0B71  1683               	bsf	3,5	;RP0=1, select bank3
  3522  0B72  1703               	bsf	3,6	;RP1=1, select bank3
  3523  0B73  0833               	movf	measure_capacitance@Cin^(0+384),w
  3524  0B74  1283               	bcf	3,5	;RP0=0, select bank0
  3525  0B75  1303               	bcf	3,6	;RP1=0, select bank0
  3526  0B76  00A4               	movwf	___flge@ff2
  3527  0B77  160A  118A  270A  120A  158A  	fcall	___flge
  3528  0B7C  1803               	btfsc	3,0
  3529  0B7D  2BB9               	goto	l3755
  3530                           
  3531                           ;LC-meter.c: 445: Cin = Cin / (1e+09l);
  3532  0B7E  304E               	movlw	78
  3533  0B7F  00A9               	movwf	___fldiv@f2+3
  3534  0B80  306E               	movlw	110
  3535  0B81  00A8               	movwf	___fldiv@f2+2
  3536  0B82  306B               	movlw	107
  3537  0B83  00A7               	movwf	___fldiv@f2+1
  3538  0B84  3028               	movlw	40
  3539  0B85  00A6               	movwf	___fldiv@f2
  3540  0B86  1683               	bsf	3,5	;RP0=1, select bank3
  3541  0B87  1703               	bsf	3,6	;RP1=1, select bank3
  3542  0B88  0836               	movf	(measure_capacitance@Cin+3)^(0+384),w
  3543  0B89  1283               	bcf	3,5	;RP0=0, select bank0
  3544  0B8A  1303               	bcf	3,6	;RP1=0, select bank0
  3545  0B8B  00AD               	movwf	___fldiv@f1+3
  3546  0B8C  1683               	bsf	3,5	;RP0=1, select bank3
  3547  0B8D  1703               	bsf	3,6	;RP1=1, select bank3
  3548  0B8E  0835               	movf	(measure_capacitance@Cin+2)^(0+384),w
  3549  0B8F  1283               	bcf	3,5	;RP0=0, select bank0
  3550  0B90  1303               	bcf	3,6	;RP1=0, select bank0
  3551  0B91  00AC               	movwf	___fldiv@f1+2
  3552  0B92  1683               	bsf	3,5	;RP0=1, select bank3
  3553  0B93  1703               	bsf	3,6	;RP1=1, select bank3
  3554  0B94  0834               	movf	(measure_capacitance@Cin+1)^(0+384),w
  3555  0B95  1283               	bcf	3,5	;RP0=0, select bank0
  3556  0B96  1303               	bcf	3,6	;RP1=0, select bank0
  3557  0B97  00AB               	movwf	___fldiv@f1+1
  3558  0B98  1683               	bsf	3,5	;RP0=1, select bank3
  3559  0B99  1703               	bsf	3,6	;RP1=1, select bank3
  3560  0B9A  0833               	movf	measure_capacitance@Cin^(0+384),w
  3561  0B9B  1283               	bcf	3,5	;RP0=0, select bank0
  3562  0B9C  1303               	bcf	3,6	;RP1=0, select bank0
  3563  0B9D  00AA               	movwf	___fldiv@f1
  3564  0B9E  266C  120A  158A   	fcall	___fldiv
  3565  0BA1  0829               	movf	?___fldiv+3,w
  3566  0BA2  1683               	bsf	3,5	;RP0=1, select bank3
  3567  0BA3  1703               	bsf	3,6	;RP1=1, select bank3
  3568  0BA4  00B6               	movwf	(measure_capacitance@Cin+3)^(0+384)
  3569  0BA5  1283               	bcf	3,5	;RP0=0, select bank0
  3570  0BA6  1303               	bcf	3,6	;RP1=0, select bank0
  3571  0BA7  0828               	movf	?___fldiv+2,w
  3572  0BA8  1683               	bsf	3,5	;RP0=1, select bank3
  3573  0BA9  1703               	bsf	3,6	;RP1=1, select bank3
  3574  0BAA  00B5               	movwf	(measure_capacitance@Cin+2)^(0+384)
  3575  0BAB  1283               	bcf	3,5	;RP0=0, select bank0
  3576  0BAC  1303               	bcf	3,6	;RP1=0, select bank0
  3577  0BAD  0827               	movf	?___fldiv+1,w
  3578  0BAE  1683               	bsf	3,5	;RP0=1, select bank3
  3579  0BAF  1703               	bsf	3,6	;RP1=1, select bank3
  3580  0BB0  00B4               	movwf	(measure_capacitance@Cin+1)^(0+384)
  3581  0BB1  1283               	bcf	3,5	;RP0=0, select bank0
  3582  0BB2  1303               	bcf	3,6	;RP1=0, select bank0
  3583  0BB3  0826               	movf	?___fldiv,w
  3584  0BB4  1683               	bsf	3,5	;RP0=1, select bank3
  3585  0BB5  1703               	bsf	3,6	;RP1=1, select bank3
  3586  0BB6  00B3               	movwf	measure_capacitance@Cin^(0+384)
  3587                           
  3588                           ;LC-meter.c: 446: unit = 4;
  3589  0BB7  3004               	movlw	4
  3590  0BB8  2C2F               	goto	L2
  3591  0BB9                     l3755:	
  3592                           ;LC-meter.c: 447: } else {
  3593                           
  3594                           
  3595                           ;LC-meter.c: 448: Cin = Cin / (1e+06l);
  3596  0BB9  3049               	movlw	73
  3597  0BBA  00A9               	movwf	___fldiv@f2+3
  3598  0BBB  3074               	movlw	116
  3599  0BBC  00A8               	movwf	___fldiv@f2+2
  3600  0BBD  3024               	movlw	36
  3601  0BBE  00A7               	movwf	___fldiv@f2+1
  3602  0BBF  01A6               	clrf	___fldiv@f2
  3603  0BC0  1683               	bsf	3,5	;RP0=1, select bank3
  3604  0BC1  1703               	bsf	3,6	;RP1=1, select bank3
  3605  0BC2  0836               	movf	(measure_capacitance@Cin+3)^(0+384),w
  3606  0BC3  1283               	bcf	3,5	;RP0=0, select bank0
  3607  0BC4  1303               	bcf	3,6	;RP1=0, select bank0
  3608  0BC5  00AD               	movwf	___fldiv@f1+3
  3609  0BC6  1683               	bsf	3,5	;RP0=1, select bank3
  3610  0BC7  1703               	bsf	3,6	;RP1=1, select bank3
  3611  0BC8  0835               	movf	(measure_capacitance@Cin+2)^(0+384),w
  3612  0BC9  1283               	bcf	3,5	;RP0=0, select bank0
  3613  0BCA  1303               	bcf	3,6	;RP1=0, select bank0
  3614  0BCB  00AC               	movwf	___fldiv@f1+2
  3615  0BCC  1683               	bsf	3,5	;RP0=1, select bank3
  3616  0BCD  1703               	bsf	3,6	;RP1=1, select bank3
  3617  0BCE  0834               	movf	(measure_capacitance@Cin+1)^(0+384),w
  3618  0BCF  1283               	bcf	3,5	;RP0=0, select bank0
  3619  0BD0  1303               	bcf	3,6	;RP1=0, select bank0
  3620  0BD1  00AB               	movwf	___fldiv@f1+1
  3621  0BD2  1683               	bsf	3,5	;RP0=1, select bank3
  3622  0BD3  1703               	bsf	3,6	;RP1=1, select bank3
  3623  0BD4  0833               	movf	measure_capacitance@Cin^(0+384),w
  3624  0BD5  1283               	bcf	3,5	;RP0=0, select bank0
  3625  0BD6  1303               	bcf	3,6	;RP1=0, select bank0
  3626  0BD7  00AA               	movwf	___fldiv@f1
  3627  0BD8  266C  120A  158A   	fcall	___fldiv
  3628  0BDB  0829               	movf	?___fldiv+3,w
  3629  0BDC  1683               	bsf	3,5	;RP0=1, select bank3
  3630  0BDD  1703               	bsf	3,6	;RP1=1, select bank3
  3631  0BDE  00B6               	movwf	(measure_capacitance@Cin+3)^(0+384)
  3632  0BDF  1283               	bcf	3,5	;RP0=0, select bank0
  3633  0BE0  1303               	bcf	3,6	;RP1=0, select bank0
  3634  0BE1  0828               	movf	?___fldiv+2,w
  3635  0BE2  1683               	bsf	3,5	;RP0=1, select bank3
  3636  0BE3  1703               	bsf	3,6	;RP1=1, select bank3
  3637  0BE4  00B5               	movwf	(measure_capacitance@Cin+2)^(0+384)
  3638  0BE5  1283               	bcf	3,5	;RP0=0, select bank0
  3639  0BE6  1303               	bcf	3,6	;RP1=0, select bank0
  3640  0BE7  0827               	movf	?___fldiv+1,w
  3641  0BE8  1683               	bsf	3,5	;RP0=1, select bank3
  3642  0BE9  1703               	bsf	3,6	;RP1=1, select bank3
  3643  0BEA  00B4               	movwf	(measure_capacitance@Cin+1)^(0+384)
  3644  0BEB  1283               	bcf	3,5	;RP0=0, select bank0
  3645  0BEC  1303               	bcf	3,6	;RP1=0, select bank0
  3646  0BED  0826               	movf	?___fldiv,w
  3647  0BEE  1683               	bsf	3,5	;RP0=1, select bank3
  3648  0BEF  1703               	bsf	3,6	;RP1=1, select bank3
  3649  0BF0  00B3               	movwf	measure_capacitance@Cin^(0+384)
  3650                           
  3651                           ;LC-meter.c: 449: unit = 5;
  3652  0BF1  3005               	movlw	5
  3653  0BF2  2C2F               	goto	L2
  3654  0BF3                     l3759:	
  3655                           
  3656                           ;LC-meter.c: 452: Cin = Cin / 1e+03l;
  3657  0BF3  3044               	movlw	68
  3658  0BF4  00A9               	movwf	___fldiv@f2+3
  3659  0BF5  307A               	movlw	122
  3660  0BF6  00A8               	movwf	___fldiv@f2+2
  3661  0BF7  01A7               	clrf	___fldiv@f2+1
  3662  0BF8  01A6               	clrf	___fldiv@f2
  3663  0BF9  1683               	bsf	3,5	;RP0=1, select bank3
  3664  0BFA  1703               	bsf	3,6	;RP1=1, select bank3
  3665  0BFB  0836               	movf	(measure_capacitance@Cin+3)^(0+384),w
  3666  0BFC  1283               	bcf	3,5	;RP0=0, select bank0
  3667  0BFD  1303               	bcf	3,6	;RP1=0, select bank0
  3668  0BFE  00AD               	movwf	___fldiv@f1+3
  3669  0BFF  1683               	bsf	3,5	;RP0=1, select bank3
  3670  0C00  1703               	bsf	3,6	;RP1=1, select bank3
  3671  0C01  0835               	movf	(measure_capacitance@Cin+2)^(0+384),w
  3672  0C02  1283               	bcf	3,5	;RP0=0, select bank0
  3673  0C03  1303               	bcf	3,6	;RP1=0, select bank0
  3674  0C04  00AC               	movwf	___fldiv@f1+2
  3675  0C05  1683               	bsf	3,5	;RP0=1, select bank3
  3676  0C06  1703               	bsf	3,6	;RP1=1, select bank3
  3677  0C07  0834               	movf	(measure_capacitance@Cin+1)^(0+384),w
  3678  0C08  1283               	bcf	3,5	;RP0=0, select bank0
  3679  0C09  1303               	bcf	3,6	;RP1=0, select bank0
  3680  0C0A  00AB               	movwf	___fldiv@f1+1
  3681  0C0B  1683               	bsf	3,5	;RP0=1, select bank3
  3682  0C0C  1703               	bsf	3,6	;RP1=1, select bank3
  3683  0C0D  0833               	movf	measure_capacitance@Cin^(0+384),w
  3684  0C0E  1283               	bcf	3,5	;RP0=0, select bank0
  3685  0C0F  1303               	bcf	3,6	;RP1=0, select bank0
  3686  0C10  00AA               	movwf	___fldiv@f1
  3687  0C11  266C  120A  158A   	fcall	___fldiv
  3688  0C14  0829               	movf	?___fldiv+3,w
  3689  0C15  1683               	bsf	3,5	;RP0=1, select bank3
  3690  0C16  1703               	bsf	3,6	;RP1=1, select bank3
  3691  0C17  00B6               	movwf	(measure_capacitance@Cin+3)^(0+384)
  3692  0C18  1283               	bcf	3,5	;RP0=0, select bank0
  3693  0C19  1303               	bcf	3,6	;RP1=0, select bank0
  3694  0C1A  0828               	movf	?___fldiv+2,w
  3695  0C1B  1683               	bsf	3,5	;RP0=1, select bank3
  3696  0C1C  1703               	bsf	3,6	;RP1=1, select bank3
  3697  0C1D  00B5               	movwf	(measure_capacitance@Cin+2)^(0+384)
  3698  0C1E  1283               	bcf	3,5	;RP0=0, select bank0
  3699  0C1F  1303               	bcf	3,6	;RP1=0, select bank0
  3700  0C20  0827               	movf	?___fldiv+1,w
  3701  0C21  1683               	bsf	3,5	;RP0=1, select bank3
  3702  0C22  1703               	bsf	3,6	;RP1=1, select bank3
  3703  0C23  00B4               	movwf	(measure_capacitance@Cin+1)^(0+384)
  3704  0C24  1283               	bcf	3,5	;RP0=0, select bank0
  3705  0C25  1303               	bcf	3,6	;RP1=0, select bank0
  3706  0C26  0826               	movf	?___fldiv,w
  3707  0C27  1683               	bsf	3,5	;RP0=1, select bank3
  3708  0C28  1703               	bsf	3,6	;RP1=1, select bank3
  3709  0C29  00B3               	movwf	measure_capacitance@Cin^(0+384)
  3710                           
  3711                           ;LC-meter.c: 453: unit = 6;
  3712  0C2A  3006               	movlw	6
  3713  0C2B  2C2F               	goto	L2
  3714  0C2C                     l3763:	
  3715                           
  3716                           ;LC-meter.c: 456: unit = 7;
  3717  0C2C  3007               	movlw	7
  3718  0C2D  1683               	bsf	3,5	;RP0=1, select bank3
  3719  0C2E  1703               	bsf	3,6	;RP1=1, select bank3
  3720  0C2F                     L2:	
  3721  0C2F  00B0               	movwf	measure_capacitance@unit^(0+384)
  3722                           
  3723                           ;LC-meter.c: 458: Cin = Cin * 100;
  3724  0C30  3042               	movlw	66
  3725  0C31  1283               	bcf	3,5	;RP0=0, select bank0
  3726  0C32  1303               	bcf	3,6	;RP1=0, select bank0
  3727  0C33  00BC               	movwf	___flmul@f1+3
  3728  0C34  30C8               	movlw	200
  3729  0C35  00BB               	movwf	___flmul@f1+2
  3730  0C36  01BA               	clrf	___flmul@f1+1
  3731  0C37  01B9               	clrf	___flmul@f1
  3732  0C38  1683               	bsf	3,5	;RP0=1, select bank3
  3733  0C39  1703               	bsf	3,6	;RP1=1, select bank3
  3734  0C3A  0836               	movf	(measure_capacitance@Cin+3)^(0+384),w
  3735  0C3B  1283               	bcf	3,5	;RP0=0, select bank0
  3736  0C3C  1303               	bcf	3,6	;RP1=0, select bank0
  3737  0C3D  00C0               	movwf	___flmul@f2+3
  3738  0C3E  1683               	bsf	3,5	;RP0=1, select bank3
  3739  0C3F  1703               	bsf	3,6	;RP1=1, select bank3
  3740  0C40  0835               	movf	(measure_capacitance@Cin+2)^(0+384),w
  3741  0C41  1283               	bcf	3,5	;RP0=0, select bank0
  3742  0C42  1303               	bcf	3,6	;RP1=0, select bank0
  3743  0C43  00BF               	movwf	___flmul@f2+2
  3744  0C44  1683               	bsf	3,5	;RP0=1, select bank3
  3745  0C45  1703               	bsf	3,6	;RP1=1, select bank3
  3746  0C46  0834               	movf	(measure_capacitance@Cin+1)^(0+384),w
  3747  0C47  1283               	bcf	3,5	;RP0=0, select bank0
  3748  0C48  1303               	bcf	3,6	;RP1=0, select bank0
  3749  0C49  00BE               	movwf	___flmul@f2+1
  3750  0C4A  1683               	bsf	3,5	;RP0=1, select bank3
  3751  0C4B  1703               	bsf	3,6	;RP1=1, select bank3
  3752  0C4C  0833               	movf	measure_capacitance@Cin^(0+384),w
  3753  0C4D  1283               	bcf	3,5	;RP0=0, select bank0
  3754  0C4E  1303               	bcf	3,6	;RP1=0, select bank0
  3755  0C4F  00BD               	movwf	___flmul@f2
  3756  0C50  160A  118A  2674  120A  158A  	fcall	___flmul
  3757  0C55  083C               	movf	?___flmul+3,w
  3758  0C56  1683               	bsf	3,5	;RP0=1, select bank3
  3759  0C57  1703               	bsf	3,6	;RP1=1, select bank3
  3760  0C58  00B6               	movwf	(measure_capacitance@Cin+3)^(0+384)
  3761  0C59  1283               	bcf	3,5	;RP0=0, select bank0
  3762  0C5A  1303               	bcf	3,6	;RP1=0, select bank0
  3763  0C5B  083B               	movf	?___flmul+2,w
  3764  0C5C  1683               	bsf	3,5	;RP0=1, select bank3
  3765  0C5D  1703               	bsf	3,6	;RP1=1, select bank3
  3766  0C5E  00B5               	movwf	(measure_capacitance@Cin+2)^(0+384)
  3767  0C5F  1283               	bcf	3,5	;RP0=0, select bank0
  3768  0C60  1303               	bcf	3,6	;RP1=0, select bank0
  3769  0C61  083A               	movf	?___flmul+1,w
  3770  0C62  1683               	bsf	3,5	;RP0=1, select bank3
  3771  0C63  1703               	bsf	3,6	;RP1=1, select bank3
  3772  0C64  00B4               	movwf	(measure_capacitance@Cin+1)^(0+384)
  3773  0C65  1283               	bcf	3,5	;RP0=0, select bank0
  3774  0C66  1303               	bcf	3,6	;RP1=0, select bank0
  3775  0C67  0839               	movf	?___flmul,w
  3776  0C68  1683               	bsf	3,5	;RP0=1, select bank3
  3777  0C69  1703               	bsf	3,6	;RP1=1, select bank3
  3778  0C6A  00B3               	movwf	measure_capacitance@Cin^(0+384)
  3779                           
  3780                           ;LC-meter.c: 459: var = (unsigned short int)Cin;
  3781  0C6B  0836               	movf	(measure_capacitance@Cin+3)^(0+384),w
  3782  0C6C  1303               	bcf	3,6	;RP1=0, select bank1
  3783  0C6D  00AD               	movwf	(___fltol@f1+3)^(0+128)
  3784  0C6E  1703               	bsf	3,6	;RP1=1, select bank3
  3785  0C6F  0835               	movf	(measure_capacitance@Cin+2)^(0+384),w
  3786  0C70  1303               	bcf	3,6	;RP1=0, select bank1
  3787  0C71  00AC               	movwf	(___fltol@f1+2)^(0+128)
  3788  0C72  1703               	bsf	3,6	;RP1=1, select bank3
  3789  0C73  0834               	movf	(measure_capacitance@Cin+1)^(0+384),w
  3790  0C74  1303               	bcf	3,6	;RP1=0, select bank1
  3791  0C75  00AB               	movwf	(___fltol@f1+1)^(0+128)
  3792  0C76  1703               	bsf	3,6	;RP1=1, select bank3
  3793  0C77  0833               	movf	measure_capacitance@Cin^(0+384),w
  3794  0C78  1303               	bcf	3,6	;RP1=0, select bank1
  3795  0C79  00AA               	movwf	___fltol@f1^(0+128)
  3796  0C7A  26E7  120A  158A   	fcall	___fltol
  3797  0C7D  082B               	movf	(?___fltol^(0+128)+1),w
  3798  0C7E  1703               	bsf	3,6	;RP1=1, select bank3
  3799  0C7F  00B2               	movwf	(measure_capacitance@var+1)^(0+384)
  3800  0C80  1303               	bcf	3,6	;RP1=0, select bank1
  3801  0C81  082A               	movf	?___fltol^(0+128),w
  3802  0C82  1703               	bsf	3,6	;RP1=1, select bank3
  3803  0C83  00B1               	movwf	measure_capacitance@var^(0+384)
  3804                           
  3805                           ;LC-meter.c: 461: print_reading(var);
  3806  0C84  0832               	movf	(measure_capacitance@var+1)^(0+384),w
  3807  0C85  00F4               	movwf	print_reading@measurement+1
  3808  0C86  0831               	movf	measure_capacitance@var^(0+384),w
  3809  0C87  00F3               	movwf	print_reading@measurement
  3810  0C88  27FE  120A  158A   	fcall	_print_reading
  3811                           
  3812                           ;LC-meter.c: 462: print_unit(unit);
  3813  0C8B  1703               	bsf	3,6	;RP1=1, select bank3
  3814  0C8C  0830               	movf	measure_capacitance@unit^(0+384),w
  3815  0C8D  2FFF               	ljmp	l20
  3816  0C8E                     __end_of_measure_capacitance:	
  3817  0C8E                     __ptext35:	
  3818 ;; *************** function _ser_puts *****************
  3819 ;; Defined at:
  3820 ;;		line 92 in file "../../../lib/ser.c"
  3821 ;; Parameters:    Size  Location     Type
  3822 ;;  s               1    wreg     PTR const unsigned char 
  3823 ;;		 -> STR_11(3), STR_10(5), STR_9(3), STR_8(8), 
  3824 ;;		 -> STR_7(6), STR_6(6), STR_5(6), STR_4(5), 
  3825 ;;		 -> STR_3(3), STR_2(3), STR_1(6), 
  3826 ;; Auto vars:     Size  Location     Type
  3827 ;;  s               1    6[COMMON] PTR const unsigned char 
  3828 ;;		 -> STR_11(3), STR_10(5), STR_9(3), STR_8(8), 
  3829 ;;		 -> STR_7(6), STR_6(6), STR_5(6), STR_4(5), 
  3830 ;;		 -> STR_3(3), STR_2(3), STR_1(6), 
  3831 ;; Return value:  Size  Location     Type
  3832 ;;		None               void
  3833 ;; Registers used:
  3834 ;;		wreg, fsr0l, fsr0h, status,2, status,0, pclath, cstack
  3835 ;; Tracked objects:
  3836 ;;		On entry : 0/0
  3837 ;;		On exit  : 0/0
  3838 ;;		Unchanged: 0/0
  3839 ;; Data sizes:     COMMON   BANK0   BANK1   BANK3   BANK2
  3840 ;;      Params:         0       0       0       0       0
  3841 ;;      Locals:         1       0       0       0       0
  3842 ;;      Temps:          0       0       0       0       0
  3843 ;;      Totals:         1       0       0       0       0
  3844 ;;Total ram usage:        1 bytes
  3845 ;; Hardware stack levels used:    1
  3846 ;; Hardware stack levels required when called:    2
  3847 ;; This function calls:
  3848 ;;		_ser_putch
  3849 ;; This function is called by:
  3850 ;;		_main
  3851 ;;		_calibrate
  3852 ;;		_measure_capacitance
  3853 ;; This function uses a non-reentrant model
  3854 ;;
  3855                           
  3856                           
  3857                           ;psect for function _ser_puts
  3858  0C8E                     _ser_puts:	
  3859                           
  3860                           ;incstack = 0
  3861                           ; Regs used in _ser_puts: [wreg-fsr0h+status,2+status,0+pclath+cstack]
  3862                           ;ser_puts@s stored from wreg
  3863  0C8E  00F6               	movwf	ser_puts@s
  3864  0C8F                     l2613:	
  3865                           ;ser.c: 93: while(*s) ser_putch(*s++);
  3866                           
  3867  0C8F  0876               	movf	ser_puts@s,w
  3868  0C90  0084               	movwf	4
  3869  0C91  160A  158A  2000  120A  158A  	fcall	stringdir
  3870  0C96  3A00               	xorlw	0
  3871  0C97  1903               	btfsc	3,2
  3872  0C98  0008               	return
  3873  0C99  0876               	movf	ser_puts@s,w
  3874  0C9A  0084               	movwf	4
  3875  0C9B  160A  158A  2000  120A  158A  	fcall	stringdir
  3876  0CA0  00F5               	movwf	ser_putch@c
  3877  0CA1  24A6  120A  158A   	fcall	_ser_putch
  3878  0CA4  0AF6               	incf	ser_puts@s,f
  3879  0CA5  2C8F               	goto	l2613
  3880  0CA6                     __end_of_ser_puts:	
  3881  0CA6                     __ptext23:	
  3882 ;; *************** function _ser_putch *****************
  3883 ;; Defined at:
  3884 ;;		line 82 in file "../../../lib/ser.c"
  3885 ;; Parameters:    Size  Location     Type
  3886 ;;  c               1    5[COMMON] unsigned char 
  3887 ;; Auto vars:     Size  Location     Type
  3888 ;;		None
  3889 ;; Return value:  Size  Location     Type
  3890 ;;		None               void
  3891 ;; Registers used:
  3892 ;;		wreg, fsr0l, fsr0h, status,2, status,0
  3893 ;; Tracked objects:
  3894 ;;		On entry : 0/0
  3895 ;;		On exit  : B00/900
  3896 ;;		Unchanged: 0/0
  3897 ;; Data sizes:     COMMON   BANK0   BANK1   BANK3   BANK2
  3898 ;;      Params:         1       0       0       0       0
  3899 ;;      Locals:         0       0       0       0       0
  3900 ;;      Temps:          0       0       0       0       0
  3901 ;;      Totals:         1       0       0       0       0
  3902 ;;Total ram usage:        1 bytes
  3903 ;; Hardware stack levels used:    1
  3904 ;; Hardware stack levels required when called:    1
  3905 ;; This function calls:
  3906 ;;		Nothing
  3907 ;; This function is called by:
  3908 ;;		_ser_puts
  3909 ;;		_output_putch
  3910 ;;		_measure_capacitance
  3911 ;;		_format_number
  3912 ;;		_format_xint32
  3913 ;;		_format_double
  3914 ;; This function uses a non-reentrant model
  3915 ;;
  3916                           
  3917                           
  3918                           ;psect for function _ser_putch
  3919  0CA6                     _ser_putch:	
  3920  0CA6                     l2245:	
  3921                           ;ser.c: 83: while(((txiptr + 1) & ((unsigned char)16 - 1)) == txoptr) continue;
  3922                           
  3923                           ;incstack = 0
  3924                           ; Regs used in _ser_putch: [wreg-fsr0h+status,2+status,0]
  3925                           
  3926  0CA6  0878               	movf	_txiptr,w	;volatile
  3927  0CA7  3E01               	addlw	1
  3928  0CA8  390F               	andlw	15
  3929  0CA9  0679               	xorwf	_txoptr,w	;volatile
  3930  0CAA  1903               	skipnz
  3931  0CAB  2CA6               	goto	l2245
  3932                           
  3933                           ;ser.c: 84: GIE = 0;
  3934  0CAC  138B               	bcf	11,7	;volatile
  3935                           
  3936                           ;ser.c: 85: txfifo[txiptr] = c;
  3937  0CAD  0878               	movf	_txiptr,w
  3938  0CAE  3EB7               	addlw	(low (_txfifo| (0+256)))& (0+255)
  3939  0CAF  0084               	movwf	4
  3940  0CB0  0875               	movf	ser_putch@c,w
  3941  0CB1  1783               	bsf	3,7	;select IRP bank3
  3942  0CB2  0080               	movwf	0
  3943                           
  3944                           ;ser.c: 86: txiptr = (txiptr + 1) & ((unsigned char)16 - 1);
  3945  0CB3  0AF8               	incf	_txiptr,f	;volatile
  3946  0CB4  300F               	movlw	15
  3947  0CB5  05F8               	andwf	_txiptr,f	;volatile
  3948                           
  3949                           ;ser.c: 87: TXIE = 1;
  3950  0CB6  1683               	bsf	3,5	;RP0=1, select bank1
  3951  0CB7  1303               	bcf	3,6	;RP1=0, select bank1
  3952  0CB8  160C               	bsf	12,4	;volatile
  3953                           
  3954                           ;ser.c: 88: GIE = 1;
  3955  0CB9  178B               	bsf	11,7	;volatile
  3956  0CBA  0008               	return
  3957  0CBB                     __end_of_ser_putch:	
  3958  0CBB                     __ptext7:	
  3959 ;; *************** function _format_xint32 *****************
  3960 ;; Defined at:
  3961 ;;		line 48 in file "../../../lib/format.c"
  3962 ;; Parameters:    Size  Location     Type
  3963 ;;  x               4   45[BANK0 ] unsigned long 
  3964 ;; Auto vars:     Size  Location     Type
  3965 ;;		None
  3966 ;; Return value:  Size  Location     Type
  3967 ;;		None               void
  3968 ;; Registers used:
  3969 ;;		wreg, fsr0l, fsr0h, status,2, status,0, pclath, cstack
  3970 ;; Tracked objects:
  3971 ;;		On entry : 300/0
  3972 ;;		On exit  : 300/0
  3973 ;;		Unchanged: 0/0
  3974 ;; Data sizes:     COMMON   BANK0   BANK1   BANK3   BANK2
  3975 ;;      Params:         0       4       0       0       0
  3976 ;;      Locals:         0       0       0       0       0
  3977 ;;      Temps:          0       0       0       0       0
  3978 ;;      Totals:         0       4       0       0       0
  3979 ;;Total ram usage:        4 bytes
  3980 ;; Hardware stack levels used:    1
  3981 ;; Hardware stack levels required when called:    4
  3982 ;; This function calls:
  3983 ;;		_format_number
  3984 ;;		_format_putchar
  3985 ;;		_output_putch
  3986 ;;		_ser_putch
  3987 ;; This function is called by:
  3988 ;;		_measure_capacitance
  3989 ;; This function uses a non-reentrant model
  3990 ;;
  3991                           
  3992                           
  3993                           ;psect for function _format_xint32
  3994  0CBB                     _format_xint32:	
  3995                           
  3996                           ;format.c: 49: putchar_ptr('0');
  3997                           
  3998                           ;incstack = 0
  3999                           ; Regs used in _format_xint32: [wreg-fsr0h+status,2+status,0+pclath+cstack]
  4000  0CBB  3030               	movlw	48
  4001  0CBC  00F5               	movwf	output_putch@c
  4002  0CBD  087A               	movf	_putchar_ptr,w
  4003  0CBE  120A  118A  2100  120A  158A  	fcall	fptable
  4004                           
  4005                           ;format.c: 50: putchar_ptr('x');
  4006  0CC3  3078               	movlw	120
  4007  0CC4  00F5               	movwf	output_putch@c
  4008  0CC5  087A               	movf	_putchar_ptr,w
  4009  0CC6  120A  118A  2100  120A  158A  	fcall	fptable
  4010                           
  4011                           ;format.c: 51: format_number((unsigned short int)(x >> 16), 16, -4);
  4012  0CCB  1283               	bcf	3,5	;RP0=0, select bank0
  4013  0CCC  1303               	bcf	3,6	;RP1=0, select bank0
  4014  0CCD  0850               	movf	format_xint32@x+3,w
  4015  0CCE  00A4               	movwf	format_number@n+1
  4016  0CCF  084F               	movf	format_xint32@x+2,w
  4017  0CD0  00A3               	movwf	format_number@n
  4018  0CD1  3010               	movlw	16
  4019  0CD2  00A5               	movwf	format_number@base
  4020  0CD3  30FC               	movlw	252
  4021  0CD4  00A6               	movwf	format_number@pad
  4022  0CD5  2781  120A  158A   	fcall	_format_number
  4023                           
  4024                           ;format.c: 52: format_number((unsigned short int)(x & 0xffff), 16, -4);
  4025  0CD8  084E               	movf	format_xint32@x+1,w
  4026  0CD9  00A4               	movwf	format_number@n+1
  4027  0CDA  084D               	movf	format_xint32@x,w
  4028  0CDB  00A3               	movwf	format_number@n
  4029  0CDC  3010               	movlw	16
  4030  0CDD  00A5               	movwf	format_number@base
  4031  0CDE  30FC               	movlw	252
  4032  0CDF  00A6               	movwf	format_number@pad
  4033  0CE0  2F81               	ljmp	l3477
  4034  0CE1                     __end_of_format_xint32:	
  4035  0CE1                     __ptext11:	
  4036 ;; *************** function _format_double *****************
  4037 ;; Defined at:
  4038 ;;		line 74 in file "../../../lib/format.c"
  4039 ;; Parameters:    Size  Location     Type
  4040 ;;  num             4    0[BANK3 ] unsigned int 
  4041 ;; Auto vars:     Size  Location     Type
  4042 ;;  weight          4   12[BANK3 ] unsigned int 
  4043 ;;  m               2   18[BANK3 ] short 
  4044 ;;  digit           2   16[BANK3 ] short 
  4045 ;; Return value:  Size  Location     Type
  4046 ;;		None               void
  4047 ;; Registers used:
  4048 ;;		wreg, fsr0l, fsr0h, status,2, status,0, btemp+1, pclath, cstack
  4049 ;; Tracked objects:
  4050 ;;		On entry : 300/300
  4051 ;;		On exit  : 300/0
  4052 ;;		Unchanged: 0/0
  4053 ;; Data sizes:     COMMON   BANK0   BANK1   BANK3   BANK2
  4054 ;;      Params:         0       0       0       4       0
  4055 ;;      Locals:         0       0       0      16       0
  4056 ;;      Temps:          0       0       0       0       0
  4057 ;;      Totals:         0       0       0      20       0
  4058 ;;Total ram usage:       20 bytes
  4059 ;; Hardware stack levels used:    1
  4060 ;; Hardware stack levels required when called:    6
  4061 ;; This function calls:
  4062 ;;		___awtofl
  4063 ;;		___fldiv
  4064 ;;		___flge
  4065 ;;		___flmul
  4066 ;;		___flsub
  4067 ;;		___fltol
  4068 ;;		_floor
  4069 ;;		_format_putchar
  4070 ;;		_log10
  4071 ;;		_output_putch
  4072 ;;		_pow
  4073 ;;		_ser_putch
  4074 ;; This function is called by:
  4075 ;;		_measure_capacitance
  4076 ;; This function uses a non-reentrant model
  4077 ;;
  4078                           
  4079                           
  4080                           ;psect for function _format_double
  4081  0CE1                     _format_double:	
  4082                           
  4083                           ;format.c: 75: short m = (short)log10(num);
  4084                           
  4085                           ;incstack = 0
  4086                           ; Regs used in _format_double: [wreg-fsr0h+status,2+status,0+btemp+1+pclath+cstack]
  4087  0CE1  0813               	movf	(format_double@num+3)^(0+384),w
  4088  0CE2  1303               	bcf	3,6	;RP1=0, select bank1
  4089  0CE3  00A5               	movwf	(log10@x+3)^(0+128)
  4090  0CE4  1703               	bsf	3,6	;RP1=1, select bank3
  4091  0CE5  0812               	movf	(format_double@num+2)^(0+384),w
  4092  0CE6  1303               	bcf	3,6	;RP1=0, select bank1
  4093  0CE7  00A4               	movwf	(log10@x+2)^(0+128)
  4094  0CE8  1703               	bsf	3,6	;RP1=1, select bank3
  4095  0CE9  0811               	movf	(format_double@num+1)^(0+384),w
  4096  0CEA  1303               	bcf	3,6	;RP1=0, select bank1
  4097  0CEB  00A3               	movwf	(log10@x+1)^(0+128)
  4098  0CEC  1703               	bsf	3,6	;RP1=1, select bank3
  4099  0CED  0810               	movf	format_double@num^(0+384),w
  4100  0CEE  1303               	bcf	3,6	;RP1=0, select bank1
  4101  0CEF  00A2               	movwf	log10@x^(0+128)
  4102  0CF0  120A  118A  210F  120A  158A  	fcall	_log10
  4103  0CF5  0825               	movf	(?_log10+3)^(0+128),w
  4104  0CF6  00AD               	movwf	(___fltol@f1+3)^(0+128)
  4105  0CF7  0824               	movf	(?_log10+2)^(0+128),w
  4106  0CF8  00AC               	movwf	(___fltol@f1+2)^(0+128)
  4107  0CF9  0823               	movf	(?_log10+1)^(0+128),w
  4108  0CFA  00AB               	movwf	(___fltol@f1+1)^(0+128)
  4109  0CFB  0822               	movf	?_log10^(0+128),w
  4110  0CFC  00AA               	movwf	___fltol@f1^(0+128)
  4111  0CFD  26E7               	fcall	___fltol
  4112  0CFE  082B               	movf	(?___fltol^(0+128)+1),w
  4113  0CFF  1703               	bsf	3,6	;RP1=1, select bank3
  4114  0D00  00A3               	movwf	(format_double@m+1)^(0+384)
  4115  0D01  1303               	bcf	3,6	;RP1=0, select bank1
  4116  0D02  082A               	movf	?___fltol^(0+128),w
  4117  0D03  1703               	bsf	3,6	;RP1=1, select bank3
  4118  0D04  00A2               	movwf	format_double@m^(0+384)
  4119  0D05                     l3591:	
  4120                           ;format.c: 76: short digit;
  4121                           ;format.c: 79: while(num > 0 + (sizeof(double) == sizeof(float) ? 3.05176e-05 : 1.192092
      +                          90e-07)) {
  4122                           
  4123  0D05  3038               	movlw	56
  4124  0D06  1283               	bcf	3,5	;RP0=0, select bank0
  4125  0D07  1303               	bcf	3,6	;RP1=0, select bank0
  4126  0D08  00A3               	movwf	___flge@ff1+3
  4127  0D09  3006               	movlw	6
  4128  0D0A  01A2               	clrf	___flge@ff1+2
  4129  0D0B  01A1               	clrf	___flge@ff1+1
  4130  0D0C  00A0               	movwf	___flge@ff1
  4131  0D0D  1683               	bsf	3,5	;RP0=1, select bank3
  4132  0D0E  1703               	bsf	3,6	;RP1=1, select bank3
  4133  0D0F  0813               	movf	(format_double@num+3)^(0+384),w
  4134  0D10  1283               	bcf	3,5	;RP0=0, select bank0
  4135  0D11  1303               	bcf	3,6	;RP1=0, select bank0
  4136  0D12  00A7               	movwf	___flge@ff2+3
  4137  0D13  1683               	bsf	3,5	;RP0=1, select bank3
  4138  0D14  1703               	bsf	3,6	;RP1=1, select bank3
  4139  0D15  0812               	movf	(format_double@num+2)^(0+384),w
  4140  0D16  1283               	bcf	3,5	;RP0=0, select bank0
  4141  0D17  1303               	bcf	3,6	;RP1=0, select bank0
  4142  0D18  00A6               	movwf	___flge@ff2+2
  4143  0D19  1683               	bsf	3,5	;RP0=1, select bank3
  4144  0D1A  1703               	bsf	3,6	;RP1=1, select bank3
  4145  0D1B  0811               	movf	(format_double@num+1)^(0+384),w
  4146  0D1C  1283               	bcf	3,5	;RP0=0, select bank0
  4147  0D1D  1303               	bcf	3,6	;RP1=0, select bank0
  4148  0D1E  00A5               	movwf	___flge@ff2+1
  4149  0D1F  1683               	bsf	3,5	;RP0=1, select bank3
  4150  0D20  1703               	bsf	3,6	;RP1=1, select bank3
  4151  0D21  0810               	movf	format_double@num^(0+384),w
  4152  0D22  1283               	bcf	3,5	;RP0=0, select bank0
  4153  0D23  1303               	bcf	3,6	;RP1=0, select bank0
  4154  0D24  00A4               	movwf	___flge@ff2
  4155  0D25  160A  118A  270A  120A  158A  	fcall	___flge
  4156  0D2A  1803               	btfsc	3,0
  4157  0D2B  0008               	return
  4158                           
  4159                           ;format.c: 80: double weight = pow(10.0l, m);
  4160  0D2C  1683               	bsf	3,5	;RP0=1, select bank3
  4161  0D2D  1703               	bsf	3,6	;RP1=1, select bank3
  4162  0D2E  0823               	movf	(format_double@m+1)^(0+384),w
  4163  0D2F  1283               	bcf	3,5	;RP0=0, select bank0
  4164  0D30  1303               	bcf	3,6	;RP1=0, select bank0
  4165  0D31  00A7               	movwf	___awtofl@c+1
  4166  0D32  1683               	bsf	3,5	;RP0=1, select bank3
  4167  0D33  1703               	bsf	3,6	;RP1=1, select bank3
  4168  0D34  0822               	movf	format_double@m^(0+384),w
  4169  0D35  1283               	bcf	3,5	;RP0=0, select bank0
  4170  0D36  1303               	bcf	3,6	;RP1=0, select bank0
  4171  0D37  00A6               	movwf	___awtofl@c
  4172  0D38  273E  120A  158A   	fcall	___awtofl
  4173  0D3B  0829               	movf	?___awtofl+3,w
  4174  0D3C  1683               	bsf	3,5	;RP0=1, select bank3
  4175  0D3D  1703               	bsf	3,6	;RP1=1, select bank3
  4176  0D3E  0097               	movwf	(_format_double$805+3)^(0+384)
  4177  0D3F  1283               	bcf	3,5	;RP0=0, select bank0
  4178  0D40  1303               	bcf	3,6	;RP1=0, select bank0
  4179  0D41  0828               	movf	?___awtofl+2,w
  4180  0D42  1683               	bsf	3,5	;RP0=1, select bank3
  4181  0D43  1703               	bsf	3,6	;RP1=1, select bank3
  4182  0D44  0096               	movwf	(_format_double$805+2)^(0+384)
  4183  0D45  1283               	bcf	3,5	;RP0=0, select bank0
  4184  0D46  1303               	bcf	3,6	;RP1=0, select bank0
  4185  0D47  0827               	movf	?___awtofl+1,w
  4186  0D48  1683               	bsf	3,5	;RP0=1, select bank3
  4187  0D49  1703               	bsf	3,6	;RP1=1, select bank3
  4188  0D4A  0095               	movwf	(_format_double$805+1)^(0+384)
  4189  0D4B  1283               	bcf	3,5	;RP0=0, select bank0
  4190  0D4C  1303               	bcf	3,6	;RP1=0, select bank0
  4191  0D4D  0826               	movf	?___awtofl,w
  4192  0D4E  1683               	bsf	3,5	;RP0=1, select bank3
  4193  0D4F  1703               	bsf	3,6	;RP1=1, select bank3
  4194  0D50  0094               	movwf	_format_double$805^(0+384)
  4195                           
  4196                           ;format.c: 80: double weight = pow(10.0l, m);
  4197  0D51  3041               	movlw	65
  4198  0D52  1303               	bcf	3,6	;RP1=0, select bank1
  4199  0D53  00D4               	movwf	(pow@x+3)^(0+128)
  4200  0D54  3020               	movlw	32
  4201  0D55  00D3               	movwf	(pow@x+2)^(0+128)
  4202  0D56  01D2               	clrf	(pow@x+1)^(0+128)
  4203  0D57  01D1               	clrf	pow@x^(0+128)
  4204  0D58  1703               	bsf	3,6	;RP1=1, select bank3
  4205  0D59  0817               	movf	(_format_double$805+3)^(0+384),w
  4206  0D5A  1303               	bcf	3,6	;RP1=0, select bank1
  4207  0D5B  00D8               	movwf	(pow@y+3)^(0+128)
  4208  0D5C  1703               	bsf	3,6	;RP1=1, select bank3
  4209  0D5D  0816               	movf	(_format_double$805+2)^(0+384),w
  4210  0D5E  1303               	bcf	3,6	;RP1=0, select bank1
  4211  0D5F  00D7               	movwf	(pow@y+2)^(0+128)
  4212  0D60  1703               	bsf	3,6	;RP1=1, select bank3
  4213  0D61  0815               	movf	(_format_double$805+1)^(0+384),w
  4214  0D62  1303               	bcf	3,6	;RP1=0, select bank1
  4215  0D63  00D6               	movwf	(pow@y+1)^(0+128)
  4216  0D64  1703               	bsf	3,6	;RP1=1, select bank3
  4217  0D65  0814               	movf	_format_double$805^(0+384),w
  4218  0D66  1303               	bcf	3,6	;RP1=0, select bank1
  4219  0D67  00D5               	movwf	pow@y^(0+128)
  4220  0D68  120A  118A  24E4  120A  158A  	fcall	_pow
  4221  0D6D  0854               	movf	(?_pow+3)^(0+128),w
  4222  0D6E  1703               	bsf	3,6	;RP1=1, select bank3
  4223  0D6F  009F               	movwf	(format_double@weight+3)^(0+384)
  4224  0D70  1303               	bcf	3,6	;RP1=0, select bank1
  4225  0D71  0853               	movf	(?_pow+2)^(0+128),w
  4226  0D72  1703               	bsf	3,6	;RP1=1, select bank3
  4227  0D73  009E               	movwf	(format_double@weight+2)^(0+384)
  4228  0D74  1303               	bcf	3,6	;RP1=0, select bank1
  4229  0D75  0852               	movf	(?_pow+1)^(0+128),w
  4230  0D76  1703               	bsf	3,6	;RP1=1, select bank3
  4231  0D77  009D               	movwf	(format_double@weight+1)^(0+384)
  4232  0D78  1303               	bcf	3,6	;RP1=0, select bank1
  4233  0D79  0851               	movf	?_pow^(0+128),w
  4234  0D7A  1703               	bsf	3,6	;RP1=1, select bank3
  4235  0D7B  009C               	movwf	format_double@weight^(0+384)
  4236                           
  4237                           ;format.c: 81: digit = (short)floor(num / weight);
  4238  0D7C  0813               	movf	(format_double@num+3)^(0+384),w
  4239  0D7D  1283               	bcf	3,5	;RP0=0, select bank0
  4240  0D7E  1303               	bcf	3,6	;RP1=0, select bank0
  4241  0D7F  00AD               	movwf	___fldiv@f1+3
  4242  0D80  1683               	bsf	3,5	;RP0=1, select bank3
  4243  0D81  1703               	bsf	3,6	;RP1=1, select bank3
  4244  0D82  0812               	movf	(format_double@num+2)^(0+384),w
  4245  0D83  1283               	bcf	3,5	;RP0=0, select bank0
  4246  0D84  1303               	bcf	3,6	;RP1=0, select bank0
  4247  0D85  00AC               	movwf	___fldiv@f1+2
  4248  0D86  1683               	bsf	3,5	;RP0=1, select bank3
  4249  0D87  1703               	bsf	3,6	;RP1=1, select bank3
  4250  0D88  0811               	movf	(format_double@num+1)^(0+384),w
  4251  0D89  1283               	bcf	3,5	;RP0=0, select bank0
  4252  0D8A  1303               	bcf	3,6	;RP1=0, select bank0
  4253  0D8B  00AB               	movwf	___fldiv@f1+1
  4254  0D8C  1683               	bsf	3,5	;RP0=1, select bank3
  4255  0D8D  1703               	bsf	3,6	;RP1=1, select bank3
  4256  0D8E  0810               	movf	format_double@num^(0+384),w
  4257  0D8F  1283               	bcf	3,5	;RP0=0, select bank0
  4258  0D90  1303               	bcf	3,6	;RP1=0, select bank0
  4259  0D91  00AA               	movwf	___fldiv@f1
  4260  0D92  1683               	bsf	3,5	;RP0=1, select bank3
  4261  0D93  1703               	bsf	3,6	;RP1=1, select bank3
  4262  0D94  081F               	movf	(format_double@weight+3)^(0+384),w
  4263  0D95  1283               	bcf	3,5	;RP0=0, select bank0
  4264  0D96  1303               	bcf	3,6	;RP1=0, select bank0
  4265  0D97  00A9               	movwf	___fldiv@f2+3
  4266  0D98  1683               	bsf	3,5	;RP0=1, select bank3
  4267  0D99  1703               	bsf	3,6	;RP1=1, select bank3
  4268  0D9A  081E               	movf	(format_double@weight+2)^(0+384),w
  4269  0D9B  1283               	bcf	3,5	;RP0=0, select bank0
  4270  0D9C  1303               	bcf	3,6	;RP1=0, select bank0
  4271  0D9D  00A8               	movwf	___fldiv@f2+2
  4272  0D9E  1683               	bsf	3,5	;RP0=1, select bank3
  4273  0D9F  1703               	bsf	3,6	;RP1=1, select bank3
  4274  0DA0  081D               	movf	(format_double@weight+1)^(0+384),w
  4275  0DA1  1283               	bcf	3,5	;RP0=0, select bank0
  4276  0DA2  1303               	bcf	3,6	;RP1=0, select bank0
  4277  0DA3  00A7               	movwf	___fldiv@f2+1
  4278  0DA4  1683               	bsf	3,5	;RP0=1, select bank3
  4279  0DA5  1703               	bsf	3,6	;RP1=1, select bank3
  4280  0DA6  081C               	movf	format_double@weight^(0+384),w
  4281  0DA7  1283               	bcf	3,5	;RP0=0, select bank0
  4282  0DA8  1303               	bcf	3,6	;RP1=0, select bank0
  4283  0DA9  00A6               	movwf	___fldiv@f2
  4284  0DAA  266C               	fcall	___fldiv
  4285  0DAB  0829               	movf	?___fldiv+3,w
  4286  0DAC  1683               	bsf	3,5	;RP0=1, select bank1
  4287  0DAD  00BB               	movwf	(floor@x+3)^(0+128)
  4288  0DAE  1283               	bcf	3,5	;RP0=0, select bank0
  4289  0DAF  0828               	movf	?___fldiv+2,w
  4290  0DB0  1683               	bsf	3,5	;RP0=1, select bank1
  4291  0DB1  00BA               	movwf	(floor@x+2)^(0+128)
  4292  0DB2  1283               	bcf	3,5	;RP0=0, select bank0
  4293  0DB3  0827               	movf	?___fldiv+1,w
  4294  0DB4  1683               	bsf	3,5	;RP0=1, select bank1
  4295  0DB5  00B9               	movwf	(floor@x+1)^(0+128)
  4296  0DB6  1283               	bcf	3,5	;RP0=0, select bank0
  4297  0DB7  0826               	movf	?___fldiv,w
  4298  0DB8  1683               	bsf	3,5	;RP0=1, select bank1
  4299  0DB9  00B8               	movwf	floor@x^(0+128)
  4300  0DBA  120A  118A  22F1  120A  158A  	fcall	_floor
  4301  0DBF  083B               	movf	(?_floor+3)^(0+128),w
  4302  0DC0  1703               	bsf	3,6	;RP1=1, select bank3
  4303  0DC1  009B               	movwf	(_format_double$806+3)^(0+384)
  4304  0DC2  1303               	bcf	3,6	;RP1=0, select bank1
  4305  0DC3  083A               	movf	(?_floor+2)^(0+128),w
  4306  0DC4  1703               	bsf	3,6	;RP1=1, select bank3
  4307  0DC5  009A               	movwf	(_format_double$806+2)^(0+384)
  4308  0DC6  1303               	bcf	3,6	;RP1=0, select bank1
  4309  0DC7  0839               	movf	(?_floor+1)^(0+128),w
  4310  0DC8  1703               	bsf	3,6	;RP1=1, select bank3
  4311  0DC9  0099               	movwf	(_format_double$806+1)^(0+384)
  4312  0DCA  1303               	bcf	3,6	;RP1=0, select bank1
  4313  0DCB  0838               	movf	?_floor^(0+128),w
  4314  0DCC  1703               	bsf	3,6	;RP1=1, select bank3
  4315  0DCD  0098               	movwf	_format_double$806^(0+384)
  4316                           
  4317                           ;format.c: 81: digit = (short)floor(num / weight);
  4318  0DCE  081B               	movf	(_format_double$806+3)^(0+384),w
  4319  0DCF  1303               	bcf	3,6	;RP1=0, select bank1
  4320  0DD0  00AD               	movwf	(___fltol@f1+3)^(0+128)
  4321  0DD1  1703               	bsf	3,6	;RP1=1, select bank3
  4322  0DD2  081A               	movf	(_format_double$806+2)^(0+384),w
  4323  0DD3  1303               	bcf	3,6	;RP1=0, select bank1
  4324  0DD4  00AC               	movwf	(___fltol@f1+2)^(0+128)
  4325  0DD5  1703               	bsf	3,6	;RP1=1, select bank3
  4326  0DD6  0819               	movf	(_format_double$806+1)^(0+384),w
  4327  0DD7  1303               	bcf	3,6	;RP1=0, select bank1
  4328  0DD8  00AB               	movwf	(___fltol@f1+1)^(0+128)
  4329  0DD9  1703               	bsf	3,6	;RP1=1, select bank3
  4330  0DDA  0818               	movf	_format_double$806^(0+384),w
  4331  0DDB  1303               	bcf	3,6	;RP1=0, select bank1
  4332  0DDC  00AA               	movwf	___fltol@f1^(0+128)
  4333  0DDD  26E7  120A  158A   	fcall	___fltol
  4334  0DE0  082B               	movf	(?___fltol^(0+128)+1),w
  4335  0DE1  1703               	bsf	3,6	;RP1=1, select bank3
  4336  0DE2  00A1               	movwf	(format_double@digit+1)^(0+384)
  4337  0DE3  1303               	bcf	3,6	;RP1=0, select bank1
  4338  0DE4  082A               	movf	?___fltol^(0+128),w
  4339  0DE5  1703               	bsf	3,6	;RP1=1, select bank3
  4340  0DE6  00A0               	movwf	format_double@digit^(0+384)
  4341                           
  4342                           ;format.c: 82: num -= (digit * weight);
  4343  0DE7  0821               	movf	(format_double@digit+1)^(0+384),w
  4344  0DE8  1283               	bcf	3,5	;RP0=0, select bank0
  4345  0DE9  1303               	bcf	3,6	;RP1=0, select bank0
  4346  0DEA  00A7               	movwf	___awtofl@c+1
  4347  0DEB  1683               	bsf	3,5	;RP0=1, select bank3
  4348  0DEC  1703               	bsf	3,6	;RP1=1, select bank3
  4349  0DED  0820               	movf	format_double@digit^(0+384),w
  4350  0DEE  1283               	bcf	3,5	;RP0=0, select bank0
  4351  0DEF  1303               	bcf	3,6	;RP1=0, select bank0
  4352  0DF0  00A6               	movwf	___awtofl@c
  4353  0DF1  273E               	fcall	___awtofl
  4354  0DF2  0829               	movf	?___awtofl+3,w
  4355  0DF3  00C0               	movwf	___flmul@f2+3
  4356  0DF4  0828               	movf	?___awtofl+2,w
  4357  0DF5  00BF               	movwf	___flmul@f2+2
  4358  0DF6  0827               	movf	?___awtofl+1,w
  4359  0DF7  00BE               	movwf	___flmul@f2+1
  4360  0DF8  0826               	movf	?___awtofl,w
  4361  0DF9  00BD               	movwf	___flmul@f2
  4362  0DFA  1683               	bsf	3,5	;RP0=1, select bank3
  4363  0DFB  1703               	bsf	3,6	;RP1=1, select bank3
  4364  0DFC  081F               	movf	(format_double@weight+3)^(0+384),w
  4365  0DFD  1283               	bcf	3,5	;RP0=0, select bank0
  4366  0DFE  1303               	bcf	3,6	;RP1=0, select bank0
  4367  0DFF  00BC               	movwf	___flmul@f1+3
  4368  0E00  1683               	bsf	3,5	;RP0=1, select bank3
  4369  0E01  1703               	bsf	3,6	;RP1=1, select bank3
  4370  0E02  081E               	movf	(format_double@weight+2)^(0+384),w
  4371  0E03  1283               	bcf	3,5	;RP0=0, select bank0
  4372  0E04  1303               	bcf	3,6	;RP1=0, select bank0
  4373  0E05  00BB               	movwf	___flmul@f1+2
  4374  0E06  1683               	bsf	3,5	;RP0=1, select bank3
  4375  0E07  1703               	bsf	3,6	;RP1=1, select bank3
  4376  0E08  081D               	movf	(format_double@weight+1)^(0+384),w
  4377  0E09  1283               	bcf	3,5	;RP0=0, select bank0
  4378  0E0A  1303               	bcf	3,6	;RP1=0, select bank0
  4379  0E0B  00BA               	movwf	___flmul@f1+1
  4380  0E0C  1683               	bsf	3,5	;RP0=1, select bank3
  4381  0E0D  1703               	bsf	3,6	;RP1=1, select bank3
  4382  0E0E  081C               	movf	format_double@weight^(0+384),w
  4383  0E0F  1283               	bcf	3,5	;RP0=0, select bank0
  4384  0E10  1303               	bcf	3,6	;RP1=0, select bank0
  4385  0E11  00B9               	movwf	___flmul@f1
  4386  0E12  160A  118A  2674  120A  158A  	fcall	___flmul
  4387  0E17  083C               	movf	?___flmul+3,w
  4388  0E18  00DE               	movwf	___flsub@f2+3
  4389  0E19  083B               	movf	?___flmul+2,w
  4390  0E1A  00DD               	movwf	___flsub@f2+2
  4391  0E1B  083A               	movf	?___flmul+1,w
  4392  0E1C  00DC               	movwf	___flsub@f2+1
  4393  0E1D  0839               	movf	?___flmul,w
  4394  0E1E  00DB               	movwf	___flsub@f2
  4395  0E1F  1683               	bsf	3,5	;RP0=1, select bank3
  4396  0E20  1703               	bsf	3,6	;RP1=1, select bank3
  4397  0E21  0813               	movf	(format_double@num+3)^(0+384),w
  4398  0E22  1283               	bcf	3,5	;RP0=0, select bank0
  4399  0E23  1303               	bcf	3,6	;RP1=0, select bank0
  4400  0E24  00E2               	movwf	___flsub@f1+3
  4401  0E25  1683               	bsf	3,5	;RP0=1, select bank3
  4402  0E26  1703               	bsf	3,6	;RP1=1, select bank3
  4403  0E27  0812               	movf	(format_double@num+2)^(0+384),w
  4404  0E28  1283               	bcf	3,5	;RP0=0, select bank0
  4405  0E29  1303               	bcf	3,6	;RP1=0, select bank0
  4406  0E2A  00E1               	movwf	___flsub@f1+2
  4407  0E2B  1683               	bsf	3,5	;RP0=1, select bank3
  4408  0E2C  1703               	bsf	3,6	;RP1=1, select bank3
  4409  0E2D  0811               	movf	(format_double@num+1)^(0+384),w
  4410  0E2E  1283               	bcf	3,5	;RP0=0, select bank0
  4411  0E2F  1303               	bcf	3,6	;RP1=0, select bank0
  4412  0E30  00E0               	movwf	___flsub@f1+1
  4413  0E31  1683               	bsf	3,5	;RP0=1, select bank3
  4414  0E32  1703               	bsf	3,6	;RP1=1, select bank3
  4415  0E33  0810               	movf	format_double@num^(0+384),w
  4416  0E34  1283               	bcf	3,5	;RP0=0, select bank0
  4417  0E35  1303               	bcf	3,6	;RP1=0, select bank0
  4418  0E36  00DF               	movwf	___flsub@f1
  4419  0E37  275D               	fcall	___flsub
  4420  0E38  085E               	movf	?___flsub+3,w
  4421  0E39  1683               	bsf	3,5	;RP0=1, select bank3
  4422  0E3A  1703               	bsf	3,6	;RP1=1, select bank3
  4423  0E3B  0093               	movwf	(format_double@num+3)^(0+384)
  4424  0E3C  1283               	bcf	3,5	;RP0=0, select bank0
  4425  0E3D  1303               	bcf	3,6	;RP1=0, select bank0
  4426  0E3E  085D               	movf	?___flsub+2,w
  4427  0E3F  1683               	bsf	3,5	;RP0=1, select bank3
  4428  0E40  1703               	bsf	3,6	;RP1=1, select bank3
  4429  0E41  0092               	movwf	(format_double@num+2)^(0+384)
  4430  0E42  1283               	bcf	3,5	;RP0=0, select bank0
  4431  0E43  1303               	bcf	3,6	;RP1=0, select bank0
  4432  0E44  085C               	movf	?___flsub+1,w
  4433  0E45  1683               	bsf	3,5	;RP0=1, select bank3
  4434  0E46  1703               	bsf	3,6	;RP1=1, select bank3
  4435  0E47  0091               	movwf	(format_double@num+1)^(0+384)
  4436  0E48  1283               	bcf	3,5	;RP0=0, select bank0
  4437  0E49  1303               	bcf	3,6	;RP1=0, select bank0
  4438  0E4A  085B               	movf	?___flsub,w
  4439  0E4B  1683               	bsf	3,5	;RP0=1, select bank3
  4440  0E4C  1703               	bsf	3,6	;RP1=1, select bank3
  4441  0E4D  0090               	movwf	format_double@num^(0+384)
  4442                           
  4443                           ;format.c: 83: putchar_ptr((char)('0' + digit));
  4444  0E4E  0820               	movf	format_double@digit^(0+384),w
  4445  0E4F  3E30               	addlw	48
  4446  0E50  00F5               	movwf	output_putch@c
  4447  0E51  087A               	movf	_putchar_ptr,w
  4448  0E52  120A  118A  2100  120A  158A  	fcall	fptable
  4449                           
  4450                           ;format.c: 84: if(m == 0)
  4451  0E57  1683               	bsf	3,5	;RP0=1, select bank3
  4452  0E58  1703               	bsf	3,6	;RP1=1, select bank3
  4453  0E59  0822               	movf	format_double@m^(0+384),w
  4454  0E5A  0423               	iorwf	(format_double@m+1)^(0+384),w
  4455  0E5B  1D03               	btfss	3,2
  4456  0E5C  2E65               	goto	l3589
  4457                           
  4458                           ;format.c: 85: putchar_ptr('.');
  4459  0E5D  302E               	movlw	46
  4460  0E5E  00F5               	movwf	output_putch@c
  4461  0E5F  087A               	movf	_putchar_ptr,w
  4462  0E60  120A  118A  2100  120A  158A  	fcall	fptable
  4463  0E65                     l3589:	
  4464                           
  4465                           ;format.c: 86: m--;
  4466  0E65  30FF               	movlw	-1
  4467  0E66  1683               	bsf	3,5	;RP0=1, select bank3
  4468  0E67  1703               	bsf	3,6	;RP1=1, select bank3
  4469  0E68  07A2               	addwf	format_double@m^(0+384),f
  4470  0E69  1C03               	skipc
  4471  0E6A  03A3               	decf	(format_double@m+1)^(0+384),f
  4472  0E6B  2D05               	goto	l3591
  4473  0E6C                     __end_of_format_double:	
  4474  0E6C                     __ptext20:	
  4475 ;; *************** function ___fldiv *****************
  4476 ;; Defined at:
  4477 ;;		line 56 in file "C:\Program Files (x86)\Microchip\xc8\v1.34\sources\common\fldiv.c"
  4478 ;; Parameters:    Size  Location     Type
  4479 ;;  f2              4    6[BANK0 ] unsigned char 
  4480 ;;  f1              4   10[BANK0 ] unsigned char 
  4481 ;; Auto vars:     Size  Location     Type
  4482 ;;  f3              4   18[BANK0 ] unsigned char 
  4483 ;;  sign            1   24[BANK0 ] unsigned char 
  4484 ;;  exp             1   23[BANK0 ] unsigned char 
  4485 ;;  cntr            1   22[BANK0 ] unsigned char 
  4486 ;; Return value:  Size  Location     Type
  4487 ;;                  4    6[BANK0 ] unsigned char 
  4488 ;; Registers used:
  4489 ;;		wreg, status,2, status,0, pclath, cstack
  4490 ;; Tracked objects:
  4491 ;;		On entry : 300/0
  4492 ;;		On exit  : 300/0
  4493 ;;		Unchanged: 0/0
  4494 ;; Data sizes:     COMMON   BANK0   BANK1   BANK3   BANK2
  4495 ;;      Params:         0       8       0       0       0
  4496 ;;      Locals:         0       7       0       0       0
  4497 ;;      Temps:          0       4       0       0       0
  4498 ;;      Totals:         0      19       0       0       0
  4499 ;;Total ram usage:       19 bytes
  4500 ;; Hardware stack levels used:    1
  4501 ;; Hardware stack levels required when called:    2
  4502 ;; This function calls:
  4503 ;;		___flpack
  4504 ;; This function is called by:
  4505 ;;		_format_double
  4506 ;;		_measure_capacitance
  4507 ;;		_measure_inductance
  4508 ;;		_exp
  4509 ;; This function uses a non-reentrant model
  4510 ;;
  4511                           
  4512                           
  4513                           ;psect for function ___fldiv
  4514  0E6C                     ___fldiv:	
  4515                           
  4516                           ;incstack = 0
  4517                           ; Regs used in ___fldiv: [wreg+status,2+status,0+pclath+cstack]
  4518  0E6C  082A               	movf	___fldiv@f1,w
  4519  0E6D  00AE               	movwf	??___fldiv
  4520  0E6E  082B               	movf	___fldiv@f1+1,w
  4521  0E6F  00AF               	movwf	??___fldiv+1
  4522  0E70  082C               	movf	___fldiv@f1+2,w
  4523  0E71  00B0               	movwf	??___fldiv+2
  4524  0E72  082D               	movf	___fldiv@f1+3,w
  4525  0E73  00B1               	movwf	??___fldiv+3
  4526  0E74  1003               	clrc
  4527  0E75  0D30               	rlf	??___fldiv+2,w
  4528  0E76  0D31               	rlf	??___fldiv+3,w
  4529  0E77  00B7               	movwf	___fldiv@exp
  4530  0E78  0837               	movf	___fldiv@exp,w
  4531  0E79  1D03               	btfss	3,2
  4532  0E7A  2E80               	goto	l3285
  4533  0E7B  01A6               	clrf	?___fldiv
  4534  0E7C  01A7               	clrf	?___fldiv+1
  4535  0E7D  01A8               	clrf	?___fldiv+2
  4536  0E7E  01A9               	clrf	?___fldiv+3
  4537  0E7F  0008               	return
  4538  0E80                     l3285:	
  4539  0E80  0826               	movf	___fldiv@f2,w
  4540  0E81  00AE               	movwf	??___fldiv
  4541  0E82  0827               	movf	___fldiv@f2+1,w
  4542  0E83  00AF               	movwf	??___fldiv+1
  4543  0E84  0828               	movf	___fldiv@f2+2,w
  4544  0E85  00B0               	movwf	??___fldiv+2
  4545  0E86  0829               	movf	___fldiv@f2+3,w
  4546  0E87  00B1               	movwf	??___fldiv+3
  4547  0E88  1003               	clrc
  4548  0E89  0D30               	rlf	??___fldiv+2,w
  4549  0E8A  0D31               	rlf	??___fldiv+3,w
  4550  0E8B  00B8               	movwf	___fldiv@sign
  4551  0E8C  0838               	movf	___fldiv@sign,w
  4552  0E8D  1D03               	btfss	3,2
  4553  0E8E  2E94               	goto	l3289
  4554  0E8F  01A6               	clrf	?___fldiv
  4555  0E90  01A7               	clrf	?___fldiv+1
  4556  0E91  01A8               	clrf	?___fldiv+2
  4557  0E92  01A9               	clrf	?___fldiv+3
  4558  0E93  0008               	return
  4559  0E94                     l3289:	
  4560  0E94  3089               	movlw	137
  4561  0E95  0738               	addwf	___fldiv@sign,w
  4562  0E96  00AE               	movwf	??___fldiv
  4563  0E97  02B7               	subwf	___fldiv@exp,f
  4564  0E98  082D               	movf	___fldiv@f1+3,w
  4565  0E99  00B8               	movwf	___fldiv@sign
  4566  0E9A  0829               	movf	___fldiv@f2+3,w
  4567  0E9B  06B8               	xorwf	___fldiv@sign,f
  4568  0E9C  3080               	movlw	128
  4569  0E9D  05B8               	andwf	___fldiv@sign,f
  4570  0E9E  3020               	movlw	32
  4571  0E9F  17AC               	bsf	___fldiv@f1+2,7
  4572  0EA0  01AD               	clrf	___fldiv@f1+3
  4573  0EA1  17A8               	bsf	___fldiv@f2+2,7
  4574  0EA2  01A9               	clrf	___fldiv@f2+3
  4575  0EA3  00B6               	movwf	___fldiv@cntr
  4576  0EA4                     l3307:	
  4577  0EA4  1003               	clrc
  4578  0EA5  0DB2               	rlf	___fldiv@f3,f
  4579  0EA6  0DB3               	rlf	___fldiv@f3+1,f
  4580  0EA7  0DB4               	rlf	___fldiv@f3+2,f
  4581  0EA8  0DB5               	rlf	___fldiv@f3+3,f
  4582  0EA9  0829               	movf	___fldiv@f2+3,w
  4583  0EAA  022D               	subwf	___fldiv@f1+3,w
  4584  0EAB  1D03               	skipz
  4585  0EAC  2EB7               	goto	u3215
  4586  0EAD  0828               	movf	___fldiv@f2+2,w
  4587  0EAE  022C               	subwf	___fldiv@f1+2,w
  4588  0EAF  1D03               	skipz
  4589  0EB0  2EB7               	goto	u3215
  4590  0EB1  0827               	movf	___fldiv@f2+1,w
  4591  0EB2  022B               	subwf	___fldiv@f1+1,w
  4592  0EB3  1D03               	skipz
  4593  0EB4  2EB7               	goto	u3215
  4594  0EB5  0826               	movf	___fldiv@f2,w
  4595  0EB6  022A               	subwf	___fldiv@f1,w
  4596  0EB7                     u3215:	
  4597  0EB7  1C03               	skipc
  4598  0EB8  2EC9               	goto	L10
  4599  0EB9  0826               	movf	___fldiv@f2,w
  4600  0EBA  02AA               	subwf	___fldiv@f1,f
  4601  0EBB  0827               	movf	___fldiv@f2+1,w
  4602  0EBC  1C03               	skipc
  4603  0EBD  0F27               	incfsz	___fldiv@f2+1,w
  4604  0EBE  02AB               	subwf	___fldiv@f1+1,f
  4605  0EBF  0828               	movf	___fldiv@f2+2,w
  4606  0EC0  1C03               	skipc
  4607  0EC1  0F28               	incfsz	___fldiv@f2+2,w
  4608  0EC2  02AC               	subwf	___fldiv@f1+2,f
  4609  0EC3  0829               	movf	___fldiv@f2+3,w
  4610  0EC4  1C03               	skipc
  4611  0EC5  0F29               	incfsz	___fldiv@f2+3,w
  4612  0EC6  02AD               	subwf	___fldiv@f1+3,f
  4613  0EC7  1432               	bsf	___fldiv@f3,0
  4614  0EC8  1003               	clrc
  4615  0EC9                     L10:	
  4616  0EC9  0DAA               	rlf	___fldiv@f1,f
  4617  0ECA  0DAB               	rlf	___fldiv@f1+1,f
  4618  0ECB  0DAC               	rlf	___fldiv@f1+2,f
  4619  0ECC  0DAD               	rlf	___fldiv@f1+3,f
  4620  0ECD  0BB6               	decfsz	___fldiv@cntr,f
  4621  0ECE  2EA4               	goto	l3307
  4622  0ECF  0835               	movf	___fldiv@f3+3,w
  4623  0ED0  00A3               	movwf	___flpack@arg+3
  4624  0ED1  0834               	movf	___fldiv@f3+2,w
  4625  0ED2  00A2               	movwf	___flpack@arg+2
  4626  0ED3  0833               	movf	___fldiv@f3+1,w
  4627  0ED4  00A1               	movwf	___flpack@arg+1
  4628  0ED5  0832               	movf	___fldiv@f3,w
  4629  0ED6  00A0               	movwf	___flpack@arg
  4630  0ED7  0837               	movf	___fldiv@exp,w
  4631  0ED8  00A4               	movwf	___flpack@exp
  4632  0ED9  0838               	movf	___fldiv@sign,w
  4633  0EDA  00A5               	movwf	___flpack@sign
  4634  0EDB  160A  118A  2756   	fcall	___flpack
  4635  0EDE  0823               	movf	?___flpack+3,w
  4636  0EDF  00A9               	movwf	?___fldiv+3
  4637  0EE0  0822               	movf	?___flpack+2,w
  4638  0EE1  00A8               	movwf	?___fldiv+2
  4639  0EE2  0821               	movf	?___flpack+1,w
  4640  0EE3  00A7               	movwf	?___fldiv+1
  4641  0EE4  0820               	movf	?___flpack,w
  4642  0EE5  00A6               	movwf	?___fldiv
  4643  0EE6  0008               	return
  4644  0EE7                     __end_of___fldiv:	
  4645  0EE7                     __ptext17:	
  4646 ;; *************** function ___fltol *****************
  4647 ;; Defined at:
  4648 ;;		line 43 in file "C:\Program Files (x86)\Microchip\xc8\v1.34\sources\common\fltol.c"
  4649 ;; Parameters:    Size  Location     Type
  4650 ;;  f1              4   10[BANK1 ] int 
  4651 ;; Auto vars:     Size  Location     Type
  4652 ;;  exp1            1   19[BANK1 ] unsigned char 
  4653 ;;  sign1           1   18[BANK1 ] unsigned char 
  4654 ;; Return value:  Size  Location     Type
  4655 ;;                  4   10[BANK1 ] long 
  4656 ;; Registers used:
  4657 ;;		wreg, status,2, status,0
  4658 ;; Tracked objects:
  4659 ;;		On entry : 300/100
  4660 ;;		On exit  : 300/100
  4661 ;;		Unchanged: 0/0
  4662 ;; Data sizes:     COMMON   BANK0   BANK1   BANK3   BANK2
  4663 ;;      Params:         0       0       4       0       0
  4664 ;;      Locals:         0       0       2       0       0
  4665 ;;      Temps:          0       0       4       0       0
  4666 ;;      Totals:         0       0      10       0       0
  4667 ;;Total ram usage:       10 bytes
  4668 ;; Hardware stack levels used:    1
  4669 ;; Hardware stack levels required when called:    1
  4670 ;; This function calls:
  4671 ;;		Nothing
  4672 ;; This function is called by:
  4673 ;;		_format_double
  4674 ;;		_measure_capacitance
  4675 ;;		_measure_inductance
  4676 ;;		_floor
  4677 ;;		_pow
  4678 ;;		_exp
  4679 ;; This function uses a non-reentrant model
  4680 ;;
  4681                           
  4682                           
  4683                           ;psect for function ___fltol
  4684  0EE7                     ___fltol:	
  4685                           
  4686                           ;incstack = 0
  4687                           ; Regs used in ___fltol: [wreg+status,2+status,0]
  4688  0EE7  082A               	movf	___fltol@f1^(0+128),w
  4689  0EE8  00AE               	movwf	??___fltol^(0+128)
  4690  0EE9  082B               	movf	(___fltol@f1+1)^(0+128),w
  4691  0EEA  00AF               	movwf	(??___fltol^(0+128)+1)
  4692  0EEB  082C               	movf	(___fltol@f1+2)^(0+128),w
  4693  0EEC  00B0               	movwf	(??___fltol^(0+128)+2)
  4694  0EED  082D               	movf	(___fltol@f1+3)^(0+128),w
  4695  0EEE  00B1               	movwf	(??___fltol^(0+128)+3)
  4696  0EEF  1003               	clrc
  4697  0EF0  0D30               	rlf	(??___fltol^(0+128)+2),w
  4698  0EF1  0D31               	rlf	(??___fltol^(0+128)+3),w
  4699  0EF2  00B3               	movwf	___fltol@exp1^(0+128)
  4700  0EF3  0833               	movf	___fltol@exp1^(0+128),w
  4701  0EF4  1D03               	btfss	3,2
  4702  0EF5  2EFB               	goto	l2213
  4703  0EF6                     l2211:	
  4704  0EF6  01AA               	clrf	?___fltol^(0+128)
  4705  0EF7  01AB               	clrf	(?___fltol+1)^(0+128)
  4706  0EF8  01AC               	clrf	(?___fltol+2)^(0+128)
  4707  0EF9  01AD               	clrf	(?___fltol+3)^(0+128)
  4708  0EFA  0008               	return
  4709  0EFB                     l2213:	
  4710  0EFB  082A               	movf	___fltol@f1^(0+128),w
  4711  0EFC  00AE               	movwf	??___fltol^(0+128)
  4712  0EFD  082B               	movf	(___fltol@f1+1)^(0+128),w
  4713  0EFE  00AF               	movwf	(??___fltol^(0+128)+1)
  4714  0EFF  082C               	movf	(___fltol@f1+2)^(0+128),w
  4715  0F00  00B0               	movwf	(??___fltol^(0+128)+2)
  4716  0F01  082D               	movf	(___fltol@f1+3)^(0+128),w
  4717  0F02  00B1               	movwf	(??___fltol^(0+128)+3)
  4718  0F03  301F               	movlw	31
  4719  0F04                     u1815:	
  4720  0F04  1003               	clrc
  4721  0F05  0CB1               	rrf	(??___fltol^(0+128)+3),f
  4722  0F06  0CB0               	rrf	(??___fltol^(0+128)+2),f
  4723  0F07  0CAF               	rrf	(??___fltol^(0+128)+1),f
  4724  0F08  0CAE               	rrf	??___fltol^(0+128),f
  4725  0F09  3EFF               	addlw	-1
  4726  0F0A  1D03               	skipz
  4727  0F0B  2F04               	goto	u1815
  4728  0F0C  082E               	movf	??___fltol^(0+128),w
  4729  0F0D  00B2               	movwf	___fltol@sign1^(0+128)
  4730  0F0E  3096               	movlw	150
  4731  0F0F  17AC               	bsf	(___fltol@f1^(0+128)+2),7
  4732  0F10  01AD               	clrf	(___fltol@f1+3)^(0+128)
  4733  0F11  02B3               	subwf	___fltol@exp1^(0+128),f
  4734  0F12  1FB3               	btfss	___fltol@exp1^(0+128),7
  4735  0F13  2F21               	goto	l2231
  4736  0F14  0833               	movf	___fltol@exp1^(0+128),w
  4737  0F15  3A80               	xorlw	128
  4738  0F16  3E97               	addlw	151
  4739  0F17  1C03               	btfss	3,0
  4740  0F18  2EF6               	goto	l2211
  4741  0F19                     l2227:	
  4742  0F19  1003               	clrc
  4743  0F1A  0CAD               	rrf	(___fltol@f1+3)^(0+128),f
  4744  0F1B  0CAC               	rrf	(___fltol@f1+2)^(0+128),f
  4745  0F1C  0CAB               	rrf	(___fltol@f1+1)^(0+128),f
  4746  0F1D  0CAA               	rrf	___fltol@f1^(0+128),f
  4747  0F1E  0FB3               	incfsz	___fltol@exp1^(0+128),f
  4748  0F1F  2F19               	goto	l2227
  4749  0F20  2F2F               	goto	l2239
  4750  0F21                     l2231:	
  4751  0F21  3020               	movlw	32
  4752  0F22  0233               	subwf	___fltol@exp1^(0+128),w
  4753  0F23  1803               	btfsc	3,0
  4754  0F24  2EF6               	goto	l2211
  4755  0F25                     l2237:	
  4756  0F25  0833               	movf	___fltol@exp1^(0+128),w
  4757  0F26  1903               	btfsc	3,2
  4758  0F27  2F2F               	goto	l2239
  4759  0F28  1003               	clrc
  4760  0F29  0DAA               	rlf	___fltol@f1^(0+128),f
  4761  0F2A  0DAB               	rlf	(___fltol@f1+1)^(0+128),f
  4762  0F2B  0DAC               	rlf	(___fltol@f1+2)^(0+128),f
  4763  0F2C  0DAD               	rlf	(___fltol@f1+3)^(0+128),f
  4764  0F2D  03B3               	decf	___fltol@exp1^(0+128),f
  4765  0F2E  2F25               	goto	l2237
  4766  0F2F                     l2239:	
  4767  0F2F  0832               	movf	___fltol@sign1^(0+128),w
  4768  0F30  1903               	btfsc	3,2
  4769  0F31  0008               	return
  4770  0F32  09AA               	comf	___fltol@f1^(0+128),f
  4771  0F33  09AB               	comf	(___fltol@f1+1)^(0+128),f
  4772  0F34  09AC               	comf	(___fltol@f1+2)^(0+128),f
  4773  0F35  09AD               	comf	(___fltol@f1+3)^(0+128),f
  4774  0F36  0AAA               	incf	___fltol@f1^(0+128),f
  4775  0F37  1903               	skipnz
  4776  0F38  0AAB               	incf	(___fltol@f1+1)^(0+128),f
  4777  0F39  1903               	skipnz
  4778  0F3A  0AAC               	incf	(___fltol@f1+2)^(0+128),f
  4779  0F3B  1903               	skipnz
  4780  0F3C  0AAD               	incf	(___fltol@f1+3)^(0+128),f
  4781  0F3D  0008               	return
  4782  0F3E                     __end_of___fltol:	
  4783  0F3E                     __ptext32:	
  4784 ;; *************** function ___awtofl *****************
  4785 ;; Defined at:
  4786 ;;		line 31 in file "C:\Program Files (x86)\Microchip\xc8\v1.34\sources\common\awtofl.c"
  4787 ;; Parameters:    Size  Location     Type
  4788 ;;  c               2    6[BANK0 ] int 
  4789 ;; Auto vars:     Size  Location     Type
  4790 ;;  f1              4    0        int 
  4791 ;;  sign            1    7[COMMON] unsigned char 
  4792 ;; Return value:  Size  Location     Type
  4793 ;;                  4    6[BANK0 ] unsigned char 
  4794 ;; Registers used:
  4795 ;;		wreg, status,2, status,0, pclath, cstack
  4796 ;; Tracked objects:
  4797 ;;		On entry : 300/0
  4798 ;;		On exit  : 300/0
  4799 ;;		Unchanged: 0/0
  4800 ;; Data sizes:     COMMON   BANK0   BANK1   BANK3   BANK2
  4801 ;;      Params:         0       4       0       0       0
  4802 ;;      Locals:         1       0       0       0       0
  4803 ;;      Temps:          0       0       0       0       0
  4804 ;;      Totals:         1       4       0       0       0
  4805 ;;Total ram usage:        5 bytes
  4806 ;; Hardware stack levels used:    1
  4807 ;; Hardware stack levels required when called:    2
  4808 ;; This function calls:
  4809 ;;		___flpack
  4810 ;; This function is called by:
  4811 ;;		_format_double
  4812 ;;		_log
  4813 ;;		_exp
  4814 ;; This function uses a non-reentrant model
  4815 ;;
  4816                           
  4817                           
  4818                           ;psect for function ___awtofl
  4819  0F3E                     ___awtofl:	
  4820                           
  4821                           ;incstack = 0
  4822                           ; Regs used in ___awtofl: [wreg+status,2+status,0+pclath+cstack]
  4823  0F3E  01F7               	clrf	___awtofl@sign
  4824  0F3F  1FA7               	btfss	___awtofl@c+1,7
  4825  0F40  2F47               	goto	l3277
  4826  0F41  09A6               	comf	___awtofl@c,f
  4827  0F42  09A7               	comf	___awtofl@c+1,f
  4828  0F43  0AA6               	incf	___awtofl@c,f
  4829  0F44  1903               	skipnz
  4830  0F45  0AA7               	incf	___awtofl@c+1,f
  4831  0F46  0AF7               	incf	___awtofl@sign,f
  4832  0F47                     l3277:	
  4833  0F47  0826               	movf	___awtofl@c,w
  4834  0F48  00A0               	movwf	___flpack@arg
  4835  0F49  0827               	movf	___awtofl@c+1,w
  4836  0F4A  00A1               	movwf	___flpack@arg+1
  4837  0F4B  3096               	movlw	150
  4838  0F4C  01A2               	clrf	___flpack@arg+2
  4839  0F4D  01A3               	clrf	___flpack@arg+3
  4840  0F4E  00A4               	movwf	___flpack@exp
  4841  0F4F  0877               	movf	___awtofl@sign,w
  4842  0F50  00A5               	movwf	___flpack@sign
  4843  0F51  160A  118A  2756   	fcall	___flpack
  4844  0F54  0823               	movf	?___flpack+3,w
  4845  0F55  00A9               	movwf	?___awtofl+3
  4846  0F56  0822               	movf	?___flpack+2,w
  4847  0F57  00A8               	movwf	?___awtofl+2
  4848  0F58  0821               	movf	?___flpack+1,w
  4849  0F59  00A7               	movwf	?___awtofl+1
  4850  0F5A  0820               	movf	?___flpack,w
  4851  0F5B  00A6               	movwf	?___awtofl
  4852  0F5C  0008               	return
  4853  0F5D                     __end_of___awtofl:	
  4854  0F5D                     __ptext19:	
  4855 ;; *************** function ___flsub *****************
  4856 ;; Defined at:
  4857 ;;		line 18 in file "C:\Program Files (x86)\Microchip\xc8\v1.34\sources\common\flsub.c"
  4858 ;; Parameters:    Size  Location     Type
  4859 ;;  f2              4   59[BANK0 ] unsigned char 
  4860 ;;  f1              4   63[BANK0 ] unsigned char 
  4861 ;; Auto vars:     Size  Location     Type
  4862 ;;		None
  4863 ;; Return value:  Size  Location     Type
  4864 ;;                  4   59[BANK0 ] unsigned char 
  4865 ;; Registers used:
  4866 ;;		wreg, status,2, status,0, pclath, cstack
  4867 ;; Tracked objects:
  4868 ;;		On entry : 300/0
  4869 ;;		On exit  : 300/0
  4870 ;;		Unchanged: 0/0
  4871 ;; Data sizes:     COMMON   BANK0   BANK1   BANK3   BANK2
  4872 ;;      Params:         0       8       0       0       0
  4873 ;;      Locals:         0       0       0       0       0
  4874 ;;      Temps:          0       0       0       0       0
  4875 ;;      Totals:         0       8       0       0       0
  4876 ;;Total ram usage:        8 bytes
  4877 ;; Hardware stack levels used:    1
  4878 ;; Hardware stack levels required when called:    3
  4879 ;; This function calls:
  4880 ;;		___fladd
  4881 ;; This function is called by:
  4882 ;;		_format_double
  4883 ;;		_measure_capacitance
  4884 ;;		_measure_inductance
  4885 ;;		_exp
  4886 ;; This function uses a non-reentrant model
  4887 ;;
  4888                           
  4889                           
  4890                           ;psect for function ___flsub
  4891  0F5D                     ___flsub:	
  4892                           
  4893                           ;incstack = 0
  4894                           ; Regs used in ___flsub: [wreg+status,2+status,0+pclath+cstack]
  4895  0F5D  085E               	movf	___flsub@f2+3,w
  4896  0F5E  045D               	iorwf	___flsub@f2+2,w
  4897  0F5F  045C               	iorwf	___flsub@f2+1,w
  4898  0F60  045B               	iorwf	___flsub@f2,w
  4899  0F61  1903               	skipnz
  4900  0F62  2F65               	goto	l3325
  4901  0F63  3080               	movlw	128
  4902  0F64  06DE               	xorwf	___flsub@f2+3,f
  4903  0F65                     l3325:	
  4904  0F65  085E               	movf	___flsub@f2+3,w
  4905  0F66  00CF               	movwf	___fladd@f1+3
  4906  0F67  085D               	movf	___flsub@f2+2,w
  4907  0F68  00CE               	movwf	___fladd@f1+2
  4908  0F69  085C               	movf	___flsub@f2+1,w
  4909  0F6A  00CD               	movwf	___fladd@f1+1
  4910  0F6B  085B               	movf	___flsub@f2,w
  4911  0F6C  00CC               	movwf	___fladd@f1
  4912  0F6D  0862               	movf	___flsub@f1+3,w
  4913  0F6E  00D3               	movwf	___fladd@f2+3
  4914  0F6F  0861               	movf	___flsub@f1+2,w
  4915  0F70  00D2               	movwf	___fladd@f2+2
  4916  0F71  0860               	movf	___flsub@f1+1,w
  4917  0F72  00D1               	movwf	___fladd@f2+1
  4918  0F73  085F               	movf	___flsub@f1,w
  4919  0F74  00D0               	movwf	___fladd@f2
  4920  0F75  160A  118A  20B9   	fcall	___fladd
  4921  0F78  084F               	movf	?___fladd+3,w
  4922  0F79  00DE               	movwf	?___flsub+3
  4923  0F7A  084E               	movf	?___fladd+2,w
  4924  0F7B  00DD               	movwf	?___flsub+2
  4925  0F7C  084D               	movf	?___fladd+1,w
  4926  0F7D  00DC               	movwf	?___flsub+1
  4927  0F7E  084C               	movf	?___fladd,w
  4928  0F7F  00DB               	movwf	?___flsub
  4929  0F80  0008               	return
  4930  0F81                     __end_of___flsub:	
  4931  0F81                     __ptext8:	
  4932 ;; *************** function _format_number *****************
  4933 ;; Defined at:
  4934 ;;		line 14 in file "../../../lib/format.c"
  4935 ;; Parameters:    Size  Location     Type
  4936 ;;  n               2    3[BANK0 ] unsigned short 
  4937 ;;  base            1    5[BANK0 ] unsigned char 
  4938 ;;  pad             1    6[BANK0 ] char 
  4939 ;; Auto vars:     Size  Location     Type
  4940 ;;  buf            32    8[BANK0 ] unsigned char [32]
  4941 ;;  i               1   44[BANK0 ] char 
  4942 ;;  di              1   43[BANK0 ] unsigned char 
  4943 ;;  padchar         1   40[BANK0 ] unsigned char 
  4944 ;; Return value:  Size  Location     Type
  4945 ;;		None               void
  4946 ;; Registers used:
  4947 ;;		wreg, fsr0l, fsr0h, status,2, status,0, pclath, cstack
  4948 ;; Tracked objects:
  4949 ;;		On entry : 300/0
  4950 ;;		On exit  : 300/0
  4951 ;;		Unchanged: 0/0
  4952 ;; Data sizes:     COMMON   BANK0   BANK1   BANK3   BANK2
  4953 ;;      Params:         0       4       0       0       0
  4954 ;;      Locals:         0      37       0       0       0
  4955 ;;      Temps:          0       1       0       0       0
  4956 ;;      Totals:         0      42       0       0       0
  4957 ;;Total ram usage:       42 bytes
  4958 ;; Hardware stack levels used:    1
  4959 ;; Hardware stack levels required when called:    3
  4960 ;; This function calls:
  4961 ;;		___lwdiv
  4962 ;;		___lwmod
  4963 ;;		_format_putchar
  4964 ;;		_output_putch
  4965 ;;		_ser_putch
  4966 ;; This function is called by:
  4967 ;;		_format_xint32
  4968 ;; This function uses a non-reentrant model
  4969 ;;
  4970                           
  4971                           
  4972                           ;psect for function _format_number
  4973  0F81                     _format_number:	
  4974  0F81                     l3477:	
  4975                           ;incstack = 0
  4976                           ; Regs used in _format_number: [wreg-fsr0h+status,2+status,0+pclath+cstack]
  4977                           
  4978  0F81  3020               	movlw	32
  4979                           
  4980                           ;format.c: 15: char buf[8 * sizeof(long)];
  4981                           ;format.c: 16: unsigned char di;
  4982                           ;format.c: 17: signed char i = 0;
  4983  0F82  01CC               	clrf	format_number@i
  4984                           
  4985                           ;format.c: 18: char padchar = ' ';
  4986  0F83  00C8               	movwf	format_number@padchar
  4987                           
  4988                           ;format.c: 20: if(pad < 0) {
  4989  0F84  1FA6               	btfss	format_number@pad,7
  4990  0F85  2F8A               	goto	l3487
  4991  0F86  3030               	movlw	48
  4992                           
  4993                           ;format.c: 21: pad = -pad;
  4994  0F87  09A6               	comf	format_number@pad,f
  4995  0F88  0AA6               	incf	format_number@pad,f
  4996                           
  4997                           ;format.c: 22: padchar = '0';
  4998  0F89  00C8               	movwf	format_number@padchar
  4999  0F8A                     l3487:	
  5000                           
  5001                           ;format.c: 34: di = n % base;
  5002  0F8A  0825               	movf	format_number@base,w
  5003  0F8B  00F3               	movwf	___lwmod@divisor
  5004  0F8C  01F4               	clrf	___lwmod@divisor+1
  5005  0F8D  0824               	movf	format_number@n+1,w
  5006  0F8E  00F6               	movwf	___lwmod@dividend+1
  5007  0F8F  0823               	movf	format_number@n,w
  5008  0F90  00F5               	movwf	___lwmod@dividend
  5009  0F91  160A  158A  274E  120A  158A  	fcall	___lwmod
  5010  0F96  0873               	movf	?___lwmod,w
  5011  0F97  00CB               	movwf	format_number@di
  5012                           
  5013                           ;format.c: 35: buf[i++] = (di < 10 ? (unsigned char)'0' + di : (unsigned char)'A' + di -
      +                           10);
  5014  0F98  300A               	movlw	10
  5015  0F99  024B               	subwf	format_number@di,w
  5016  0F9A  084B               	movf	format_number@di,w
  5017  0F9B  00C9               	movwf	_format_number$126
  5018  0F9C  1C03               	skipc
  5019  0F9D  2FA0               	goto	L4
  5020  0F9E  3037               	movlw	55
  5021  0F9F  2FA1               	goto	L3
  5022  0FA0                     L4:	
  5023  0FA0  3030               	movlw	48
  5024  0FA1                     L3:	
  5025  0FA1  01CA               	clrf	_format_number$126+1
  5026  0FA2  07C9               	addwf	_format_number$126,f
  5027  0FA3  1803               	skipnc
  5028  0FA4  0ACA               	incf	_format_number$126+1,f
  5029  0FA5  084C               	movf	format_number@i,w
  5030  0FA6  3E28               	addlw	(low (format_number@buf| 0))& (0+255)
  5031  0FA7  0084               	movwf	4
  5032  0FA8  0849               	movf	_format_number$126,w
  5033  0FA9  1383               	bcf	3,7	;select IRP bank0
  5034  0FAA  0080               	movwf	0
  5035  0FAB  0ACC               	incf	format_number@i,f
  5036                           
  5037                           ;format.c: 37: n /= base;
  5038  0FAC  0825               	movf	format_number@base,w
  5039  0FAD  00F3               	movwf	___lwdiv@divisor
  5040  0FAE  01F4               	clrf	___lwdiv@divisor+1
  5041  0FAF  0824               	movf	format_number@n+1,w
  5042  0FB0  00F6               	movwf	___lwdiv@dividend+1
  5043  0FB1  0823               	movf	format_number@n,w
  5044  0FB2  00F5               	movwf	___lwdiv@dividend
  5045  0FB3  160A  118A  2002  120A  158A  	fcall	___lwdiv
  5046  0FB8  0874               	movf	?___lwdiv+1,w
  5047  0FB9  00A4               	movwf	format_number@n+1
  5048  0FBA  0873               	movf	?___lwdiv,w
  5049  0FBB  00A3               	movwf	format_number@n
  5050                           
  5051                           ;format.c: 38: } while(n > 0);
  5052  0FBC  0424               	iorwf	format_number@n+1,w
  5053  0FBD  1903               	btfsc	3,2
  5054  0FBE  2FC8               	goto	l3505
  5055  0FBF  2F8A               	goto	l3487
  5056  0FC0                     l3503:	
  5057  0FC0  0848               	movf	format_number@padchar,w
  5058  0FC1  00F5               	movwf	output_putch@c
  5059  0FC2  087A               	movf	_putchar_ptr,w
  5060  0FC3  120A  118A  2100  120A  158A  	fcall	fptable
  5061  0FC8                     l3505:	
  5062  0FC8  1283               	bcf	3,5	;RP0=0, select bank0
  5063  0FC9  1303               	bcf	3,6	;RP1=0, select bank0
  5064  0FCA  084C               	movf	format_number@i,w
  5065  0FCB  3A80               	xorlw	128
  5066  0FCC  00A7               	movwf	??_format_number
  5067  0FCD  0826               	movf	format_number@pad,w
  5068  0FCE  03A6               	decf	format_number@pad,f
  5069  0FCF  3A80               	xorlw	128
  5070  0FD0  02A7               	subwf	??_format_number,f
  5071  0FD1  1C03               	skipc
  5072  0FD2  2FC0               	goto	l3503
  5073  0FD3                     l3507:	
  5074                           
  5075                           ;format.c: 42: for(; i > 0; i--) putchar_ptr((char)buf[(signed short int)i - 1]);
  5076  0FD3  084C               	movf	format_number@i,w
  5077  0FD4  3A80               	xorlw	128
  5078  0FD5  3E7F               	addlw	-129
  5079  0FD6  1C03               	btfss	3,0
  5080  0FD7  0008               	return
  5081  0FD8  084C               	movf	format_number@i,w
  5082  0FD9  3EFF               	addlw	255
  5083  0FDA  3E28               	addlw	(low (format_number@buf| 0))& (0+255)
  5084  0FDB  0084               	movwf	4
  5085  0FDC  1383               	bcf	3,7	;select IRP bank0
  5086  0FDD  0800               	movf	0,w
  5087  0FDE  00F5               	movwf	output_putch@c
  5088  0FDF  087A               	movf	_putchar_ptr,w
  5089  0FE0  120A  118A  2100  120A  158A  	fcall	fptable
  5090  0FE5  1283               	bcf	3,5	;RP0=0, select bank0
  5091  0FE6  1303               	bcf	3,6	;RP1=0, select bank0
  5092  0FE7  03CC               	decf	format_number@i,f
  5093  0FE8  2FD3               	goto	l3507
  5094  0FE9                     __end_of_format_number:	
  5095  0FE9                     __ptext39:	
  5096 ;; *************** function ___lwtofl *****************
  5097 ;; Defined at:
  5098 ;;		line 28 in file "C:\Program Files (x86)\Microchip\xc8\v1.34\sources\common\lwtofl.c"
  5099 ;; Parameters:    Size  Location     Type
  5100 ;;  c               2    8[BANK0 ] unsigned int 
  5101 ;; Auto vars:     Size  Location     Type
  5102 ;;		None
  5103 ;; Return value:  Size  Location     Type
  5104 ;;                  4    8[BANK0 ] unsigned int 
  5105 ;; Registers used:
  5106 ;;		wreg, status,2, status,0, pclath, cstack
  5107 ;; Tracked objects:
  5108 ;;		On entry : 300/0
  5109 ;;		On exit  : 300/0
  5110 ;;		Unchanged: 0/0
  5111 ;; Data sizes:     COMMON   BANK0   BANK1   BANK3   BANK2
  5112 ;;      Params:         0       4       0       0       0
  5113 ;;      Locals:         0       0       0       0       0
  5114 ;;      Temps:          0       0       0       0       0
  5115 ;;      Totals:         0       4       0       0       0
  5116 ;;Total ram usage:        4 bytes
  5117 ;; Hardware stack levels used:    1
  5118 ;; Hardware stack levels required when called:    2
  5119 ;; This function calls:
  5120 ;;		___flpack
  5121 ;; This function is called by:
  5122 ;;		_calibrate
  5123 ;;		_measure_capacitance
  5124 ;;		_measure_inductance
  5125 ;; This function uses a non-reentrant model
  5126 ;;
  5127                           
  5128                           
  5129                           ;psect for function ___lwtofl
  5130  0FE9                     ___lwtofl:	
  5131                           
  5132                           ;incstack = 0
  5133                           ; Regs used in ___lwtofl: [wreg+status,2+status,0+pclath+cstack]
  5134  0FE9  0828               	movf	___lwtofl@c,w
  5135  0FEA  00A0               	movwf	___flpack@arg
  5136  0FEB  0829               	movf	___lwtofl@c+1,w
  5137  0FEC  00A1               	movwf	___flpack@arg+1
  5138  0FED  3096               	movlw	150
  5139  0FEE  01A2               	clrf	___flpack@arg+2
  5140  0FEF  01A3               	clrf	___flpack@arg+3
  5141  0FF0  00A4               	movwf	___flpack@exp
  5142  0FF1  01A5               	clrf	___flpack@sign
  5143  0FF2  160A  118A  2756   	fcall	___flpack
  5144  0FF5  0823               	movf	?___flpack+3,w
  5145  0FF6  00AB               	movwf	?___lwtofl+3
  5146  0FF7  0822               	movf	?___flpack+2,w
  5147  0FF8  00AA               	movwf	?___lwtofl+2
  5148  0FF9  0821               	movf	?___flpack+1,w
  5149  0FFA  00A9               	movwf	?___lwtofl+1
  5150  0FFB  0820               	movf	?___flpack,w
  5151  0FFC  00A8               	movwf	?___lwtofl
  5152  0FFD  0008               	return
  5153  0FFE                     __end_of___lwtofl:	
  5154  0FFE                     __ptext6:	
  5155 ;; *************** function _print_reading *****************
  5156 ;; Defined at:
  5157 ;;		line 429 in file "../../../src/print.c"
  5158 ;; Parameters:    Size  Location     Type
  5159 ;;  measurement     2    3[COMMON] unsigned short 
  5160 ;; Auto vars:     Size  Location     Type
  5161 ;;		None
  5162 ;; Return value:  Size  Location     Type
  5163 ;;		None               void
  5164 ;; Registers used:
  5165 ;;		None
  5166 ;; Tracked objects:
  5167 ;;		On entry : 100/100
  5168 ;;		On exit  : 100/100
  5169 ;;		Unchanged: 100/0
  5170 ;; Data sizes:     COMMON   BANK0   BANK1   BANK3   BANK2
  5171 ;;      Params:         2       0       0       0       0
  5172 ;;      Locals:         0       0       0       0       0
  5173 ;;      Temps:          0       0       0       0       0
  5174 ;;      Totals:         2       0       0       0       0
  5175 ;;Total ram usage:        2 bytes
  5176 ;; Hardware stack levels used:    1
  5177 ;; Hardware stack levels required when called:    1
  5178 ;; This function calls:
  5179 ;;		Nothing
  5180 ;; This function is called by:
  5181 ;;		_measure_capacitance
  5182 ;;		_measure_inductance
  5183 ;; This function uses a non-reentrant model
  5184 ;;
  5185                           
  5186                           
  5187                           ;psect for function _print_reading
  5188  0FFE                     _print_reading:	
  5189                           
  5190                           ;incstack = 0
  5191                           ; Regs used in _print_reading: []
  5192  0FFE  0008               	return
  5193  0FFF                     __end_of_print_reading:	
  5194  0FFF                     __ptext5:	
  5195 ;; *************** function _print_unit *****************
  5196 ;; Defined at:
  5197 ;;		line 408 in file "../../../src/print.c"
  5198 ;; Parameters:    Size  Location     Type
  5199 ;;  unit            1    wreg     unsigned char 
  5200 ;; Auto vars:     Size  Location     Type
  5201 ;;  unit            1    0[COMMON] unsigned char 
  5202 ;; Return value:  Size  Location     Type
  5203 ;;		None               void
  5204 ;; Registers used:
  5205 ;;		wreg
  5206 ;; Tracked objects:
  5207 ;;		On entry : 100/100
  5208 ;;		On exit  : 100/100
  5209 ;;		Unchanged: 100/0
  5210 ;; Data sizes:     COMMON   BANK0   BANK1   BANK3   BANK2
  5211 ;;      Params:         0       0       0       0       0
  5212 ;;      Locals:         0       0       0       0       0
  5213 ;;      Temps:          0       0       0       0       0
  5214 ;;      Totals:         0       0       0       0       0
  5215 ;;Total ram usage:        0 bytes
  5216 ;; Hardware stack levels used:    1
  5217 ;; Hardware stack levels required when called:    1
  5218 ;; This function calls:
  5219 ;;		Nothing
  5220 ;; This function is called by:
  5221 ;;		_measure_capacitance
  5222 ;;		_measure_inductance
  5223 ;; This function uses a non-reentrant model
  5224 ;;
  5225                           
  5226                           
  5227                           ;psect for function _print_unit
  5228  0FFF                     _print_unit:	
  5229  0FFF                     l20:	
  5230                           ;incstack = 0
  5231                           ; Regs used in _print_unit: [wreg]
  5232                           
  5233  0FFF  0008               	return
  5234  1000                     __end_of_print_unit:	
  5235                           
  5236                           	psect	text25
  5237  010F                     __ptext25:	
  5238 ;; *************** function _log10 *****************
  5239 ;; Defined at:
  5240 ;;		line 39 in file "C:\Program Files (x86)\Microchip\xc8\v1.34\sources\common\log.c"
  5241 ;; Parameters:    Size  Location     Type
  5242 ;;  x               4    2[BANK1 ] unsigned char 
  5243 ;; Auto vars:     Size  Location     Type
  5244 ;;		None
  5245 ;; Return value:  Size  Location     Type
  5246 ;;                  4    2[BANK1 ] unsigned char 
  5247 ;; Registers used:
  5248 ;;		wreg, fsr0l, fsr0h, status,2, status,0, btemp+1, pclath, cstack
  5249 ;; Tracked objects:
  5250 ;;		On entry : 300/100
  5251 ;;		On exit  : 300/100
  5252 ;;		Unchanged: 0/0
  5253 ;; Data sizes:     COMMON   BANK0   BANK1   BANK3   BANK2
  5254 ;;      Params:         0       0       4       0       0
  5255 ;;      Locals:         0       0       4       0       0
  5256 ;;      Temps:          0       0       0       0       0
  5257 ;;      Totals:         0       0       8       0       0
  5258 ;;Total ram usage:        8 bytes
  5259 ;; Hardware stack levels used:    1
  5260 ;; Hardware stack levels required when called:    5
  5261 ;; This function calls:
  5262 ;;		___flmul
  5263 ;;		_log
  5264 ;; This function is called by:
  5265 ;;		_format_double
  5266 ;; This function uses a non-reentrant model
  5267 ;;
  5268                           
  5269                           
  5270                           ;psect for function _log10
  5271  010F                     _log10:	
  5272                           
  5273                           ;incstack = 0
  5274                           ; Regs used in _log10: [wreg-fsr0h+status,2+status,0+btemp+1+pclath+cstack]
  5275  010F  0825               	movf	(log10@x+3)^(0+128),w
  5276  0110  1283               	bcf	3,5	;RP0=0, select bank0
  5277  0111  00EE               	movwf	log@x+3
  5278  0112  1683               	bsf	3,5	;RP0=1, select bank1
  5279  0113  0824               	movf	(log10@x+2)^(0+128),w
  5280  0114  1283               	bcf	3,5	;RP0=0, select bank0
  5281  0115  00ED               	movwf	log@x+2
  5282  0116  1683               	bsf	3,5	;RP0=1, select bank1
  5283  0117  0823               	movf	(log10@x+1)^(0+128),w
  5284  0118  1283               	bcf	3,5	;RP0=0, select bank0
  5285  0119  00EC               	movwf	log@x+1
  5286  011A  1683               	bsf	3,5	;RP0=1, select bank1
  5287  011B  0822               	movf	log10@x^(0+128),w
  5288  011C  1283               	bcf	3,5	;RP0=0, select bank0
  5289  011D  00EB               	movwf	log@x
  5290  011E  23A8               	fcall	_log
  5291  011F  086E               	movf	?_log+3,w
  5292  0120  1683               	bsf	3,5	;RP0=1, select bank1
  5293  0121  00A9               	movwf	(_log10$817+3)^(0+128)
  5294  0122  1283               	bcf	3,5	;RP0=0, select bank0
  5295  0123  086D               	movf	?_log+2,w
  5296  0124  1683               	bsf	3,5	;RP0=1, select bank1
  5297  0125  00A8               	movwf	(_log10$817+2)^(0+128)
  5298  0126  1283               	bcf	3,5	;RP0=0, select bank0
  5299  0127  086C               	movf	?_log+1,w
  5300  0128  1683               	bsf	3,5	;RP0=1, select bank1
  5301  0129  00A7               	movwf	(_log10$817+1)^(0+128)
  5302  012A  1283               	bcf	3,5	;RP0=0, select bank0
  5303  012B  086B               	movf	?_log,w
  5304  012C  1683               	bsf	3,5	;RP0=1, select bank1
  5305  012D  00A6               	movwf	_log10$817^(0+128)
  5306  012E  303E               	movlw	62
  5307  012F  1283               	bcf	3,5	;RP0=0, select bank0
  5308  0130  00BC               	movwf	___flmul@f1+3
  5309  0131  30DE               	movlw	222
  5310  0132  00BB               	movwf	___flmul@f1+2
  5311  0133  305B               	movlw	91
  5312  0134  00BA               	movwf	___flmul@f1+1
  5313  0135  30D9               	movlw	217
  5314  0136  00B9               	movwf	___flmul@f1
  5315  0137  1683               	bsf	3,5	;RP0=1, select bank1
  5316  0138  0829               	movf	(_log10$817+3)^(0+128),w
  5317  0139  1283               	bcf	3,5	;RP0=0, select bank0
  5318  013A  00C0               	movwf	___flmul@f2+3
  5319  013B  1683               	bsf	3,5	;RP0=1, select bank1
  5320  013C  0828               	movf	(_log10$817+2)^(0+128),w
  5321  013D  1283               	bcf	3,5	;RP0=0, select bank0
  5322  013E  00BF               	movwf	___flmul@f2+2
  5323  013F  1683               	bsf	3,5	;RP0=1, select bank1
  5324  0140  0827               	movf	(_log10$817+1)^(0+128),w
  5325  0141  1283               	bcf	3,5	;RP0=0, select bank0
  5326  0142  00BE               	movwf	___flmul@f2+1
  5327  0143  1683               	bsf	3,5	;RP0=1, select bank1
  5328  0144  0826               	movf	_log10$817^(0+128),w
  5329  0145  1283               	bcf	3,5	;RP0=0, select bank0
  5330  0146  00BD               	movwf	___flmul@f2
  5331  0147  160A  118A  2674   	fcall	___flmul
  5332  014A  083C               	movf	?___flmul+3,w
  5333  014B  1683               	bsf	3,5	;RP0=1, select bank1
  5334  014C  00A5               	movwf	(?_log10+3)^(0+128)
  5335  014D  1283               	bcf	3,5	;RP0=0, select bank0
  5336  014E  083B               	movf	?___flmul+2,w
  5337  014F  1683               	bsf	3,5	;RP0=1, select bank1
  5338  0150  00A4               	movwf	(?_log10+2)^(0+128)
  5339  0151  1283               	bcf	3,5	;RP0=0, select bank0
  5340  0152  083A               	movf	?___flmul+1,w
  5341  0153  1683               	bsf	3,5	;RP0=1, select bank1
  5342  0154  00A3               	movwf	(?_log10+1)^(0+128)
  5343  0155  1283               	bcf	3,5	;RP0=0, select bank0
  5344  0156  0839               	movf	?___flmul,w
  5345  0157  1683               	bsf	3,5	;RP0=1, select bank1
  5346  0158  00A2               	movwf	?_log10^(0+128)
  5347  0159  0008               	return
  5348  015A                     __end_of_log10:	
  5349  015A                     __ptext13:	
  5350 ;; *************** function _exp *****************
  5351 ;; Defined at:
  5352 ;;		line 12 in file "C:\Program Files (x86)\Microchip\xc8\v1.34\sources\common\exp.c"
  5353 ;; Parameters:    Size  Location     Type
  5354 ;;  x               4   34[BANK1 ] unsigned char 
  5355 ;; Auto vars:     Size  Location     Type
  5356 ;;  exponent        2   46[BANK1 ] int 
  5357 ;;  sign            1   48[BANK1 ] unsigned char 
  5358 ;; Return value:  Size  Location     Type
  5359 ;;                  4   34[BANK1 ] unsigned char 
  5360 ;; Registers used:
  5361 ;;		wreg, fsr0l, fsr0h, status,2, status,0, btemp+1, pclath, cstack
  5362 ;; Tracked objects:
  5363 ;;		On entry : 300/100
  5364 ;;		On exit  : 300/100
  5365 ;;		Unchanged: 0/0
  5366 ;; Data sizes:     COMMON   BANK0   BANK1   BANK3   BANK2
  5367 ;;      Params:         0       0       4       0       0
  5368 ;;      Locals:         0       0      11       0       0
  5369 ;;      Temps:          0       0       0       0       0
  5370 ;;      Totals:         0       0      15       0       0
  5371 ;;Total ram usage:       15 bytes
  5372 ;; Hardware stack levels used:    1
  5373 ;; Hardware stack levels required when called:    4
  5374 ;; This function calls:
  5375 ;;		___awtofl
  5376 ;;		___fldiv
  5377 ;;		___flge
  5378 ;;		___flmul
  5379 ;;		___flneg
  5380 ;;		___flsub
  5381 ;;		___fltol
  5382 ;;		_eval_poly
  5383 ;;		_floor
  5384 ;;		_ldexp
  5385 ;; This function is called by:
  5386 ;;		_pow
  5387 ;; This function uses a non-reentrant model
  5388 ;;
  5389                           
  5390                           
  5391                           ;psect for function _exp
  5392  015A                     _exp:	
  5393                           
  5394                           ;incstack = 0
  5395                           ; Regs used in _exp: [wreg-fsr0h+status,2+status,0+btemp+1+pclath+cstack]
  5396  015A  0845               	movf	(exp@x+3)^(0+128),w
  5397  015B  0444               	iorwf	(exp@x+2)^(0+128),w
  5398  015C  0443               	iorwf	(exp@x+1)^(0+128),w
  5399  015D  0442               	iorwf	exp@x^(0+128),w
  5400  015E  1D03               	skipz
  5401  015F  2968               	goto	l3433
  5402  0160  303F               	movlw	63
  5403  0161  00C5               	movwf	(?_exp+3)^(0+128)
  5404  0162  3080               	movlw	128
  5405  0163  00C4               	movwf	(?_exp+2)^(0+128)
  5406  0164  3000               	movlw	0
  5407  0165  01C3               	clrf	(?_exp+1)^(0+128)
  5408  0166  01C2               	clrf	?_exp^(0+128)
  5409  0167  0008               	return
  5410  0168                     l3433:	
  5411  0168  3044               	movlw	68
  5412  0169  1283               	bcf	3,5	;RP0=0, select bank0
  5413  016A  00A3               	movwf	___flge@ff1+3
  5414  016B  3031               	movlw	49
  5415  016C  00A2               	movwf	___flge@ff1+2
  5416  016D  3072               	movlw	114
  5417  016E  00A1               	movwf	___flge@ff1+1
  5418  016F  3018               	movlw	24
  5419  0170  00A0               	movwf	___flge@ff1
  5420  0171  1683               	bsf	3,5	;RP0=1, select bank1
  5421  0172  0845               	movf	(exp@x+3)^(0+128),w
  5422  0173  1283               	bcf	3,5	;RP0=0, select bank0
  5423  0174  00A7               	movwf	___flge@ff2+3
  5424  0175  1683               	bsf	3,5	;RP0=1, select bank1
  5425  0176  0844               	movf	(exp@x+2)^(0+128),w
  5426  0177  1283               	bcf	3,5	;RP0=0, select bank0
  5427  0178  00A6               	movwf	___flge@ff2+2
  5428  0179  1683               	bsf	3,5	;RP0=1, select bank1
  5429  017A  0843               	movf	(exp@x+1)^(0+128),w
  5430  017B  1283               	bcf	3,5	;RP0=0, select bank0
  5431  017C  00A5               	movwf	___flge@ff2+1
  5432  017D  1683               	bsf	3,5	;RP0=1, select bank1
  5433  017E  0842               	movf	exp@x^(0+128),w
  5434  017F  1283               	bcf	3,5	;RP0=0, select bank0
  5435  0180  00A4               	movwf	___flge@ff2
  5436  0181  160A  118A  270A  120A  118A  	fcall	___flge
  5437  0186  1803               	btfsc	3,0
  5438  0187  2991               	goto	l3443
  5439  0188  307F               	movlw	127
  5440  0189  1683               	bsf	3,5	;RP0=1, select bank1
  5441  018A  00C5               	movwf	(?_exp+3)^(0+128)
  5442  018B  00C4               	movwf	(?_exp+2)^(0+128)
  5443  018C  30FE               	movlw	254
  5444  018D  00C3               	movwf	(?_exp+1)^(0+128)
  5445  018E  30F7               	movlw	247
  5446  018F  00C2               	movwf	?_exp^(0+128)
  5447  0190  0008               	return
  5448  0191                     l3443:	
  5449  0191  1683               	bsf	3,5	;RP0=1, select bank1
  5450  0192  0845               	movf	(exp@x+3)^(0+128),w
  5451  0193  1283               	bcf	3,5	;RP0=0, select bank0
  5452  0194  00A3               	movwf	___flge@ff1+3
  5453  0195  1683               	bsf	3,5	;RP0=1, select bank1
  5454  0196  0844               	movf	(exp@x+2)^(0+128),w
  5455  0197  1283               	bcf	3,5	;RP0=0, select bank0
  5456  0198  00A2               	movwf	___flge@ff1+2
  5457  0199  1683               	bsf	3,5	;RP0=1, select bank1
  5458  019A  0843               	movf	(exp@x+1)^(0+128),w
  5459  019B  1283               	bcf	3,5	;RP0=0, select bank0
  5460  019C  00A1               	movwf	___flge@ff1+1
  5461  019D  1683               	bsf	3,5	;RP0=1, select bank1
  5462  019E  0842               	movf	exp@x^(0+128),w
  5463  019F  1283               	bcf	3,5	;RP0=0, select bank0
  5464  01A0  00A0               	movwf	___flge@ff1
  5465  01A1  30C4               	movlw	196
  5466  01A2  00A7               	movwf	___flge@ff2+3
  5467  01A3  303A               	movlw	58
  5468  01A4  00A6               	movwf	___flge@ff2+2
  5469  01A5  3048               	movlw	72
  5470  01A6  00A5               	movwf	___flge@ff2+1
  5471  01A7  3087               	movlw	135
  5472  01A8  00A4               	movwf	___flge@ff2
  5473  01A9  160A  118A  270A  120A  118A  	fcall	___flge
  5474  01AE  1803               	btfsc	3,0
  5475  01AF  29B6               	goto	l3447
  5476  01B0  1683               	bsf	3,5	;RP0=1, select bank1
  5477  01B1  01C2               	clrf	?_exp^(0+128)
  5478  01B2  01C3               	clrf	(?_exp+1)^(0+128)
  5479  01B3  01C4               	clrf	(?_exp+2)^(0+128)
  5480  01B4  01C5               	clrf	(?_exp+3)^(0+128)
  5481  01B5  0008               	return
  5482  01B6                     l3447:	
  5483  01B6  1683               	bsf	3,5	;RP0=1, select bank1
  5484  01B7  0845               	movf	(exp@x+3)^(0+128),w
  5485  01B8  1283               	bcf	3,5	;RP0=0, select bank0
  5486  01B9  00A3               	movwf	___flge@ff1+3
  5487  01BA  1683               	bsf	3,5	;RP0=1, select bank1
  5488  01BB  0844               	movf	(exp@x+2)^(0+128),w
  5489  01BC  1283               	bcf	3,5	;RP0=0, select bank0
  5490  01BD  00A2               	movwf	___flge@ff1+2
  5491  01BE  1683               	bsf	3,5	;RP0=1, select bank1
  5492  01BF  0843               	movf	(exp@x+1)^(0+128),w
  5493  01C0  1283               	bcf	3,5	;RP0=0, select bank0
  5494  01C1  00A1               	movwf	___flge@ff1+1
  5495  01C2  1683               	bsf	3,5	;RP0=1, select bank1
  5496  01C3  0842               	movf	exp@x^(0+128),w
  5497  01C4  1283               	bcf	3,5	;RP0=0, select bank0
  5498  01C5  00A0               	movwf	___flge@ff1
  5499  01C6  01A4               	clrf	___flge@ff2
  5500  01C7  01A5               	clrf	___flge@ff2+1
  5501  01C8  01A6               	clrf	___flge@ff2+2
  5502  01C9  01A7               	clrf	___flge@ff2+3
  5503  01CA  160A  118A  270A  120A  118A  	fcall	___flge
  5504  01CF  1803               	btfsc	3,0
  5505  01D0  29D3               	goto	u3400
  5506  01D1  3001               	movlw	1
  5507  01D2  29D4               	goto	u3410
  5508  01D3                     u3400:	
  5509  01D3  3000               	movlw	0
  5510  01D4                     u3410:	
  5511  01D4  1683               	bsf	3,5	;RP0=1, select bank1
  5512  01D5  00D0               	movwf	exp@sign^(0+128)
  5513  01D6  0850               	movf	exp@sign^(0+128),w
  5514  01D7  1903               	btfsc	3,2
  5515  01D8  29EA               	goto	l3453
  5516  01D9  0845               	movf	(exp@x+3)^(0+128),w
  5517  01DA  00F6               	movwf	___flneg@f1+3
  5518  01DB  0844               	movf	(exp@x+2)^(0+128),w
  5519  01DC  00F5               	movwf	___flneg@f1+2
  5520  01DD  0843               	movf	(exp@x+1)^(0+128),w
  5521  01DE  00F4               	movwf	___flneg@f1+1
  5522  01DF  0842               	movf	exp@x^(0+128),w
  5523  01E0  00F3               	movwf	___flneg@f1
  5524  01E1  24DB               	fcall	___flneg
  5525  01E2  0876               	movf	?___flneg+3,w
  5526  01E3  00C5               	movwf	(exp@x+3)^(0+128)
  5527  01E4  0875               	movf	?___flneg+2,w
  5528  01E5  00C4               	movwf	(exp@x+2)^(0+128)
  5529  01E6  0874               	movf	?___flneg+1,w
  5530  01E7  00C3               	movwf	(exp@x+1)^(0+128)
  5531  01E8  0873               	movf	?___flneg,w
  5532  01E9  00C2               	movwf	exp@x^(0+128)
  5533  01EA                     l3453:	
  5534  01EA  303F               	movlw	63
  5535  01EB  1283               	bcf	3,5	;RP0=0, select bank0
  5536  01EC  00BC               	movwf	___flmul@f1+3
  5537  01ED  30B8               	movlw	184
  5538  01EE  00BB               	movwf	___flmul@f1+2
  5539  01EF  30AA               	movlw	170
  5540  01F0  00BA               	movwf	___flmul@f1+1
  5541  01F1  303B               	movlw	59
  5542  01F2  00B9               	movwf	___flmul@f1
  5543  01F3  1683               	bsf	3,5	;RP0=1, select bank1
  5544  01F4  0845               	movf	(exp@x+3)^(0+128),w
  5545  01F5  1283               	bcf	3,5	;RP0=0, select bank0
  5546  01F6  00C0               	movwf	___flmul@f2+3
  5547  01F7  1683               	bsf	3,5	;RP0=1, select bank1
  5548  01F8  0844               	movf	(exp@x+2)^(0+128),w
  5549  01F9  1283               	bcf	3,5	;RP0=0, select bank0
  5550  01FA  00BF               	movwf	___flmul@f2+2
  5551  01FB  1683               	bsf	3,5	;RP0=1, select bank1
  5552  01FC  0843               	movf	(exp@x+1)^(0+128),w
  5553  01FD  1283               	bcf	3,5	;RP0=0, select bank0
  5554  01FE  00BE               	movwf	___flmul@f2+1
  5555  01FF  1683               	bsf	3,5	;RP0=1, select bank1
  5556  0200  0842               	movf	exp@x^(0+128),w
  5557  0201  1283               	bcf	3,5	;RP0=0, select bank0
  5558  0202  00BD               	movwf	___flmul@f2
  5559  0203  160A  118A  2674  120A  118A  	fcall	___flmul
  5560  0208  083C               	movf	?___flmul+3,w
  5561  0209  1683               	bsf	3,5	;RP0=1, select bank1
  5562  020A  00C5               	movwf	(exp@x+3)^(0+128)
  5563  020B  1283               	bcf	3,5	;RP0=0, select bank0
  5564  020C  083B               	movf	?___flmul+2,w
  5565  020D  1683               	bsf	3,5	;RP0=1, select bank1
  5566  020E  00C4               	movwf	(exp@x+2)^(0+128)
  5567  020F  1283               	bcf	3,5	;RP0=0, select bank0
  5568  0210  083A               	movf	?___flmul+1,w
  5569  0211  1683               	bsf	3,5	;RP0=1, select bank1
  5570  0212  00C3               	movwf	(exp@x+1)^(0+128)
  5571  0213  1283               	bcf	3,5	;RP0=0, select bank0
  5572  0214  0839               	movf	?___flmul,w
  5573  0215  1683               	bsf	3,5	;RP0=1, select bank1
  5574  0216  00C2               	movwf	exp@x^(0+128)
  5575  0217  0845               	movf	(exp@x+3)^(0+128),w
  5576  0218  00BB               	movwf	(floor@x+3)^(0+128)
  5577  0219  0844               	movf	(exp@x+2)^(0+128),w
  5578  021A  00BA               	movwf	(floor@x+2)^(0+128)
  5579  021B  0843               	movf	(exp@x+1)^(0+128),w
  5580  021C  00B9               	movwf	(floor@x+1)^(0+128)
  5581  021D  0842               	movf	exp@x^(0+128),w
  5582  021E  00B8               	movwf	floor@x^(0+128)
  5583  021F  22F1               	fcall	_floor
  5584  0220  083B               	movf	(?_floor+3)^(0+128),w
  5585  0221  00C9               	movwf	(_exp$820+3)^(0+128)
  5586  0222  083A               	movf	(?_floor+2)^(0+128),w
  5587  0223  00C8               	movwf	(_exp$820+2)^(0+128)
  5588  0224  0839               	movf	(?_floor+1)^(0+128),w
  5589  0225  00C7               	movwf	(_exp$820+1)^(0+128)
  5590  0226  0838               	movf	?_floor^(0+128),w
  5591  0227  00C6               	movwf	_exp$820^(0+128)
  5592  0228  0849               	movf	(_exp$820+3)^(0+128),w
  5593  0229  00AD               	movwf	(___fltol@f1+3)^(0+128)
  5594  022A  0848               	movf	(_exp$820+2)^(0+128),w
  5595  022B  00AC               	movwf	(___fltol@f1+2)^(0+128)
  5596  022C  0847               	movf	(_exp$820+1)^(0+128),w
  5597  022D  00AB               	movwf	(___fltol@f1+1)^(0+128)
  5598  022E  0846               	movf	_exp$820^(0+128),w
  5599  022F  00AA               	movwf	___fltol@f1^(0+128)
  5600  0230  120A  158A  26E7  120A  118A  	fcall	___fltol
  5601  0235  082B               	movf	(?___fltol^(0+128)+1),w
  5602  0236  00CF               	movwf	(exp@exponent+1)^(0+128)
  5603  0237  082A               	movf	?___fltol^(0+128),w
  5604  0238  00CE               	movwf	exp@exponent^(0+128)
  5605  0239  084F               	movf	(exp@exponent+1)^(0+128),w
  5606  023A  1283               	bcf	3,5	;RP0=0, select bank0
  5607  023B  00A7               	movwf	___awtofl@c+1
  5608  023C  1683               	bsf	3,5	;RP0=1, select bank1
  5609  023D  084E               	movf	exp@exponent^(0+128),w
  5610  023E  1283               	bcf	3,5	;RP0=0, select bank0
  5611  023F  00A6               	movwf	___awtofl@c
  5612  0240  120A  158A  273E  120A  118A  	fcall	___awtofl
  5613  0245  0829               	movf	?___awtofl+3,w
  5614  0246  00DE               	movwf	___flsub@f2+3
  5615  0247  0828               	movf	?___awtofl+2,w
  5616  0248  00DD               	movwf	___flsub@f2+2
  5617  0249  0827               	movf	?___awtofl+1,w
  5618  024A  00DC               	movwf	___flsub@f2+1
  5619  024B  0826               	movf	?___awtofl,w
  5620  024C  00DB               	movwf	___flsub@f2
  5621  024D  1683               	bsf	3,5	;RP0=1, select bank1
  5622  024E  0845               	movf	(exp@x+3)^(0+128),w
  5623  024F  1283               	bcf	3,5	;RP0=0, select bank0
  5624  0250  00E2               	movwf	___flsub@f1+3
  5625  0251  1683               	bsf	3,5	;RP0=1, select bank1
  5626  0252  0844               	movf	(exp@x+2)^(0+128),w
  5627  0253  1283               	bcf	3,5	;RP0=0, select bank0
  5628  0254  00E1               	movwf	___flsub@f1+2
  5629  0255  1683               	bsf	3,5	;RP0=1, select bank1
  5630  0256  0843               	movf	(exp@x+1)^(0+128),w
  5631  0257  1283               	bcf	3,5	;RP0=0, select bank0
  5632  0258  00E0               	movwf	___flsub@f1+1
  5633  0259  1683               	bsf	3,5	;RP0=1, select bank1
  5634  025A  0842               	movf	exp@x^(0+128),w
  5635  025B  1283               	bcf	3,5	;RP0=0, select bank0
  5636  025C  00DF               	movwf	___flsub@f1
  5637  025D  120A  158A  275D  120A  118A  	fcall	___flsub
  5638  0262  085E               	movf	?___flsub+3,w
  5639  0263  1683               	bsf	3,5	;RP0=1, select bank1
  5640  0264  00C5               	movwf	(exp@x+3)^(0+128)
  5641  0265  1283               	bcf	3,5	;RP0=0, select bank0
  5642  0266  085D               	movf	?___flsub+2,w
  5643  0267  1683               	bsf	3,5	;RP0=1, select bank1
  5644  0268  00C4               	movwf	(exp@x+2)^(0+128)
  5645  0269  1283               	bcf	3,5	;RP0=0, select bank0
  5646  026A  085C               	movf	?___flsub+1,w
  5647  026B  1683               	bsf	3,5	;RP0=1, select bank1
  5648  026C  00C3               	movwf	(exp@x+1)^(0+128)
  5649  026D  1283               	bcf	3,5	;RP0=0, select bank0
  5650  026E  085B               	movf	?___flsub,w
  5651  026F  1683               	bsf	3,5	;RP0=1, select bank1
  5652  0270  00C2               	movwf	exp@x^(0+128)
  5653  0271  0845               	movf	(exp@x+3)^(0+128),w
  5654  0272  1283               	bcf	3,5	;RP0=0, select bank0
  5655  0273  00DE               	movwf	eval_poly@x+3
  5656  0274  1683               	bsf	3,5	;RP0=1, select bank1
  5657  0275  0844               	movf	(exp@x+2)^(0+128),w
  5658  0276  1283               	bcf	3,5	;RP0=0, select bank0
  5659  0277  00DD               	movwf	eval_poly@x+2
  5660  0278  1683               	bsf	3,5	;RP0=1, select bank1
  5661  0279  0843               	movf	(exp@x+1)^(0+128),w
  5662  027A  1283               	bcf	3,5	;RP0=0, select bank0
  5663  027B  00DC               	movwf	eval_poly@x+1
  5664  027C  1683               	bsf	3,5	;RP0=1, select bank1
  5665  027D  0842               	movf	exp@x^(0+128),w
  5666  027E  1283               	bcf	3,5	;RP0=0, select bank0
  5667  027F  00DB               	movwf	eval_poly@x
  5668  0280  3001               	movlw	(low ((exp@coeff-__stringbase)| (0+32768)))& (0+255)
  5669  0281  00DF               	movwf	eval_poly@d
  5670  0282  3009               	movlw	9
  5671  0283  00E0               	movwf	eval_poly@n
  5672  0284  01E1               	clrf	eval_poly@n+1
  5673  0285  160A  118A  202C  120A  118A  	fcall	_eval_poly
  5674  028A  085E               	movf	?_eval_poly+3,w
  5675  028B  1683               	bsf	3,5	;RP0=1, select bank1
  5676  028C  00A3               	movwf	(ldexp@value+3)^(0+128)
  5677  028D  1283               	bcf	3,5	;RP0=0, select bank0
  5678  028E  085D               	movf	?_eval_poly+2,w
  5679  028F  1683               	bsf	3,5	;RP0=1, select bank1
  5680  0290  00A2               	movwf	(ldexp@value+2)^(0+128)
  5681  0291  1283               	bcf	3,5	;RP0=0, select bank0
  5682  0292  085C               	movf	?_eval_poly+1,w
  5683  0293  1683               	bsf	3,5	;RP0=1, select bank1
  5684  0294  00A1               	movwf	(ldexp@value+1)^(0+128)
  5685  0295  1283               	bcf	3,5	;RP0=0, select bank0
  5686  0296  085B               	movf	?_eval_poly,w
  5687  0297  1683               	bsf	3,5	;RP0=1, select bank1
  5688  0298  00A0               	movwf	ldexp@value^(0+128)
  5689  0299  084F               	movf	(exp@exponent+1)^(0+128),w
  5690  029A  00A5               	movwf	(ldexp@newexp+1)^(0+128)
  5691  029B  084E               	movf	exp@exponent^(0+128),w
  5692  029C  00A4               	movwf	ldexp@newexp^(0+128)
  5693  029D  120A  118A  2030  120A  118A  	fcall	_ldexp
  5694  02A2  0823               	movf	(?_ldexp+3)^(0+128),w
  5695  02A3  00C5               	movwf	(exp@x+3)^(0+128)
  5696  02A4  0822               	movf	(?_ldexp+2)^(0+128),w
  5697  02A5  00C4               	movwf	(exp@x+2)^(0+128)
  5698  02A6  0821               	movf	(?_ldexp+1)^(0+128),w
  5699  02A7  00C3               	movwf	(exp@x+1)^(0+128)
  5700  02A8  0820               	movf	?_ldexp^(0+128),w
  5701  02A9  00C2               	movwf	exp@x^(0+128)
  5702  02AA  0850               	movf	exp@sign^(0+128),w
  5703  02AB  1903               	btfsc	3,2
  5704  02AC  0008               	return
  5705  02AD  307F               	movlw	127
  5706  02AE  00CD               	movwf	(_exp$589+3)^(0+128)
  5707  02AF  00CC               	movwf	(_exp$589+2)^(0+128)
  5708  02B0  30FE               	movlw	254
  5709  02B1  00CB               	movwf	(_exp$589+1)^(0+128)
  5710  02B2  30F7               	movlw	247
  5711  02B3  00CA               	movwf	_exp$589^(0+128)
  5712  02B4  0845               	movf	(exp@x+3)^(0+128),w
  5713  02B5  064D               	xorwf	(_exp$589+3)^(0+128),w
  5714  02B6  1D03               	skipz
  5715  02B7  2AC2               	goto	u3445
  5716  02B8  0844               	movf	(exp@x+2)^(0+128),w
  5717  02B9  064C               	xorwf	(_exp$589+2)^(0+128),w
  5718  02BA  1D03               	skipz
  5719  02BB  2AC2               	goto	u3445
  5720  02BC  0843               	movf	(exp@x+1)^(0+128),w
  5721  02BD  064B               	xorwf	(_exp$589+1)^(0+128),w
  5722  02BE  1D03               	skipz
  5723  02BF  2AC2               	goto	u3445
  5724  02C0  0842               	movf	exp@x^(0+128),w
  5725  02C1  064A               	xorwf	_exp$589^(0+128),w
  5726  02C2                     u3445:	
  5727  02C2  1D03               	skipz
  5728  02C3  2AC9               	goto	l3473
  5729  02C4  01C2               	clrf	?_exp^(0+128)
  5730  02C5  01C3               	clrf	(?_exp+1)^(0+128)
  5731  02C6  01C4               	clrf	(?_exp+2)^(0+128)
  5732  02C7  01C5               	clrf	(?_exp+3)^(0+128)
  5733  02C8  0008               	return
  5734  02C9                     l3473:	
  5735  02C9  0845               	movf	(exp@x+3)^(0+128),w
  5736  02CA  1283               	bcf	3,5	;RP0=0, select bank0
  5737  02CB  00A9               	movwf	___fldiv@f2+3
  5738  02CC  1683               	bsf	3,5	;RP0=1, select bank1
  5739  02CD  0844               	movf	(exp@x+2)^(0+128),w
  5740  02CE  1283               	bcf	3,5	;RP0=0, select bank0
  5741  02CF  00A8               	movwf	___fldiv@f2+2
  5742  02D0  1683               	bsf	3,5	;RP0=1, select bank1
  5743  02D1  0843               	movf	(exp@x+1)^(0+128),w
  5744  02D2  1283               	bcf	3,5	;RP0=0, select bank0
  5745  02D3  00A7               	movwf	___fldiv@f2+1
  5746  02D4  1683               	bsf	3,5	;RP0=1, select bank1
  5747  02D5  0842               	movf	exp@x^(0+128),w
  5748  02D6  1283               	bcf	3,5	;RP0=0, select bank0
  5749  02D7  00A6               	movwf	___fldiv@f2
  5750  02D8  303F               	movlw	63
  5751  02D9  00AD               	movwf	___fldiv@f1+3
  5752  02DA  3080               	movlw	128
  5753  02DB  00AC               	movwf	___fldiv@f1+2
  5754  02DC  01AB               	clrf	___fldiv@f1+1
  5755  02DD  01AA               	clrf	___fldiv@f1
  5756  02DE  120A  158A  266C   	fcall	___fldiv
  5757  02E1  0829               	movf	?___fldiv+3,w
  5758  02E2  1683               	bsf	3,5	;RP0=1, select bank1
  5759  02E3  00C5               	movwf	(?_exp+3)^(0+128)
  5760  02E4  1283               	bcf	3,5	;RP0=0, select bank0
  5761  02E5  0828               	movf	?___fldiv+2,w
  5762  02E6  1683               	bsf	3,5	;RP0=1, select bank1
  5763  02E7  00C4               	movwf	(?_exp+2)^(0+128)
  5764  02E8  1283               	bcf	3,5	;RP0=0, select bank0
  5765  02E9  0827               	movf	?___fldiv+1,w
  5766  02EA  1683               	bsf	3,5	;RP0=1, select bank1
  5767  02EB  00C3               	movwf	(?_exp+1)^(0+128)
  5768  02EC  1283               	bcf	3,5	;RP0=0, select bank0
  5769  02ED  0826               	movf	?___fldiv,w
  5770  02EE  1683               	bsf	3,5	;RP0=1, select bank1
  5771  02EF  00C2               	movwf	?_exp^(0+128)
  5772  02F0  0008               	return
  5773  02F1                     __end_of_exp:	
  5774  02F1                     __ptext16:	
  5775 ;; *************** function _floor *****************
  5776 ;; Defined at:
  5777 ;;		line 13 in file "C:\Program Files (x86)\Microchip\xc8\v1.34\sources\common\floor.c"
  5778 ;; Parameters:    Size  Location     Type
  5779 ;;  x               4   24[BANK1 ] int 
  5780 ;; Auto vars:     Size  Location     Type
  5781 ;;  i               4   28[BANK1 ] int 
  5782 ;;  expon           2   32[BANK1 ] int 
  5783 ;; Return value:  Size  Location     Type
  5784 ;;                  4   24[BANK1 ] int 
  5785 ;; Registers used:
  5786 ;;		wreg, fsr0l, fsr0h, status,2, status,0, btemp+1, pclath, cstack
  5787 ;; Tracked objects:
  5788 ;;		On entry : 300/100
  5789 ;;		On exit  : 300/100
  5790 ;;		Unchanged: 0/0
  5791 ;; Data sizes:     COMMON   BANK0   BANK1   BANK3   BANK2
  5792 ;;      Params:         0       0       4       0       0
  5793 ;;      Locals:         0       0       6       0       0
  5794 ;;      Temps:          0       0       0       0       0
  5795 ;;      Totals:         0       0      10       0       0
  5796 ;;Total ram usage:       10 bytes
  5797 ;; Hardware stack levels used:    1
  5798 ;; Hardware stack levels required when called:    3
  5799 ;; This function calls:
  5800 ;;		___altofl
  5801 ;;		___fladd
  5802 ;;		___flge
  5803 ;;		___fltol
  5804 ;;		_frexp
  5805 ;; This function is called by:
  5806 ;;		_format_double
  5807 ;;		_exp
  5808 ;; This function uses a non-reentrant model
  5809 ;;
  5810                           
  5811                           
  5812                           ;psect for function _floor
  5813  02F1                     _floor:	
  5814                           
  5815                           ;incstack = 0
  5816                           ; Regs used in _floor: [wreg-fsr0h+status,2+status,0+btemp+1+pclath+cstack]
  5817  02F1  083B               	movf	(floor@x+3)^(0+128),w
  5818  02F2  00F6               	movwf	frexp@value+3
  5819  02F3  083A               	movf	(floor@x+2)^(0+128),w
  5820  02F4  00F5               	movwf	frexp@value+2
  5821  02F5  0839               	movf	(floor@x+1)^(0+128),w
  5822  02F6  00F4               	movwf	frexp@value+1
  5823  02F7  0838               	movf	floor@x^(0+128),w
  5824  02F8  00F3               	movwf	frexp@value
  5825  02F9  30C0               	movlw	(low (floor@expon| 0))& (0+255)
  5826  02FA  00F7               	movwf	frexp@eptr
  5827  02FB  2462  120A  118A   	fcall	_frexp
  5828  02FE  1683               	bsf	3,5	;RP0=1, select bank1
  5829  02FF  1FC1               	btfss	(floor@expon+1)^(0+128),7
  5830  0300  2B2A               	goto	l3257
  5831  0301  083B               	movf	(floor@x+3)^(0+128),w
  5832  0302  1283               	bcf	3,5	;RP0=0, select bank0
  5833  0303  00A3               	movwf	___flge@ff1+3
  5834  0304  1683               	bsf	3,5	;RP0=1, select bank1
  5835  0305  083A               	movf	(floor@x+2)^(0+128),w
  5836  0306  1283               	bcf	3,5	;RP0=0, select bank0
  5837  0307  00A2               	movwf	___flge@ff1+2
  5838  0308  1683               	bsf	3,5	;RP0=1, select bank1
  5839  0309  0839               	movf	(floor@x+1)^(0+128),w
  5840  030A  1283               	bcf	3,5	;RP0=0, select bank0
  5841  030B  00A1               	movwf	___flge@ff1+1
  5842  030C  1683               	bsf	3,5	;RP0=1, select bank1
  5843  030D  0838               	movf	floor@x^(0+128),w
  5844  030E  1283               	bcf	3,5	;RP0=0, select bank0
  5845  030F  00A0               	movwf	___flge@ff1
  5846  0310  01A4               	clrf	___flge@ff2
  5847  0311  01A5               	clrf	___flge@ff2+1
  5848  0312  01A6               	clrf	___flge@ff2+2
  5849  0313  01A7               	clrf	___flge@ff2+3
  5850  0314  160A  118A  270A  120A  118A  	fcall	___flge
  5851  0319  1803               	btfsc	3,0
  5852  031A  2B24               	goto	l694
  5853  031B  30BF               	movlw	191
  5854  031C  1683               	bsf	3,5	;RP0=1, select bank1
  5855  031D  00BB               	movwf	(?_floor+3)^(0+128)
  5856  031E  3080               	movlw	128
  5857  031F  00BA               	movwf	(?_floor+2)^(0+128)
  5858  0320  3000               	movlw	0
  5859  0321  01B9               	clrf	(?_floor+1)^(0+128)
  5860  0322  01B8               	clrf	?_floor^(0+128)
  5861  0323  0008               	return
  5862  0324                     l694:	
  5863  0324  1683               	bsf	3,5	;RP0=1, select bank1
  5864  0325  01B8               	clrf	?_floor^(0+128)
  5865  0326  01B9               	clrf	(?_floor+1)^(0+128)
  5866  0327  01BA               	clrf	(?_floor+2)^(0+128)
  5867  0328  01BB               	clrf	(?_floor+3)^(0+128)
  5868  0329  0008               	return
  5869  032A                     l3257:	
  5870  032A  3000               	movlw	0
  5871  032B  0241               	subwf	(floor@expon+1)^(0+128),w
  5872  032C  301D               	movlw	29
  5873  032D  1903               	skipnz
  5874  032E  0240               	subwf	floor@expon^(0+128),w
  5875  032F  1803               	btfsc	3,0
  5876  0330  0008               	return
  5877  0331  083B               	movf	(floor@x+3)^(0+128),w
  5878  0332  00AD               	movwf	(___fltol@f1+3)^(0+128)
  5879  0333  083A               	movf	(floor@x+2)^(0+128),w
  5880  0334  00AC               	movwf	(___fltol@f1+2)^(0+128)
  5881  0335  0839               	movf	(floor@x+1)^(0+128),w
  5882  0336  00AB               	movwf	(___fltol@f1+1)^(0+128)
  5883  0337  0838               	movf	floor@x^(0+128),w
  5884  0338  00AA               	movwf	___fltol@f1^(0+128)
  5885  0339  120A  158A  26E7  120A  118A  	fcall	___fltol
  5886  033E  082D               	movf	(?___fltol+3)^(0+128),w
  5887  033F  00B7               	movwf	(___altofl@c+3)^(0+128)
  5888  0340  082C               	movf	(?___fltol+2)^(0+128),w
  5889  0341  00B6               	movwf	(___altofl@c+2)^(0+128)
  5890  0342  082B               	movf	(?___fltol+1)^(0+128),w
  5891  0343  00B5               	movwf	(___altofl@c+1)^(0+128)
  5892  0344  082A               	movf	?___fltol^(0+128),w
  5893  0345  00B4               	movwf	___altofl@c^(0+128)
  5894  0346  24A1               	fcall	___altofl
  5895  0347  0837               	movf	(?___altofl+3)^(0+128),w
  5896  0348  00BF               	movwf	(floor@i+3)^(0+128)
  5897  0349  0836               	movf	(?___altofl+2)^(0+128),w
  5898  034A  00BE               	movwf	(floor@i+2)^(0+128)
  5899  034B  0835               	movf	(?___altofl+1)^(0+128),w
  5900  034C  00BD               	movwf	(floor@i+1)^(0+128)
  5901  034D  0834               	movf	?___altofl^(0+128),w
  5902  034E  00BC               	movwf	floor@i^(0+128)
  5903  034F  083B               	movf	(floor@x+3)^(0+128),w
  5904  0350  1283               	bcf	3,5	;RP0=0, select bank0
  5905  0351  00A3               	movwf	___flge@ff1+3
  5906  0352  1683               	bsf	3,5	;RP0=1, select bank1
  5907  0353  083A               	movf	(floor@x+2)^(0+128),w
  5908  0354  1283               	bcf	3,5	;RP0=0, select bank0
  5909  0355  00A2               	movwf	___flge@ff1+2
  5910  0356  1683               	bsf	3,5	;RP0=1, select bank1
  5911  0357  0839               	movf	(floor@x+1)^(0+128),w
  5912  0358  1283               	bcf	3,5	;RP0=0, select bank0
  5913  0359  00A1               	movwf	___flge@ff1+1
  5914  035A  1683               	bsf	3,5	;RP0=1, select bank1
  5915  035B  0838               	movf	floor@x^(0+128),w
  5916  035C  1283               	bcf	3,5	;RP0=0, select bank0
  5917  035D  00A0               	movwf	___flge@ff1
  5918  035E  1683               	bsf	3,5	;RP0=1, select bank1
  5919  035F  083F               	movf	(floor@i+3)^(0+128),w
  5920  0360  1283               	bcf	3,5	;RP0=0, select bank0
  5921  0361  00A7               	movwf	___flge@ff2+3
  5922  0362  1683               	bsf	3,5	;RP0=1, select bank1
  5923  0363  083E               	movf	(floor@i+2)^(0+128),w
  5924  0364  1283               	bcf	3,5	;RP0=0, select bank0
  5925  0365  00A6               	movwf	___flge@ff2+2
  5926  0366  1683               	bsf	3,5	;RP0=1, select bank1
  5927  0367  083D               	movf	(floor@i+1)^(0+128),w
  5928  0368  1283               	bcf	3,5	;RP0=0, select bank0
  5929  0369  00A5               	movwf	___flge@ff2+1
  5930  036A  1683               	bsf	3,5	;RP0=1, select bank1
  5931  036B  083C               	movf	floor@i^(0+128),w
  5932  036C  1283               	bcf	3,5	;RP0=0, select bank0
  5933  036D  00A4               	movwf	___flge@ff2
  5934  036E  160A  118A  270A  120A  118A  	fcall	___flge
  5935  0373  1803               	btfsc	3,0
  5936  0374  2B9E               	goto	l3267
  5937  0375  30BF               	movlw	191
  5938  0376  00CF               	movwf	___fladd@f1+3
  5939  0377  3080               	movlw	128
  5940  0378  00CE               	movwf	___fladd@f1+2
  5941  0379  01CD               	clrf	___fladd@f1+1
  5942  037A  01CC               	clrf	___fladd@f1
  5943  037B  1683               	bsf	3,5	;RP0=1, select bank1
  5944  037C  083F               	movf	(floor@i+3)^(0+128),w
  5945  037D  1283               	bcf	3,5	;RP0=0, select bank0
  5946  037E  00D3               	movwf	___fladd@f2+3
  5947  037F  1683               	bsf	3,5	;RP0=1, select bank1
  5948  0380  083E               	movf	(floor@i+2)^(0+128),w
  5949  0381  1283               	bcf	3,5	;RP0=0, select bank0
  5950  0382  00D2               	movwf	___fladd@f2+2
  5951  0383  1683               	bsf	3,5	;RP0=1, select bank1
  5952  0384  083D               	movf	(floor@i+1)^(0+128),w
  5953  0385  1283               	bcf	3,5	;RP0=0, select bank0
  5954  0386  00D1               	movwf	___fladd@f2+1
  5955  0387  1683               	bsf	3,5	;RP0=1, select bank1
  5956  0388  083C               	movf	floor@i^(0+128),w
  5957  0389  1283               	bcf	3,5	;RP0=0, select bank0
  5958  038A  00D0               	movwf	___fladd@f2
  5959  038B  160A  118A  20B9   	fcall	___fladd
  5960  038E  084F               	movf	?___fladd+3,w
  5961  038F  1683               	bsf	3,5	;RP0=1, select bank1
  5962  0390  00BB               	movwf	(?_floor+3)^(0+128)
  5963  0391  1283               	bcf	3,5	;RP0=0, select bank0
  5964  0392  084E               	movf	?___fladd+2,w
  5965  0393  1683               	bsf	3,5	;RP0=1, select bank1
  5966  0394  00BA               	movwf	(?_floor+2)^(0+128)
  5967  0395  1283               	bcf	3,5	;RP0=0, select bank0
  5968  0396  084D               	movf	?___fladd+1,w
  5969  0397  1683               	bsf	3,5	;RP0=1, select bank1
  5970  0398  00B9               	movwf	(?_floor+1)^(0+128)
  5971  0399  1283               	bcf	3,5	;RP0=0, select bank0
  5972  039A  084C               	movf	?___fladd,w
  5973  039B  1683               	bsf	3,5	;RP0=1, select bank1
  5974  039C  00B8               	movwf	?_floor^(0+128)
  5975  039D  0008               	return
  5976  039E                     l3267:	
  5977  039E  1683               	bsf	3,5	;RP0=1, select bank1
  5978  039F  083F               	movf	(floor@i+3)^(0+128),w
  5979  03A0  00BB               	movwf	(?_floor+3)^(0+128)
  5980  03A1  083E               	movf	(floor@i+2)^(0+128),w
  5981  03A2  00BA               	movwf	(?_floor+2)^(0+128)
  5982  03A3  083D               	movf	(floor@i+1)^(0+128),w
  5983  03A4  00B9               	movwf	(?_floor+1)^(0+128)
  5984  03A5  083C               	movf	floor@i^(0+128),w
  5985  03A6  00B8               	movwf	?_floor^(0+128)
  5986  03A7  0008               	return
  5987  03A8                     __end_of_floor:	
  5988  03A8                     __ptext26:	
  5989 ;; *************** function _log *****************
  5990 ;; Defined at:
  5991 ;;		line 5 in file "C:\Program Files (x86)\Microchip\xc8\v1.34\sources\common\log.c"
  5992 ;; Parameters:    Size  Location     Type
  5993 ;;  x               4   75[BANK0 ] unsigned char 
  5994 ;; Auto vars:     Size  Location     Type
  5995 ;;  exponent        2    0[BANK1 ] int 
  5996 ;; Return value:  Size  Location     Type
  5997 ;;                  4   75[BANK0 ] int 
  5998 ;; Registers used:
  5999 ;;		wreg, fsr0l, fsr0h, status,2, status,0, btemp+1, pclath, cstack
  6000 ;; Tracked objects:
  6001 ;;		On entry : 300/0
  6002 ;;		On exit  : 300/0
  6003 ;;		Unchanged: 0/0
  6004 ;; Data sizes:     COMMON   BANK0   BANK1   BANK3   BANK2
  6005 ;;      Params:         0       4       0       0       0
  6006 ;;      Locals:         0       0       2       0       0
  6007 ;;      Temps:          0       0       0       0       0
  6008 ;;      Totals:         0       4       2       0       0
  6009 ;;Total ram usage:        6 bytes
  6010 ;; Hardware stack levels used:    1
  6011 ;; Hardware stack levels required when called:    4
  6012 ;; This function calls:
  6013 ;;		___awtofl
  6014 ;;		___fladd
  6015 ;;		___flge
  6016 ;;		___flmul
  6017 ;;		_eval_poly
  6018 ;;		_frexp
  6019 ;; This function is called by:
  6020 ;;		_log10
  6021 ;;		_pow
  6022 ;; This function uses a non-reentrant model
  6023 ;;
  6024                           
  6025                           
  6026                           ;psect for function _log
  6027  03A8                     _log:	
  6028                           
  6029                           ;incstack = 0
  6030                           ; Regs used in _log: [wreg-fsr0h+status,2+status,0+btemp+1+pclath+cstack]
  6031  03A8  086E               	movf	log@x+3,w
  6032  03A9  00A3               	movwf	___flge@ff1+3
  6033  03AA  086D               	movf	log@x+2,w
  6034  03AB  00A2               	movwf	___flge@ff1+2
  6035  03AC  086C               	movf	log@x+1,w
  6036  03AD  00A1               	movwf	___flge@ff1+1
  6037  03AE  086B               	movf	log@x,w
  6038  03AF  00A0               	movwf	___flge@ff1
  6039  03B0  01A4               	clrf	___flge@ff2
  6040  03B1  01A5               	clrf	___flge@ff2+1
  6041  03B2  01A6               	clrf	___flge@ff2+2
  6042  03B3  01A7               	clrf	___flge@ff2+3
  6043  03B4  160A  118A  270A  120A  118A  	fcall	___flge
  6044  03B9  1803               	btfsc	3,0
  6045  03BA  2BC0               	goto	l3387
  6046  03BB  01EB               	clrf	?_log
  6047  03BC  01EC               	clrf	?_log+1
  6048  03BD  01ED               	clrf	?_log+2
  6049  03BE  01EE               	clrf	?_log+3
  6050  03BF  0008               	return
  6051  03C0                     l3387:	
  6052  03C0  086E               	movf	log@x+3,w
  6053  03C1  046D               	iorwf	log@x+2,w
  6054  03C2  046C               	iorwf	log@x+1,w
  6055  03C3  046B               	iorwf	log@x,w
  6056  03C4  1D03               	skipz
  6057  03C5  2BCB               	goto	l3391
  6058  03C6  01EB               	clrf	?_log
  6059  03C7  01EC               	clrf	?_log+1
  6060  03C8  01ED               	clrf	?_log+2
  6061  03C9  01EE               	clrf	?_log+3
  6062  03CA  0008               	return
  6063  03CB                     l3391:	
  6064  03CB  30BF               	movlw	191
  6065  03CC  00CF               	movwf	___fladd@f1+3
  6066  03CD  3080               	movlw	128
  6067  03CE  00CE               	movwf	___fladd@f1+2
  6068  03CF  3040               	movlw	64
  6069  03D0  01CD               	clrf	___fladd@f1+1
  6070  03D1  01CC               	clrf	___fladd@f1
  6071  03D2  00BC               	movwf	___flmul@f1+3
  6072  03D3  30A0               	movlw	(low (log@exponent| 0))& (0+255)
  6073  03D4  01BB               	clrf	___flmul@f1+2
  6074  03D5  01BA               	clrf	___flmul@f1+1
  6075  03D6  01B9               	clrf	___flmul@f1
  6076  03D7  00F7               	movwf	frexp@eptr
  6077  03D8  086E               	movf	log@x+3,w
  6078  03D9  00F6               	movwf	frexp@value+3
  6079  03DA  086D               	movf	log@x+2,w
  6080  03DB  00F5               	movwf	frexp@value+2
  6081  03DC  086C               	movf	log@x+1,w
  6082  03DD  00F4               	movwf	frexp@value+1
  6083  03DE  086B               	movf	log@x,w
  6084  03DF  00F3               	movwf	frexp@value
  6085  03E0  2462               	fcall	_frexp
  6086  03E1  0876               	movf	?_frexp+3,w
  6087  03E2  1283               	bcf	3,5	;RP0=0, select bank0
  6088  03E3  00C0               	movwf	___flmul@f2+3
  6089  03E4  0875               	movf	?_frexp+2,w
  6090  03E5  00BF               	movwf	___flmul@f2+2
  6091  03E6  0874               	movf	?_frexp+1,w
  6092  03E7  00BE               	movwf	___flmul@f2+1
  6093  03E8  0873               	movf	?_frexp,w
  6094  03E9  00BD               	movwf	___flmul@f2
  6095  03EA  160A  118A  2674  120A  118A  	fcall	___flmul
  6096  03EF  083C               	movf	?___flmul+3,w
  6097  03F0  00D3               	movwf	___fladd@f2+3
  6098  03F1  083B               	movf	?___flmul+2,w
  6099  03F2  00D2               	movwf	___fladd@f2+2
  6100  03F3  083A               	movf	?___flmul+1,w
  6101  03F4  00D1               	movwf	___fladd@f2+1
  6102  03F5  0839               	movf	?___flmul,w
  6103  03F6  00D0               	movwf	___fladd@f2
  6104  03F7  160A  118A  20B9  120A  118A  	fcall	___fladd
  6105  03FC  084F               	movf	?___fladd+3,w
  6106  03FD  00EE               	movwf	log@x+3
  6107  03FE  084E               	movf	?___fladd+2,w
  6108  03FF  00ED               	movwf	log@x+2
  6109  0400  084D               	movf	?___fladd+1,w
  6110  0401  00EC               	movwf	log@x+1
  6111  0402  084C               	movf	?___fladd,w
  6112  0403  00EB               	movwf	log@x
  6113  0404  30FF               	movlw	-1
  6114  0405  1683               	bsf	3,5	;RP0=1, select bank1
  6115  0406  07A0               	addwf	log@exponent^(0+128),f
  6116  0407  1C03               	skipc
  6117  0408  03A1               	decf	(log@exponent+1)^(0+128),f
  6118  0409  1283               	bcf	3,5	;RP0=0, select bank0
  6119  040A  086E               	movf	log@x+3,w
  6120  040B  00DE               	movwf	eval_poly@x+3
  6121  040C  086D               	movf	log@x+2,w
  6122  040D  00DD               	movwf	eval_poly@x+2
  6123  040E  086C               	movf	log@x+1,w
  6124  040F  00DC               	movwf	eval_poly@x+1
  6125  0410  086B               	movf	log@x,w
  6126  0411  00DB               	movwf	eval_poly@x
  6127  0412  3029               	movlw	(low ((log@coeff-__stringbase)| (0+32768)))& (0+255)
  6128  0413  00DF               	movwf	eval_poly@d
  6129  0414  3008               	movlw	8
  6130  0415  00E0               	movwf	eval_poly@n
  6131  0416  01E1               	clrf	eval_poly@n+1
  6132  0417  160A  118A  202C  120A  118A  	fcall	_eval_poly
  6133  041C  085E               	movf	?_eval_poly+3,w
  6134  041D  00EE               	movwf	log@x+3
  6135  041E  085D               	movf	?_eval_poly+2,w
  6136  041F  00ED               	movwf	log@x+2
  6137  0420  085C               	movf	?_eval_poly+1,w
  6138  0421  00EC               	movwf	log@x+1
  6139  0422  085B               	movf	?_eval_poly,w
  6140  0423  00EB               	movwf	log@x
  6141  0424  086E               	movf	log@x+3,w
  6142  0425  00CF               	movwf	___fladd@f1+3
  6143  0426  086D               	movf	log@x+2,w
  6144  0427  00CE               	movwf	___fladd@f1+2
  6145  0428  086C               	movf	log@x+1,w
  6146  0429  00CD               	movwf	___fladd@f1+1
  6147  042A  086B               	movf	log@x,w
  6148  042B  00CC               	movwf	___fladd@f1
  6149  042C  303F               	movlw	63
  6150  042D  00BC               	movwf	___flmul@f1+3
  6151  042E  3031               	movlw	49
  6152  042F  00BB               	movwf	___flmul@f1+2
  6153  0430  3072               	movlw	114
  6154  0431  00BA               	movwf	___flmul@f1+1
  6155  0432  3018               	movlw	24
  6156  0433  00B9               	movwf	___flmul@f1
  6157  0434  1683               	bsf	3,5	;RP0=1, select bank1
  6158  0435  0821               	movf	(log@exponent+1)^(0+128),w
  6159  0436  1283               	bcf	3,5	;RP0=0, select bank0
  6160  0437  00A7               	movwf	___awtofl@c+1
  6161  0438  1683               	bsf	3,5	;RP0=1, select bank1
  6162  0439  0820               	movf	log@exponent^(0+128),w
  6163  043A  1283               	bcf	3,5	;RP0=0, select bank0
  6164  043B  00A6               	movwf	___awtofl@c
  6165  043C  120A  158A  273E  120A  118A  	fcall	___awtofl
  6166  0441  0829               	movf	?___awtofl+3,w
  6167  0442  00C0               	movwf	___flmul@f2+3
  6168  0443  0828               	movf	?___awtofl+2,w
  6169  0444  00BF               	movwf	___flmul@f2+2
  6170  0445  0827               	movf	?___awtofl+1,w
  6171  0446  00BE               	movwf	___flmul@f2+1
  6172  0447  0826               	movf	?___awtofl,w
  6173  0448  00BD               	movwf	___flmul@f2
  6174  0449  160A  118A  2674  120A  118A  	fcall	___flmul
  6175  044E  083C               	movf	?___flmul+3,w
  6176  044F  00D3               	movwf	___fladd@f2+3
  6177  0450  083B               	movf	?___flmul+2,w
  6178  0451  00D2               	movwf	___fladd@f2+2
  6179  0452  083A               	movf	?___flmul+1,w
  6180  0453  00D1               	movwf	___fladd@f2+1
  6181  0454  0839               	movf	?___flmul,w
  6182  0455  00D0               	movwf	___fladd@f2
  6183  0456  160A  118A  20B9   	fcall	___fladd
  6184  0459  084F               	movf	?___fladd+3,w
  6185  045A  00EE               	movwf	?_log+3
  6186  045B  084E               	movf	?___fladd+2,w
  6187  045C  00ED               	movwf	?_log+2
  6188  045D  084D               	movf	?___fladd+1,w
  6189  045E  00EC               	movwf	?_log+1
  6190  045F  084C               	movf	?___fladd,w
  6191  0460  00EB               	movwf	?_log
  6192  0461  0008               	return
  6193  0462                     __end_of_log:	
  6194  0462                     __ptext27:	
  6195 ;; *************** function _frexp *****************
  6196 ;; Defined at:
  6197 ;;		line 254 in file "C:\Program Files (x86)\Microchip\xc8\v1.34\sources\common\frexp.c"
  6198 ;; Parameters:    Size  Location     Type
  6199 ;;  value           4    3[COMMON] int 
  6200 ;;  eptr            1    7[COMMON] PTR int 
  6201 ;;		 -> log@exponent(2), floor@expon(2), 
  6202 ;; Auto vars:     Size  Location     Type
  6203 ;;		None
  6204 ;; Return value:  Size  Location     Type
  6205 ;;                  4    3[COMMON] PTR int 
  6206 ;; Registers used:
  6207 ;;		wreg, fsr0l, fsr0h, status,2, status,0, btemp+1
  6208 ;; Tracked objects:
  6209 ;;		On entry : 200/100
  6210 ;;		On exit  : A00/0
  6211 ;;		Unchanged: 0/0
  6212 ;; Data sizes:     COMMON   BANK0   BANK1   BANK3   BANK2
  6213 ;;      Params:         5       0       0       0       0
  6214 ;;      Locals:         0       0       0       0       0
  6215 ;;      Temps:          0       2       0       0       0
  6216 ;;      Totals:         5       2       0       0       0
  6217 ;;Total ram usage:        7 bytes
  6218 ;; Hardware stack levels used:    1
  6219 ;; Hardware stack levels required when called:    1
  6220 ;; This function calls:
  6221 ;;		Nothing
  6222 ;; This function is called by:
  6223 ;;		_floor
  6224 ;;		_log
  6225 ;; This function uses a non-reentrant model
  6226 ;;
  6227                           
  6228                           
  6229                           ;psect for function _frexp
  6230  0462                     _frexp:	
  6231                           
  6232                           ;incstack = 0
  6233                           ; Regs used in _frexp: [wreg-fsr0h+status,2+status,0+btemp+1]
  6234  0462  0876               	movf	frexp@value+3,w
  6235  0463  0475               	iorwf	frexp@value+2,w
  6236  0464  0474               	iorwf	frexp@value+1,w
  6237  0465  0473               	iorwf	frexp@value,w
  6238  0466  1D03               	skipz
  6239  0467  2C73               	goto	l3235
  6240  0468  0877               	movf	frexp@eptr,w
  6241  0469  0084               	movwf	4
  6242  046A  1383               	bcf	3,7	;select IRP bank0
  6243  046B  0180               	clrf	0
  6244  046C  0A84               	incf	4,f
  6245  046D  0180               	clrf	0
  6246  046E  01F3               	clrf	?_frexp
  6247  046F  01F4               	clrf	?_frexp+1
  6248  0470  01F5               	clrf	?_frexp+2
  6249  0471  01F6               	clrf	?_frexp+3
  6250  0472  0008               	return
  6251  0473                     l3235:	
  6252  0473  0876               	movf	frexp@value+3,w
  6253  0474  397F               	andlw	127
  6254  0475  1283               	bcf	3,5	;RP0=0, select bank0
  6255  0476  00A0               	movwf	??_frexp
  6256  0477  01A1               	clrf	??_frexp+1
  6257  0478  1003               	clrc
  6258  0479  0DA0               	rlf	??_frexp,f
  6259  047A  0DA1               	rlf	??_frexp+1,f
  6260  047B  0877               	movf	frexp@eptr,w
  6261  047C  0084               	movwf	4
  6262  047D  0820               	movf	??_frexp,w
  6263  047E  1383               	bcf	3,7	;select IRP bank0
  6264  047F  0080               	movwf	0
  6265  0480  0A84               	incf	4,f
  6266  0481  0821               	movf	??_frexp+1,w
  6267  0482  0080               	movwf	0
  6268  0483  0D75               	rlf	frexp@value+2,w
  6269  0484  0D75               	rlf	frexp@value+2,w
  6270  0485  3901               	andlw	1
  6271  0486  00A0               	movwf	??_frexp
  6272  0487  01A1               	clrf	??_frexp+1
  6273  0488  0877               	movf	frexp@eptr,w
  6274  0489  0084               	movwf	4
  6275  048A  0820               	movf	??_frexp,w
  6276  048B  0480               	iorwf	0,f
  6277  048C  0A84               	incf	4,f
  6278  048D  0821               	movf	??_frexp+1,w
  6279  048E  0480               	iorwf	0,f
  6280  048F  0877               	movf	frexp@eptr,w
  6281  0490  0084               	movwf	4
  6282  0491  3082               	movlw	130
  6283  0492  0780               	addwf	0,f
  6284  0493  0F84               	incfsz	4,f
  6285  0494  0800               	movf	0,w
  6286  0495  1803               	skipnc
  6287  0496  0A00               	incf	0,w
  6288  0497  00FF               	movwf	127
  6289  0498  3EFF               	addlw	255
  6290  0499  0080               	movwf	0
  6291  049A  0384               	decf	4,f
  6292  049B  0876               	movf	frexp@value+3,w
  6293  049C  3980               	andlw	-128
  6294  049D  383F               	iorlw	63
  6295  049E  00F6               	movwf	frexp@value+3
  6296  049F  13F5               	bcf	frexp@value+2,7
  6297  04A0  0008               	return
  6298  04A1                     __end_of_frexp:	
  6299  04A1                     __ptext18:	
  6300 ;; *************** function ___altofl *****************
  6301 ;; Defined at:
  6302 ;;		line 36 in file "C:\Program Files (x86)\Microchip\xc8\v1.34\sources\common\altofl.c"
  6303 ;; Parameters:    Size  Location     Type
  6304 ;;  c               4   20[BANK1 ] long 
  6305 ;; Auto vars:     Size  Location     Type
  6306 ;;  sign            1   79[BANK0 ] unsigned char 
  6307 ;; Return value:  Size  Location     Type
  6308 ;;                  4   20[BANK1 ] unsigned char 
  6309 ;; Registers used:
  6310 ;;		wreg, status,2, status,0, pclath, cstack
  6311 ;; Tracked objects:
  6312 ;;		On entry : 300/100
  6313 ;;		On exit  : 300/100
  6314 ;;		Unchanged: 0/0
  6315 ;; Data sizes:     COMMON   BANK0   BANK1   BANK3   BANK2
  6316 ;;      Params:         0       0       4       0       0
  6317 ;;      Locals:         0       1       0       0       0
  6318 ;;      Temps:          0       0       0       0       0
  6319 ;;      Totals:         0       1       4       0       0
  6320 ;;Total ram usage:        5 bytes
  6321 ;; Hardware stack levels used:    1
  6322 ;; Hardware stack levels required when called:    2
  6323 ;; This function calls:
  6324 ;;		___flpack
  6325 ;; This function is called by:
  6326 ;;		_floor
  6327 ;; This function uses a non-reentrant model
  6328 ;;
  6329                           
  6330                           
  6331                           ;psect for function ___altofl
  6332  04A1                     ___altofl:	
  6333                           
  6334                           ;incstack = 0
  6335                           ; Regs used in ___altofl: [wreg+status,2+status,0+pclath+cstack]
  6336  04A1  1283               	bcf	3,5	;RP0=0, select bank0
  6337  04A2  01EF               	clrf	___altofl@sign
  6338  04A3  1683               	bsf	3,5	;RP0=1, select bank1
  6339  04A4  1FB7               	btfss	(___altofl@c+3)^(0+128),7
  6340  04A5  2CB4               	goto	l3081
  6341  04A6  09B4               	comf	___altofl@c^(0+128),f
  6342  04A7  09B5               	comf	(___altofl@c+1)^(0+128),f
  6343  04A8  09B6               	comf	(___altofl@c+2)^(0+128),f
  6344  04A9  09B7               	comf	(___altofl@c+3)^(0+128),f
  6345  04AA  0AB4               	incf	___altofl@c^(0+128),f
  6346  04AB  1903               	skipnz
  6347  04AC  0AB5               	incf	(___altofl@c+1)^(0+128),f
  6348  04AD  1903               	skipnz
  6349  04AE  0AB6               	incf	(___altofl@c+2)^(0+128),f
  6350  04AF  1903               	skipnz
  6351  04B0  0AB7               	incf	(___altofl@c+3)^(0+128),f
  6352  04B1  1283               	bcf	3,5	;RP0=0, select bank0
  6353  04B2  01EF               	clrf	___altofl@sign
  6354  04B3  0AEF               	incf	___altofl@sign,f
  6355  04B4                     l3081:	
  6356  04B4  1683               	bsf	3,5	;RP0=1, select bank1
  6357  04B5  0837               	movf	(___altofl@c+3)^(0+128),w
  6358  04B6  1283               	bcf	3,5	;RP0=0, select bank0
  6359  04B7  00A3               	movwf	___flpack@arg+3
  6360  04B8  1683               	bsf	3,5	;RP0=1, select bank1
  6361  04B9  0836               	movf	(___altofl@c+2)^(0+128),w
  6362  04BA  1283               	bcf	3,5	;RP0=0, select bank0
  6363  04BB  00A2               	movwf	___flpack@arg+2
  6364  04BC  1683               	bsf	3,5	;RP0=1, select bank1
  6365  04BD  0835               	movf	(___altofl@c+1)^(0+128),w
  6366  04BE  1283               	bcf	3,5	;RP0=0, select bank0
  6367  04BF  00A1               	movwf	___flpack@arg+1
  6368  04C0  1683               	bsf	3,5	;RP0=1, select bank1
  6369  04C1  0834               	movf	___altofl@c^(0+128),w
  6370  04C2  1283               	bcf	3,5	;RP0=0, select bank0
  6371  04C3  00A0               	movwf	___flpack@arg
  6372  04C4  3096               	movlw	150
  6373  04C5  00A4               	movwf	___flpack@exp
  6374  04C6  086F               	movf	___altofl@sign,w
  6375  04C7  00A5               	movwf	___flpack@sign
  6376  04C8  160A  118A  2756   	fcall	___flpack
  6377  04CB  0823               	movf	?___flpack+3,w
  6378  04CC  1683               	bsf	3,5	;RP0=1, select bank1
  6379  04CD  00B7               	movwf	(?___altofl+3)^(0+128)
  6380  04CE  1283               	bcf	3,5	;RP0=0, select bank0
  6381  04CF  0822               	movf	?___flpack+2,w
  6382  04D0  1683               	bsf	3,5	;RP0=1, select bank1
  6383  04D1  00B6               	movwf	(?___altofl+2)^(0+128)
  6384  04D2  1283               	bcf	3,5	;RP0=0, select bank0
  6385  04D3  0821               	movf	?___flpack+1,w
  6386  04D4  1683               	bsf	3,5	;RP0=1, select bank1
  6387  04D5  00B5               	movwf	(?___altofl+1)^(0+128)
  6388  04D6  1283               	bcf	3,5	;RP0=0, select bank0
  6389  04D7  0820               	movf	?___flpack,w
  6390  04D8  1683               	bsf	3,5	;RP0=1, select bank1
  6391  04D9  00B4               	movwf	?___altofl^(0+128)
  6392  04DA  0008               	return
  6393  04DB                     __end_of___altofl:	
  6394  04DB                     __ptext15:	
  6395 ;; *************** function ___flneg *****************
  6396 ;; Defined at:
  6397 ;;		line 15 in file "C:\Program Files (x86)\Microchip\xc8\v1.34\sources\common\flneg.c"
  6398 ;; Parameters:    Size  Location     Type
  6399 ;;  f1              4    3[COMMON] int 
  6400 ;; Auto vars:     Size  Location     Type
  6401 ;;		None
  6402 ;; Return value:  Size  Location     Type
  6403 ;;                  4    3[COMMON] int 
  6404 ;; Registers used:
  6405 ;;		wreg
  6406 ;; Tracked objects:
  6407 ;;		On entry : 300/100
  6408 ;;		On exit  : 300/100
  6409 ;;		Unchanged: 300/0
  6410 ;; Data sizes:     COMMON   BANK0   BANK1   BANK3   BANK2
  6411 ;;      Params:         4       0       0       0       0
  6412 ;;      Locals:         0       0       0       0       0
  6413 ;;      Temps:          0       0       0       0       0
  6414 ;;      Totals:         4       0       0       0       0
  6415 ;;Total ram usage:        4 bytes
  6416 ;; Hardware stack levels used:    1
  6417 ;; Hardware stack levels required when called:    1
  6418 ;; This function calls:
  6419 ;;		Nothing
  6420 ;; This function is called by:
  6421 ;;		_ldexp
  6422 ;;		_pow
  6423 ;;		_exp
  6424 ;; This function uses a non-reentrant model
  6425 ;;
  6426                           
  6427                           
  6428                           ;psect for function ___flneg
  6429  04DB                     ___flneg:	
  6430                           
  6431                           ;incstack = 0
  6432                           ; Regs used in ___flneg: [wreg]
  6433  04DB  0876               	movf	___flneg@f1+3,w
  6434  04DC  0475               	iorwf	___flneg@f1+2,w
  6435  04DD  0474               	iorwf	___flneg@f1+1,w
  6436  04DE  0473               	iorwf	___flneg@f1,w
  6437  04DF  1903               	skipnz
  6438  04E0  0008               	return
  6439  04E1  3080               	movlw	128
  6440  04E2  06F6               	xorwf	___flneg@f1+3,f
  6441  04E3  0008               	return
  6442  04E4                     __end_of___flneg:	
  6443                           
  6444                           	psect	text28
  6445  102C                     __ptext28:	
  6446 ;; *************** function _eval_poly *****************
  6447 ;; Defined at:
  6448 ;;		line 4 in file "C:\Program Files (x86)\Microchip\xc8\v1.34\sources\common\evalpoly.c"
  6449 ;; Parameters:    Size  Location     Type
  6450 ;;  x               4   59[BANK0 ] PTR int 
  6451 ;;  d               1   63[BANK0 ] PTR const 
  6452 ;;		 -> exp@coeff(40), log@coeff(36), 
  6453 ;;  n               2   64[BANK0 ] int 
  6454 ;; Auto vars:     Size  Location     Type
  6455 ;;  res             4   71[BANK0 ] int 
  6456 ;; Return value:  Size  Location     Type
  6457 ;;                  4   59[BANK0 ] int 
  6458 ;; Registers used:
  6459 ;;		wreg, fsr0l, fsr0h, status,2, status,0, pclath, cstack
  6460 ;; Tracked objects:
  6461 ;;		On entry : 300/0
  6462 ;;		On exit  : 300/0
  6463 ;;		Unchanged: 0/0
  6464 ;; Data sizes:     COMMON   BANK0   BANK1   BANK3   BANK2
  6465 ;;      Params:         0       7       0       0       0
  6466 ;;      Locals:         0       4       0       0       0
  6467 ;;      Temps:          0       5       0       0       0
  6468 ;;      Totals:         0      16       0       0       0
  6469 ;;Total ram usage:       16 bytes
  6470 ;; Hardware stack levels used:    1
  6471 ;; Hardware stack levels required when called:    3
  6472 ;; This function calls:
  6473 ;;		___fladd
  6474 ;;		___flmul
  6475 ;; This function is called by:
  6476 ;;		_log
  6477 ;;		_exp
  6478 ;; This function uses a non-reentrant model
  6479 ;;
  6480                           
  6481                           
  6482                           ;psect for function _eval_poly
  6483  102C                     _eval_poly:	
  6484                           
  6485                           ;incstack = 0
  6486 ;; using string table level
  6487                           ; Regs used in _eval_poly: [wreg-fsr0h+status,2+status,0+pclath+cstack]
  6488  102C  0860               	movf	eval_poly@n,w
  6489  102D  00E2               	movwf	??_eval_poly
  6490  102E  3001               	movlw	1
  6491  102F  1003               	clrc
  6492  1030                     L11:	
  6493  1030  0DE2               	rlf	??_eval_poly,f
  6494  1031  3EFF               	addlw	-1
  6495  1032  1003               	clrc
  6496  1033  1D03               	skipz
  6497  1034  2830               	goto	L11
  6498  1035  0D62               	rlf	??_eval_poly,w
  6499  1036  075F               	addwf	eval_poly@d,w
  6500  1037  0084               	movwf	4
  6501  1038  160A  158A  2000  160A  118A  	fcall	stringdir
  6502  103D  00E3               	movwf	??_eval_poly+1
  6503  103E  160A  158A  2000  160A  118A  	fcall	stringdir
  6504  1043  00E4               	movwf	??_eval_poly+2
  6505  1044  160A  158A  2000  160A  118A  	fcall	stringdir
  6506  1049  00E5               	movwf	??_eval_poly+3
  6507  104A  160A  158A  2000  160A  118A  	fcall	stringdir
  6508  104F  00E6               	movwf	??_eval_poly+4
  6509  1050  00EA               	movwf	eval_poly@res+3
  6510  1051  0865               	movf	??_eval_poly+3,w
  6511  1052  00E9               	movwf	eval_poly@res+2
  6512  1053  0864               	movf	??_eval_poly+2,w
  6513  1054  00E8               	movwf	eval_poly@res+1
  6514  1055  0863               	movf	??_eval_poly+1,w
  6515  1056                     L13:	
  6516  1056  00E7               	movwf	eval_poly@res
  6517  1057  0860               	movf	eval_poly@n,w
  6518  1058  0461               	iorwf	eval_poly@n+1,w
  6519  1059  1903               	btfsc	3,2
  6520  105A  28B0               	goto	l3375
  6521  105B  30FF               	movlw	-1
  6522  105C  07E0               	addwf	eval_poly@n,f
  6523  105D  1C03               	skipc
  6524  105E  03E1               	decf	eval_poly@n+1,f
  6525  105F  0860               	movf	eval_poly@n,w
  6526  1060  00E2               	movwf	??_eval_poly
  6527  1061  3001               	movlw	1
  6528  1062  1003               	clrc
  6529  1063                     L12:	
  6530  1063  0DE2               	rlf	??_eval_poly,f
  6531  1064  3EFF               	addlw	-1
  6532  1065  1003               	clrc
  6533  1066  1D03               	skipz
  6534  1067  2863               	goto	L12
  6535  1068  0D62               	rlf	??_eval_poly,w
  6536  1069  075F               	addwf	eval_poly@d,w
  6537  106A  0084               	movwf	4
  6538  106B  160A  158A  2000  160A  118A  	fcall	stringdir
  6539  1070  00E3               	movwf	??_eval_poly+1
  6540  1071  160A  158A  2000  160A  118A  	fcall	stringdir
  6541  1076  00E4               	movwf	??_eval_poly+2
  6542  1077  160A  158A  2000  160A  118A  	fcall	stringdir
  6543  107C  00E5               	movwf	??_eval_poly+3
  6544  107D  160A  158A  2000  160A  118A  	fcall	stringdir
  6545  1082  00E6               	movwf	??_eval_poly+4
  6546  1083  00CF               	movwf	___fladd@f1+3
  6547  1084  0865               	movf	??_eval_poly+3,w
  6548  1085  00CE               	movwf	___fladd@f1+2
  6549  1086  0864               	movf	??_eval_poly+2,w
  6550  1087  00CD               	movwf	___fladd@f1+1
  6551  1088  0863               	movf	??_eval_poly+1,w
  6552  1089  00CC               	movwf	___fladd@f1
  6553  108A  086A               	movf	eval_poly@res+3,w
  6554  108B  00BC               	movwf	___flmul@f1+3
  6555  108C  0869               	movf	eval_poly@res+2,w
  6556  108D  00BB               	movwf	___flmul@f1+2
  6557  108E  0868               	movf	eval_poly@res+1,w
  6558  108F  00BA               	movwf	___flmul@f1+1
  6559  1090  0867               	movf	eval_poly@res,w
  6560  1091  00B9               	movwf	___flmul@f1
  6561  1092  085E               	movf	eval_poly@x+3,w
  6562  1093  00C0               	movwf	___flmul@f2+3
  6563  1094  085D               	movf	eval_poly@x+2,w
  6564  1095  00BF               	movwf	___flmul@f2+2
  6565  1096  085C               	movf	eval_poly@x+1,w
  6566  1097  00BE               	movwf	___flmul@f2+1
  6567  1098  085B               	movf	eval_poly@x,w
  6568  1099  00BD               	movwf	___flmul@f2
  6569  109A  2674  160A  118A   	fcall	___flmul
  6570  109D  083C               	movf	?___flmul+3,w
  6571  109E  00D3               	movwf	___fladd@f2+3
  6572  109F  083B               	movf	?___flmul+2,w
  6573  10A0  00D2               	movwf	___fladd@f2+2
  6574  10A1  083A               	movf	?___flmul+1,w
  6575  10A2  00D1               	movwf	___fladd@f2+1
  6576  10A3  0839               	movf	?___flmul,w
  6577  10A4  00D0               	movwf	___fladd@f2
  6578  10A5  20B9  160A  118A   	fcall	___fladd
  6579  10A8  084F               	movf	?___fladd+3,w
  6580  10A9  00EA               	movwf	eval_poly@res+3
  6581  10AA  084E               	movf	?___fladd+2,w
  6582  10AB  00E9               	movwf	eval_poly@res+2
  6583  10AC  084D               	movf	?___fladd+1,w
  6584  10AD  00E8               	movwf	eval_poly@res+1
  6585  10AE  084C               	movf	?___fladd,w
  6586  10AF  2856               	goto	L13
  6587  10B0                     l3375:	
  6588  10B0  086A               	movf	eval_poly@res+3,w
  6589  10B1  00DE               	movwf	?_eval_poly+3
  6590  10B2  0869               	movf	eval_poly@res+2,w
  6591  10B3  00DD               	movwf	?_eval_poly+2
  6592  10B4  0868               	movf	eval_poly@res+1,w
  6593  10B5  00DC               	movwf	?_eval_poly+1
  6594  10B6  0867               	movf	eval_poly@res,w
  6595  10B7  00DB               	movwf	?_eval_poly
  6596  10B8  0008               	return
  6597  10B9                     __end_of_eval_poly:	
  6598  10B9                     __ptext30:	
  6599 ;; *************** function ___fladd *****************
  6600 ;; Defined at:
  6601 ;;		line 88 in file "C:\Program Files (x86)\Microchip\xc8\v1.34\sources\common\fladd.c"
  6602 ;; Parameters:    Size  Location     Type
  6603 ;;  f1              4   44[BANK0 ] unsigned char 
  6604 ;;  f2              4   48[BANK0 ] unsigned char 
  6605 ;; Auto vars:     Size  Location     Type
  6606 ;;  exp1            1   58[BANK0 ] unsigned char 
  6607 ;;  exp2            1   57[BANK0 ] unsigned char 
  6608 ;;  sign            1   56[BANK0 ] unsigned char 
  6609 ;; Return value:  Size  Location     Type
  6610 ;;                  4   44[BANK0 ] unsigned char 
  6611 ;; Registers used:
  6612 ;;		wreg, status,2, status,0, pclath, cstack
  6613 ;; Tracked objects:
  6614 ;;		On entry : 300/0
  6615 ;;		On exit  : 300/0
  6616 ;;		Unchanged: 0/0
  6617 ;; Data sizes:     COMMON   BANK0   BANK1   BANK3   BANK2
  6618 ;;      Params:         0       8       0       0       0
  6619 ;;      Locals:         0       3       0       0       0
  6620 ;;      Temps:          0       4       0       0       0
  6621 ;;      Totals:         0      15       0       0       0
  6622 ;;Total ram usage:       15 bytes
  6623 ;; Hardware stack levels used:    1
  6624 ;; Hardware stack levels required when called:    2
  6625 ;; This function calls:
  6626 ;;		___flpack
  6627 ;; This function is called by:
  6628 ;;		_floor
  6629 ;;		___flsub
  6630 ;;		_log
  6631 ;;		_eval_poly
  6632 ;; This function uses a non-reentrant model
  6633 ;;
  6634                           
  6635                           
  6636                           ;psect for function ___fladd
  6637  10B9                     ___fladd:	
  6638                           
  6639                           ;incstack = 0
  6640                           ; Regs used in ___fladd: [wreg+status,2+status,0+pclath+cstack]
  6641  10B9  084C               	movf	___fladd@f1,w
  6642  10BA  00D4               	movwf	??___fladd
  6643  10BB  084D               	movf	___fladd@f1+1,w
  6644  10BC  00D5               	movwf	??___fladd+1
  6645  10BD  084E               	movf	___fladd@f1+2,w
  6646  10BE  00D6               	movwf	??___fladd+2
  6647  10BF  084F               	movf	___fladd@f1+3,w
  6648  10C0  00D7               	movwf	??___fladd+3
  6649  10C1  1003               	clrc
  6650  10C2  0D56               	rlf	??___fladd+2,w
  6651  10C3  0D57               	rlf	??___fladd+3,w
  6652  10C4  00DA               	movwf	___fladd@exp1
  6653  10C5  0850               	movf	___fladd@f2,w
  6654  10C6  00D4               	movwf	??___fladd
  6655  10C7  0851               	movf	___fladd@f2+1,w
  6656  10C8  00D5               	movwf	??___fladd+1
  6657  10C9  0852               	movf	___fladd@f2+2,w
  6658  10CA  00D6               	movwf	??___fladd+2
  6659  10CB  0853               	movf	___fladd@f2+3,w
  6660  10CC  00D7               	movwf	??___fladd+3
  6661  10CD  1003               	clrc
  6662  10CE  0D56               	rlf	??___fladd+2,w
  6663  10CF  0D57               	rlf	??___fladd+3,w
  6664  10D0  00D9               	movwf	___fladd@exp2
  6665  10D1  085A               	movf	___fladd@exp1,w
  6666  10D2  1903               	btfsc	3,2
  6667  10D3  28E0               	goto	l3091
  6668  10D4  0859               	movf	___fladd@exp2,w
  6669  10D5  025A               	subwf	___fladd@exp1,w
  6670  10D6  0859               	movf	___fladd@exp2,w
  6671  10D7  1803               	skipnc
  6672  10D8  28EA               	goto	L14
  6673  10D9  00D4               	movwf	??___fladd
  6674  10DA  085A               	movf	___fladd@exp1,w
  6675  10DB  02D4               	subwf	??___fladd,f
  6676  10DC  3021               	movlw	33
  6677  10DD  0254               	subwf	??___fladd,w
  6678  10DE  1C03               	skipc
  6679  10DF  28E9               	goto	l3095
  6680  10E0                     l3091:	
  6681  10E0  0853               	movf	___fladd@f2+3,w
  6682  10E1  00CF               	movwf	?___fladd+3
  6683  10E2  0852               	movf	___fladd@f2+2,w
  6684  10E3  00CE               	movwf	?___fladd+2
  6685  10E4  0851               	movf	___fladd@f2+1,w
  6686  10E5  00CD               	movwf	?___fladd+1
  6687  10E6  0850               	movf	___fladd@f2,w
  6688  10E7  00CC               	movwf	?___fladd
  6689  10E8  0008               	return
  6690  10E9                     l3095:	
  6691  10E9  0859               	movf	___fladd@exp2,w
  6692  10EA                     L14:	
  6693  10EA  1903               	btfsc	3,2
  6694  10EB  0008               	return
  6695  10EC  085A               	movf	___fladd@exp1,w
  6696  10ED  0259               	subwf	___fladd@exp2,w
  6697  10EE  1803               	skipnc
  6698  10EF  28F8               	goto	l3101
  6699  10F0  085A               	movf	___fladd@exp1,w
  6700  10F1  00D4               	movwf	??___fladd
  6701  10F2  0859               	movf	___fladd@exp2,w
  6702  10F3  02D4               	subwf	??___fladd,f
  6703  10F4  3021               	movlw	33
  6704  10F5  0254               	subwf	??___fladd,w
  6705  10F6  1803               	btfsc	3,0
  6706  10F7  0008               	return
  6707  10F8                     l3101:	
  6708  10F8  3006               	movlw	6
  6709  10F9  00D8               	movwf	___fladd@sign
  6710  10FA  1BCF               	btfsc	___fladd@f1+3,7
  6711  10FB  17D8               	bsf	___fladd@sign,7
  6712  10FC  1BD3               	btfsc	___fladd@f2+3,7
  6713  10FD  1758               	bsf	___fladd@sign,6
  6714  10FE  17CE               	bsf	___fladd@f1+2,7
  6715  10FF  01CF               	clrf	___fladd@f1+3
  6716  1100  17D2               	bsf	___fladd@f2+2,7
  6717  1101  01D3               	clrf	___fladd@f2+3
  6718  1102  0859               	movf	___fladd@exp2,w
  6719  1103  025A               	subwf	___fladd@exp1,w
  6720  1104  1803               	skipnc
  6721  1105  2921               	goto	l3123
  6722  1106                     l3113:	
  6723  1106  1003               	clrc
  6724  1107  0DD0               	rlf	___fladd@f2,f
  6725  1108  0DD1               	rlf	___fladd@f2+1,f
  6726  1109  0DD2               	rlf	___fladd@f2+2,f
  6727  110A  0DD3               	rlf	___fladd@f2+3,f
  6728  110B  03D9               	decf	___fladd@exp2,f
  6729  110C  0859               	movf	___fladd@exp2,w
  6730  110D  065A               	xorwf	___fladd@exp1,w
  6731  110E  1903               	skipnz
  6732  110F  291C               	goto	l3121
  6733  1110  03D8               	decf	___fladd@sign,f
  6734  1111  0858               	movf	___fladd@sign,w
  6735  1112  3907               	andlw	7
  6736  1113  1903               	btfsc	3,2
  6737  1114  291C               	goto	l3121
  6738  1115  2906               	goto	l3113
  6739  1116                     l3119:	
  6740  1116  1003               	clrc
  6741  1117  0CCF               	rrf	___fladd@f1+3,f
  6742  1118  0CCE               	rrf	___fladd@f1+2,f
  6743  1119  0CCD               	rrf	___fladd@f1+1,f
  6744  111A  0CCC               	rrf	___fladd@f1,f
  6745  111B  0ADA               	incf	___fladd@exp1,f
  6746  111C                     l3121:	
  6747  111C  085A               	movf	___fladd@exp1,w
  6748  111D  0659               	xorwf	___fladd@exp2,w
  6749  111E  1903               	btfsc	3,2
  6750  111F  293F               	goto	l645
  6751  1120  2916               	goto	l3119
  6752  1121                     l3123:	
  6753  1121  085A               	movf	___fladd@exp1,w
  6754  1122  0259               	subwf	___fladd@exp2,w
  6755  1123  1803               	skipnc
  6756  1124  293F               	goto	l645
  6757  1125                     l3125:	
  6758  1125  1003               	clrc
  6759  1126  0DCC               	rlf	___fladd@f1,f
  6760  1127  0DCD               	rlf	___fladd@f1+1,f
  6761  1128  0DCE               	rlf	___fladd@f1+2,f
  6762  1129  0DCF               	rlf	___fladd@f1+3,f
  6763  112A  03DA               	decf	___fladd@exp1,f
  6764  112B  0859               	movf	___fladd@exp2,w
  6765  112C  065A               	xorwf	___fladd@exp1,w
  6766  112D  1903               	skipnz
  6767  112E  293B               	goto	l3133
  6768  112F  03D8               	decf	___fladd@sign,f
  6769  1130  0858               	movf	___fladd@sign,w
  6770  1131  3907               	andlw	7
  6771  1132  1903               	btfsc	3,2
  6772  1133  293B               	goto	l3133
  6773  1134  2925               	goto	l3125
  6774  1135                     l3131:	
  6775  1135  1003               	clrc
  6776  1136  0CD3               	rrf	___fladd@f2+3,f
  6777  1137  0CD2               	rrf	___fladd@f2+2,f
  6778  1138  0CD1               	rrf	___fladd@f2+1,f
  6779  1139  0CD0               	rrf	___fladd@f2,f
  6780  113A  0AD9               	incf	___fladd@exp2,f
  6781  113B                     l3133:	
  6782  113B  085A               	movf	___fladd@exp1,w
  6783  113C  0659               	xorwf	___fladd@exp2,w
  6784  113D  1D03               	skipz
  6785  113E  2935               	goto	l3131
  6786  113F                     l645:	
  6787  113F  1FD8               	btfss	___fladd@sign,7
  6788  1140  294D               	goto	l3139
  6789  1141  30FF               	movlw	255
  6790  1142  06CC               	xorwf	___fladd@f1,f
  6791  1143  06CD               	xorwf	___fladd@f1+1,f
  6792  1144  06CE               	xorwf	___fladd@f1+2,f
  6793  1145  06CF               	xorwf	___fladd@f1+3,f
  6794  1146  0ACC               	incf	___fladd@f1,f
  6795  1147  1903               	skipnz
  6796  1148  0ACD               	incf	___fladd@f1+1,f
  6797  1149  1903               	skipnz
  6798  114A  0ACE               	incf	___fladd@f1+2,f
  6799  114B  1903               	skipnz
  6800  114C  0ACF               	incf	___fladd@f1+3,f
  6801  114D                     l3139:	
  6802  114D  1F58               	btfss	___fladd@sign,6
  6803  114E  295B               	goto	l3145
  6804  114F  30FF               	movlw	255
  6805  1150  06D0               	xorwf	___fladd@f2,f
  6806  1151  06D1               	xorwf	___fladd@f2+1,f
  6807  1152  06D2               	xorwf	___fladd@f2+2,f
  6808  1153  06D3               	xorwf	___fladd@f2+3,f
  6809  1154  0AD0               	incf	___fladd@f2,f
  6810  1155  1903               	skipnz
  6811  1156  0AD1               	incf	___fladd@f2+1,f
  6812  1157  1903               	skipnz
  6813  1158  0AD2               	incf	___fladd@f2+2,f
  6814  1159  1903               	skipnz
  6815  115A  0AD3               	incf	___fladd@f2+3,f
  6816  115B                     l3145:	
  6817  115B  01D8               	clrf	___fladd@sign
  6818  115C  084C               	movf	___fladd@f1,w
  6819  115D  07D0               	addwf	___fladd@f2,f
  6820  115E  084D               	movf	___fladd@f1+1,w
  6821  115F  1103               	clrz
  6822  1160  1803               	skipnc
  6823  1161  3E01               	addlw	1
  6824  1162  1D03               	btfss	3,2
  6825  1163  07D1               	addwf	___fladd@f2+1,f
  6826  1164  084E               	movf	___fladd@f1+2,w
  6827  1165  1103               	clrz
  6828  1166  1803               	skipnc
  6829  1167  3E01               	addlw	1
  6830  1168  1D03               	btfss	3,2
  6831  1169  07D2               	addwf	___fladd@f2+2,f
  6832  116A  084F               	movf	___fladd@f1+3,w
  6833  116B  1103               	clrz
  6834  116C  1803               	skipnc
  6835  116D  3E01               	addlw	1
  6836  116E  1D03               	btfss	3,2
  6837  116F  07D3               	addwf	___fladd@f2+3,f
  6838  1170  1FD3               	btfss	___fladd@f2+3,7
  6839  1171  2980               	goto	l3157
  6840  1172  30FF               	movlw	255
  6841  1173  06D0               	xorwf	___fladd@f2,f
  6842  1174  06D1               	xorwf	___fladd@f2+1,f
  6843  1175  06D2               	xorwf	___fladd@f2+2,f
  6844  1176  06D3               	xorwf	___fladd@f2+3,f
  6845  1177  0AD0               	incf	___fladd@f2,f
  6846  1178  1903               	skipnz
  6847  1179  0AD1               	incf	___fladd@f2+1,f
  6848  117A  1903               	skipnz
  6849  117B  0AD2               	incf	___fladd@f2+2,f
  6850  117C  1903               	skipnz
  6851  117D  0AD3               	incf	___fladd@f2+3,f
  6852  117E  01D8               	clrf	___fladd@sign
  6853  117F  0AD8               	incf	___fladd@sign,f
  6854  1180                     l3157:	
  6855  1180  0853               	movf	___fladd@f2+3,w
  6856  1181  00A3               	movwf	___flpack@arg+3
  6857  1182  0852               	movf	___fladd@f2+2,w
  6858  1183  00A2               	movwf	___flpack@arg+2
  6859  1184  0851               	movf	___fladd@f2+1,w
  6860  1185  00A1               	movwf	___flpack@arg+1
  6861  1186  0850               	movf	___fladd@f2,w
  6862  1187  00A0               	movwf	___flpack@arg
  6863  1188  085A               	movf	___fladd@exp1,w
  6864  1189  00A4               	movwf	___flpack@exp
  6865  118A  0858               	movf	___fladd@sign,w
  6866  118B  00A5               	movwf	___flpack@sign
  6867  118C  2756               	fcall	___flpack
  6868  118D  0823               	movf	?___flpack+3,w
  6869  118E  00CF               	movwf	?___fladd+3
  6870  118F  0822               	movf	?___flpack+2,w
  6871  1190  00CE               	movwf	?___fladd+2
  6872  1191  0821               	movf	?___flpack+1,w
  6873  1192  00CD               	movwf	?___fladd+1
  6874  1193  0820               	movf	?___flpack,w
  6875  1194  00CC               	movwf	?___fladd
  6876  1195  0008               	return
  6877  1196                     __end_of___fladd:	
  6878  1196                     __ptext3:	
  6879 ;; *************** function _measure_inductance *****************
  6880 ;; Defined at:
  6881 ;;		line 469 in file "../../../src/LC-meter.c"
  6882 ;; Parameters:    Size  Location     Type
  6883 ;;		None
  6884 ;; Auto vars:     Size  Location     Type
  6885 ;;  Lin             4   59[BANK1 ] unsigned char 
  6886 ;;  denominator     4   24[BANK1 ] unsigned char 
  6887 ;;  numerator       4   20[BANK1 ] unsigned char 
  6888 ;;  var             2   57[BANK1 ] unsigned short 
  6889 ;;  unit            1   44[BANK1 ] unsigned char 
  6890 ;; Return value:  Size  Location     Type
  6891 ;;		None               void
  6892 ;; Registers used:
  6893 ;;		wreg, status,2, status,0, btemp+1, pclath, cstack
  6894 ;; Tracked objects:
  6895 ;;		On entry : 300/0
  6896 ;;		On exit  : 100/100
  6897 ;;		Unchanged: 0/0
  6898 ;; Data sizes:     COMMON   BANK0   BANK1   BANK3   BANK2
  6899 ;;      Params:         0       0       0       0       0
  6900 ;;      Locals:         0       0      43       0       0
  6901 ;;      Temps:          0       0       0       0       0
  6902 ;;      Totals:         0       0      43       0       0
  6903 ;;Total ram usage:       43 bytes
  6904 ;; Hardware stack levels used:    1
  6905 ;; Hardware stack levels required when called:    4
  6906 ;; This function calls:
  6907 ;;		___fldiv
  6908 ;;		___flge
  6909 ;;		___flmul
  6910 ;;		___flsub
  6911 ;;		___fltol
  6912 ;;		___lwtofl
  6913 ;;		_measure_freq
  6914 ;;		_print_reading
  6915 ;;		_print_unit
  6916 ;; This function is called by:
  6917 ;;		_main
  6918 ;; This function uses a non-reentrant model
  6919 ;;
  6920                           
  6921                           
  6922                           ;psect for function _measure_inductance
  6923  1196                     _measure_inductance:	
  6924                           
  6925                           ;LC-meter.c: 470: unsigned char unit;
  6926                           ;LC-meter.c: 471: unsigned short int var;
  6927                           ;LC-meter.c: 473: double Lin, numerator, denominator;
  6928                           ;LC-meter.c: 479: var = measure_freq();
  6929                           
  6930                           ;incstack = 0
  6931                           ; Regs used in _measure_inductance: [wreg+status,2+status,0+btemp+1+pclath+cstack]
  6932  1196  27A5               	fcall	_measure_freq
  6933  1197  0874               	movf	?_measure_freq+1,w
  6934  1198  1683               	bsf	3,5	;RP0=1, select bank1
  6935  1199  00DA               	movwf	(measure_inductance@var+1)^(0+128)
  6936  119A  0873               	movf	?_measure_freq,w
  6937  119B  00D9               	movwf	measure_inductance@var^(0+128)
  6938                           
  6939                           ;LC-meter.c: 481: F3 = (double)var;
  6940  119C  085A               	movf	(measure_inductance@var+1)^(0+128),w
  6941  119D  1283               	bcf	3,5	;RP0=0, select bank0
  6942  119E  00A9               	movwf	___lwtofl@c+1
  6943  119F  1683               	bsf	3,5	;RP0=1, select bank1
  6944  11A0  0859               	movf	measure_inductance@var^(0+128),w
  6945  11A1  1283               	bcf	3,5	;RP0=0, select bank0
  6946  11A2  00A8               	movwf	___lwtofl@c
  6947  11A3  120A  158A  27E9  160A  118A  	fcall	___lwtofl
  6948  11A8  082B               	movf	?___lwtofl+3,w
  6949  11A9  1683               	bsf	3,5	;RP0=1, select bank3
  6950  11AA  1703               	bsf	3,6	;RP1=1, select bank3
  6951  11AB  00CE               	movwf	(_F3+3)^(0+384)
  6952  11AC  1283               	bcf	3,5	;RP0=0, select bank0
  6953  11AD  1303               	bcf	3,6	;RP1=0, select bank0
  6954  11AE  082A               	movf	?___lwtofl+2,w
  6955  11AF  1683               	bsf	3,5	;RP0=1, select bank3
  6956  11B0  1703               	bsf	3,6	;RP1=1, select bank3
  6957  11B1  00CD               	movwf	(_F3+2)^(0+384)
  6958  11B2  1283               	bcf	3,5	;RP0=0, select bank0
  6959  11B3  1303               	bcf	3,6	;RP1=0, select bank0
  6960  11B4  0829               	movf	?___lwtofl+1,w
  6961  11B5  1683               	bsf	3,5	;RP0=1, select bank3
  6962  11B6  1703               	bsf	3,6	;RP1=1, select bank3
  6963  11B7  00CC               	movwf	(_F3+1)^(0+384)
  6964  11B8  1283               	bcf	3,5	;RP0=0, select bank0
  6965  11B9  1303               	bcf	3,6	;RP1=0, select bank0
  6966  11BA  0828               	movf	?___lwtofl,w
  6967  11BB  1683               	bsf	3,5	;RP0=1, select bank3
  6968  11BC  1703               	bsf	3,6	;RP1=1, select bank3
  6969  11BD  00CB               	movwf	_F3^(0+384)
  6970                           
  6971                           ;LC-meter.c: 482: if(F3 > F1)
  6972  11BE  085C               	movf	(_F1+3)^(0+384),w
  6973  11BF  1283               	bcf	3,5	;RP0=0, select bank0
  6974  11C0  1303               	bcf	3,6	;RP1=0, select bank0
  6975  11C1  00A3               	movwf	___flge@ff1+3
  6976  11C2  1683               	bsf	3,5	;RP0=1, select bank3
  6977  11C3  1703               	bsf	3,6	;RP1=1, select bank3
  6978  11C4  085B               	movf	(_F1+2)^(0+384),w
  6979  11C5  1283               	bcf	3,5	;RP0=0, select bank0
  6980  11C6  1303               	bcf	3,6	;RP1=0, select bank0
  6981  11C7  00A2               	movwf	___flge@ff1+2
  6982  11C8  1683               	bsf	3,5	;RP0=1, select bank3
  6983  11C9  1703               	bsf	3,6	;RP1=1, select bank3
  6984  11CA  085A               	movf	(_F1+1)^(0+384),w
  6985  11CB  1283               	bcf	3,5	;RP0=0, select bank0
  6986  11CC  1303               	bcf	3,6	;RP1=0, select bank0
  6987  11CD  00A1               	movwf	___flge@ff1+1
  6988  11CE  1683               	bsf	3,5	;RP0=1, select bank3
  6989  11CF  1703               	bsf	3,6	;RP1=1, select bank3
  6990  11D0  0859               	movf	_F1^(0+384),w
  6991  11D1  1283               	bcf	3,5	;RP0=0, select bank0
  6992  11D2  1303               	bcf	3,6	;RP1=0, select bank0
  6993  11D3  00A0               	movwf	___flge@ff1
  6994  11D4  1683               	bsf	3,5	;RP0=1, select bank3
  6995  11D5  1703               	bsf	3,6	;RP1=1, select bank3
  6996  11D6  084E               	movf	(_F3+3)^(0+384),w
  6997  11D7  1283               	bcf	3,5	;RP0=0, select bank0
  6998  11D8  1303               	bcf	3,6	;RP1=0, select bank0
  6999  11D9  00A7               	movwf	___flge@ff2+3
  7000  11DA  1683               	bsf	3,5	;RP0=1, select bank3
  7001  11DB  1703               	bsf	3,6	;RP1=1, select bank3
  7002  11DC  084D               	movf	(_F3+2)^(0+384),w
  7003  11DD  1283               	bcf	3,5	;RP0=0, select bank0
  7004  11DE  1303               	bcf	3,6	;RP1=0, select bank0
  7005  11DF  00A6               	movwf	___flge@ff2+2
  7006  11E0  1683               	bsf	3,5	;RP0=1, select bank3
  7007  11E1  1703               	bsf	3,6	;RP1=1, select bank3
  7008  11E2  084C               	movf	(_F3+1)^(0+384),w
  7009  11E3  1283               	bcf	3,5	;RP0=0, select bank0
  7010  11E4  1303               	bcf	3,6	;RP1=0, select bank0
  7011  11E5  00A5               	movwf	___flge@ff2+1
  7012  11E6  1683               	bsf	3,5	;RP0=1, select bank3
  7013  11E7  1703               	bsf	3,6	;RP1=1, select bank3
  7014  11E8  084B               	movf	_F3^(0+384),w
  7015  11E9  1283               	bcf	3,5	;RP0=0, select bank0
  7016  11EA  1303               	bcf	3,6	;RP1=0, select bank0
  7017  11EB  00A4               	movwf	___flge@ff2
  7018  11EC  270A  160A  118A   	fcall	___flge
  7019  11EF  1803               	btfsc	3,0
  7020  11F0  29FB               	goto	l3781
  7021                           
  7022                           ;LC-meter.c: 483: F3 = F1;
  7023  11F1  1683               	bsf	3,5	;RP0=1, select bank3
  7024  11F2  1703               	bsf	3,6	;RP1=1, select bank3
  7025  11F3  085C               	movf	(_F1+3)^(0+384),w
  7026  11F4  00CE               	movwf	(_F3+3)^(0+384)
  7027  11F5  085B               	movf	(_F1+2)^(0+384),w
  7028  11F6  00CD               	movwf	(_F3+2)^(0+384)
  7029  11F7  085A               	movf	(_F1+1)^(0+384),w
  7030  11F8  00CC               	movwf	(_F3+1)^(0+384)
  7031  11F9  0859               	movf	_F1^(0+384),w
  7032  11FA  00CB               	movwf	_F3^(0+384)
  7033  11FB                     l3781:	
  7034                           
  7035                           ;LC-meter.c: 485: numerator = ((F1 * F1) - (F3 * F3)) * ((F1 * F1) - (F2 - F2)) * (100 *
      +                           100);
  7036  11FB  1683               	bsf	3,5	;RP0=1, select bank3
  7037  11FC  1703               	bsf	3,6	;RP1=1, select bank3
  7038  11FD  084A               	movf	(_F2+3)^(0+384),w
  7039  11FE  1283               	bcf	3,5	;RP0=0, select bank0
  7040  11FF  1303               	bcf	3,6	;RP1=0, select bank0
  7041  1200  00DE               	movwf	___flsub@f2+3
  7042  1201  1683               	bsf	3,5	;RP0=1, select bank3
  7043  1202  1703               	bsf	3,6	;RP1=1, select bank3
  7044  1203  0849               	movf	(_F2+2)^(0+384),w
  7045  1204  1283               	bcf	3,5	;RP0=0, select bank0
  7046  1205  1303               	bcf	3,6	;RP1=0, select bank0
  7047  1206  00DD               	movwf	___flsub@f2+2
  7048  1207  1683               	bsf	3,5	;RP0=1, select bank3
  7049  1208  1703               	bsf	3,6	;RP1=1, select bank3
  7050  1209  0848               	movf	(_F2+1)^(0+384),w
  7051  120A  1283               	bcf	3,5	;RP0=0, select bank0
  7052  120B  1303               	bcf	3,6	;RP1=0, select bank0
  7053  120C  00DC               	movwf	___flsub@f2+1
  7054  120D  1683               	bsf	3,5	;RP0=1, select bank3
  7055  120E  1703               	bsf	3,6	;RP1=1, select bank3
  7056  120F  0847               	movf	_F2^(0+384),w
  7057  1210  1283               	bcf	3,5	;RP0=0, select bank0
  7058  1211  1303               	bcf	3,6	;RP1=0, select bank0
  7059  1212  00DB               	movwf	___flsub@f2
  7060  1213  1683               	bsf	3,5	;RP0=1, select bank3
  7061  1214  1703               	bsf	3,6	;RP1=1, select bank3
  7062  1215  084A               	movf	(_F2+3)^(0+384),w
  7063  1216  1283               	bcf	3,5	;RP0=0, select bank0
  7064  1217  1303               	bcf	3,6	;RP1=0, select bank0
  7065  1218  00E2               	movwf	___flsub@f1+3
  7066  1219  1683               	bsf	3,5	;RP0=1, select bank3
  7067  121A  1703               	bsf	3,6	;RP1=1, select bank3
  7068  121B  0849               	movf	(_F2+2)^(0+384),w
  7069  121C  1283               	bcf	3,5	;RP0=0, select bank0
  7070  121D  1303               	bcf	3,6	;RP1=0, select bank0
  7071  121E  00E1               	movwf	___flsub@f1+2
  7072  121F  1683               	bsf	3,5	;RP0=1, select bank3
  7073  1220  1703               	bsf	3,6	;RP1=1, select bank3
  7074  1221  0848               	movf	(_F2+1)^(0+384),w
  7075  1222  1283               	bcf	3,5	;RP0=0, select bank0
  7076  1223  1303               	bcf	3,6	;RP1=0, select bank0
  7077  1224  00E0               	movwf	___flsub@f1+1
  7078  1225  1683               	bsf	3,5	;RP0=1, select bank3
  7079  1226  1703               	bsf	3,6	;RP1=1, select bank3
  7080  1227  0847               	movf	_F2^(0+384),w
  7081  1228  1283               	bcf	3,5	;RP0=0, select bank0
  7082  1229  1303               	bcf	3,6	;RP1=0, select bank0
  7083  122A  00DF               	movwf	___flsub@f1
  7084  122B  120A  158A  275D  160A  118A  	fcall	___flsub
  7085  1230  085E               	movf	?___flsub+3,w
  7086  1231  1683               	bsf	3,5	;RP0=1, select bank1
  7087  1232  00BF               	movwf	(_measure_inductance$810+3)^(0+128)
  7088  1233  1283               	bcf	3,5	;RP0=0, select bank0
  7089  1234  085D               	movf	?___flsub+2,w
  7090  1235  1683               	bsf	3,5	;RP0=1, select bank1
  7091  1236  00BE               	movwf	(_measure_inductance$810+2)^(0+128)
  7092  1237  1283               	bcf	3,5	;RP0=0, select bank0
  7093  1238  085C               	movf	?___flsub+1,w
  7094  1239  1683               	bsf	3,5	;RP0=1, select bank1
  7095  123A  00BD               	movwf	(_measure_inductance$810+1)^(0+128)
  7096  123B  1283               	bcf	3,5	;RP0=0, select bank0
  7097  123C  085B               	movf	?___flsub,w
  7098  123D  1683               	bsf	3,5	;RP0=1, select bank1
  7099  123E  00BC               	movwf	_measure_inductance$810^(0+128)
  7100                           
  7101                           ;LC-meter.c: 485: numerator = ((F1 * F1) - (F3 * F3)) * ((F1 * F1) - (F2 - F2)) * (100 *
      +                           100);
  7102  123F  083F               	movf	(_measure_inductance$810+3)^(0+128),w
  7103  1240  1283               	bcf	3,5	;RP0=0, select bank0
  7104  1241  00DE               	movwf	___flsub@f2+3
  7105  1242  1683               	bsf	3,5	;RP0=1, select bank1
  7106  1243  083E               	movf	(_measure_inductance$810+2)^(0+128),w
  7107  1244  1283               	bcf	3,5	;RP0=0, select bank0
  7108  1245  00DD               	movwf	___flsub@f2+2
  7109  1246  1683               	bsf	3,5	;RP0=1, select bank1
  7110  1247  083D               	movf	(_measure_inductance$810+1)^(0+128),w
  7111  1248  1283               	bcf	3,5	;RP0=0, select bank0
  7112  1249  00DC               	movwf	___flsub@f2+1
  7113  124A  1683               	bsf	3,5	;RP0=1, select bank1
  7114  124B  083C               	movf	_measure_inductance$810^(0+128),w
  7115  124C  1283               	bcf	3,5	;RP0=0, select bank0
  7116  124D  00DB               	movwf	___flsub@f2
  7117  124E  1683               	bsf	3,5	;RP0=1, select bank3
  7118  124F  1703               	bsf	3,6	;RP1=1, select bank3
  7119  1250  085C               	movf	(_F1+3)^(0+384),w
  7120  1251  1283               	bcf	3,5	;RP0=0, select bank0
  7121  1252  1303               	bcf	3,6	;RP1=0, select bank0
  7122  1253  00BC               	movwf	___flmul@f1+3
  7123  1254  1683               	bsf	3,5	;RP0=1, select bank3
  7124  1255  1703               	bsf	3,6	;RP1=1, select bank3
  7125  1256  085B               	movf	(_F1+2)^(0+384),w
  7126  1257  1283               	bcf	3,5	;RP0=0, select bank0
  7127  1258  1303               	bcf	3,6	;RP1=0, select bank0
  7128  1259  00BB               	movwf	___flmul@f1+2
  7129  125A  1683               	bsf	3,5	;RP0=1, select bank3
  7130  125B  1703               	bsf	3,6	;RP1=1, select bank3
  7131  125C  085A               	movf	(_F1+1)^(0+384),w
  7132  125D  1283               	bcf	3,5	;RP0=0, select bank0
  7133  125E  1303               	bcf	3,6	;RP1=0, select bank0
  7134  125F  00BA               	movwf	___flmul@f1+1
  7135  1260  1683               	bsf	3,5	;RP0=1, select bank3
  7136  1261  1703               	bsf	3,6	;RP1=1, select bank3
  7137  1262  0859               	movf	_F1^(0+384),w
  7138  1263  1283               	bcf	3,5	;RP0=0, select bank0
  7139  1264  1303               	bcf	3,6	;RP1=0, select bank0
  7140  1265  00B9               	movwf	___flmul@f1
  7141  1266  1683               	bsf	3,5	;RP0=1, select bank3
  7142  1267  1703               	bsf	3,6	;RP1=1, select bank3
  7143  1268  085C               	movf	(_F1+3)^(0+384),w
  7144  1269  1283               	bcf	3,5	;RP0=0, select bank0
  7145  126A  1303               	bcf	3,6	;RP1=0, select bank0
  7146  126B  00C0               	movwf	___flmul@f2+3
  7147  126C  1683               	bsf	3,5	;RP0=1, select bank3
  7148  126D  1703               	bsf	3,6	;RP1=1, select bank3
  7149  126E  085B               	movf	(_F1+2)^(0+384),w
  7150  126F  1283               	bcf	3,5	;RP0=0, select bank0
  7151  1270  1303               	bcf	3,6	;RP1=0, select bank0
  7152  1271  00BF               	movwf	___flmul@f2+2
  7153  1272  1683               	bsf	3,5	;RP0=1, select bank3
  7154  1273  1703               	bsf	3,6	;RP1=1, select bank3
  7155  1274  085A               	movf	(_F1+1)^(0+384),w
  7156  1275  1283               	bcf	3,5	;RP0=0, select bank0
  7157  1276  1303               	bcf	3,6	;RP1=0, select bank0
  7158  1277  00BE               	movwf	___flmul@f2+1
  7159  1278  1683               	bsf	3,5	;RP0=1, select bank3
  7160  1279  1703               	bsf	3,6	;RP1=1, select bank3
  7161  127A  0859               	movf	_F1^(0+384),w
  7162  127B  1283               	bcf	3,5	;RP0=0, select bank0
  7163  127C  1303               	bcf	3,6	;RP1=0, select bank0
  7164  127D  00BD               	movwf	___flmul@f2
  7165  127E  2674               	fcall	___flmul
  7166  127F  083C               	movf	?___flmul+3,w
  7167  1280  00E2               	movwf	___flsub@f1+3
  7168  1281  083B               	movf	?___flmul+2,w
  7169  1282  00E1               	movwf	___flsub@f1+2
  7170  1283  083A               	movf	?___flmul+1,w
  7171  1284  00E0               	movwf	___flsub@f1+1
  7172  1285  0839               	movf	?___flmul,w
  7173  1286  00DF               	movwf	___flsub@f1
  7174  1287  120A  158A  275D  160A  118A  	fcall	___flsub
  7175  128C  085E               	movf	?___flsub+3,w
  7176  128D  1683               	bsf	3,5	;RP0=1, select bank1
  7177  128E  00D0               	movwf	(_measure_inductance$811+3)^(0+128)
  7178  128F  1283               	bcf	3,5	;RP0=0, select bank0
  7179  1290  085D               	movf	?___flsub+2,w
  7180  1291  1683               	bsf	3,5	;RP0=1, select bank1
  7181  1292  00CF               	movwf	(_measure_inductance$811+2)^(0+128)
  7182  1293  1283               	bcf	3,5	;RP0=0, select bank0
  7183  1294  085C               	movf	?___flsub+1,w
  7184  1295  1683               	bsf	3,5	;RP0=1, select bank1
  7185  1296  00CE               	movwf	(_measure_inductance$811+1)^(0+128)
  7186  1297  1283               	bcf	3,5	;RP0=0, select bank0
  7187  1298  085B               	movf	?___flsub,w
  7188  1299  1683               	bsf	3,5	;RP0=1, select bank1
  7189  129A  00CD               	movwf	_measure_inductance$811^(0+128)
  7190                           
  7191                           ;LC-meter.c: 485: numerator = ((F1 * F1) - (F3 * F3)) * ((F1 * F1) - (F2 - F2)) * (100 *
      +                           100);
  7192  129B  1703               	bsf	3,6	;RP1=1, select bank3
  7193  129C  084E               	movf	(_F3+3)^(0+384),w
  7194  129D  1283               	bcf	3,5	;RP0=0, select bank0
  7195  129E  1303               	bcf	3,6	;RP1=0, select bank0
  7196  129F  00BC               	movwf	___flmul@f1+3
  7197  12A0  1683               	bsf	3,5	;RP0=1, select bank3
  7198  12A1  1703               	bsf	3,6	;RP1=1, select bank3
  7199  12A2  084D               	movf	(_F3+2)^(0+384),w
  7200  12A3  1283               	bcf	3,5	;RP0=0, select bank0
  7201  12A4  1303               	bcf	3,6	;RP1=0, select bank0
  7202  12A5  00BB               	movwf	___flmul@f1+2
  7203  12A6  1683               	bsf	3,5	;RP0=1, select bank3
  7204  12A7  1703               	bsf	3,6	;RP1=1, select bank3
  7205  12A8  084C               	movf	(_F3+1)^(0+384),w
  7206  12A9  1283               	bcf	3,5	;RP0=0, select bank0
  7207  12AA  1303               	bcf	3,6	;RP1=0, select bank0
  7208  12AB  00BA               	movwf	___flmul@f1+1
  7209  12AC  1683               	bsf	3,5	;RP0=1, select bank3
  7210  12AD  1703               	bsf	3,6	;RP1=1, select bank3
  7211  12AE  084B               	movf	_F3^(0+384),w
  7212  12AF  1283               	bcf	3,5	;RP0=0, select bank0
  7213  12B0  1303               	bcf	3,6	;RP1=0, select bank0
  7214  12B1  00B9               	movwf	___flmul@f1
  7215  12B2  1683               	bsf	3,5	;RP0=1, select bank3
  7216  12B3  1703               	bsf	3,6	;RP1=1, select bank3
  7217  12B4  084E               	movf	(_F3+3)^(0+384),w
  7218  12B5  1283               	bcf	3,5	;RP0=0, select bank0
  7219  12B6  1303               	bcf	3,6	;RP1=0, select bank0
  7220  12B7  00C0               	movwf	___flmul@f2+3
  7221  12B8  1683               	bsf	3,5	;RP0=1, select bank3
  7222  12B9  1703               	bsf	3,6	;RP1=1, select bank3
  7223  12BA  084D               	movf	(_F3+2)^(0+384),w
  7224  12BB  1283               	bcf	3,5	;RP0=0, select bank0
  7225  12BC  1303               	bcf	3,6	;RP1=0, select bank0
  7226  12BD  00BF               	movwf	___flmul@f2+2
  7227  12BE  1683               	bsf	3,5	;RP0=1, select bank3
  7228  12BF  1703               	bsf	3,6	;RP1=1, select bank3
  7229  12C0  084C               	movf	(_F3+1)^(0+384),w
  7230  12C1  1283               	bcf	3,5	;RP0=0, select bank0
  7231  12C2  1303               	bcf	3,6	;RP1=0, select bank0
  7232  12C3  00BE               	movwf	___flmul@f2+1
  7233  12C4  1683               	bsf	3,5	;RP0=1, select bank3
  7234  12C5  1703               	bsf	3,6	;RP1=1, select bank3
  7235  12C6  084B               	movf	_F3^(0+384),w
  7236  12C7  1283               	bcf	3,5	;RP0=0, select bank0
  7237  12C8  1303               	bcf	3,6	;RP1=0, select bank0
  7238  12C9  00BD               	movwf	___flmul@f2
  7239  12CA  2674  160A  118A   	fcall	___flmul
  7240  12CD  083C               	movf	?___flmul+3,w
  7241  12CE  00DE               	movwf	___flsub@f2+3
  7242  12CF  083B               	movf	?___flmul+2,w
  7243  12D0  00DD               	movwf	___flsub@f2+2
  7244  12D1  083A               	movf	?___flmul+1,w
  7245  12D2  00DC               	movwf	___flsub@f2+1
  7246  12D3  0839               	movf	?___flmul,w
  7247  12D4  00DB               	movwf	___flsub@f2
  7248  12D5  1683               	bsf	3,5	;RP0=1, select bank3
  7249  12D6  1703               	bsf	3,6	;RP1=1, select bank3
  7250  12D7  085C               	movf	(_F1+3)^(0+384),w
  7251  12D8  1283               	bcf	3,5	;RP0=0, select bank0
  7252  12D9  1303               	bcf	3,6	;RP1=0, select bank0
  7253  12DA  00BC               	movwf	___flmul@f1+3
  7254  12DB  1683               	bsf	3,5	;RP0=1, select bank3
  7255  12DC  1703               	bsf	3,6	;RP1=1, select bank3
  7256  12DD  085B               	movf	(_F1+2)^(0+384),w
  7257  12DE  1283               	bcf	3,5	;RP0=0, select bank0
  7258  12DF  1303               	bcf	3,6	;RP1=0, select bank0
  7259  12E0  00BB               	movwf	___flmul@f1+2
  7260  12E1  1683               	bsf	3,5	;RP0=1, select bank3
  7261  12E2  1703               	bsf	3,6	;RP1=1, select bank3
  7262  12E3  085A               	movf	(_F1+1)^(0+384),w
  7263  12E4  1283               	bcf	3,5	;RP0=0, select bank0
  7264  12E5  1303               	bcf	3,6	;RP1=0, select bank0
  7265  12E6  00BA               	movwf	___flmul@f1+1
  7266  12E7  1683               	bsf	3,5	;RP0=1, select bank3
  7267  12E8  1703               	bsf	3,6	;RP1=1, select bank3
  7268  12E9  0859               	movf	_F1^(0+384),w
  7269  12EA  1283               	bcf	3,5	;RP0=0, select bank0
  7270  12EB  1303               	bcf	3,6	;RP1=0, select bank0
  7271  12EC  00B9               	movwf	___flmul@f1
  7272  12ED  1683               	bsf	3,5	;RP0=1, select bank3
  7273  12EE  1703               	bsf	3,6	;RP1=1, select bank3
  7274  12EF  085C               	movf	(_F1+3)^(0+384),w
  7275  12F0  1283               	bcf	3,5	;RP0=0, select bank0
  7276  12F1  1303               	bcf	3,6	;RP1=0, select bank0
  7277  12F2  00C0               	movwf	___flmul@f2+3
  7278  12F3  1683               	bsf	3,5	;RP0=1, select bank3
  7279  12F4  1703               	bsf	3,6	;RP1=1, select bank3
  7280  12F5  085B               	movf	(_F1+2)^(0+384),w
  7281  12F6  1283               	bcf	3,5	;RP0=0, select bank0
  7282  12F7  1303               	bcf	3,6	;RP1=0, select bank0
  7283  12F8  00BF               	movwf	___flmul@f2+2
  7284  12F9  1683               	bsf	3,5	;RP0=1, select bank3
  7285  12FA  1703               	bsf	3,6	;RP1=1, select bank3
  7286  12FB  085A               	movf	(_F1+1)^(0+384),w
  7287  12FC  1283               	bcf	3,5	;RP0=0, select bank0
  7288  12FD  1303               	bcf	3,6	;RP1=0, select bank0
  7289  12FE  00BE               	movwf	___flmul@f2+1
  7290  12FF  1683               	bsf	3,5	;RP0=1, select bank3
  7291  1300  1703               	bsf	3,6	;RP1=1, select bank3
  7292  1301  0859               	movf	_F1^(0+384),w
  7293  1302  1283               	bcf	3,5	;RP0=0, select bank0
  7294  1303  1303               	bcf	3,6	;RP1=0, select bank0
  7295  1304  00BD               	movwf	___flmul@f2
  7296  1305  2674               	fcall	___flmul
  7297  1306  083C               	movf	?___flmul+3,w
  7298  1307  00E2               	movwf	___flsub@f1+3
  7299  1308  083B               	movf	?___flmul+2,w
  7300  1309  00E1               	movwf	___flsub@f1+2
  7301  130A  083A               	movf	?___flmul+1,w
  7302  130B  00E0               	movwf	___flsub@f1+1
  7303  130C  0839               	movf	?___flmul,w
  7304  130D  00DF               	movwf	___flsub@f1
  7305  130E  120A  158A  275D  160A  118A  	fcall	___flsub
  7306  1313  085E               	movf	?___flsub+3,w
  7307  1314  1683               	bsf	3,5	;RP0=1, select bank1
  7308  1315  00D4               	movwf	(_measure_inductance$812+3)^(0+128)
  7309  1316  1283               	bcf	3,5	;RP0=0, select bank0
  7310  1317  085D               	movf	?___flsub+2,w
  7311  1318  1683               	bsf	3,5	;RP0=1, select bank1
  7312  1319  00D3               	movwf	(_measure_inductance$812+2)^(0+128)
  7313  131A  1283               	bcf	3,5	;RP0=0, select bank0
  7314  131B  085C               	movf	?___flsub+1,w
  7315  131C  1683               	bsf	3,5	;RP0=1, select bank1
  7316  131D  00D2               	movwf	(_measure_inductance$812+1)^(0+128)
  7317  131E  1283               	bcf	3,5	;RP0=0, select bank0
  7318  131F  085B               	movf	?___flsub,w
  7319  1320  1683               	bsf	3,5	;RP0=1, select bank1
  7320  1321  00D1               	movwf	_measure_inductance$812^(0+128)
  7321                           
  7322                           ;LC-meter.c: 485: numerator = ((F1 * F1) - (F3 * F3)) * ((F1 * F1) - (F2 - F2)) * (100 *
      +                           100);
  7323  1322  0850               	movf	(_measure_inductance$811+3)^(0+128),w
  7324  1323  1283               	bcf	3,5	;RP0=0, select bank0
  7325  1324  00BC               	movwf	___flmul@f1+3
  7326  1325  1683               	bsf	3,5	;RP0=1, select bank1
  7327  1326  084F               	movf	(_measure_inductance$811+2)^(0+128),w
  7328  1327  1283               	bcf	3,5	;RP0=0, select bank0
  7329  1328  00BB               	movwf	___flmul@f1+2
  7330  1329  1683               	bsf	3,5	;RP0=1, select bank1
  7331  132A  084E               	movf	(_measure_inductance$811+1)^(0+128),w
  7332  132B  1283               	bcf	3,5	;RP0=0, select bank0
  7333  132C  00BA               	movwf	___flmul@f1+1
  7334  132D  1683               	bsf	3,5	;RP0=1, select bank1
  7335  132E  084D               	movf	_measure_inductance$811^(0+128),w
  7336  132F  1283               	bcf	3,5	;RP0=0, select bank0
  7337  1330  00B9               	movwf	___flmul@f1
  7338  1331  1683               	bsf	3,5	;RP0=1, select bank1
  7339  1332  0854               	movf	(_measure_inductance$812+3)^(0+128),w
  7340  1333  1283               	bcf	3,5	;RP0=0, select bank0
  7341  1334  00C0               	movwf	___flmul@f2+3
  7342  1335  1683               	bsf	3,5	;RP0=1, select bank1
  7343  1336  0853               	movf	(_measure_inductance$812+2)^(0+128),w
  7344  1337  1283               	bcf	3,5	;RP0=0, select bank0
  7345  1338  00BF               	movwf	___flmul@f2+2
  7346  1339  1683               	bsf	3,5	;RP0=1, select bank1
  7347  133A  0852               	movf	(_measure_inductance$812+1)^(0+128),w
  7348  133B  1283               	bcf	3,5	;RP0=0, select bank0
  7349  133C  00BE               	movwf	___flmul@f2+1
  7350  133D  1683               	bsf	3,5	;RP0=1, select bank1
  7351  133E  0851               	movf	_measure_inductance$812^(0+128),w
  7352  133F  1283               	bcf	3,5	;RP0=0, select bank0
  7353  1340  00BD               	movwf	___flmul@f2
  7354  1341  2674  160A  118A   	fcall	___flmul
  7355  1344  083C               	movf	?___flmul+3,w
  7356  1345  1683               	bsf	3,5	;RP0=1, select bank1
  7357  1346  00D8               	movwf	(_measure_inductance$813+3)^(0+128)
  7358  1347  1283               	bcf	3,5	;RP0=0, select bank0
  7359  1348  083B               	movf	?___flmul+2,w
  7360  1349  1683               	bsf	3,5	;RP0=1, select bank1
  7361  134A  00D7               	movwf	(_measure_inductance$813+2)^(0+128)
  7362  134B  1283               	bcf	3,5	;RP0=0, select bank0
  7363  134C  083A               	movf	?___flmul+1,w
  7364  134D  1683               	bsf	3,5	;RP0=1, select bank1
  7365  134E  00D6               	movwf	(_measure_inductance$813+1)^(0+128)
  7366  134F  1283               	bcf	3,5	;RP0=0, select bank0
  7367  1350  0839               	movf	?___flmul,w
  7368  1351  1683               	bsf	3,5	;RP0=1, select bank1
  7369  1352  00D5               	movwf	_measure_inductance$813^(0+128)
  7370                           
  7371                           ;LC-meter.c: 485: numerator = ((F1 * F1) - (F3 * F3)) * ((F1 * F1) - (F2 - F2)) * (100 *
      +                           100);
  7372  1353  3046               	movlw	70
  7373  1354  1283               	bcf	3,5	;RP0=0, select bank0
  7374  1355  00BC               	movwf	___flmul@f1+3
  7375  1356  301C               	movlw	28
  7376  1357  00BB               	movwf	___flmul@f1+2
  7377  1358  3040               	movlw	64
  7378  1359  00BA               	movwf	___flmul@f1+1
  7379  135A  01B9               	clrf	___flmul@f1
  7380  135B  1683               	bsf	3,5	;RP0=1, select bank1
  7381  135C  0858               	movf	(_measure_inductance$813+3)^(0+128),w
  7382  135D  1283               	bcf	3,5	;RP0=0, select bank0
  7383  135E  00C0               	movwf	___flmul@f2+3
  7384  135F  1683               	bsf	3,5	;RP0=1, select bank1
  7385  1360  0857               	movf	(_measure_inductance$813+2)^(0+128),w
  7386  1361  1283               	bcf	3,5	;RP0=0, select bank0
  7387  1362  00BF               	movwf	___flmul@f2+2
  7388  1363  1683               	bsf	3,5	;RP0=1, select bank1
  7389  1364  0856               	movf	(_measure_inductance$813+1)^(0+128),w
  7390  1365  1283               	bcf	3,5	;RP0=0, select bank0
  7391  1366  00BE               	movwf	___flmul@f2+1
  7392  1367  1683               	bsf	3,5	;RP0=1, select bank1
  7393  1368  0855               	movf	_measure_inductance$813^(0+128),w
  7394  1369  1283               	bcf	3,5	;RP0=0, select bank0
  7395  136A  00BD               	movwf	___flmul@f2
  7396  136B  2674  160A  118A   	fcall	___flmul
  7397  136E  083C               	movf	?___flmul+3,w
  7398  136F  1683               	bsf	3,5	;RP0=1, select bank1
  7399  1370  00B7               	movwf	(measure_inductance@numerator+3)^(0+128)
  7400  1371  1283               	bcf	3,5	;RP0=0, select bank0
  7401  1372  083B               	movf	?___flmul+2,w
  7402  1373  1683               	bsf	3,5	;RP0=1, select bank1
  7403  1374  00B6               	movwf	(measure_inductance@numerator+2)^(0+128)
  7404  1375  1283               	bcf	3,5	;RP0=0, select bank0
  7405  1376  083A               	movf	?___flmul+1,w
  7406  1377  1683               	bsf	3,5	;RP0=1, select bank1
  7407  1378  00B5               	movwf	(measure_inductance@numerator+1)^(0+128)
  7408  1379  1283               	bcf	3,5	;RP0=0, select bank0
  7409  137A  0839               	movf	?___flmul,w
  7410  137B  1683               	bsf	3,5	;RP0=1, select bank1
  7411  137C  00B4               	movwf	measure_inductance@numerator^(0+128)
  7412                           
  7413                           ;LC-meter.c: 487: denominator = 4 * 3.14159265358979323846l * 3.14159265358979323846l * 
      +                          F1 * F1 * F2 * F2 * F3 * F3 * CCal;
  7414  137D  1703               	bsf	3,6	;RP1=1, select bank3
  7415  137E  085C               	movf	(_F1+3)^(0+384),w
  7416  137F  1283               	bcf	3,5	;RP0=0, select bank0
  7417  1380  1303               	bcf	3,6	;RP1=0, select bank0
  7418  1381  00BC               	movwf	___flmul@f1+3
  7419  1382  1683               	bsf	3,5	;RP0=1, select bank3
  7420  1383  1703               	bsf	3,6	;RP1=1, select bank3
  7421  1384  085B               	movf	(_F1+2)^(0+384),w
  7422  1385  1283               	bcf	3,5	;RP0=0, select bank0
  7423  1386  1303               	bcf	3,6	;RP1=0, select bank0
  7424  1387  00BB               	movwf	___flmul@f1+2
  7425  1388  1683               	bsf	3,5	;RP0=1, select bank3
  7426  1389  1703               	bsf	3,6	;RP1=1, select bank3
  7427  138A  085A               	movf	(_F1+1)^(0+384),w
  7428  138B  1283               	bcf	3,5	;RP0=0, select bank0
  7429  138C  1303               	bcf	3,6	;RP1=0, select bank0
  7430  138D  00BA               	movwf	___flmul@f1+1
  7431  138E  1683               	bsf	3,5	;RP0=1, select bank3
  7432  138F  1703               	bsf	3,6	;RP1=1, select bank3
  7433  1390  0859               	movf	_F1^(0+384),w
  7434  1391  1283               	bcf	3,5	;RP0=0, select bank0
  7435  1392  1303               	bcf	3,6	;RP1=0, select bank0
  7436  1393  00B9               	movwf	___flmul@f1
  7437  1394  1683               	bsf	3,5	;RP0=1, select bank3
  7438  1395  1703               	bsf	3,6	;RP1=1, select bank3
  7439  1396  085C               	movf	(_F1+3)^(0+384),w
  7440  1397  1283               	bcf	3,5	;RP0=0, select bank0
  7441  1398  1303               	bcf	3,6	;RP1=0, select bank0
  7442  1399  00C0               	movwf	___flmul@f2+3
  7443  139A  1683               	bsf	3,5	;RP0=1, select bank3
  7444  139B  1703               	bsf	3,6	;RP1=1, select bank3
  7445  139C  085B               	movf	(_F1+2)^(0+384),w
  7446  139D  1283               	bcf	3,5	;RP0=0, select bank0
  7447  139E  1303               	bcf	3,6	;RP1=0, select bank0
  7448  139F  00BF               	movwf	___flmul@f2+2
  7449  13A0  1683               	bsf	3,5	;RP0=1, select bank3
  7450  13A1  1703               	bsf	3,6	;RP1=1, select bank3
  7451  13A2  085A               	movf	(_F1+1)^(0+384),w
  7452  13A3  1283               	bcf	3,5	;RP0=0, select bank0
  7453  13A4  1303               	bcf	3,6	;RP1=0, select bank0
  7454  13A5  00BE               	movwf	___flmul@f2+1
  7455  13A6  1683               	bsf	3,5	;RP0=1, select bank3
  7456  13A7  1703               	bsf	3,6	;RP1=1, select bank3
  7457  13A8  0859               	movf	_F1^(0+384),w
  7458  13A9  1283               	bcf	3,5	;RP0=0, select bank0
  7459  13AA  1303               	bcf	3,6	;RP1=0, select bank0
  7460  13AB  00BD               	movwf	___flmul@f2
  7461  13AC  2674  160A  118A   	fcall	___flmul
  7462  13AF  083C               	movf	?___flmul+3,w
  7463  13B0  1683               	bsf	3,5	;RP0=1, select bank1
  7464  13B1  00C3               	movwf	(_measure_inductance$814+3)^(0+128)
  7465  13B2  1283               	bcf	3,5	;RP0=0, select bank0
  7466  13B3  083B               	movf	?___flmul+2,w
  7467  13B4  1683               	bsf	3,5	;RP0=1, select bank1
  7468  13B5  00C2               	movwf	(_measure_inductance$814+2)^(0+128)
  7469  13B6  1283               	bcf	3,5	;RP0=0, select bank0
  7470  13B7  083A               	movf	?___flmul+1,w
  7471  13B8  1683               	bsf	3,5	;RP0=1, select bank1
  7472  13B9  00C1               	movwf	(_measure_inductance$814+1)^(0+128)
  7473  13BA  1283               	bcf	3,5	;RP0=0, select bank0
  7474  13BB  0839               	movf	?___flmul,w
  7475  13BC  1683               	bsf	3,5	;RP0=1, select bank1
  7476  13BD  00C0               	movwf	_measure_inductance$814^(0+128)
  7477                           
  7478                           ;LC-meter.c: 487: denominator = 4 * 3.14159265358979323846l * 3.14159265358979323846l * 
      +                          F1 * F1 * F2 * F2 * F3 * F3 * CCal;
  7479  13BE  1703               	bsf	3,6	;RP1=1, select bank3
  7480  13BF  084A               	movf	(_F2+3)^(0+384),w
  7481  13C0  1283               	bcf	3,5	;RP0=0, select bank0
  7482  13C1  1303               	bcf	3,6	;RP1=0, select bank0
  7483  13C2  00BC               	movwf	___flmul@f1+3
  7484  13C3  1683               	bsf	3,5	;RP0=1, select bank3
  7485  13C4  1703               	bsf	3,6	;RP1=1, select bank3
  7486  13C5  0849               	movf	(_F2+2)^(0+384),w
  7487  13C6  1283               	bcf	3,5	;RP0=0, select bank0
  7488  13C7  1303               	bcf	3,6	;RP1=0, select bank0
  7489  13C8  00BB               	movwf	___flmul@f1+2
  7490  13C9  1683               	bsf	3,5	;RP0=1, select bank3
  7491  13CA  1703               	bsf	3,6	;RP1=1, select bank3
  7492  13CB  0848               	movf	(_F2+1)^(0+384),w
  7493  13CC  1283               	bcf	3,5	;RP0=0, select bank0
  7494  13CD  1303               	bcf	3,6	;RP1=0, select bank0
  7495  13CE  00BA               	movwf	___flmul@f1+1
  7496  13CF  1683               	bsf	3,5	;RP0=1, select bank3
  7497  13D0  1703               	bsf	3,6	;RP1=1, select bank3
  7498  13D1  0847               	movf	_F2^(0+384),w
  7499  13D2  1283               	bcf	3,5	;RP0=0, select bank0
  7500  13D3  1303               	bcf	3,6	;RP1=0, select bank0
  7501  13D4  00B9               	movwf	___flmul@f1
  7502  13D5  1683               	bsf	3,5	;RP0=1, select bank1
  7503  13D6  0843               	movf	(_measure_inductance$814+3)^(0+128),w
  7504  13D7  1283               	bcf	3,5	;RP0=0, select bank0
  7505  13D8  00C0               	movwf	___flmul@f2+3
  7506  13D9  1683               	bsf	3,5	;RP0=1, select bank1
  7507  13DA  0842               	movf	(_measure_inductance$814+2)^(0+128),w
  7508  13DB  1283               	bcf	3,5	;RP0=0, select bank0
  7509  13DC  00BF               	movwf	___flmul@f2+2
  7510  13DD  1683               	bsf	3,5	;RP0=1, select bank1
  7511  13DE  0841               	movf	(_measure_inductance$814+1)^(0+128),w
  7512  13DF  1283               	bcf	3,5	;RP0=0, select bank0
  7513  13E0  00BE               	movwf	___flmul@f2+1
  7514  13E1  1683               	bsf	3,5	;RP0=1, select bank1
  7515  13E2  0840               	movf	_measure_inductance$814^(0+128),w
  7516  13E3  1283               	bcf	3,5	;RP0=0, select bank0
  7517  13E4  00BD               	movwf	___flmul@f2
  7518  13E5  2674  160A  118A   	fcall	___flmul
  7519  13E8  083C               	movf	?___flmul+3,w
  7520  13E9  1683               	bsf	3,5	;RP0=1, select bank1
  7521  13EA  00D0               	movwf	(_measure_inductance$811+3)^(0+128)
  7522  13EB  1283               	bcf	3,5	;RP0=0, select bank0
  7523  13EC  083B               	movf	?___flmul+2,w
  7524  13ED  1683               	bsf	3,5	;RP0=1, select bank1
  7525  13EE  00CF               	movwf	(_measure_inductance$811+2)^(0+128)
  7526  13EF  1283               	bcf	3,5	;RP0=0, select bank0
  7527  13F0  083A               	movf	?___flmul+1,w
  7528  13F1  1683               	bsf	3,5	;RP0=1, select bank1
  7529  13F2  00CE               	movwf	(_measure_inductance$811+1)^(0+128)
  7530  13F3  1283               	bcf	3,5	;RP0=0, select bank0
  7531  13F4  0839               	movf	?___flmul,w
  7532  13F5  1683               	bsf	3,5	;RP0=1, select bank1
  7533  13F6  00CD               	movwf	_measure_inductance$811^(0+128)
  7534                           
  7535                           ;LC-meter.c: 487: denominator = 4 * 3.14159265358979323846l * 3.14159265358979323846l * 
      +                          F1 * F1 * F2 * F2 * F3 * F3 * CCal;
  7536  13F7  1703               	bsf	3,6	;RP1=1, select bank3
  7537  13F8  084A               	movf	(_F2+3)^(0+384),w
  7538  13F9  1283               	bcf	3,5	;RP0=0, select bank0
  7539  13FA  1303               	bcf	3,6	;RP1=0, select bank0
  7540  13FB  00BC               	movwf	___flmul@f1+3
  7541  13FC  1683               	bsf	3,5	;RP0=1, select bank3
  7542  13FD  1703               	bsf	3,6	;RP1=1, select bank3
  7543  13FE  0849               	movf	(_F2+2)^(0+384),w
  7544  13FF  1283               	bcf	3,5	;RP0=0, select bank0
  7545  1400  1303               	bcf	3,6	;RP1=0, select bank0
  7546  1401  00BB               	movwf	___flmul@f1+2
  7547  1402  1683               	bsf	3,5	;RP0=1, select bank3
  7548  1403  1703               	bsf	3,6	;RP1=1, select bank3
  7549  1404  0848               	movf	(_F2+1)^(0+384),w
  7550  1405  1283               	bcf	3,5	;RP0=0, select bank0
  7551  1406  1303               	bcf	3,6	;RP1=0, select bank0
  7552  1407  00BA               	movwf	___flmul@f1+1
  7553  1408  1683               	bsf	3,5	;RP0=1, select bank3
  7554  1409  1703               	bsf	3,6	;RP1=1, select bank3
  7555  140A  0847               	movf	_F2^(0+384),w
  7556  140B  1283               	bcf	3,5	;RP0=0, select bank0
  7557  140C  1303               	bcf	3,6	;RP1=0, select bank0
  7558  140D  00B9               	movwf	___flmul@f1
  7559  140E  1683               	bsf	3,5	;RP0=1, select bank1
  7560  140F  0850               	movf	(_measure_inductance$811+3)^(0+128),w
  7561  1410  1283               	bcf	3,5	;RP0=0, select bank0
  7562  1411  00C0               	movwf	___flmul@f2+3
  7563  1412  1683               	bsf	3,5	;RP0=1, select bank1
  7564  1413  084F               	movf	(_measure_inductance$811+2)^(0+128),w
  7565  1414  1283               	bcf	3,5	;RP0=0, select bank0
  7566  1415  00BF               	movwf	___flmul@f2+2
  7567  1416  1683               	bsf	3,5	;RP0=1, select bank1
  7568  1417  084E               	movf	(_measure_inductance$811+1)^(0+128),w
  7569  1418  1283               	bcf	3,5	;RP0=0, select bank0
  7570  1419  00BE               	movwf	___flmul@f2+1
  7571  141A  1683               	bsf	3,5	;RP0=1, select bank1
  7572  141B  084D               	movf	_measure_inductance$811^(0+128),w
  7573  141C  1283               	bcf	3,5	;RP0=0, select bank0
  7574  141D  00BD               	movwf	___flmul@f2
  7575  141E  2674  160A  118A   	fcall	___flmul
  7576  1421  083C               	movf	?___flmul+3,w
  7577  1422  1683               	bsf	3,5	;RP0=1, select bank1
  7578  1423  00D4               	movwf	(_measure_inductance$812+3)^(0+128)
  7579  1424  1283               	bcf	3,5	;RP0=0, select bank0
  7580  1425  083B               	movf	?___flmul+2,w
  7581  1426  1683               	bsf	3,5	;RP0=1, select bank1
  7582  1427  00D3               	movwf	(_measure_inductance$812+2)^(0+128)
  7583  1428  1283               	bcf	3,5	;RP0=0, select bank0
  7584  1429  083A               	movf	?___flmul+1,w
  7585  142A  1683               	bsf	3,5	;RP0=1, select bank1
  7586  142B  00D2               	movwf	(_measure_inductance$812+1)^(0+128)
  7587  142C  1283               	bcf	3,5	;RP0=0, select bank0
  7588  142D  0839               	movf	?___flmul,w
  7589  142E  1683               	bsf	3,5	;RP0=1, select bank1
  7590  142F  00D1               	movwf	_measure_inductance$812^(0+128)
  7591                           
  7592                           ;LC-meter.c: 487: denominator = 4 * 3.14159265358979323846l * 3.14159265358979323846l * 
      +                          F1 * F1 * F2 * F2 * F3 * F3 * CCal;
  7593  1430  1703               	bsf	3,6	;RP1=1, select bank3
  7594  1431  084E               	movf	(_F3+3)^(0+384),w
  7595  1432  1283               	bcf	3,5	;RP0=0, select bank0
  7596  1433  1303               	bcf	3,6	;RP1=0, select bank0
  7597  1434  00BC               	movwf	___flmul@f1+3
  7598  1435  1683               	bsf	3,5	;RP0=1, select bank3
  7599  1436  1703               	bsf	3,6	;RP1=1, select bank3
  7600  1437  084D               	movf	(_F3+2)^(0+384),w
  7601  1438  1283               	bcf	3,5	;RP0=0, select bank0
  7602  1439  1303               	bcf	3,6	;RP1=0, select bank0
  7603  143A  00BB               	movwf	___flmul@f1+2
  7604  143B  1683               	bsf	3,5	;RP0=1, select bank3
  7605  143C  1703               	bsf	3,6	;RP1=1, select bank3
  7606  143D  084C               	movf	(_F3+1)^(0+384),w
  7607  143E  1283               	bcf	3,5	;RP0=0, select bank0
  7608  143F  1303               	bcf	3,6	;RP1=0, select bank0
  7609  1440  00BA               	movwf	___flmul@f1+1
  7610  1441  1683               	bsf	3,5	;RP0=1, select bank3
  7611  1442  1703               	bsf	3,6	;RP1=1, select bank3
  7612  1443  084B               	movf	_F3^(0+384),w
  7613  1444  1283               	bcf	3,5	;RP0=0, select bank0
  7614  1445  1303               	bcf	3,6	;RP1=0, select bank0
  7615  1446  00B9               	movwf	___flmul@f1
  7616  1447  1683               	bsf	3,5	;RP0=1, select bank1
  7617  1448  0854               	movf	(_measure_inductance$812+3)^(0+128),w
  7618  1449  1283               	bcf	3,5	;RP0=0, select bank0
  7619  144A  00C0               	movwf	___flmul@f2+3
  7620  144B  1683               	bsf	3,5	;RP0=1, select bank1
  7621  144C  0853               	movf	(_measure_inductance$812+2)^(0+128),w
  7622  144D  1283               	bcf	3,5	;RP0=0, select bank0
  7623  144E  00BF               	movwf	___flmul@f2+2
  7624  144F  1683               	bsf	3,5	;RP0=1, select bank1
  7625  1450  0852               	movf	(_measure_inductance$812+1)^(0+128),w
  7626  1451  1283               	bcf	3,5	;RP0=0, select bank0
  7627  1452  00BE               	movwf	___flmul@f2+1
  7628  1453  1683               	bsf	3,5	;RP0=1, select bank1
  7629  1454  0851               	movf	_measure_inductance$812^(0+128),w
  7630  1455  1283               	bcf	3,5	;RP0=0, select bank0
  7631  1456  00BD               	movwf	___flmul@f2
  7632  1457  2674  160A  118A   	fcall	___flmul
  7633  145A  083C               	movf	?___flmul+3,w
  7634  145B  1683               	bsf	3,5	;RP0=1, select bank1
  7635  145C  00D8               	movwf	(_measure_inductance$813+3)^(0+128)
  7636  145D  1283               	bcf	3,5	;RP0=0, select bank0
  7637  145E  083B               	movf	?___flmul+2,w
  7638  145F  1683               	bsf	3,5	;RP0=1, select bank1
  7639  1460  00D7               	movwf	(_measure_inductance$813+2)^(0+128)
  7640  1461  1283               	bcf	3,5	;RP0=0, select bank0
  7641  1462  083A               	movf	?___flmul+1,w
  7642  1463  1683               	bsf	3,5	;RP0=1, select bank1
  7643  1464  00D6               	movwf	(_measure_inductance$813+1)^(0+128)
  7644  1465  1283               	bcf	3,5	;RP0=0, select bank0
  7645  1466  0839               	movf	?___flmul,w
  7646  1467  1683               	bsf	3,5	;RP0=1, select bank1
  7647  1468  00D5               	movwf	_measure_inductance$813^(0+128)
  7648                           
  7649                           ;LC-meter.c: 487: denominator = 4 * 3.14159265358979323846l * 3.14159265358979323846l * 
      +                          F1 * F1 * F2 * F2 * F3 * F3 * CCal;
  7650  1469  1703               	bsf	3,6	;RP1=1, select bank3
  7651  146A  084E               	movf	(_F3+3)^(0+384),w
  7652  146B  1283               	bcf	3,5	;RP0=0, select bank0
  7653  146C  1303               	bcf	3,6	;RP1=0, select bank0
  7654  146D  00BC               	movwf	___flmul@f1+3
  7655  146E  1683               	bsf	3,5	;RP0=1, select bank3
  7656  146F  1703               	bsf	3,6	;RP1=1, select bank3
  7657  1470  084D               	movf	(_F3+2)^(0+384),w
  7658  1471  1283               	bcf	3,5	;RP0=0, select bank0
  7659  1472  1303               	bcf	3,6	;RP1=0, select bank0
  7660  1473  00BB               	movwf	___flmul@f1+2
  7661  1474  1683               	bsf	3,5	;RP0=1, select bank3
  7662  1475  1703               	bsf	3,6	;RP1=1, select bank3
  7663  1476  084C               	movf	(_F3+1)^(0+384),w
  7664  1477  1283               	bcf	3,5	;RP0=0, select bank0
  7665  1478  1303               	bcf	3,6	;RP1=0, select bank0
  7666  1479  00BA               	movwf	___flmul@f1+1
  7667  147A  1683               	bsf	3,5	;RP0=1, select bank3
  7668  147B  1703               	bsf	3,6	;RP1=1, select bank3
  7669  147C  084B               	movf	_F3^(0+384),w
  7670  147D  1283               	bcf	3,5	;RP0=0, select bank0
  7671  147E  1303               	bcf	3,6	;RP1=0, select bank0
  7672  147F  00B9               	movwf	___flmul@f1
  7673  1480  1683               	bsf	3,5	;RP0=1, select bank1
  7674  1481  0858               	movf	(_measure_inductance$813+3)^(0+128),w
  7675  1482  1283               	bcf	3,5	;RP0=0, select bank0
  7676  1483  00C0               	movwf	___flmul@f2+3
  7677  1484  1683               	bsf	3,5	;RP0=1, select bank1
  7678  1485  0857               	movf	(_measure_inductance$813+2)^(0+128),w
  7679  1486  1283               	bcf	3,5	;RP0=0, select bank0
  7680  1487  00BF               	movwf	___flmul@f2+2
  7681  1488  1683               	bsf	3,5	;RP0=1, select bank1
  7682  1489  0856               	movf	(_measure_inductance$813+1)^(0+128),w
  7683  148A  1283               	bcf	3,5	;RP0=0, select bank0
  7684  148B  00BE               	movwf	___flmul@f2+1
  7685  148C  1683               	bsf	3,5	;RP0=1, select bank1
  7686  148D  0855               	movf	_measure_inductance$813^(0+128),w
  7687  148E  1283               	bcf	3,5	;RP0=0, select bank0
  7688  148F  00BD               	movwf	___flmul@f2
  7689  1490  2674  160A  118A   	fcall	___flmul
  7690  1493  083C               	movf	?___flmul+3,w
  7691  1494  1683               	bsf	3,5	;RP0=1, select bank1
  7692  1495  00C7               	movwf	(_measure_inductance$815+3)^(0+128)
  7693  1496  1283               	bcf	3,5	;RP0=0, select bank0
  7694  1497  083B               	movf	?___flmul+2,w
  7695  1498  1683               	bsf	3,5	;RP0=1, select bank1
  7696  1499  00C6               	movwf	(_measure_inductance$815+2)^(0+128)
  7697  149A  1283               	bcf	3,5	;RP0=0, select bank0
  7698  149B  083A               	movf	?___flmul+1,w
  7699  149C  1683               	bsf	3,5	;RP0=1, select bank1
  7700  149D  00C5               	movwf	(_measure_inductance$815+1)^(0+128)
  7701  149E  1283               	bcf	3,5	;RP0=0, select bank0
  7702  149F  0839               	movf	?___flmul,w
  7703  14A0  1683               	bsf	3,5	;RP0=1, select bank1
  7704  14A1  00C4               	movwf	_measure_inductance$815^(0+128)
  7705                           
  7706                           ;LC-meter.c: 487: denominator = 4 * 3.14159265358979323846l * 3.14159265358979323846l * 
      +                          F1 * F1 * F2 * F2 * F3 * F3 * CCal;
  7707  14A2  1703               	bsf	3,6	;RP1=1, select bank3
  7708  14A3  0860               	movf	(_CCal+3)^(0+384),w
  7709  14A4  1283               	bcf	3,5	;RP0=0, select bank0
  7710  14A5  1303               	bcf	3,6	;RP1=0, select bank0
  7711  14A6  00BC               	movwf	___flmul@f1+3
  7712  14A7  1683               	bsf	3,5	;RP0=1, select bank3
  7713  14A8  1703               	bsf	3,6	;RP1=1, select bank3
  7714  14A9  085F               	movf	(_CCal+2)^(0+384),w
  7715  14AA  1283               	bcf	3,5	;RP0=0, select bank0
  7716  14AB  1303               	bcf	3,6	;RP1=0, select bank0
  7717  14AC  00BB               	movwf	___flmul@f1+2
  7718  14AD  1683               	bsf	3,5	;RP0=1, select bank3
  7719  14AE  1703               	bsf	3,6	;RP1=1, select bank3
  7720  14AF  085E               	movf	(_CCal+1)^(0+384),w
  7721  14B0  1283               	bcf	3,5	;RP0=0, select bank0
  7722  14B1  1303               	bcf	3,6	;RP1=0, select bank0
  7723  14B2  00BA               	movwf	___flmul@f1+1
  7724  14B3  1683               	bsf	3,5	;RP0=1, select bank3
  7725  14B4  1703               	bsf	3,6	;RP1=1, select bank3
  7726  14B5  085D               	movf	_CCal^(0+384),w
  7727  14B6  1283               	bcf	3,5	;RP0=0, select bank0
  7728  14B7  1303               	bcf	3,6	;RP1=0, select bank0
  7729  14B8  00B9               	movwf	___flmul@f1
  7730  14B9  1683               	bsf	3,5	;RP0=1, select bank1
  7731  14BA  0847               	movf	(_measure_inductance$815+3)^(0+128),w
  7732  14BB  1283               	bcf	3,5	;RP0=0, select bank0
  7733  14BC  00C0               	movwf	___flmul@f2+3
  7734  14BD  1683               	bsf	3,5	;RP0=1, select bank1
  7735  14BE  0846               	movf	(_measure_inductance$815+2)^(0+128),w
  7736  14BF  1283               	bcf	3,5	;RP0=0, select bank0
  7737  14C0  00BF               	movwf	___flmul@f2+2
  7738  14C1  1683               	bsf	3,5	;RP0=1, select bank1
  7739  14C2  0845               	movf	(_measure_inductance$815+1)^(0+128),w
  7740  14C3  1283               	bcf	3,5	;RP0=0, select bank0
  7741  14C4  00BE               	movwf	___flmul@f2+1
  7742  14C5  1683               	bsf	3,5	;RP0=1, select bank1
  7743  14C6  0844               	movf	_measure_inductance$815^(0+128),w
  7744  14C7  1283               	bcf	3,5	;RP0=0, select bank0
  7745  14C8  00BD               	movwf	___flmul@f2
  7746  14C9  2674  160A  118A   	fcall	___flmul
  7747  14CC  083C               	movf	?___flmul+3,w
  7748  14CD  1683               	bsf	3,5	;RP0=1, select bank1
  7749  14CE  00CB               	movwf	(_measure_inductance$816+3)^(0+128)
  7750  14CF  1283               	bcf	3,5	;RP0=0, select bank0
  7751  14D0  083B               	movf	?___flmul+2,w
  7752  14D1  1683               	bsf	3,5	;RP0=1, select bank1
  7753  14D2  00CA               	movwf	(_measure_inductance$816+2)^(0+128)
  7754  14D3  1283               	bcf	3,5	;RP0=0, select bank0
  7755  14D4  083A               	movf	?___flmul+1,w
  7756  14D5  1683               	bsf	3,5	;RP0=1, select bank1
  7757  14D6  00C9               	movwf	(_measure_inductance$816+1)^(0+128)
  7758  14D7  1283               	bcf	3,5	;RP0=0, select bank0
  7759  14D8  0839               	movf	?___flmul,w
  7760  14D9  1683               	bsf	3,5	;RP0=1, select bank1
  7761  14DA  00C8               	movwf	_measure_inductance$816^(0+128)
  7762                           
  7763                           ;LC-meter.c: 487: denominator = 4 * 3.14159265358979323846l * 3.14159265358979323846l * 
      +                          F1 * F1 * F2 * F2 * F3 * F3 * CCal;
  7764  14DB  3042               	movlw	66
  7765  14DC  1283               	bcf	3,5	;RP0=0, select bank0
  7766  14DD  00BC               	movwf	___flmul@f1+3
  7767  14DE  301D               	movlw	29
  7768  14DF  00BB               	movwf	___flmul@f1+2
  7769  14E0  30E9               	movlw	233
  7770  14E1  00BA               	movwf	___flmul@f1+1
  7771  14E2  30E6               	movlw	230
  7772  14E3  00B9               	movwf	___flmul@f1
  7773  14E4  1683               	bsf	3,5	;RP0=1, select bank1
  7774  14E5  084B               	movf	(_measure_inductance$816+3)^(0+128),w
  7775  14E6  1283               	bcf	3,5	;RP0=0, select bank0
  7776  14E7  00C0               	movwf	___flmul@f2+3
  7777  14E8  1683               	bsf	3,5	;RP0=1, select bank1
  7778  14E9  084A               	movf	(_measure_inductance$816+2)^(0+128),w
  7779  14EA  1283               	bcf	3,5	;RP0=0, select bank0
  7780  14EB  00BF               	movwf	___flmul@f2+2
  7781  14EC  1683               	bsf	3,5	;RP0=1, select bank1
  7782  14ED  0849               	movf	(_measure_inductance$816+1)^(0+128),w
  7783  14EE  1283               	bcf	3,5	;RP0=0, select bank0
  7784  14EF  00BE               	movwf	___flmul@f2+1
  7785  14F0  1683               	bsf	3,5	;RP0=1, select bank1
  7786  14F1  0848               	movf	_measure_inductance$816^(0+128),w
  7787  14F2  1283               	bcf	3,5	;RP0=0, select bank0
  7788  14F3  00BD               	movwf	___flmul@f2
  7789  14F4  2674  160A  118A   	fcall	___flmul
  7790  14F7  083C               	movf	?___flmul+3,w
  7791  14F8  1683               	bsf	3,5	;RP0=1, select bank1
  7792  14F9  00BB               	movwf	(measure_inductance@denominator+3)^(0+128)
  7793  14FA  1283               	bcf	3,5	;RP0=0, select bank0
  7794  14FB  083B               	movf	?___flmul+2,w
  7795  14FC  1683               	bsf	3,5	;RP0=1, select bank1
  7796  14FD  00BA               	movwf	(measure_inductance@denominator+2)^(0+128)
  7797  14FE  1283               	bcf	3,5	;RP0=0, select bank0
  7798  14FF  083A               	movf	?___flmul+1,w
  7799  1500  1683               	bsf	3,5	;RP0=1, select bank1
  7800  1501  00B9               	movwf	(measure_inductance@denominator+1)^(0+128)
  7801  1502  1283               	bcf	3,5	;RP0=0, select bank0
  7802  1503  0839               	movf	?___flmul,w
  7803  1504  1683               	bsf	3,5	;RP0=1, select bank1
  7804  1505  00B8               	movwf	measure_inductance@denominator^(0+128)
  7805                           
  7806                           ;LC-meter.c: 489: Lin = (numerator / denominator) * 1e+15l;
  7807  1506  3058               	movlw	88
  7808  1507  1283               	bcf	3,5	;RP0=0, select bank0
  7809  1508  00BC               	movwf	___flmul@f1+3
  7810  1509  3063               	movlw	99
  7811  150A  00BB               	movwf	___flmul@f1+2
  7812  150B  305F               	movlw	95
  7813  150C  00BA               	movwf	___flmul@f1+1
  7814  150D  30A9               	movlw	169
  7815  150E  00B9               	movwf	___flmul@f1
  7816  150F  1683               	bsf	3,5	;RP0=1, select bank1
  7817  1510  083B               	movf	(measure_inductance@denominator+3)^(0+128),w
  7818  1511  1283               	bcf	3,5	;RP0=0, select bank0
  7819  1512  00A9               	movwf	___fldiv@f2+3
  7820  1513  1683               	bsf	3,5	;RP0=1, select bank1
  7821  1514  083A               	movf	(measure_inductance@denominator+2)^(0+128),w
  7822  1515  1283               	bcf	3,5	;RP0=0, select bank0
  7823  1516  00A8               	movwf	___fldiv@f2+2
  7824  1517  1683               	bsf	3,5	;RP0=1, select bank1
  7825  1518  0839               	movf	(measure_inductance@denominator+1)^(0+128),w
  7826  1519  1283               	bcf	3,5	;RP0=0, select bank0
  7827  151A  00A7               	movwf	___fldiv@f2+1
  7828  151B  1683               	bsf	3,5	;RP0=1, select bank1
  7829  151C  0838               	movf	measure_inductance@denominator^(0+128),w
  7830  151D  1283               	bcf	3,5	;RP0=0, select bank0
  7831  151E  00A6               	movwf	___fldiv@f2
  7832  151F  1683               	bsf	3,5	;RP0=1, select bank1
  7833  1520  0837               	movf	(measure_inductance@numerator+3)^(0+128),w
  7834  1521  1283               	bcf	3,5	;RP0=0, select bank0
  7835  1522  00AD               	movwf	___fldiv@f1+3
  7836  1523  1683               	bsf	3,5	;RP0=1, select bank1
  7837  1524  0836               	movf	(measure_inductance@numerator+2)^(0+128),w
  7838  1525  1283               	bcf	3,5	;RP0=0, select bank0
  7839  1526  00AC               	movwf	___fldiv@f1+2
  7840  1527  1683               	bsf	3,5	;RP0=1, select bank1
  7841  1528  0835               	movf	(measure_inductance@numerator+1)^(0+128),w
  7842  1529  1283               	bcf	3,5	;RP0=0, select bank0
  7843  152A  00AB               	movwf	___fldiv@f1+1
  7844  152B  1683               	bsf	3,5	;RP0=1, select bank1
  7845  152C  0834               	movf	measure_inductance@numerator^(0+128),w
  7846  152D  1283               	bcf	3,5	;RP0=0, select bank0
  7847  152E  00AA               	movwf	___fldiv@f1
  7848  152F  120A  158A  266C  160A  118A  	fcall	___fldiv
  7849  1534  0829               	movf	?___fldiv+3,w
  7850  1535  00C0               	movwf	___flmul@f2+3
  7851  1536  0828               	movf	?___fldiv+2,w
  7852  1537  00BF               	movwf	___flmul@f2+2
  7853  1538  0827               	movf	?___fldiv+1,w
  7854  1539  00BE               	movwf	___flmul@f2+1
  7855  153A  0826               	movf	?___fldiv,w
  7856  153B  00BD               	movwf	___flmul@f2
  7857  153C  2674  160A  118A   	fcall	___flmul
  7858  153F  083C               	movf	?___flmul+3,w
  7859  1540  1683               	bsf	3,5	;RP0=1, select bank1
  7860  1541  00DE               	movwf	(measure_inductance@Lin+3)^(0+128)
  7861  1542  1283               	bcf	3,5	;RP0=0, select bank0
  7862  1543  083B               	movf	?___flmul+2,w
  7863  1544  1683               	bsf	3,5	;RP0=1, select bank1
  7864  1545  00DD               	movwf	(measure_inductance@Lin+2)^(0+128)
  7865  1546  1283               	bcf	3,5	;RP0=0, select bank0
  7866  1547  083A               	movf	?___flmul+1,w
  7867  1548  1683               	bsf	3,5	;RP0=1, select bank1
  7868  1549  00DC               	movwf	(measure_inductance@Lin+1)^(0+128)
  7869  154A  1283               	bcf	3,5	;RP0=0, select bank0
  7870  154B  0839               	movf	?___flmul,w
  7871  154C  1683               	bsf	3,5	;RP0=1, select bank1
  7872  154D  00DB               	movwf	measure_inductance@Lin^(0+128)
  7873                           
  7874                           ;LC-meter.c: 491: if(Lin > 999) {
  7875  154E  3044               	movlw	68
  7876  154F  1283               	bcf	3,5	;RP0=0, select bank0
  7877  1550  00A3               	movwf	___flge@ff1+3
  7878  1551  3079               	movlw	121
  7879  1552  00A2               	movwf	___flge@ff1+2
  7880  1553  30C0               	movlw	192
  7881  1554  00A1               	movwf	___flge@ff1+1
  7882  1555  01A0               	clrf	___flge@ff1
  7883  1556  1683               	bsf	3,5	;RP0=1, select bank1
  7884  1557  085E               	movf	(measure_inductance@Lin+3)^(0+128),w
  7885  1558  1283               	bcf	3,5	;RP0=0, select bank0
  7886  1559  00A7               	movwf	___flge@ff2+3
  7887  155A  1683               	bsf	3,5	;RP0=1, select bank1
  7888  155B  085D               	movf	(measure_inductance@Lin+2)^(0+128),w
  7889  155C  1283               	bcf	3,5	;RP0=0, select bank0
  7890  155D  00A6               	movwf	___flge@ff2+2
  7891  155E  1683               	bsf	3,5	;RP0=1, select bank1
  7892  155F  085C               	movf	(measure_inductance@Lin+1)^(0+128),w
  7893  1560  1283               	bcf	3,5	;RP0=0, select bank0
  7894  1561  00A5               	movwf	___flge@ff2+1
  7895  1562  1683               	bsf	3,5	;RP0=1, select bank1
  7896  1563  085B               	movf	measure_inductance@Lin^(0+128),w
  7897  1564  1283               	bcf	3,5	;RP0=0, select bank0
  7898  1565  00A4               	movwf	___flge@ff2
  7899  1566  270A  160A  118A   	fcall	___flge
  7900  1569  1803               	btfsc	3,0
  7901  156A  2E2D               	goto	l3825
  7902                           
  7903                           ;LC-meter.c: 492: if(Lin > (999e+03l)) {
  7904  156B  3049               	movlw	73
  7905  156C  00A3               	movwf	___flge@ff1+3
  7906  156D  3073               	movlw	115
  7907  156E  00A2               	movwf	___flge@ff1+2
  7908  156F  30E5               	movlw	229
  7909  1570  00A1               	movwf	___flge@ff1+1
  7910  1571  3080               	movlw	128
  7911  1572  00A0               	movwf	___flge@ff1
  7912  1573  1683               	bsf	3,5	;RP0=1, select bank1
  7913  1574  085E               	movf	(measure_inductance@Lin+3)^(0+128),w
  7914  1575  1283               	bcf	3,5	;RP0=0, select bank0
  7915  1576  00A7               	movwf	___flge@ff2+3
  7916  1577  1683               	bsf	3,5	;RP0=1, select bank1
  7917  1578  085D               	movf	(measure_inductance@Lin+2)^(0+128),w
  7918  1579  1283               	bcf	3,5	;RP0=0, select bank0
  7919  157A  00A6               	movwf	___flge@ff2+2
  7920  157B  1683               	bsf	3,5	;RP0=1, select bank1
  7921  157C  085C               	movf	(measure_inductance@Lin+1)^(0+128),w
  7922  157D  1283               	bcf	3,5	;RP0=0, select bank0
  7923  157E  00A5               	movwf	___flge@ff2+1
  7924  157F  1683               	bsf	3,5	;RP0=1, select bank1
  7925  1580  085B               	movf	measure_inductance@Lin^(0+128),w
  7926  1581  1283               	bcf	3,5	;RP0=0, select bank0
  7927  1582  00A4               	movwf	___flge@ff2
  7928  1583  270A  160A  118A   	fcall	___flge
  7929  1586  1803               	btfsc	3,0
  7930  1587  2E01               	goto	l3821
  7931                           
  7932                           ;LC-meter.c: 493: if(Lin > (999e+06l)) {
  7933  1588  304E               	movlw	78
  7934  1589  00A3               	movwf	___flge@ff1+3
  7935  158A  306E               	movlw	110
  7936  158B  00A2               	movwf	___flge@ff1+2
  7937  158C  302E               	movlw	46
  7938  158D  00A1               	movwf	___flge@ff1+1
  7939  158E  301F               	movlw	31
  7940  158F  00A0               	movwf	___flge@ff1
  7941  1590  1683               	bsf	3,5	;RP0=1, select bank1
  7942  1591  085E               	movf	(measure_inductance@Lin+3)^(0+128),w
  7943  1592  1283               	bcf	3,5	;RP0=0, select bank0
  7944  1593  00A7               	movwf	___flge@ff2+3
  7945  1594  1683               	bsf	3,5	;RP0=1, select bank1
  7946  1595  085D               	movf	(measure_inductance@Lin+2)^(0+128),w
  7947  1596  1283               	bcf	3,5	;RP0=0, select bank0
  7948  1597  00A6               	movwf	___flge@ff2+2
  7949  1598  1683               	bsf	3,5	;RP0=1, select bank1
  7950  1599  085C               	movf	(measure_inductance@Lin+1)^(0+128),w
  7951  159A  1283               	bcf	3,5	;RP0=0, select bank0
  7952  159B  00A5               	movwf	___flge@ff2+1
  7953  159C  1683               	bsf	3,5	;RP0=1, select bank1
  7954  159D  085B               	movf	measure_inductance@Lin^(0+128),w
  7955  159E  1283               	bcf	3,5	;RP0=0, select bank0
  7956  159F  00A4               	movwf	___flge@ff2
  7957  15A0  270A  160A  118A   	fcall	___flge
  7958  15A3  1803               	btfsc	3,0
  7959  15A4  2DD3               	goto	l3817
  7960                           
  7961                           ;LC-meter.c: 494: Lin = Lin / (1e+09l);
  7962  15A5  304E               	movlw	78
  7963  15A6  00A9               	movwf	___fldiv@f2+3
  7964  15A7  306E               	movlw	110
  7965  15A8  00A8               	movwf	___fldiv@f2+2
  7966  15A9  306B               	movlw	107
  7967  15AA  00A7               	movwf	___fldiv@f2+1
  7968  15AB  3028               	movlw	40
  7969  15AC  00A6               	movwf	___fldiv@f2
  7970  15AD  1683               	bsf	3,5	;RP0=1, select bank1
  7971  15AE  085E               	movf	(measure_inductance@Lin+3)^(0+128),w
  7972  15AF  1283               	bcf	3,5	;RP0=0, select bank0
  7973  15B0  00AD               	movwf	___fldiv@f1+3
  7974  15B1  1683               	bsf	3,5	;RP0=1, select bank1
  7975  15B2  085D               	movf	(measure_inductance@Lin+2)^(0+128),w
  7976  15B3  1283               	bcf	3,5	;RP0=0, select bank0
  7977  15B4  00AC               	movwf	___fldiv@f1+2
  7978  15B5  1683               	bsf	3,5	;RP0=1, select bank1
  7979  15B6  085C               	movf	(measure_inductance@Lin+1)^(0+128),w
  7980  15B7  1283               	bcf	3,5	;RP0=0, select bank0
  7981  15B8  00AB               	movwf	___fldiv@f1+1
  7982  15B9  1683               	bsf	3,5	;RP0=1, select bank1
  7983  15BA  085B               	movf	measure_inductance@Lin^(0+128),w
  7984  15BB  1283               	bcf	3,5	;RP0=0, select bank0
  7985  15BC  00AA               	movwf	___fldiv@f1
  7986  15BD  120A  158A  266C  160A  118A  	fcall	___fldiv
  7987  15C2  0829               	movf	?___fldiv+3,w
  7988  15C3  1683               	bsf	3,5	;RP0=1, select bank1
  7989  15C4  00DE               	movwf	(measure_inductance@Lin+3)^(0+128)
  7990  15C5  1283               	bcf	3,5	;RP0=0, select bank0
  7991  15C6  0828               	movf	?___fldiv+2,w
  7992  15C7  1683               	bsf	3,5	;RP0=1, select bank1
  7993  15C8  00DD               	movwf	(measure_inductance@Lin+2)^(0+128)
  7994  15C9  1283               	bcf	3,5	;RP0=0, select bank0
  7995  15CA  0827               	movf	?___fldiv+1,w
  7996  15CB  1683               	bsf	3,5	;RP0=1, select bank1
  7997  15CC  00DC               	movwf	(measure_inductance@Lin+1)^(0+128)
  7998  15CD  1283               	bcf	3,5	;RP0=0, select bank0
  7999  15CE  0826               	movf	?___fldiv,w
  8000  15CF  1683               	bsf	3,5	;RP0=1, select bank1
  8001  15D0  00DB               	movwf	measure_inductance@Lin^(0+128)
  8002                           
  8003                           ;LC-meter.c: 495: unit = 0;
  8004  15D1  01CC               	clrf	measure_inductance@unit^(0+128)
  8005                           
  8006                           ;LC-meter.c: 496: } else {
  8007  15D2  2E30               	goto	l3827
  8008  15D3                     l3817:	
  8009                           
  8010                           ;LC-meter.c: 497: Lin = Lin / (1e+06l);
  8011  15D3  3049               	movlw	73
  8012  15D4  00A9               	movwf	___fldiv@f2+3
  8013  15D5  3074               	movlw	116
  8014  15D6  00A8               	movwf	___fldiv@f2+2
  8015  15D7  3024               	movlw	36
  8016  15D8  00A7               	movwf	___fldiv@f2+1
  8017  15D9  01A6               	clrf	___fldiv@f2
  8018  15DA  1683               	bsf	3,5	;RP0=1, select bank1
  8019  15DB  085E               	movf	(measure_inductance@Lin+3)^(0+128),w
  8020  15DC  1283               	bcf	3,5	;RP0=0, select bank0
  8021  15DD  00AD               	movwf	___fldiv@f1+3
  8022  15DE  1683               	bsf	3,5	;RP0=1, select bank1
  8023  15DF  085D               	movf	(measure_inductance@Lin+2)^(0+128),w
  8024  15E0  1283               	bcf	3,5	;RP0=0, select bank0
  8025  15E1  00AC               	movwf	___fldiv@f1+2
  8026  15E2  1683               	bsf	3,5	;RP0=1, select bank1
  8027  15E3  085C               	movf	(measure_inductance@Lin+1)^(0+128),w
  8028  15E4  1283               	bcf	3,5	;RP0=0, select bank0
  8029  15E5  00AB               	movwf	___fldiv@f1+1
  8030  15E6  1683               	bsf	3,5	;RP0=1, select bank1
  8031  15E7  085B               	movf	measure_inductance@Lin^(0+128),w
  8032  15E8  1283               	bcf	3,5	;RP0=0, select bank0
  8033  15E9  00AA               	movwf	___fldiv@f1
  8034  15EA  120A  158A  266C  160A  118A  	fcall	___fldiv
  8035  15EF  0829               	movf	?___fldiv+3,w
  8036  15F0  1683               	bsf	3,5	;RP0=1, select bank1
  8037  15F1  00DE               	movwf	(measure_inductance@Lin+3)^(0+128)
  8038  15F2  1283               	bcf	3,5	;RP0=0, select bank0
  8039  15F3  0828               	movf	?___fldiv+2,w
  8040  15F4  1683               	bsf	3,5	;RP0=1, select bank1
  8041  15F5  00DD               	movwf	(measure_inductance@Lin+2)^(0+128)
  8042  15F6  1283               	bcf	3,5	;RP0=0, select bank0
  8043  15F7  0827               	movf	?___fldiv+1,w
  8044  15F8  1683               	bsf	3,5	;RP0=1, select bank1
  8045  15F9  00DC               	movwf	(measure_inductance@Lin+1)^(0+128)
  8046  15FA  1283               	bcf	3,5	;RP0=0, select bank0
  8047  15FB  0826               	movf	?___fldiv,w
  8048  15FC  1683               	bsf	3,5	;RP0=1, select bank1
  8049  15FD  00DB               	movwf	measure_inductance@Lin^(0+128)
  8050                           
  8051                           ;LC-meter.c: 498: unit = 1;
  8052  15FE  01CC               	clrf	measure_inductance@unit^(0+128)
  8053  15FF  0ACC               	incf	measure_inductance@unit^(0+128),f
  8054  1600  2E30               	goto	l3827
  8055  1601                     l3821:	
  8056                           
  8057                           ;LC-meter.c: 501: Lin = Lin / 1e+03l;
  8058  1601  3044               	movlw	68
  8059  1602  00A9               	movwf	___fldiv@f2+3
  8060  1603  307A               	movlw	122
  8061  1604  00A8               	movwf	___fldiv@f2+2
  8062  1605  01A7               	clrf	___fldiv@f2+1
  8063  1606  01A6               	clrf	___fldiv@f2
  8064  1607  1683               	bsf	3,5	;RP0=1, select bank1
  8065  1608  085E               	movf	(measure_inductance@Lin+3)^(0+128),w
  8066  1609  1283               	bcf	3,5	;RP0=0, select bank0
  8067  160A  00AD               	movwf	___fldiv@f1+3
  8068  160B  1683               	bsf	3,5	;RP0=1, select bank1
  8069  160C  085D               	movf	(measure_inductance@Lin+2)^(0+128),w
  8070  160D  1283               	bcf	3,5	;RP0=0, select bank0
  8071  160E  00AC               	movwf	___fldiv@f1+2
  8072  160F  1683               	bsf	3,5	;RP0=1, select bank1
  8073  1610  085C               	movf	(measure_inductance@Lin+1)^(0+128),w
  8074  1611  1283               	bcf	3,5	;RP0=0, select bank0
  8075  1612  00AB               	movwf	___fldiv@f1+1
  8076  1613  1683               	bsf	3,5	;RP0=1, select bank1
  8077  1614  085B               	movf	measure_inductance@Lin^(0+128),w
  8078  1615  1283               	bcf	3,5	;RP0=0, select bank0
  8079  1616  00AA               	movwf	___fldiv@f1
  8080  1617  120A  158A  266C  160A  118A  	fcall	___fldiv
  8081  161C  0829               	movf	?___fldiv+3,w
  8082  161D  1683               	bsf	3,5	;RP0=1, select bank1
  8083  161E  00DE               	movwf	(measure_inductance@Lin+3)^(0+128)
  8084  161F  1283               	bcf	3,5	;RP0=0, select bank0
  8085  1620  0828               	movf	?___fldiv+2,w
  8086  1621  1683               	bsf	3,5	;RP0=1, select bank1
  8087  1622  00DD               	movwf	(measure_inductance@Lin+2)^(0+128)
  8088  1623  1283               	bcf	3,5	;RP0=0, select bank0
  8089  1624  0827               	movf	?___fldiv+1,w
  8090  1625  1683               	bsf	3,5	;RP0=1, select bank1
  8091  1626  00DC               	movwf	(measure_inductance@Lin+1)^(0+128)
  8092  1627  1283               	bcf	3,5	;RP0=0, select bank0
  8093  1628  0826               	movf	?___fldiv,w
  8094  1629  1683               	bsf	3,5	;RP0=1, select bank1
  8095  162A  00DB               	movwf	measure_inductance@Lin^(0+128)
  8096                           
  8097                           ;LC-meter.c: 502: unit = 2;
  8098  162B  3002               	movlw	2
  8099  162C  2E2F               	goto	L1
  8100  162D                     l3825:	
  8101                           
  8102                           ;LC-meter.c: 505: unit = 3;
  8103  162D  3003               	movlw	3
  8104  162E  1683               	bsf	3,5	;RP0=1, select bank1
  8105  162F                     L1:	
  8106  162F  00CC               	movwf	measure_inductance@unit^(0+128)
  8107  1630                     l3827:	
  8108                           
  8109                           ;LC-meter.c: 507: Lin = Lin * 100;
  8110  1630  3042               	movlw	66
  8111  1631  1283               	bcf	3,5	;RP0=0, select bank0
  8112  1632  00BC               	movwf	___flmul@f1+3
  8113  1633  30C8               	movlw	200
  8114  1634  00BB               	movwf	___flmul@f1+2
  8115  1635  01BA               	clrf	___flmul@f1+1
  8116  1636  01B9               	clrf	___flmul@f1
  8117  1637  1683               	bsf	3,5	;RP0=1, select bank1
  8118  1638  085E               	movf	(measure_inductance@Lin+3)^(0+128),w
  8119  1639  1283               	bcf	3,5	;RP0=0, select bank0
  8120  163A  00C0               	movwf	___flmul@f2+3
  8121  163B  1683               	bsf	3,5	;RP0=1, select bank1
  8122  163C  085D               	movf	(measure_inductance@Lin+2)^(0+128),w
  8123  163D  1283               	bcf	3,5	;RP0=0, select bank0
  8124  163E  00BF               	movwf	___flmul@f2+2
  8125  163F  1683               	bsf	3,5	;RP0=1, select bank1
  8126  1640  085C               	movf	(measure_inductance@Lin+1)^(0+128),w
  8127  1641  1283               	bcf	3,5	;RP0=0, select bank0
  8128  1642  00BE               	movwf	___flmul@f2+1
  8129  1643  1683               	bsf	3,5	;RP0=1, select bank1
  8130  1644  085B               	movf	measure_inductance@Lin^(0+128),w
  8131  1645  1283               	bcf	3,5	;RP0=0, select bank0
  8132  1646  00BD               	movwf	___flmul@f2
  8133  1647  2674               	fcall	___flmul
  8134  1648  083C               	movf	?___flmul+3,w
  8135  1649  1683               	bsf	3,5	;RP0=1, select bank1
  8136  164A  00DE               	movwf	(measure_inductance@Lin+3)^(0+128)
  8137  164B  1283               	bcf	3,5	;RP0=0, select bank0
  8138  164C  083B               	movf	?___flmul+2,w
  8139  164D  1683               	bsf	3,5	;RP0=1, select bank1
  8140  164E  00DD               	movwf	(measure_inductance@Lin+2)^(0+128)
  8141  164F  1283               	bcf	3,5	;RP0=0, select bank0
  8142  1650  083A               	movf	?___flmul+1,w
  8143  1651  1683               	bsf	3,5	;RP0=1, select bank1
  8144  1652  00DC               	movwf	(measure_inductance@Lin+1)^(0+128)
  8145  1653  1283               	bcf	3,5	;RP0=0, select bank0
  8146  1654  0839               	movf	?___flmul,w
  8147  1655  1683               	bsf	3,5	;RP0=1, select bank1
  8148  1656  00DB               	movwf	measure_inductance@Lin^(0+128)
  8149                           
  8150                           ;LC-meter.c: 508: var = (unsigned short int)Lin;
  8151  1657  085E               	movf	(measure_inductance@Lin+3)^(0+128),w
  8152  1658  00AD               	movwf	(___fltol@f1+3)^(0+128)
  8153  1659  085D               	movf	(measure_inductance@Lin+2)^(0+128),w
  8154  165A  00AC               	movwf	(___fltol@f1+2)^(0+128)
  8155  165B  085C               	movf	(measure_inductance@Lin+1)^(0+128),w
  8156  165C  00AB               	movwf	(___fltol@f1+1)^(0+128)
  8157  165D  085B               	movf	measure_inductance@Lin^(0+128),w
  8158  165E  00AA               	movwf	___fltol@f1^(0+128)
  8159  165F  120A  158A  26E7  160A  118A  	fcall	___fltol
  8160  1664  082B               	movf	(?___fltol^(0+128)+1),w
  8161  1665  00DA               	movwf	(measure_inductance@var+1)^(0+128)
  8162  1666  082A               	movf	?___fltol^(0+128),w
  8163  1667  00D9               	movwf	measure_inductance@var^(0+128)
  8164                           
  8165                           ;LC-meter.c: 510: print_reading(var);
  8166  1668  085A               	movf	(measure_inductance@var+1)^(0+128),w
  8167  1669  00F4               	movwf	print_reading@measurement+1
  8168  166A  0859               	movf	measure_inductance@var^(0+128),w
  8169  166B  00F3               	movwf	print_reading@measurement
  8170  166C  120A  158A  27FE   	fcall	_print_reading
  8171                           
  8172                           ;LC-meter.c: 511: print_unit(unit);
  8173  166F  1303               	bcf	3,6	;RP1=0, select bank1
  8174  1670  084C               	movf	measure_inductance@unit^(0+128),w
  8175  1671  120A  158A  2FFF   	ljmp	l20
  8176  1674                     __end_of_measure_inductance:	
  8177  1674                     __ptext29:	
  8178 ;; *************** function ___flmul *****************
  8179 ;; Defined at:
  8180 ;;		line 62 in file "C:\Program Files (x86)\Microchip\xc8\v1.34\sources\common\flmul.c"
  8181 ;; Parameters:    Size  Location     Type
  8182 ;;  f1              4   25[BANK0 ] int 
  8183 ;;  f2              4   29[BANK0 ] int 
  8184 ;; Auto vars:     Size  Location     Type
  8185 ;;  f3_as_produc    4   38[BANK0 ] unsigned long 
  8186 ;;  sign            1   43[BANK0 ] unsigned char 
  8187 ;;  cntr            1   42[BANK0 ] unsigned char 
  8188 ;;  exp             1   37[BANK0 ] unsigned char 
  8189 ;; Return value:  Size  Location     Type
  8190 ;;                  4   25[BANK0 ] unsigned char 
  8191 ;; Registers used:
  8192 ;;		wreg, status,2, status,0, pclath, cstack
  8193 ;; Tracked objects:
  8194 ;;		On entry : 300/0
  8195 ;;		On exit  : 300/0
  8196 ;;		Unchanged: 0/0
  8197 ;; Data sizes:     COMMON   BANK0   BANK1   BANK3   BANK2
  8198 ;;      Params:         0       8       0       0       0
  8199 ;;      Locals:         0       7       0       0       0
  8200 ;;      Temps:          0       4       0       0       0
  8201 ;;      Totals:         0      19       0       0       0
  8202 ;;Total ram usage:       19 bytes
  8203 ;; Hardware stack levels used:    1
  8204 ;; Hardware stack levels required when called:    2
  8205 ;; This function calls:
  8206 ;;		___flpack
  8207 ;; This function is called by:
  8208 ;;		_format_double
  8209 ;;		_measure_capacitance
  8210 ;;		_measure_inductance
  8211 ;;		_log
  8212 ;;		_log10
  8213 ;;		_pow
  8214 ;;		_eval_poly
  8215 ;;		_exp
  8216 ;; This function uses a non-reentrant model
  8217 ;;
  8218                           
  8219                           
  8220                           ;psect for function ___flmul
  8221  1674                     ___flmul:	
  8222                           
  8223                           ;incstack = 0
  8224                           ; Regs used in ___flmul: [wreg+status,2+status,0+pclath+cstack]
  8225  1674  0839               	movf	___flmul@f1,w
  8226  1675  00C1               	movwf	??___flmul
  8227  1676  083A               	movf	___flmul@f1+1,w
  8228  1677  00C2               	movwf	??___flmul+1
  8229  1678  083B               	movf	___flmul@f1+2,w
  8230  1679  00C3               	movwf	??___flmul+2
  8231  167A  083C               	movf	___flmul@f1+3,w
  8232  167B  00C4               	movwf	??___flmul+3
  8233  167C  1003               	clrc
  8234  167D  0D43               	rlf	??___flmul+2,w
  8235  167E  0D44               	rlf	??___flmul+3,w
  8236  167F  00C5               	movwf	___flmul@exp
  8237  1680  0845               	movf	___flmul@exp,w
  8238  1681  1D03               	btfss	3,2
  8239  1682  2E88               	goto	l3179
  8240  1683  01B9               	clrf	?___flmul
  8241  1684  01BA               	clrf	?___flmul+1
  8242  1685  01BB               	clrf	?___flmul+2
  8243  1686  01BC               	clrf	?___flmul+3
  8244  1687  0008               	return
  8245  1688                     l3179:	
  8246  1688  083D               	movf	___flmul@f2,w
  8247  1689  00C1               	movwf	??___flmul
  8248  168A  083E               	movf	___flmul@f2+1,w
  8249  168B  00C2               	movwf	??___flmul+1
  8250  168C  083F               	movf	___flmul@f2+2,w
  8251  168D  00C3               	movwf	??___flmul+2
  8252  168E  0840               	movf	___flmul@f2+3,w
  8253  168F  00C4               	movwf	??___flmul+3
  8254  1690  1003               	clrc
  8255  1691  0D43               	rlf	??___flmul+2,w
  8256  1692  0D44               	rlf	??___flmul+3,w
  8257  1693  00CB               	movwf	___flmul@sign
  8258  1694  084B               	movf	___flmul@sign,w
  8259  1695  1D03               	btfss	3,2
  8260  1696  2E9C               	goto	l3183
  8261  1697  01B9               	clrf	?___flmul
  8262  1698  01BA               	clrf	?___flmul+1
  8263  1699  01BB               	clrf	?___flmul+2
  8264  169A  01BC               	clrf	?___flmul+3
  8265  169B  0008               	return
  8266  169C                     l3183:	
  8267  169C  084B               	movf	___flmul@sign,w
  8268  169D  3E7B               	addlw	123
  8269  169E  07C5               	addwf	___flmul@exp,f
  8270  169F  083C               	movf	___flmul@f1+3,w
  8271  16A0  00CB               	movwf	___flmul@sign
  8272  16A1  0840               	movf	___flmul@f2+3,w
  8273  16A2  06CB               	xorwf	___flmul@sign,f
  8274  16A3  3080               	movlw	128
  8275  16A4  05CB               	andwf	___flmul@sign,f
  8276  16A5  3007               	movlw	7
  8277  16A6  17BB               	bsf	___flmul@f1+2,7
  8278  16A7  17BF               	bsf	___flmul@f2+2,7
  8279  16A8  01C0               	clrf	___flmul@f2+3
  8280  16A9  01C6               	clrf	___flmul@f3_as_product
  8281  16AA  01C7               	clrf	___flmul@f3_as_product+1
  8282  16AB  01C8               	clrf	___flmul@f3_as_product+2
  8283  16AC  01C9               	clrf	___flmul@f3_as_product+3
  8284  16AD  00CA               	movwf	___flmul@cntr
  8285  16AE                     l3201:	
  8286  16AE  1C39               	btfss	___flmul@f1,0
  8287  16AF  2EC4               	goto	l3205
  8288  16B0  083D               	movf	___flmul@f2,w
  8289  16B1  07C6               	addwf	___flmul@f3_as_product,f
  8290  16B2  083E               	movf	___flmul@f2+1,w
  8291  16B3  1103               	clrz
  8292  16B4  1803               	skipnc
  8293  16B5  3E01               	addlw	1
  8294  16B6  1D03               	btfss	3,2
  8295  16B7  07C7               	addwf	___flmul@f3_as_product+1,f
  8296  16B8  083F               	movf	___flmul@f2+2,w
  8297  16B9  1103               	clrz
  8298  16BA  1803               	skipnc
  8299  16BB  3E01               	addlw	1
  8300  16BC  1D03               	btfss	3,2
  8301  16BD  07C8               	addwf	___flmul@f3_as_product+2,f
  8302  16BE  0840               	movf	___flmul@f2+3,w
  8303  16BF  1103               	clrz
  8304  16C0  1803               	skipnc
  8305  16C1  3E01               	addlw	1
  8306  16C2  1D03               	btfss	3,2
  8307  16C3  07C9               	addwf	___flmul@f3_as_product+3,f
  8308  16C4                     l3205:	
  8309  16C4  1003               	clrc
  8310  16C5  0CBC               	rrf	___flmul@f1+3,f
  8311  16C6  0CBB               	rrf	___flmul@f1+2,f
  8312  16C7  0CBA               	rrf	___flmul@f1+1,f
  8313  16C8  0CB9               	rrf	___flmul@f1,f
  8314  16C9  1003               	clrc
  8315  16CA  0DBD               	rlf	___flmul@f2,f
  8316  16CB  0DBE               	rlf	___flmul@f2+1,f
  8317  16CC  0DBF               	rlf	___flmul@f2+2,f
  8318  16CD  0DC0               	rlf	___flmul@f2+3,f
  8319  16CE  0BCA               	decfsz	___flmul@cntr,f
  8320  16CF  2EAE               	goto	l3201
  8321  16D0  3011               	movlw	17
  8322  16D1  00CA               	movwf	___flmul@cntr
  8323  16D2                     l3213:	
  8324  16D2  1C39               	btfss	___flmul@f1,0
  8325  16D3  2EE8               	goto	l3217
  8326  16D4  083D               	movf	___flmul@f2,w
  8327  16D5  07C6               	addwf	___flmul@f3_as_product,f
  8328  16D6  083E               	movf	___flmul@f2+1,w
  8329  16D7  1103               	clrz
  8330  16D8  1803               	skipnc
  8331  16D9  3E01               	addlw	1
  8332  16DA  1D03               	btfss	3,2
  8333  16DB  07C7               	addwf	___flmul@f3_as_product+1,f
  8334  16DC  083F               	movf	___flmul@f2+2,w
  8335  16DD  1103               	clrz
  8336  16DE  1803               	skipnc
  8337  16DF  3E01               	addlw	1
  8338  16E0  1D03               	btfss	3,2
  8339  16E1  07C8               	addwf	___flmul@f3_as_product+2,f
  8340  16E2  0840               	movf	___flmul@f2+3,w
  8341  16E3  1103               	clrz
  8342  16E4  1803               	skipnc
  8343  16E5  3E01               	addlw	1
  8344  16E6  1D03               	btfss	3,2
  8345  16E7  07C9               	addwf	___flmul@f3_as_product+3,f
  8346  16E8                     l3217:	
  8347  16E8  1003               	clrc
  8348  16E9  0CBC               	rrf	___flmul@f1+3,f
  8349  16EA  0CBB               	rrf	___flmul@f1+2,f
  8350  16EB  0CBA               	rrf	___flmul@f1+1,f
  8351  16EC  0CB9               	rrf	___flmul@f1,f
  8352  16ED  1003               	clrc
  8353  16EE  0CC9               	rrf	___flmul@f3_as_product+3,f
  8354  16EF  0CC8               	rrf	___flmul@f3_as_product+2,f
  8355  16F0  0CC7               	rrf	___flmul@f3_as_product+1,f
  8356  16F1  0CC6               	rrf	___flmul@f3_as_product,f
  8357  16F2  0BCA               	decfsz	___flmul@cntr,f
  8358  16F3  2ED2               	goto	l3213
  8359  16F4  0849               	movf	___flmul@f3_as_product+3,w
  8360  16F5  00A3               	movwf	___flpack@arg+3
  8361  16F6  0848               	movf	___flmul@f3_as_product+2,w
  8362  16F7  00A2               	movwf	___flpack@arg+2
  8363  16F8  0847               	movf	___flmul@f3_as_product+1,w
  8364  16F9  00A1               	movwf	___flpack@arg+1
  8365  16FA  0846               	movf	___flmul@f3_as_product,w
  8366  16FB  00A0               	movwf	___flpack@arg
  8367  16FC  0845               	movf	___flmul@exp,w
  8368  16FD  00A4               	movwf	___flpack@exp
  8369  16FE  084B               	movf	___flmul@sign,w
  8370  16FF  00A5               	movwf	___flpack@sign
  8371  1700  2756               	fcall	___flpack
  8372  1701  0823               	movf	?___flpack+3,w
  8373  1702  00BC               	movwf	?___flmul+3
  8374  1703  0822               	movf	?___flpack+2,w
  8375  1704  00BB               	movwf	?___flmul+2
  8376  1705  0821               	movf	?___flpack+1,w
  8377  1706  00BA               	movwf	?___flmul+1
  8378  1707  0820               	movf	?___flpack,w
  8379  1708  00B9               	movwf	?___flmul
  8380  1709  0008               	return
  8381  170A                     __end_of___flmul:	
  8382  170A                     __ptext31:	
  8383 ;; *************** function ___flge *****************
  8384 ;; Defined at:
  8385 ;;		line 4 in file "C:\Program Files (x86)\Microchip\xc8\v1.34\sources\common\flge.c"
  8386 ;; Parameters:    Size  Location     Type
  8387 ;;  ff1             4    0[BANK0 ] unsigned char 
  8388 ;;  ff2             4    4[BANK0 ] unsigned char 
  8389 ;; Auto vars:     Size  Location     Type
  8390 ;;		None
  8391 ;; Return value:  Size  Location     Type
  8392 ;;		None               void
  8393 ;; Registers used:
  8394 ;;		wreg, status,2, status,0
  8395 ;; Tracked objects:
  8396 ;;		On entry : 300/0
  8397 ;;		On exit  : 300/0
  8398 ;;		Unchanged: 0/0
  8399 ;; Data sizes:     COMMON   BANK0   BANK1   BANK3   BANK2
  8400 ;;      Params:         0       8       0       0       0
  8401 ;;      Locals:         0       0       0       0       0
  8402 ;;      Temps:          4       0       0       0       0
  8403 ;;      Totals:         4       8       0       0       0
  8404 ;;Total ram usage:       12 bytes
  8405 ;; Hardware stack levels used:    1
  8406 ;; Hardware stack levels required when called:    1
  8407 ;; This function calls:
  8408 ;;		Nothing
  8409 ;; This function is called by:
  8410 ;;		_format_double
  8411 ;;		_measure_capacitance
  8412 ;;		_measure_inductance
  8413 ;;		_floor
  8414 ;;		_ldexp
  8415 ;;		_log
  8416 ;;		_pow
  8417 ;;		_exp
  8418 ;; This function uses a non-reentrant model
  8419 ;;
  8420                           
  8421                           
  8422                           ;psect for function ___flge
  8423  170A                     ___flge:	
  8424                           
  8425                           ;incstack = 0
  8426                           ; Regs used in ___flge: [wreg+status,2+status,0]
  8427  170A  1FA3               	btfss	___flge@ff1+3,7
  8428  170B  2F27               	goto	l3165
  8429  170C  3080               	movlw	128
  8430  170D  01F3               	clrf	??___flge
  8431  170E  01F4               	clrf	??___flge+1
  8432  170F  01F5               	clrf	??___flge+2
  8433  1710  00F6               	movwf	??___flge+3
  8434  1711  0820               	movf	___flge@ff1,w
  8435  1712  02F3               	subwf	??___flge,f
  8436  1713  0821               	movf	___flge@ff1+1,w
  8437  1714  1C03               	skipc
  8438  1715  0F21               	incfsz	___flge@ff1+1,w
  8439  1716  02F4               	subwf	??___flge+1,f
  8440  1717  0822               	movf	___flge@ff1+2,w
  8441  1718  1C03               	skipc
  8442  1719  0F22               	incfsz	___flge@ff1+2,w
  8443  171A  02F5               	subwf	??___flge+2,f
  8444  171B  0823               	movf	___flge@ff1+3,w
  8445  171C  1C03               	skipc
  8446  171D  0F23               	incfsz	___flge@ff1+3,w
  8447  171E  02F6               	subwf	??___flge+3,f
  8448  171F  0876               	movf	??___flge+3,w
  8449  1720  00A3               	movwf	___flge@ff1+3
  8450  1721  0875               	movf	??___flge+2,w
  8451  1722  00A2               	movwf	___flge@ff1+2
  8452  1723  0874               	movf	??___flge+1,w
  8453  1724  00A1               	movwf	___flge@ff1+1
  8454  1725  0873               	movf	??___flge,w
  8455  1726  00A0               	movwf	___flge@ff1
  8456  1727                     l3165:	
  8457  1727  1FA7               	btfss	___flge@ff2+3,7
  8458  1728  2F44               	goto	l670
  8459  1729  3080               	movlw	128
  8460  172A  01F3               	clrf	??___flge
  8461  172B  01F4               	clrf	??___flge+1
  8462  172C  01F5               	clrf	??___flge+2
  8463  172D  00F6               	movwf	??___flge+3
  8464  172E  0824               	movf	___flge@ff2,w
  8465  172F  02F3               	subwf	??___flge,f
  8466  1730  0825               	movf	___flge@ff2+1,w
  8467  1731  1C03               	skipc
  8468  1732  0F25               	incfsz	___flge@ff2+1,w
  8469  1733  02F4               	subwf	??___flge+1,f
  8470  1734  0826               	movf	___flge@ff2+2,w
  8471  1735  1C03               	skipc
  8472  1736  0F26               	incfsz	___flge@ff2+2,w
  8473  1737  02F5               	subwf	??___flge+2,f
  8474  1738  0827               	movf	___flge@ff2+3,w
  8475  1739  1C03               	skipc
  8476  173A  0F27               	incfsz	___flge@ff2+3,w
  8477  173B  02F6               	subwf	??___flge+3,f
  8478  173C  0876               	movf	??___flge+3,w
  8479  173D  00A7               	movwf	___flge@ff2+3
  8480  173E  0875               	movf	??___flge+2,w
  8481  173F  00A6               	movwf	___flge@ff2+2
  8482  1740  0874               	movf	??___flge+1,w
  8483  1741  00A5               	movwf	___flge@ff2+1
  8484  1742  0873               	movf	??___flge,w
  8485  1743  00A4               	movwf	___flge@ff2
  8486  1744                     l670:	
  8487  1744  3080               	movlw	128
  8488  1745  06A3               	xorwf	___flge@ff1+3,f
  8489  1746  06A7               	xorwf	___flge@ff2+3,f
  8490  1747  0827               	movf	___flge@ff2+3,w
  8491  1748  0223               	subwf	___flge@ff1+3,w
  8492  1749  1D03               	skipz
  8493  174A  0008               	return
  8494  174B  0826               	movf	___flge@ff2+2,w
  8495  174C  0222               	subwf	___flge@ff1+2,w
  8496  174D  1D03               	skipz
  8497  174E  0008               	return
  8498  174F  0825               	movf	___flge@ff2+1,w
  8499  1750  0221               	subwf	___flge@ff1+1,w
  8500  1751  1D03               	skipz
  8501  1752  0008               	return
  8502  1753  0824               	movf	___flge@ff2,w
  8503  1754  0220               	subwf	___flge@ff1,w
  8504  1755  0008               	return
  8505  1756                     __end_of___flge:	
  8506  1756                     __ptext40:	
  8507 ;; *************** function ___flpack *****************
  8508 ;; Defined at:
  8509 ;;		line 63 in file "C:\Program Files (x86)\Microchip\xc8\v1.34\sources\common\double.c"
  8510 ;; Parameters:    Size  Location     Type
  8511 ;;  arg             4    0[BANK0 ] unsigned long 
  8512 ;;  exp             1    4[BANK0 ] unsigned char 
  8513 ;;  sign            1    5[BANK0 ] unsigned char 
  8514 ;; Auto vars:     Size  Location     Type
  8515 ;;		None
  8516 ;; Return value:  Size  Location     Type
  8517 ;;                  4    0[BANK0 ] unsigned char 
  8518 ;; Registers used:
  8519 ;;		wreg, status,2, status,0
  8520 ;; Tracked objects:
  8521 ;;		On entry : 300/0
  8522 ;;		On exit  : 300/0
  8523 ;;		Unchanged: 0/0
  8524 ;; Data sizes:     COMMON   BANK0   BANK1   BANK3   BANK2
  8525 ;;      Params:         0       6       0       0       0
  8526 ;;      Locals:         0       0       0       0       0
  8527 ;;      Temps:          4       0       0       0       0
  8528 ;;      Totals:         4       6       0       0       0
  8529 ;;Total ram usage:       10 bytes
  8530 ;; Hardware stack levels used:    1
  8531 ;; Hardware stack levels required when called:    1
  8532 ;; This function calls:
  8533 ;;		Nothing
  8534 ;; This function is called by:
  8535 ;;		___altofl
  8536 ;;		___awtofl
  8537 ;;		___fladd
  8538 ;;		___fldiv
  8539 ;;		___flmul
  8540 ;;		___lltofl
  8541 ;;		___lwtofl
  8542 ;; This function uses a non-reentrant model
  8543 ;;
  8544                           
  8545                           
  8546                           ;psect for function ___flpack
  8547  1756                     ___flpack:	
  8548                           
  8549                           ;incstack = 0
  8550                           ; Regs used in ___flpack: [wreg+status,2+status,0]
  8551  1756  0824               	movf	___flpack@exp,w
  8552  1757  1903               	btfsc	3,2
  8553  1758  2F5F               	goto	l609
  8554  1759  0823               	movf	___flpack@arg+3,w
  8555  175A  0422               	iorwf	___flpack@arg+2,w
  8556  175B  0421               	iorwf	___flpack@arg+1,w
  8557  175C  0420               	iorwf	___flpack@arg,w
  8558  175D  1D03               	skipz
  8559  175E  2F6A               	goto	l3055
  8560  175F                     l609:	
  8561  175F  01A0               	clrf	?___flpack
  8562  1760  01A1               	clrf	?___flpack+1
  8563  1761  01A2               	clrf	?___flpack+2
  8564  1762  01A3               	clrf	?___flpack+3
  8565  1763  0008               	return
  8566  1764                     l3053:	
  8567  1764  0AA4               	incf	___flpack@exp,f
  8568  1765  1003               	clrc
  8569  1766  0CA3               	rrf	___flpack@arg+3,f
  8570  1767  0CA2               	rrf	___flpack@arg+2,f
  8571  1768  0CA1               	rrf	___flpack@arg+1,f
  8572  1769  0CA0               	rrf	___flpack@arg,f
  8573  176A                     l3055:	
  8574  176A  30FE               	movlw	254
  8575  176B  0523               	andwf	___flpack@arg+3,w
  8576  176C  1903               	btfsc	3,2
  8577  176D  2F7C               	goto	l3059
  8578  176E  2F64               	goto	l3053
  8579  176F                     l3057:	
  8580  176F  0AA4               	incf	___flpack@exp,f
  8581  1770  0AA0               	incf	___flpack@arg,f
  8582  1771  1903               	skipnz
  8583  1772  0AA1               	incf	___flpack@arg+1,f
  8584  1773  1903               	skipnz
  8585  1774  0AA2               	incf	___flpack@arg+2,f
  8586  1775  1903               	skipnz
  8587  1776  0AA3               	incf	___flpack@arg+3,f
  8588  1777  1003               	clrc
  8589  1778  0CA3               	rrf	___flpack@arg+3,f
  8590  1779  0CA2               	rrf	___flpack@arg+2,f
  8591  177A  0CA1               	rrf	___flpack@arg+1,f
  8592  177B  0CA0               	rrf	___flpack@arg,f
  8593  177C                     l3059:	
  8594  177C  30FF               	movlw	255
  8595  177D  0523               	andwf	___flpack@arg+3,w
  8596  177E  1903               	btfsc	3,2
  8597  177F  2F8B               	goto	l3063
  8598  1780  2F6F               	goto	l3057
  8599  1781                     l3065:	
  8600  1781  3002               	movlw	2
  8601  1782  0224               	subwf	___flpack@exp,w
  8602  1783  1C03               	btfss	3,0
  8603  1784  2F8D               	goto	l621
  8604  1785  03A4               	decf	___flpack@exp,f
  8605  1786  1003               	clrc
  8606  1787  0DA0               	rlf	___flpack@arg,f
  8607  1788  0DA1               	rlf	___flpack@arg+1,f
  8608  1789  0DA2               	rlf	___flpack@arg+2,f
  8609  178A  0DA3               	rlf	___flpack@arg+3,f
  8610  178B                     l3063:	
  8611  178B  1FA2               	btfss	___flpack@arg+2,7
  8612  178C  2F81               	goto	l3065
  8613  178D                     l621:	
  8614  178D  1824               	btfsc	___flpack@exp,0
  8615  178E  2F92               	goto	l3069
  8616  178F  307F               	movlw	127
  8617  1790  05A2               	andwf	___flpack@arg+2,f
  8618  1791  30FF               	movlw	255
  8619  1792                     l3069:	
  8620  1792  1003               	clrc
  8621  1793  0CA4               	rrf	___flpack@exp,f
  8622  1794  0824               	movf	___flpack@exp,w
  8623  1795  00F6               	movwf	??___flpack+3
  8624  1796  01F5               	clrf	??___flpack+2
  8625  1797  01F4               	clrf	??___flpack+1
  8626  1798  01F3               	clrf	??___flpack
  8627  1799  0873               	movf	??___flpack,w
  8628  179A  04A0               	iorwf	___flpack@arg,f
  8629  179B  0874               	movf	??___flpack+1,w
  8630  179C  04A1               	iorwf	___flpack@arg+1,f
  8631  179D  0875               	movf	??___flpack+2,w
  8632  179E  04A2               	iorwf	___flpack@arg+2,f
  8633  179F  0876               	movf	??___flpack+3,w
  8634  17A0  04A3               	iorwf	___flpack@arg+3,f
  8635  17A1  0825               	movf	___flpack@sign,w
  8636  17A2  1D03               	btfss	3,2
  8637  17A3  17A3               	bsf	___flpack@arg+3,7
  8638  17A4  0008               	return
  8639  17A5                     __end_of___flpack:	
  8640  17A5                     __ptext36:	
  8641 ;; *************** function _measure_freq *****************
  8642 ;; Defined at:
  8643 ;;		line 299 in file "../../../src/LC-meter.c"
  8644 ;; Parameters:    Size  Location     Type
  8645 ;;		None
  8646 ;; Auto vars:     Size  Location     Type
  8647 ;;  i               1    5[BANK0 ] unsigned char 
  8648 ;;  count           2    6[BANK0 ] unsigned short 
  8649 ;;  prev            1    4[BANK0 ] unsigned char 
  8650 ;; Return value:  Size  Location     Type
  8651 ;;                  2    3[COMMON] unsigned short 
  8652 ;; Registers used:
  8653 ;;		wreg, status,2, status,0, btemp+1
  8654 ;; Tracked objects:
  8655 ;;		On entry : 300/0
  8656 ;;		On exit  : 300/0
  8657 ;;		Unchanged: 0/0
  8658 ;; Data sizes:     COMMON   BANK0   BANK1   BANK3   BANK2
  8659 ;;      Params:         2       0       0       0       0
  8660 ;;      Locals:         0       4       0       0       0
  8661 ;;      Temps:          0       4       0       0       0
  8662 ;;      Totals:         2       8       0       0       0
  8663 ;;Total ram usage:       10 bytes
  8664 ;; Hardware stack levels used:    1
  8665 ;; Hardware stack levels required when called:    1
  8666 ;; This function calls:
  8667 ;;		Nothing
  8668 ;; This function is called by:
  8669 ;;		_calibrate
  8670 ;;		_measure_capacitance
  8671 ;;		_measure_inductance
  8672 ;; This function uses a non-reentrant model
  8673 ;;
  8674                           
  8675                           
  8676                           ;psect for function _measure_freq
  8677  17A5                     _measure_freq:	
  8678                           
  8679                           ;LC-meter.c: 300: unsigned char prev;
  8680                           ;LC-meter.c: 301: unsigned short int count;
  8681                           ;LC-meter.c: 303: TMR0IF = 0;
  8682                           
  8683                           ;incstack = 0
  8684                           ; Regs used in _measure_freq: [wreg+status,2+status,0+btemp+1]
  8685  17A5  110B               	bcf	11,2	;volatile
  8686                           
  8687                           ;LC-meter.c: 305: TRISA &= ~0b00010000;
  8688  17A6  1683               	bsf	3,5	;RP0=1, select bank1
  8689  17A7  1205               	bcf	5,4	;volatile
  8690                           
  8691                           ;LC-meter.c: 308: _delay((unsigned long)((20)*(20000000/4000.0)));
  8692  17A8  3082               	movlw	130
  8693  17A9  1283               	bcf	3,5	;RP0=0, select bank0
  8694  17AA  00A1               	movwf	??_measure_freq+1
  8695  17AB  30DD               	movlw	221
  8696  17AC  00A0               	movwf	??_measure_freq
  8697  17AD                     u3747:	
  8698  17AD  0BA0               	decfsz	??_measure_freq,f
  8699  17AE  2FAD               	goto	u3747
  8700  17AF  0BA1               	decfsz	??_measure_freq+1,f
  8701  17B0  2FAD               	goto	u3747
  8702  17B1  2FB2               	nop2
  8703                           
  8704                           ;LC-meter.c: 310: TMR0 = 0x00;
  8705  17B2  1283               	bcf	3,5	;RP0=0, select bank0
  8706  17B3  1303               	bcf	3,6	;RP1=0, select bank0
  8707  17B4  0181               	clrf	1	;volatile
  8708                           
  8709                           ;LC-meter.c: 312: for(char i = 0; i < 10; i++) _delay((unsigned long)((10)*(20000000/400
      +                          0.0)));
  8710  17B5  01A5               	clrf	measure_freq@i
  8711  17B6                     l3621:	
  8712  17B6  3041               	movlw	65
  8713  17B7  00A1               	movwf	??_measure_freq+1
  8714  17B8  30EE               	movlw	238
  8715  17B9  00A0               	movwf	??_measure_freq
  8716  17BA                     u3757:	
  8717  17BA  0BA0               	decfsz	??_measure_freq,f
  8718  17BB  2FBA               	goto	u3757
  8719  17BC  0BA1               	decfsz	??_measure_freq+1,f
  8720  17BD  2FBA               	goto	u3757
  8721  17BE  0000               	nop
  8722  17BF  1283               	bcf	3,5	;RP0=0, select bank0
  8723  17C0  1303               	bcf	3,6	;RP1=0, select bank0
  8724  17C1  300A               	movlw	10
  8725  17C2  0AA5               	incf	measure_freq@i,f
  8726  17C3  0225               	subwf	measure_freq@i,w
  8727  17C4  1C03               	skipc
  8728  17C5  2FB6               	goto	l3621
  8729                           
  8730                           ;LC-meter.c: 314: TRISA |= 0b00010000;
  8731  17C6  1683               	bsf	3,5	;RP0=1, select bank1
  8732  17C7  1605               	bsf	5,4	;volatile
  8733                           
  8734                           ;LC-meter.c: 316: prev = TMR0;
  8735  17C8  1283               	bcf	3,5	;RP0=0, select bank0
  8736  17C9  0801               	movf	1,w	;volatile
  8737  17CA  00A4               	movwf	measure_freq@prev
  8738                           
  8739                           ;LC-meter.c: 317: count = 0;
  8740  17CB  01A6               	clrf	measure_freq@count
  8741  17CC  01A7               	clrf	measure_freq@count+1
  8742  17CD  2FD5               	goto	l3631
  8743  17CE                     l3647:	
  8744  17CE  3001               	movlw	1
  8745  17CF  0227               	subwf	measure_freq@count+1,w
  8746  17D0  3000               	movlw	0
  8747  17D1  1903               	skipnz
  8748  17D2  0226               	subwf	measure_freq@count,w
  8749  17D3  1803               	btfsc	3,0
  8750  17D4  2FE7               	goto	l3649
  8751  17D5                     l3631:	
  8752                           
  8753                           ;LC-meter.c: 321: T0SE = 1;
  8754  17D5  1683               	bsf	3,5	;RP0=1, select bank1
  8755  17D6  1601               	bsf	1,4	;volatile
  8756                           
  8757                           ;LC-meter.c: 322: __nop();
  8758  17D7  0000               	nop
  8759                           
  8760                           ;LC-meter.c: 323: __nop();
  8761  17D8  0000               	nop
  8762                           
  8763                           ;LC-meter.c: 325: T0SE = 0;
  8764  17D9  1683               	bsf	3,5	;RP0=1, select bank1
  8765  17DA  1303               	bcf	3,6	;RP1=0, select bank1
  8766  17DB  1201               	bcf	1,4	;volatile
  8767                           
  8768                           ;LC-meter.c: 326: __nop();
  8769  17DC  0000               	nop
  8770                           
  8771                           ;LC-meter.c: 327: __nop();
  8772  17DD  0000               	nop
  8773                           
  8774                           ;LC-meter.c: 328: count++;
  8775  17DE  1283               	bcf	3,5	;RP0=0, select bank0
  8776  17DF  1303               	bcf	3,6	;RP1=0, select bank0
  8777  17E0  0AA6               	incf	measure_freq@count,f
  8778  17E1  1903               	skipnz
  8779  17E2  0AA7               	incf	measure_freq@count+1,f
  8780                           
  8781                           ;LC-meter.c: 329: } while(prev == TMR0 && count <= 255);
  8782  17E3  0824               	movf	measure_freq@prev,w
  8783  17E4  0601               	xorwf	1,w	;volatile
  8784  17E5  1903               	btfsc	3,2
  8785  17E6  2FCE               	goto	l3647
  8786  17E7                     l3649:	
  8787                           
  8788                           ;LC-meter.c: 332: count = ((prev << 8) + (256 - count));
  8789  17E7  0824               	movf	measure_freq@prev,w
  8790  17E8  00A0               	movwf	??_measure_freq
  8791  17E9  01A1               	clrf	??_measure_freq+1
  8792  17EA  00A1               	movwf	??_measure_freq+1
  8793  17EB  01A0               	clrf	??_measure_freq
  8794  17EC  0826               	movf	measure_freq@count,w
  8795  17ED  0220               	subwf	??_measure_freq,w
  8796  17EE  00A2               	movwf	??_measure_freq+2
  8797  17EF  0827               	movf	measure_freq@count+1,w
  8798  17F0  1C03               	skipc
  8799  17F1  0A27               	incf	measure_freq@count+1,w
  8800  17F2  0221               	subwf	??_measure_freq+1,w
  8801  17F3  00A3               	movwf	??_measure_freq+3
  8802  17F4  0822               	movf	??_measure_freq+2,w
  8803  17F5  3E00               	addlw	0
  8804  17F6  00A6               	movwf	measure_freq@count
  8805  17F7  0823               	movf	??_measure_freq+3,w
  8806  17F8  1803               	skipnc
  8807  17F9  3E01               	addlw	1
  8808  17FA  3E01               	addlw	1
  8809  17FB  00A7               	movwf	measure_freq@count+1
  8810                           
  8811                           ;LC-meter.c: 339: return count;
  8812  17FC  00F4               	movwf	?_measure_freq+1
  8813  17FD  0826               	movf	measure_freq@count,w
  8814  17FE  00F3               	movwf	?_measure_freq
  8815  17FF  0008               	return
  8816  1800                     __end_of_measure_freq:	
  8817                           
  8818                           	psect	text33
  8819  07FB                     __ptext33:	
  8820 ;; *************** function _indicator *****************
  8821 ;; Defined at:
  8822 ;;		line 469 in file "../../../src/print.c"
  8823 ;; Parameters:    Size  Location     Type
  8824 ;;  indicate        1    wreg     unsigned char 
  8825 ;; Auto vars:     Size  Location     Type
  8826 ;;  indicate        1    0[COMMON] unsigned char 
  8827 ;; Return value:  Size  Location     Type
  8828 ;;		None               void
  8829 ;; Registers used:
  8830 ;;		wreg
  8831 ;; Tracked objects:
  8832 ;;		On entry : 0/100
  8833 ;;		On exit  : 0/0
  8834 ;;		Unchanged: 0/0
  8835 ;; Data sizes:     COMMON   BANK0   BANK1   BANK3   BANK2
  8836 ;;      Params:         0       0       0       0       0
  8837 ;;      Locals:         0       0       0       0       0
  8838 ;;      Temps:          0       0       0       0       0
  8839 ;;      Totals:         0       0       0       0       0
  8840 ;;Total ram usage:        0 bytes
  8841 ;; Hardware stack levels used:    1
  8842 ;; Hardware stack levels required when called:    1
  8843 ;; This function calls:
  8844 ;;		Nothing
  8845 ;; This function is called by:
  8846 ;;		_main
  8847 ;; This function uses a non-reentrant model
  8848 ;;
  8849                           
  8850                           
  8851                           ;psect for function _indicator
  8852  07FB                     _indicator:	
  8853                           
  8854                           ;incstack = 0
  8855                           ; Regs used in _indicator: [wreg]
  8856  07FB  0008               	return
  8857  07FC                     __end_of_indicator:	
  8858                           
  8859                           	psect	text34
  8860  062B                     __ptext34:	
  8861 ;; *************** function _calibrate *****************
  8862 ;; Defined at:
  8863 ;;		line 346 in file "../../../src/LC-meter.c"
  8864 ;; Parameters:    Size  Location     Type
  8865 ;;		None
  8866 ;; Auto vars:     Size  Location     Type
  8867 ;;  i               1    0        unsigned char 
  8868 ;; Return value:  Size  Location     Type
  8869 ;;		None               void
  8870 ;; Registers used:
  8871 ;;		wreg, fsr0l, fsr0h, status,2, status,0, btemp+1, pclath, cstack
  8872 ;; Tracked objects:
  8873 ;;		On entry : 300/0
  8874 ;;		On exit  : 0/0
  8875 ;;		Unchanged: 0/0
  8876 ;; Data sizes:     COMMON   BANK0   BANK1   BANK3   BANK2
  8877 ;;      Params:         0       0       0       0       0
  8878 ;;      Locals:         0       0       0       0       0
  8879 ;;      Temps:          0       0       0       0       0
  8880 ;;      Totals:         0       0       0       0       0
  8881 ;;Total ram usage:        0 bytes
  8882 ;; Hardware stack levels used:    1
  8883 ;; Hardware stack levels required when called:    3
  8884 ;; This function calls:
  8885 ;;		___lwtofl
  8886 ;;		_delay10ms
  8887 ;;		_measure_freq
  8888 ;;		_ser_puts
  8889 ;; This function is called by:
  8890 ;;		_main
  8891 ;; This function uses a non-reentrant model
  8892 ;;
  8893                           
  8894                           
  8895                           ;psect for function _calibrate
  8896  062B                     _calibrate:	
  8897                           
  8898                           ;LC-meter.c: 347: unsigned char i;
  8899                           ;LC-meter.c: 360: PORTC &= ~(1 << 5);
  8900                           
  8901                           ;incstack = 0
  8902                           ; Regs used in _calibrate: [wreg-fsr0h+status,2+status,0+btemp+1+pclath+cstack]
  8903  062B  1287               	bcf	7,5	;volatile
  8904                           
  8905                           ;LC-meter.c: 362: F1 = (double)measure_freq();
  8906  062C  160A  118A  27A5  120A  118A  	fcall	_measure_freq
  8907  0631  0874               	movf	?_measure_freq+1,w
  8908  0632  00A9               	movwf	___lwtofl@c+1
  8909  0633  0873               	movf	?_measure_freq,w
  8910  0634  00A8               	movwf	___lwtofl@c
  8911  0635  120A  158A  27E9  120A  118A  	fcall	___lwtofl
  8912  063A  082B               	movf	?___lwtofl+3,w
  8913  063B  1683               	bsf	3,5	;RP0=1, select bank3
  8914  063C  1703               	bsf	3,6	;RP1=1, select bank3
  8915  063D  00DC               	movwf	(_F1+3)^(0+384)
  8916  063E  1283               	bcf	3,5	;RP0=0, select bank0
  8917  063F  1303               	bcf	3,6	;RP1=0, select bank0
  8918  0640  082A               	movf	?___lwtofl+2,w
  8919  0641  1683               	bsf	3,5	;RP0=1, select bank3
  8920  0642  1703               	bsf	3,6	;RP1=1, select bank3
  8921  0643  00DB               	movwf	(_F1+2)^(0+384)
  8922  0644  1283               	bcf	3,5	;RP0=0, select bank0
  8923  0645  1303               	bcf	3,6	;RP1=0, select bank0
  8924  0646  0829               	movf	?___lwtofl+1,w
  8925  0647  1683               	bsf	3,5	;RP0=1, select bank3
  8926  0648  1703               	bsf	3,6	;RP1=1, select bank3
  8927  0649  00DA               	movwf	(_F1+1)^(0+384)
  8928  064A  1283               	bcf	3,5	;RP0=0, select bank0
  8929  064B  1303               	bcf	3,6	;RP1=0, select bank0
  8930  064C  0828               	movf	?___lwtofl,w
  8931  064D  1683               	bsf	3,5	;RP0=1, select bank3
  8932  064E  1703               	bsf	3,6	;RP1=1, select bank3
  8933  064F  00D9               	movwf	_F1^(0+384)
  8934                           
  8935                           ;LC-meter.c: 363: delay10ms(50);
  8936  0650  3032               	movlw	50
  8937  0651  1283               	bcf	3,5	;RP0=0, select bank0
  8938  0652  1303               	bcf	3,6	;RP1=0, select bank0
  8939  0653  00A2               	movwf	delay10ms@period_10ms
  8940  0654  01A3               	clrf	delay10ms@period_10ms+1
  8941  0655  26D2               	fcall	_delay10ms
  8942                           
  8943                           ;LC-meter.c: 365: F1 = (double)measure_freq();
  8944  0656  160A  118A  27A5  120A  118A  	fcall	_measure_freq
  8945  065B  0874               	movf	?_measure_freq+1,w
  8946  065C  00A9               	movwf	___lwtofl@c+1
  8947  065D  0873               	movf	?_measure_freq,w
  8948  065E  00A8               	movwf	___lwtofl@c
  8949  065F  120A  158A  27E9  120A  118A  	fcall	___lwtofl
  8950  0664  082B               	movf	?___lwtofl+3,w
  8951  0665  1683               	bsf	3,5	;RP0=1, select bank3
  8952  0666  1703               	bsf	3,6	;RP1=1, select bank3
  8953  0667  00DC               	movwf	(_F1+3)^(0+384)
  8954  0668  1283               	bcf	3,5	;RP0=0, select bank0
  8955  0669  1303               	bcf	3,6	;RP1=0, select bank0
  8956  066A  082A               	movf	?___lwtofl+2,w
  8957  066B  1683               	bsf	3,5	;RP0=1, select bank3
  8958  066C  1703               	bsf	3,6	;RP1=1, select bank3
  8959  066D  00DB               	movwf	(_F1+2)^(0+384)
  8960  066E  1283               	bcf	3,5	;RP0=0, select bank0
  8961  066F  1303               	bcf	3,6	;RP1=0, select bank0
  8962  0670  0829               	movf	?___lwtofl+1,w
  8963  0671  1683               	bsf	3,5	;RP0=1, select bank3
  8964  0672  1703               	bsf	3,6	;RP1=1, select bank3
  8965  0673  00DA               	movwf	(_F1+1)^(0+384)
  8966  0674  1283               	bcf	3,5	;RP0=0, select bank0
  8967  0675  1303               	bcf	3,6	;RP1=0, select bank0
  8968  0676  0828               	movf	?___lwtofl,w
  8969  0677  1683               	bsf	3,5	;RP0=1, select bank3
  8970  0678  1703               	bsf	3,6	;RP1=1, select bank3
  8971  0679  00D9               	movwf	_F1^(0+384)
  8972                           
  8973                           ;LC-meter.c: 366: PORTC |= (1 << 5);
  8974  067A  1283               	bcf	3,5	;RP0=0, select bank0
  8975  067B  1303               	bcf	3,6	;RP1=0, select bank0
  8976  067C  1687               	bsf	7,5	;volatile
  8977                           
  8978                           ;LC-meter.c: 368: F2 = (double)measure_freq();
  8979  067D  160A  118A  27A5  120A  118A  	fcall	_measure_freq
  8980  0682  0874               	movf	?_measure_freq+1,w
  8981  0683  00A9               	movwf	___lwtofl@c+1
  8982  0684  0873               	movf	?_measure_freq,w
  8983  0685  00A8               	movwf	___lwtofl@c
  8984  0686  120A  158A  27E9  120A  118A  	fcall	___lwtofl
  8985  068B  082B               	movf	?___lwtofl+3,w
  8986  068C  1683               	bsf	3,5	;RP0=1, select bank3
  8987  068D  1703               	bsf	3,6	;RP1=1, select bank3
  8988  068E  00CA               	movwf	(_F2+3)^(0+384)
  8989  068F  1283               	bcf	3,5	;RP0=0, select bank0
  8990  0690  1303               	bcf	3,6	;RP1=0, select bank0
  8991  0691  082A               	movf	?___lwtofl+2,w
  8992  0692  1683               	bsf	3,5	;RP0=1, select bank3
  8993  0693  1703               	bsf	3,6	;RP1=1, select bank3
  8994  0694  00C9               	movwf	(_F2+2)^(0+384)
  8995  0695  1283               	bcf	3,5	;RP0=0, select bank0
  8996  0696  1303               	bcf	3,6	;RP1=0, select bank0
  8997  0697  0829               	movf	?___lwtofl+1,w
  8998  0698  1683               	bsf	3,5	;RP0=1, select bank3
  8999  0699  1703               	bsf	3,6	;RP1=1, select bank3
  9000  069A  00C8               	movwf	(_F2+1)^(0+384)
  9001  069B  1283               	bcf	3,5	;RP0=0, select bank0
  9002  069C  1303               	bcf	3,6	;RP1=0, select bank0
  9003  069D  0828               	movf	?___lwtofl,w
  9004  069E  1683               	bsf	3,5	;RP0=1, select bank3
  9005  069F  1703               	bsf	3,6	;RP1=1, select bank3
  9006  06A0  00C7               	movwf	_F2^(0+384)
  9007                           
  9008                           ;LC-meter.c: 369: delay10ms(50);
  9009  06A1  3032               	movlw	50
  9010  06A2  1283               	bcf	3,5	;RP0=0, select bank0
  9011  06A3  1303               	bcf	3,6	;RP1=0, select bank0
  9012  06A4  00A2               	movwf	delay10ms@period_10ms
  9013  06A5  01A3               	clrf	delay10ms@period_10ms+1
  9014  06A6  26D2               	fcall	_delay10ms
  9015                           
  9016                           ;LC-meter.c: 371: F2 = (double)measure_freq();
  9017  06A7  160A  118A  27A5  120A  118A  	fcall	_measure_freq
  9018  06AC  0874               	movf	?_measure_freq+1,w
  9019  06AD  00A9               	movwf	___lwtofl@c+1
  9020  06AE  0873               	movf	?_measure_freq,w
  9021  06AF  00A8               	movwf	___lwtofl@c
  9022  06B0  120A  158A  27E9  120A  118A  	fcall	___lwtofl
  9023  06B5  082B               	movf	?___lwtofl+3,w
  9024  06B6  1683               	bsf	3,5	;RP0=1, select bank3
  9025  06B7  1703               	bsf	3,6	;RP1=1, select bank3
  9026  06B8  00CA               	movwf	(_F2+3)^(0+384)
  9027  06B9  1283               	bcf	3,5	;RP0=0, select bank0
  9028  06BA  1303               	bcf	3,6	;RP1=0, select bank0
  9029  06BB  082A               	movf	?___lwtofl+2,w
  9030  06BC  1683               	bsf	3,5	;RP0=1, select bank3
  9031  06BD  1703               	bsf	3,6	;RP1=1, select bank3
  9032  06BE  00C9               	movwf	(_F2+2)^(0+384)
  9033  06BF  1283               	bcf	3,5	;RP0=0, select bank0
  9034  06C0  1303               	bcf	3,6	;RP1=0, select bank0
  9035  06C1  0829               	movf	?___lwtofl+1,w
  9036  06C2  1683               	bsf	3,5	;RP0=1, select bank3
  9037  06C3  1703               	bsf	3,6	;RP1=1, select bank3
  9038  06C4  00C8               	movwf	(_F2+1)^(0+384)
  9039  06C5  1283               	bcf	3,5	;RP0=0, select bank0
  9040  06C6  1303               	bcf	3,6	;RP1=0, select bank0
  9041  06C7  0828               	movf	?___lwtofl,w
  9042  06C8  1683               	bsf	3,5	;RP0=1, select bank3
  9043  06C9  1703               	bsf	3,6	;RP1=1, select bank3
  9044  06CA  00C7               	movwf	_F2^(0+384)
  9045                           
  9046                           ;LC-meter.c: 372: PORTC &= ~(1 << 5);
  9047  06CB  1283               	bcf	3,5	;RP0=0, select bank0
  9048  06CC  1303               	bcf	3,6	;RP1=0, select bank0
  9049  06CD  1287               	bcf	7,5	;volatile
  9050                           
  9051                           ;LC-meter.c: 384: ser_puts("\r\n");
  9052  06CE  3058               	movlw	(low (((STR_1+3)-__stringbase)| (0+32768)))& (0+255)
  9053  06CF  120A  158A  2C8E   	ljmp	_ser_puts
  9054  06D2                     __end_of_calibrate:	
  9055  06D2                     __ptext37:	
  9056 ;; *************** function _delay10ms *****************
  9057 ;; Defined at:
  9058 ;;		line 532 in file "../../../src/LC-meter.c"
  9059 ;; Parameters:    Size  Location     Type
  9060 ;;  period_10ms     2    2[BANK0 ] unsigned short 
  9061 ;; Auto vars:     Size  Location     Type
  9062 ;;  ms              4    8[BANK0 ] unsigned long 
  9063 ;;  run             1   12[BANK0 ] unsigned char 
  9064 ;; Return value:  Size  Location     Type
  9065 ;;		None               void
  9066 ;; Registers used:
  9067 ;;		wreg, status,2, status,0, pclath, cstack
  9068 ;; Tracked objects:
  9069 ;;		On entry : 300/0
  9070 ;;		On exit  : 300/0
  9071 ;;		Unchanged: 0/0
  9072 ;; Data sizes:     COMMON   BANK0   BANK1   BANK3   BANK2
  9073 ;;      Params:         0       2       0       0       0
  9074 ;;      Locals:         0       5       0       0       0
  9075 ;;      Temps:          0       4       0       0       0
  9076 ;;      Totals:         0      11       0       0       0
  9077 ;;Total ram usage:       11 bytes
  9078 ;; Hardware stack levels used:    1
  9079 ;; Hardware stack levels required when called:    2
  9080 ;; This function calls:
  9081 ;;		___wmul
  9082 ;; This function is called by:
  9083 ;;		_main
  9084 ;;		_calibrate
  9085 ;; This function uses a non-reentrant model
  9086 ;;
  9087                           
  9088                           
  9089                           ;psect for function _delay10ms
  9090  06D2                     _delay10ms:	
  9091                           
  9092                           ;LC-meter.c: 536: unsigned long int ms;
  9093                           ;LC-meter.c: 537: char run = 1;
  9094                           
  9095                           ;incstack = 0
  9096                           ; Regs used in _delay10ms: [wreg+status,2+status,0+pclath+cstack]
  9097  06D2  01AC               	clrf	delay10ms@run
  9098  06D3  0AAC               	incf	delay10ms@run,f
  9099                           
  9100                           ;LC-meter.c: 539: GIE = 0, ms = msecs, GIE = 1;
  9101  06D4  138B               	bcf	11,7	;volatile
  9102  06D5  1683               	bsf	3,5	;RP0=1, select bank1
  9103  06D6  0869               	movf	(_msecs+3)^(0+128),w	;volatile
  9104  06D7  1283               	bcf	3,5	;RP0=0, select bank0
  9105  06D8  00AB               	movwf	delay10ms@ms+3
  9106  06D9  1683               	bsf	3,5	;RP0=1, select bank1
  9107  06DA  0868               	movf	(_msecs+2)^(0+128),w	;volatile
  9108  06DB  1283               	bcf	3,5	;RP0=0, select bank0
  9109  06DC  00AA               	movwf	delay10ms@ms+2
  9110  06DD  1683               	bsf	3,5	;RP0=1, select bank1
  9111  06DE  0867               	movf	(_msecs+1)^(0+128),w	;volatile
  9112  06DF  1283               	bcf	3,5	;RP0=0, select bank0
  9113  06E0  00A9               	movwf	delay10ms@ms+1
  9114  06E1  1683               	bsf	3,5	;RP0=1, select bank1
  9115  06E2  0866               	movf	_msecs^(0+128),w	;volatile
  9116  06E3  1283               	bcf	3,5	;RP0=0, select bank0
  9117  06E4  00A8               	movwf	delay10ms@ms
  9118  06E5  178B               	bsf	11,7	;volatile
  9119                           
  9120                           ;LC-meter.c: 544: ms += period_10ms * 10;
  9121  06E6  0823               	movf	delay10ms@period_10ms+1,w
  9122  06E7  00F4               	movwf	___wmul@multiplier+1
  9123  06E8  0822               	movf	delay10ms@period_10ms,w
  9124  06E9  00F3               	movwf	___wmul@multiplier
  9125  06EA  300A               	movlw	10
  9126  06EB  00F5               	movwf	___wmul@multiplicand
  9127  06EC  01F6               	clrf	___wmul@multiplicand+1
  9128  06ED  2729  120A  118A   	fcall	___wmul
  9129  06F0  0873               	movf	?___wmul,w
  9130  06F1  00A4               	movwf	??_delay10ms
  9131  06F2  0874               	movf	?___wmul+1,w
  9132  06F3  00A5               	movwf	??_delay10ms+1
  9133  06F4  01A6               	clrf	??_delay10ms+2
  9134  06F5  01A7               	clrf	??_delay10ms+3
  9135  06F6  0824               	movf	??_delay10ms,w
  9136  06F7  07A8               	addwf	delay10ms@ms,f
  9137  06F8  0825               	movf	??_delay10ms+1,w
  9138  06F9  1103               	clrz
  9139  06FA  1803               	skipnc
  9140  06FB  3E01               	addlw	1
  9141  06FC  1D03               	btfss	3,2
  9142  06FD  07A9               	addwf	delay10ms@ms+1,f
  9143  06FE  0826               	movf	??_delay10ms+2,w
  9144  06FF  1103               	clrz
  9145  0700  1803               	skipnc
  9146  0701  3E01               	addlw	1
  9147  0702  1D03               	btfss	3,2
  9148  0703  07AA               	addwf	delay10ms@ms+2,f
  9149  0704  0827               	movf	??_delay10ms+3,w
  9150  0705  1103               	clrz
  9151  0706  1803               	skipnc
  9152  0707  3E01               	addlw	1
  9153  0708  1D03               	btfss	3,2
  9154  0709  07AB               	addwf	delay10ms@ms+3,f
  9155  070A                     l3601:	
  9156                           
  9157                           ;LC-meter.c: 548: GIE = 0;
  9158  070A  138B               	bcf	11,7	;volatile
  9159                           
  9160                           ;LC-meter.c: 549: if(ms <= msecs)
  9161  070B  082B               	movf	delay10ms@ms+3,w
  9162  070C  1683               	bsf	3,5	;RP0=1, select bank1
  9163  070D  0269               	subwf	(_msecs+3)^(0+128),w	;volatile
  9164  070E  1D03               	skipz
  9165  070F  2F20               	goto	u3605
  9166  0710  1283               	bcf	3,5	;RP0=0, select bank0
  9167  0711  082A               	movf	delay10ms@ms+2,w
  9168  0712  1683               	bsf	3,5	;RP0=1, select bank1
  9169  0713  0268               	subwf	(_msecs+2)^(0+128),w	;volatile
  9170  0714  1D03               	skipz
  9171  0715  2F20               	goto	u3605
  9172  0716  1283               	bcf	3,5	;RP0=0, select bank0
  9173  0717  0829               	movf	delay10ms@ms+1,w
  9174  0718  1683               	bsf	3,5	;RP0=1, select bank1
  9175  0719  0267               	subwf	(_msecs+1)^(0+128),w	;volatile
  9176  071A  1D03               	skipz
  9177  071B  2F20               	goto	u3605
  9178  071C  1283               	bcf	3,5	;RP0=0, select bank0
  9179  071D  0828               	movf	delay10ms@ms,w
  9180  071E  1683               	bsf	3,5	;RP0=1, select bank1
  9181  071F  0266               	subwf	_msecs^(0+128),w	;volatile
  9182  0720                     u3605:	
  9183                           
  9184                           ;LC-meter.c: 550: run = 0;
  9185  0720  1283               	bcf	3,5	;RP0=0, select bank0
  9186  0721  1803               	btfsc	3,0
  9187  0722  01AC               	clrf	delay10ms@run
  9188                           
  9189                           ;LC-meter.c: 551: GIE = 1;
  9190  0723  178B               	bsf	11,7	;volatile
  9191                           
  9192                           ;LC-meter.c: 552: } while(run);
  9193  0724  1283               	bcf	3,5	;RP0=0, select bank0
  9194  0725  082C               	movf	delay10ms@run,w
  9195  0726  1903               	btfsc	3,2
  9196  0727  0008               	return
  9197  0728  2F0A               	goto	l3601
  9198  0729                     __end_of_delay10ms:	
  9199  0729                     __ptext38:	
  9200 ;; *************** function ___wmul *****************
  9201 ;; Defined at:
  9202 ;;		line 15 in file "C:\Program Files (x86)\Microchip\xc8\v1.34\sources\common\Umul16.c"
  9203 ;; Parameters:    Size  Location     Type
  9204 ;;  multiplier      2    3[COMMON] unsigned int 
  9205 ;;  multiplicand    2    5[COMMON] unsigned int 
  9206 ;; Auto vars:     Size  Location     Type
  9207 ;;  product         2    0[BANK0 ] unsigned int 
  9208 ;; Return value:  Size  Location     Type
  9209 ;;                  2    3[COMMON] unsigned int 
  9210 ;; Registers used:
  9211 ;;		wreg, status,2, status,0
  9212 ;; Tracked objects:
  9213 ;;		On entry : 300/0
  9214 ;;		On exit  : 300/0
  9215 ;;		Unchanged: 0/0
  9216 ;; Data sizes:     COMMON   BANK0   BANK1   BANK3   BANK2
  9217 ;;      Params:         4       0       0       0       0
  9218 ;;      Locals:         0       2       0       0       0
  9219 ;;      Temps:          0       0       0       0       0
  9220 ;;      Totals:         4       2       0       0       0
  9221 ;;Total ram usage:        6 bytes
  9222 ;; Hardware stack levels used:    1
  9223 ;; Hardware stack levels required when called:    1
  9224 ;; This function calls:
  9225 ;;		Nothing
  9226 ;; This function is called by:
  9227 ;;		_delay10ms
  9228 ;; This function uses a non-reentrant model
  9229 ;;
  9230                           
  9231                           
  9232                           ;psect for function ___wmul
  9233  0729                     ___wmul:	
  9234                           
  9235                           ;incstack = 0
  9236                           ; Regs used in ___wmul: [wreg+status,2+status,0]
  9237  0729  01A0               	clrf	___wmul@product
  9238  072A  01A1               	clrf	___wmul@product+1
  9239  072B                     l3559:	
  9240  072B  1C73               	btfss	___wmul@multiplier,0
  9241  072C  2F33               	goto	l3563
  9242  072D  0875               	movf	___wmul@multiplicand,w
  9243  072E  07A0               	addwf	___wmul@product,f
  9244  072F  1803               	skipnc
  9245  0730  0AA1               	incf	___wmul@product+1,f
  9246  0731  0876               	movf	___wmul@multiplicand+1,w
  9247  0732  07A1               	addwf	___wmul@product+1,f
  9248  0733                     l3563:	
  9249  0733  1003               	clrc
  9250  0734  0DF5               	rlf	___wmul@multiplicand,f
  9251  0735  0DF6               	rlf	___wmul@multiplicand+1,f
  9252  0736  1003               	clrc
  9253  0737  0CF4               	rrf	___wmul@multiplier+1,f
  9254  0738  0CF3               	rrf	___wmul@multiplier,f
  9255  0739  0873               	movf	___wmul@multiplier,w
  9256  073A  0474               	iorwf	___wmul@multiplier+1,w
  9257  073B  1D03               	btfss	3,2
  9258  073C  2F2B               	goto	l3559
  9259  073D  0821               	movf	___wmul@product+1,w
  9260  073E  00F4               	movwf	?___wmul+1
  9261  073F  0820               	movf	___wmul@product,w
  9262  0740  00F3               	movwf	?___wmul
  9263  0741  0008               	return
  9264  0742                     __end_of___wmul:	
  9265                           
  9266                           	psect	text41
  9267  1F72                     __ptext41:	
  9268 ;; *************** function _isr *****************
  9269 ;; Defined at:
  9270 ;;		line 79 in file "../../../src/LC-meter.c"
  9271 ;; Parameters:    Size  Location     Type
  9272 ;;		None
  9273 ;; Auto vars:     Size  Location     Type
  9274 ;;		None
  9275 ;; Return value:  Size  Location     Type
  9276 ;;                  2  299[None  ] int 
  9277 ;; Registers used:
  9278 ;;		wreg, fsr0l, fsr0h, status,2, status,0
  9279 ;; Tracked objects:
  9280 ;;		On entry : 0/0
  9281 ;;		On exit  : 200/0
  9282 ;;		Unchanged: 0/0
  9283 ;; Data sizes:     COMMON   BANK0   BANK1   BANK3   BANK2
  9284 ;;      Params:         0       0       0       0       0
  9285 ;;      Locals:         0       0       0       0       0
  9286 ;;      Temps:          3       0       0       0       0
  9287 ;;      Totals:         3       0       0       0       0
  9288 ;;Total ram usage:        3 bytes
  9289 ;; Hardware stack levels used:    1
  9290 ;; This function calls:
  9291 ;;		Nothing
  9292 ;; This function is called by:
  9293 ;;		Interrupt level 1
  9294 ;; This function uses a non-reentrant model
  9295 ;;
  9296                           
  9297                           
  9298                           ;psect for function _isr
  9299  1F72                     _isr:	
  9300                           
  9301                           ;LC-meter.c: 81: if(TMR2IF) {
  9302  1F72  1283               	bcf	3,5	;RP0=0, select bank0
  9303  1F73  1303               	bcf	3,6	;RP1=0, select bank0
  9304  1F74  1C8C               	btfss	12,1	;volatile
  9305  1F75  2FCA               	goto	i1l2945
  9306                           
  9307                           ;LC-meter.c: 83: bres += 256;
  9308  1F76  3001               	movlw	1
  9309  1F77  1683               	bsf	3,5	;RP0=1, select bank3
  9310  1F78  1703               	bsf	3,6	;RP1=1, select bank3
  9311  1F79  07E2               	addwf	(_bres+1)^(0+384),f	;volatile
  9312                           
  9313                           ;LC-meter.c: 85: if(bres >= 5000) {
  9314  1F7A  3013               	movlw	19
  9315  1F7B  0262               	subwf	(_bres+1)^(0+384),w	;volatile
  9316  1F7C  3088               	movlw	136
  9317  1F7D  1903               	skipnz
  9318  1F7E  0261               	subwf	_bres^(0+384),w	;volatile
  9319  1F7F  1C03               	skipc
  9320  1F80  2FC7               	goto	i1l2943
  9321                           
  9322                           ;LC-meter.c: 86: bres -= 5000;
  9323  1F81  3088               	movlw	136
  9324  1F82  02E1               	subwf	_bres^(0+384),f	;volatile
  9325  1F83  3013               	movlw	19
  9326  1F84  1C03               	skipc
  9327  1F85  03E2               	decf	(_bres+1)^(0+384),f	;volatile
  9328  1F86  02E2               	subwf	(_bres+1)^(0+384),f	;volatile
  9329                           
  9330                           ;LC-meter.c: 87: msecpart++;
  9331  1F87  0AE3               	incf	_msecpart^(0+384),f	;volatile
  9332  1F88  1903               	skipnz
  9333  1F89  0AE4               	incf	(_msecpart+1)^(0+384),f	;volatile
  9334                           
  9335                           ;LC-meter.c: 88: msecs++;
  9336  1F8A  1303               	bcf	3,6	;RP1=0, select bank1
  9337  1F8B  0AE6               	incf	_msecs^(0+128),f	;volatile
  9338  1F8C  1903               	skipnz
  9339  1F8D  0AE7               	incf	(_msecs+1)^(0+128),f	;volatile
  9340  1F8E  1903               	skipnz
  9341  1F8F  0AE8               	incf	(_msecs+2)^(0+128),f	;volatile
  9342  1F90  1903               	skipnz
  9343  1F91  0AE9               	incf	(_msecs+3)^(0+128),f	;volatile
  9344                           
  9345                           ;LC-meter.c: 90: RC3 = (((blink > 200)) == 0);
  9346  1F92  3000               	movlw	0
  9347  1F93  1703               	bsf	3,6	;RP1=1, select bank3
  9348  1F94  0258               	subwf	(_blink+1)^(0+384),w
  9349  1F95  30C9               	movlw	201
  9350  1F96  1903               	skipnz
  9351  1F97  0257               	subwf	_blink^(0+384),w
  9352  1F98  1803               	btfsc	3,0
  9353  1F99  2F9E               	goto	u261_20
  9354  1F9A  1283               	bcf	3,5	;RP0=0, select bank0
  9355  1F9B  1303               	bcf	3,6	;RP1=0, select bank0
  9356  1F9C  1587               	bsf	7,3	;volatile
  9357  1F9D  2FA1               	goto	u262_24
  9358  1F9E                     u261_20:	
  9359  1F9E  1283               	bcf	3,5	;RP0=0, select bank0
  9360  1F9F  1303               	bcf	3,6	;RP1=0, select bank0
  9361  1FA0  1187               	bcf	7,3	;volatile
  9362  1FA1                     u262_24:	
  9363                           
  9364                           ;LC-meter.c: 91: if(blink >= 400)
  9365  1FA1  3001               	movlw	1
  9366  1FA2  1683               	bsf	3,5	;RP0=1, select bank3
  9367  1FA3  1703               	bsf	3,6	;RP1=1, select bank3
  9368  1FA4  0258               	subwf	(_blink+1)^(0+384),w
  9369  1FA5  3090               	movlw	144
  9370  1FA6  1903               	skipnz
  9371  1FA7  0257               	subwf	_blink^(0+384),w
  9372  1FA8  1C03               	skipc
  9373  1FA9  2FB0               	goto	i1l2935
  9374                           
  9375                           ;LC-meter.c: 92: blink -= 400;
  9376  1FAA  3090               	movlw	144
  9377  1FAB  02D7               	subwf	_blink^(0+384),f
  9378  1FAC  3001               	movlw	1
  9379  1FAD  1C03               	skipc
  9380  1FAE  03D8               	decf	(_blink+1)^(0+384),f
  9381  1FAF  02D8               	subwf	(_blink+1)^(0+384),f
  9382  1FB0                     i1l2935:	
  9383                           
  9384                           ;LC-meter.c: 93: ++blink;
  9385  1FB0  0AD7               	incf	_blink^(0+384),f
  9386  1FB1  1903               	skipnz
  9387  1FB2  0AD8               	incf	(_blink+1)^(0+384),f
  9388                           
  9389                           ;LC-meter.c: 96: if(msecpart >= 1000) {
  9390  1FB3  3003               	movlw	3
  9391  1FB4  0264               	subwf	(_msecpart+1)^(0+384),w	;volatile
  9392  1FB5  30E8               	movlw	232
  9393  1FB6  1903               	skipnz
  9394  1FB7  0263               	subwf	_msecpart^(0+384),w	;volatile
  9395  1FB8  1C03               	skipc
  9396  1FB9  2FC7               	goto	i1l2943
  9397                           
  9398                           ;LC-meter.c: 98: seconds++;
  9399  1FBA  0ACF               	incf	_seconds^(0+384),f	;volatile
  9400  1FBB  1903               	skipnz
  9401  1FBC  0AD0               	incf	(_seconds+1)^(0+384),f	;volatile
  9402  1FBD  1903               	skipnz
  9403  1FBE  0AD1               	incf	(_seconds+2)^(0+384),f	;volatile
  9404  1FBF  1903               	skipnz
  9405  1FC0  0AD2               	incf	(_seconds+3)^(0+384),f	;volatile
  9406                           
  9407                           ;LC-meter.c: 99: msecpart -= 1000;
  9408  1FC1  30E8               	movlw	232
  9409  1FC2  02E3               	subwf	_msecpart^(0+384),f	;volatile
  9410  1FC3  3003               	movlw	3
  9411  1FC4  1C03               	skipc
  9412  1FC5  03E4               	decf	(_msecpart+1)^(0+384),f	;volatile
  9413  1FC6  02E4               	subwf	(_msecpart+1)^(0+384),f	;volatile
  9414  1FC7                     i1l2943:	
  9415                           
  9416                           ;LC-meter.c: 100: }
  9417                           ;LC-meter.c: 101: }
  9418                           ;LC-meter.c: 103: TMR2IF = 0;
  9419  1FC7  1283               	bcf	3,5	;RP0=0, select bank0
  9420  1FC8  1303               	bcf	3,6	;RP1=0, select bank0
  9421  1FC9  108C               	bcf	12,1	;volatile
  9422  1FCA                     i1l2945:	
  9423                           
  9424                           ;LC-meter.c: 104: }
  9425                           ;LC-meter.c: 106: if(RCIF) { rxfifo[rxiptr] = RCREG; ser_tmp = (rxiptr + 1) & ((unsigned
      +                           char)16 - 1); if(ser_tmp != rxoptr) rxiptr = ser_tmp; }; if(TXIF && TXIE) { TXREG = txf
      +                          ifo[txoptr]; ++txoptr; txoptr &= ((unsigned char)16 - 1); if(txoptr == txiptr) { TXIE = 
      +                          0; }
  9426  1FCA  1E8C               	btfss	12,5	;volatile
  9427  1FCB  2FE0               	goto	i1l2957
  9428  1FCC  1683               	bsf	3,5	;RP0=1, select bank1
  9429  1FCD  086A               	movf	_rxiptr^(0+128),w
  9430  1FCE  3E10               	addlw	(low (_rxfifo| (0+256)))& (0+255)
  9431  1FCF  0084               	movwf	4
  9432  1FD0  1283               	bcf	3,5	;RP0=0, select bank0
  9433  1FD1  081A               	movf	26,w	;volatile
  9434  1FD2  1783               	bsf	3,7	;select IRP bank2
  9435  1FD3  0080               	movwf	0
  9436  1FD4  1683               	bsf	3,5	;RP0=1, select bank1
  9437  1FD5  086A               	movf	_rxiptr^(0+128),w	;volatile
  9438  1FD6  3E01               	addlw	1
  9439  1FD7  00EC               	movwf	_ser_tmp^(0+128)
  9440  1FD8  300F               	movlw	15
  9441  1FD9  05EC               	andwf	_ser_tmp^(0+128),f
  9442  1FDA  086C               	movf	_ser_tmp^(0+128),w
  9443  1FDB  066B               	xorwf	_rxoptr^(0+128),w	;volatile
  9444  1FDC  1903               	skipnz
  9445  1FDD  2FE0               	goto	i1l2957
  9446  1FDE  086C               	movf	_ser_tmp^(0+128),w
  9447  1FDF  00EA               	movwf	_rxiptr^(0+128)	;volatile
  9448  1FE0                     i1l2957:	
  9449  1FE0  1283               	bcf	3,5	;RP0=0, select bank0
  9450  1FE1  1E0C               	btfss	12,4	;volatile
  9451  1FE2  2FF7               	goto	i1l308
  9452  1FE3  1683               	bsf	3,5	;RP0=1, select bank1
  9453  1FE4  1E0C               	btfss	12,4	;volatile
  9454  1FE5  2FF7               	goto	i1l308
  9455  1FE6  0879               	movf	_txoptr,w
  9456  1FE7  3EB7               	addlw	(low (_txfifo| (0+256)))& (0+255)
  9457  1FE8  0084               	movwf	4
  9458  1FE9  1783               	bsf	3,7	;select IRP bank3
  9459  1FEA  0800               	movf	0,w
  9460  1FEB  1283               	bcf	3,5	;RP0=0, select bank0
  9461  1FEC  0099               	movwf	25	;volatile
  9462  1FED  0AF9               	incf	_txoptr,f	;volatile
  9463  1FEE  300F               	movlw	15
  9464  1FEF  05F9               	andwf	_txoptr,f	;volatile
  9465  1FF0  0879               	movf	_txoptr,w	;volatile
  9466  1FF1  0678               	xorwf	_txiptr,w	;volatile
  9467  1FF2  1683               	bsf	3,5	;RP0=1, select bank1
  9468  1FF3  1903               	btfsc	3,2
  9469  1FF4  120C               	bcf	12,4	;volatile
  9470  1FF5  1283               	bcf	3,5	;RP0=0, select bank0
  9471  1FF6  120C               	bcf	12,4	;volatile
  9472  1FF7                     i1l308:	
  9473  1FF7  0872               	movf	??_isr+2,w
  9474  1FF8  008A               	movwf	10
  9475  1FF9  0871               	movf	??_isr+1,w
  9476  1FFA  0084               	movwf	4
  9477  1FFB  0E70               	swapf	??_isr^(0+-128),w
  9478  1FFC  0083               	movwf	3
  9479  1FFD  0EFE               	swapf	126,f
  9480  1FFE  0E7E               	swapf	126,w
  9481  1FFF  0009               	retfie
  9482  2000                     __end_of_isr:	
  9483  0006                     
  9484                           	psect	intentry
  9485  0004                     __pintentry:	
  9486                           ;incstack = 0
  9487                           ; Regs used in _isr: [wreg-fsr0h+status,2+status,0]
  9488                           
  9489  0004                     interrupt_function:	
  9490  007E                     saved_w	set	btemp
  9491  0004  00FE               	movwf	btemp
  9492  0005  0E03               	swapf	3,w
  9493  0006  00F0               	movwf	??_isr
  9494  0007  0804               	movf	4,w
  9495  0008  00F1               	movwf	??_isr+1
  9496  0009  080A               	movf	10,w
  9497  000A  00F2               	movwf	??_isr+2
  9498  000B  160A  158A  2F72   	ljmp	_isr
  9499                           
  9500                           	psect	functab
  9501  0100                     __pfunctab:	
  9502  0100                     __fptable:	
  9503  0100                     fptable:	
  9504  0100  00FF               	movwf	(btemp+1)& (0+127)
  9505  0101  3001               	movlw	high fptable
  9506  0102  008A               	movwf	10
  9507  0103  087F               	movf	(btemp+1)& (0+127),w
  9508  0104  0782               	addwf	2,f
  9509  0105                     fpbase:	
  9510  0105  2905               	goto	fpbase	; Call via a null pointer and you will get stuck here.
  9511  0106                     fp__output_putch:	
  9512  0106                     entry__output_putch:	
  9513  0106  120A  158A  2819   	ljmp	_output_putch
  9514  0109                     fp__ser_putch:	
  9515  0109                     entry__ser_putch:	
  9516  0109  120A  158A  2CA6   	ljmp	_ser_putch
  9517  010C                     fp__format_putchar:	
  9518  010C  120A  118A  2FFA   	ljmp	_format_putchar
  9519  010F                     __end_of__fptable:	
  9520  007E                     btemp	set	126	;btemp
  9521  007E                     wtemp	set	126
  9522  007E                     wtemp0	set	126
  9523  0080                     wtemp1	set	128
  9524  0082                     wtemp2	set	130
  9525  0084                     wtemp3	set	132
  9526  0086                     wtemp4	set	134
  9527  0088                     wtemp5	set	136
  9528  007F                     wtemp6	set	127
  9529  007E                     ttemp	set	126
  9530  007E                     ttemp0	set	126
  9531  0081                     ttemp1	set	129
  9532  0084                     ttemp2	set	132
  9533  0087                     ttemp3	set	135
  9534  007F                     ttemp4	set	127
  9535  007E                     ltemp	set	126
  9536  007E                     ltemp0	set	126
  9537  0082                     ltemp1	set	130
  9538  0086                     ltemp2	set	134
  9539  0080                     ltemp3	set	128


Data Sizes:
    Strings     42
    Constant    76
    Data        1
    BSS         63
    Persistent  8
    Stack       0

Auto Spaces:
    Space          Size  Autos    Used
    COMMON           14      8      11
    BANK0            80     80      80
    BANK1            80     70      77
    BANK3            96     39      85
    BANK2            96      0      16

Pointer List with Targets:

    eval_poly@d	PTR const  size(1) Largest target is 40
		 -> exp@coeff(CODE[40]), log@coeff(CODE[36]), 

    frexp@eptr	PTR int  size(1) Largest target is 2
		 -> log@exponent(BANK1[2]), floor@expon(BANK1[2]), 

    putchar_ptr	PTR FTN(unsigned char ,)void  size(1) Largest target is 0
		 -> output_putch(), format_putchar(), ser_putch(), 

    ser_puts@s	PTR const unsigned char  size(1) Largest target is 8
		 -> STR_11(CODE[3]), STR_10(CODE[5]), STR_9(CODE[3]), STR_8(CODE[8]), 
		 -> STR_7(CODE[6]), STR_6(CODE[6]), STR_5(CODE[6]), STR_4(CODE[5]), 
		 -> STR_3(CODE[3]), STR_2(CODE[3]), STR_1(CODE[6]), 


Critical Paths under _main in COMMON

    _format_number->___lwmod
    _format_double->___awtofl
    _exp->___awtofl
    _floor->_frexp
    ___flsub->___awtofl
    ___fldiv->___flpack
    ___lltofl->___flpack
    _log->___awtofl
    _log->_frexp
    ___flmul->___awtofl
    ___flmul->_frexp
    ___fladd->___awtofl
    ___fladd->_frexp
    ___awtofl->___flpack
    _calibrate->_ser_puts
    _ser_puts->_ser_putch
    _delay10ms->___wmul
    ___lwtofl->___flpack

Critical Paths under _isr in COMMON

    None.

Critical Paths under _main in BANK0

    _format_xint32->_format_number
    _format_number->___lwdiv
    _ldexp->_eval_poly
    _floor->___altofl
    ___flsub->___fladd
    ___fldiv->___flpack
    ___lltofl->___flpack
    _log10->_log
    _log->_eval_poly
    _eval_poly->___fladd
    ___flmul->___fldiv
    ___fladd->___flmul
    ___awtofl->___flpack
    _calibrate->_delay10ms
    _delay10ms->___wmul
    ___lwtofl->_measure_freq

Critical Paths under _isr in BANK0

    None.

Critical Paths under _main in BANK1

    _measure_inductance->___fltol
    _format_double->_pow
    _pow->_exp
    _exp->_floor
    _floor->___altofl
    ___fltol->_log10
    ___altofl->___fltol
    _log10->_log

Critical Paths under _isr in BANK1

    None.

Critical Paths under _main in BANK3

    _main->_measure_capacitance
    _measure_capacitance->_format_double

Critical Paths under _isr in BANK3

    None.

Critical Paths under _main in BANK2

    None.

Critical Paths under _isr in BANK2

    None.

Call Graph Tables:

 ---------------------------------------------------------------------------------
 (Depth) Function   	        Calls       Base Space   Used Autos Params    Refs
 ---------------------------------------------------------------------------------
 (0) _main                                                 0     0      0  215278
                          _calibrate
                          _delay10ms
                          _indicator
                _measure_capacitance
                 _measure_inductance
                           _ser_init
                           _ser_puts
                        _timer2_init
 ---------------------------------------------------------------------------------
 (1) _timer2_init                                          4     4      0     157
                                              3 COMMON     4     4      0
 ---------------------------------------------------------------------------------
 (1) _ser_init                                             0     0      0       0
 ---------------------------------------------------------------------------------
 (1) _measure_inductance                                  55    55      0   22666
                                             20 BANK1     43    43      0
                            ___fldiv
                             ___flge
                            ___flmul
                            ___flsub
                            ___fltol
                           ___lwtofl
                       _measure_freq
                      _print_reading
                         _print_unit
 ---------------------------------------------------------------------------------
 (1) _measure_capacitance                                 19    19      0  185859
                                             20 BANK3     19    19      0
                            ___fldiv
                             ___flge
                            ___flmul
                            ___flsub
                            ___fltol
                           ___lwtofl
                      _format_double
                      _format_xint32
                       _measure_freq
                      _print_reading
                         _print_unit
                          _ser_putch
                           _ser_puts
 ---------------------------------------------------------------------------------
 (2) _print_unit                                           1     1      0       0
 ---------------------------------------------------------------------------------
 (2) _print_reading                                        2     0      2     106
                                              3 COMMON     2     0      2
 ---------------------------------------------------------------------------------
 (2) _format_xint32                                        4     0      4    4889
                                             45 BANK0      4     0      4
                      _format_number
                     _format_putchar *
                       _output_putch *
                          _ser_putch *
 ---------------------------------------------------------------------------------
 (3) _format_number                                       42    38      4    3130
                                              3 BANK0     42    38      4
                            ___lwdiv
                            ___lwmod
                     _format_putchar *
                       _output_putch *
                          _ser_putch *
 ---------------------------------------------------------------------------------
 (4) ___lwmod                                              5     1      4     265
                                              3 COMMON     5     1      4
 ---------------------------------------------------------------------------------
 (4) ___lwdiv                                              7     3      4     371
                                              3 COMMON     4     0      4
                                              0 BANK0      3     3      0
 ---------------------------------------------------------------------------------
 (2) _format_double                                       20    16      4  157373
                                              0 BANK3     20    16      4
                           ___awtofl
                            ___fldiv
                             ___flge
                            ___flmul
                            ___flsub
                            ___fltol
                              _floor
                     _format_putchar *
                              _log10
                       _output_putch *
                                _pow
                          _ser_putch *
 ---------------------------------------------------------------------------------
 (3) _pow                                                 21    13      8   88626
                                             49 BANK1     21    13      8
                             ___flge
                            ___flmul
                            ___flneg
                            ___fltol
                           ___lltofl
                                _exp
                                _log
 ---------------------------------------------------------------------------------
 (4) _exp                                                 15    11      4   47785
                                             34 BANK1     15    11      4
                           ___awtofl
                            ___fldiv
                             ___flge
                            ___flmul
                            ___flneg
                            ___flsub
                            ___fltol
                          _eval_poly
                              _floor
                              _ldexp
                                _log (ARG)
 ---------------------------------------------------------------------------------
 (5) _ldexp                                               12     6      6    3411
                                             75 BANK0      2     2      0
                                              0 BANK1     10     4      6
                             ___flge
                            ___flneg
                          _eval_poly (ARG)
 ---------------------------------------------------------------------------------
 (6) ___flneg                                              4     0      4     257
                                              3 COMMON     4     0      4
 ---------------------------------------------------------------------------------
 (5) _floor                                               10     6      4   11002
                                             24 BANK1     10     6      4
                           ___altofl
                            ___fladd
                            ___fldiv (ARG)
                             ___flge
                            ___fltol
                              _frexp
 ---------------------------------------------------------------------------------
 (2) ___fltol                                             10     6      4     680
                                             10 BANK1     10     6      4
                            ___fldiv (ARG)
                              _log10 (ARG)
 ---------------------------------------------------------------------------------
 (6) ___altofl                                             5     1      4    2446
                                             79 BANK0      1     1      0
                                             20 BANK1      4     0      4
                           ___flpack
                            ___fltol (ARG)
 ---------------------------------------------------------------------------------
 (2) ___flsub                                              8     0      8    5089
                                             59 BANK0      8     0      8
                           ___awtofl (ARG)
                            ___fladd
                            ___flmul (ARG)
 ---------------------------------------------------------------------------------
 (2) ___fldiv                                             19    11      8    3931
                                              6 BANK0     19    11      8
                           ___flpack
 ---------------------------------------------------------------------------------
 (4) ___lltofl                                             4     0      4    2344
                                              6 BANK0      4     0      4
                           ___flpack
 ---------------------------------------------------------------------------------
 (3) _output_putch                                         1     0      1     801
                                              5 COMMON     1     0      1
                          _ser_putch
 ---------------------------------------------------------------------------------
 (3) _log10                                                8     4      4   34367
                                              2 BANK1      8     4      4
                            ___flmul
                                _log
 ---------------------------------------------------------------------------------
 (4) _log                                                  6     2      4   27850
                                             75 BANK0      4     0      4
                                              0 BANK1      2     2      0
                           ___awtofl
                            ___fladd
                             ___flge
                            ___flmul
                          _eval_poly
                              _frexp
 ---------------------------------------------------------------------------------
 (5) _frexp                                                7     2      5     582
                                              3 COMMON     5     0      5
                                              0 BANK0      2     2      0
 ---------------------------------------------------------------------------------
 (5) _eval_poly                                           16     9      7   11109
                                             59 BANK0     16     9      7
                            ___fladd
                            ___flmul
 ---------------------------------------------------------------------------------
 (2) ___flmul                                             19    11      8    6342
                                             25 BANK0     19    11      8
                           ___awtofl (ARG)
                            ___fldiv (ARG)
                           ___flpack
                              _frexp (ARG)
 ---------------------------------------------------------------------------------
 (3) ___fladd                                             15     7      8    4123
                                             44 BANK0     15     7      8
                           ___awtofl (ARG)
                            ___flmul (ARG)
                           ___flpack
                              _frexp (ARG)
 ---------------------------------------------------------------------------------
 (2) ___flge                                              12     4      8    2628
                                              3 COMMON     4     4      0
                                              0 BANK0      8     0      8
 ---------------------------------------------------------------------------------
 (5) ___awtofl                                             9     5      4    2686
                                              7 COMMON     1     1      0
                                              6 BANK0      4     0      4
                           ___flpack
 ---------------------------------------------------------------------------------
 (3) _format_putchar                                       1     0      1       0
                                              5 COMMON     1     0      1
 ---------------------------------------------------------------------------------
 (1) _indicator                                            1     1      0       0
 ---------------------------------------------------------------------------------
 (1) _calibrate                                            1     1      0    4750
                           ___lwtofl
                          _delay10ms
                       _measure_freq
                           _ser_puts
 ---------------------------------------------------------------------------------
 (1) _ser_puts                                             1     1      0     845
                                              6 COMMON     1     1      0
                          _ser_putch
 ---------------------------------------------------------------------------------
 (2) _ser_putch                                            1     0      1     503
                                              5 COMMON     1     0      1
 ---------------------------------------------------------------------------------
 (2) _measure_freq                                        10     8      2     235
                                              3 COMMON     2     0      2
                                              0 BANK0      8     8      0
 ---------------------------------------------------------------------------------
 (1) _delay10ms                                           11     9      2    1001
                                              2 BANK0     11     9      2
                             ___wmul
 ---------------------------------------------------------------------------------
 (2) ___wmul                                               6     2      4     266
                                              3 COMMON     4     0      4
                                              0 BANK0      2     2      0
 ---------------------------------------------------------------------------------
 (2) ___lwtofl                                             4     0      4    2669
                                              8 BANK0      4     0      4
                           ___flpack
                       _measure_freq (ARG)
 ---------------------------------------------------------------------------------
 (3) ___flpack                                            10     4      6    2248
                                              3 COMMON     4     4      0
                                              0 BANK0      6     0      6
 ---------------------------------------------------------------------------------
 Estimated maximum stack depth 6
 ---------------------------------------------------------------------------------
 (Depth) Function   	        Calls       Base Space   Used Autos Params    Refs
 ---------------------------------------------------------------------------------
 (8) _isr                                                  3     3      0       0
                                              0 COMMON     3     3      0
 ---------------------------------------------------------------------------------
 Estimated maximum stack depth 8
 ---------------------------------------------------------------------------------

 Call Graph Graphs:

 _main (ROOT)
   _calibrate
     ___lwtofl
       ___flpack
       _measure_freq (ARG)
     _delay10ms
       ___wmul
     _measure_freq
     _ser_puts
       _ser_putch
   _delay10ms
     ___wmul
   _indicator
   _measure_capacitance
     ___fldiv
       ___flpack
     ___flge
     ___flmul
       ___awtofl (ARG)
         ___flpack
       ___fldiv (ARG)
         ___flpack
       ___flpack (ARG)
       _frexp (ARG)
     ___flsub
       ___awtofl (ARG)
         ___flpack
       ___fladd (ARG)
         ___awtofl (ARG)
           ___flpack
         ___flmul (ARG)
           ___awtofl (ARG)
             ___flpack
           ___fldiv (ARG)
             ___flpack
           ___flpack (ARG)
           _frexp (ARG)
         ___flpack (ARG)
         _frexp (ARG)
       ___flmul (ARG)
         ___awtofl (ARG)
           ___flpack
         ___fldiv (ARG)
           ___flpack
         ___flpack (ARG)
         _frexp (ARG)
     ___fltol
       ___fldiv (ARG)
         ___flpack
       _log10 (ARG)
         ___flmul
           ___awtofl (ARG)
             ___flpack
           ___fldiv (ARG)
             ___flpack
           ___flpack (ARG)
           _frexp (ARG)
         _log
           ___awtofl
             ___flpack
           ___fladd
             ___awtofl (ARG)
               ___flpack
             ___flmul (ARG)
               ___awtofl (ARG)
                 ___flpack
               ___fldiv (ARG)
                 ___flpack
               ___flpack (ARG)
               _frexp (ARG)
             ___flpack (ARG)
             _frexp (ARG)
           ___flge
           ___flmul
             ___awtofl (ARG)
               ___flpack
             ___fldiv (ARG)
               ___flpack
             ___flpack (ARG)
             _frexp (ARG)
           _eval_poly
             ___fladd
               ___awtofl (ARG)
                 ___flpack
               ___flmul (ARG)
                 ___awtofl (ARG)
                   ___flpack
                 ___fldiv (ARG)
                   ___flpack
                 ___flpack (ARG)
                 _frexp (ARG)
               ___flpack (ARG)
               _frexp (ARG)
             ___flmul
               ___awtofl (ARG)
                 ___flpack
               ___fldiv (ARG)
                 ___flpack
               ___flpack (ARG)
               _frexp (ARG)
           _frexp
     ___lwtofl
       ___flpack
       _measure_freq (ARG)
     _format_double
       ___awtofl
         ___flpack
       ___fldiv
         ___flpack
       ___flge
       ___flmul
         ___awtofl (ARG)
           ___flpack
         ___fldiv (ARG)
           ___flpack
         ___flpack (ARG)
         _frexp (ARG)
       ___flsub
         ___awtofl (ARG)
           ___flpack
         ___fladd (ARG)
           ___awtofl (ARG)
             ___flpack
           ___flmul (ARG)
             ___awtofl (ARG)
               ___flpack
             ___fldiv (ARG)
               ___flpack
             ___flpack (ARG)
             _frexp (ARG)
           ___flpack (ARG)
           _frexp (ARG)
         ___flmul (ARG)
           ___awtofl (ARG)
             ___flpack
           ___fldiv (ARG)
             ___flpack
           ___flpack (ARG)
           _frexp (ARG)
       ___fltol
         ___fldiv (ARG)
           ___flpack
         _log10 (ARG)
           ___flmul
             ___awtofl (ARG)
               ___flpack
             ___fldiv (ARG)
               ___flpack
             ___flpack (ARG)
             _frexp (ARG)
           _log
             ___awtofl
               ___flpack
             ___fladd
               ___awtofl (ARG)
                 ___flpack
               ___flmul (ARG)
                 ___awtofl (ARG)
                   ___flpack
                 ___fldiv (ARG)
                   ___flpack
                 ___flpack (ARG)
                 _frexp (ARG)
               ___flpack (ARG)
               _frexp (ARG)
             ___flge
             ___flmul
               ___awtofl (ARG)
                 ___flpack
               ___fldiv (ARG)
                 ___flpack
               ___flpack (ARG)
               _frexp (ARG)
             _eval_poly
               ___fladd
                 ___awtofl (ARG)
                   ___flpack
                 ___flmul (ARG)
                   ___awtofl (ARG)
                     ___flpack
                   ___fldiv (ARG)
                     ___flpack
                   ___flpack (ARG)
                   _frexp (ARG)
                 ___flpack (ARG)
                 _frexp (ARG)
               ___flmul
                 ___awtofl (ARG)
                   ___flpack
                 ___fldiv (ARG)
                   ___flpack
                 ___flpack (ARG)
                 _frexp (ARG)
             _frexp
       _floor
         ___altofl
           ___flpack
           ___fltol (ARG)
             ___fldiv (ARG)
               ___flpack
             _log10 (ARG)
               ___flmul
                 ___awtofl (ARG)
                   ___flpack
                 ___fldiv (ARG)
                   ___flpack
                 ___flpack (ARG)
                 _frexp (ARG)
               _log
                 ___awtofl
                   ___flpack
                 ___fladd
                   ___awtofl (ARG)
                     ___flpack
                   ___flmul (ARG)
                     ___awtofl (ARG)
                       ___flpack
                     ___fldiv (ARG)
                       ___flpack
                     ___flpack (ARG)
                     _frexp (ARG)
                   ___flpack (ARG)
                   _frexp (ARG)
                 ___flge
                 ___flmul
                   ___awtofl (ARG)
                     ___flpack
                   ___fldiv (ARG)
                     ___flpack
                   ___flpack (ARG)
                   _frexp (ARG)
                 _eval_poly
                   ___fladd
                     ___awtofl (ARG)
                       ___flpack
                     ___flmul (ARG)
                       ___awtofl (ARG)
                         ___flpack
                       ___fldiv (ARG)
                         ___flpack
                       ___flpack (ARG)
                       _frexp (ARG)
                     ___flpack (ARG)
                     _frexp (ARG)
                   ___flmul
                     ___awtofl (ARG)
                       ___flpack
                     ___fldiv (ARG)
                       ___flpack
                     ___flpack (ARG)
                     _frexp (ARG)
                 _frexp
         ___fladd
           ___awtofl (ARG)
             ___flpack
           ___flmul (ARG)
             ___awtofl (ARG)
               ___flpack
             ___fldiv (ARG)
               ___flpack
             ___flpack (ARG)
             _frexp (ARG)
           ___flpack (ARG)
           _frexp (ARG)
         ___fldiv (ARG)
           ___flpack
         ___flge (ARG)
         ___fltol (ARG)
           ___fldiv (ARG)
             ___flpack
           _log10 (ARG)
             ___flmul
               ___awtofl (ARG)
                 ___flpack
               ___fldiv (ARG)
                 ___flpack
               ___flpack (ARG)
               _frexp (ARG)
             _log
               ___awtofl
                 ___flpack
               ___fladd
                 ___awtofl (ARG)
                   ___flpack
                 ___flmul (ARG)
                   ___awtofl (ARG)
                     ___flpack
                   ___fldiv (ARG)
                     ___flpack
                   ___flpack (ARG)
                   _frexp (ARG)
                 ___flpack (ARG)
                 _frexp (ARG)
               ___flge
               ___flmul
                 ___awtofl (ARG)
                   ___flpack
                 ___fldiv (ARG)
                   ___flpack
                 ___flpack (ARG)
                 _frexp (ARG)
               _eval_poly
                 ___fladd
                   ___awtofl (ARG)
                     ___flpack
                   ___flmul (ARG)
                     ___awtofl (ARG)
                       ___flpack
                     ___fldiv (ARG)
                       ___flpack
                     ___flpack (ARG)
                     _frexp (ARG)
                   ___flpack (ARG)
                   _frexp (ARG)
                 ___flmul
                   ___awtofl (ARG)
                     ___flpack
                   ___fldiv (ARG)
                     ___flpack
                   ___flpack (ARG)
                   _frexp (ARG)
               _frexp
         _frexp (ARG)
       _format_putchar *
       _log10 *
         ___flmul
           ___awtofl (ARG)
             ___flpack
           ___fldiv (ARG)
             ___flpack
           ___flpack (ARG)
           _frexp (ARG)
         _log
           ___awtofl
             ___flpack
           ___fladd
             ___awtofl (ARG)
               ___flpack
             ___flmul (ARG)
               ___awtofl (ARG)
                 ___flpack
               ___fldiv (ARG)
                 ___flpack
               ___flpack (ARG)
               _frexp (ARG)
             ___flpack (ARG)
             _frexp (ARG)
           ___flge
           ___flmul
             ___awtofl (ARG)
               ___flpack
             ___fldiv (ARG)
               ___flpack
             ___flpack (ARG)
             _frexp (ARG)
           _eval_poly
             ___fladd
               ___awtofl (ARG)
                 ___flpack
               ___flmul (ARG)
                 ___awtofl (ARG)
                   ___flpack
                 ___fldiv (ARG)
                   ___flpack
                 ___flpack (ARG)
                 _frexp (ARG)
               ___flpack (ARG)
               _frexp (ARG)
             ___flmul
               ___awtofl (ARG)
                 ___flpack
               ___fldiv (ARG)
                 ___flpack
               ___flpack (ARG)
               _frexp (ARG)
           _frexp
       _output_putch *
         _ser_putch
       _pow *
         ___flge
         ___flmul
           ___awtofl (ARG)
             ___flpack
           ___fldiv (ARG)
             ___flpack
           ___flpack (ARG)
           _frexp (ARG)
         ___flneg
         ___fltol
           ___fldiv (ARG)
             ___flpack
           _log10 (ARG)
             ___flmul
               ___awtofl (ARG)
                 ___flpack
               ___fldiv (ARG)
                 ___flpack
               ___flpack (ARG)
               _frexp (ARG)
             _log
               ___awtofl
                 ___flpack
               ___fladd
                 ___awtofl (ARG)
                   ___flpack
                 ___flmul (ARG)
                   ___awtofl (ARG)
                     ___flpack
                   ___fldiv (ARG)
                     ___flpack
                   ___flpack (ARG)
                   _frexp (ARG)
                 ___flpack (ARG)
                 _frexp (ARG)
               ___flge
               ___flmul
                 ___awtofl (ARG)
                   ___flpack
                 ___fldiv (ARG)
                   ___flpack
                 ___flpack (ARG)
                 _frexp (ARG)
               _eval_poly
                 ___fladd
                   ___awtofl (ARG)
                     ___flpack
                   ___flmul (ARG)
                     ___awtofl (ARG)
                       ___flpack
                     ___fldiv (ARG)
                       ___flpack
                     ___flpack (ARG)
                     _frexp (ARG)
                   ___flpack (ARG)
                   _frexp (ARG)
                 ___flmul
                   ___awtofl (ARG)
                     ___flpack
                   ___fldiv (ARG)
                     ___flpack
                   ___flpack (ARG)
                   _frexp (ARG)
               _frexp
         ___lltofl
           ___flpack
         _exp
           ___awtofl
             ___flpack
           ___fldiv
             ___flpack
           ___flge
           ___flmul
             ___awtofl (ARG)
               ___flpack
             ___fldiv (ARG)
               ___flpack
             ___flpack (ARG)
             _frexp (ARG)
           ___flneg
           ___flsub
             ___awtofl (ARG)
               ___flpack
             ___fladd (ARG)
               ___awtofl (ARG)
                 ___flpack
               ___flmul (ARG)
                 ___awtofl (ARG)
                   ___flpack
                 ___fldiv (ARG)
                   ___flpack
                 ___flpack (ARG)
                 _frexp (ARG)
               ___flpack (ARG)
               _frexp (ARG)
             ___flmul (ARG)
               ___awtofl (ARG)
                 ___flpack
               ___fldiv (ARG)
                 ___flpack
               ___flpack (ARG)
               _frexp (ARG)
           ___fltol
             ___fldiv (ARG)
               ___flpack
             _log10 (ARG)
               ___flmul
                 ___awtofl (ARG)
                   ___flpack
                 ___fldiv (ARG)
                   ___flpack
                 ___flpack (ARG)
                 _frexp (ARG)
               _log
                 ___awtofl
                   ___flpack
                 ___fladd
                   ___awtofl (ARG)
                     ___flpack
                   ___flmul (ARG)
                     ___awtofl (ARG)
                       ___flpack
                     ___fldiv (ARG)
                       ___flpack
                     ___flpack (ARG)
                     _frexp (ARG)
                   ___flpack (ARG)
                   _frexp (ARG)
                 ___flge
                 ___flmul
                   ___awtofl (ARG)
                     ___flpack
                   ___fldiv (ARG)
                     ___flpack
                   ___flpack (ARG)
                   _frexp (ARG)
                 _eval_poly
                   ___fladd
                     ___awtofl (ARG)
                       ___flpack
                     ___flmul (ARG)
                       ___awtofl (ARG)
                         ___flpack
                       ___fldiv (ARG)
                         ___flpack
                       ___flpack (ARG)
                       _frexp (ARG)
                     ___flpack (ARG)
                     _frexp (ARG)
                   ___flmul
                     ___awtofl (ARG)
                       ___flpack
                     ___fldiv (ARG)
                       ___flpack
                     ___flpack (ARG)
                     _frexp (ARG)
                 _frexp
           _eval_poly
             ___fladd
               ___awtofl (ARG)
                 ___flpack
               ___flmul (ARG)
                 ___awtofl (ARG)
                   ___flpack
                 ___fldiv (ARG)
                   ___flpack
                 ___flpack (ARG)
                 _frexp (ARG)
               ___flpack (ARG)
               _frexp (ARG)
             ___flmul
               ___awtofl (ARG)
                 ___flpack
               ___fldiv (ARG)
                 ___flpack
               ___flpack (ARG)
               _frexp (ARG)
           _floor
             ___altofl
               ___flpack
               ___fltol (ARG)
                 ___fldiv (ARG)
                   ___flpack
                 _log10 (ARG)
                   ___flmul
                     ___awtofl (ARG)
                       ___flpack
                     ___fldiv (ARG)
                       ___flpack
                     ___flpack (ARG)
                     _frexp (ARG)
                   _log
                     ___awtofl
                       ___flpack
                     ___fladd
                       ___awtofl (ARG)
                         ___flpack
                       ___flmul (ARG)
                         ___awtofl (ARG)
                           ___flpack
                         ___fldiv (ARG)
                           ___flpack
                         ___flpack (ARG)
                         _frexp (ARG)
                       ___flpack (ARG)
                       _frexp (ARG)
                     ___flge
                     ___flmul
                       ___awtofl (ARG)
                         ___flpack
                       ___fldiv (ARG)
                         ___flpack
                       ___flpack (ARG)
                       _frexp (ARG)
                     _eval_poly
                       ___fladd
                         ___awtofl (ARG)
                           ___flpack
                         ___flmul (ARG)
                           ___awtofl (ARG)
                             ___flpack
                           ___fldiv (ARG)
                             ___flpack
                           ___flpack (ARG)
                           _frexp (ARG)
                         ___flpack (ARG)
                         _frexp (ARG)
                       ___flmul
                         ___awtofl (ARG)
                           ___flpack
                         ___fldiv (ARG)
                           ___flpack
                         ___flpack (ARG)
                         _frexp (ARG)
                     _frexp
             ___fladd
               ___awtofl (ARG)
                 ___flpack
               ___flmul (ARG)
                 ___awtofl (ARG)
                   ___flpack
                 ___fldiv (ARG)
                   ___flpack
                 ___flpack (ARG)
                 _frexp (ARG)
               ___flpack (ARG)
               _frexp (ARG)
             ___fldiv (ARG)
               ___flpack
             ___flge (ARG)
             ___fltol (ARG)
               ___fldiv (ARG)
                 ___flpack
               _log10 (ARG)
                 ___flmul
                   ___awtofl (ARG)
                     ___flpack
                   ___fldiv (ARG)
                     ___flpack
                   ___flpack (ARG)
                   _frexp (ARG)
                 _log
                   ___awtofl
                     ___flpack
                   ___fladd
                     ___awtofl (ARG)
                       ___flpack
                     ___flmul (ARG)
                       ___awtofl (ARG)
                         ___flpack
                       ___fldiv (ARG)
                         ___flpack
                       ___flpack (ARG)
                       _frexp (ARG)
                     ___flpack (ARG)
                     _frexp (ARG)
                   ___flge
                   ___flmul
                     ___awtofl (ARG)
                       ___flpack
                     ___fldiv (ARG)
                       ___flpack
                     ___flpack (ARG)
                     _frexp (ARG)
                   _eval_poly
                     ___fladd
                       ___awtofl (ARG)
                         ___flpack
                       ___flmul (ARG)
                         ___awtofl (ARG)
                           ___flpack
                         ___fldiv (ARG)
                           ___flpack
                         ___flpack (ARG)
                         _frexp (ARG)
                       ___flpack (ARG)
                       _frexp (ARG)
                     ___flmul
                       ___awtofl (ARG)
                         ___flpack
                       ___fldiv (ARG)
                         ___flpack
                       ___flpack (ARG)
                       _frexp (ARG)
                   _frexp
             _frexp (ARG)
           _ldexp
             ___flge
             ___flneg
             _eval_poly (ARG)
               ___fladd
                 ___awtofl (ARG)
                   ___flpack
                 ___flmul (ARG)
                   ___awtofl (ARG)
                     ___flpack
                   ___fldiv (ARG)
                     ___flpack
                   ___flpack (ARG)
                   _frexp (ARG)
                 ___flpack (ARG)
                 _frexp (ARG)
               ___flmul
                 ___awtofl (ARG)
                   ___flpack
                 ___fldiv (ARG)
                   ___flpack
                 ___flpack (ARG)
                 _frexp (ARG)
           _log (ARG)
             ___awtofl
               ___flpack
             ___fladd
               ___awtofl (ARG)
                 ___flpack
               ___flmul (ARG)
                 ___awtofl (ARG)
                   ___flpack
                 ___fldiv (ARG)
                   ___flpack
                 ___flpack (ARG)
                 _frexp (ARG)
               ___flpack (ARG)
               _frexp (ARG)
             ___flge
             ___flmul
               ___awtofl (ARG)
                 ___flpack
               ___fldiv (ARG)
                 ___flpack
               ___flpack (ARG)
               _frexp (ARG)
             _eval_poly
               ___fladd
                 ___awtofl (ARG)
                   ___flpack
                 ___flmul (ARG)
                   ___awtofl (ARG)
                     ___flpack
                   ___fldiv (ARG)
                     ___flpack
                   ___flpack (ARG)
                   _frexp (ARG)
                 ___flpack (ARG)
                 _frexp (ARG)
               ___flmul
                 ___awtofl (ARG)
                   ___flpack
                 ___fldiv (ARG)
                   ___flpack
                 ___flpack (ARG)
                 _frexp (ARG)
             _frexp
         _log
           ___awtofl
             ___flpack
           ___fladd
             ___awtofl (ARG)
               ___flpack
             ___flmul (ARG)
               ___awtofl (ARG)
                 ___flpack
               ___fldiv (ARG)
                 ___flpack
               ___flpack (ARG)
               _frexp (ARG)
             ___flpack (ARG)
             _frexp (ARG)
           ___flge
           ___flmul
             ___awtofl (ARG)
               ___flpack
             ___fldiv (ARG)
               ___flpack
             ___flpack (ARG)
             _frexp (ARG)
           _eval_poly
             ___fladd
               ___awtofl (ARG)
                 ___flpack
               ___flmul (ARG)
                 ___awtofl (ARG)
                   ___flpack
                 ___fldiv (ARG)
                   ___flpack
                 ___flpack (ARG)
                 _frexp (ARG)
               ___flpack (ARG)
               _frexp (ARG)
             ___flmul
               ___awtofl (ARG)
                 ___flpack
               ___fldiv (ARG)
                 ___flpack
               ___flpack (ARG)
               _frexp (ARG)
           _frexp
       _ser_putch *
     _format_xint32
       _format_number
         ___lwdiv
         ___lwmod
         _format_putchar *
         _output_putch *
           _ser_putch
         _ser_putch *
       _format_putchar *
       _output_putch *
         _ser_putch
       _ser_putch *
     _measure_freq
     _print_reading
     _print_unit
     _ser_putch
     _ser_puts
       _ser_putch
   _measure_inductance
     ___fldiv
       ___flpack
     ___flge
     ___flmul
       ___awtofl (ARG)
         ___flpack
       ___fldiv (ARG)
         ___flpack
       ___flpack (ARG)
       _frexp (ARG)
     ___flsub
       ___awtofl (ARG)
         ___flpack
       ___fladd (ARG)
         ___awtofl (ARG)
           ___flpack
         ___flmul (ARG)
           ___awtofl (ARG)
             ___flpack
           ___fldiv (ARG)
             ___flpack
           ___flpack (ARG)
           _frexp (ARG)
         ___flpack (ARG)
         _frexp (ARG)
       ___flmul (ARG)
         ___awtofl (ARG)
           ___flpack
         ___fldiv (ARG)
           ___flpack
         ___flpack (ARG)
         _frexp (ARG)
     ___fltol
       ___fldiv (ARG)
         ___flpack
       _log10 (ARG)
         ___flmul
           ___awtofl (ARG)
             ___flpack
           ___fldiv (ARG)
             ___flpack
           ___flpack (ARG)
           _frexp (ARG)
         _log
           ___awtofl
             ___flpack
           ___fladd
             ___awtofl (ARG)
               ___flpack
             ___flmul (ARG)
               ___awtofl (ARG)
                 ___flpack
               ___fldiv (ARG)
                 ___flpack
               ___flpack (ARG)
               _frexp (ARG)
             ___flpack (ARG)
             _frexp (ARG)
           ___flge
           ___flmul
             ___awtofl (ARG)
               ___flpack
             ___fldiv (ARG)
               ___flpack
             ___flpack (ARG)
             _frexp (ARG)
           _eval_poly
             ___fladd
               ___awtofl (ARG)
                 ___flpack
               ___flmul (ARG)
                 ___awtofl (ARG)
                   ___flpack
                 ___fldiv (ARG)
                   ___flpack
                 ___flpack (ARG)
                 _frexp (ARG)
               ___flpack (ARG)
               _frexp (ARG)
             ___flmul
               ___awtofl (ARG)
                 ___flpack
               ___fldiv (ARG)
                 ___flpack
               ___flpack (ARG)
               _frexp (ARG)
           _frexp
     ___lwtofl
       ___flpack
       _measure_freq (ARG)
     _measure_freq
     _print_reading
     _print_unit
   _ser_init
   _ser_puts
     _ser_putch
   _timer2_init

 _isr (ROOT)

 Address spaces:
Name               Size   Autos  Total    Cost      Usage
BANK3               60     27      55       9       88.5%
BITBANK3            60      0       0       8        0.0%
SFR3                 0      0       0       4        0.0%
BITSFR3              0      0       0       4        0.0%
BANK2               60      0      10      11       16.7%
BITBANK2            60      0       0      10        0.0%
SFR2                 0      0       0       5        0.0%
BITSFR2              0      0       0       5        0.0%
BANK1               50     46      4D       7       96.3%
BITBANK1            50      0       0       6        0.0%
SFR1                 0      0       0       2        0.0%
BITSFR1              0      0       0       2        0.0%
BANK0               50     50      50       5      100.0%
BITBANK0            50      0       0       4        0.0%
SFR0                 0      0       0       1        0.0%
BITSFR0              0      0       0       1        0.0%
COMMON               E      8       B       1       78.6%
BITCOMMON            E      0       0       0        0.0%
CODE                 0      0       0       0        0.0%
DATA                 0      0     10D      12        0.0%
ABS                  0      0     10D       3        0.0%
NULL                 0      0       0       0        0.0%
STACK                0      0       0       2        0.0%
EEDATA             100      0       0       0        0.0%


Microchip Technology PIC Macro Assembler V1.34 build -361300703 
Symbol Table                                                                                   Thu Sep 05 11:51:10 2019

                ___altofl@sign 006F                   ___fldiv@cntr 0036                              pc 0002  
                 ___fldiv@sign 0038                    __CFG_CP$OFF 0000                             _F1 01D9  
                           _F2 01C7                             _F3 01CB                             l20 0FFF  
                           fsr 0004            ___wmul@multiplicand 0075                   ___flpack@arg 0020  
                 ___flpack@exp 0024                    _putchar_ptr 007A                            l621 178D  
                          l609 175F                            l645 113F                            l670 1744  
                          l694 0324                            _GIE 005F                            _RC3 003B  
                          _RC4 003C                            _RC7 003F                   __CFG_CPD$OFF 0000  
                          _RX9 00C6                            _TX9 04C6                            _exp 015A  
                          _log 03A8                            _isr 1F72                            _pow 04E4  
                          fsr0 0004                            indf 0000                   __CFG_FOSC$HS 0000  
                 ___flmul@cntr 004A                   ___flmul@sign 004B                   __CFG_LVP$OFF 0000  
                ___flpack@sign 0025                   fp__ser_putch 0109                   ___fltol@exp1 00B3  
                         l2211 0EF6                           l3101 10F8                           l2213 0EFB  
                         l2231 0F21                           l3121 111C                           l3113 1106  
                         l3201 16AE                           l3131 1135                           l3123 1121  
                         l2227 0F19                           l3053 1764                           l3133 113B  
                         l3125 1125                           l3213 16D2                           l3205 16C4  
                         l2245 0CA6                           l2237 0F25                           l3063 178B  
                         l3055 176A                           l3119 1116                           l2239 0F2F  
                         l3065 1781                           l3057 176F                           l3145 115B  
                         l3217 16E8                           l3081 04B4                           l3059 177C  
                         l3139 114D                           l3091 10E0                           l3235 0473  
                         l3307 0EA4                           l3411 1010                           l3069 1792  
                         l2613 0C8F                           l3165 1727                           l3157 1180  
                         l3325 0F65                           l3341 0059                           l3333 003B  
                         l3095 10E9                           l3183 169C                           l3423 1027  
                         l3503 0FC0                           l3601 070A                           l3257 032A  
                         l3433 0168                           l2449 1F5A                           l2457 1F6D  
                         l3505 0FC8                           l3179 1688                           l3267 039E  
                         l3363 00A4                           l3443 0191                           l3507 0FD3  
                         l3621 17B6                           l3277 0F47                           l3285 0E80  
                         l3453 01EA                           l3541 0577                           l3631 17D5  
                         l3375 10B0                           l3391 03CB                           l3447 01B6  
                         l3535 0517                           l3289 0E94                           l3473 02C9  
                         l3529 0509                           l2737 00DB                           l3563 0733  
                         l3387 03C0                           l3547 0591                           l2739 00EA  
                         l3477 0F81                           l3821 1601                           l3901 07D1  
                         l3559 072B                           l3647 17CE                           l3591 0D05  
                         l3487 0F8A                           l3727 0968                           l3649 17E7  
                         l3817 15D3                           l3825 162D                           l3755 0BB9  
                         l3763 0C2C                           l3827 1630                           l3589 0E65  
                         l3781 11FB                           l3759 0BF3                           ?_exp 00C2  
                         l3893 07BC                           ?_log 006B                           l3899 07CC  
                         ?_isr 0070                           ?_pow 00D1                           STR_1 185A  
                         STR_3 185D                           STR_4 1877                           STR_5 1860  
                         STR_6 1866                           STR_7 186C                           STR_8 1852  
                         STR_9 185D                           _BRGH 04C2                           _CREN 00C4  
                         _T0CS 040D                           _T0SE 040C                           u2145 1F60  
                         _CCal 01DD                           u3215 0EB7                           u3400 01D3  
                         u3410 01D4                           u2450 00D8                           u2470 00E7  
                         u1815 0F04                           u3265 0062                           u2490 00F3  
                         u3355 1019                           u3605 0720                           u3445 02C2  
                         u3535 056F                           _PEIE 005E                           u3747 17AD  
                         _RCIF 0065                           u3757 17BA                           _TMR0 0001  
                         _TMR2 0011                           _SPEN 00C7                           _TXIE 0464  
                         _TXEN 04C5                           _TXIF 0064                           _SYNC 04C4  
                 __CFG_WRT$OFF 0000                           _bres 01E1                           _main 0742  
                         btemp 007E                           exp@x 00C2                           log@x 006B  
        __size_of_output_putch 0003                           ltemp 007E                           pow@x 00D1  
                         pow@y 00D5     __end_of_measure_inductance 1674                           start 000E  
                         ttemp 007E                           wtemp 007E              _format_number$126 0049  
                        ??_exp 0078                          ??_log 0078                          ??_isr 0070  
                        ??_pow 0078                  ___fltol@sign1 00B2                __end_of___fladd 1196  
                        ?_main 0070                __end_of___fldiv 0EE7                __end_of___flneg 04E4  
                        STR_10 1872                          STR_11 185D                  __CFG_WDTE$OFF 0000  
              __end_of___flmul 170A                __end_of___flsub 0F81                __end_of___fltol 0F3E  
                        _CMCON 009C                __end_of___lwdiv 102C                          i1l308 1FF7  
              __end_of___lwmod 1F72                          _RCREG 001A                          _SPBRG 0099  
                        _PORTC 0007                          _TRISA 0085                          _TRISC 0087  
                        _SSPEN 00A5                          _TXREG 0019                  __CFG_PWRTE$ON 0000  
                ___awtofl@sign 0077                          _nRBPU 040F                          _log10 010F  
                        _blink 01D7                          _floor 02F1                          _ldexp 0030  
                        _frexp 0462                   _output_putch 0819                          _msecs 00E6  
                        fpbase 0105                          pclath 000A                          ltemp0 007E  
                        ltemp1 0082                          ltemp2 0086                          ltemp3 0080  
                        pow@yi 00E2                format_number@di 004B                          ttemp0 007E  
                        ttemp1 0081                          ttemp2 0084                          ttemp3 0087  
                        ttemp4 007F                          status 0003                          wtemp0 007E  
                        wtemp1 0080                          wtemp2 0082                          wtemp3 0084  
                        wtemp4 0086                          wtemp5 0088                          wtemp6 007F  
              ??_print_reading 0075                    exp@exponent 00CE                    ldexp@newexp 00A4  
              __initialization 0011                format_putchar@c 0075                    log@exponent 00A0  
                 __end_of_main 07F2               format_double@num 0190                  ?_measure_freq 0073  
       __size_of_format_double 018B                         ??_main 0078            format_double@weight 019C  
       __size_of_format_number 0068         __size_of_format_xint32 0026                         ?_log10 00A2  
                       ?_floor 00B8                         ?_ldexp 00A0                         ?_frexp 0073  
             __end_of___altofl 04DB               __end_of___flpack 17A5               __end_of___awtofl 0F5D  
             __end_of___lltofl 062B                         i1l2935 1FB0                         i1l2943 1FC7  
                       i1l2945 1FCA                         i1l2957 1FE0                         u261_20 1F9E  
                       u262_24 1FA1               __end_of___lwtofl 0FFE                         _TMR0IF 005A  
                       _TMR2IE 0461                         _TMR2IF 0061                         _TMR2ON 0092  
           entry__output_putch 0106                         _TRISC0 0438                         _TRISC1 0439  
                       _TRISC2 043A                         _TRISC3 043B                         _TRISC6 043E  
             __end_of__fptable 010F                         ___flge 170A                      ??___fladd 0054  
                       ___wmul 0729                      ??___fldiv 002E                      ??___flneg 0077  
                    ??___flmul 0041                      ??___flsub 0078                      ??___fltol 00AE  
               ??_measure_freq 0020                      ??___lwdiv 0077                   ?_timer2_init 0070  
                    ??___lwmod 0077                         log10@x 00A2                         _rxfifo 0110  
                       _txfifo 01B7                         _rxiptr 00EA                         _rxoptr 00EB  
                       floor@i 00BC                         _txiptr 0078                         floor@x 00B8  
                       _txoptr 0079                         fptable 0100               __end_of_ser_init 0819  
                 __pdataCOMMON 007A                         fptotal 0006               __end_of_ser_puts 0CA6  
           timer2_init@ps_mode 0074                         saved_w 007E               format_number@buf 0028  
             format_number@pad 0026                     ___fladd@f1 004C                     ___fladd@f2 0050  
                   ___flge@ff1 0020                     ___flge@ff2 0024               __end_ofexp@coeff 182E  
                _format_double 0CE1               __end_oflog@coeff 1852                     ___altofl@c 00B4  
                   ___fldiv@f1 002A                     ___fldiv@f2 0026                     ___fldiv@f3 0032  
      __end_of__initialization 002C                     ___flneg@f1 0073                  _format_number 0F81  
                _format_xint32 0CBB                     ___flmul@f1 0039                     ___flmul@f2 003D  
                 eval_poly@res 0067                     ___flsub@f1 005F                     ___flsub@f2 005B  
                   ___fltol@f1 00AA                     ___awtofl@c 0026         measure_capacitance@Cin 01B3  
 __size_of_measure_capacitance 0472         measure_capacitance@var 01B1                 __pcstackCOMMON 0070  
           __size_of_calibrate 00A7                     ___lltofl@c 0026             __size_of_delay10ms 0057  
                __end_of_log10 015A                  __end_of_floor 03A8                  __end_of_ldexp 00C7  
                __end_of_frexp 04A1                     ___lwtofl@c 0028                        ??_log10 0078  
                      ??_floor 0078                        ??_ldexp 006B                        ??_frexp 0020  
                   __pbssBANK1 00E6                 ?_format_double 0190                     __pbssBANK2 0110  
                   __pbssBANK3 01B7             __size_of_eval_poly 008D             __size_of_indicator 0001  
      __size_of_format_putchar 0001              fp__format_putchar 010C                 ?_format_number 0023  
               ?_format_xint32 004D                 print_unit@unit 0070                     __pmaintext 0742  
                      ?___flge 0020                        ?___wmul 0073                     __pintentry 0004  
                    ?___altofl 00B4                      ?___flpack 0020                      ?___awtofl 0026  
                    ?___lltofl 0026             _measure_inductance 1196             __size_of_ser_putch 0015  
                      _T2CKPS0 0090                        _T2CKPS1 0091                      ?___lwtofl 0028  
          ?_measure_inductance 0070                entry__ser_putch 0109              __end_of_calibrate 06D2  
                      _TOUTPS0 0093                        _TOUTPS1 0094                        _TOUTPS2 0095  
            __end_of_delay10ms 0729                     __stringtab 1800           __end_of_measure_freq 1800  
                    ?_ser_init 0070           ??_measure_inductance 0078                      ?_ser_puts 0070  
              __size_of___flge 004C                        ___fladd 10B9                        ___fldiv 0E6C  
                      ___flneg 04DB                        ___flmul 1674                        ___flsub 0F5D  
                      ___fltol 0EE7                __size_of___wmul 0019                        ___lwdiv 1002  
                      ___lwmod 1F4E                     ??___altofl 0078                        _exp$820 00C6  
                   ??___flpack 0073                        _exp$589 00CA                     ??___awtofl 0077  
            __end_of_eval_poly 10B9              __end_of_indicator 07FC                     ??___lltofl 0077  
                      __ptext1 00C7                        __ptext2 0800                        __ptext3 1196  
                      __ptext4 081C                        __ptext5 0FFF                        __ptext6 0FFE  
                      __ptext7 0CBB                        __ptext8 0F81                        __ptext9 1F4E  
         __size_of_timer2_init 0030                     ??___lwtofl 0077                        _pow$818 00D9  
                      _pow$819 00DD                   __size_of_exp 0197                   __size_of_log 00BA  
                 __size_of_isr 008E                   __size_of_pow 0130                        _seconds 01CF  
                      _ser_tmp 00EC                ??_format_double 0078                        clrloop0 07F3  
         end_of_initialization 002C                ??_format_number 0027                ??_format_xint32 0078  
                      exp@sign 00D0              __end_of_ser_putch 0CBB                        pow@sign 00E1  
measure_inductance@denominator 00B8          __end_of_print_reading 0FFF                     ??_ser_init 0073  
                   ??_ser_puts 0076              format_number@base 0025                     _print_unit 0FFF  
          _measure_capacitance 081C                    ___fldiv@exp 0037                 _format_putchar 07FA  
                  ___flmul@exp 0045           ?_measure_capacitance 0070        measure_capacitance@unit 01B0  
               format_double@m 01A2         measure_inductance@unit 00CC                 __end_of___flge 1756  
               __end_of___wmul 0742                  __pidataCOMMON 0000                     floor@expon 00C0  
              fp__output_putch 0106                 format_number@i 004C                 format_number@n 0023  
               format_xint32@x 004D            start_initialization 0011                     eval_poly@d 005F  
                   eval_poly@n 0060                     eval_poly@x 005B          __size_of_measure_freq 005B  
                   ldexp@value 00A0                    __end_of_exp 02F1                    __end_of_log 0462  
                  __end_of_isr 2000                    __end_of_pow 0614         __end_of_format_putchar 07FB  
           format_double@digit 01A0                     frexp@value 0073          ??_measure_capacitance 0078  
                     ??___flge 0073                       ??___wmul 0077                   _measure_freq 17A5  
                 delay10ms@run 002C         _measure_inductance$810 00BC         _measure_inductance$811 00CD  
       _measure_inductance$812 00D1         _measure_inductance$813 00D5         _measure_inductance$814 00C0  
       _measure_inductance$815 00C4         _measure_inductance$816 00C8       print_reading@measurement 0073  
            __size_of___altofl 003A              __size_of___flpack 004F              __size_of___awtofl 001F  
                  ?_print_unit 0070              __size_of___lltofl 0017                    __pbssCOMMON 0078  
                    ___latbits 0002              __size_of___lwtofl 0015                  __pcstackBANK0 0020  
                __pcstackBANK1 00A0                  __pcstackBANK3 0190              __size_of__fptable 000F  
                ?_output_putch 0075                ?_format_putchar 0075              measure_freq@count 0026  
                    _calibrate 062B                      _delay10ms 06D2                      _log10$817 00A6  
                    __pnvBANK3 01DD               ___lwdiv@dividend 0075                      __pfunctab 0100  
                     ?___fladd 004C                       ?___fldiv 0026                       ?___flneg 0073  
                     ?___flmul 0039                       ?___flsub 005B                       ?___fltol 00AA  
            __size_of_ser_init 0019                       ?___lwdiv 0073                       ?___lwmod 0073  
            __size_of_ser_puts 0018                      __pstrings 1800                      _ldexp$495 00A6  
                    _eval_poly 102C                  output_putch@c 0075                      _indicator 07FB  
               ??_output_putch 0076               ___lwdiv@quotient 0021                 __size_of_log10 004B  
               __size_of_floor 00B7                 __size_of_ldexp 0097                 __size_of_frexp 003F  
            interrupt_function 0004                     ?_calibrate 0070                 ___wmul@product 0020  
                   ser_putch@c 0075                     ?_delay10ms 0022                      clear_ram0 07F2  
                measure_freq@i 0025            __size_of_print_unit 0001                      _ser_putch 0CA6  
  __size_of_measure_inductance 04DE                  ??_timer2_init 0073              indicator@indicate 0070  
                  __stringbase 1805              ___wmul@multiplier 0073                     ?_eval_poly 005B  
                   ?_indicator 0070          measure_inductance@Lin 00DB          measure_inductance@var 00D9  
        __end_of_format_double 0E6C           format_number@padchar 0048          __end_of_format_number 0FE9  
        __end_of_format_xint32 0CE1                      frexp@eptr 0077                     ?_ser_putch 0075  
                  delay10ms@ms 0028               __size_of___fladd 00DD               __size_of___fldiv 007B  
             __size_of___flneg 0009               __size_of___flmul 0096               __size_of___flsub 0024  
             __size_of___fltol 0057                       ___altofl 04A1                       ___flpack 1756  
             __size_of___lwdiv 002A               __size_of___lwmod 0024                       ___awtofl 0F3E  
           __end_of__stringtab 1806                       ___lltofl 0614                  timer2_init@ps 0075  
                     ___lwtofl 0FE9               measure_freq@prev 0024            __end_of_timer2_init 00F7  
                     __fptable 0100                ___lwdiv@divisor 0073                ___lwdiv@counter 0020  
       __size_of_print_reading 0001                       __ptext10 1002                       __ptext11 0CE1  
                     __ptext20 0E6C                       __ptext12 04E4                       __ptext21 0614  
                     __ptext13 015A                       __ptext30 10B9                       __ptext22 07FA  
                     __ptext14 0030                       __ptext31 170A                       __ptext23 0CA6  
                     __ptext15 04DB                       __ptext40 1756                       __ptext32 0F3E  
                     __ptext24 0819                       __ptext16 02F1                       __ptext41 1F72  
                     __ptext33 07FB                       __ptext25 010F                       __ptext17 0EE7  
                     __ptext34 062B                       __ptext26 03A8                       __ptext18 04A1  
                     __ptext35 0C8E                       __ptext27 0462                       __ptext19 0F5D  
                     __ptext36 17A5                       __ptext28 102C                       __ptext37 06D2  
                     __ptext29 1674                       __ptext38 0729                       __ptext39 0FE9  
                  ??_calibrate 0077                  __size_of_main 00B0                    ??_delay10ms 0024  
                    ser_puts@s 0076                       _msecpart 01E3                       _ser_init 0800  
                     _ser_puts 0C8E                       _timer1of 01D3           __end_of_output_putch 081C  
                     exp@coeff 1806          ___flmul@f3_as_product 0046                       log@coeff 182E  
  measure_inductance@numerator 00B4               ??_format_putchar 0075                   ??_print_unit 0073  
                  ??_eval_poly 0062                    ??_indicator 0073                       intlevel1 0100  
  __end_of_measure_capacitance 0C8E               ___lwmod@dividend 0075                      stringcode 1800  
                  ??_ser_putch 0074             __end_of_print_unit 1000                  _print_reading 0FFE  
         delay10ms@period_10ms 0022                    _timer2_init 00C7                ___lwmod@divisor 0073  
              ___lwmod@counter 0077                       stringdir 1800                       stringtab 1800  
            _format_double$805 0194              _format_double$806 0198        _measure_capacitance$807 01A4  
      _measure_capacitance$808 01A8        _measure_capacitance$809 01AC                   ___fladd@exp1 005A  
                 ___fladd@exp2 0059                   ___fladd@sign 0058                 ?_print_reading 0073  
