HI-TECH Software C Compiler 

Linker command line:

-W1 \
  --edf=C:\Program Files (x86)\HI-TECH Software\PICC-18\PRO\9.66\dat\en_msgs.txt \
  -cs -h+dist/default/production\LC_meter_18f252_htc.X.production.sym -z \
  -Q18F252 -ol.obj \
  -Mdist/default/production/LC_meter_18f252_htc.X.production.map -E1 \
  -ACODE=00h-03FFFhx2 -ACONST=00h-07FFFh -ASMALLCONST=0600h-06FFhx122 \
  -AMEDIUMCONST=0600h-07FFFh -ARAM=00h-0FFhx5,0500h-057Fh \
  -ABIGRAM=00h-057Fh -ACOMRAM=00h-07Fh -AABS1=00h-057Fh -ABANK0=00h-0FFh \
  -ABANK1=0100h-01FFh -ABANK2=0200h-02FFh -ABANK3=0300h-03FFh \
  -ABANK4=0400h-04FFh -ABANK5=0500h-057Fh -ANVRAM=0500h-057Fh \
  -preset_vec=00h,intcode=08h,intcodelo,powerup,init,end_init \
  -pramtop=0600h -psmallconst=SMALLCONST -pmediumconst=MEDIUMCONST \
  -pconst=CONST -pparam1=BANK1 -AFARRAM=00h-00h -ACONFIG=0300000h-030000Dh \
  -pconfig=CONFIG -AIDLOC=0200000h-0200007h -pidloc=IDLOC \
  -AEEDATA=0F00000h-0F000FFh -peeprom_data=EEDATA \
  -prdata=COMRAM,nvrram=COMRAM,nvbit=COMRAM,rbss=COMRAM,rbit=COMRAM \
  -pfarbss=FARRAM,fardata=FARRAM \
  -pintsave_regs=BIGRAM,bigbss=BIGRAM,bigdata=BIGRAM -pbss=RAM \
  -pidata=CODE,irdata=CODE,ibigdata=CODE,ifardata=CODE \
  C:\Users\vboxuser\AppData\Local\Temp\s3vo.obj \
  dist/default/production\LC_meter_18f252_htc.X.production.obj 

Object code version is 3.10

Machine type is 18F252

Call graph: (short form)

*_main size 0,0 offset 0
     _timer2_init size 0,1 offset 0
     _delay10ms size 2,4 offset 0
         ___wmul size 4,0 offset 6
     _ser_init size 0,0 offset 0
     _calibrate size 0,0 offset 0
         _measure_freq size 2,2 offset 30
         ___lwtofl size 4,4 offset 30
             ___flpack size 3,8 offset 99
         _delay10ms size 2,4 offset 0
         _ser_puts size 0,0 offset 14
             _ser_putch size 0,0 offset 59
     _ser_puts size 0,0 offset 14
*    _measure_capacitance size 0,14 offset 0
         _measure_freq size 2,2 offset 30
*        ___lwtofl size 4,4 offset 30
         _ser_puts size 0,0 offset 14
         _format_xint32 size 4,0 offset 14
             _format_number size 4,37 offset 18
                 ___lwmod size 4,0 offset 59
                 ___lwdiv size 4,0 offset 59
                 _output_putch size 0,0 offset 59
                     _ser_putch size 0,0 offset 59
                 _ser_putch size 0,0 offset 59
                 _format_putchar size 0,0 offset 59
             _output_putch size 0,0 offset 59
             _ser_putch size 0,0 offset 59
             _format_putchar size 0,0 offset 59
*        _format_double size 4,16 offset 14
             _log10 size 4,0 offset 34
                 _log size 4,18 offset 47
                     _frexp size 6,3 offset 69
                     ___flmul size 8,6 offset 85
                         ___flunpack size 4,4 offset 99
                         ___flpack size 3,8 offset 99
                     ___fladd size 8,3 offset 85
                         ___flunpack size 4,4 offset 99
                         ___flpack size 3,8 offset 99
                     _eval_poly size 7,9 offset 69
                         ___flmul size 8,6 offset 85
                         ___fladd size 8,3 offset 85
                     ___awtofl size 4,4 offset 69
                         ___flpack size 3,8 offset 99
                         ___flneg size 4,0 offset 77
                 ___flmul size 8,6 offset 85
             ___fltol size 4,5 offset 67
                 ___flunpack size 4,4 offset 99
*            ___awtofl size 4,4 offset 69
*            _pow size 8,5 offset 34
                 ___flge size 8,0 offset 67
                 ___fltol size 4,5 offset 67
                 ___lltofl size 4,4 offset 47
                     ___flpack size 3,8 offset 99
                 ___flneg size 4,0 offset 77
*                _log size 4,18 offset 47
*                ___flmul size 8,6 offset 85
*                _exp size 4,6 offset 47
                     ___flge size 8,0 offset 67
                     ___flneg size 4,0 offset 77
                     ___asflmul size 6,0 offset 57
                         ___flmul size 8,6 offset 85
*                    _floor size 4,6 offset 57
                         _frexp size 6,3 offset 69
                         ___fltol size 4,5 offset 67
                         ___altofl size 4,4 offset 67
                             ___flpack size 3,8 offset 99
                             ___flneg size 4,0 offset 77
                         ___flge size 8,0 offset 67
                         ___fladd size 8,3 offset 85
                     ___fltol size 4,5 offset 67
*                    ___awtofl size 4,4 offset 69
                     ___asflsub size 6,0 offset 57
                         ___flsub size 8,0 offset 63
                             ___fladd size 8,3 offset 85
*                    _eval_poly size 7,9 offset 69
                     _ldexp size 6,3 offset 57
                     ___fldiv size 8,6 offset 57
                         ___flunpack size 4,4 offset 99
                         ___flpack size 3,8 offset 99
             ___fldiv size 8,6 offset 57
*            _floor size 4,6 offset 57
*            ___flmul size 8,6 offset 85
             ___asflsub size 6,0 offset 57
             ___flge size 8,0 offset 67
             _output_putch size 0,0 offset 59
             _ser_putch size 0,0 offset 59
             _format_putchar size 0,0 offset 59
         _ser_putch size 0,0 offset 59
         ___flge size 8,0 offset 67
*        ___flmul size 8,6 offset 85
         ___flsub size 8,0 offset 63
         ___asfldiv size 6,0 offset 30
             ___fldiv size 8,6 offset 57
         ___asflmul size 6,0 offset 57
         ___fltol size 4,5 offset 67
         _print_reading size 2,0 offset 30
         _print_unit size 0,0 offset 30
*    _measure_inductance size 0,30 offset 0
         _measure_freq size 2,2 offset 30
*        ___lwtofl size 4,4 offset 30
         ___flge size 8,0 offset 67
*        ___flmul size 8,6 offset 85
         ___flsub size 8,0 offset 63
         ___fldiv size 8,6 offset 57
         ___asfldiv size 6,0 offset 30
         ___asflmul size 6,0 offset 57
         ___fltol size 4,5 offset 67
         _print_reading size 2,0 offset 30
         _print_unit size 0,0 offset 30
     _indicator size 0,0 offset 0

Estimated maximum call depth: 7

*intlevel2 size 0,0 offset 110
*    _isr size 0,2 offset 110

Estimated maximum call depth: 1


                Name          Link     Load   Length Selector Space Scale
C:\Users\vboxuser\AppData\Local\Temp\s3vo.obj
                init            16       16       22       4     0
                reset_vec        0        0        6       0     0
                end_init        38       38       1A       4     0
                config      300000   300000        E  300000     0
dist/default/production\LC_meter_18f252_htc.X.production.obj
                intcode          8        8        E       4     0
                smallcons      600      600       78     300     0
                idata          678      678        3     33C     0
                text35        24C0     24C0       3E     33E     0
                text34        1D64     1D64       A0     33E     0
                text33        1BFE     1BFE       BE     33E     0
                text38        1E04     1E04       9C     33E     0
                text37        1A5E     1A5E       DC     33E     0
                text36        2054     2054       7E     33E     0
                text32        197A     197A       E4     33E     0
                text28        23E8     23E8       4A     33E     0
                text27        25A0     25A0       2A     33E     0
                text26        262A     262A        6     33E     0
                text31        1FCA     1FCA       8A     33E     0
                text30        239E     239E       4A     33E     0
                text29        16A6     16A6       F4     33E     0
                text45        1B3A     1B3A       C4     33E     0
                text41        25F2     25F2       18     33E     0
                text40        2302     2302       4E     33E     0
                text39        1F36     1F36       94     33E     0
                text44        213A     213A       68     33E     0
                text43        179A     179A       F2     33E     0
                text42        1176     1176      16E     33E     0
                text25        12E4     12E4      168     33E     0
                text8          FD2      FD2      1A4     33E     0
                text7         2624     2624        6     33E     0
                text6         25CA     25CA       28     33E     0
                text11        20D2     20D2       68     33E     0
                text10        261E     261E        6     33E     0
                text9         2432     2432       4A     33E     0
                text5         21A2     21A2       5E     33E     0
                text1         2618     2618        6     33E     0
                text0         188C     188C       EE     33E     0
                text4          A58      A58      39C     33E     0
                text3          67C      67C      3DC     33E     0
                text2         1CBC     1CBC       A8     33E     0
                text21        22B2     22B2       50     33E     0
                text20         DF4      DF4      1DE     33E     0
                text19        144C     144C      164     33E     0
                text24        260A     260A        E     33E     0
                text23        225E     225E       54     33E     0
                text22        24FE     24FE       3E     33E     0
                text18        15B0     15B0       F6     33E     0
                text14        256E     256E       32     33E     0
                text13        2200     2200       5E     33E     0
                text12        1EA0     1EA0       96     33E     0
                text17        2350     2350       4E     33E     0
                text16        253C     253C       32     33E     0
                text15        247C     247C       44     33E     0

COMMON          param1         100      100       70     100     1

TOTAL           Name          Link     Load   Length  Space
        CLASS   CODE           
                init            16       16       22     0
                intcode          8        8        E     0
                reset_vec        0        0        6     0
                end_init        38       38       1A     0
                idata          678      678        3     0
                text35        24C0     24C0       3E     0
                text34        1D64     1D64       A0     0
                text33        1BFE     1BFE       BE     0
                text38        1E04     1E04       9C     0
                text37        1A5E     1A5E       DC     0
                text36        2054     2054       7E     0
                text32        197A     197A       E4     0
                text28        23E8     23E8       4A     0
                text27        25A0     25A0       2A     0
                text26        262A     262A        6     0
                text31        1FCA     1FCA       8A     0
                text30        239E     239E       4A     0
                text29        16A6     16A6       F4     0
                text45        1B3A     1B3A       C4     0
                text41        25F2     25F2       18     0
                text40        2302     2302       4E     0
                text39        1F36     1F36       94     0
                text44        213A     213A       68     0
                text43        179A     179A       F2     0
                text42        1176     1176      16E     0
                text25        12E4     12E4      168     0
                text8          FD2      FD2      1A4     0
                text7         2624     2624        6     0
                text6         25CA     25CA       28     0
                text11        20D2     20D2       68     0
                text10        261E     261E        6     0
                text9         2432     2432       4A     0
                text5         21A2     21A2       5E     0
                text1         2618     2618        6     0
                text0         188C     188C       EE     0
                text4          A58      A58      39C     0
                text3          67C      67C      3DC     0
                text2         1CBC     1CBC       A8     0
                text21        22B2     22B2       50     0
                text20         DF4      DF4      1DE     0
                text19        144C     144C      164     0
                text24        260A     260A        E     0
                text23        225E     225E       54     0
                text22        24FE     24FE       3E     0
                text18        15B0     15B0       F6     0
                text14        256E     256E       32     0
                text13        2200     2200       5E     0
                text12        1EA0     1EA0       96     0
                text17        2350     2350       4E     0
                text16        253C     253C       32     0
                text15        247C     247C       44     0

        CLASS   CONST          

        CLASS   SMALLCONST     
                smallcons      600      600       78     0

        CLASS   MEDIUMCONST    

        CLASS   RAM            

        CLASS   BIGRAM         

        CLASS   COMRAM         

        CLASS   ABS1           
                abs_s1           0        0       4A     1

        CLASS   BANK0          

        CLASS   BANK1          
                param1         100      100       70     1

        CLASS   BANK2          

        CLASS   BANK3          

        CLASS   BANK4          

        CLASS   BANK5          

        CLASS   NVRAM          

        CLASS   FARRAM         

        CLASS   CONFIG         
                config      300000   300000        E     0

        CLASS   IDLOC          

        CLASS   EEDATA         



SEGMENTS        Name           Load    Length   Top     Selector    Space Class

                reset_vec       000000  000006  000006         0       0  CODE    
                intcode         000008  00004A  000052         4       0  CODE    
                param1          000100  000070  000170       100       1  BANK1   
                smallconst      000600  000078  000678       300       0  SMALLCON
                idata           000678  000003  00067B       33C       0  CODE    
                irdata          00067C  001FB4  002630       33E       0  CODE    
                config          300000  00000E  30000E    300000       0  CONFIG  


UNUSED ADDRESS RANGES

        BANK0            00004A-0000FF
        BANK1            000170-0001FF
        BANK2            000200-0002FF
        BANK3            000300-0003FF
        BANK4            000400-0004FF
        BANK5            000500-00057F
        BIGRAM           00004A-0000FF
                         000170-00057F
        CODE             000006-000007
                         000052-0005FF
                         00067B-00067B
                         002630-007FFF
        COMRAM           00004A-00007F
        CONST            000006-000007
                         000052-0005FF
                         00067B-00067B
                         002630-007FFF
        EEDATA           F00000-F000FF
        IDLOC            200000-200007
        MEDIUMCONST      00067B-00067B
                         002630-007FFF
        NVRAM            000500-00057F
        RAM              00004A-0000FF
                         000170-00057F
        SMALLCONST       00067B-00067B
                         002630-007FFF

                                  Symbol Table

??___altofl                                                                 param1       000147
??___asfldiv                                                                param1       000124
??___asflmul                                                                param1       00013F
??___asflsub                                                                param1       00013F
??___awtofl                                                                 param1       000149
??___fladd                                                                  param1       00015D
??___fldiv                                                                  param1       000141
??___flge                                                                   param1       00014B
??___flmul                                                                  param1       00015D
??___flneg                                                                  param1       000151
??___flpack                                                                 param1       000166
??___flsub                                                                  param1       000147
??___fltol                                                                  param1       000147
??___flunpack                                                               param1       000167
??___lltofl                                                                 param1       000133
??___lwdiv                                                                  param1       00013F
??___lwmod                                                                  param1       00013F
??___lwtofl                                                                 param1       000122
??___wmul                                                                   param1       00010A
??_calibrate                                                                param1       000100
??_delay10ms                                                                param1       000102
??_eval_poly                                                                param1       00014C
??_exp                                                                      param1       000133
??_floor                                                                    param1       00013D
??_format_double                                                            param1       000112
??_format_number                                                            param1       000116
??_format_putchar                                                           param1       00013B
??_format_xint32                                                            param1       000112
??_frexp                                                                    param1       00014B
??_indicator                                                                param1       000100
??_isr                                                                      param1       00016E
??_ldexp                                                                    param1       00013F
??_log                                                                      param1       000133
??_log10                                                                    param1       000126
??_main                                                                     param1       000100
??_measure_capacitance                                                      param1       000100
??_measure_freq                                                             param1       000120
??_measure_inductance                                                       param1       000100
??_output_putch                                                             param1       00013B
??_pow                                                                      param1       00012A
??_print_reading                                                            param1       000120
??_print_unit                                                               param1       00011E
??_ser_init                                                                 param1       000100
??_ser_putch                                                                param1       00013B
??_ser_puts                                                                 param1       00010E
??_timer2_init                                                              param1       000100
?___altofl                                                                  param1       000143
?___asfldiv                                                                 param1       00011E
?___asflmul                                                                 param1       000139
?___asflsub                                                                 param1       000139
?___awtofl                                                                  param1       000145
?___fladd                                                                   param1       000155
?___fldiv                                                                   param1       000139
?___flge                                                                    param1       000143
?___flmul                                                                   param1       000155
?___flneg                                                                   param1       00014D
?___flpack                                                                  param1       000163
?___flsub                                                                   param1       00013F
?___fltol                                                                   param1       000143
?___flunpack                                                                param1       000163
?___lltofl                                                                  param1       00012F
?___lwdiv                                                                   param1       00013B
?___lwmod                                                                   param1       00013B
?___lwtofl                                                                  param1       00011E
?___wmul                                                                    param1       000106
?_calibrate                                                                 param1       000100
?_delay10ms                                                                 param1       000100
?_eval_poly                                                                 param1       000145
?_exp                                                                       param1       00012F
?_floor                                                                     param1       000139
?_format_double                                                             param1       00010E
?_format_number                                                             param1       000112
?_format_putchar                                                            param1       00013B
?_format_xint32                                                             param1       00010E
?_frexp                                                                     param1       000145
?_indicator                                                                 param1       000100
?_isr                                                                       param1       00016E
?_ldexp                                                                     param1       000139
?_log                                                                       param1       00012F
?_log10                                                                     param1       000122
?_main                                                                      param1       000100
?_measure_capacitance                                                       param1       000100
?_measure_freq                                                              param1       00011E
?_measure_inductance                                                        param1       000100
?_output_putch                                                              param1       00013B
?_pow                                                                       param1       000122
?_print_reading                                                             param1       00011E
?_print_unit                                                                param1       00011E
?_ser_init                                                                  param1       000100
?_ser_putch                                                                 param1       00013B
?_ser_puts                                                                  param1       00010E
?_timer2_init                                                               param1       000100
F64                                                                         smallconst   000629
F65                                                                         smallconst   000601
_BRGH                                                                       (abs)        007D62
_CCal                                                                       (abs)        000000
_CREN                                                                       (abs)        007D5C
_F1                                                                         (abs)        000008
_F2                                                                         (abs)        000010
_F3                                                                         (abs)        00000C
_GIE                                                                        (abs)        007F97
_LATC3                                                                      (abs)        007C5B
_LATC4                                                                      (abs)        007C5C
_LATC5                                                                      (abs)        007C5D
_LATC7                                                                      (abs)        007C5F
_OERR                                                                       (abs)        007D59
_PEIE                                                                       (abs)        007F96
_RBPU                                                                       (abs)        007F8F
_RCIF                                                                       (abs)        007CF5
_RCREG                                                                      (abs)        000FAE
_RX9                                                                        (abs)        007D5E
_SPBRG                                                                      (abs)        000FAF
_SPEN                                                                       (abs)        007D5F
_SSPEN                                                                      (abs)        007E35
_SYNC                                                                       (abs)        007D64
_T0CS                                                                       (abs)        007EAD
_T0SE                                                                       (abs)        007EAC
_T2CKPS0                                                                    (abs)        007E50
_T2CKPS1                                                                    (abs)        007E51
_TMR0                                                                       (abs)        000FD6
_TMR0IF                                                                     (abs)        007F92
_TMR2                                                                       (abs)        000FCC
_TMR2IE                                                                     (abs)        007CE9
_TMR2IF                                                                     (abs)        007CF1
_TMR2ON                                                                     (abs)        007E52
_TOUTPS0                                                                    (abs)        007E53
_TOUTPS1                                                                    (abs)        007E54
_TOUTPS2                                                                    (abs)        007E55
_TRISA                                                                      (abs)        000F92
_TRISC                                                                      (abs)        000F94
_TRISC0                                                                     (abs)        007CA0
_TRISC1                                                                     (abs)        007CA1
_TRISC2                                                                     (abs)        007CA2
_TRISC3                                                                     (abs)        007CA3
_TRISC4                                                                     (abs)        007CA4
_TRISC5                                                                     (abs)        007CA5
_TRISC6                                                                     (abs)        007CA6
_TX9                                                                        (abs)        007D66
_TXEN                                                                       (abs)        007D65
_TXIE                                                                       (abs)        007CEC
_TXIF                                                                       (abs)        007CF4
_TXREG                                                                      (abs)        000FAD
__Bnvbit                                                                    nvbit        00004A
__Brbit                                                                     rbit         00004A
__HRAM                                                                      (abs)        000000
__Habsbss0                                                                  (abs)        000047
__Hbigbss                                                                   bigbss       000170
__Hbigdata                                                                  bigdata      000170
__Hbss                                                                      bss          00004A
__Hclrtext                                                                  clrtext      00067C
__Hconfig                                                                   config       30000E
__Hconst                                                                    const        000678
__Hdata                                                                     data         00067C
__Hdata0                                                                    (abs)        00004A
__Heeprom_data                                                              eeprom_data  F00000
__Hend_init                                                                 end_init     000052
__Hfarbss                                                                   farbss       000000
__Hfardata                                                                  fardata      000000
__Hibigdata                                                                 ibigdata     00067C
__Hidata                                                                    idata        00067B
__Hidloc                                                                    idloc        200000
__Hifardata                                                                 ifardata     00067C
__Hinit                                                                     init         000038
__Hintcode                                                                  intcode      000016
__Hintcodelo                                                                intcodelo    000016
__Hintentry                                                                 intentry     00067C
__Hintret                                                                   intret       00067C
__Hintsave_regs                                                             intsave_regs 000170
__Hirdata                                                                   irdata       00067C
__Hmediumconst                                                              mediumconst  000678
__Hnvbit                                                                    nvbit        000250
__Hnvram                                                                    nvram        00067C
__Hnvrram                                                                   nvrram       00004A
__Hparam                                                                    param1       000170
__Hparam0                                                                   param0       00067C
__Hparam1                                                                   param1       000170
__Hparam2                                                                   param2       00067C
__Hparam3                                                                   param3       00067C
__Hparam4                                                                   param4       00067C
__Hparam5                                                                   param5       00067C
__Hpowerup                                                                  powerup      000016
__Hramtop                                                                   ramtop       000600
__Hrbit                                                                     rbit         000250
__Hrbss                                                                     rbss         00004A
__Hrdata                                                                    rdata        00004A
__Hreset_vec                                                                reset_vec    000006
__Hrparam                                                                   rparam       00067C
__Hsmallconst                                                               smallconst   000678
__Hstruct                                                                   struct       00004A
__Htemp                                                                     temp         00004A
__Htext                                                                     text         00067C
__Htext0                                                                    text0        00067C
__Htext1                                                                    text1        00067C
__Htext10                                                                   text10       00067C
__Htext11                                                                   text11       00067C
__Htext12                                                                   text12       00067C
__Htext13                                                                   text13       00067C
__Htext14                                                                   text14       00067C
__Htext15                                                                   text15       00067C
__Htext16                                                                   text16       00067C
__Htext17                                                                   text17       00067C
__Htext18                                                                   text18       00067C
__Htext19                                                                   text19       00067C
__Htext2                                                                    text2        00067C
__Htext20                                                                   text20       00067C
__Htext21                                                                   text21       00067C
__Htext22                                                                   text22       00067C
__Htext23                                                                   text23       00067C
__Htext24                                                                   text24       00067C
__Htext25                                                                   text25       00067C
__Htext26                                                                   text26       00067C
__Htext27                                                                   text27       00067C
__Htext28                                                                   text28       00067C
__Htext29                                                                   text29       00067C
__Htext3                                                                    text3        00067C
__Htext30                                                                   text30       00067C
__Htext31                                                                   text31       00067C
__Htext32                                                                   text32       00067C
__Htext33                                                                   text33       00067C
__Htext34                                                                   text34       00067C
__Htext35                                                                   text35       00067C
__Htext36                                                                   text36       00067C
__Htext37                                                                   text37       00067C
__Htext38                                                                   text38       00067C
__Htext39                                                                   text39       00067C
__Htext4                                                                    text4        00067C
__Htext40                                                                   text40       00067C
__Htext41                                                                   text41       00067C
__Htext42                                                                   text42       00067C
__Htext43                                                                   text43       00067C
__Htext44                                                                   text44       00067C
__Htext45                                                                   text45       00067C
__Htext46                                                                   text46       00067C
__Htext5                                                                    text5        00067C
__Htext6                                                                    text6        00067C
__Htext7                                                                    text7        00067C
__Htext8                                                                    text8        00067C
__Htext9                                                                    text9        00067C
__LRAM                                                                      (abs)        000001
__Labsbss0                                                                  (abs)        000000
__Lbigbss                                                                   bigbss       000170
__Lbigdata                                                                  bigdata      000170
__Lbss                                                                      bss          00004A
__Lclrtext                                                                  clrtext      00067C
__Lconfig                                                                   config       300000
__Lconst                                                                    const        000678
__Ldata                                                                     (abs)        000047
__Ldata0                                                                    (abs)        000047
__Leeprom_data                                                              eeprom_data  F00000
__Lend_init                                                                 end_init     000038
__Lfarbss                                                                   farbss       000000
__Lfardata                                                                  fardata      000000
__Libigdata                                                                 ibigdata     00067C
__Lidata                                                                    idata        000678
__Lidloc                                                                    idloc        200000
__Lifardata                                                                 ifardata     00067C
__Linit                                                                     init         000016
__Lintcode                                                                  intcode      000008
__Lintcodelo                                                                intcodelo    000016
__Lintentry                                                                 intentry     00067C
__Lintret                                                                   intret       00067C
__Lintsave_regs                                                             intsave_regs 000170
__Lirdata                                                                   irdata       00067C
__Lmediumconst                                                              mediumconst  000678
__Lnvbit                                                                    nvbit        000250
__Lnvram                                                                    nvram        00067C
__Lnvrram                                                                   nvrram       00004A
__Lparam                                                                    param1       000100
__Lparam0                                                                   param0       00067C
__Lparam1                                                                   param1       000100
__Lparam2                                                                   param2       00067C
__Lparam3                                                                   param3       00067C
__Lparam4                                                                   param4       00067C
__Lparam5                                                                   param5       00067C
__Lpowerup                                                                  powerup      000016
__Lramtop                                                                   ramtop       000600
__Lrbit                                                                     rbit         000250
__Lrbss                                                                     rbss         00004A
__Lrdata                                                                    rdata        00004A
__Lreset_vec                                                                reset_vec    000000
__Lrparam                                                                   rparam       00067C
__Lsmallconst                                                               smallconst   000600
__Lstruct                                                                   struct       00004A
__Ltemp                                                                     temp         00004A
__Ltext                                                                     text         00067C
__Ltext0                                                                    text0        00067C
__Ltext1                                                                    text1        00067C
__Ltext10                                                                   text10       00067C
__Ltext11                                                                   text11       00067C
__Ltext12                                                                   text12       00067C
__Ltext13                                                                   text13       00067C
__Ltext14                                                                   text14       00067C
__Ltext15                                                                   text15       00067C
__Ltext16                                                                   text16       00067C
__Ltext17                                                                   text17       00067C
__Ltext18                                                                   text18       00067C
__Ltext19                                                                   text19       00067C
__Ltext2                                                                    text2        00067C
__Ltext20                                                                   text20       00067C
__Ltext21                                                                   text21       00067C
__Ltext22                                                                   text22       00067C
__Ltext23                                                                   text23       00067C
__Ltext24                                                                   text24       00067C
__Ltext25                                                                   text25       00067C
__Ltext26                                                                   text26       00067C
__Ltext27                                                                   text27       00067C
__Ltext28                                                                   text28       00067C
__Ltext29                                                                   text29       00067C
__Ltext3                                                                    text3        00067C
__Ltext30                                                                   text30       00067C
__Ltext31                                                                   text31       00067C
__Ltext32                                                                   text32       00067C
__Ltext33                                                                   text33       00067C
__Ltext34                                                                   text34       00067C
__Ltext35                                                                   text35       00067C
__Ltext36                                                                   text36       00067C
__Ltext37                                                                   text37       00067C
__Ltext38                                                                   text38       00067C
__Ltext39                                                                   text39       00067C
__Ltext4                                                                    text4        00067C
__Ltext40                                                                   text40       00067C
__Ltext41                                                                   text41       00067C
__Ltext42                                                                   text42       00067C
__Ltext43                                                                   text43       00067C
__Ltext44                                                                   text44       00067C
__Ltext45                                                                   text45       00067C
__Ltext46                                                                   text46       00067C
__Ltext5                                                                    text5        00067C
__Ltext6                                                                    text6        00067C
__Ltext7                                                                    text7        00067C
__Ltext8                                                                    text8        00067C
__Ltext9                                                                    text9        00067C
__S0                                                                        (abs)        F00000
__S1                                                                        (abs)        000500
___altofl                                                                   text39       001F36
___altofl@c                                                                 param1       000143
___altofl@f1                                                                param1       000147
___asfldiv                                                                  text9        002432
___asfldiv@f1p                                                              param1       00011E
___asfldiv@f2                                                               param1       000120
___asflmul                                                                  text30       00239E
___asflmul@mp                                                               param1       000139
___asflmul@multiplicand                                                     param1       00013B
___asflsub                                                                  text28       0023E8
___asflsub@f1p                                                              param1       000139
___asflsub@f2                                                               param1       00013B
___awtofl                                                                   text31       001FCA
___awtofl@c                                                                 param1       000145
___awtofl@f1                                                                param1       000149
___fladd                                                                    text42       001176
___fladd@exp1                                                               param1       00015E
___fladd@exp2                                                               param1       00015D
___fladd@f1                                                                 param1       000155
___fladd@f2                                                                 param1       000159
___fldiv                                                                    text33       001BFE
___fldiv@exp1                                                               param1       000142
___fldiv@exp2                                                               param1       000141
___fldiv@f1                                                                 param1       000139
___fldiv@f2                                                                 param1       00013D
___fldiv@f3                                                                 param1       000143
___flge                                                                     text40       002302
___flge@ff1                                                                 param1       000143
___flge@ff2                                                                 param1       000147
___flmul                                                                    text37       001A5E
___flmul@cntr                                                               param1       00015E
___flmul@exp1                                                               param1       00015D
___flmul@f1                                                                 param1       000155
___flmul@f2                                                                 param1       000159
___flmul@f3                                                                 param1       00015F
___flneg                                                                    text41       0025F2
___flneg@f1                                                                 param1       00014D
___flpack                                                                   text43       00179A
___flpack@arg                                                               param1       000163
___flpack@exp                                                               param1       000165
___flpack@l_arg                                                             param1       000166
___flsub                                                                    text35       0024C0
___flsub@f1                                                                 param1       00013F
___flsub@f2                                                                 param1       000143
___fltol                                                                    text38       001E04
___fltol@exp1                                                               param1       000147
___fltol@f1                                                                 param1       000143
___fltol@lval                                                               param1       000148
___flunpack                                                                 text44       00213A
___flunpack@arg                                                             param1       000163
___flunpack@exp                                                             param1       000165
___flunpack@l_arg                                                           param1       000167
___lltofl                                                                   text21       0022B2
___lltofl@c                                                                 param1       00012F
___lltofl@f1                                                                param1       000133
___lwdiv                                                                    text23       00225E
___lwdiv@dividend                                                           param1       00013B
___lwdiv@divisor                                                            param1       00013D
___lwmod                                                                    text22       0024FE
___lwmod@dividend                                                           param1       00013B
___lwmod@divisor                                                            param1       00013D
___lwtofl                                                                   text15       00247C
___lwtofl@c                                                                 param1       00011E
___lwtofl@f1                                                                param1       000122
___wmul                                                                     text16       00253C
___wmul@multiplicand                                                        param1       000108
___wmul@multiplier                                                          param1       000106
__accesstop                                                                 (abs)        000080
__activetblptr                                                              (abs)        000002
__cntErrataNOP_C:\Users\vboxuser\AppData\Local\Temp\s3vo.obj                (abs)        000000
__cntErrataNOP_dist/default/production\LC_meter_18f252_htc.X.production.obj (abs)        0000B9
__config1                                                                   (abs)        00FEFF
__config2                                                                   (abs)        00FEFA
__config3                                                                   (abs)        00FFFF
__config4                                                                   (abs)        00FFFB
__config5                                                                   (abs)        00FFFF
__end_of___altofl                                                           text39       001FCA
__end_of___asfldiv                                                          text9        00247C
__end_of___asflmul                                                          text30       0023E8
__end_of___asflsub                                                          text28       002432
__end_of___awtofl                                                           text31       002054
__end_of___fladd                                                            text42       0012E4
__end_of___fldiv                                                            text33       001CBC
__end_of___flge                                                             text40       002350
__end_of___flmul                                                            text37       001B3A
__end_of___flneg                                                            text41       00260A
__end_of___flpack                                                           text43       00188C
__end_of___flsub                                                            text35       0024FE
__end_of___fltol                                                            text38       001EA0
__end_of___flunpack                                                         text44       0021A2
__end_of___lltofl                                                           text21       002302
__end_of___lwdiv                                                            text23       0022B2
__end_of___lwmod                                                            text22       00253C
__end_of___lwtofl                                                           text15       0024C0
__end_of___wmul                                                             text16       00256E
__end_of_calibrate                                                          text2        001D64
__end_of_delay10ms                                                          text13       00225E
__end_of_eval_poly                                                          text32       001A5E
__end_of_exp                                                                text20       000FD2
__end_of_floor                                                              text29       00179A
__end_of_format_double                                                      text8        001176
__end_of_format_number                                                      text18       0016A6
__end_of_format_putchar                                                     text26       002630
__end_of_format_xint32                                                      text11       00213A
__end_of_frexp                                                              text36       0020D2
__end_of_indicator                                                          text1        00261E
__end_of_isr                                                                text45       001BFE
__end_of_ldexp                                                              text34       001E04
__end_of_log                                                                text25       00144C
__end_of_log10                                                              text17       00239E
__end_of_main                                                               text0        00197A
__end_of_measure_capacitance                                                text4        000DF4
__end_of_measure_freq                                                       text12       001F36
__end_of_measure_inductance                                                 text3        000A58
__end_of_output_putch                                                       text24       002618
__end_of_pow                                                                text19       0015B0
__end_of_print_reading                                                      text7        00262A
__end_of_print_unit                                                         text10       002624
__end_of_ser_init                                                           text6        0025F2
__end_of_ser_putch                                                          text27       0025CA
__end_of_ser_puts                                                           text14       0025A0
__end_of_timer2_init                                                        text5        002200
__mediumconst                                                               mediumconst  000678
__ramtop                                                                    ramtop       000600
__smallconst                                                                smallconst   000600
_blink                                                                      (abs)        000038
_bres                                                                       (abs)        000006
_calibrate                                                                  text2        001CBC
_delay10ms                                                                  text13       002200
_eval_poly                                                                  text32       00197A
_eval_poly$1328                                                             param1       00014C
_exit                                                                       init         000016
_exp                                                                        text20       000DF4
_exp$1311                                                                   param1       000133
_floor                                                                      text29       0016A6
_format_double                                                              text8        000FD2
_format_double$1287                                                         param1       000112
_format_double$1288                                                         param1       000116
_format_number                                                              text18       0015B0
_format_number$1302                                                         param1       000116
_format_putchar                                                             text26       00262A
_format_xint32                                                              text11       0020D2
_frexp                                                                      text36       002054
_indicator                                                                  text1        002618
_isr                                                                        text45       001B3A
_ldexp                                                                      text34       001D64
_log                                                                        text25       0012E4
_log$1315                                                                   param1       000133
_log$1316                                                                   param1       000137
_log$1320                                                                   param1       00013B
_log$1321                                                                   param1       00013F
_log10                                                                      text17       002350
_main                                                                       text0        00188C
_measure_capacitance                                                        text4        000A58
_measure_capacitance$1239                                                   param1       000100
_measure_capacitance$1240                                                   param1       000104
_measure_freq                                                               text12       001EA0
_measure_inductance                                                         text3        00067C
_measure_inductance$1259                                                    param1       000100
_measure_inductance$1260                                                    param1       000104
_measure_inductance$1261                                                    param1       000108
_measure_inductance$1262                                                    param1       00010C
_msecpart                                                                   (abs)        000004
_msecs                                                                      (abs)        000034
_output_putch                                                               text24       00260A
_pow                                                                        text19       00144C
_print_reading                                                              text7        002624
_print_unit                                                                 text10       00261E
_putchar_ptr                                                                (abs)        000047
_rxfifo                                                                     (abs)        000024
_rxiptr                                                                     (abs)        00003B
_rxoptr                                                                     (abs)        00003E
_seconds                                                                    (abs)        00003F
_ser_brg                                                                    (abs)        000049
_ser_init                                                                   text6        0025CA
_ser_putch                                                                  text27       0025A0
_ser_puts                                                                   text14       00256E
_ser_tmp                                                                    (abs)        00003D
_timer1of                                                                   (abs)        000043
_timer2_init                                                                text5        0021A2
_txfifo                                                                     (abs)        000014
_txiptr                                                                     (abs)        00003A
_txoptr                                                                     (abs)        00003C
delay10ms@ms                                                                param1       000102
delay10ms@period_10ms                                                       param1       000100
eval_poly@d                                                                 param1       000149
eval_poly@n                                                                 param1       00014A
eval_poly@res                                                               param1       000150
eval_poly@x                                                                 param1       000145
exp@exp                                                                     param1       000137
exp@x                                                                       param1       00012F
floor@expon                                                                 param1       00013D
floor@i                                                                     param1       00013F
floor@x                                                                     param1       000139
format_double@digit                                                         param1       00011A
format_double@m                                                             param1       00011C
format_double@num                                                           param1       00010E
format_double@weight                                                        param1       00011E
format_number@base                                                          param1       000114
format_number@buf                                                           param1       00011A
format_number@i                                                             param1       000119
format_number@n                                                             param1       000112
format_number@pad                                                           param1       000115
format_number@padchar                                                       param1       000118
format_xint32@x                                                             param1       00010E
frexp@eptr                                                                  param1       000149
frexp@value                                                                 param1       000145
int_func                                                                    intcode      000008
intlevel0                                                                   text         002630
intlevel1                                                                   text         002630
intlevel2                                                                   text         002630
intlevel3                                                                   text         002630
ldexp@newexp                                                                param1       00013D
ldexp@value                                                                 param1       000139
log10@x                                                                     param1       000122
log@exp                                                                     param1       000143
log@x                                                                       param1       00012F
measure_capacitance@Cin                                                     param1       00010A
measure_capacitance@var                                                     param1       000108
measure_inductance@Lin                                                      param1       00011A
measure_inductance@denominator                                              param1       000112
measure_inductance@numerator                                                param1       000116
measure_inductance@var                                                      param1       000110
pow@sign                                                                    param1       00012A
pow@x                                                                       param1       000122
pow@y                                                                       param1       000126
pow@yi                                                                      param1       00012B
print_reading@measurement                                                   param1       00011E
start                                                                       init         000016
