gpasm-1.5.0 #1285 (Jul 12 2020) obj/sdcc-18f2   11/12/23  13:12:39          PAGE  1


LOC    OBJECT CODE    LINE  SOURCE TEXT
  VALUE

                      00001 ;--------------------------------------------------------
                      00002 ; File Created by SDCC : free open source ANSI-C Compiler
                      00003 ; Version 4.2.0 #13081 (Linux)
                      00004 ;--------------------------------------------------------
                      00005 ; PIC16 port for the Microchip 16-bit core micros
                      00006 ;--------------------------------------------------------
                      00007         list    p=18f2550
                      00008         radix   dec
                      00009 
                      00010 
                      00011 ;--------------------------------------------------------
                      00012 ; public variables in this module
                      00013 ;--------------------------------------------------------
  0000                00014         global  _format_number
  0000                00015         global  _format_xint32
  0000                00016         global  _format_float
  0000                00017         global  _format_double
                      00018 
                      00019 ;--------------------------------------------------------
                      00020 ; extern variables in this module
                      00021 ;--------------------------------------------------------
  0000                00022         extern  _UFRMLbits
  0000                00023         extern  _UFRMHbits
  0000                00024         extern  _UIRbits
  0000                00025         extern  _UIEbits
  0000                00026         extern  _UEIRbits
  0000                00027         extern  _UEIEbits
  0000                00028         extern  _USTATbits
  0000                00029         extern  _UCONbits
  0000                00030         extern  _UADDRbits
  0000                00031         extern  _UCFGbits
  0000                00032         extern  _UEP0bits
  0000                00033         extern  _UEP1bits
  0000                00034         extern  _UEP2bits
  0000                00035         extern  _UEP3bits
  0000                00036         extern  _UEP4bits
  0000                00037         extern  _UEP5bits
  0000                00038         extern  _UEP6bits
  0000                00039         extern  _UEP7bits
  0000                00040         extern  _UEP8bits
  0000                00041         extern  _UEP9bits
  0000                00042         extern  _UEP10bits
  0000                00043         extern  _UEP11bits
  0000                00044         extern  _UEP12bits
  0000                00045         extern  _UEP13bits
  0000                00046         extern  _UEP14bits
  0000                00047         extern  _UEP15bits
  0000                00048         extern  _PORTAbits
  0000                00049         extern  _PORTBbits
  0000                00050         extern  _PORTCbits
  0000                00051         extern  _PORTEbits
  0000                00052         extern  _LATAbits
  0000                00053         extern  _LATBbits
gpasm-1.5.0 #1285 (Jul 12 2020) obj/sdcc-18f2   11/12/23  13:12:39          PAGE  2


LOC    OBJECT CODE    LINE  SOURCE TEXT
  VALUE

  0000                00054         extern  _LATCbits
  0000                00055         extern  _DDRAbits
  0000                00056         extern  _TRISAbits
  0000                00057         extern  _DDRBbits
  0000                00058         extern  _TRISBbits
  0000                00059         extern  _DDRCbits
  0000                00060         extern  _TRISCbits
  0000                00061         extern  _OSCTUNEbits
  0000                00062         extern  _PIE1bits
  0000                00063         extern  _PIR1bits
  0000                00064         extern  _IPR1bits
  0000                00065         extern  _PIE2bits
  0000                00066         extern  _PIR2bits
  0000                00067         extern  _IPR2bits
  0000                00068         extern  _EECON1bits
  0000                00069         extern  _RCSTAbits
  0000                00070         extern  _TXSTAbits
  0000                00071         extern  _T3CONbits
  0000                00072         extern  _CMCONbits
  0000                00073         extern  _CVRCONbits
  0000                00074         extern  _CCP1ASbits
  0000                00075         extern  _ECCP1ASbits
  0000                00076         extern  _CCP1DELbits
  0000                00077         extern  _ECCP1DELbits
  0000                00078         extern  _BAUDCONbits
  0000                00079         extern  _BAUDCTLbits
  0000                00080         extern  _CCP2CONbits
  0000                00081         extern  _CCP1CONbits
  0000                00082         extern  _ADCON2bits
  0000                00083         extern  _ADCON1bits
  0000                00084         extern  _ADCON0bits
  0000                00085         extern  _SSPCON2bits
  0000                00086         extern  _SSPCON1bits
  0000                00087         extern  _SSPSTATbits
  0000                00088         extern  _T2CONbits
  0000                00089         extern  _T1CONbits
  0000                00090         extern  _RCONbits
  0000                00091         extern  _WDTCONbits
  0000                00092         extern  _HLVDCONbits
  0000                00093         extern  _LVDCONbits
  0000                00094         extern  _OSCCONbits
  0000                00095         extern  _T0CONbits
  0000                00096         extern  _STATUSbits
  0000                00097         extern  _INTCON3bits
  0000                00098         extern  _INTCON2bits
  0000                00099         extern  _INTCONbits
  0000                00100         extern  _STKPTRbits
  0000                00101         extern  _buffer
  0000                00102         extern  _UFRM
  0000                00103         extern  _UFRML
  0000                00104         extern  _UFRMH
  0000                00105         extern  _UIR
  0000                00106         extern  _UIE
gpasm-1.5.0 #1285 (Jul 12 2020) obj/sdcc-18f2   11/12/23  13:12:39          PAGE  3


LOC    OBJECT CODE    LINE  SOURCE TEXT
  VALUE

  0000                00107         extern  _UEIR
  0000                00108         extern  _UEIE
  0000                00109         extern  _USTAT
  0000                00110         extern  _UCON
  0000                00111         extern  _UADDR
  0000                00112         extern  _UCFG
  0000                00113         extern  _UEP0
  0000                00114         extern  _UEP1
  0000                00115         extern  _UEP2
  0000                00116         extern  _UEP3
  0000                00117         extern  _UEP4
  0000                00118         extern  _UEP5
  0000                00119         extern  _UEP6
  0000                00120         extern  _UEP7
  0000                00121         extern  _UEP8
  0000                00122         extern  _UEP9
  0000                00123         extern  _UEP10
  0000                00124         extern  _UEP11
  0000                00125         extern  _UEP12
  0000                00126         extern  _UEP13
  0000                00127         extern  _UEP14
  0000                00128         extern  _UEP15
  0000                00129         extern  _PORTA
  0000                00130         extern  _PORTB
  0000                00131         extern  _PORTC
  0000                00132         extern  _PORTE
  0000                00133         extern  _LATA
  0000                00134         extern  _LATB
  0000                00135         extern  _LATC
  0000                00136         extern  _DDRA
  0000                00137         extern  _TRISA
  0000                00138         extern  _DDRB
  0000                00139         extern  _TRISB
  0000                00140         extern  _DDRC
  0000                00141         extern  _TRISC
  0000                00142         extern  _OSCTUNE
  0000                00143         extern  _PIE1
  0000                00144         extern  _PIR1
  0000                00145         extern  _IPR1
  0000                00146         extern  _PIE2
  0000                00147         extern  _PIR2
  0000                00148         extern  _IPR2
  0000                00149         extern  _EECON1
  0000                00150         extern  _EECON2
  0000                00151         extern  _EEDATA
  0000                00152         extern  _EEADR
  0000                00153         extern  _RCSTA
  0000                00154         extern  _TXSTA
  0000                00155         extern  _TXREG
  0000                00156         extern  _RCREG
  0000                00157         extern  _SPBRG
  0000                00158         extern  _SPBRGH
  0000                00159         extern  _T3CON
gpasm-1.5.0 #1285 (Jul 12 2020) obj/sdcc-18f2   11/12/23  13:12:39          PAGE  4


LOC    OBJECT CODE    LINE  SOURCE TEXT
  VALUE

  0000                00160         extern  _TMR3
  0000                00161         extern  _TMR3L
  0000                00162         extern  _TMR3H
  0000                00163         extern  _CMCON
  0000                00164         extern  _CVRCON
  0000                00165         extern  _CCP1AS
  0000                00166         extern  _ECCP1AS
  0000                00167         extern  _CCP1DEL
  0000                00168         extern  _ECCP1DEL
  0000                00169         extern  _BAUDCON
  0000                00170         extern  _BAUDCTL
  0000                00171         extern  _CCP2CON
  0000                00172         extern  _CCPR2
  0000                00173         extern  _CCPR2L
  0000                00174         extern  _CCPR2H
  0000                00175         extern  _CCP1CON
  0000                00176         extern  _CCPR1
  0000                00177         extern  _CCPR1L
  0000                00178         extern  _CCPR1H
  0000                00179         extern  _ADCON2
  0000                00180         extern  _ADCON1
  0000                00181         extern  _ADCON0
  0000                00182         extern  _ADRES
  0000                00183         extern  _ADRESL
  0000                00184         extern  _ADRESH
  0000                00185         extern  _SSPCON2
  0000                00186         extern  _SSPCON1
  0000                00187         extern  _SSPSTAT
  0000                00188         extern  _SSPADD
  0000                00189         extern  _SSPBUF
  0000                00190         extern  _T2CON
  0000                00191         extern  _PR2
  0000                00192         extern  _TMR2
  0000                00193         extern  _T1CON
  0000                00194         extern  _TMR1
  0000                00195         extern  _TMR1L
  0000                00196         extern  _TMR1H
  0000                00197         extern  _RCON
  0000                00198         extern  _WDTCON
  0000                00199         extern  _HLVDCON
  0000                00200         extern  _LVDCON
  0000                00201         extern  _OSCCON
  0000                00202         extern  _T0CON
  0000                00203         extern  _TMR0
  0000                00204         extern  _TMR0L
  0000                00205         extern  _TMR0H
  0000                00206         extern  _STATUS
  0000                00207         extern  _FSR2L
  0000                00208         extern  _FSR2H
  0000                00209         extern  _PLUSW2
  0000                00210         extern  _PREINC2
  0000                00211         extern  _POSTDEC2
  0000                00212         extern  _POSTINC2
gpasm-1.5.0 #1285 (Jul 12 2020) obj/sdcc-18f2   11/12/23  13:12:39          PAGE  5


LOC    OBJECT CODE    LINE  SOURCE TEXT
  VALUE

  0000                00213         extern  _INDF2
  0000                00214         extern  _BSR
  0000                00215         extern  _FSR1L
  0000                00216         extern  _FSR1H
  0000                00217         extern  _PLUSW1
  0000                00218         extern  _PREINC1
  0000                00219         extern  _POSTDEC1
  0000                00220         extern  _POSTINC1
  0000                00221         extern  _INDF1
  0000                00222         extern  _WREG
  0000                00223         extern  _FSR0L
  0000                00224         extern  _FSR0H
  0000                00225         extern  _PLUSW0
  0000                00226         extern  _PREINC0
  0000                00227         extern  _POSTDEC0
  0000                00228         extern  _POSTINC0
  0000                00229         extern  _INDF0
  0000                00230         extern  _INTCON3
  0000                00231         extern  _INTCON2
  0000                00232         extern  _INTCON
  0000                00233         extern  _PROD
  0000                00234         extern  _PRODL
  0000                00235         extern  _PRODH
  0000                00236         extern  _TABLAT
  0000                00237         extern  _TBLPTR
  0000                00238         extern  _TBLPTRL
  0000                00239         extern  _TBLPTRH
  0000                00240         extern  _TBLPTRU
  0000                00241         extern  _PC
  0000                00242         extern  _PCL
  0000                00243         extern  _PCLATH
  0000                00244         extern  _PCLATU
  0000                00245         extern  _STKPTR
  0000                00246         extern  _TOS
  0000                00247         extern  _TOSL
  0000                00248         extern  _TOSH
  0000                00249         extern  _TOSU
  0000                00250         extern  _buffer_putch
  0000                00251         extern  _log10f
  0000                00252         extern  _floorf
  0000                00253         extern  _powf
  0000                00254         extern  __moduint
  0000                00255         extern  __divuint
  0000                00256         extern  ___fs2sint
  0000                00257         extern  ___fslt
  0000                00258         extern  ___sint2fs
  0000                00259         extern  ___fsdiv
  0000                00260         extern  ___fs2uchar
  0000                00261         extern  ___uchar2fs
  0000                00262         extern  ___fsmul
  0000                00263         extern  ___fssub
                      00264 
                      00265 ;--------------------------------------------------------
gpasm-1.5.0 #1285 (Jul 12 2020) obj/sdcc-18f2   11/12/23  13:12:39          PAGE  6


LOC    OBJECT CODE    LINE  SOURCE TEXT
  VALUE

                      00266 ;       Equates to used internal registers
                      00267 ;--------------------------------------------------------
  00000FD8            00268 STATUS  equ     0xfd8
  00000FF9            00269 PCL     equ     0xff9
  00000FFA            00270 PCLATH  equ     0xffa
  00000FFB            00271 PCLATU  equ     0xffb
  00000FF2            00272 INTCON  equ     0xff2
  00000FFD            00273 TOSL    equ     0xffd
  00000FFE            00274 TOSH    equ     0xffe
  00000FFF            00275 TOSU    equ     0xfff
  00000FE9            00276 FSR0L   equ     0xfe9
  00000FEA            00277 FSR0H   equ     0xfea
  00000FE1            00278 FSR1L   equ     0xfe1
  00000FD9            00279 FSR2L   equ     0xfd9
  00000FEF            00280 INDF0   equ     0xfef
  00000FE6            00281 POSTINC1        equ     0xfe6
  00000FE5            00282 POSTDEC1        equ     0xfe5
  00000FE4            00283 PREINC1 equ     0xfe4
  00000FDB            00284 PLUSW2  equ     0xfdb
  00000FF3            00285 PRODL   equ     0xff3
  00000FF4            00286 PRODH   equ     0xff4
                      00287 
                      00288 
                      00289 ; Internal registers
                      00290 .registers      udata_ovr       0x0000
000000                00291 r0x00   res     1
000001                00292 r0x01   res     1
000002                00293 r0x02   res     1
000003                00294 r0x03   res     1
000004                00295 r0x04   res     1
000005                00296 r0x05   res     1
000006                00297 r0x06   res     1
000007                00298 r0x07   res     1
000008                00299 r0x08   res     1
000009                00300 r0x09   res     1
00000A                00301 r0x0a   res     1
00000B                00302 r0x0b   res     1
00000C                00303 r0x0c   res     1
00000D                00304 r0x0d   res     1
00000E                00305 r0x0e   res     1
00000F                00306 r0x0f   res     1
000010                00307 r0x10   res     1
000011                00308 r0x11   res     1
000012                00309 r0x12   res     1
                      00310 
                      00311 udata_format_0  udata
000000                00312 _format_number_buf_65536_39     res     32
                      00313 
                      00314 ;--------------------------------------------------------
                      00315 ; global & static initialisations
                      00316 ;--------------------------------------------------------
                      00317 ; I code from now on!
                      00318 ; ; Starting pCode block
gpasm-1.5.0 #1285 (Jul 12 2020) obj/sdcc-18f2   11/12/23  13:12:39          PAGE  7


LOC    OBJECT CODE    LINE  SOURCE TEXT
  VALUE

                      00319 S_format__format_double code
000000                00320 _format_double:
                      00321 ;       .line   87; lib/format.c        format_double(putch_t fn, double num) {
000000 CFD9 FFE5      00322         MOVFF   FSR2L, POSTDEC1
000004 CFE1 FFD9      00323         MOVFF   FSR1L, FSR2L
000008 C??? F???      00324         MOVFF   r0x00, POSTDEC1
00000C C??? F???      00325         MOVFF   r0x01, POSTDEC1
000010 C??? F???      00326         MOVFF   r0x02, POSTDEC1
000014 C??? F???      00327         MOVFF   r0x03, POSTDEC1
000018 C??? F???      00328         MOVFF   r0x04, POSTDEC1
00001C C??? F???      00329         MOVFF   r0x05, POSTDEC1
000020 C??? F???      00330         MOVFF   r0x06, POSTDEC1
000024 C??? F???      00331         MOVFF   r0x07, POSTDEC1
000028 C??? F???      00332         MOVFF   r0x08, POSTDEC1
00002C C??? F???      00333         MOVFF   r0x09, POSTDEC1
000030 C??? F???      00334         MOVFF   r0x0a, POSTDEC1
000034 C??? F???      00335         MOVFF   r0x0b, POSTDEC1
000038 C??? F???      00336         MOVFF   r0x0c, POSTDEC1
00003C C??? F???      00337         MOVFF   r0x0d, POSTDEC1
000040 C??? F???      00338         MOVFF   r0x0e, POSTDEC1
000044 C??? F???      00339         MOVFF   r0x0f, POSTDEC1
000048 C??? F???      00340         MOVFF   r0x10, POSTDEC1
00004C C??? F???      00341         MOVFF   r0x11, POSTDEC1
000050 C??? F???      00342         MOVFF   r0x12, POSTDEC1
000054 0E02           00343         MOVLW   0x02
000056 CFDB F000      00344         MOVFF   PLUSW2, r0x00
00005A 0E03           00345         MOVLW   0x03
00005C CFDB F000      00346         MOVFF   PLUSW2, r0x01
000060 0E04           00347         MOVLW   0x04
000062 CFDB F000      00348         MOVFF   PLUSW2, r0x02
000066 0E05           00349         MOVLW   0x05
000068 CFDB F000      00350         MOVFF   PLUSW2, r0x03
00006C 0E06           00351         MOVLW   0x06
00006E CFDB F000      00352         MOVFF   PLUSW2, r0x04
000072 0E07           00353         MOVLW   0x07
000074 CFDB F000      00354         MOVFF   PLUSW2, r0x05
000078 0E08           00355         MOVLW   0x08
00007A CFDB F000      00356         MOVFF   PLUSW2, r0x06
                      00357 ;       .line   88; lib/format.c        short m = (short)log10f(num);
00007E 50??           00358         MOVF    r0x06, W
000080 6EE5           00359         MOVWF   POSTDEC1
000082 50??           00360         MOVF    r0x05, W
000084 6EE5           00361         MOVWF   POSTDEC1
000086 50??           00362         MOVF    r0x04, W
000088 6EE5           00363         MOVWF   POSTDEC1
00008A 50??           00364         MOVF    r0x03, W
00008C 6EE5           00365         MOVWF   POSTDEC1
00008E EC?? F0??      00366         CALL    _log10f
000092 6E??           00367         MOVWF   r0x07
000094 CFF3 F000      00368         MOVFF   PRODL, r0x08
000098 CFF4 F000      00369         MOVFF   PRODH, r0x09
00009C CFE9 F000      00370         MOVFF   FSR0L, r0x0a
0000A0 0E04           00371         MOVLW   0x04
gpasm-1.5.0 #1285 (Jul 12 2020) obj/sdcc-18f2   11/12/23  13:12:39          PAGE  8


LOC    OBJECT CODE    LINE  SOURCE TEXT
  VALUE

0000A2 26E1           00372         ADDWF   FSR1L, F
0000A4 50??           00373         MOVF    r0x0a, W
0000A6 6EE5           00374         MOVWF   POSTDEC1
0000A8 50??           00375         MOVF    r0x09, W
0000AA 6EE5           00376         MOVWF   POSTDEC1
0000AC 50??           00377         MOVF    r0x08, W
0000AE 6EE5           00378         MOVWF   POSTDEC1
0000B0 50??           00379         MOVF    r0x07, W
0000B2 6EE5           00380         MOVWF   POSTDEC1
0000B4 EC?? F0??      00381         CALL    ___fs2sint
0000B8 6E??           00382         MOVWF   r0x07
0000BA CFF3 F000      00383         MOVFF   PRODL, r0x08
0000BE 0E04           00384         MOVLW   0x04
0000C0 26E1           00385         ADDWF   FSR1L, F
0000C2                00386 _00205_DS_:
                      00387 ;       .line   92; lib/format.c        while(num > 0 + DBL_EPSILON) {
0000C2 50??           00388         MOVF    r0x06, W
0000C4 6EE5           00389         MOVWF   POSTDEC1
0000C6 50??           00390         MOVF    r0x05, W
0000C8 6EE5           00391         MOVWF   POSTDEC1
0000CA 50??           00392         MOVF    r0x04, W
0000CC 6EE5           00393         MOVWF   POSTDEC1
0000CE 50??           00394         MOVF    r0x03, W
0000D0 6EE5           00395         MOVWF   POSTDEC1
0000D2 0E34           00396         MOVLW   0x34
0000D4 6EE5           00397         MOVWF   POSTDEC1
0000D6 0E00           00398         MOVLW   0x00
0000D8 6EE5           00399         MOVWF   POSTDEC1
0000DA 0E00           00400         MOVLW   0x00
0000DC 6EE5           00401         MOVWF   POSTDEC1
0000DE 0E00           00402         MOVLW   0x00
0000E0 6EE5           00403         MOVWF   POSTDEC1
0000E2 EC?? F0??      00404         CALL    ___fslt
0000E6 6E??           00405         MOVWF   r0x09
0000E8 0E08           00406         MOVLW   0x08
0000EA 26E1           00407         ADDWF   FSR1L, F
0000EC 50??           00408         MOVF    r0x09, W
0000EE B4D8           00409         BTFSC   STATUS, 2
0000F0 D???           00410         BRA     _00208_DS_
                      00411 ;       .line   93; lib/format.c        double weight = pow(10.0l, m);
0000F2 50??           00412         MOVF    r0x08, W
0000F4 6EE5           00413         MOVWF   POSTDEC1
0000F6 50??           00414         MOVF    r0x07, W
0000F8 6EE5           00415         MOVWF   POSTDEC1
0000FA EC?? F0??      00416         CALL    ___sint2fs
0000FE 6E??           00417         MOVWF   r0x09
000100 CFF3 F000      00418         MOVFF   PRODL, r0x0a
000104 CFF4 F000      00419         MOVFF   PRODH, r0x0b
000108 CFE9 F000      00420         MOVFF   FSR0L, r0x0c
00010C 52E6           00421         MOVF    POSTINC1, F
00010E 52E6           00422         MOVF    POSTINC1, F
000110 50??           00423         MOVF    r0x0c, W
000112 6EE5           00424         MOVWF   POSTDEC1
gpasm-1.5.0 #1285 (Jul 12 2020) obj/sdcc-18f2   11/12/23  13:12:39          PAGE  9


LOC    OBJECT CODE    LINE  SOURCE TEXT
  VALUE

000114 50??           00425         MOVF    r0x0b, W
000116 6EE5           00426         MOVWF   POSTDEC1
000118 50??           00427         MOVF    r0x0a, W
00011A 6EE5           00428         MOVWF   POSTDEC1
00011C 50??           00429         MOVF    r0x09, W
00011E 6EE5           00430         MOVWF   POSTDEC1
000120 0E41           00431         MOVLW   0x41
000122 6EE5           00432         MOVWF   POSTDEC1
000124 0E20           00433         MOVLW   0x20
000126 6EE5           00434         MOVWF   POSTDEC1
000128 0E00           00435         MOVLW   0x00
00012A 6EE5           00436         MOVWF   POSTDEC1
00012C 0E00           00437         MOVLW   0x00
00012E 6EE5           00438         MOVWF   POSTDEC1
000130 EC?? F0??      00439         CALL    _powf
000134 6E??           00440         MOVWF   r0x09
000136 CFF3 F000      00441         MOVFF   PRODL, r0x0a
00013A CFF4 F000      00442         MOVFF   PRODH, r0x0b
00013E CFE9 F000      00443         MOVFF   FSR0L, r0x0c
000142 0E08           00444         MOVLW   0x08
000144 26E1           00445         ADDWF   FSR1L, F
                      00446 ;       .line   94; lib/format.c        digit = (short)floor(num / weight);
000146 50??           00447         MOVF    r0x0c, W
000148 6EE5           00448         MOVWF   POSTDEC1
00014A 50??           00449         MOVF    r0x0b, W
00014C 6EE5           00450         MOVWF   POSTDEC1
00014E 50??           00451         MOVF    r0x0a, W
000150 6EE5           00452         MOVWF   POSTDEC1
000152 50??           00453         MOVF    r0x09, W
000154 6EE5           00454         MOVWF   POSTDEC1
000156 50??           00455         MOVF    r0x06, W
000158 6EE5           00456         MOVWF   POSTDEC1
00015A 50??           00457         MOVF    r0x05, W
00015C 6EE5           00458         MOVWF   POSTDEC1
00015E 50??           00459         MOVF    r0x04, W
000160 6EE5           00460         MOVWF   POSTDEC1
000162 50??           00461         MOVF    r0x03, W
000164 6EE5           00462         MOVWF   POSTDEC1
000166 EC?? F0??      00463         CALL    ___fsdiv
00016A 6E??           00464         MOVWF   r0x0d
00016C CFF3 F000      00465         MOVFF   PRODL, r0x0e
000170 CFF4 F000      00466         MOVFF   PRODH, r0x0f
000174 CFE9 F000      00467         MOVFF   FSR0L, r0x10
000178 0E08           00468         MOVLW   0x08
00017A 26E1           00469         ADDWF   FSR1L, F
00017C 50??           00470         MOVF    r0x10, W
00017E 6EE5           00471         MOVWF   POSTDEC1
000180 50??           00472         MOVF    r0x0f, W
000182 6EE5           00473         MOVWF   POSTDEC1
000184 50??           00474         MOVF    r0x0e, W
000186 6EE5           00475         MOVWF   POSTDEC1
000188 50??           00476         MOVF    r0x0d, W
00018A 6EE5           00477         MOVWF   POSTDEC1
gpasm-1.5.0 #1285 (Jul 12 2020) obj/sdcc-18f2   11/12/23  13:12:39          PAGE 10


LOC    OBJECT CODE    LINE  SOURCE TEXT
  VALUE

00018C EC?? F0??      00478         CALL    _floorf
000190 6E??           00479         MOVWF   r0x0d
000192 CFF3 F000      00480         MOVFF   PRODL, r0x0e
000196 CFF4 F000      00481         MOVFF   PRODH, r0x0f
00019A CFE9 F000      00482         MOVFF   FSR0L, r0x10
00019E 0E04           00483         MOVLW   0x04
0001A0 26E1           00484         ADDWF   FSR1L, F
0001A2 50??           00485         MOVF    r0x10, W
0001A4 6EE5           00486         MOVWF   POSTDEC1
0001A6 50??           00487         MOVF    r0x0f, W
0001A8 6EE5           00488         MOVWF   POSTDEC1
0001AA 50??           00489         MOVF    r0x0e, W
0001AC 6EE5           00490         MOVWF   POSTDEC1
0001AE 50??           00491         MOVF    r0x0d, W
0001B0 6EE5           00492         MOVWF   POSTDEC1
0001B2 EC?? F0??      00493         CALL    ___fs2sint
0001B6 6E??           00494         MOVWF   r0x0d
0001B8 CFF3 F000      00495         MOVFF   PRODL, r0x0e
0001BC 0E04           00496         MOVLW   0x04
0001BE 26E1           00497         ADDWF   FSR1L, F
                      00498 ;       .line   95; lib/format.c        num -= (digit * weight);
0001C0 50??           00499         MOVF    r0x0e, W
0001C2 6EE5           00500         MOVWF   POSTDEC1
0001C4 50??           00501         MOVF    r0x0d, W
0001C6 6EE5           00502         MOVWF   POSTDEC1
0001C8 EC?? F0??      00503         CALL    ___sint2fs
0001CC 6E??           00504         MOVWF   r0x0f
0001CE CFF3 F000      00505         MOVFF   PRODL, r0x10
0001D2 CFF4 F000      00506         MOVFF   PRODH, r0x11
0001D6 CFE9 F000      00507         MOVFF   FSR0L, r0x12
0001DA 52E6           00508         MOVF    POSTINC1, F
0001DC 52E6           00509         MOVF    POSTINC1, F
0001DE 50??           00510         MOVF    r0x0c, W
0001E0 6EE5           00511         MOVWF   POSTDEC1
0001E2 50??           00512         MOVF    r0x0b, W
0001E4 6EE5           00513         MOVWF   POSTDEC1
0001E6 50??           00514         MOVF    r0x0a, W
0001E8 6EE5           00515         MOVWF   POSTDEC1
0001EA 50??           00516         MOVF    r0x09, W
0001EC 6EE5           00517         MOVWF   POSTDEC1
0001EE 50??           00518         MOVF    r0x12, W
0001F0 6EE5           00519         MOVWF   POSTDEC1
0001F2 50??           00520         MOVF    r0x11, W
0001F4 6EE5           00521         MOVWF   POSTDEC1
0001F6 50??           00522         MOVF    r0x10, W
0001F8 6EE5           00523         MOVWF   POSTDEC1
0001FA 50??           00524         MOVF    r0x0f, W
0001FC 6EE5           00525         MOVWF   POSTDEC1
0001FE EC?? F0??      00526         CALL    ___fsmul
000202 6E??           00527         MOVWF   r0x09
000204 CFF3 F000      00528         MOVFF   PRODL, r0x0a
000208 CFF4 F000      00529         MOVFF   PRODH, r0x0b
00020C CFE9 F000      00530         MOVFF   FSR0L, r0x0c
gpasm-1.5.0 #1285 (Jul 12 2020) obj/sdcc-18f2   11/12/23  13:12:39          PAGE 11


LOC    OBJECT CODE    LINE  SOURCE TEXT
  VALUE

000210 0E08           00531         MOVLW   0x08
000212 26E1           00532         ADDWF   FSR1L, F
000214 50??           00533         MOVF    r0x0c, W
000216 6EE5           00534         MOVWF   POSTDEC1
000218 50??           00535         MOVF    r0x0b, W
00021A 6EE5           00536         MOVWF   POSTDEC1
00021C 50??           00537         MOVF    r0x0a, W
00021E 6EE5           00538         MOVWF   POSTDEC1
000220 50??           00539         MOVF    r0x09, W
000222 6EE5           00540         MOVWF   POSTDEC1
000224 50??           00541         MOVF    r0x06, W
000226 6EE5           00542         MOVWF   POSTDEC1
000228 50??           00543         MOVF    r0x05, W
00022A 6EE5           00544         MOVWF   POSTDEC1
00022C 50??           00545         MOVF    r0x04, W
00022E 6EE5           00546         MOVWF   POSTDEC1
000230 50??           00547         MOVF    r0x03, W
000232 6EE5           00548         MOVWF   POSTDEC1
000234 EC?? F0??      00549         CALL    ___fssub
000238 6E??           00550         MOVWF   r0x03
00023A CFF3 F000      00551         MOVFF   PRODL, r0x04
00023E CFF4 F000      00552         MOVFF   PRODH, r0x05
000242 CFE9 F000      00553         MOVFF   FSR0L, r0x06
000246 0E08           00554         MOVLW   0x08
000248 26E1           00555         ADDWF   FSR1L, F
                      00556 ;       .line   96; lib/format.c        fn((char)('0' + digit));
00024A 0E30           00557         MOVLW   0x30
00024C 26??           00558         ADDWF   r0x0d, F
00024E 50??           00559         MOVF    r0x0d, W
000250 6EE5           00560         MOVWF   POSTDEC1
000252 CFF2 FFE5      00561         MOVFF   INTCON, POSTDEC1
000256 9EF2           00562         BCF     INTCON, 7
000258 0005           00563         PUSH    
00025A 0E??           00564         MOVLW   LOW(_00223_DS_)
00025C 6EFD           00565         MOVWF   TOSL
00025E 0E??           00566         MOVLW   HIGH(_00223_DS_)
000260 6EFE           00567         MOVWF   TOSH
000262 0E??           00568         MOVLW   UPPER(_00223_DS_)
000264 6EFF           00569         MOVWF   TOSU
000266 BEE4           00570         BTFSC   PREINC1, 7
000268 8EF2           00571         BSF     INTCON, 7
00026A C??? F???      00572         MOVFF   r0x02, PCLATU
00026E C??? F???      00573         MOVFF   r0x01, PCLATH
000272 50??           00574         MOVF    r0x00, W
000274 6EF9           00575         MOVWF   PCL
000276                00576 _00223_DS_:
000276 52E6           00577         MOVF    POSTINC1, F
                      00578 ;       .line   97; lib/format.c        if(m == 0)
000278 50??           00579         MOVF    r0x07, W
00027A 10??           00580         IORWF   r0x08, W
00027C E1??           00581         BNZ     _00204_DS_
                      00582 ;       .line   98; lib/format.c        fn('.');
00027E 0E2E           00583         MOVLW   0x2e
gpasm-1.5.0 #1285 (Jul 12 2020) obj/sdcc-18f2   11/12/23  13:12:39          PAGE 12


LOC    OBJECT CODE    LINE  SOURCE TEXT
  VALUE

000280 6EE5           00584         MOVWF   POSTDEC1
000282 CFF2 FFE5      00585         MOVFF   INTCON, POSTDEC1
000286 9EF2           00586         BCF     INTCON, 7
000288 0005           00587         PUSH    
00028A 0E??           00588         MOVLW   LOW(_00224_DS_)
00028C 6EFD           00589         MOVWF   TOSL
00028E 0E??           00590         MOVLW   HIGH(_00224_DS_)
000290 6EFE           00591         MOVWF   TOSH
000292 0E??           00592         MOVLW   UPPER(_00224_DS_)
000294 6EFF           00593         MOVWF   TOSU
000296 BEE4           00594         BTFSC   PREINC1, 7
000298 8EF2           00595         BSF     INTCON, 7
00029A C??? F???      00596         MOVFF   r0x02, PCLATU
00029E C??? F???      00597         MOVFF   r0x01, PCLATH
0002A2 50??           00598         MOVF    r0x00, W
0002A4 6EF9           00599         MOVWF   PCL
0002A6                00600 _00224_DS_:
0002A6 52E6           00601         MOVF    POSTINC1, F
0002A8                00602 _00204_DS_:
                      00603 ;       .line   99; lib/format.c        m--;
0002A8 0EFF           00604         MOVLW   0xff
0002AA 26??           00605         ADDWF   r0x07, F
0002AC 22??           00606         ADDWFC  r0x08, F
0002AE D???           00607         BRA     _00205_DS_
0002B0                00608 _00208_DS_:
                      00609 ;       .line   101; lib/format.c       }
0002B0 CFE4 F000      00610         MOVFF   PREINC1, r0x12
0002B4 CFE4 F000      00611         MOVFF   PREINC1, r0x11
0002B8 CFE4 F000      00612         MOVFF   PREINC1, r0x10
0002BC CFE4 F000      00613         MOVFF   PREINC1, r0x0f
0002C0 CFE4 F000      00614         MOVFF   PREINC1, r0x0e
0002C4 CFE4 F000      00615         MOVFF   PREINC1, r0x0d
0002C8 CFE4 F000      00616         MOVFF   PREINC1, r0x0c
0002CC CFE4 F000      00617         MOVFF   PREINC1, r0x0b
0002D0 CFE4 F000      00618         MOVFF   PREINC1, r0x0a
0002D4 CFE4 F000      00619         MOVFF   PREINC1, r0x09
0002D8 CFE4 F000      00620         MOVFF   PREINC1, r0x08
0002DC CFE4 F000      00621         MOVFF   PREINC1, r0x07
0002E0 CFE4 F000      00622         MOVFF   PREINC1, r0x06
0002E4 CFE4 F000      00623         MOVFF   PREINC1, r0x05
0002E8 CFE4 F000      00624         MOVFF   PREINC1, r0x04
0002EC CFE4 F000      00625         MOVFF   PREINC1, r0x03
0002F0 CFE4 F000      00626         MOVFF   PREINC1, r0x02
0002F4 CFE4 F000      00627         MOVFF   PREINC1, r0x01
0002F8 CFE4 F000      00628         MOVFF   PREINC1, r0x00
0002FC CFE4 FFD9      00629         MOVFF   PREINC1, FSR2L
000300 0012           00630         RETURN  
                      00631 
                      00632 ; ; Starting pCode block
                      00633 S_format__format_float  code
000000                00634 _format_float:
                      00635 ;       .line   68; lib/format.c        format_float(putch_t fn, float num) {
000000 CFD9 FFE5      00636         MOVFF   FSR2L, POSTDEC1
gpasm-1.5.0 #1285 (Jul 12 2020) obj/sdcc-18f2   11/12/23  13:12:39          PAGE 13


LOC    OBJECT CODE    LINE  SOURCE TEXT
  VALUE

000004 CFE1 FFD9      00637         MOVFF   FSR1L, FSR2L
000008 C??? F???      00638         MOVFF   r0x00, POSTDEC1
00000C C??? F???      00639         MOVFF   r0x01, POSTDEC1
000010 C??? F???      00640         MOVFF   r0x02, POSTDEC1
000014 C??? F???      00641         MOVFF   r0x03, POSTDEC1
000018 C??? F???      00642         MOVFF   r0x04, POSTDEC1
00001C C??? F???      00643         MOVFF   r0x05, POSTDEC1
000020 C??? F???      00644         MOVFF   r0x06, POSTDEC1
000024 C??? F???      00645         MOVFF   r0x07, POSTDEC1
000028 C??? F???      00646         MOVFF   r0x08, POSTDEC1
00002C C??? F???      00647         MOVFF   r0x09, POSTDEC1
000030 C??? F???      00648         MOVFF   r0x0a, POSTDEC1
000034 C??? F???      00649         MOVFF   r0x0b, POSTDEC1
000038 C??? F???      00650         MOVFF   r0x0c, POSTDEC1
00003C C??? F???      00651         MOVFF   r0x0d, POSTDEC1
000040 C??? F???      00652         MOVFF   r0x0e, POSTDEC1
000044 C??? F???      00653         MOVFF   r0x0f, POSTDEC1
000048 C??? F???      00654         MOVFF   r0x10, POSTDEC1
00004C C??? F???      00655         MOVFF   r0x11, POSTDEC1
000050 0E02           00656         MOVLW   0x02
000052 CFDB F000      00657         MOVFF   PLUSW2, r0x00
000056 0E03           00658         MOVLW   0x03
000058 CFDB F000      00659         MOVFF   PLUSW2, r0x01
00005C 0E04           00660         MOVLW   0x04
00005E CFDB F000      00661         MOVFF   PLUSW2, r0x02
000062 0E05           00662         MOVLW   0x05
000064 CFDB F000      00663         MOVFF   PLUSW2, r0x03
000068 0E06           00664         MOVLW   0x06
00006A CFDB F000      00665         MOVFF   PLUSW2, r0x04
00006E 0E07           00666         MOVLW   0x07
000070 CFDB F000      00667         MOVFF   PLUSW2, r0x05
000074 0E08           00668         MOVLW   0x08
000076 CFDB F000      00669         MOVFF   PLUSW2, r0x06
                      00670 ;       .line   69; lib/format.c        short m = (int)log10f(num);
00007A 50??           00671         MOVF    r0x06, W
00007C 6EE5           00672         MOVWF   POSTDEC1
00007E 50??           00673         MOVF    r0x05, W
000080 6EE5           00674         MOVWF   POSTDEC1
000082 50??           00675         MOVF    r0x04, W
000084 6EE5           00676         MOVWF   POSTDEC1
000086 50??           00677         MOVF    r0x03, W
000088 6EE5           00678         MOVWF   POSTDEC1
00008A EC?? F0??      00679         CALL    _log10f
00008E 6E??           00680         MOVWF   r0x07
000090 CFF3 F000      00681         MOVFF   PRODL, r0x08
000094 CFF4 F000      00682         MOVFF   PRODH, r0x09
000098 CFE9 F000      00683         MOVFF   FSR0L, r0x0a
00009C 0E04           00684         MOVLW   0x04
00009E 26E1           00685         ADDWF   FSR1L, F
0000A0 50??           00686         MOVF    r0x0a, W
0000A2 6EE5           00687         MOVWF   POSTDEC1
0000A4 50??           00688         MOVF    r0x09, W
0000A6 6EE5           00689         MOVWF   POSTDEC1
gpasm-1.5.0 #1285 (Jul 12 2020) obj/sdcc-18f2   11/12/23  13:12:39          PAGE 14


LOC    OBJECT CODE    LINE  SOURCE TEXT
  VALUE

0000A8 50??           00690         MOVF    r0x08, W
0000AA 6EE5           00691         MOVWF   POSTDEC1
0000AC 50??           00692         MOVF    r0x07, W
0000AE 6EE5           00693         MOVWF   POSTDEC1
0000B0 EC?? F0??      00694         CALL    ___fs2sint
0000B4 6E??           00695         MOVWF   r0x07
0000B6 CFF3 F000      00696         MOVFF   PRODL, r0x08
0000BA 0E04           00697         MOVLW   0x04
0000BC 26E1           00698         ADDWF   FSR1L, F
0000BE                00699 _00179_DS_:
                      00700 ;       .line   73; lib/format.c        while(num > 0 + FLT_EPSILON) {
0000BE 50??           00701         MOVF    r0x06, W
0000C0 6EE5           00702         MOVWF   POSTDEC1
0000C2 50??           00703         MOVF    r0x05, W
0000C4 6EE5           00704         MOVWF   POSTDEC1
0000C6 50??           00705         MOVF    r0x04, W
0000C8 6EE5           00706         MOVWF   POSTDEC1
0000CA 50??           00707         MOVF    r0x03, W
0000CC 6EE5           00708         MOVWF   POSTDEC1
0000CE 0E34           00709         MOVLW   0x34
0000D0 6EE5           00710         MOVWF   POSTDEC1
0000D2 0E00           00711         MOVLW   0x00
0000D4 6EE5           00712         MOVWF   POSTDEC1
0000D6 0E00           00713         MOVLW   0x00
0000D8 6EE5           00714         MOVWF   POSTDEC1
0000DA 0E00           00715         MOVLW   0x00
0000DC 6EE5           00716         MOVWF   POSTDEC1
0000DE EC?? F0??      00717         CALL    ___fslt
0000E2 6E??           00718         MOVWF   r0x09
0000E4 0E08           00719         MOVLW   0x08
0000E6 26E1           00720         ADDWF   FSR1L, F
0000E8 50??           00721         MOVF    r0x09, W
0000EA B4D8           00722         BTFSC   STATUS, 2
0000EC D???           00723         BRA     _00182_DS_
                      00724 ;       .line   74; lib/format.c        float weight = pow(10.0l, m);
0000EE 50??           00725         MOVF    r0x08, W
0000F0 6EE5           00726         MOVWF   POSTDEC1
0000F2 50??           00727         MOVF    r0x07, W
0000F4 6EE5           00728         MOVWF   POSTDEC1
0000F6 EC?? F0??      00729         CALL    ___sint2fs
0000FA 6E??           00730         MOVWF   r0x09
0000FC CFF3 F000      00731         MOVFF   PRODL, r0x0a
000100 CFF4 F000      00732         MOVFF   PRODH, r0x0b
000104 CFE9 F000      00733         MOVFF   FSR0L, r0x0c
000108 52E6           00734         MOVF    POSTINC1, F
00010A 52E6           00735         MOVF    POSTINC1, F
00010C 50??           00736         MOVF    r0x0c, W
00010E 6EE5           00737         MOVWF   POSTDEC1
000110 50??           00738         MOVF    r0x0b, W
000112 6EE5           00739         MOVWF   POSTDEC1
000114 50??           00740         MOVF    r0x0a, W
000116 6EE5           00741         MOVWF   POSTDEC1
000118 50??           00742         MOVF    r0x09, W
gpasm-1.5.0 #1285 (Jul 12 2020) obj/sdcc-18f2   11/12/23  13:12:39          PAGE 15


LOC    OBJECT CODE    LINE  SOURCE TEXT
  VALUE

00011A 6EE5           00743         MOVWF   POSTDEC1
00011C 0E41           00744         MOVLW   0x41
00011E 6EE5           00745         MOVWF   POSTDEC1
000120 0E20           00746         MOVLW   0x20
000122 6EE5           00747         MOVWF   POSTDEC1
000124 0E00           00748         MOVLW   0x00
000126 6EE5           00749         MOVWF   POSTDEC1
000128 0E00           00750         MOVLW   0x00
00012A 6EE5           00751         MOVWF   POSTDEC1
00012C EC?? F0??      00752         CALL    _powf
000130 6E??           00753         MOVWF   r0x09
000132 CFF3 F000      00754         MOVFF   PRODL, r0x0a
000136 CFF4 F000      00755         MOVFF   PRODH, r0x0b
00013A CFE9 F000      00756         MOVFF   FSR0L, r0x0c
00013E 0E08           00757         MOVLW   0x08
000140 26E1           00758         ADDWF   FSR1L, F
                      00759 ;       .line   75; lib/format.c        digit = (char)floor(num / weight);
000142 50??           00760         MOVF    r0x0c, W
000144 6EE5           00761         MOVWF   POSTDEC1
000146 50??           00762         MOVF    r0x0b, W
000148 6EE5           00763         MOVWF   POSTDEC1
00014A 50??           00764         MOVF    r0x0a, W
00014C 6EE5           00765         MOVWF   POSTDEC1
00014E 50??           00766         MOVF    r0x09, W
000150 6EE5           00767         MOVWF   POSTDEC1
000152 50??           00768         MOVF    r0x06, W
000154 6EE5           00769         MOVWF   POSTDEC1
000156 50??           00770         MOVF    r0x05, W
000158 6EE5           00771         MOVWF   POSTDEC1
00015A 50??           00772         MOVF    r0x04, W
00015C 6EE5           00773         MOVWF   POSTDEC1
00015E 50??           00774         MOVF    r0x03, W
000160 6EE5           00775         MOVWF   POSTDEC1
000162 EC?? F0??      00776         CALL    ___fsdiv
000166 6E??           00777         MOVWF   r0x0d
000168 CFF3 F000      00778         MOVFF   PRODL, r0x0e
00016C CFF4 F000      00779         MOVFF   PRODH, r0x0f
000170 CFE9 F000      00780         MOVFF   FSR0L, r0x10
000174 0E08           00781         MOVLW   0x08
000176 26E1           00782         ADDWF   FSR1L, F
000178 50??           00783         MOVF    r0x10, W
00017A 6EE5           00784         MOVWF   POSTDEC1
00017C 50??           00785         MOVF    r0x0f, W
00017E 6EE5           00786         MOVWF   POSTDEC1
000180 50??           00787         MOVF    r0x0e, W
000182 6EE5           00788         MOVWF   POSTDEC1
000184 50??           00789         MOVF    r0x0d, W
000186 6EE5           00790         MOVWF   POSTDEC1
000188 EC?? F0??      00791         CALL    _floorf
00018C 6E??           00792         MOVWF   r0x0d
00018E CFF3 F000      00793         MOVFF   PRODL, r0x0e
000192 CFF4 F000      00794         MOVFF   PRODH, r0x0f
000196 CFE9 F000      00795         MOVFF   FSR0L, r0x10
gpasm-1.5.0 #1285 (Jul 12 2020) obj/sdcc-18f2   11/12/23  13:12:39          PAGE 16


LOC    OBJECT CODE    LINE  SOURCE TEXT
  VALUE

00019A 0E04           00796         MOVLW   0x04
00019C 26E1           00797         ADDWF   FSR1L, F
00019E 50??           00798         MOVF    r0x10, W
0001A0 6EE5           00799         MOVWF   POSTDEC1
0001A2 50??           00800         MOVF    r0x0f, W
0001A4 6EE5           00801         MOVWF   POSTDEC1
0001A6 50??           00802         MOVF    r0x0e, W
0001A8 6EE5           00803         MOVWF   POSTDEC1
0001AA 50??           00804         MOVF    r0x0d, W
0001AC 6EE5           00805         MOVWF   POSTDEC1
0001AE EC?? F0??      00806         CALL    ___fs2uchar
0001B2 6E??           00807         MOVWF   r0x0d
0001B4 0E04           00808         MOVLW   0x04
0001B6 26E1           00809         ADDWF   FSR1L, F
                      00810 ;       .line   76; lib/format.c        num -= (digit * weight);
0001B8 50??           00811         MOVF    r0x0d, W
0001BA 6EE5           00812         MOVWF   POSTDEC1
0001BC EC?? F0??      00813         CALL    ___uchar2fs
0001C0 6E??           00814         MOVWF   r0x0e
0001C2 CFF3 F000      00815         MOVFF   PRODL, r0x0f
0001C6 CFF4 F000      00816         MOVFF   PRODH, r0x10
0001CA CFE9 F000      00817         MOVFF   FSR0L, r0x11
0001CE 52E6           00818         MOVF    POSTINC1, F
0001D0 50??           00819         MOVF    r0x0c, W
0001D2 6EE5           00820         MOVWF   POSTDEC1
0001D4 50??           00821         MOVF    r0x0b, W
0001D6 6EE5           00822         MOVWF   POSTDEC1
0001D8 50??           00823         MOVF    r0x0a, W
0001DA 6EE5           00824         MOVWF   POSTDEC1
0001DC 50??           00825         MOVF    r0x09, W
0001DE 6EE5           00826         MOVWF   POSTDEC1
0001E0 50??           00827         MOVF    r0x11, W
0001E2 6EE5           00828         MOVWF   POSTDEC1
0001E4 50??           00829         MOVF    r0x10, W
0001E6 6EE5           00830         MOVWF   POSTDEC1
0001E8 50??           00831         MOVF    r0x0f, W
0001EA 6EE5           00832         MOVWF   POSTDEC1
0001EC 50??           00833         MOVF    r0x0e, W
0001EE 6EE5           00834         MOVWF   POSTDEC1
0001F0 EC?? F0??      00835         CALL    ___fsmul
0001F4 6E??           00836         MOVWF   r0x09
0001F6 CFF3 F000      00837         MOVFF   PRODL, r0x0a
0001FA CFF4 F000      00838         MOVFF   PRODH, r0x0b
0001FE CFE9 F000      00839         MOVFF   FSR0L, r0x0c
000202 0E08           00840         MOVLW   0x08
000204 26E1           00841         ADDWF   FSR1L, F
000206 50??           00842         MOVF    r0x0c, W
000208 6EE5           00843         MOVWF   POSTDEC1
00020A 50??           00844         MOVF    r0x0b, W
00020C 6EE5           00845         MOVWF   POSTDEC1
00020E 50??           00846         MOVF    r0x0a, W
000210 6EE5           00847         MOVWF   POSTDEC1
000212 50??           00848         MOVF    r0x09, W
gpasm-1.5.0 #1285 (Jul 12 2020) obj/sdcc-18f2   11/12/23  13:12:39          PAGE 17


LOC    OBJECT CODE    LINE  SOURCE TEXT
  VALUE

000214 6EE5           00849         MOVWF   POSTDEC1
000216 50??           00850         MOVF    r0x06, W
000218 6EE5           00851         MOVWF   POSTDEC1
00021A 50??           00852         MOVF    r0x05, W
00021C 6EE5           00853         MOVWF   POSTDEC1
00021E 50??           00854         MOVF    r0x04, W
000220 6EE5           00855         MOVWF   POSTDEC1
000222 50??           00856         MOVF    r0x03, W
000224 6EE5           00857         MOVWF   POSTDEC1
000226 EC?? F0??      00858         CALL    ___fssub
00022A 6E??           00859         MOVWF   r0x03
00022C CFF3 F000      00860         MOVFF   PRODL, r0x04
000230 CFF4 F000      00861         MOVFF   PRODH, r0x05
000234 CFE9 F000      00862         MOVFF   FSR0L, r0x06
000238 0E08           00863         MOVLW   0x08
00023A 26E1           00864         ADDWF   FSR1L, F
                      00865 ;       .line   77; lib/format.c        fn('0' + digit);
00023C 0E30           00866         MOVLW   0x30
00023E 26??           00867         ADDWF   r0x0d, F
000240 50??           00868         MOVF    r0x0d, W
000242 6EE5           00869         MOVWF   POSTDEC1
000244 CFF2 FFE5      00870         MOVFF   INTCON, POSTDEC1
000248 9EF2           00871         BCF     INTCON, 7
00024A 0005           00872         PUSH    
00024C 0E??           00873         MOVLW   LOW(_00197_DS_)
00024E 6EFD           00874         MOVWF   TOSL
000250 0E??           00875         MOVLW   HIGH(_00197_DS_)
000252 6EFE           00876         MOVWF   TOSH
000254 0E??           00877         MOVLW   UPPER(_00197_DS_)
000256 6EFF           00878         MOVWF   TOSU
000258 BEE4           00879         BTFSC   PREINC1, 7
00025A 8EF2           00880         BSF     INTCON, 7
00025C C??? F???      00881         MOVFF   r0x02, PCLATU
000260 C??? F???      00882         MOVFF   r0x01, PCLATH
000264 50??           00883         MOVF    r0x00, W
000266 6EF9           00884         MOVWF   PCL
000268                00885 _00197_DS_:
000268 52E6           00886         MOVF    POSTINC1, F
                      00887 ;       .line   78; lib/format.c        if(m == 0)
00026A 50??           00888         MOVF    r0x07, W
00026C 10??           00889         IORWF   r0x08, W
00026E E1??           00890         BNZ     _00178_DS_
                      00891 ;       .line   79; lib/format.c        fn('.');
000270 0E2E           00892         MOVLW   0x2e
000272 6EE5           00893         MOVWF   POSTDEC1
000274 CFF2 FFE5      00894         MOVFF   INTCON, POSTDEC1
000278 9EF2           00895         BCF     INTCON, 7
00027A 0005           00896         PUSH    
00027C 0E??           00897         MOVLW   LOW(_00198_DS_)
00027E 6EFD           00898         MOVWF   TOSL
000280 0E??           00899         MOVLW   HIGH(_00198_DS_)
000282 6EFE           00900         MOVWF   TOSH
000284 0E??           00901         MOVLW   UPPER(_00198_DS_)
gpasm-1.5.0 #1285 (Jul 12 2020) obj/sdcc-18f2   11/12/23  13:12:39          PAGE 18


LOC    OBJECT CODE    LINE  SOURCE TEXT
  VALUE

000286 6EFF           00902         MOVWF   TOSU
000288 BEE4           00903         BTFSC   PREINC1, 7
00028A 8EF2           00904         BSF     INTCON, 7
00028C C??? F???      00905         MOVFF   r0x02, PCLATU
000290 C??? F???      00906         MOVFF   r0x01, PCLATH
000294 50??           00907         MOVF    r0x00, W
000296 6EF9           00908         MOVWF   PCL
000298                00909 _00198_DS_:
000298 52E6           00910         MOVF    POSTINC1, F
00029A                00911 _00178_DS_:
                      00912 ;       .line   80; lib/format.c        m--;
00029A 0EFF           00913         MOVLW   0xff
00029C 26??           00914         ADDWF   r0x07, F
00029E 22??           00915         ADDWFC  r0x08, F
0002A0 D???           00916         BRA     _00179_DS_
0002A2                00917 _00182_DS_:
                      00918 ;       .line   82; lib/format.c        }
0002A2 CFE4 F000      00919         MOVFF   PREINC1, r0x11
0002A6 CFE4 F000      00920         MOVFF   PREINC1, r0x10
0002AA CFE4 F000      00921         MOVFF   PREINC1, r0x0f
0002AE CFE4 F000      00922         MOVFF   PREINC1, r0x0e
0002B2 CFE4 F000      00923         MOVFF   PREINC1, r0x0d
0002B6 CFE4 F000      00924         MOVFF   PREINC1, r0x0c
0002BA CFE4 F000      00925         MOVFF   PREINC1, r0x0b
0002BE CFE4 F000      00926         MOVFF   PREINC1, r0x0a
0002C2 CFE4 F000      00927         MOVFF   PREINC1, r0x09
0002C6 CFE4 F000      00928         MOVFF   PREINC1, r0x08
0002CA CFE4 F000      00929         MOVFF   PREINC1, r0x07
0002CE CFE4 F000      00930         MOVFF   PREINC1, r0x06
0002D2 CFE4 F000      00931         MOVFF   PREINC1, r0x05
0002D6 CFE4 F000      00932         MOVFF   PREINC1, r0x04
0002DA CFE4 F000      00933         MOVFF   PREINC1, r0x03
0002DE CFE4 F000      00934         MOVFF   PREINC1, r0x02
0002E2 CFE4 F000      00935         MOVFF   PREINC1, r0x01
0002E6 CFE4 F000      00936         MOVFF   PREINC1, r0x00
0002EA CFE4 FFD9      00937         MOVFF   PREINC1, FSR2L
0002EE 0012           00938         RETURN  
                      00939 
                      00940 ; ; Starting pCode block
                      00941 S_format__format_xint32 code
000000                00942 _format_xint32:
                      00943 ;       .line   60; lib/format.c        format_xint32(putch_t fn, /*putchar_fn* putchar,*/ uint32_t x) {
000000 CFD9 FFE5      00944         MOVFF   FSR2L, POSTDEC1
000004 CFE1 FFD9      00945         MOVFF   FSR1L, FSR2L
000008 C??? F???      00946         MOVFF   r0x00, POSTDEC1
00000C C??? F???      00947         MOVFF   r0x01, POSTDEC1
000010 C??? F???      00948         MOVFF   r0x02, POSTDEC1
000014 C??? F???      00949         MOVFF   r0x03, POSTDEC1
000018 C??? F???      00950         MOVFF   r0x04, POSTDEC1
00001C C??? F???      00951         MOVFF   r0x05, POSTDEC1
000020 C??? F???      00952         MOVFF   r0x06, POSTDEC1
000024 C??? F???      00953         MOVFF   r0x07, POSTDEC1
000028 C??? F???      00954         MOVFF   r0x08, POSTDEC1
gpasm-1.5.0 #1285 (Jul 12 2020) obj/sdcc-18f2   11/12/23  13:12:39          PAGE 19


LOC    OBJECT CODE    LINE  SOURCE TEXT
  VALUE

00002C C??? F???      00955         MOVFF   r0x09, POSTDEC1
000030 C??? F???      00956         MOVFF   r0x0a, POSTDEC1
000034 0E02           00957         MOVLW   0x02
000036 CFDB F000      00958         MOVFF   PLUSW2, r0x00
00003A 0E03           00959         MOVLW   0x03
00003C CFDB F000      00960         MOVFF   PLUSW2, r0x01
000040 0E04           00961         MOVLW   0x04
000042 CFDB F000      00962         MOVFF   PLUSW2, r0x02
000046 0E05           00963         MOVLW   0x05
000048 CFDB F000      00964         MOVFF   PLUSW2, r0x03
00004C 0E06           00965         MOVLW   0x06
00004E CFDB F000      00966         MOVFF   PLUSW2, r0x04
000052 0E07           00967         MOVLW   0x07
000054 CFDB F000      00968         MOVFF   PLUSW2, r0x05
000058 0E08           00969         MOVLW   0x08
00005A CFDB F000      00970         MOVFF   PLUSW2, r0x06
                      00971 ;       .line   61; lib/format.c        fn('0');
00005E 0E30           00972         MOVLW   0x30
000060 6EE5           00973         MOVWF   POSTDEC1
000062 CFF2 FFE5      00974         MOVFF   INTCON, POSTDEC1
000066 9EF2           00975         BCF     INTCON, 7
000068 0005           00976         PUSH    
00006A 0E??           00977         MOVLW   LOW(_00171_DS_)
00006C 6EFD           00978         MOVWF   TOSL
00006E 0E??           00979         MOVLW   HIGH(_00171_DS_)
000070 6EFE           00980         MOVWF   TOSH
000072 0E??           00981         MOVLW   UPPER(_00171_DS_)
000074 6EFF           00982         MOVWF   TOSU
000076 BEE4           00983         BTFSC   PREINC1, 7
000078 8EF2           00984         BSF     INTCON, 7
00007A C??? F???      00985         MOVFF   r0x02, PCLATU
00007E C??? F???      00986         MOVFF   r0x01, PCLATH
000082 50??           00987         MOVF    r0x00, W
000084 6EF9           00988         MOVWF   PCL
000086                00989 _00171_DS_:
000086 52E6           00990         MOVF    POSTINC1, F
                      00991 ;       .line   62; lib/format.c        fn('x');
000088 0E78           00992         MOVLW   0x78
00008A 6EE5           00993         MOVWF   POSTDEC1
00008C CFF2 FFE5      00994         MOVFF   INTCON, POSTDEC1
000090 9EF2           00995         BCF     INTCON, 7
000092 0005           00996         PUSH    
000094 0E??           00997         MOVLW   LOW(_00172_DS_)
000096 6EFD           00998         MOVWF   TOSL
000098 0E??           00999         MOVLW   HIGH(_00172_DS_)
00009A 6EFE           01000         MOVWF   TOSH
00009C 0E??           01001         MOVLW   UPPER(_00172_DS_)
00009E 6EFF           01002         MOVWF   TOSU
0000A0 BEE4           01003         BTFSC   PREINC1, 7
0000A2 8EF2           01004         BSF     INTCON, 7
0000A4 C??? F???      01005         MOVFF   r0x02, PCLATU
0000A8 C??? F???      01006         MOVFF   r0x01, PCLATH
0000AC 50??           01007         MOVF    r0x00, W
gpasm-1.5.0 #1285 (Jul 12 2020) obj/sdcc-18f2   11/12/23  13:12:39          PAGE 20


LOC    OBJECT CODE    LINE  SOURCE TEXT
  VALUE

0000AE 6EF9           01008         MOVWF   PCL
0000B0                01009 _00172_DS_:
0000B0 52E6           01010         MOVF    POSTINC1, F
                      01011 ;       .line   63; lib/format.c        format_number(fn, (uint16_t)(x >> 16), 16, -4);
0000B2 50??           01012         MOVF    r0x05, W
0000B4 6E??           01013         MOVWF   r0x07
0000B6 50??           01014         MOVF    r0x06, W
0000B8 6E??           01015         MOVWF   r0x08
0000BA 6A??           01016         CLRF    r0x09
0000BC 6A??           01017         CLRF    r0x0a
0000BE 0EFC           01018         MOVLW   0xfc
0000C0 6EE5           01019         MOVWF   POSTDEC1
0000C2 0E10           01020         MOVLW   0x10
0000C4 6EE5           01021         MOVWF   POSTDEC1
0000C6 50??           01022         MOVF    r0x08, W
0000C8 6EE5           01023         MOVWF   POSTDEC1
0000CA 50??           01024         MOVF    r0x07, W
0000CC 6EE5           01025         MOVWF   POSTDEC1
0000CE 50??           01026         MOVF    r0x02, W
0000D0 6EE5           01027         MOVWF   POSTDEC1
0000D2 50??           01028         MOVF    r0x01, W
0000D4 6EE5           01029         MOVWF   POSTDEC1
0000D6 50??           01030         MOVF    r0x00, W
0000D8 6EE5           01031         MOVWF   POSTDEC1
0000DA EC?? F0??      01032         CALL    _format_number
0000DE 0E07           01033         MOVLW   0x07
0000E0 26E1           01034         ADDWF   FSR1L, F
                      01035 ;       .line   64; lib/format.c        format_number(fn, (uint16_t)(x & 0xffff), 16, -4);
0000E2 0EFC           01036         MOVLW   0xfc
0000E4 6EE5           01037         MOVWF   POSTDEC1
0000E6 0E10           01038         MOVLW   0x10
0000E8 6EE5           01039         MOVWF   POSTDEC1
0000EA 50??           01040         MOVF    r0x04, W
0000EC 6EE5           01041         MOVWF   POSTDEC1
0000EE 50??           01042         MOVF    r0x03, W
0000F0 6EE5           01043         MOVWF   POSTDEC1
0000F2 50??           01044         MOVF    r0x02, W
0000F4 6EE5           01045         MOVWF   POSTDEC1
0000F6 50??           01046         MOVF    r0x01, W
0000F8 6EE5           01047         MOVWF   POSTDEC1
0000FA 50??           01048         MOVF    r0x00, W
0000FC 6EE5           01049         MOVWF   POSTDEC1
0000FE EC?? F0??      01050         CALL    _format_number
000102 0E07           01051         MOVLW   0x07
000104 26E1           01052         ADDWF   FSR1L, F
                      01053 ;       .line   65; lib/format.c        }
000106 CFE4 F000      01054         MOVFF   PREINC1, r0x0a
00010A CFE4 F000      01055         MOVFF   PREINC1, r0x09
00010E CFE4 F000      01056         MOVFF   PREINC1, r0x08
000112 CFE4 F000      01057         MOVFF   PREINC1, r0x07
000116 CFE4 F000      01058         MOVFF   PREINC1, r0x06
00011A CFE4 F000      01059         MOVFF   PREINC1, r0x05
00011E CFE4 F000      01060         MOVFF   PREINC1, r0x04
gpasm-1.5.0 #1285 (Jul 12 2020) obj/sdcc-18f2   11/12/23  13:12:39          PAGE 21


LOC    OBJECT CODE    LINE  SOURCE TEXT
  VALUE

000122 CFE4 F000      01061         MOVFF   PREINC1, r0x03
000126 CFE4 F000      01062         MOVFF   PREINC1, r0x02
00012A CFE4 F000      01063         MOVFF   PREINC1, r0x01
00012E CFE4 F000      01064         MOVFF   PREINC1, r0x00
000132 CFE4 FFD9      01065         MOVFF   PREINC1, FSR2L
000136 0012           01066         RETURN  
                      01067 
                      01068 ; ; Starting pCode block
                      01069 S_format__format_number code
000000                01070 _format_number:
                      01071 ;       .line   26; lib/format.c        format_number(putch_t fn, uint16_t n, uint8_t base, int8_t pad /
                            *, int8_t pointpos*/) {
000000 CFD9 FFE5      01072         MOVFF   FSR2L, POSTDEC1
000004 CFE1 FFD9      01073         MOVFF   FSR1L, FSR2L
000008 C??? F???      01074         MOVFF   r0x00, POSTDEC1
00000C C??? F???      01075         MOVFF   r0x01, POSTDEC1
000010 C??? F???      01076         MOVFF   r0x02, POSTDEC1
000014 C??? F???      01077         MOVFF   r0x03, POSTDEC1
000018 C??? F???      01078         MOVFF   r0x04, POSTDEC1
00001C C??? F???      01079         MOVFF   r0x05, POSTDEC1
000020 C??? F???      01080         MOVFF   r0x06, POSTDEC1
000024 C??? F???      01081         MOVFF   r0x07, POSTDEC1
000028 C??? F???      01082         MOVFF   r0x08, POSTDEC1
00002C C??? F???      01083         MOVFF   r0x09, POSTDEC1
000030 C??? F???      01084         MOVFF   r0x0a, POSTDEC1
000034 C??? F???      01085         MOVFF   r0x0b, POSTDEC1
000038 C??? F???      01086         MOVFF   r0x0c, POSTDEC1
00003C C??? F???      01087         MOVFF   r0x0d, POSTDEC1
000040 C??? F???      01088         MOVFF   r0x0e, POSTDEC1
000044 0E02           01089         MOVLW   0x02
000046 CFDB F000      01090         MOVFF   PLUSW2, r0x00
00004A 0E03           01091         MOVLW   0x03
00004C CFDB F000      01092         MOVFF   PLUSW2, r0x01
000050 0E04           01093         MOVLW   0x04
000052 CFDB F000      01094         MOVFF   PLUSW2, r0x02
000056 0E05           01095         MOVLW   0x05
000058 CFDB F000      01096         MOVFF   PLUSW2, r0x03
00005C 0E06           01097         MOVLW   0x06
00005E CFDB F000      01098         MOVFF   PLUSW2, r0x04
000062 0E07           01099         MOVLW   0x07
000064 CFDB F000      01100         MOVFF   PLUSW2, r0x05
000068 0E08           01101         MOVLW   0x08
00006A CFDB F000      01102         MOVFF   PLUSW2, r0x06
                      01103 ;       .line   30; lib/format.c        char padchar = ' ';
00006E 0E20           01104         MOVLW   0x20
000070 6E??           01105         MOVWF   r0x07
                      01106 ;       .line   32; lib/format.c        if(pad < 0) {
000072 80D8           01107         BSF     STATUS, 0
000074 AE??           01108         BTFSS   r0x06, 7
000076 90D8           01109         BCF     STATUS, 0
000078 E3??           01110         BNC     _00128_DS_
                      01111 ;       .line   33; lib/format.c        pad = -pad;
00007A 6C??           01112         NEGF    r0x06
gpasm-1.5.0 #1285 (Jul 12 2020) obj/sdcc-18f2   11/12/23  13:12:39          PAGE 22


LOC    OBJECT CODE    LINE  SOURCE TEXT
  VALUE

                      01113 ;       .line   34; lib/format.c        padchar = '0';
00007C 0E30           01114         MOVLW   0x30
00007E 6E??           01115         MOVWF   r0x07
000080                01116 _00128_DS_:
                      01117 ;       .line   42; lib/format.c        do {
000080 6A??           01118         CLRF    r0x08
000082                01119 _00112_DS_:
                      01120 ;       .line   46; lib/format.c        di = n % base;
000082 C??? F???      01121         MOVFF   r0x05, r0x09
000086 6A??           01122         CLRF    r0x0a
000088 50??           01123         MOVF    r0x0a, W
00008A 6EE5           01124         MOVWF   POSTDEC1
00008C 50??           01125         MOVF    r0x09, W
00008E 6EE5           01126         MOVWF   POSTDEC1
000090 50??           01127         MOVF    r0x04, W
000092 6EE5           01128         MOVWF   POSTDEC1
000094 50??           01129         MOVF    r0x03, W
000096 6EE5           01130         MOVWF   POSTDEC1
000098 EC?? F0??      01131         CALL    __moduint
00009C 6E??           01132         MOVWF   r0x0b
00009E CFF3 F000      01133         MOVFF   PRODL, r0x0c
0000A2 0E04           01134         MOVLW   0x04
0000A4 26E1           01135         ADDWF   FSR1L, F
                      01136 ;       .line   47; lib/format.c        buf[i++] = (di < 10 ? (uint8_t)'0' + di : (uint8_t)'A' + di - 10
                            );
0000A6 C??? F???      01137         MOVFF   r0x08, r0x0c
0000AA 2A??           01138         INCF    r0x08, F
0000AC 6A??           01139         CLRF    r0x0d
0000AE BE??           01140         BTFSC   r0x0c, 7
0000B0 68??           01141         SETF    r0x0d
0000B2 0E??           01142         MOVLW   LOW(_format_number_buf_65536_39)
0000B4 26??           01143         ADDWF   r0x0c, F
0000B6 0E??           01144         MOVLW   HIGH(_format_number_buf_65536_39)
0000B8 22??           01145         ADDWFC  r0x0d, F
0000BA 0E0A           01146         MOVLW   0x0a
0000BC 5C??           01147         SUBWF   r0x0b, W
0000BE E2??           01148         BC      _00124_DS_
0000C0 0E30           01149         MOVLW   0x30
0000C2 24??           01150         ADDWF   r0x0b, W
0000C4 6E??           01151         MOVWF   r0x0e
0000C6 D???           01152         BRA     _00125_DS_
0000C8                01153 _00124_DS_:
0000C8 0E37           01154         MOVLW   0x37
0000CA 24??           01155         ADDWF   r0x0b, W
0000CC 6E??           01156         MOVWF   r0x0e
0000CE                01157 _00125_DS_:
0000CE C??? F???      01158         MOVFF   r0x0c, FSR0L
0000D2 C??? F???      01159         MOVFF   r0x0d, FSR0H
0000D6 C??? F???      01160         MOVFF   r0x0e, INDF0
                      01161 ;       .line   49; lib/format.c        n /= base;
0000DA 50??           01162         MOVF    r0x0a, W
0000DC 6EE5           01163         MOVWF   POSTDEC1
0000DE 50??           01164         MOVF    r0x09, W
gpasm-1.5.0 #1285 (Jul 12 2020) obj/sdcc-18f2   11/12/23  13:12:39          PAGE 23


LOC    OBJECT CODE    LINE  SOURCE TEXT
  VALUE

0000E0 6EE5           01165         MOVWF   POSTDEC1
0000E2 50??           01166         MOVF    r0x04, W
0000E4 6EE5           01167         MOVWF   POSTDEC1
0000E6 50??           01168         MOVF    r0x03, W
0000E8 6EE5           01169         MOVWF   POSTDEC1
0000EA EC?? F0??      01170         CALL    __divuint
0000EE 6E??           01171         MOVWF   r0x03
0000F0 CFF3 F000      01172         MOVFF   PRODL, r0x04
0000F4 0E04           01173         MOVLW   0x04
0000F6 26E1           01174         ADDWF   FSR1L, F
                      01175 ;       .line   50; lib/format.c        } while(n > 0);
0000F8 50??           01176         MOVF    r0x03, W
0000FA 10??           01177         IORWF   r0x04, W
0000FC A4D8           01178         BTFSS   STATUS, 2
0000FE D???           01179         BRA     _00112_DS_
                      01180 ;       .line   52; lib/format.c        while(pad-- > i) buffer_putch(padchar);
000100 C??? F???      01181         MOVFF   r0x08, r0x03
000104 C??? F???      01182         MOVFF   r0x06, r0x04
000108                01183 _00115_DS_:
000108 50??           01184         MOVF    r0x03, W
00010A 0F80           01185         ADDLW   0x80
00010C 6EF3           01186         MOVWF   PRODL
00010E 50??           01187         MOVF    r0x04, W
000110 0F80           01188         ADDLW   0x80
000112 5CF3           01189         SUBWF   PRODL, W
000114 E2??           01190         BC      _00117_DS_
000116 06??           01191         DECF    r0x04, F
000118 50??           01192         MOVF    r0x07, W
00011A 6EE5           01193         MOVWF   POSTDEC1
00011C EC?? F0??      01194         CALL    _buffer_putch
000120 52E6           01195         MOVF    POSTINC1, F
000122 D???           01196         BRA     _00115_DS_
000124                01197 _00117_DS_:
                      01198 ;       .line   54; lib/format.c        for(unsigned j = 0; j < i; j++) (*fn)(buf[j]);
000124 6A??           01199         CLRF    r0x04
000126 6A??           01200         CLRF    r0x05
000128                01201 _00120_DS_:
000128 C??? F???      01202         MOVFF   r0x03, r0x06
00012C 6A??           01203         CLRF    r0x07
00012E BE??           01204         BTFSC   r0x03, 7
000130 68??           01205         SETF    r0x07
000132 50??           01206         MOVF    r0x07, W
000134 5C??           01207         SUBWF   r0x05, W
000136 E1??           01208         BNZ     _00163_DS_
000138 50??           01209         MOVF    r0x06, W
00013A 5C??           01210         SUBWF   r0x04, W
00013C                01211 _00163_DS_:
00013C E2??           01212         BC      _00122_DS_
00013E 0E??           01213         MOVLW   LOW(_format_number_buf_65536_39)
000140 24??           01214         ADDWF   r0x04, W
000142 6E??           01215         MOVWF   r0x06
000144 0E??           01216         MOVLW   HIGH(_format_number_buf_65536_39)
000146 20??           01217         ADDWFC  r0x05, W
gpasm-1.5.0 #1285 (Jul 12 2020) obj/sdcc-18f2   11/12/23  13:12:39          PAGE 24


LOC    OBJECT CODE    LINE  SOURCE TEXT
  VALUE

000148 6E??           01218         MOVWF   r0x07
00014A C??? F???      01219         MOVFF   r0x06, FSR0L
00014E C??? F???      01220         MOVFF   r0x07, FSR0H
000152 CFEF F000      01221         MOVFF   INDF0, r0x06
000156 50??           01222         MOVF    r0x06, W
000158 6EE5           01223         MOVWF   POSTDEC1
00015A CFF2 FFE5      01224         MOVFF   INTCON, POSTDEC1
00015E 9EF2           01225         BCF     INTCON, 7
000160 0005           01226         PUSH    
000162 0E??           01227         MOVLW   LOW(_00164_DS_)
000164 6EFD           01228         MOVWF   TOSL
000166 0E??           01229         MOVLW   HIGH(_00164_DS_)
000168 6EFE           01230         MOVWF   TOSH
00016A 0E??           01231         MOVLW   UPPER(_00164_DS_)
00016C 6EFF           01232         MOVWF   TOSU
00016E BEE4           01233         BTFSC   PREINC1, 7
000170 8EF2           01234         BSF     INTCON, 7
000172 C??? F???      01235         MOVFF   r0x02, PCLATU
000176 C??? F???      01236         MOVFF   r0x01, PCLATH
00017A 50??           01237         MOVF    r0x00, W
00017C 6EF9           01238         MOVWF   PCL
00017E                01239 _00164_DS_:
00017E 52E6           01240         MOVF    POSTINC1, F
000180 4A??           01241         INFSNZ  r0x04, F
000182 2A??           01242         INCF    r0x05, F
000184 D???           01243         BRA     _00120_DS_
000186                01244 _00122_DS_:
                      01245 ;       .line   56; lib/format.c        }
000186 CFE4 F000      01246         MOVFF   PREINC1, r0x0e
00018A CFE4 F000      01247         MOVFF   PREINC1, r0x0d
00018E CFE4 F000      01248         MOVFF   PREINC1, r0x0c
000192 CFE4 F000      01249         MOVFF   PREINC1, r0x0b
000196 CFE4 F000      01250         MOVFF   PREINC1, r0x0a
00019A CFE4 F000      01251         MOVFF   PREINC1, r0x09
00019E CFE4 F000      01252         MOVFF   PREINC1, r0x08
0001A2 CFE4 F000      01253         MOVFF   PREINC1, r0x07
0001A6 CFE4 F000      01254         MOVFF   PREINC1, r0x06
0001AA CFE4 F000      01255         MOVFF   PREINC1, r0x05
0001AE CFE4 F000      01256         MOVFF   PREINC1, r0x04
0001B2 CFE4 F000      01257         MOVFF   PREINC1, r0x03
0001B6 CFE4 F000      01258         MOVFF   PREINC1, r0x02
0001BA CFE4 F000      01259         MOVFF   PREINC1, r0x01
0001BE CFE4 F000      01260         MOVFF   PREINC1, r0x00
0001C2 CFE4 FFD9      01261         MOVFF   PREINC1, FSR2L
0001C6 0012           01262         RETURN  
                      01263 
                      01264 ; ; Starting pCode block
                      01265 S_format__format_putchar        code
000000                01266 _format_putchar:
                      01267 ;       .line   18; lib/format.c        format_putchar(char c) {
000000 CFD9 FFE5      01268         MOVFF   FSR2L, POSTDEC1
000004 CFE1 FFD9      01269         MOVFF   FSR1L, FSR2L
                      01270 ;       .line   20; lib/format.c        }
gpasm-1.5.0 #1285 (Jul 12 2020) obj/sdcc-18f2   11/12/23  13:12:39          PAGE 25


LOC    OBJECT CODE    LINE  SOURCE TEXT
  VALUE

000008 CFE4 FFD9      01271         MOVFF   PREINC1, FSR2L
00000C 0012           01272         RETURN  
                      01273 
                      01274 
                      01275 
                      01276 ; Statistics:
                      01277 ; code size:     2304 (0x0900) bytes ( 1.76%)
                      01278 ;                1152 (0x0480) words
                      01279 ; udata size:      32 (0x0020) bytes ( 1.79%)
                      01280 ; access size:     19 (0x0013) bytes
                      01281 
                      01282 
                      01283         end
gpasm-1.5.0 #1285 (Jul 12 2020) obj/sdcc-18f2   11/12/23  13:12:39          PAGE 26


SYMBOL TABLE
  LABEL                              TYPE        VALUE         VALUE          VALUE
                                                 (hex)         (dec)          (text)

FSR0H                             CONSTANT      00000FEA           4074
FSR0L                             CONSTANT      00000FE9           4073
FSR1L                             CONSTANT      00000FE1           4065
FSR2L                             CONSTANT      00000FD9           4057
INDF0                             CONSTANT      00000FEF           4079
INTCON                            CONSTANT      00000FF2           4082
PCL                               CONSTANT      00000FF9           4089
PCLATH                            CONSTANT      00000FFA           4090
PCLATU                            CONSTANT      00000FFB           4091
PLUSW2                            CONSTANT      00000FDB           4059
POSTDEC1                          CONSTANT      00000FE5           4069
POSTINC1                          CONSTANT      00000FE6           4070
PREINC1                           CONSTANT      00000FE4           4068
PRODH                             CONSTANT      00000FF4           4084
PRODL                             CONSTANT      00000FF3           4083
STATUS                            CONSTANT      00000FD8           4056
TOSH                              CONSTANT      00000FFE           4094
TOSL                              CONSTANT      00000FFD           4093
TOSU                              CONSTANT      00000FFF           4095
_00112_DS_                        ADDRESS       00000082            130
_00115_DS_                        ADDRESS       00000108            264
_00117_DS_                        ADDRESS       00000124            292
_00120_DS_                        ADDRESS       00000128            296
_00122_DS_                        ADDRESS       00000186            390
_00124_DS_                        ADDRESS       000000C8            200
_00125_DS_                        ADDRESS       000000CE            206
_00128_DS_                        ADDRESS       00000080            128
_00163_DS_                        ADDRESS       0000013C            316
_00164_DS_                        ADDRESS       0000017E            382
_00171_DS_                        ADDRESS       00000086            134
_00172_DS_                        ADDRESS       000000B0            176
_00178_DS_                        ADDRESS       0000029A            666
_00179_DS_                        ADDRESS       000000BE            190
_00182_DS_                        ADDRESS       000002A2            674
_00197_DS_                        ADDRESS       00000268            616
_00198_DS_                        ADDRESS       00000298            664
_00204_DS_                        ADDRESS       000002A8            680
_00205_DS_                        ADDRESS       000000C2            194
_00208_DS_                        ADDRESS       000002B0            688
_00223_DS_                        ADDRESS       00000276            630
_00224_DS_                        ADDRESS       000002A6            678
_ADCON0                           EXTERNAL      00000000              0
_ADCON0bits                       EXTERNAL      00000000              0
_ADCON1                           EXTERNAL      00000000              0
_ADCON1bits                       EXTERNAL      00000000              0
_ADCON2                           EXTERNAL      00000000              0
_ADCON2bits                       EXTERNAL      00000000              0
_ADRES                            EXTERNAL      00000000              0
_ADRESH                           EXTERNAL      00000000              0
_ADRESL                           EXTERNAL      00000000              0
_BAUDCON                          EXTERNAL      00000000              0
_BAUDCONbits                      EXTERNAL      00000000              0
gpasm-1.5.0 #1285 (Jul 12 2020) obj/sdcc-18f2   11/12/23  13:12:39          PAGE 27


SYMBOL TABLE
  LABEL                              TYPE        VALUE         VALUE          VALUE
                                                 (hex)         (dec)          (text)

_BAUDCTL                          EXTERNAL      00000000              0
_BAUDCTLbits                      EXTERNAL      00000000              0
_BSR                              EXTERNAL      00000000              0
_CCPR1                            EXTERNAL      00000000              0
_CCPR1H                           EXTERNAL      00000000              0
_CCPR1L                           EXTERNAL      00000000              0
_CCPR2                            EXTERNAL      00000000              0
_CCPR2H                           EXTERNAL      00000000              0
_CCPR2L                           EXTERNAL      00000000              0
_CCP1AS                           EXTERNAL      00000000              0
_CCP1ASbits                       EXTERNAL      00000000              0
_CCP1CON                          EXTERNAL      00000000              0
_CCP1CONbits                      EXTERNAL      00000000              0
_CCP1DEL                          EXTERNAL      00000000              0
_CCP1DELbits                      EXTERNAL      00000000              0
_CCP2CON                          EXTERNAL      00000000              0
_CCP2CONbits                      EXTERNAL      00000000              0
_CMCON                            EXTERNAL      00000000              0
_CMCONbits                        EXTERNAL      00000000              0
_CVRCON                           EXTERNAL      00000000              0
_CVRCONbits                       EXTERNAL      00000000              0
_DDRA                             EXTERNAL      00000000              0
_DDRAbits                         EXTERNAL      00000000              0
_DDRB                             EXTERNAL      00000000              0
_DDRBbits                         EXTERNAL      00000000              0
_DDRC                             EXTERNAL      00000000              0
_DDRCbits                         EXTERNAL      00000000              0
_ECCP1AS                          EXTERNAL      00000000              0
_ECCP1ASbits                      EXTERNAL      00000000              0
_ECCP1DEL                         EXTERNAL      00000000              0
_ECCP1DELbits                     EXTERNAL      00000000              0
_EEADR                            EXTERNAL      00000000              0
_EECON1                           EXTERNAL      00000000              0
_EECON1bits                       EXTERNAL      00000000              0
_EECON2                           EXTERNAL      00000000              0
_EEDATA                           EXTERNAL      00000000              0
_FSR0H                            EXTERNAL      00000000              0
_FSR0L                            EXTERNAL      00000000              0
_FSR1H                            EXTERNAL      00000000              0
_FSR1L                            EXTERNAL      00000000              0
_FSR2H                            EXTERNAL      00000000              0
_FSR2L                            EXTERNAL      00000000              0
_HLVDCON                          EXTERNAL      00000000              0
_HLVDCONbits                      EXTERNAL      00000000              0
_INDF0                            EXTERNAL      00000000              0
_INDF1                            EXTERNAL      00000000              0
_INDF2                            EXTERNAL      00000000              0
_INTCON                           EXTERNAL      00000000              0
_INTCONbits                       EXTERNAL      00000000              0
_INTCON2                          EXTERNAL      00000000              0
_INTCON2bits                      EXTERNAL      00000000              0
_INTCON3                          EXTERNAL      00000000              0
gpasm-1.5.0 #1285 (Jul 12 2020) obj/sdcc-18f2   11/12/23  13:12:39          PAGE 28


SYMBOL TABLE
  LABEL                              TYPE        VALUE         VALUE          VALUE
                                                 (hex)         (dec)          (text)

_INTCON3bits                      EXTERNAL      00000000              0
_IPR1                             EXTERNAL      00000000              0
_IPR1bits                         EXTERNAL      00000000              0
_IPR2                             EXTERNAL      00000000              0
_IPR2bits                         EXTERNAL      00000000              0
_LATA                             EXTERNAL      00000000              0
_LATAbits                         EXTERNAL      00000000              0
_LATB                             EXTERNAL      00000000              0
_LATBbits                         EXTERNAL      00000000              0
_LATC                             EXTERNAL      00000000              0
_LATCbits                         EXTERNAL      00000000              0
_LVDCON                           EXTERNAL      00000000              0
_LVDCONbits                       EXTERNAL      00000000              0
_OSCCON                           EXTERNAL      00000000              0
_OSCCONbits                       EXTERNAL      00000000              0
_OSCTUNE                          EXTERNAL      00000000              0
_OSCTUNEbits                      EXTERNAL      00000000              0
_PC                               EXTERNAL      00000000              0
_PCL                              EXTERNAL      00000000              0
_PCLATH                           EXTERNAL      00000000              0
_PCLATU                           EXTERNAL      00000000              0
_PIE1                             EXTERNAL      00000000              0
_PIE1bits                         EXTERNAL      00000000              0
_PIE2                             EXTERNAL      00000000              0
_PIE2bits                         EXTERNAL      00000000              0
_PIR1                             EXTERNAL      00000000              0
_PIR1bits                         EXTERNAL      00000000              0
_PIR2                             EXTERNAL      00000000              0
_PIR2bits                         EXTERNAL      00000000              0
_PLUSW0                           EXTERNAL      00000000              0
_PLUSW1                           EXTERNAL      00000000              0
_PLUSW2                           EXTERNAL      00000000              0
_PORTA                            EXTERNAL      00000000              0
_PORTAbits                        EXTERNAL      00000000              0
_PORTB                            EXTERNAL      00000000              0
_PORTBbits                        EXTERNAL      00000000              0
_PORTC                            EXTERNAL      00000000              0
_PORTCbits                        EXTERNAL      00000000              0
_PORTE                            EXTERNAL      00000000              0
_PORTEbits                        EXTERNAL      00000000              0
_POSTDEC0                         EXTERNAL      00000000              0
_POSTDEC1                         EXTERNAL      00000000              0
_POSTDEC2                         EXTERNAL      00000000              0
_POSTINC0                         EXTERNAL      00000000              0
_POSTINC1                         EXTERNAL      00000000              0
_POSTINC2                         EXTERNAL      00000000              0
_PREINC0                          EXTERNAL      00000000              0
_PREINC1                          EXTERNAL      00000000              0
_PREINC2                          EXTERNAL      00000000              0
_PROD                             EXTERNAL      00000000              0
_PRODH                            EXTERNAL      00000000              0
_PRODL                            EXTERNAL      00000000              0
gpasm-1.5.0 #1285 (Jul 12 2020) obj/sdcc-18f2   11/12/23  13:12:39          PAGE 29


SYMBOL TABLE
  LABEL                              TYPE        VALUE         VALUE          VALUE
                                                 (hex)         (dec)          (text)

_PR2                              EXTERNAL      00000000              0
_RCON                             EXTERNAL      00000000              0
_RCONbits                         EXTERNAL      00000000              0
_RCREG                            EXTERNAL      00000000              0
_RCSTA                            EXTERNAL      00000000              0
_RCSTAbits                        EXTERNAL      00000000              0
_SPBRG                            EXTERNAL      00000000              0
_SPBRGH                           EXTERNAL      00000000              0
_SSPADD                           EXTERNAL      00000000              0
_SSPBUF                           EXTERNAL      00000000              0
_SSPCON1                          EXTERNAL      00000000              0
_SSPCON1bits                      EXTERNAL      00000000              0
_SSPCON2                          EXTERNAL      00000000              0
_SSPCON2bits                      EXTERNAL      00000000              0
_SSPSTAT                          EXTERNAL      00000000              0
_SSPSTATbits                      EXTERNAL      00000000              0
_STATUS                           EXTERNAL      00000000              0
_STATUSbits                       EXTERNAL      00000000              0
_STKPTR                           EXTERNAL      00000000              0
_STKPTRbits                       EXTERNAL      00000000              0
_T0CON                            EXTERNAL      00000000              0
_T0CONbits                        EXTERNAL      00000000              0
_TABLAT                           EXTERNAL      00000000              0
_TBLPTR                           EXTERNAL      00000000              0
_TBLPTRH                          EXTERNAL      00000000              0
_TBLPTRL                          EXTERNAL      00000000              0
_TBLPTRU                          EXTERNAL      00000000              0
_TMR0                             EXTERNAL      00000000              0
_TMR0H                            EXTERNAL      00000000              0
_TMR0L                            EXTERNAL      00000000              0
_TMR1                             EXTERNAL      00000000              0
_TMR1H                            EXTERNAL      00000000              0
_TMR1L                            EXTERNAL      00000000              0
_TMR2                             EXTERNAL      00000000              0
_TMR3                             EXTERNAL      00000000              0
_TMR3H                            EXTERNAL      00000000              0
_TMR3L                            EXTERNAL      00000000              0
_TOS                              EXTERNAL      00000000              0
_TOSH                             EXTERNAL      00000000              0
_TOSL                             EXTERNAL      00000000              0
_TOSU                             EXTERNAL      00000000              0
_TRISA                            EXTERNAL      00000000              0
_TRISAbits                        EXTERNAL      00000000              0
_TRISB                            EXTERNAL      00000000              0
_TRISBbits                        EXTERNAL      00000000              0
_TRISC                            EXTERNAL      00000000              0
_TRISCbits                        EXTERNAL      00000000              0
_TXREG                            EXTERNAL      00000000              0
_TXSTA                            EXTERNAL      00000000              0
_TXSTAbits                        EXTERNAL      00000000              0
_T1CON                            EXTERNAL      00000000              0
_T1CONbits                        EXTERNAL      00000000              0
gpasm-1.5.0 #1285 (Jul 12 2020) obj/sdcc-18f2   11/12/23  13:12:39          PAGE 30


SYMBOL TABLE
  LABEL                              TYPE        VALUE         VALUE          VALUE
                                                 (hex)         (dec)          (text)

_T2CON                            EXTERNAL      00000000              0
_T2CONbits                        EXTERNAL      00000000              0
_T3CON                            EXTERNAL      00000000              0
_T3CONbits                        EXTERNAL      00000000              0
_UADDR                            EXTERNAL      00000000              0
_UADDRbits                        EXTERNAL      00000000              0
_UCFG                             EXTERNAL      00000000              0
_UCFGbits                         EXTERNAL      00000000              0
_UCON                             EXTERNAL      00000000              0
_UCONbits                         EXTERNAL      00000000              0
_UEIE                             EXTERNAL      00000000              0
_UEIEbits                         EXTERNAL      00000000              0
_UEIR                             EXTERNAL      00000000              0
_UEIRbits                         EXTERNAL      00000000              0
_UEP0                             EXTERNAL      00000000              0
_UEP0bits                         EXTERNAL      00000000              0
_UEP1                             EXTERNAL      00000000              0
_UEP1bits                         EXTERNAL      00000000              0
_UEP2                             EXTERNAL      00000000              0
_UEP2bits                         EXTERNAL      00000000              0
_UEP3                             EXTERNAL      00000000              0
_UEP3bits                         EXTERNAL      00000000              0
_UEP4                             EXTERNAL      00000000              0
_UEP4bits                         EXTERNAL      00000000              0
_UEP5                             EXTERNAL      00000000              0
_UEP5bits                         EXTERNAL      00000000              0
_UEP6                             EXTERNAL      00000000              0
_UEP6bits                         EXTERNAL      00000000              0
_UEP7                             EXTERNAL      00000000              0
_UEP7bits                         EXTERNAL      00000000              0
_UEP8                             EXTERNAL      00000000              0
_UEP8bits                         EXTERNAL      00000000              0
_UEP9                             EXTERNAL      00000000              0
_UEP9bits                         EXTERNAL      00000000              0
_UEP10                            EXTERNAL      00000000              0
_UEP10bits                        EXTERNAL      00000000              0
_UEP11                            EXTERNAL      00000000              0
_UEP11bits                        EXTERNAL      00000000              0
_UEP12                            EXTERNAL      00000000              0
_UEP12bits                        EXTERNAL      00000000              0
_UEP13                            EXTERNAL      00000000              0
_UEP13bits                        EXTERNAL      00000000              0
_UEP14                            EXTERNAL      00000000              0
_UEP14bits                        EXTERNAL      00000000              0
_UEP15                            EXTERNAL      00000000              0
_UEP15bits                        EXTERNAL      00000000              0
_UFRM                             EXTERNAL      00000000              0
_UFRMH                            EXTERNAL      00000000              0
_UFRMHbits                        EXTERNAL      00000000              0
_UFRML                            EXTERNAL      00000000              0
_UFRMLbits                        EXTERNAL      00000000              0
_UIE                              EXTERNAL      00000000              0
gpasm-1.5.0 #1285 (Jul 12 2020) obj/sdcc-18f2   11/12/23  13:12:39          PAGE 31


SYMBOL TABLE
  LABEL                              TYPE        VALUE         VALUE          VALUE
                                                 (hex)         (dec)          (text)

_UIEbits                          EXTERNAL      00000000              0
_UIR                              EXTERNAL      00000000              0
_UIRbits                          EXTERNAL      00000000              0
_USTAT                            EXTERNAL      00000000              0
_USTATbits                        EXTERNAL      00000000              0
_WDTCON                           EXTERNAL      00000000              0
_WDTCONbits                       EXTERNAL      00000000              0
_WREG                             EXTERNAL      00000000              0
__ACC_RAM_LOW_END                 CONSTANT      0000005F             95
__ACC_RAM_LOW_START               CONSTANT      00000000              0
__ACTIVE_BANK_ADDR                VARIABLE      FFFFFFFF             -1
__ASSUMED_BANK_ADDR               VARIABLE      FFFFFFFF             -1
__BANK_0                          CONSTANT      00000000              0
__BANK_BITS                       CONSTANT      00000F00           3840
__BANK_FIRST                      CONSTANT      00000000              0
__BANK_INV                        CONSTANT      FFFFFFFF             -1
__BANK_LAST                       CONSTANT      00000F00           3840
__BANK_MASK                       CONSTANT      000000FF            255
__BANK_SHIFT                      CONSTANT      00000008              8
__BANK_SIZE                       CONSTANT      00000100            256
__BANK_1                          CONSTANT      00000100            256
__BANK_2                          CONSTANT      00000200            512
__BANK_3                          CONSTANT      00000300            768
__BANK_4                          CONSTANT      00000400           1024
__BANK_5                          CONSTANT      00000500           1280
__BANK_6                          CONSTANT      00000600           1536
__BANK_7                          CONSTANT      00000700           1792
__BANK_8                          CONSTANT      00000800           2048
__BANK_9                          CONSTANT      00000900           2304
__BANK_10                         CONSTANT      00000A00           2560
__BANK_11                         CONSTANT      00000B00           2816
__BANK_12                         CONSTANT      00000C00           3072
__BANK_13                         CONSTANT      00000D00           3328
__BANK_14                         CONSTANT      00000E00           3584
__BANK_15                         CONSTANT      00000F00           3840
__CODE_END                        CONSTANT      00007FFF          32767
__CODE_START                      CONSTANT      00000000              0
__COMMON_RAM_END                  CONSTANT      0000005F             95
__COMMON_RAM_START                CONSTANT      00000000              0
__CONFIG_END                      CONSTANT      0030000D        3145741
__CONFIG_START                    CONSTANT      00300000        3145728
__EEPROM_END                      CONSTANT      00F000FF       15728895
__EEPROM_START                    CONSTANT      00F00000       15728640
__EXTENDED                        CONSTANT      00000001              1
__GPUTILS_SVN_VERSION             CONSTANT      00000505           1285
__GPUTILS_VERSION_MAJOR           CONSTANT      00000001              1
__GPUTILS_VERSION_MICRO           CONSTANT      00000000              0
__GPUTILS_VERSION_MINOR           CONSTANT      00000005              5
__IDLOCS_END                      CONSTANT      00200007        2097159
__IDLOCS_START                    CONSTANT      00200000        2097152
__NUM_BANKS                       CONSTANT      00000010             16
__VECTOR_INT_HIGH                 CONSTANT      00000008              8
gpasm-1.5.0 #1285 (Jul 12 2020) obj/sdcc-18f2   11/12/23  13:12:39          PAGE 32


SYMBOL TABLE
  LABEL                              TYPE        VALUE         VALUE          VALUE
                                                 (hex)         (dec)          (text)

__VECTOR_INT_LOW                  CONSTANT      00000018             24
__VECTOR_RESET                    CONSTANT      00000000              0
__WHILE_LOOP_COUNT_MAX            CONSTANT      000000FF            255
___fsdiv                          EXTERNAL      00000000              0
___fslt                           EXTERNAL      00000000              0
___fsmul                          EXTERNAL      00000000              0
___fssub                          EXTERNAL      00000000              0
___fs2sint                        EXTERNAL      00000000              0
___fs2uchar                       EXTERNAL      00000000              0
___sint2fs                        EXTERNAL      00000000              0
___uchar2fs                       EXTERNAL      00000000              0
__divuint                         EXTERNAL      00000000              0
__moduint                         EXTERNAL      00000000              0
__16_BIT                          CONSTANT      00000001              1
__18F2550                         CONSTANT      00000001              1
_buffer                           EXTERNAL      00000000              0
_buffer_putch                     EXTERNAL      00000000              0
_floorf                           EXTERNAL      00000000              0
_format_double                    GLOBAL        00000000              0
_format_float                     GLOBAL        00000000              0
_format_number                    GLOBAL        00000000              0
_format_number_buf_65536_39       STATIC        00000000              0
_format_putchar                   ADDRESS       00000000              0
_format_xint32                    GLOBAL        00000000              0
_log10f                           EXTERNAL      00000000              0
_powf                             EXTERNAL      00000000              0
r0x00                             STATIC        00000000              0
r0x01                             STATIC        00000001              1
r0x02                             STATIC        00000002              2
r0x03                             STATIC        00000003              3
r0x04                             STATIC        00000004              4
r0x05                             STATIC        00000005              5
r0x06                             STATIC        00000006              6
r0x07                             STATIC        00000007              7
r0x08                             STATIC        00000008              8
r0x09                             STATIC        00000009              9
r0x0a                             STATIC        0000000A             10
r0x0b                             STATIC        0000000B             11
r0x0c                             STATIC        0000000C             12
r0x0d                             STATIC        0000000D             13
r0x0e                             STATIC        0000000E             14
r0x0f                             STATIC        0000000F             15
r0x10                             STATIC        00000010             16
r0x11                             STATIC        00000011             17
r0x12                             STATIC        00000012             18

Errors   :     0
Warnings :     0 reported,     0 suppressed
Messages :     0 reported,     0 suppressed

