gpasm-1.5.0 #1285 (Jul 12 2020) obj/sdcc-18f2   11/12/23  13:12:39          PAGE  1


LOC    OBJECT CODE    LINE  SOURCE TEXT
  VALUE

                      00001 ;--------------------------------------------------------
                      00002 ; File Created by SDCC : free open source ANSI-C Compiler
                      00003 ; Version 4.2.0 #13081 (Linux)
                      00004 ;--------------------------------------------------------
                      00005 ; PIC16 port for the Microchip 16-bit core micros
                      00006 ;--------------------------------------------------------
                      00007         list    p=18f2550
                      00008         radix   dec
                      00009 
                      00010 
                      00011 ;--------------------------------------------------------
                      00012 ; public variables in this module
                      00013 ;--------------------------------------------------------
  0000                00014         global  _blink
  0000                00015         global  _F3
  0000                00016         global  _F2
  0000                00017         global  _F1
  0000                00018         global  _timer1of
  0000                00019         global  _msecs
  0000                00020         global  _delay10ms
  0000                00021         global  _main
  0000                00022         global  _testloop
  0000                00023         global  _bres
  0000                00024         global  _msecpart
  0000                00025         global  _led_cycle
  0000                00026         global  _led_interval
  0000                00027         global  _seconds
  0000                00028         global  _CCal
  0000                00029         global  _isr
                      00030 
                      00031 ;--------------------------------------------------------
                      00032 ; extern variables in this module
                      00033 ;--------------------------------------------------------
  0000                00034         extern  _UFRMLbits
  0000                00035         extern  _UFRMHbits
  0000                00036         extern  _UIRbits
  0000                00037         extern  _UIEbits
  0000                00038         extern  _UEIRbits
  0000                00039         extern  _UEIEbits
  0000                00040         extern  _USTATbits
  0000                00041         extern  _UCONbits
  0000                00042         extern  _UADDRbits
  0000                00043         extern  _UCFGbits
  0000                00044         extern  _UEP0bits
  0000                00045         extern  _UEP1bits
  0000                00046         extern  _UEP2bits
  0000                00047         extern  _UEP3bits
  0000                00048         extern  _UEP4bits
  0000                00049         extern  _UEP5bits
  0000                00050         extern  _UEP6bits
  0000                00051         extern  _UEP7bits
  0000                00052         extern  _UEP8bits
  0000                00053         extern  _UEP9bits
gpasm-1.5.0 #1285 (Jul 12 2020) obj/sdcc-18f2   11/12/23  13:12:39          PAGE  2


LOC    OBJECT CODE    LINE  SOURCE TEXT
  VALUE

  0000                00054         extern  _UEP10bits
  0000                00055         extern  _UEP11bits
  0000                00056         extern  _UEP12bits
  0000                00057         extern  _UEP13bits
  0000                00058         extern  _UEP14bits
  0000                00059         extern  _UEP15bits
  0000                00060         extern  _PORTAbits
  0000                00061         extern  _PORTBbits
  0000                00062         extern  _PORTCbits
  0000                00063         extern  _PORTEbits
  0000                00064         extern  _LATAbits
  0000                00065         extern  _LATBbits
  0000                00066         extern  _LATCbits
  0000                00067         extern  _DDRAbits
  0000                00068         extern  _TRISAbits
  0000                00069         extern  _DDRBbits
  0000                00070         extern  _TRISBbits
  0000                00071         extern  _DDRCbits
  0000                00072         extern  _TRISCbits
  0000                00073         extern  _OSCTUNEbits
  0000                00074         extern  _PIE1bits
  0000                00075         extern  _PIR1bits
  0000                00076         extern  _IPR1bits
  0000                00077         extern  _PIE2bits
  0000                00078         extern  _PIR2bits
  0000                00079         extern  _IPR2bits
  0000                00080         extern  _EECON1bits
  0000                00081         extern  _RCSTAbits
  0000                00082         extern  _TXSTAbits
  0000                00083         extern  _T3CONbits
  0000                00084         extern  _CMCONbits
  0000                00085         extern  _CVRCONbits
  0000                00086         extern  _CCP1ASbits
  0000                00087         extern  _ECCP1ASbits
  0000                00088         extern  _CCP1DELbits
  0000                00089         extern  _ECCP1DELbits
  0000                00090         extern  _BAUDCONbits
  0000                00091         extern  _BAUDCTLbits
  0000                00092         extern  _CCP2CONbits
  0000                00093         extern  _CCP1CONbits
  0000                00094         extern  _ADCON2bits
  0000                00095         extern  _ADCON1bits
  0000                00096         extern  _ADCON0bits
  0000                00097         extern  _SSPCON2bits
  0000                00098         extern  _SSPCON1bits
  0000                00099         extern  _SSPSTATbits
  0000                00100         extern  _T2CONbits
  0000                00101         extern  _T1CONbits
  0000                00102         extern  _RCONbits
  0000                00103         extern  _WDTCONbits
  0000                00104         extern  _HLVDCONbits
  0000                00105         extern  _LVDCONbits
  0000                00106         extern  _OSCCONbits
gpasm-1.5.0 #1285 (Jul 12 2020) obj/sdcc-18f2   11/12/23  13:12:39          PAGE  3


LOC    OBJECT CODE    LINE  SOURCE TEXT
  VALUE

  0000                00107         extern  _T0CONbits
  0000                00108         extern  _STATUSbits
  0000                00109         extern  _INTCON3bits
  0000                00110         extern  _INTCON2bits
  0000                00111         extern  _INTCONbits
  0000                00112         extern  _STKPTRbits
  0000                00113         extern  _dvar
  0000                00114         extern  _ser_rxfifo
  0000                00115         extern  _ser_rxiptr
  0000                00116         extern  _ser_rxoptr
  0000                00117         extern  _ser_txfifo
  0000                00118         extern  _ser_txiptr
  0000                00119         extern  _ser_txoptr
  0000                00120         extern  _ser_tmp
  0000                00121         extern  _ser_brg
  0000                00122         extern  _UFRM
  0000                00123         extern  _UFRML
  0000                00124         extern  _UFRMH
  0000                00125         extern  _UIR
  0000                00126         extern  _UIE
  0000                00127         extern  _UEIR
  0000                00128         extern  _UEIE
  0000                00129         extern  _USTAT
  0000                00130         extern  _UCON
  0000                00131         extern  _UADDR
  0000                00132         extern  _UCFG
  0000                00133         extern  _UEP0
  0000                00134         extern  _UEP1
  0000                00135         extern  _UEP2
  0000                00136         extern  _UEP3
  0000                00137         extern  _UEP4
  0000                00138         extern  _UEP5
  0000                00139         extern  _UEP6
  0000                00140         extern  _UEP7
  0000                00141         extern  _UEP8
  0000                00142         extern  _UEP9
  0000                00143         extern  _UEP10
  0000                00144         extern  _UEP11
  0000                00145         extern  _UEP12
  0000                00146         extern  _UEP13
  0000                00147         extern  _UEP14
  0000                00148         extern  _UEP15
  0000                00149         extern  _PORTA
  0000                00150         extern  _PORTB
  0000                00151         extern  _PORTC
  0000                00152         extern  _PORTE
  0000                00153         extern  _LATA
  0000                00154         extern  _LATB
  0000                00155         extern  _LATC
  0000                00156         extern  _DDRA
  0000                00157         extern  _TRISA
  0000                00158         extern  _DDRB
  0000                00159         extern  _TRISB
gpasm-1.5.0 #1285 (Jul 12 2020) obj/sdcc-18f2   11/12/23  13:12:39          PAGE  4


LOC    OBJECT CODE    LINE  SOURCE TEXT
  VALUE

  0000                00160         extern  _DDRC
  0000                00161         extern  _TRISC
  0000                00162         extern  _OSCTUNE
  0000                00163         extern  _PIE1
  0000                00164         extern  _PIR1
  0000                00165         extern  _IPR1
  0000                00166         extern  _PIE2
  0000                00167         extern  _PIR2
  0000                00168         extern  _IPR2
  0000                00169         extern  _EECON1
  0000                00170         extern  _EECON2
  0000                00171         extern  _EEDATA
  0000                00172         extern  _EEADR
  0000                00173         extern  _RCSTA
  0000                00174         extern  _TXSTA
  0000                00175         extern  _TXREG
  0000                00176         extern  _RCREG
  0000                00177         extern  _SPBRG
  0000                00178         extern  _SPBRGH
  0000                00179         extern  _T3CON
  0000                00180         extern  _TMR3
  0000                00181         extern  _TMR3L
  0000                00182         extern  _TMR3H
  0000                00183         extern  _CMCON
  0000                00184         extern  _CVRCON
  0000                00185         extern  _CCP1AS
  0000                00186         extern  _ECCP1AS
  0000                00187         extern  _CCP1DEL
  0000                00188         extern  _ECCP1DEL
  0000                00189         extern  _BAUDCON
  0000                00190         extern  _BAUDCTL
  0000                00191         extern  _CCP2CON
  0000                00192         extern  _CCPR2
  0000                00193         extern  _CCPR2L
  0000                00194         extern  _CCPR2H
  0000                00195         extern  _CCP1CON
  0000                00196         extern  _CCPR1
  0000                00197         extern  _CCPR1L
  0000                00198         extern  _CCPR1H
  0000                00199         extern  _ADCON2
  0000                00200         extern  _ADCON1
  0000                00201         extern  _ADCON0
  0000                00202         extern  _ADRES
  0000                00203         extern  _ADRESL
  0000                00204         extern  _ADRESH
  0000                00205         extern  _SSPCON2
  0000                00206         extern  _SSPCON1
  0000                00207         extern  _SSPSTAT
  0000                00208         extern  _SSPADD
  0000                00209         extern  _SSPBUF
  0000                00210         extern  _T2CON
  0000                00211         extern  _PR2
  0000                00212         extern  _TMR2
gpasm-1.5.0 #1285 (Jul 12 2020) obj/sdcc-18f2   11/12/23  13:12:39          PAGE  5


LOC    OBJECT CODE    LINE  SOURCE TEXT
  VALUE

  0000                00213         extern  _T1CON
  0000                00214         extern  _TMR1
  0000                00215         extern  _TMR1L
  0000                00216         extern  _TMR1H
  0000                00217         extern  _RCON
  0000                00218         extern  _WDTCON
  0000                00219         extern  _HLVDCON
  0000                00220         extern  _LVDCON
  0000                00221         extern  _OSCCON
  0000                00222         extern  _T0CON
  0000                00223         extern  _TMR0
  0000                00224         extern  _TMR0L
  0000                00225         extern  _TMR0H
  0000                00226         extern  _STATUS
  0000                00227         extern  _FSR2L
  0000                00228         extern  _FSR2H
  0000                00229         extern  _PLUSW2
  0000                00230         extern  _PREINC2
  0000                00231         extern  _POSTDEC2
  0000                00232         extern  _POSTINC2
  0000                00233         extern  _INDF2
  0000                00234         extern  _BSR
  0000                00235         extern  _FSR1L
  0000                00236         extern  _FSR1H
  0000                00237         extern  _PLUSW1
  0000                00238         extern  _PREINC1
  0000                00239         extern  _POSTDEC1
  0000                00240         extern  _POSTINC1
  0000                00241         extern  _INDF1
  0000                00242         extern  _WREG
  0000                00243         extern  _FSR0L
  0000                00244         extern  _FSR0H
  0000                00245         extern  _PLUSW0
  0000                00246         extern  _PREINC0
  0000                00247         extern  _POSTDEC0
  0000                00248         extern  _POSTINC0
  0000                00249         extern  _INDF0
  0000                00250         extern  _INTCON3
  0000                00251         extern  _INTCON2
  0000                00252         extern  _INTCON
  0000                00253         extern  _PROD
  0000                00254         extern  _PRODL
  0000                00255         extern  _PRODH
  0000                00256         extern  _TABLAT
  0000                00257         extern  _TBLPTR
  0000                00258         extern  _TBLPTRL
  0000                00259         extern  _TBLPTRH
  0000                00260         extern  _TBLPTRU
  0000                00261         extern  _PC
  0000                00262         extern  _PCL
  0000                00263         extern  _PCLATH
  0000                00264         extern  _PCLATU
  0000                00265         extern  _STKPTR
gpasm-1.5.0 #1285 (Jul 12 2020) obj/sdcc-18f2   11/12/23  13:12:39          PAGE  6


LOC    OBJECT CODE    LINE  SOURCE TEXT
  VALUE

  0000                00266         extern  _TOS
  0000                00267         extern  _TOSL
  0000                00268         extern  _TOSH
  0000                00269         extern  _TOSU
  0000                00270         extern  _lcd_init
  0000                00271         extern  _lcd_begin
  0000                00272         extern  _lcd_clear
  0000                00273         extern  _lcd_gotoxy
  0000                00274         extern  _lcd_putch
  0000                00275         extern  _timer0_init
  0000                00276         extern  _timer2_init
  0000                00277         extern  _ser_putch
  0000                00278         extern  _ser_puts
  0000                00279         extern  _ser_init
  0000                00280         extern  _calibrate
  0000                00281         extern  _measure_capacitance
  0000                00282         extern  _measure_inductance
  0000                00283         extern  _lcd_puts
  0000                00284         extern  _print_indicator
  0000                00285         extern  _format_number
  0000                00286         extern  _format_float
  0000                00287         extern  __divuint
  0000                00288         extern  _logo_image
                      00289 
                      00290 ;--------------------------------------------------------
                      00291 ;       Equates to used internal registers
                      00292 ;--------------------------------------------------------
  00000FD8            00293 STATUS  equ     0xfd8
  00000FFA            00294 PCLATH  equ     0xffa
  00000FFB            00295 PCLATU  equ     0xffb
  00000FE8            00296 WREG    equ     0xfe8
  00000FE0            00297 BSR     equ     0xfe0
  00000FE9            00298 FSR0L   equ     0xfe9
  00000FEA            00299 FSR0H   equ     0xfea
  00000FE1            00300 FSR1L   equ     0xfe1
  00000FD9            00301 FSR2L   equ     0xfd9
  00000FEF            00302 INDF0   equ     0xfef
  00000FE6            00303 POSTINC1        equ     0xfe6
  00000FE5            00304 POSTDEC1        equ     0xfe5
  00000FE4            00305 PREINC1 equ     0xfe4
  00000FF3            00306 PRODL   equ     0xff3
  00000FF4            00307 PRODH   equ     0xff4
                      00308 
                      00309 
                      00310         idata
000000 FF             00311 _mode   db      0xff
000001 00 00          00312 _blink  db      0x00, 0x00
000003 00             00313 _testloop_led_65536_69  db      0x00
000004 00 00          00314 _testloop_prev_s_65536_69       db      0x00, 0x00
                      00315 
                      00316 
                      00317 ; Internal registers
                      00318 .registers      udata_ovr       0x0000
gpasm-1.5.0 #1285 (Jul 12 2020) obj/sdcc-18f2   11/12/23  13:12:39          PAGE  7


LOC    OBJECT CODE    LINE  SOURCE TEXT
  VALUE

000000                00319 r0x00   res     1
000001                00320 r0x01   res     1
000002                00321 r0x02   res     1
000003                00322 r0x03   res     1
000004                00323 r0x04   res     1
                      00324 
                      00325 udata_LC_meter_0        udata
000000                00326 _msecs  res     4
                      00327 
                      00328 udata_LC_meter_1        udata
000000                00329 _timer1of       res     4
                      00330 
                      00331 udata_LC_meter_2        udata
000000                00332 _F1     res     4
                      00333 
                      00334 udata_LC_meter_3        udata
000000                00335 _F2     res     4
                      00336 
                      00337 udata_LC_meter_4        udata
000000                00338 _F3     res     4
                      00339 
                      00340 udata_LC_meter_5        udata
000000                00341 _bres   res     4
                      00342 
                      00343 udata_LC_meter_6        udata
000000                00344 _msecpart       res     2
                      00345 
                      00346 udata_LC_meter_7        udata
000000                00347 _led_cycle      res     2
                      00348 
                      00349 udata_LC_meter_8        udata
000000                00350 _seconds        res     4
                      00351 
                      00352 udata_LC_meter_9        udata
000000                00353 _led_interval   res     2
                      00354 
                      00355 udata_LC_meter_10       udata
000000                00356 _CCal   res     4
                      00357 
                      00358 ;--------------------------------------------------------
                      00359 ; interrupt vector
                      00360 ;--------------------------------------------------------
                      00361 
                      00362 ;--------------------------------------------------------
                      00363 ; global & static initialisations
                      00364 ;--------------------------------------------------------
                      00365 ; ; Starting pCode block for absolute section
                      00366 ; ;-----------------------------------------
                      00367 S_LC_meter_ivec_0x1_isr code    0X000008
000008                00368 ivec_0x1_isr:
000008 EF00 F000      00369         GOTO    _isr
                      00370 
                      00371 ; I code from now on!
gpasm-1.5.0 #1285 (Jul 12 2020) obj/sdcc-18f2   11/12/23  13:12:39          PAGE  8


LOC    OBJECT CODE    LINE  SOURCE TEXT
  VALUE

                      00372 ; ; Starting pCode block
                      00373 S_LC_meter__main        code
000000                00374 _main:
000000 010?           00375         BANKSEL _seconds
                      00376 ;       .line   117; LC-meter.c bres = msecpart = msecs = seconds = 0;
000002 6B??           00377         CLRF    _seconds, B
000004 010?           00378         BANKSEL (_seconds + 1)
000006 6B??           00379         CLRF    (_seconds + 1), B
000008 010?           00380         BANKSEL (_seconds + 2)
00000A 6B??           00381         CLRF    (_seconds + 2), B
00000C 010?           00382         BANKSEL (_seconds + 3)
00000E 6B??           00383         CLRF    (_seconds + 3), B
000010 010?           00384         BANKSEL _msecs
000012 6B??           00385         CLRF    _msecs, B
000014 010?           00386         BANKSEL (_msecs + 1)
000016 6B??           00387         CLRF    (_msecs + 1), B
000018 010?           00388         BANKSEL (_msecs + 2)
00001A 6B??           00389         CLRF    (_msecs + 2), B
00001C 010?           00390         BANKSEL (_msecs + 3)
00001E 6B??           00391         CLRF    (_msecs + 3), B
000020 010?           00392         BANKSEL _msecpart
000022 6B??           00393         CLRF    _msecpart, B
000024 010?           00394         BANKSEL (_msecpart + 1)
000026 6B??           00395         CLRF    (_msecpart + 1), B
000028 010?           00396         BANKSEL _bres
00002A 6B??           00397         CLRF    _bres, B
00002C 010?           00398         BANKSEL (_bres + 1)
00002E 6B??           00399         CLRF    (_bres + 1), B
000030 010?           00400         BANKSEL (_bres + 2)
000032 6B??           00401         CLRF    (_bres + 2), B
000034 010?           00402         BANKSEL (_bres + 3)
000036 6B??           00403         CLRF    (_bres + 3), B
                      00404 ;       .line   118; LC-meter.c mode = -1;
000038 0EFF           00405         MOVLW   0xff
00003A 010?           00406         BANKSEL _mode
00003C 6F??           00407         MOVWF   _mode, B
00003E 010?           00408         BANKSEL _CCal
                      00409 ;       .line   120; LC-meter.c CCal = C_CAL;
000040 6B??           00410         CLRF    _CCal, B
000042 010?           00411         BANKSEL (_CCal + 1)
000044 6B??           00412         CLRF    (_CCal + 1), B
000046 0E7A           00413         MOVLW   0x7a
000048 010?           00414         BANKSEL (_CCal + 2)
00004A 6F??           00415         MOVWF   (_CCal + 2), B
00004C 0E44           00416         MOVLW   0x44
00004E 010?           00417         BANKSEL (_CCal + 3)
000050 6F??           00418         MOVWF   (_CCal + 3), B
000052 010?           00419         BANKSEL _led_cycle
                      00420 ;       .line   122; LC-meter.c led_cycle = 0;
000054 6B??           00421         CLRF    _led_cycle, B
000056 010?           00422         BANKSEL (_led_cycle + 1)
000058 6B??           00423         CLRF    (_led_cycle + 1), B
                      00424 ;       .line   123; LC-meter.c led_interval = 500;
gpasm-1.5.0 #1285 (Jul 12 2020) obj/sdcc-18f2   11/12/23  13:12:39          PAGE  9


LOC    OBJECT CODE    LINE  SOURCE TEXT
  VALUE

00005A 0EF4           00425         MOVLW   0xf4
00005C 010?           00426         BANKSEL _led_interval
00005E 6F??           00427         MOVWF   _led_interval, B
000060 0E01           00428         MOVLW   0x01
000062 010?           00429         BANKSEL (_led_interval + 1)
000064 6F??           00430         MOVWF   (_led_interval + 1), B
                      00431 ;       .line   133; LC-meter.c TRISA = 0b11001111;
000066 0ECF           00432         MOVLW   0xcf
000068 6E??           00433         MOVWF   _TRISA
                      00434 ;       .line   135; LC-meter.c TRISB &= 0b00001111;
00006A 0E0F           00435         MOVLW   0x0f
00006C 16??           00436         ANDWF   _TRISB, F
                      00437 ;       .line   138; LC-meter.c timer0_init(PRESCALE_1_256 | TIMER0_FLAGS_EXTCLK | TIMER0_FLAGS_8BIT);
00006E 0E68           00438         MOVLW   0x68
000070 6EE5           00439         MOVWF   POSTDEC1
000072 EC?? F0??      00440         CALL    _timer0_init
000076 52E6           00441         MOVF    POSTINC1, F
                      00442 ;       .line   139; LC-meter.c timer2_init(TIMER2_PRESCALER | TIMER2_FLAGS_INTR);
000078 0E84           00443         MOVLW   0x84
00007A 6EE5           00444         MOVWF   POSTDEC1
00007C EC?? F0??      00445         CALL    _timer2_init
000080 52E6           00446         MOVF    POSTINC1, F
                      00447 ;       .line   146; LC-meter.c INTCON2 &= ~0b10000000; //   NOT_RBPU = 0; // enable portB internal pull
                            up
000082 9E??           00448         BCF     _INTCON2, 7
                      00449 ;       .line   154; LC-meter.c TRISC = 0b10110011;
000084 0EB3           00450         MOVLW   0xb3
000086 6E??           00451         MOVWF   _TRISC
                      00452 ;       .line   161; LC-meter.c INIT_LED();
000088 94??           00453         BCF     _TRISC, 2
                      00454 ;       .line   162; LC-meter.c SET_LED(1);
00008A 94??           00455         BCF     _LATC, 2
00008C 84??           00456         BSF     _LATC, 2
                      00457 ;       .line   164; LC-meter.c timer2_init(PRESCALE_1_1 | TIMER2_FLAGS_INTR);
00008E 0E80           00458         MOVLW   0x80
000090 6EE5           00459         MOVWF   POSTDEC1
000092 EC?? F0??      00460         CALL    _timer2_init
000096 52E6           00461         MOVF    POSTINC1, F
                      00462 ;       .line   171; LC-meter.c lcd_init(1);
000098 0E01           00463         MOVLW   0x01
00009A 6EE5           00464         MOVWF   POSTDEC1
00009C EC?? F0??      00465         CALL    _lcd_init
0000A0 52E6           00466         MOVF    POSTINC1, F
                      00467 ;       .line   172; LC-meter.c lcd_begin(2, 1);
0000A2 0E01           00468         MOVLW   0x01
0000A4 6EE5           00469         MOVWF   POSTDEC1
0000A6 0E02           00470         MOVLW   0x02
0000A8 6EE5           00471         MOVWF   POSTDEC1
0000AA EC?? F0??      00472         CALL    _lcd_begin
0000AE 52E6           00473         MOVF    POSTINC1, F
0000B0 52E6           00474         MOVF    POSTINC1, F
                      00475 ;       .line   175; LC-meter.c LC_TRIS();
0000B2 88??           00476         BSF     _TRISC, 4
gpasm-1.5.0 #1285 (Jul 12 2020) obj/sdcc-18f2   11/12/23  13:12:39          PAGE 10


LOC    OBJECT CODE    LINE  SOURCE TEXT
  VALUE

                      00477 ;       .line   176; LC-meter.c RELAY_TRIS();
0000B4 9A??           00478         BCF     _TRISC, 5
                      00479 ;       .line   178; LC-meter.c REMOVE_CCAL();
0000B6 9A??           00480         BCF     _LATC, 5
                      00481 ;       .line   179; LC-meter.c delay10ms(50);
0000B8 0E32           00482         MOVLW   0x32
0000BA 6EE5           00483         MOVWF   POSTDEC1
0000BC EC?? F0??      00484         CALL    _delay10ms
0000C0 52E6           00485         MOVF    POSTINC1, F
                      00486 ;       .line   180; LC-meter.c ADD_CCAL();
0000C2 8A??           00487         BSF     _LATC, 5
                      00488 ;       .line   181; LC-meter.c delay10ms(50);
0000C4 0E32           00489         MOVLW   0x32
0000C6 6EE5           00490         MOVWF   POSTDEC1
0000C8 EC?? F0??      00491         CALL    _delay10ms
0000CC 52E6           00492         MOVF    POSTINC1, F
                      00493 ;       .line   182; LC-meter.c REMOVE_CCAL();
0000CE 9A??           00494         BCF     _LATC, 5
                      00495 ;       .line   183; LC-meter.c delay10ms(50);
0000D0 0E32           00496         MOVLW   0x32
0000D2 6EE5           00497         MOVWF   POSTDEC1
0000D4 EC?? F0??      00498         CALL    _delay10ms
0000D8 52E6           00499         MOVF    POSTINC1, F
                      00500 ;       .line   184; LC-meter.c ADD_CCAL();
0000DA 8A??           00501         BSF     _LATC, 5
                      00502 ;       .line   185; LC-meter.c delay10ms(50);
0000DC 0E32           00503         MOVLW   0x32
0000DE 6EE5           00504         MOVWF   POSTDEC1
0000E0 EC?? F0??      00505         CALL    _delay10ms
0000E4 52E6           00506         MOVF    POSTINC1, F
                      00507 ;       .line   186; LC-meter.c REMOVE_CCAL();
0000E6 9A??           00508         BCF     _LATC, 5
                      00509 ;       .line   189; LC-meter.c ser_init();
0000E8 EC?? F0??      00510         CALL    _ser_init
                      00511 ;       .line   196; LC-meter.c INTCON |= 0xc0; // PEIE = 1; GIE = 1;
0000EC 0EC0           00512         MOVLW   0xc0
0000EE 12??           00513         IORWF   _INTCON, F
                      00514 ;       .line   202; LC-meter.c lcd_gotoxy(0, 0);
0000F0 0E00           00515         MOVLW   0x00
0000F2 6EE5           00516         MOVWF   POSTDEC1
0000F4 0E00           00517         MOVLW   0x00
0000F6 6EE5           00518         MOVWF   POSTDEC1
0000F8 EC?? F0??      00519         CALL    _lcd_gotoxy
0000FC 52E6           00520         MOVF    POSTINC1, F
0000FE 52E6           00521         MOVF    POSTINC1, F
                      00522 ;       .line   204; LC-meter.c lcd_puts("LC-meter ");
000100 0E??           00523         MOVLW   UPPER(___str_0)
000102 6E??           00524         MOVWF   r0x02
000104 0E??           00525         MOVLW   HIGH(___str_0)
000106 6E??           00526         MOVWF   r0x01
000108 0E??           00527         MOVLW   LOW(___str_0)
00010A 6E??           00528         MOVWF   r0x00
00010C 50??           00529         MOVF    r0x02, W
gpasm-1.5.0 #1285 (Jul 12 2020) obj/sdcc-18f2   11/12/23  13:12:39          PAGE 11


LOC    OBJECT CODE    LINE  SOURCE TEXT
  VALUE

00010E 6EE5           00530         MOVWF   POSTDEC1
000110 50??           00531         MOVF    r0x01, W
000112 6EE5           00532         MOVWF   POSTDEC1
000114 50??           00533         MOVF    r0x00, W
000116 6EE5           00534         MOVWF   POSTDEC1
000118 EC?? F0??      00535         CALL    _lcd_puts
00011C 0E03           00536         MOVLW   0x03
00011E 26E1           00537         ADDWF   FSR1L, F
000120 010?           00538         BANKSEL (_CCal + 3)
                      00539 ;       .line   205; LC-meter.c format_float(&lcd_putch, CCal);
000122 51??           00540         MOVF    (_CCal + 3), W, B
000124 6EE5           00541         MOVWF   POSTDEC1
000126 010?           00542         BANKSEL (_CCal + 2)
000128 51??           00543         MOVF    (_CCal + 2), W, B
00012A 6EE5           00544         MOVWF   POSTDEC1
00012C 010?           00545         BANKSEL (_CCal + 1)
00012E 51??           00546         MOVF    (_CCal + 1), W, B
000130 6EE5           00547         MOVWF   POSTDEC1
000132 010?           00548         BANKSEL _CCal
000134 51??           00549         MOVF    _CCal, W, B
000136 6EE5           00550         MOVWF   POSTDEC1
000138 0E??           00551         MOVLW   UPPER(_lcd_putch)
00013A 6EE5           00552         MOVWF   POSTDEC1
00013C 0E??           00553         MOVLW   HIGH(_lcd_putch)
00013E 6EE5           00554         MOVWF   POSTDEC1
000140 0E??           00555         MOVLW   LOW(_lcd_putch)
000142 6EE5           00556         MOVWF   POSTDEC1
000144 EC?? F0??      00557         CALL    _format_float
000148 0E07           00558         MOVLW   0x07
00014A 26E1           00559         ADDWF   FSR1L, F
                      00560 ;       .line   211; LC-meter.c delay10ms(200);
00014C 0EC8           00561         MOVLW   0xc8
00014E 6EE5           00562         MOVWF   POSTDEC1
000150 EC?? F0??      00563         CALL    _delay10ms
000154 52E6           00564         MOVF    POSTINC1, F
                      00565 ;       .line   214; LC-meter.c calibrate();
000156 EC?? F0??      00566         CALL    _calibrate
                      00567 ;       .line   217; LC-meter.c lcd_clear();
00015A EC?? F0??      00568         CALL    _lcd_clear
00015E                00569 _00189_DS_:
                      00570 ;       .line   226; LC-meter.c char new_mode = LC_SELECT;
00015E 50??           00571         MOVF    _PORTC, W
000160 0B10           00572         ANDLW   0x10
000162 38E8           00573         SWAPF   WREG, W
000164 6E??           00574         MOVWF   r0x00
000166 50??           00575         MOVF    r0x00, W
000168 80D8           00576         BSF     STATUS, 0
00016A 66E8           00577         TSTFSZ  WREG
00016C 90D8           00578         BCF     STATUS, 0
00016E 6A??           00579         CLRF    r0x00
000170 36??           00580         RLCF    r0x00, F
000172 50??           00581         MOVF    r0x00, W
000174 80D8           00582         BSF     STATUS, 0
gpasm-1.5.0 #1285 (Jul 12 2020) obj/sdcc-18f2   11/12/23  13:12:39          PAGE 12


LOC    OBJECT CODE    LINE  SOURCE TEXT
  VALUE

000176 66E8           00583         TSTFSZ  WREG
000178 90D8           00584         BCF     STATUS, 0
00017A 6A??           00585         CLRF    r0x00
00017C 36??           00586         RLCF    r0x00, F
                      00587 ;       .line   228; LC-meter.c if(new_mode != mode) {
00017E 50??           00588         MOVF    r0x00, W
000180 010?           00589         BANKSEL _mode
000182 19??           00590         XORWF   _mode, W, B
000184 E0??           00591         BZ      _00182_DS_
000186                00592 _00229_DS_:
000186 010?           00593         BANKSEL _mode
                      00594 ;       .line   230; LC-meter.c ser_puts(mode ? "- C (Unit: F) -" : "- L (Unit: H) -");
000188 51??           00595         MOVF    _mode, W, B
00018A E0??           00596         BZ      _00193_DS_
00018C 0E??           00597         MOVLW   LOW(___str_1)
00018E 6E??           00598         MOVWF   r0x01
000190 0E??           00599         MOVLW   HIGH(___str_1)
000192 6E??           00600         MOVWF   r0x02
000194 0E??           00601         MOVLW   UPPER(___str_1)
000196 6E??           00602         MOVWF   r0x03
000198 D???           00603         BRA     _00194_DS_
00019A                00604 _00193_DS_:
00019A 0E??           00605         MOVLW   LOW(___str_2)
00019C 6E??           00606         MOVWF   r0x01
00019E 0E??           00607         MOVLW   HIGH(___str_2)
0001A0 6E??           00608         MOVWF   r0x02
0001A2 0E??           00609         MOVLW   UPPER(___str_2)
0001A4 6E??           00610         MOVWF   r0x03
0001A6                00611 _00194_DS_:
0001A6 50??           00612         MOVF    r0x03, W
0001A8 6E??           00613         MOVWF   r0x03
0001AA 50??           00614         MOVF    r0x02, W
0001AC 6E??           00615         MOVWF   r0x02
0001AE 50??           00616         MOVF    r0x01, W
0001B0 6E??           00617         MOVWF   r0x01
0001B2 50??           00618         MOVF    r0x03, W
0001B4 6EE5           00619         MOVWF   POSTDEC1
0001B6 50??           00620         MOVF    r0x02, W
0001B8 6EE5           00621         MOVWF   POSTDEC1
0001BA 50??           00622         MOVF    r0x01, W
0001BC 6EE5           00623         MOVWF   POSTDEC1
0001BE EC?? F0??      00624         CALL    _ser_puts
0001C2 0E03           00625         MOVLW   0x03
0001C4 26E1           00626         ADDWF   FSR1L, F
                      00627 ;       .line   231; LC-meter.c ser_puts("\r\n");
0001C6 0E??           00628         MOVLW   UPPER(___str_3)
0001C8 6E??           00629         MOVWF   r0x03
0001CA 0E??           00630         MOVLW   HIGH(___str_3)
0001CC 6E??           00631         MOVWF   r0x02
0001CE 0E??           00632         MOVLW   LOW(___str_3)
0001D0 6E??           00633         MOVWF   r0x01
0001D2 50??           00634         MOVF    r0x03, W
0001D4 6EE5           00635         MOVWF   POSTDEC1
gpasm-1.5.0 #1285 (Jul 12 2020) obj/sdcc-18f2   11/12/23  13:12:39          PAGE 13


LOC    OBJECT CODE    LINE  SOURCE TEXT
  VALUE

0001D6 50??           00636         MOVF    r0x02, W
0001D8 6EE5           00637         MOVWF   POSTDEC1
0001DA 50??           00638         MOVF    r0x01, W
0001DC 6EE5           00639         MOVWF   POSTDEC1
0001DE EC?? F0??      00640         CALL    _ser_puts
0001E2 0E03           00641         MOVLW   0x03
0001E4 26E1           00642         ADDWF   FSR1L, F
                      00643 ;       .line   233; LC-meter.c mode = new_mode;
0001E6 C??? F???      00644         MOVFF   r0x00, _mode
0001EA                00645 _00182_DS_:
0001EA 010?           00646         BANKSEL (_led_interval + 1)
                      00647 ;       .line   236; LC-meter.c if(led_cycle >= led_interval)
0001EC 51??           00648         MOVF    (_led_interval + 1), W, B
0001EE 010?           00649         BANKSEL (_led_cycle + 1)
0001F0 5D??           00650         SUBWF   (_led_cycle + 1), W, B
0001F2 E1??           00651         BNZ     _00230_DS_
0001F4 010?           00652         BANKSEL _led_interval
0001F6 51??           00653         MOVF    _led_interval, W, B
0001F8 010?           00654         BANKSEL _led_cycle
0001FA 5D??           00655         SUBWF   _led_cycle, W, B
0001FC                00656 _00230_DS_:
0001FC E3??           00657         BNC     _00184_DS_
0001FE 010?           00658         BANKSEL _led_cycle
                      00659 ;       .line   237; LC-meter.c led_cycle = 0;
000200 6B??           00660         CLRF    _led_cycle, B
000202 010?           00661         BANKSEL (_led_cycle + 1)
000204 6B??           00662         CLRF    (_led_cycle + 1), B
000206                00663 _00184_DS_:
000206 010?           00664         BANKSEL _mode
                      00665 ;       .line   239; LC-meter.c if(mode)
000208 51??           00666         MOVF    _mode, W, B
00020A E0??           00667         BZ      _00186_DS_
                      00668 ;       .line   240; LC-meter.c measure_capacitance();
00020C EC?? F0??      00669         CALL    _measure_capacitance
000210 D???           00670         BRA     _00187_DS_
000212                00671 _00186_DS_:
                      00672 ;       .line   242; LC-meter.c measure_inductance();
000212 EC?? F0??      00673         CALL    _measure_inductance
000216                00674 _00187_DS_:
                      00675 ;       .line   244; LC-meter.c print_indicator(1);
000216 0E01           00676         MOVLW   0x01
000218 6EE5           00677         MOVWF   POSTDEC1
00021A EC?? F0??      00678         CALL    _print_indicator
00021E 52E6           00679         MOVF    POSTINC1, F
                      00680 ;       .line   245; LC-meter.c delay10ms(30);
000220 0E1E           00681         MOVLW   0x1e
000222 6EE5           00682         MOVWF   POSTDEC1
000224 EC?? F0??      00683         CALL    _delay10ms
000228 52E6           00684         MOVF    POSTINC1, F
                      00685 ;       .line   247; LC-meter.c print_indicator(0);
00022A 0E00           00686         MOVLW   0x00
00022C 6EE5           00687         MOVWF   POSTDEC1
00022E EC?? F0??      00688         CALL    _print_indicator
gpasm-1.5.0 #1285 (Jul 12 2020) obj/sdcc-18f2   11/12/23  13:12:39          PAGE 14


LOC    OBJECT CODE    LINE  SOURCE TEXT
  VALUE

000232 52E6           00689         MOVF    POSTINC1, F
                      00690 ;       .line   248; LC-meter.c delay10ms(20);
000234 0E14           00691         MOVLW   0x14
000236 6EE5           00692         MOVWF   POSTDEC1
000238 EC?? F0??      00693         CALL    _delay10ms
00023C 52E6           00694         MOVF    POSTINC1, F
00023E D???           00695         BRA     _00189_DS_
                      00696 ;       .line   250; LC-meter.c }
000240 0012           00697         RETURN  
                      00698 
                      00699 ; ; Starting pCode block
                      00700 S_LC_meter__testloop    code
000000                00701 _testloop:
                      00702 ;       .line   253; LC-meter.c testloop() {
000000 CFD9 FFE5      00703         MOVFF   FSR2L, POSTDEC1
000004 CFE1 FFD9      00704         MOVFF   FSR1L, FSR2L
000008 C??? F???      00705         MOVFF   r0x00, POSTDEC1
00000C C??? F???      00706         MOVFF   r0x01, POSTDEC1
000010 C??? F???      00707         MOVFF   r0x02, POSTDEC1
000014 C??? F???      00708         MOVFF   r0x03, POSTDEC1
000018 C??? F???      00709         MOVFF   r0x04, POSTDEC1
                      00710 ;       .line   259; LC-meter.c delay10ms(10);
00001C 0E0A           00711         MOVLW   0x0a
00001E 6EE5           00712         MOVWF   POSTDEC1
000020 EC?? F0??      00713         CALL    _delay10ms
000024 52E6           00714         MOVF    POSTINC1, F
                      00715 ;       .line   261; LC-meter.c INTCON &= ~0x80; // GIE = 0;
000026 9E??           00716         BCF     _INTCON, 7
000028 010?           00717         BANKSEL _seconds
                      00718 ;       .line   262; LC-meter.c s = seconds;
00002A 51??           00719         MOVF    _seconds, W, B
00002C 6E??           00720         MOVWF   r0x00
00002E 010?           00721         BANKSEL (_seconds + 1)
000030 51??           00722         MOVF    (_seconds + 1), W, B
000032 6E??           00723         MOVWF   r0x01
                      00724 ;       .line   263; LC-meter.c INTCON |= 0x80; // GIE = 1;
000034 8E??           00725         BSF     _INTCON, 7
                      00726 ;       .line   273; LC-meter.c lcd_gotoxy(10, 0);
000036 0E00           00727         MOVLW   0x00
000038 6EE5           00728         MOVWF   POSTDEC1
00003A 0E0A           00729         MOVLW   0x0a
00003C 6EE5           00730         MOVWF   POSTDEC1
00003E EC?? F0??      00731         CALL    _lcd_gotoxy
000042 52E6           00732         MOVF    POSTINC1, F
000044 52E6           00733         MOVF    POSTINC1, F
                      00734 ;       .line   274; LC-meter.c lcd_puts("      ");
000046 0E??           00735         MOVLW   UPPER(___str_4)
000048 6E??           00736         MOVWF   r0x04
00004A 0E??           00737         MOVLW   HIGH(___str_4)
00004C 6E??           00738         MOVWF   r0x03
00004E 0E??           00739         MOVLW   LOW(___str_4)
000050 6E??           00740         MOVWF   r0x02
000052 50??           00741         MOVF    r0x04, W
gpasm-1.5.0 #1285 (Jul 12 2020) obj/sdcc-18f2   11/12/23  13:12:39          PAGE 15


LOC    OBJECT CODE    LINE  SOURCE TEXT
  VALUE

000054 6EE5           00742         MOVWF   POSTDEC1
000056 50??           00743         MOVF    r0x03, W
000058 6EE5           00744         MOVWF   POSTDEC1
00005A 50??           00745         MOVF    r0x02, W
00005C 6EE5           00746         MOVWF   POSTDEC1
00005E EC?? F0??      00747         CALL    _lcd_puts
000062 0E03           00748         MOVLW   0x03
000064 26E1           00749         ADDWF   FSR1L, F
                      00750 ;       .line   275; LC-meter.c lcd_gotoxy(10, 0);
000066 0E00           00751         MOVLW   0x00
000068 6EE5           00752         MOVWF   POSTDEC1
00006A 0E0A           00753         MOVLW   0x0a
00006C 6EE5           00754         MOVWF   POSTDEC1
00006E EC?? F0??      00755         CALL    _lcd_gotoxy
000072 52E6           00756         MOVF    POSTINC1, F
000074 52E6           00757         MOVF    POSTINC1, F
                      00758 ;       .line   277; LC-meter.c format_number(&lcd_putch, s, 10, 5);
000076 0E05           00759         MOVLW   0x05
000078 6EE5           00760         MOVWF   POSTDEC1
00007A 0E0A           00761         MOVLW   0x0a
00007C 6EE5           00762         MOVWF   POSTDEC1
00007E 50??           00763         MOVF    r0x01, W
000080 6EE5           00764         MOVWF   POSTDEC1
000082 50??           00765         MOVF    r0x00, W
000084 6EE5           00766         MOVWF   POSTDEC1
000086 0E??           00767         MOVLW   UPPER(_lcd_putch)
000088 6EE5           00768         MOVWF   POSTDEC1
00008A 0E??           00769         MOVLW   HIGH(_lcd_putch)
00008C 6EE5           00770         MOVWF   POSTDEC1
00008E 0E??           00771         MOVLW   LOW(_lcd_putch)
000090 6EE5           00772         MOVWF   POSTDEC1
000092 EC?? F0??      00773         CALL    _format_number
000096 0E07           00774         MOVLW   0x07
000098 26E1           00775         ADDWF   FSR1L, F
                      00776 ;       .line   279; LC-meter.c lcd_gotoxy(10, 1);
00009A 0E01           00777         MOVLW   0x01
00009C 6EE5           00778         MOVWF   POSTDEC1
00009E 0E0A           00779         MOVLW   0x0a
0000A0 6EE5           00780         MOVWF   POSTDEC1
0000A2 EC?? F0??      00781         CALL    _lcd_gotoxy
0000A6 52E6           00782         MOVF    POSTINC1, F
0000A8 52E6           00783         MOVF    POSTINC1, F
                      00784 ;       .line   280; LC-meter.c lcd_puts("      ");
0000AA 0E??           00785         MOVLW   UPPER(___str_4)
0000AC 6E??           00786         MOVWF   r0x04
0000AE 0E??           00787         MOVLW   HIGH(___str_4)
0000B0 6E??           00788         MOVWF   r0x03
0000B2 0E??           00789         MOVLW   LOW(___str_4)
0000B4 6E??           00790         MOVWF   r0x02
0000B6 50??           00791         MOVF    r0x04, W
0000B8 6EE5           00792         MOVWF   POSTDEC1
0000BA 50??           00793         MOVF    r0x03, W
0000BC 6EE5           00794         MOVWF   POSTDEC1
gpasm-1.5.0 #1285 (Jul 12 2020) obj/sdcc-18f2   11/12/23  13:12:39          PAGE 16


LOC    OBJECT CODE    LINE  SOURCE TEXT
  VALUE

0000BE 50??           00795         MOVF    r0x02, W
0000C0 6EE5           00796         MOVWF   POSTDEC1
0000C2 EC?? F0??      00797         CALL    _lcd_puts
0000C6 0E03           00798         MOVLW   0x03
0000C8 26E1           00799         ADDWF   FSR1L, F
                      00800 ;       .line   281; LC-meter.c lcd_gotoxy(10, 1);
0000CA 0E01           00801         MOVLW   0x01
0000CC 6EE5           00802         MOVWF   POSTDEC1
0000CE 0E0A           00803         MOVLW   0x0a
0000D0 6EE5           00804         MOVWF   POSTDEC1
0000D2 EC?? F0??      00805         CALL    _lcd_gotoxy
0000D6 52E6           00806         MOVF    POSTINC1, F
0000D8 52E6           00807         MOVF    POSTINC1, F
                      00808 ;       .line   284; LC-meter.c lcd_gotoxy(0, 1);
0000DA 0E01           00809         MOVLW   0x01
0000DC 6EE5           00810         MOVWF   POSTDEC1
0000DE 0E00           00811         MOVLW   0x00
0000E0 6EE5           00812         MOVWF   POSTDEC1
0000E2 EC?? F0??      00813         CALL    _lcd_gotoxy
0000E6 52E6           00814         MOVF    POSTINC1, F
0000E8 52E6           00815         MOVF    POSTINC1, F
                      00816 ;       .line   285; LC-meter.c lcd_puts("     ");
0000EA 0E??           00817         MOVLW   UPPER(___str_5)
0000EC 6E??           00818         MOVWF   r0x04
0000EE 0E??           00819         MOVLW   HIGH(___str_5)
0000F0 6E??           00820         MOVWF   r0x03
0000F2 0E??           00821         MOVLW   LOW(___str_5)
0000F4 6E??           00822         MOVWF   r0x02
0000F6 50??           00823         MOVF    r0x04, W
0000F8 6EE5           00824         MOVWF   POSTDEC1
0000FA 50??           00825         MOVF    r0x03, W
0000FC 6EE5           00826         MOVWF   POSTDEC1
0000FE 50??           00827         MOVF    r0x02, W
000100 6EE5           00828         MOVWF   POSTDEC1
000102 EC?? F0??      00829         CALL    _lcd_puts
000106 0E03           00830         MOVLW   0x03
000108 26E1           00831         ADDWF   FSR1L, F
                      00832 ;       .line   286; LC-meter.c lcd_gotoxy(0, 1);
00010A 0E01           00833         MOVLW   0x01
00010C 6EE5           00834         MOVWF   POSTDEC1
00010E 0E00           00835         MOVLW   0x00
000110 6EE5           00836         MOVWF   POSTDEC1
000112 EC?? F0??      00837         CALL    _lcd_gotoxy
000116 52E6           00838         MOVF    POSTINC1, F
000118 52E6           00839         MOVF    POSTINC1, F
                      00840 ;       .line   287; LC-meter.c lcd_puts("RC4=");
00011A 0E??           00841         MOVLW   UPPER(___str_6)
00011C 6E??           00842         MOVWF   r0x04
00011E 0E??           00843         MOVLW   HIGH(___str_6)
000120 6E??           00844         MOVWF   r0x03
000122 0E??           00845         MOVLW   LOW(___str_6)
000124 6E??           00846         MOVWF   r0x02
000126 50??           00847         MOVF    r0x04, W
gpasm-1.5.0 #1285 (Jul 12 2020) obj/sdcc-18f2   11/12/23  13:12:39          PAGE 17


LOC    OBJECT CODE    LINE  SOURCE TEXT
  VALUE

000128 6EE5           00848         MOVWF   POSTDEC1
00012A 50??           00849         MOVF    r0x03, W
00012C 6EE5           00850         MOVWF   POSTDEC1
00012E 50??           00851         MOVF    r0x02, W
000130 6EE5           00852         MOVWF   POSTDEC1
000132 EC?? F0??      00853         CALL    _lcd_puts
000136 0E03           00854         MOVLW   0x03
000138 26E1           00855         ADDWF   FSR1L, F
                      00856 ;       .line   290; LC-meter.c lcd_putch(LC_SELECT != 0 ? '1' : '0');
00013A 50??           00857         MOVF    _PORTC, W
00013C 0B10           00858         ANDLW   0x10
00013E 38E8           00859         SWAPF   WREG, W
000140 6E??           00860         MOVWF   r0x02
000142 50??           00861         MOVF    r0x02, W
000144 80D8           00862         BSF     STATUS, 0
000146 66E8           00863         TSTFSZ  WREG
000148 90D8           00864         BCF     STATUS, 0
00014A 6A??           00865         CLRF    r0x02
00014C 36??           00866         RLCF    r0x02, F
00014E 50??           00867         MOVF    r0x02, W
000150 E1??           00868         BNZ     _00239_DS_
000152 0E31           00869         MOVLW   0x31
000154 6E??           00870         MOVWF   r0x02
000156 6A??           00871         CLRF    r0x03
000158 D???           00872         BRA     _00240_DS_
00015A                00873 _00239_DS_:
00015A 0E30           00874         MOVLW   0x30
00015C 6E??           00875         MOVWF   r0x02
00015E 6A??           00876         CLRF    r0x03
000160                00877 _00240_DS_:
000160 50??           00878         MOVF    r0x02, W
000162 6EE5           00879         MOVWF   POSTDEC1
000164 EC?? F0??      00880         CALL    _lcd_putch
000168 52E6           00881         MOVF    POSTINC1, F
                      00882 ;       .line   294; LC-meter.c if(s != prev_s) {
00016A 50??           00883         MOVF    r0x00, W
00016C 010?           00884         BANKSEL _testloop_prev_s_65536_69
00016E 19??           00885         XORWF   _testloop_prev_s_65536_69, W, B
000170 E1??           00886         BNZ     _00252_DS_
000172 50??           00887         MOVF    r0x01, W
000174 010?           00888         BANKSEL (_testloop_prev_s_65536_69 + 1)
000176 19??           00889         XORWF   (_testloop_prev_s_65536_69 + 1), W, B
000178 E0??           00890         BZ      _00237_DS_
00017A                00891 _00252_DS_:
                      00892 ;       .line   296; LC-meter.c format_number(&ser_putch, s, 10, 0);
00017A 0E00           00893         MOVLW   0x00
00017C 6EE5           00894         MOVWF   POSTDEC1
00017E 0E0A           00895         MOVLW   0x0a
000180 6EE5           00896         MOVWF   POSTDEC1
000182 50??           00897         MOVF    r0x01, W
000184 6EE5           00898         MOVWF   POSTDEC1
000186 50??           00899         MOVF    r0x00, W
000188 6EE5           00900         MOVWF   POSTDEC1
gpasm-1.5.0 #1285 (Jul 12 2020) obj/sdcc-18f2   11/12/23  13:12:39          PAGE 18


LOC    OBJECT CODE    LINE  SOURCE TEXT
  VALUE

00018A 0E??           00901         MOVLW   UPPER(_ser_putch)
00018C 6EE5           00902         MOVWF   POSTDEC1
00018E 0E??           00903         MOVLW   HIGH(_ser_putch)
000190 6EE5           00904         MOVWF   POSTDEC1
000192 0E??           00905         MOVLW   LOW(_ser_putch)
000194 6EE5           00906         MOVWF   POSTDEC1
000196 EC?? F0??      00907         CALL    _format_number
00019A 0E07           00908         MOVLW   0x07
00019C 26E1           00909         ADDWF   FSR1L, F
                      00910 ;       .line   298; LC-meter.c ser_puts("\r\n");
00019E 0E??           00911         MOVLW   UPPER(___str_3)
0001A0 6E??           00912         MOVWF   r0x04
0001A2 0E??           00913         MOVLW   HIGH(___str_3)
0001A4 6E??           00914         MOVWF   r0x03
0001A6 0E??           00915         MOVLW   LOW(___str_3)
0001A8 6E??           00916         MOVWF   r0x02
0001AA 50??           00917         MOVF    r0x04, W
0001AC 6EE5           00918         MOVWF   POSTDEC1
0001AE 50??           00919         MOVF    r0x03, W
0001B0 6EE5           00920         MOVWF   POSTDEC1
0001B2 50??           00921         MOVF    r0x02, W
0001B4 6EE5           00922         MOVWF   POSTDEC1
0001B6 EC?? F0??      00923         CALL    _ser_puts
0001BA 0E03           00924         MOVLW   0x03
0001BC 26E1           00925         ADDWF   FSR1L, F
                      00926 ;       .line   301; LC-meter.c prev_s = s;
0001BE C??? F???      00927         MOVFF   r0x00, _testloop_prev_s_65536_69
0001C2 C??? F???      00928         MOVFF   r0x01, (_testloop_prev_s_65536_69 + 1)
0001C6                00929 _00237_DS_:
                      00930 ;       .line   303; LC-meter.c }
0001C6 CFE4 F000      00931         MOVFF   PREINC1, r0x04
0001CA CFE4 F000      00932         MOVFF   PREINC1, r0x03
0001CE CFE4 F000      00933         MOVFF   PREINC1, r0x02
0001D2 CFE4 F000      00934         MOVFF   PREINC1, r0x01
0001D6 CFE4 F000      00935         MOVFF   PREINC1, r0x00
0001DA CFE4 FFD9      00936         MOVFF   PREINC1, FSR2L
0001DE 0012           00937         RETURN  
                      00938 
                      00939 ; ; Starting pCode block
                      00940 S_LC_meter__isr code
000000                00941 _isr:
                      00942 ;       .line   84; LC-meter.c  INTERRUPT_FN() {
000000 CFD8 FFE5      00943         MOVFF   STATUS, POSTDEC1
000004 CFE0 FFE5      00944         MOVFF   BSR, POSTDEC1
000008 6EE5           00945         MOVWF   POSTDEC1
00000A CFF3 FFE5      00946         MOVFF   PRODL, POSTDEC1
00000E CFF4 FFE5      00947         MOVFF   PRODH, POSTDEC1
000012 CFE9 FFE5      00948         MOVFF   FSR0L, POSTDEC1
000016 CFEA FFE5      00949         MOVFF   FSR0H, POSTDEC1
00001A CFFA FFE5      00950         MOVFF   PCLATH, POSTDEC1
00001E CFFB FFE5      00951         MOVFF   PCLATU, POSTDEC1
000022 CFD9 FFE5      00952         MOVFF   FSR2L, POSTDEC1
000026 CFE1 FFD9      00953         MOVFF   FSR1L, FSR2L
gpasm-1.5.0 #1285 (Jul 12 2020) obj/sdcc-18f2   11/12/23  13:12:39          PAGE 19


LOC    OBJECT CODE    LINE  SOURCE TEXT
  VALUE

00002A C??? F???      00954         MOVFF   r0x00, POSTDEC1
00002E C??? F???      00955         MOVFF   r0x01, POSTDEC1
000032 C??? F???      00956         MOVFF   r0x02, POSTDEC1
000036 C??? F???      00957         MOVFF   r0x03, POSTDEC1
                      00958 ;       .line   85; LC-meter.c  if(TMR2IF) {
00003A A2??           00959         BTFSS   _PIR1bits, 1
00003C D???           00960         BRA     _00115_DS_
00003E 010?           00961         BANKSEL (_bres + 1)
                      00962 ;       .line   86; LC-meter.c  bres += 256;
000040 2B??           00963         INCF    (_bres + 1), F, B
000042 0E00           00964         MOVLW   0x00
000044 010?           00965         BANKSEL (_bres + 2)
000046 23??           00966         ADDWFC  (_bres + 2), F, B
000048 010?           00967         BANKSEL (_bres + 3)
00004A 23??           00968         ADDWFC  (_bres + 3), F, B
                      00969 ;       .line   87; LC-meter.c  if(bres >= CYCLES_FOR_MSEC) {
00004C 0E00           00970         MOVLW   0x00
00004E 010?           00971         BANKSEL (_bres + 3)
000050 5D??           00972         SUBWF   (_bres + 3), W, B
000052 E1??           00973         BNZ     _00166_DS_
000054 0E00           00974         MOVLW   0x00
000056 010?           00975         BANKSEL (_bres + 2)
000058 5D??           00976         SUBWF   (_bres + 2), W, B
00005A E1??           00977         BNZ     _00166_DS_
00005C 0E13           00978         MOVLW   0x13
00005E 010?           00979         BANKSEL (_bres + 1)
000060 5D??           00980         SUBWF   (_bres + 1), W, B
000062 E1??           00981         BNZ     _00166_DS_
000064 0E88           00982         MOVLW   0x88
000066 010?           00983         BANKSEL _bres
000068 5D??           00984         SUBWF   _bres, W, B
00006A                00985 _00166_DS_:
00006A A0D8           00986         BTFSS   STATUS, 0
00006C D???           00987         BRA     _00113_DS_
                      00988 ;       .line   88; LC-meter.c  bres -= CYCLES_FOR_MSEC;
00006E 0E78           00989         MOVLW   0x78
000070 010?           00990         BANKSEL _bres
000072 27??           00991         ADDWF   _bres, F, B
000074 0EEC           00992         MOVLW   0xec
000076 010?           00993         BANKSEL (_bres + 1)
000078 23??           00994         ADDWFC  (_bres + 1), F, B
00007A 0EFF           00995         MOVLW   0xff
00007C 010?           00996         BANKSEL (_bres + 2)
00007E 23??           00997         ADDWFC  (_bres + 2), F, B
000080 010?           00998         BANKSEL (_bres + 3)
000082 23??           00999         ADDWFC  (_bres + 3), F, B
                      01000 ;       .line   89; LC-meter.c  msecpart++;
000084 C??? F???      01001         MOVFF   _msecpart, r0x00
000088 C??? F???      01002         MOVFF   (_msecpart + 1), r0x01
00008C 50??           01003         MOVF    r0x00, W
00008E 0F01           01004         ADDLW   0x01
000090 010?           01005         BANKSEL _msecpart
000092 6F??           01006         MOVWF   _msecpart, B
gpasm-1.5.0 #1285 (Jul 12 2020) obj/sdcc-18f2   11/12/23  13:12:39          PAGE 20


LOC    OBJECT CODE    LINE  SOURCE TEXT
  VALUE

000094 0E00           01007         MOVLW   0x00
000096 20??           01008         ADDWFC  r0x01, W
000098 010?           01009         BANKSEL (_msecpart + 1)
00009A 6F??           01010         MOVWF   (_msecpart + 1), B
                      01011 ;       .line   90; LC-meter.c  led_cycle++;
00009C C??? F???      01012         MOVFF   _led_cycle, r0x00
0000A0 C??? F???      01013         MOVFF   (_led_cycle + 1), r0x01
0000A4 50??           01014         MOVF    r0x00, W
0000A6 0F01           01015         ADDLW   0x01
0000A8 010?           01016         BANKSEL _led_cycle
0000AA 6F??           01017         MOVWF   _led_cycle, B
0000AC 0E00           01018         MOVLW   0x00
0000AE 20??           01019         ADDWFC  r0x01, W
0000B0 010?           01020         BANKSEL (_led_cycle + 1)
0000B2 6F??           01021         MOVWF   (_led_cycle + 1), B
                      01022 ;       .line   92; LC-meter.c  SET_LED(led_cycle >= 0 && led_cycle < led_interval / 6);
0000B4 94??           01023         BCF     _LATC, 2
0000B6 010?           01024         BANKSEL _led_interval
0000B8 51??           01025         MOVF    _led_interval, W, B
0000BA 6E??           01026         MOVWF   r0x00
0000BC 010?           01027         BANKSEL (_led_interval + 1)
0000BE 51??           01028         MOVF    (_led_interval + 1), W, B
0000C0 6E??           01029         MOVWF   r0x01
0000C2 0E00           01030         MOVLW   0x00
0000C4 6EE5           01031         MOVWF   POSTDEC1
0000C6 0E06           01032         MOVLW   0x06
0000C8 6EE5           01033         MOVWF   POSTDEC1
0000CA 50??           01034         MOVF    r0x01, W
0000CC 6EE5           01035         MOVWF   POSTDEC1
0000CE 50??           01036         MOVF    r0x00, W
0000D0 6EE5           01037         MOVWF   POSTDEC1
0000D2 EC?? F0??      01038         CALL    __divuint
0000D6 6E??           01039         MOVWF   r0x00
0000D8 CFF3 F000      01040         MOVFF   PRODL, r0x01
0000DC 0E04           01041         MOVLW   0x04
0000DE 26E1           01042         ADDWF   FSR1L, F
0000E0 010?           01043         BANKSEL _led_cycle
0000E2 51??           01044         MOVF    _led_cycle, W, B
0000E4 6E??           01045         MOVWF   r0x02
0000E6 010?           01046         BANKSEL (_led_cycle + 1)
0000E8 51??           01047         MOVF    (_led_cycle + 1), W, B
0000EA 6E??           01048         MOVWF   r0x03
0000EC 50??           01049         MOVF    r0x01, W
0000EE 5C??           01050         SUBWF   r0x03, W
0000F0 E1??           01051         BNZ     _00168_DS_
0000F2 50??           01052         MOVF    r0x00, W
0000F4 5C??           01053         SUBWF   r0x02, W
0000F6                01054 _00168_DS_:
0000F6 E3??           01055         BNC     _00128_DS_
0000F8 6A??           01056         CLRF    r0x00
0000FA D???           01057         BRA     _00129_DS_
0000FC                01058 _00128_DS_:
0000FC 0E01           01059         MOVLW   0x01
gpasm-1.5.0 #1285 (Jul 12 2020) obj/sdcc-18f2   11/12/23  13:12:39          PAGE 21


LOC    OBJECT CODE    LINE  SOURCE TEXT
  VALUE

0000FE 6E??           01060         MOVWF   r0x00
000100                01061 _00129_DS_:
000100 50??           01062         MOVF    r0x00, W
000102 80D8           01063         BSF     STATUS, 0
000104 66E8           01064         TSTFSZ  WREG
000106 90D8           01065         BCF     STATUS, 0
000108 6A??           01066         CLRF    r0x00
00010A 36??           01067         RLCF    r0x00, F
00010C 50??           01068         MOVF    r0x00, W
00010E 80D8           01069         BSF     STATUS, 0
000110 66E8           01070         TSTFSZ  WREG
000112 90D8           01071         BCF     STATUS, 0
000114 6A??           01072         CLRF    r0x00
000116 36??           01073         RLCF    r0x00, F
000118 44??           01074         RLNCF   r0x00, W
00011A 44E8           01075         RLNCF   WREG, W
00011C 0BFC           01076         ANDLW   0xfc
00011E 6E??           01077         MOVWF   r0x01
000120 50??           01078         MOVF    r0x01, W
000122 12??           01079         IORWF   _LATC, F
000124 010?           01080         BANKSEL _msecpart
                      01081 ;       .line   95; LC-meter.c  if(msecpart >= 1000) {
000126 51??           01082         MOVF    _msecpart, W, B
000128 6E??           01083         MOVWF   r0x00
00012A 010?           01084         BANKSEL (_msecpart + 1)
00012C 51??           01085         MOVF    (_msecpart + 1), W, B
00012E 6E??           01086         MOVWF   r0x01
000130 0E03           01087         MOVLW   0x03
000132 5C??           01088         SUBWF   r0x01, W
000134 E1??           01089         BNZ     _00170_DS_
000136 0EE8           01090         MOVLW   0xe8
000138 5C??           01091         SUBWF   r0x00, W
00013A                01092 _00170_DS_:
00013A E3??           01093         BNC     _00113_DS_
                      01094 ;       .line   97; LC-meter.c  seconds++;
00013C C??? F???      01095         MOVFF   _seconds, r0x00
000140 C??? F???      01096         MOVFF   (_seconds + 1), r0x01
000144 C??? F???      01097         MOVFF   (_seconds + 2), r0x02
000148 C??? F???      01098         MOVFF   (_seconds + 3), r0x03
00014C 50??           01099         MOVF    r0x00, W
00014E 0F01           01100         ADDLW   0x01
000150 010?           01101         BANKSEL _seconds
000152 6F??           01102         MOVWF   _seconds, B
000154 0E00           01103         MOVLW   0x00
000156 20??           01104         ADDWFC  r0x01, W
000158 010?           01105         BANKSEL (_seconds + 1)
00015A 6F??           01106         MOVWF   (_seconds + 1), B
00015C 0E00           01107         MOVLW   0x00
00015E 20??           01108         ADDWFC  r0x02, W
000160 010?           01109         BANKSEL (_seconds + 2)
000162 6F??           01110         MOVWF   (_seconds + 2), B
000164 0E00           01111         MOVLW   0x00
000166 20??           01112         ADDWFC  r0x03, W
gpasm-1.5.0 #1285 (Jul 12 2020) obj/sdcc-18f2   11/12/23  13:12:39          PAGE 22


LOC    OBJECT CODE    LINE  SOURCE TEXT
  VALUE

000168 010?           01113         BANKSEL (_seconds + 3)
00016A 6F??           01114         MOVWF   (_seconds + 3), B
00016C 010?           01115         BANKSEL _msecpart
                      01116 ;       .line   98; LC-meter.c  msecpart -= 1000;
00016E 51??           01117         MOVF    _msecpart, W, B
000170 6E??           01118         MOVWF   r0x00
000172 010?           01119         BANKSEL (_msecpart + 1)
000174 51??           01120         MOVF    (_msecpart + 1), W, B
000176 6E??           01121         MOVWF   r0x01
000178 0E18           01122         MOVLW   0x18
00017A 26??           01123         ADDWF   r0x00, F
00017C 0EFC           01124         MOVLW   0xfc
00017E 22??           01125         ADDWFC  r0x01, F
000180 50??           01126         MOVF    r0x00, W
000182 010?           01127         BANKSEL _msecpart
000184 6F??           01128         MOVWF   _msecpart, B
000186 50??           01129         MOVF    r0x01, W
000188 010?           01130         BANKSEL (_msecpart + 1)
00018A 6F??           01131         MOVWF   (_msecpart + 1), B
00018C                01132 _00113_DS_:
                      01133 ;       .line   102; LC-meter.c TMR2IF = 0;
00018C 92??           01134         BCF     _PIR1bits, 1
00018E                01135 _00115_DS_:
                      01136 ;       .line   105; LC-meter.c ser_int();
00018E AA??           01137         BTFSS   _PIR1bits, 5
000190 D???           01138         BRA     _00119_DS_
000192 0E??           01139         MOVLW   LOW(_ser_rxfifo)
000194 010?           01140         BANKSEL _ser_rxiptr
000196 25??           01141         ADDWF   _ser_rxiptr, W, B
000198 6E??           01142         MOVWF   r0x00
00019A 6A??           01143         CLRF    r0x01
00019C 0E??           01144         MOVLW   HIGH(_ser_rxfifo)
00019E 22??           01145         ADDWFC  r0x01, F
0001A0 C??? F???      01146         MOVFF   r0x00, FSR0L
0001A4 C??? F???      01147         MOVFF   r0x01, FSR0H
0001A8 C??? F???      01148         MOVFF   _RCREG, INDF0
0001AC 010?           01149         BANKSEL _ser_rxiptr
0001AE 51??           01150         MOVF    _ser_rxiptr, W, B
0001B0 6E??           01151         MOVWF   r0x00
0001B2 2A??           01152         INCF    r0x00, F
0001B4 0E0F           01153         MOVLW   0x0f
0001B6 14??           01154         ANDWF   r0x00, W
0001B8 010?           01155         BANKSEL _ser_tmp
0001BA 6F??           01156         MOVWF   _ser_tmp, B
0001BC 010?           01157         BANKSEL _ser_tmp
0001BE 51??           01158         MOVF    _ser_tmp, W, B
0001C0 010?           01159         BANKSEL _ser_rxoptr
0001C2 19??           01160         XORWF   _ser_rxoptr, W, B
0001C4 E0??           01161         BZ      _00119_DS_
0001C6 C??? F???      01162         MOVFF   _ser_tmp, _ser_rxiptr
0001CA                01163 _00119_DS_:
0001CA A8??           01164         BTFSS   _PIR1bits, 4
0001CC D???           01165         BRA     _00125_DS_
gpasm-1.5.0 #1285 (Jul 12 2020) obj/sdcc-18f2   11/12/23  13:12:39          PAGE 23


LOC    OBJECT CODE    LINE  SOURCE TEXT
  VALUE

0001CE A8??           01166         BTFSS   _PIE1bits, 4
0001D0 D???           01167         BRA     _00125_DS_
0001D2 0E??           01168         MOVLW   LOW(_ser_txfifo)
0001D4 010?           01169         BANKSEL _ser_txoptr
0001D6 25??           01170         ADDWF   _ser_txoptr, W, B
0001D8 6E??           01171         MOVWF   r0x00
0001DA 6A??           01172         CLRF    r0x01
0001DC 0E??           01173         MOVLW   HIGH(_ser_txfifo)
0001DE 22??           01174         ADDWFC  r0x01, F
0001E0 C??? F???      01175         MOVFF   r0x00, FSR0L
0001E4 C??? F???      01176         MOVFF   r0x01, FSR0H
0001E8 CFEF F000      01177         MOVFF   INDF0, _TXREG
0001EC 010?           01178         BANKSEL _ser_txoptr
0001EE 2B??           01179         INCF    _ser_txoptr, F, B
0001F0 0E0F           01180         MOVLW   0x0f
0001F2 010?           01181         BANKSEL _ser_txoptr
0001F4 17??           01182         ANDWF   _ser_txoptr, F, B
0001F6 010?           01183         BANKSEL _ser_txoptr
0001F8 51??           01184         MOVF    _ser_txoptr, W, B
0001FA 010?           01185         BANKSEL _ser_txiptr
0001FC 19??           01186         XORWF   _ser_txiptr, W, B
0001FE E1??           01187         BNZ     _00121_DS_
000200 98??           01188         BCF     _PIE1bits, 4
000202                01189 _00121_DS_:
000202 98??           01190         BCF     _PIR1bits, 4
000204                01191 _00125_DS_:
                      01192 ;       .line   110; LC-meter.c }
000204 CFE4 F000      01193         MOVFF   PREINC1, r0x03
000208 CFE4 F000      01194         MOVFF   PREINC1, r0x02
00020C CFE4 F000      01195         MOVFF   PREINC1, r0x01
000210 CFE4 F000      01196         MOVFF   PREINC1, r0x00
000214 CFE4 FFD9      01197         MOVFF   PREINC1, FSR2L
000218 CFE4 FFFB      01198         MOVFF   PREINC1, PCLATU
00021C CFE4 FFFA      01199         MOVFF   PREINC1, PCLATH
000220 CFE4 FFEA      01200         MOVFF   PREINC1, FSR0H
000224 CFE4 FFE9      01201         MOVFF   PREINC1, FSR0L
000228 CFE4 FFF4      01202         MOVFF   PREINC1, PRODH
00022C CFE4 FFF3      01203         MOVFF   PREINC1, PRODL
000230 50E4           01204         MOVF    PREINC1, W
000232 CFE4 FFE0      01205         MOVFF   PREINC1, BSR
000236 CFE4 FFD8      01206         MOVFF   PREINC1, STATUS
00023A 0010           01207         RETFIE  
                      01208 
                      01209 ; ; Starting pCode block
                      01210 S_LC_meter__delay10ms   code
000000                01211 _delay10ms:
                      01212 ;       .line   64; LC-meter.c  delay10ms(unsigned char period_10ms) {
000000 CFD9 FFE5      01213         MOVFF   FSR2L, POSTDEC1
000004 CFE1 FFD9      01214         MOVFF   FSR1L, FSR2L
                      01215 ;       .line   68; LC-meter.c  }
000008 CFE4 FFD9      01216         MOVFF   PREINC1, FSR2L
00000C 0012           01217         RETURN  
                      01218 
gpasm-1.5.0 #1285 (Jul 12 2020) obj/sdcc-18f2   11/12/23  13:12:39          PAGE 24


LOC    OBJECT CODE    LINE  SOURCE TEXT
  VALUE

                      01219 ; ; Starting pCode block
00000E                01220 ___str_0:
00000E 434C 6D2D 7465 01221         DB      0x4c, 0x43, 0x2d, 0x6d, 0x65, 0x74, 0x65, 0x72, 0x20, 0x00
       7265 0020      
                      01222 ; ; Starting pCode block
000018                01223 ___str_1:
000018 202D 2043 5528 01224         DB      0x2d, 0x20, 0x43, 0x20, 0x28, 0x55, 0x6e, 0x69, 0x74, 0x3a, 0x20, 0x46
       696E 3A74 4620 
000024 2029 002D      01225         DB      0x29, 0x20, 0x2d, 0x00
                      01226 ; ; Starting pCode block
000028                01227 ___str_2:
000028 202D 204C 5528 01228         DB      0x2d, 0x20, 0x4c, 0x20, 0x28, 0x55, 0x6e, 0x69, 0x74, 0x3a, 0x20, 0x48
       696E 3A74 4820 
000034 2029 002D      01229         DB      0x29, 0x20, 0x2d, 0x00
                      01230 ; ; Starting pCode block
000038                01231 ___str_3:
000038 0A0D 0000      01232         DB      0x0d, 0x0a, 0x00
                      01233 ; ; Starting pCode block
00003C                01234 ___str_4:
00003C 2020 2020 2020 01235         DB      0x20, 0x20, 0x20, 0x20, 0x20, 0x20, 0x00
       0000           
                      01236 ; ; Starting pCode block
000044                01237 ___str_5:
000044 2020 2020 0020 01238         DB      0x20, 0x20, 0x20, 0x20, 0x20, 0x00
                      01239 ; ; Starting pCode block
00004A                01240 ___str_6:
00004A 4352 3D34 0000 01241         DB      0x52, 0x43, 0x34, 0x3d, 0x00
                      01242 
                      01243 
                      01244 ; Statistics:
                      01245 ; code size:     1664 (0x0680) bytes ( 1.27%)
                      01246 ;                 832 (0x0340) words
                      01247 ; udata size:      38 (0x0026) bytes ( 2.12%)
                      01248 ; access size:      5 (0x0005) bytes
                      01249 
                      01250 
                      01251         end
gpasm-1.5.0 #1285 (Jul 12 2020) obj/sdcc-18f2   11/12/23  13:12:39          PAGE 25


SYMBOL TABLE
  LABEL                              TYPE        VALUE         VALUE          VALUE
                                                 (hex)         (dec)          (text)

BSR                               CONSTANT      00000FE0           4064
FSR0H                             CONSTANT      00000FEA           4074
FSR0L                             CONSTANT      00000FE9           4073
FSR1L                             CONSTANT      00000FE1           4065
FSR2L                             CONSTANT      00000FD9           4057
INDF0                             CONSTANT      00000FEF           4079
PCLATH                            CONSTANT      00000FFA           4090
PCLATU                            CONSTANT      00000FFB           4091
POSTDEC1                          CONSTANT      00000FE5           4069
POSTINC1                          CONSTANT      00000FE6           4070
PREINC1                           CONSTANT      00000FE4           4068
PRODH                             CONSTANT      00000FF4           4084
PRODL                             CONSTANT      00000FF3           4083
STATUS                            CONSTANT      00000FD8           4056
WREG                              CONSTANT      00000FE8           4072
_00113_DS_                        ADDRESS       0000018C            396
_00115_DS_                        ADDRESS       0000018E            398
_00119_DS_                        ADDRESS       000001CA            458
_00121_DS_                        ADDRESS       00000202            514
_00125_DS_                        ADDRESS       00000204            516
_00128_DS_                        ADDRESS       000000FC            252
_00129_DS_                        ADDRESS       00000100            256
_00166_DS_                        ADDRESS       0000006A            106
_00168_DS_                        ADDRESS       000000F6            246
_00170_DS_                        ADDRESS       0000013A            314
_00182_DS_                        ADDRESS       000001EA            490
_00184_DS_                        ADDRESS       00000206            518
_00186_DS_                        ADDRESS       00000212            530
_00187_DS_                        ADDRESS       00000216            534
_00189_DS_                        ADDRESS       0000015E            350
_00193_DS_                        ADDRESS       0000019A            410
_00194_DS_                        ADDRESS       000001A6            422
_00229_DS_                        ADDRESS       00000186            390
_00230_DS_                        ADDRESS       000001FC            508
_00237_DS_                        ADDRESS       000001C6            454
_00239_DS_                        ADDRESS       0000015A            346
_00240_DS_                        ADDRESS       00000160            352
_00252_DS_                        ADDRESS       0000017A            378
_ADCON0                           EXTERNAL      00000000              0
_ADCON0bits                       EXTERNAL      00000000              0
_ADCON1                           EXTERNAL      00000000              0
_ADCON1bits                       EXTERNAL      00000000              0
_ADCON2                           EXTERNAL      00000000              0
_ADCON2bits                       EXTERNAL      00000000              0
_ADRES                            EXTERNAL      00000000              0
_ADRESH                           EXTERNAL      00000000              0
_ADRESL                           EXTERNAL      00000000              0
_BAUDCON                          EXTERNAL      00000000              0
_BAUDCONbits                      EXTERNAL      00000000              0
_BAUDCTL                          EXTERNAL      00000000              0
_BAUDCTLbits                      EXTERNAL      00000000              0
_BSR                              EXTERNAL      00000000              0
gpasm-1.5.0 #1285 (Jul 12 2020) obj/sdcc-18f2   11/12/23  13:12:39          PAGE 26


SYMBOL TABLE
  LABEL                              TYPE        VALUE         VALUE          VALUE
                                                 (hex)         (dec)          (text)

_CCPR1                            EXTERNAL      00000000              0
_CCPR1H                           EXTERNAL      00000000              0
_CCPR1L                           EXTERNAL      00000000              0
_CCPR2                            EXTERNAL      00000000              0
_CCPR2H                           EXTERNAL      00000000              0
_CCPR2L                           EXTERNAL      00000000              0
_CCP1AS                           EXTERNAL      00000000              0
_CCP1ASbits                       EXTERNAL      00000000              0
_CCP1CON                          EXTERNAL      00000000              0
_CCP1CONbits                      EXTERNAL      00000000              0
_CCP1DEL                          EXTERNAL      00000000              0
_CCP1DELbits                      EXTERNAL      00000000              0
_CCP2CON                          EXTERNAL      00000000              0
_CCP2CONbits                      EXTERNAL      00000000              0
_CCal                             GLOBAL        00000000              0
_CMCON                            EXTERNAL      00000000              0
_CMCONbits                        EXTERNAL      00000000              0
_CVRCON                           EXTERNAL      00000000              0
_CVRCONbits                       EXTERNAL      00000000              0
_DDRA                             EXTERNAL      00000000              0
_DDRAbits                         EXTERNAL      00000000              0
_DDRB                             EXTERNAL      00000000              0
_DDRBbits                         EXTERNAL      00000000              0
_DDRC                             EXTERNAL      00000000              0
_DDRCbits                         EXTERNAL      00000000              0
_ECCP1AS                          EXTERNAL      00000000              0
_ECCP1ASbits                      EXTERNAL      00000000              0
_ECCP1DEL                         EXTERNAL      00000000              0
_ECCP1DELbits                     EXTERNAL      00000000              0
_EEADR                            EXTERNAL      00000000              0
_EECON1                           EXTERNAL      00000000              0
_EECON1bits                       EXTERNAL      00000000              0
_EECON2                           EXTERNAL      00000000              0
_EEDATA                           EXTERNAL      00000000              0
_FSR0H                            EXTERNAL      00000000              0
_FSR0L                            EXTERNAL      00000000              0
_FSR1H                            EXTERNAL      00000000              0
_FSR1L                            EXTERNAL      00000000              0
_FSR2H                            EXTERNAL      00000000              0
_FSR2L                            EXTERNAL      00000000              0
_F1                               GLOBAL        00000000              0
_F2                               GLOBAL        00000000              0
_F3                               GLOBAL        00000000              0
_HLVDCON                          EXTERNAL      00000000              0
_HLVDCONbits                      EXTERNAL      00000000              0
_INDF0                            EXTERNAL      00000000              0
_INDF1                            EXTERNAL      00000000              0
_INDF2                            EXTERNAL      00000000              0
_INTCON                           EXTERNAL      00000000              0
_INTCONbits                       EXTERNAL      00000000              0
_INTCON2                          EXTERNAL      00000000              0
_INTCON2bits                      EXTERNAL      00000000              0
gpasm-1.5.0 #1285 (Jul 12 2020) obj/sdcc-18f2   11/12/23  13:12:39          PAGE 27


SYMBOL TABLE
  LABEL                              TYPE        VALUE         VALUE          VALUE
                                                 (hex)         (dec)          (text)

_INTCON3                          EXTERNAL      00000000              0
_INTCON3bits                      EXTERNAL      00000000              0
_IPR1                             EXTERNAL      00000000              0
_IPR1bits                         EXTERNAL      00000000              0
_IPR2                             EXTERNAL      00000000              0
_IPR2bits                         EXTERNAL      00000000              0
_LATA                             EXTERNAL      00000000              0
_LATAbits                         EXTERNAL      00000000              0
_LATB                             EXTERNAL      00000000              0
_LATBbits                         EXTERNAL      00000000              0
_LATC                             EXTERNAL      00000000              0
_LATCbits                         EXTERNAL      00000000              0
_LVDCON                           EXTERNAL      00000000              0
_LVDCONbits                       EXTERNAL      00000000              0
_OSCCON                           EXTERNAL      00000000              0
_OSCCONbits                       EXTERNAL      00000000              0
_OSCTUNE                          EXTERNAL      00000000              0
_OSCTUNEbits                      EXTERNAL      00000000              0
_PC                               EXTERNAL      00000000              0
_PCL                              EXTERNAL      00000000              0
_PCLATH                           EXTERNAL      00000000              0
_PCLATU                           EXTERNAL      00000000              0
_PIE1                             EXTERNAL      00000000              0
_PIE1bits                         EXTERNAL      00000000              0
_PIE2                             EXTERNAL      00000000              0
_PIE2bits                         EXTERNAL      00000000              0
_PIR1                             EXTERNAL      00000000              0
_PIR1bits                         EXTERNAL      00000000              0
_PIR2                             EXTERNAL      00000000              0
_PIR2bits                         EXTERNAL      00000000              0
_PLUSW0                           EXTERNAL      00000000              0
_PLUSW1                           EXTERNAL      00000000              0
_PLUSW2                           EXTERNAL      00000000              0
_PORTA                            EXTERNAL      00000000              0
_PORTAbits                        EXTERNAL      00000000              0
_PORTB                            EXTERNAL      00000000              0
_PORTBbits                        EXTERNAL      00000000              0
_PORTC                            EXTERNAL      00000000              0
_PORTCbits                        EXTERNAL      00000000              0
_PORTE                            EXTERNAL      00000000              0
_PORTEbits                        EXTERNAL      00000000              0
_POSTDEC0                         EXTERNAL      00000000              0
_POSTDEC1                         EXTERNAL      00000000              0
_POSTDEC2                         EXTERNAL      00000000              0
_POSTINC0                         EXTERNAL      00000000              0
_POSTINC1                         EXTERNAL      00000000              0
_POSTINC2                         EXTERNAL      00000000              0
_PREINC0                          EXTERNAL      00000000              0
_PREINC1                          EXTERNAL      00000000              0
_PREINC2                          EXTERNAL      00000000              0
_PROD                             EXTERNAL      00000000              0
_PRODH                            EXTERNAL      00000000              0
gpasm-1.5.0 #1285 (Jul 12 2020) obj/sdcc-18f2   11/12/23  13:12:39          PAGE 28


SYMBOL TABLE
  LABEL                              TYPE        VALUE         VALUE          VALUE
                                                 (hex)         (dec)          (text)

_PRODL                            EXTERNAL      00000000              0
_PR2                              EXTERNAL      00000000              0
_RCON                             EXTERNAL      00000000              0
_RCONbits                         EXTERNAL      00000000              0
_RCREG                            EXTERNAL      00000000              0
_RCSTA                            EXTERNAL      00000000              0
_RCSTAbits                        EXTERNAL      00000000              0
_SPBRG                            EXTERNAL      00000000              0
_SPBRGH                           EXTERNAL      00000000              0
_SSPADD                           EXTERNAL      00000000              0
_SSPBUF                           EXTERNAL      00000000              0
_SSPCON1                          EXTERNAL      00000000              0
_SSPCON1bits                      EXTERNAL      00000000              0
_SSPCON2                          EXTERNAL      00000000              0
_SSPCON2bits                      EXTERNAL      00000000              0
_SSPSTAT                          EXTERNAL      00000000              0
_SSPSTATbits                      EXTERNAL      00000000              0
_STATUS                           EXTERNAL      00000000              0
_STATUSbits                       EXTERNAL      00000000              0
_STKPTR                           EXTERNAL      00000000              0
_STKPTRbits                       EXTERNAL      00000000              0
_T0CON                            EXTERNAL      00000000              0
_T0CONbits                        EXTERNAL      00000000              0
_TABLAT                           EXTERNAL      00000000              0
_TBLPTR                           EXTERNAL      00000000              0
_TBLPTRH                          EXTERNAL      00000000              0
_TBLPTRL                          EXTERNAL      00000000              0
_TBLPTRU                          EXTERNAL      00000000              0
_TMR0                             EXTERNAL      00000000              0
_TMR0H                            EXTERNAL      00000000              0
_TMR0L                            EXTERNAL      00000000              0
_TMR1                             EXTERNAL      00000000              0
_TMR1H                            EXTERNAL      00000000              0
_TMR1L                            EXTERNAL      00000000              0
_TMR2                             EXTERNAL      00000000              0
_TMR3                             EXTERNAL      00000000              0
_TMR3H                            EXTERNAL      00000000              0
_TMR3L                            EXTERNAL      00000000              0
_TOS                              EXTERNAL      00000000              0
_TOSH                             EXTERNAL      00000000              0
_TOSL                             EXTERNAL      00000000              0
_TOSU                             EXTERNAL      00000000              0
_TRISA                            EXTERNAL      00000000              0
_TRISAbits                        EXTERNAL      00000000              0
_TRISB                            EXTERNAL      00000000              0
_TRISBbits                        EXTERNAL      00000000              0
_TRISC                            EXTERNAL      00000000              0
_TRISCbits                        EXTERNAL      00000000              0
_TXREG                            EXTERNAL      00000000              0
_TXSTA                            EXTERNAL      00000000              0
_TXSTAbits                        EXTERNAL      00000000              0
_T1CON                            EXTERNAL      00000000              0
gpasm-1.5.0 #1285 (Jul 12 2020) obj/sdcc-18f2   11/12/23  13:12:39          PAGE 29


SYMBOL TABLE
  LABEL                              TYPE        VALUE         VALUE          VALUE
                                                 (hex)         (dec)          (text)

_T1CONbits                        EXTERNAL      00000000              0
_T2CON                            EXTERNAL      00000000              0
_T2CONbits                        EXTERNAL      00000000              0
_T3CON                            EXTERNAL      00000000              0
_T3CONbits                        EXTERNAL      00000000              0
_UADDR                            EXTERNAL      00000000              0
_UADDRbits                        EXTERNAL      00000000              0
_UCFG                             EXTERNAL      00000000              0
_UCFGbits                         EXTERNAL      00000000              0
_UCON                             EXTERNAL      00000000              0
_UCONbits                         EXTERNAL      00000000              0
_UEIE                             EXTERNAL      00000000              0
_UEIEbits                         EXTERNAL      00000000              0
_UEIR                             EXTERNAL      00000000              0
_UEIRbits                         EXTERNAL      00000000              0
_UEP0                             EXTERNAL      00000000              0
_UEP0bits                         EXTERNAL      00000000              0
_UEP1                             EXTERNAL      00000000              0
_UEP1bits                         EXTERNAL      00000000              0
_UEP2                             EXTERNAL      00000000              0
_UEP2bits                         EXTERNAL      00000000              0
_UEP3                             EXTERNAL      00000000              0
_UEP3bits                         EXTERNAL      00000000              0
_UEP4                             EXTERNAL      00000000              0
_UEP4bits                         EXTERNAL      00000000              0
_UEP5                             EXTERNAL      00000000              0
_UEP5bits                         EXTERNAL      00000000              0
_UEP6                             EXTERNAL      00000000              0
_UEP6bits                         EXTERNAL      00000000              0
_UEP7                             EXTERNAL      00000000              0
_UEP7bits                         EXTERNAL      00000000              0
_UEP8                             EXTERNAL      00000000              0
_UEP8bits                         EXTERNAL      00000000              0
_UEP9                             EXTERNAL      00000000              0
_UEP9bits                         EXTERNAL      00000000              0
_UEP10                            EXTERNAL      00000000              0
_UEP10bits                        EXTERNAL      00000000              0
_UEP11                            EXTERNAL      00000000              0
_UEP11bits                        EXTERNAL      00000000              0
_UEP12                            EXTERNAL      00000000              0
_UEP12bits                        EXTERNAL      00000000              0
_UEP13                            EXTERNAL      00000000              0
_UEP13bits                        EXTERNAL      00000000              0
_UEP14                            EXTERNAL      00000000              0
_UEP14bits                        EXTERNAL      00000000              0
_UEP15                            EXTERNAL      00000000              0
_UEP15bits                        EXTERNAL      00000000              0
_UFRM                             EXTERNAL      00000000              0
_UFRMH                            EXTERNAL      00000000              0
_UFRMHbits                        EXTERNAL      00000000              0
_UFRML                            EXTERNAL      00000000              0
_UFRMLbits                        EXTERNAL      00000000              0
gpasm-1.5.0 #1285 (Jul 12 2020) obj/sdcc-18f2   11/12/23  13:12:39          PAGE 30


SYMBOL TABLE
  LABEL                              TYPE        VALUE         VALUE          VALUE
                                                 (hex)         (dec)          (text)

_UIE                              EXTERNAL      00000000              0
_UIEbits                          EXTERNAL      00000000              0
_UIR                              EXTERNAL      00000000              0
_UIRbits                          EXTERNAL      00000000              0
_USTAT                            EXTERNAL      00000000              0
_USTATbits                        EXTERNAL      00000000              0
_WDTCON                           EXTERNAL      00000000              0
_WDTCONbits                       EXTERNAL      00000000              0
_WREG                             EXTERNAL      00000000              0
__ACC_RAM_LOW_END                 CONSTANT      0000005F             95
__ACC_RAM_LOW_START               CONSTANT      00000000              0
__ACTIVE_BANK_ADDR                VARIABLE      FFFFFFFF             -1
__ASSUMED_BANK_ADDR               VARIABLE      FFFFFFFF             -1
__BANK_0                          CONSTANT      00000000              0
__BANK_BITS                       CONSTANT      00000F00           3840
__BANK_FIRST                      CONSTANT      00000000              0
__BANK_INV                        CONSTANT      FFFFFFFF             -1
__BANK_LAST                       CONSTANT      00000F00           3840
__BANK_MASK                       CONSTANT      000000FF            255
__BANK_SHIFT                      CONSTANT      00000008              8
__BANK_SIZE                       CONSTANT      00000100            256
__BANK_1                          CONSTANT      00000100            256
__BANK_2                          CONSTANT      00000200            512
__BANK_3                          CONSTANT      00000300            768
__BANK_4                          CONSTANT      00000400           1024
__BANK_5                          CONSTANT      00000500           1280
__BANK_6                          CONSTANT      00000600           1536
__BANK_7                          CONSTANT      00000700           1792
__BANK_8                          CONSTANT      00000800           2048
__BANK_9                          CONSTANT      00000900           2304
__BANK_10                         CONSTANT      00000A00           2560
__BANK_11                         CONSTANT      00000B00           2816
__BANK_12                         CONSTANT      00000C00           3072
__BANK_13                         CONSTANT      00000D00           3328
__BANK_14                         CONSTANT      00000E00           3584
__BANK_15                         CONSTANT      00000F00           3840
__CODE_END                        CONSTANT      00007FFF          32767
__CODE_START                      CONSTANT      00000000              0
__COMMON_RAM_END                  CONSTANT      0000005F             95
__COMMON_RAM_START                CONSTANT      00000000              0
__CONFIG_END                      CONSTANT      0030000D        3145741
__CONFIG_START                    CONSTANT      00300000        3145728
__EEPROM_END                      CONSTANT      00F000FF       15728895
__EEPROM_START                    CONSTANT      00F00000       15728640
__EXTENDED                        CONSTANT      00000001              1
__GPUTILS_SVN_VERSION             CONSTANT      00000505           1285
__GPUTILS_VERSION_MAJOR           CONSTANT      00000001              1
__GPUTILS_VERSION_MICRO           CONSTANT      00000000              0
__GPUTILS_VERSION_MINOR           CONSTANT      00000005              5
__IDLOCS_END                      CONSTANT      00200007        2097159
__IDLOCS_START                    CONSTANT      00200000        2097152
__NUM_BANKS                       CONSTANT      00000010             16
gpasm-1.5.0 #1285 (Jul 12 2020) obj/sdcc-18f2   11/12/23  13:12:39          PAGE 31


SYMBOL TABLE
  LABEL                              TYPE        VALUE         VALUE          VALUE
                                                 (hex)         (dec)          (text)

__VECTOR_INT_HIGH                 CONSTANT      00000008              8
__VECTOR_INT_LOW                  CONSTANT      00000018             24
__VECTOR_RESET                    CONSTANT      00000000              0
__WHILE_LOOP_COUNT_MAX            CONSTANT      000000FF            255
___str_0                          ADDRESS       0000000E             14
___str_1                          ADDRESS       00000018             24
___str_2                          ADDRESS       00000028             40
___str_3                          ADDRESS       00000038             56
___str_4                          ADDRESS       0000003C             60
___str_5                          ADDRESS       00000044             68
___str_6                          ADDRESS       0000004A             74
__divuint                         EXTERNAL      00000000              0
__16_BIT                          CONSTANT      00000001              1
__18F2550                         CONSTANT      00000001              1
_blink                            GLOBAL        00000001              1
_bres                             GLOBAL        00000000              0
_calibrate                        EXTERNAL      00000000              0
_delay10ms                        GLOBAL        00000000              0
_dvar                             EXTERNAL      00000000              0
_format_float                     EXTERNAL      00000000              0
_format_number                    EXTERNAL      00000000              0
_isr                              GLOBAL        00000000              0
_lcd_begin                        EXTERNAL      00000000              0
_lcd_clear                        EXTERNAL      00000000              0
_lcd_gotoxy                       EXTERNAL      00000000              0
_lcd_init                         EXTERNAL      00000000              0
_lcd_putch                        EXTERNAL      00000000              0
_lcd_puts                         EXTERNAL      00000000              0
_led_cycle                        GLOBAL        00000000              0
_led_interval                     GLOBAL        00000000              0
_logo_image                       EXTERNAL      00000000              0
_main                             GLOBAL        00000000              0
_measure_capacitance              EXTERNAL      00000000              0
_measure_inductance               EXTERNAL      00000000              0
_mode                             STATIC        00000000              0
_msecpart                         GLOBAL        00000000              0
_msecs                            GLOBAL        00000000              0
_print_indicator                  EXTERNAL      00000000              0
_seconds                          GLOBAL        00000000              0
_ser_brg                          EXTERNAL      00000000              0
_ser_init                         EXTERNAL      00000000              0
_ser_putch                        EXTERNAL      00000000              0
_ser_puts                         EXTERNAL      00000000              0
_ser_rxfifo                       EXTERNAL      00000000              0
_ser_rxiptr                       EXTERNAL      00000000              0
_ser_rxoptr                       EXTERNAL      00000000              0
_ser_tmp                          EXTERNAL      00000000              0
_ser_txfifo                       EXTERNAL      00000000              0
_ser_txiptr                       EXTERNAL      00000000              0
_ser_txoptr                       EXTERNAL      00000000              0
_testloop                         GLOBAL        00000000              0
_testloop_led_65536_69            STATIC        00000003              3
gpasm-1.5.0 #1285 (Jul 12 2020) obj/sdcc-18f2   11/12/23  13:12:39          PAGE 32


SYMBOL TABLE
  LABEL                              TYPE        VALUE         VALUE          VALUE
                                                 (hex)         (dec)          (text)

_testloop_prev_s_65536_69         STATIC        00000004              4
_timer0_init                      EXTERNAL      00000000              0
_timer1of                         GLOBAL        00000000              0
_timer2_init                      EXTERNAL      00000000              0
ivec_0x1_isr                      ADDRESS       00000008              8
r0x00                             STATIC        00000000              0
r0x01                             STATIC        00000001              1
r0x02                             STATIC        00000002              2
r0x03                             STATIC        00000003              3
r0x04                             STATIC        00000004              4

Errors   :     0
Warnings :     0 reported,     0 suppressed
Messages :     0 reported,     0 suppressed

