

HI-TECH Software PIC PRO Macro Assembler V9.83 build 10920 
                                                                                               Fri Aug 30 06:22:34 2019

HI-TECH Software Omniscient Code Generator (PRO mode) build 10920
     1  0000                     opt subtitle "HI-TECH Software Omniscient Code Generator (PRO mode) build 10920"
     2                           
     3                           opt pagewidth 120
     4                           
     5                           	opt pm
     6                           
     7                           	processor	16F876A
     8                           clrc	macro
     9                           	bcf	3,0
    10  0000                     	endm
    11                           clrz	macro
    12                           	bcf	3,2
    13  0000                     	endm
    14                           setc	macro
    15                           	bsf	3,0
    16  0000                     	endm
    17                           setz	macro
    18                           	bsf	3,2
    19  0000                     	endm
    20                           skipc	macro
    21                           	btfss	3,0
    22  0000                     	endm
    23                           skipz	macro
    24                           	btfss	3,2
    25  0000                     	endm
    26                           skipnc	macro
    27                           	btfsc	3,0
    28  0000                     	endm
    29                           skipnz	macro
    30                           	btfsc	3,2
    31  0000                     	endm
    32  0000                     indf	equ	0
    33  0000                     indf0	equ	0
    34  0002                     pc	equ	2
    35  0002                     pcl	equ	2
    36  0003                     status	equ	3
    37  0004                     fsr	equ	4
    38  0004                     fsr0	equ	4
    39  0001                     c	equ	1
    40  0000                     z	equ	0
    41  000A                     pclath	equ	10
    42                           # 10 "..\..\..\src\config-16f876a.h"
    43                           	psect config,class=CONFIG,delta=2 ;#
    44                           # 10 "..\..\..\src\config-16f876a.h"
    45  2007  FF72               	dw 0xFFFE& 0xFFFB& 0xFFF7& 0xFF7F& 0xFFFF& 0xFFFF& 0xFFFF ;#
    46                           	FNCALL	_main,_initialize
    47                           	FNCALL	_main,_lcd_gotoxy
    48                           	FNCALL	_main,_lcd_send
    49                           	FNCALL	_main,_lcd_puts
    50                           	FNCALL	_main,_delay10ms
    51                           	FNCALL	_main,_calibrate
    52                           	FNCALL	_main,_lcd_clear
    53                           	FNCALL	_main,_ser_puts
    54                           	FNCALL	_main,_measure_capacitance
    55                           	FNCALL	_main,_measure_inductance
    56                           	FNCALL	_main,_indicator
    57                           	FNCALL	_measure_inductance,_lcd_gotoxy
    58                           	FNCALL	_measure_inductance,_lcd_puts
    59                           	FNCALL	_measure_inductance,_measure_freq
    60                           	FNCALL	_measure_inductance,___lwtofl
    61                           	FNCALL	_measure_inductance,___flge
    62                           	FNCALL	_measure_inductance,___flsub
    63                           	FNCALL	_measure_inductance,___flmul
    64                           	FNCALL	_measure_inductance,___fldiv
    65                           	FNCALL	_measure_inductance,_display_unit
    66                           	FNCALL	_measure_inductance,___fltol
    67                           	FNCALL	_measure_inductance,_display_reading
    68                           	FNCALL	_measure_capacitance,_lcd_gotoxy
    69                           	FNCALL	_measure_capacitance,_lcd_puts
    70                           	FNCALL	_measure_capacitance,_measure_freq
    71                           	FNCALL	_measure_capacitance,___lwtofl
    72                           	FNCALL	_measure_capacitance,___flge
    73                           	FNCALL	_measure_capacitance,___flmul
    74                           	FNCALL	_measure_capacitance,___flsub
    75                           	FNCALL	_measure_capacitance,___fldiv
    76                           	FNCALL	_measure_capacitance,_display_unit
    77                           	FNCALL	_measure_capacitance,___fltol
    78                           	FNCALL	_measure_capacitance,_display_reading
    79                           	FNCALL	_calibrate,_lcd_clear
    80                           	FNCALL	_calibrate,_lcd_gotoxy
    81                           	FNCALL	_calibrate,_lcd_puts
    82                           	FNCALL	_calibrate,_measure_freq
    83                           	FNCALL	_calibrate,___lwtofl
    84                           	FNCALL	_calibrate,_delay10ms
    85                           	FNCALL	_calibrate,_lcd_send
    86                           	FNCALL	_initialize,_lcd_init
    87                           	FNCALL	_initialize,_lcd_clear
    88                           	FNCALL	_initialize,_ser_init
    89                           	FNCALL	_indicator,_lcd_gotoxy
    90                           	FNCALL	_indicator,_lcd_send
    91                           	FNCALL	_indicator,_lcd_puts
    92                           	FNCALL	_display_reading,_lcd_gotoxy
    93                           	FNCALL	_display_reading,_lcd_puts
    94                           	FNCALL	_display_reading,_lcd_send
    95                           	FNCALL	_display_reading,___lwdiv
    96                           	FNCALL	_display_reading,_display_digit
    97                           	FNCALL	_display_reading,___lwmod
    98                           	FNCALL	_lcd_clear,_lcd_gotoxy
    99                           	FNCALL	_lcd_clear,_lcd_send
   100                           	FNCALL	_lcd_puts,_lcd_putch
   101                           	FNCALL	_display_unit,_lcd_gotoxy
   102                           	FNCALL	_display_unit,___wmul
   103                           	FNCALL	_display_unit,_lcd_send
   104                           	FNCALL	_display_digit,_lcd_gotoxy
   105                           	FNCALL	_display_digit,_lcd_send
   106                           	FNCALL	___flsub,___fladd
   107                           	FNCALL	_measure_freq,_delay10ms
   108                           	FNCALL	_lcd_putch,___wmul
   109                           	FNCALL	_lcd_putch,_lcd_send
   110                           	FNCALL	_lcd_init,_lcd_send
   111                           	FNCALL	_lcd_gotoxy,_lcd_send
   112                           	FNCALL	___lwtofl,___flpack
   113                           	FNCALL	___flmul,___flpack
   114                           	FNCALL	___fldiv,___flpack
   115                           	FNCALL	___fladd,___flpack
   116                           	FNCALL	_ser_puts,_ser_putch
   117                           	FNROOT	_main
   118                           	global	display@logo_image
   119                           psect	stringtext,class=STRCODE,delta=2,reloc=256
   120                           global __pstringtext
   121  0100                     __pstringtext:
   122                           ;	global	stringtab,__stringbase
   123  0100                     stringtab:
   124                           ;	String table - string pointers are 2 bytes each
   125  0100  1BFF               	btfsc	(btemp+1),7
   126  0101  290A               	ljmp	stringcode
   127  0102  1383               	bcf	status,7
   128  0103  187F               	btfsc	(btemp+1),0
   129  0104  1783               	bsf	status,7
   130  0105  0800               	movf	indf,w
   131  0106  0A84               	incf fsr
   132  0107  1903               skipnz
   133  0108  0AFF               incf btemp+1
   134  0109  0008               	return
   135  010A                     stringcode:
   136  010A  087F               	movf btemp+1,w
   137  010B  397F               andlw 7Fh
   138  010C  008A               movwf	pclath
   139  010D  0804               	movf	fsr,w
   140  010E  0A84               incf fsr
   141  010F  1903               skipnz
   142  0110  0AFF               incf btemp+1
   143  0111  0082               	movwf pc
   144  0112                     __stringbase:
   145                           	file	"C:\Users\vboxuser\Desktop\lc-meter\src\julznc\display.h"
   146                           	line	3
   147  0112                     display@logo_image:
   148  0112  3400               	retlw	0
   149  0113  3440               	retlw	040h
   150  0114  34C0               	retlw	0C0h
   151  0115  34C0               	retlw	0C0h
   152  0116  3480               	retlw	080h
   153  0117  3480               	retlw	080h
   154  0118  3400               	retlw	0
   155  0119  3400               	retlw	0
   156  011A  3400               	retlw	0
   157  011B  3400               	retlw	0
   158  011C  3400               	retlw	0
   159  011D  3400               	retlw	0
   160  011E  3400               	retlw	0
   161  011F  3400               	retlw	0
   162  0120  3400               	retlw	0
   163  0121  3400               	retlw	0
   164  0122  3400               	retlw	0
   165  0123  3400               	retlw	0
   166  0124  3400               	retlw	0
   167  0125  3400               	retlw	0
   168  0126  3400               	retlw	0
   169  0127  3400               	retlw	0
   170  0128  3400               	retlw	0
   171  0129  3400               	retlw	0
   172  012A  3400               	retlw	0
   173  012B  3400               	retlw	0
   174  012C  3400               	retlw	0
   175  012D  3400               	retlw	0
   176  012E  3400               	retlw	0
   177  012F  3400               	retlw	0
   178  0130  3400               	retlw	0
   179  0131  3400               	retlw	0
   180  0132  3400               	retlw	0
   181  0133  3400               	retlw	0
   182  0134  3400               	retlw	0
   183  0135  3400               	retlw	0
   184  0136  3400               	retlw	0
   185  0137  3400               	retlw	0
   186  0138  3400               	retlw	0
   187  0139  3400               	retlw	0
   188  013A  3400               	retlw	0
   189  013B  3400               	retlw	0
   190  013C  3400               	retlw	0
   191  013D  3400               	retlw	0
   192  013E  3400               	retlw	0
   193  013F  3400               	retlw	0
   194  0140  3400               	retlw	0
   195  0141  3400               	retlw	0
   196  0142  3400               	retlw	0
   197  0143  3400               	retlw	0
   198  0144  3400               	retlw	0
   199  0145  3400               	retlw	0
   200  0146  3400               	retlw	0
   201  0147  34E0               	retlw	0E0h
   202  0148  34F8               	retlw	0F8h
   203  0149  34F0               	retlw	0F0h
   204  014A  34E0               	retlw	0E0h
   205  014B  3400               	retlw	0
   206  014C  3400               	retlw	0
   207  014D  3400               	retlw	0
   208  014E  3400               	retlw	0
   209  014F  34E0               	retlw	0E0h
   210  0150  34E0               	retlw	0E0h
   211  0151  34E0               	retlw	0E0h
   212  0152  34C0               	retlw	0C0h
   213  0153  3480               	retlw	080h
   214  0154  3410               	retlw	010h
   215  0155  347C               	retlw	07Ch
   216  0156  34FC               	retlw	0FCh
   217  0157  34FE               	retlw	0FEh
   218  0158  34FC               	retlw	0FCh
   219  0159  34F8               	retlw	0F8h
   220  015A  34E0               	retlw	0E0h
   221  015B  34C0               	retlw	0C0h
   222  015C  3400               	retlw	0
   223  015D  3400               	retlw	0
   224  015E  3400               	retlw	0
   225  015F  3400               	retlw	0
   226  0160  3400               	retlw	0
   227  0161  3400               	retlw	0
   228  0162  3400               	retlw	0
   229  0163  3400               	retlw	0
   230  0164  3400               	retlw	0
   231  0165  3400               	retlw	0
   232  0166  3400               	retlw	0
   233  0167  3400               	retlw	0
   234  0168  3401               	retlw	01h
   235  0169  3407               	retlw	07h
   236  016A  341F               	retlw	01Fh
   237  016B  347F               	retlw	07Fh
   238  016C  34FC               	retlw	0FCh
   239  016D  34F8               	retlw	0F8h
   240  016E  34E0               	retlw	0E0h
   241  016F  3480               	retlw	080h
   242  0170  3400               	retlw	0
   243  0171  3400               	retlw	0
   244  0172  3400               	retlw	0
   245  0173  3400               	retlw	0
   246  0174  34FC               	retlw	0FCh
   247  0175  34FE               	retlw	0FEh
   248  0176  34FC               	retlw	0FCh
   249  0177  34DC               	retlw	0DCh
   250  0178  3418               	retlw	018h
   251  0179  3438               	retlw	038h
   252  017A  3470               	retlw	070h
   253  017B  34E0               	retlw	0E0h
   254  017C  3480               	retlw	080h
   255  017D  3400               	retlw	0
   256  017E  3400               	retlw	0
   257  017F  3400               	retlw	0
   258  0180  3400               	retlw	0
   259  0181  3400               	retlw	0
   260  0182  3400               	retlw	0
   261  0183  3400               	retlw	0
   262  0184  3400               	retlw	0
   263  0185  3400               	retlw	0
   264  0186  3400               	retlw	0
   265  0187  3480               	retlw	080h
   266  0188  3400               	retlw	0
   267  0189  3400               	retlw	0
   268  018A  3480               	retlw	080h
   269  018B  3480               	retlw	080h
   270  018C  3480               	retlw	080h
   271  018D  3400               	retlw	0
   272  018E  3480               	retlw	080h
   273  018F  34C0               	retlw	0C0h
   274  0190  34C0               	retlw	0C0h
   275  0191  34C0               	retlw	0C0h
   276  0192  3480               	retlw	080h
   277  0193  3480               	retlw	080h
   278  0194  3400               	retlw	0
   279  0195  3400               	retlw	0
   280  0196  34F0               	retlw	0F0h
   281  0197  34F8               	retlw	0F8h
   282  0198  34F8               	retlw	0F8h
   283  0199  3478               	retlw	078h
   284  019A  3470               	retlw	070h
   285  019B  34F0               	retlw	0F0h
   286  019C  34CF               	retlw	0CFh
   287  019D  349F               	retlw	09Fh
   288  019E  343F               	retlw	03Fh
   289  019F  347F               	retlw	07Fh
   290  01A0  34FF               	retlw	0FFh
   291  01A1  34F6               	retlw	0F6h
   292  01A2  34C0               	retlw	0C0h
   293  01A3  3487               	retlw	087h
   294  01A4  347F               	retlw	07Fh
   295  01A5  34FF               	retlw	0FFh
   296  01A6  34FF               	retlw	0FFh
   297  01A7  34E7               	retlw	0E7h
   298  01A8  349F               	retlw	09Fh
   299  01A9  34FC               	retlw	0FCh
   300  01AA  34FB               	retlw	0FBh
   301  01AB  34FF               	retlw	0FFh
   302  01AC  34FF               	retlw	0FFh
   303  01AD  34FF               	retlw	0FFh
   304  01AE  34FF               	retlw	0FFh
   305  01AF  34FF               	retlw	0FFh
   306  01B0  34DF               	retlw	0DFh
   307  01B1  3418               	retlw	018h
   308  01B2  3400               	retlw	0
   309  01B3  3400               	retlw	0
   310  01B4  3400               	retlw	0
   311  01B5  3400               	retlw	0
   312  01B6  3400               	retlw	0
   313  01B7  3400               	retlw	0
   314  01B8  3400               	retlw	0
   315  01B9  3400               	retlw	0
   316  01BA  3400               	retlw	0
   317  01BB  3400               	retlw	0
   318  01BC  3400               	retlw	0
   319  01BD  3400               	retlw	0
   320  01BE  3400               	retlw	0
   321  01BF  3400               	retlw	0
   322  01C0  3401               	retlw	01h
   323  01C1  3403               	retlw	03h
   324  01C2  340F               	retlw	0Fh
   325  01C3  347F               	retlw	07Fh
   326  01C4  34FE               	retlw	0FEh
   327  01C5  34F8               	retlw	0F8h
   328  01C6  34E0               	retlw	0E0h
   329  01C7  3480               	retlw	080h
   330  01C8  3400               	retlw	0
   331  01C9  3407               	retlw	07h
   332  01CA  343F               	retlw	03Fh
   333  01CB  34FF               	retlw	0FFh
   334  01CC  34FE               	retlw	0FEh
   335  01CD  34FC               	retlw	0FCh
   336  01CE  34E0               	retlw	0E0h
   337  01CF  3401               	retlw	01h
   338  01D0  3403               	retlw	03h
   339  01D1  340F               	retlw	0Fh
   340  01D2  3404               	retlw	04h
   341  01D3  3400               	retlw	0
   342  01D4  3400               	retlw	0
   343  01D5  3400               	retlw	0
   344  01D6  3400               	retlw	0
   345  01D7  3400               	retlw	0
   346  01D8  3400               	retlw	0
   347  01D9  3403               	retlw	03h
   348  01DA  340F               	retlw	0Fh
   349  01DB  343F               	retlw	03Fh
   350  01DC  34FF               	retlw	0FFh
   351  01DD  34FF               	retlw	0FFh
   352  01DE  34FF               	retlw	0FFh
   353  01DF  34E7               	retlw	0E7h
   354  01E0  341F               	retlw	01Fh
   355  01E1  347F               	retlw	07Fh
   356  01E2  34FF               	retlw	0FFh
   357  01E3  34FF               	retlw	0FFh
   358  01E4  34F3               	retlw	0F3h
   359  01E5  34CF               	retlw	0CFh
   360  01E6  343F               	retlw	03Fh
   361  01E7  34FF               	retlw	0FFh
   362  01E8  34FE               	retlw	0FEh
   363  01E9  34F8               	retlw	0F8h
   364  01EA  34E3               	retlw	0E3h
   365  01EB  349F               	retlw	09Fh
   366  01EC  347F               	retlw	07Fh
   367  01ED  34FF               	retlw	0FFh
   368  01EE  34FC               	retlw	0FCh
   369  01EF  34FF               	retlw	0FFh
   370  01F0  34DF               	retlw	0DFh
   371  01F1  341F               	retlw	01Fh
   372  01F2  340F               	retlw	0Fh
   373  01F3  340E               	retlw	0Eh
   374  01F4  34C3               	retlw	0C3h
   375  01F5  34CF               	retlw	0CFh
   376  01F6  343F               	retlw	03Fh
   377  01F7  34FF               	retlw	0FFh
   378  01F8  34FE               	retlw	0FEh
   379  01F9  34F9               	retlw	0F9h
   380  01FA  34C7               	retlw	0C7h
   381  01FB  341F               	retlw	01Fh
   382  01FC  347F               	retlw	07Fh
   383  01FD  34FF               	retlw	0FFh
   384  01FE  34FF               	retlw	0FFh
   385  01FF  34F3               	retlw	0F3h
   386  0200  3483               	retlw	083h
   387  0201  3403               	retlw	03h
   388  0202  3421               	retlw	021h
   389  0203  34E7               	retlw	0E7h
   390  0204  34DF               	retlw	0DFh
   391  0205  34FF               	retlw	0FFh
   392  0206  34FC               	retlw	0FCh
   393  0207  34F0               	retlw	0F0h
   394  0208  34C0               	retlw	0C0h
   395  0209  3400               	retlw	0
   396  020A  3400               	retlw	0
   397  020B  3400               	retlw	0
   398  020C  3400               	retlw	0
   399  020D  3400               	retlw	0
   400  020E  3400               	retlw	0
   401  020F  3400               	retlw	0
   402  0210  3400               	retlw	0
   403  0211  3400               	retlw	0
   404  0212  3400               	retlw	0
   405  0213  3400               	retlw	0
   406  0214  3400               	retlw	0
   407  0215  3400               	retlw	0
   408  0216  3400               	retlw	0
   409  0217  3400               	retlw	0
   410  0218  3401               	retlw	01h
   411  0219  3403               	retlw	03h
   412  021A  340F               	retlw	0Fh
   413  021B  343F               	retlw	03Fh
   414  021C  34FE               	retlw	0FEh
   415  021D  34F8               	retlw	0F8h
   416  021E  34E0               	retlw	0E0h
   417  021F  3480               	retlw	080h
   418  0220  3401               	retlw	01h
   419  0221  3407               	retlw	07h
   420  0222  341F               	retlw	01Fh
   421  0223  34FF               	retlw	0FFh
   422  0224  34FE               	retlw	0FEh
   423  0225  34F8               	retlw	0F8h
   424  0226  34E0               	retlw	0E0h
   425  0227  3480               	retlw	080h
   426  0228  3400               	retlw	0
   427  0229  3404               	retlw	04h
   428  022A  341C               	retlw	01Ch
   429  022B  34F8               	retlw	0F8h
   430  022C  34F0               	retlw	0F0h
   431  022D  3480               	retlw	080h
   432  022E  3400               	retlw	0
   433  022F  3400               	retlw	0
   434  0230  3401               	retlw	01h
   435  0231  3403               	retlw	03h
   436  0232  340F               	retlw	0Fh
   437  0233  343F               	retlw	03Fh
   438  0234  34FF               	retlw	0FFh
   439  0235  34FE               	retlw	0FEh
   440  0236  34F9               	retlw	0F9h
   441  0237  34E7               	retlw	0E7h
   442  0238  349F               	retlw	09Fh
   443  0239  347F               	retlw	07Fh
   444  023A  347F               	retlw	07Fh
   445  023B  347C               	retlw	07Ch
   446  023C  3471               	retlw	071h
   447  023D  3407               	retlw	07h
   448  023E  343F               	retlw	03Fh
   449  023F  343F               	retlw	03Fh
   450  0240  341E               	retlw	01Eh
   451  0241  341D               	retlw	01Dh
   452  0242  3401               	retlw	01h
   453  0243  3403               	retlw	03h
   454  0244  3407               	retlw	07h
   455  0245  340F               	retlw	0Fh
   456  0246  340E               	retlw	0Eh
   457  0247  340E               	retlw	0Eh
   458  0248  340C               	retlw	0Ch
   459  0249  340F               	retlw	0Fh
   460  024A  340F               	retlw	0Fh
   461  024B  3400               	retlw	0
   462  024C  3401               	retlw	01h
   463  024D  3403               	retlw	03h
   464  024E  3407               	retlw	07h
   465  024F  340F               	retlw	0Fh
   466  0250  340E               	retlw	0Eh
   467  0251  340F               	retlw	0Fh
   468  0252  3407               	retlw	07h
   469  0253  3403               	retlw	03h
   470  0254  3407               	retlw	07h
   471  0255  340E               	retlw	0Eh
   472  0256  341E               	retlw	01Eh
   473  0257  343D               	retlw	03Dh
   474  0258  343F               	retlw	03Fh
   475  0259  343F               	retlw	03Fh
   476  025A  3419               	retlw	019h
   477  025B  3407               	retlw	07h
   478  025C  341F               	retlw	01Fh
   479  025D  347F               	retlw	07Fh
   480  025E  347E               	retlw	07Eh
   481  025F  3478               	retlw	078h
   482  0260  34C0               	retlw	0C0h
   483  0261  3400               	retlw	0
   484  0262  3400               	retlw	0
   485  0263  3400               	retlw	0
   486  0264  3400               	retlw	0
   487  0265  3400               	retlw	0
   488  0266  3400               	retlw	0
   489  0267  3400               	retlw	0
   490  0268  3400               	retlw	0
   491  0269  3400               	retlw	0
   492  026A  3400               	retlw	0
   493  026B  3400               	retlw	0
   494  026C  3400               	retlw	0
   495  026D  3400               	retlw	0
   496  026E  3400               	retlw	0
   497  026F  3400               	retlw	0
   498  0270  3400               	retlw	0
   499  0271  3403               	retlw	03h
   500  0272  340F               	retlw	0Fh
   501  0273  343F               	retlw	03Fh
   502  0274  34FE               	retlw	0FEh
   503  0275  34F8               	retlw	0F8h
   504  0276  34F0               	retlw	0F0h
   505  0277  3480               	retlw	080h
   506  0278  3401               	retlw	01h
   507  0279  3407               	retlw	07h
   508  027A  340F               	retlw	0Fh
   509  027B  349F               	retlw	09Fh
   510  027C  34FF               	retlw	0FFh
   511  027D  347C               	retlw	07Ch
   512  027E  34F8               	retlw	0F8h
   513  027F  34F0               	retlw	0F0h
   514  0280  34F7               	retlw	0F7h
   515  0281  34FF               	retlw	0FFh
   516  0282  347E               	retlw	07Eh
   517  0283  3400               	retlw	0
   518  0284  3400               	retlw	0
   519  0285  3400               	retlw	0
   520  0286  3400               	retlw	0
   521  0287  3400               	retlw	0
   522  0288  3400               	retlw	0
   523  0289  3401               	retlw	01h
   524  028A  3401               	retlw	01h
   525  028B  3400               	retlw	0
   526  028C  3400               	retlw	0
   527  028D  3400               	retlw	0
   528  028E  3400               	retlw	0
   529  028F  3400               	retlw	0
   530  0290  3400               	retlw	0
   531  0291  3400               	retlw	0
   532  0292  3400               	retlw	0
   533  0293  3400               	retlw	0
   534  0294  3400               	retlw	0
   535  0295  3400               	retlw	0
   536  0296  3400               	retlw	0
   537  0297  3400               	retlw	0
   538  0298  3400               	retlw	0
   539  0299  3400               	retlw	0
   540  029A  3400               	retlw	0
   541  029B  3400               	retlw	0
   542  029C  3400               	retlw	0
   543  029D  3400               	retlw	0
   544  029E  3400               	retlw	0
   545  029F  3400               	retlw	0
   546  02A0  3400               	retlw	0
   547  02A1  3400               	retlw	0
   548  02A2  3400               	retlw	0
   549  02A3  3400               	retlw	0
   550  02A4  3400               	retlw	0
   551  02A5  3400               	retlw	0
   552  02A6  3400               	retlw	0
   553  02A7  3400               	retlw	0
   554  02A8  3400               	retlw	0
   555  02A9  3400               	retlw	0
   556  02AA  3400               	retlw	0
   557  02AB  3400               	retlw	0
   558  02AC  3400               	retlw	0
   559  02AD  3400               	retlw	0
   560  02AE  3400               	retlw	0
   561  02AF  3400               	retlw	0
   562  02B0  3400               	retlw	0
   563  02B1  3400               	retlw	0
   564  02B2  3400               	retlw	0
   565  02B3  3400               	retlw	0
   566  02B4  3400               	retlw	0
   567  02B5  3400               	retlw	0
   568  02B6  3400               	retlw	0
   569  02B7  3400               	retlw	0
   570  02B8  3400               	retlw	0
   571  02B9  3400               	retlw	0
   572  02BA  3400               	retlw	0
   573  02BB  3400               	retlw	0
   574  02BC  3400               	retlw	0
   575  02BD  3400               	retlw	0
   576  02BE  3400               	retlw	0
   577  02BF  3400               	retlw	0
   578  02C0  3400               	retlw	0
   579  02C1  3400               	retlw	0
   580  02C2  3400               	retlw	0
   581  02C3  3400               	retlw	0
   582  02C4  3400               	retlw	0
   583  02C5  3400               	retlw	0
   584  02C6  3400               	retlw	0
   585  02C7  3400               	retlw	0
   586  02C8  3400               	retlw	0
   587  02C9  3403               	retlw	03h
   588  02CA  340F               	retlw	0Fh
   589  02CB  343F               	retlw	03Fh
   590  02CC  34FE               	retlw	0FEh
   591  02CD  34FE               	retlw	0FEh
   592  02CE  347F               	retlw	07Fh
   593  02CF  343F               	retlw	03Fh
   594  02D0  341F               	retlw	01Fh
   595  02D1  340C               	retlw	0Ch
   596  02D2  3400               	retlw	0
   597  02D3  3400               	retlw	0
   598  02D4  3400               	retlw	0
   599  02D5  3400               	retlw	0
   600  02D6  3400               	retlw	0
   601  02D7  3400               	retlw	0
   602  02D8  3400               	retlw	0
   603  02D9  3400               	retlw	0
   604  02DA  3400               	retlw	0
   605  02DB  3400               	retlw	0
   606  02DC  3400               	retlw	0
   607  02DD  3400               	retlw	0
   608  02DE  3400               	retlw	0
   609  02DF  3400               	retlw	0
   610  02E0  3400               	retlw	0
   611  02E1  3400               	retlw	0
   612  02E2  3400               	retlw	0
   613  02E3  3400               	retlw	0
   614  02E4  3400               	retlw	0
   615  02E5  3400               	retlw	0
   616  02E6  3400               	retlw	0
   617  02E7  3400               	retlw	0
   618  02E8  3400               	retlw	0
   619  02E9  3400               	retlw	0
   620  02EA  3400               	retlw	0
   621  02EB  3400               	retlw	0
   622  02EC  3400               	retlw	0
   623  02ED  3400               	retlw	0
   624  02EE  3400               	retlw	0
   625  02EF  3400               	retlw	0
   626  02F0  3400               	retlw	0
   627  02F1  3400               	retlw	0
   628  02F2  3400               	retlw	0
   629  02F3  3400               	retlw	0
   630  02F4  3400               	retlw	0
   631  02F5  3400               	retlw	0
   632  02F6  3400               	retlw	0
   633  02F7  3400               	retlw	0
   634  02F8  3400               	retlw	0
   635  02F9  3400               	retlw	0
   636  02FA  3400               	retlw	0
   637  02FB  3400               	retlw	0
   638  02FC  3400               	retlw	0
   639  02FD  3400               	retlw	0
   640  02FE  3400               	retlw	0
   641  02FF  3400               	retlw	0
   642  0300  3400               	retlw	0
   643  0301  3400               	retlw	0
   644  0302  3400               	retlw	0
   645  0303  3400               	retlw	0
   646  0304  3400               	retlw	0
   647  0305  3400               	retlw	0
   648  0306  3400               	retlw	0
   649  0307  3400               	retlw	0
   650  0308  3400               	retlw	0
   651  0309  3400               	retlw	0
   652                           	global	_lcd_font
   653                           psect	stringtext
   654                           	file	"C:\Users\vboxuser\Desktop\lc-meter\src\julznc\lcd3310.c"
   655                           	line	15
   656  030A                     _lcd_font:
   657  030A  3400               	retlw	0
   658  030B  3400               	retlw	0
   659  030C  3400               	retlw	0
   660  030D  3400               	retlw	0
   661  030E  3400               	retlw	0
   662  030F  3400               	retlw	0
   663  0310  3400               	retlw	0
   664  0311  342F               	retlw	02Fh
   665  0312  3400               	retlw	0
   666  0313  3400               	retlw	0
   667  0314  3400               	retlw	0
   668  0315  3407               	retlw	07h
   669  0316  3400               	retlw	0
   670  0317  3407               	retlw	07h
   671  0318  3400               	retlw	0
   672  0319  3414               	retlw	014h
   673  031A  347F               	retlw	07Fh
   674  031B  3414               	retlw	014h
   675  031C  347F               	retlw	07Fh
   676  031D  3414               	retlw	014h
   677  031E  3424               	retlw	024h
   678  031F  342A               	retlw	02Ah
   679  0320  347F               	retlw	07Fh
   680  0321  342A               	retlw	02Ah
   681  0322  3412               	retlw	012h
   682  0323  3423               	retlw	023h
   683  0324  3413               	retlw	013h
   684  0325  3408               	retlw	08h
   685  0326  3464               	retlw	064h
   686  0327  3462               	retlw	062h
   687  0328  3436               	retlw	036h
   688  0329  3449               	retlw	049h
   689  032A  3455               	retlw	055h
   690  032B  3422               	retlw	022h
   691  032C  3450               	retlw	050h
   692  032D  3400               	retlw	0
   693  032E  3405               	retlw	05h
   694  032F  3403               	retlw	03h
   695  0330  3400               	retlw	0
   696  0331  3400               	retlw	0
   697  0332  3400               	retlw	0
   698  0333  341C               	retlw	01Ch
   699  0334  3422               	retlw	022h
   700  0335  3441               	retlw	041h
   701  0336  3400               	retlw	0
   702  0337  3400               	retlw	0
   703  0338  3441               	retlw	041h
   704  0339  3422               	retlw	022h
   705  033A  341C               	retlw	01Ch
   706  033B  3400               	retlw	0
   707  033C  3414               	retlw	014h
   708  033D  3408               	retlw	08h
   709  033E  343E               	retlw	03Eh
   710  033F  3408               	retlw	08h
   711  0340  3414               	retlw	014h
   712  0341  3408               	retlw	08h
   713  0342  3408               	retlw	08h
   714  0343  343E               	retlw	03Eh
   715  0344  3408               	retlw	08h
   716  0345  3408               	retlw	08h
   717  0346  3400               	retlw	0
   718  0347  3400               	retlw	0
   719  0348  3450               	retlw	050h
   720  0349  3430               	retlw	030h
   721  034A  3400               	retlw	0
   722  034B  3410               	retlw	010h
   723  034C  3410               	retlw	010h
   724  034D  3410               	retlw	010h
   725  034E  3410               	retlw	010h
   726  034F  3410               	retlw	010h
   727  0350  3400               	retlw	0
   728  0351  3460               	retlw	060h
   729  0352  3460               	retlw	060h
   730  0353  3400               	retlw	0
   731  0354  3400               	retlw	0
   732  0355  3420               	retlw	020h
   733  0356  3410               	retlw	010h
   734  0357  3408               	retlw	08h
   735  0358  3404               	retlw	04h
   736  0359  3402               	retlw	02h
   737  035A  343E               	retlw	03Eh
   738  035B  3451               	retlw	051h
   739  035C  3449               	retlw	049h
   740  035D  3445               	retlw	045h
   741  035E  343E               	retlw	03Eh
   742  035F  3400               	retlw	0
   743  0360  3442               	retlw	042h
   744  0361  347F               	retlw	07Fh
   745  0362  3440               	retlw	040h
   746  0363  3400               	retlw	0
   747  0364  3442               	retlw	042h
   748  0365  3461               	retlw	061h
   749  0366  3451               	retlw	051h
   750  0367  3449               	retlw	049h
   751  0368  3446               	retlw	046h
   752  0369  3421               	retlw	021h
   753  036A  3441               	retlw	041h
   754  036B  3445               	retlw	045h
   755  036C  344B               	retlw	04Bh
   756  036D  3431               	retlw	031h
   757  036E  3418               	retlw	018h
   758  036F  3414               	retlw	014h
   759  0370  3412               	retlw	012h
   760  0371  347F               	retlw	07Fh
   761  0372  3410               	retlw	010h
   762  0373  3427               	retlw	027h
   763  0374  3445               	retlw	045h
   764  0375  3445               	retlw	045h
   765  0376  3445               	retlw	045h
   766  0377  3439               	retlw	039h
   767  0378  343C               	retlw	03Ch
   768  0379  344A               	retlw	04Ah
   769  037A  3449               	retlw	049h
   770  037B  3449               	retlw	049h
   771  037C  3430               	retlw	030h
   772  037D  3401               	retlw	01h
   773  037E  3471               	retlw	071h
   774  037F  3409               	retlw	09h
   775  0380  3405               	retlw	05h
   776  0381  3403               	retlw	03h
   777  0382  3436               	retlw	036h
   778  0383  3449               	retlw	049h
   779  0384  3449               	retlw	049h
   780  0385  3449               	retlw	049h
   781  0386  3436               	retlw	036h
   782  0387  3406               	retlw	06h
   783  0388  3449               	retlw	049h
   784  0389  3449               	retlw	049h
   785  038A  3429               	retlw	029h
   786  038B  341E               	retlw	01Eh
   787  038C  3400               	retlw	0
   788  038D  3436               	retlw	036h
   789  038E  3436               	retlw	036h
   790  038F  3400               	retlw	0
   791  0390  3400               	retlw	0
   792  0391  3400               	retlw	0
   793  0392  3456               	retlw	056h
   794  0393  3436               	retlw	036h
   795  0394  3400               	retlw	0
   796  0395  3400               	retlw	0
   797  0396  3408               	retlw	08h
   798  0397  3414               	retlw	014h
   799  0398  3422               	retlw	022h
   800  0399  3441               	retlw	041h
   801  039A  3400               	retlw	0
   802  039B  3414               	retlw	014h
   803  039C  3414               	retlw	014h
   804  039D  3414               	retlw	014h
   805  039E  3414               	retlw	014h
   806  039F  3414               	retlw	014h
   807  03A0  3400               	retlw	0
   808  03A1  3441               	retlw	041h
   809  03A2  3422               	retlw	022h
   810  03A3  3414               	retlw	014h
   811  03A4  3408               	retlw	08h
   812  03A5  3402               	retlw	02h
   813  03A6  3401               	retlw	01h
   814  03A7  3451               	retlw	051h
   815  03A8  3409               	retlw	09h
   816  03A9  3406               	retlw	06h
   817  03AA  3432               	retlw	032h
   818  03AB  3449               	retlw	049h
   819  03AC  3459               	retlw	059h
   820  03AD  3451               	retlw	051h
   821  03AE  343E               	retlw	03Eh
   822  03AF  347E               	retlw	07Eh
   823  03B0  3411               	retlw	011h
   824  03B1  3411               	retlw	011h
   825  03B2  3411               	retlw	011h
   826  03B3  347E               	retlw	07Eh
   827  03B4  347F               	retlw	07Fh
   828  03B5  3449               	retlw	049h
   829  03B6  3449               	retlw	049h
   830  03B7  3449               	retlw	049h
   831  03B8  3436               	retlw	036h
   832  03B9  343E               	retlw	03Eh
   833  03BA  3441               	retlw	041h
   834  03BB  3441               	retlw	041h
   835  03BC  3441               	retlw	041h
   836  03BD  3422               	retlw	022h
   837  03BE  347F               	retlw	07Fh
   838  03BF  3441               	retlw	041h
   839  03C0  3441               	retlw	041h
   840  03C1  3422               	retlw	022h
   841  03C2  341C               	retlw	01Ch
   842  03C3  347F               	retlw	07Fh
   843  03C4  3449               	retlw	049h
   844  03C5  3449               	retlw	049h
   845  03C6  3449               	retlw	049h
   846  03C7  3441               	retlw	041h
   847  03C8  347F               	retlw	07Fh
   848  03C9  3409               	retlw	09h
   849  03CA  3409               	retlw	09h
   850  03CB  3409               	retlw	09h
   851  03CC  3401               	retlw	01h
   852  03CD  343E               	retlw	03Eh
   853  03CE  3441               	retlw	041h
   854  03CF  3449               	retlw	049h
   855  03D0  3449               	retlw	049h
   856  03D1  347A               	retlw	07Ah
   857  03D2  347F               	retlw	07Fh
   858  03D3  3408               	retlw	08h
   859  03D4  3408               	retlw	08h
   860  03D5  3408               	retlw	08h
   861  03D6  347F               	retlw	07Fh
   862  03D7  3400               	retlw	0
   863  03D8  3441               	retlw	041h
   864  03D9  347F               	retlw	07Fh
   865  03DA  3441               	retlw	041h
   866  03DB  3400               	retlw	0
   867  03DC  3420               	retlw	020h
   868  03DD  3440               	retlw	040h
   869  03DE  3441               	retlw	041h
   870  03DF  343F               	retlw	03Fh
   871  03E0  3401               	retlw	01h
   872  03E1  347F               	retlw	07Fh
   873  03E2  3408               	retlw	08h
   874  03E3  3414               	retlw	014h
   875  03E4  3422               	retlw	022h
   876  03E5  3441               	retlw	041h
   877  03E6  347F               	retlw	07Fh
   878  03E7  3440               	retlw	040h
   879  03E8  3440               	retlw	040h
   880  03E9  3440               	retlw	040h
   881  03EA  3440               	retlw	040h
   882  03EB  347F               	retlw	07Fh
   883  03EC  3402               	retlw	02h
   884  03ED  340C               	retlw	0Ch
   885  03EE  3402               	retlw	02h
   886  03EF  347F               	retlw	07Fh
   887  03F0  347F               	retlw	07Fh
   888  03F1  3404               	retlw	04h
   889  03F2  3408               	retlw	08h
   890  03F3  3410               	retlw	010h
   891  03F4  347F               	retlw	07Fh
   892  03F5  343E               	retlw	03Eh
   893  03F6  3441               	retlw	041h
   894  03F7  3441               	retlw	041h
   895  03F8  3441               	retlw	041h
   896  03F9  343E               	retlw	03Eh
   897  03FA  347F               	retlw	07Fh
   898  03FB  3409               	retlw	09h
   899  03FC  3409               	retlw	09h
   900  03FD  3409               	retlw	09h
   901  03FE  3406               	retlw	06h
   902  03FF  343E               	retlw	03Eh
   903  0400  3441               	retlw	041h
   904  0401  3451               	retlw	051h
   905  0402  3421               	retlw	021h
   906  0403  345E               	retlw	05Eh
   907  0404  347F               	retlw	07Fh
   908  0405  3409               	retlw	09h
   909  0406  3419               	retlw	019h
   910  0407  3429               	retlw	029h
   911  0408  3446               	retlw	046h
   912  0409  3446               	retlw	046h
   913  040A  3449               	retlw	049h
   914  040B  3449               	retlw	049h
   915  040C  3449               	retlw	049h
   916  040D  3431               	retlw	031h
   917  040E  3401               	retlw	01h
   918  040F  3401               	retlw	01h
   919  0410  347F               	retlw	07Fh
   920  0411  3401               	retlw	01h
   921  0412  3401               	retlw	01h
   922  0413  343F               	retlw	03Fh
   923  0414  3440               	retlw	040h
   924  0415  3440               	retlw	040h
   925  0416  3440               	retlw	040h
   926  0417  343F               	retlw	03Fh
   927  0418  341F               	retlw	01Fh
   928  0419  3420               	retlw	020h
   929  041A  3440               	retlw	040h
   930  041B  3420               	retlw	020h
   931  041C  341F               	retlw	01Fh
   932  041D  343F               	retlw	03Fh
   933  041E  3440               	retlw	040h
   934  041F  3438               	retlw	038h
   935  0420  3440               	retlw	040h
   936  0421  343F               	retlw	03Fh
   937  0422  3463               	retlw	063h
   938  0423  3414               	retlw	014h
   939  0424  3408               	retlw	08h
   940  0425  3414               	retlw	014h
   941  0426  3463               	retlw	063h
   942  0427  3407               	retlw	07h
   943  0428  3408               	retlw	08h
   944  0429  3470               	retlw	070h
   945  042A  3408               	retlw	08h
   946  042B  3407               	retlw	07h
   947  042C  3461               	retlw	061h
   948  042D  3451               	retlw	051h
   949  042E  3449               	retlw	049h
   950  042F  3445               	retlw	045h
   951  0430  3443               	retlw	043h
   952  0431  3400               	retlw	0
   953  0432  347F               	retlw	07Fh
   954  0433  3441               	retlw	041h
   955  0434  3441               	retlw	041h
   956  0435  3400               	retlw	0
   957  0436  3455               	retlw	055h
   958  0437  342A               	retlw	02Ah
   959  0438  3455               	retlw	055h
   960  0439  342A               	retlw	02Ah
   961  043A  3455               	retlw	055h
   962  043B  3400               	retlw	0
   963  043C  3441               	retlw	041h
   964  043D  3441               	retlw	041h
   965  043E  347F               	retlw	07Fh
   966  043F  3400               	retlw	0
   967  0440  3404               	retlw	04h
   968  0441  3402               	retlw	02h
   969  0442  3401               	retlw	01h
   970  0443  3402               	retlw	02h
   971  0444  3404               	retlw	04h
   972  0445  3440               	retlw	040h
   973  0446  3440               	retlw	040h
   974  0447  3440               	retlw	040h
   975  0448  3440               	retlw	040h
   976  0449  3440               	retlw	040h
   977  044A  3400               	retlw	0
   978  044B  3401               	retlw	01h
   979  044C  3402               	retlw	02h
   980  044D  3404               	retlw	04h
   981  044E  3400               	retlw	0
   982  044F  3420               	retlw	020h
   983  0450  3454               	retlw	054h
   984  0451  3454               	retlw	054h
   985  0452  3454               	retlw	054h
   986  0453  3478               	retlw	078h
   987  0454  347F               	retlw	07Fh
   988  0455  3448               	retlw	048h
   989  0456  3444               	retlw	044h
   990  0457  3444               	retlw	044h
   991  0458  3438               	retlw	038h
   992  0459  3438               	retlw	038h
   993  045A  3444               	retlw	044h
   994  045B  3444               	retlw	044h
   995  045C  3444               	retlw	044h
   996  045D  3420               	retlw	020h
   997  045E  3438               	retlw	038h
   998  045F  3444               	retlw	044h
   999  0460  3444               	retlw	044h
  1000  0461  3448               	retlw	048h
  1001  0462  347F               	retlw	07Fh
  1002  0463  3438               	retlw	038h
  1003  0464  3454               	retlw	054h
  1004  0465  3454               	retlw	054h
  1005  0466  3454               	retlw	054h
  1006  0467  3418               	retlw	018h
  1007  0468  3408               	retlw	08h
  1008  0469  347E               	retlw	07Eh
  1009  046A  3409               	retlw	09h
  1010  046B  3401               	retlw	01h
  1011  046C  3402               	retlw	02h
  1012  046D  340C               	retlw	0Ch
  1013  046E  3452               	retlw	052h
  1014  046F  3452               	retlw	052h
  1015  0470  3452               	retlw	052h
  1016  0471  343E               	retlw	03Eh
  1017  0472  347F               	retlw	07Fh
  1018  0473  3408               	retlw	08h
  1019  0474  3404               	retlw	04h
  1020  0475  3404               	retlw	04h
  1021  0476  3478               	retlw	078h
  1022  0477  3400               	retlw	0
  1023  0478  3444               	retlw	044h
  1024  0479  347D               	retlw	07Dh
  1025  047A  3440               	retlw	040h
  1026  047B  3400               	retlw	0
  1027  047C  3420               	retlw	020h
  1028  047D  3440               	retlw	040h
  1029  047E  3444               	retlw	044h
  1030  047F  343D               	retlw	03Dh
  1031  0480  3400               	retlw	0
  1032  0481  347F               	retlw	07Fh
  1033  0482  3410               	retlw	010h
  1034  0483  3428               	retlw	028h
  1035  0484  3444               	retlw	044h
  1036  0485  3400               	retlw	0
  1037  0486  3400               	retlw	0
  1038  0487  3441               	retlw	041h
  1039  0488  347F               	retlw	07Fh
  1040  0489  3440               	retlw	040h
  1041  048A  3400               	retlw	0
  1042  048B  347C               	retlw	07Ch
  1043  048C  3404               	retlw	04h
  1044  048D  3418               	retlw	018h
  1045  048E  3404               	retlw	04h
  1046  048F  3478               	retlw	078h
  1047  0490  347C               	retlw	07Ch
  1048  0491  3408               	retlw	08h
  1049  0492  3404               	retlw	04h
  1050  0493  3404               	retlw	04h
  1051  0494  3478               	retlw	078h
  1052  0495  3438               	retlw	038h
  1053  0496  3444               	retlw	044h
  1054  0497  3444               	retlw	044h
  1055  0498  3444               	retlw	044h
  1056  0499  3438               	retlw	038h
  1057  049A  347C               	retlw	07Ch
  1058  049B  3414               	retlw	014h
  1059  049C  3414               	retlw	014h
  1060  049D  3414               	retlw	014h
  1061  049E  3408               	retlw	08h
  1062  049F  3408               	retlw	08h
  1063  04A0  3414               	retlw	014h
  1064  04A1  3414               	retlw	014h
  1065  04A2  3418               	retlw	018h
  1066  04A3  347C               	retlw	07Ch
  1067  04A4  347C               	retlw	07Ch
  1068  04A5  3408               	retlw	08h
  1069  04A6  3404               	retlw	04h
  1070  04A7  3404               	retlw	04h
  1071  04A8  3408               	retlw	08h
  1072  04A9  3448               	retlw	048h
  1073  04AA  3454               	retlw	054h
  1074  04AB  3454               	retlw	054h
  1075  04AC  3454               	retlw	054h
  1076  04AD  3420               	retlw	020h
  1077  04AE  3404               	retlw	04h
  1078  04AF  343F               	retlw	03Fh
  1079  04B0  3444               	retlw	044h
  1080  04B1  3440               	retlw	040h
  1081  04B2  3420               	retlw	020h
  1082  04B3  343C               	retlw	03Ch
  1083  04B4  3440               	retlw	040h
  1084  04B5  3440               	retlw	040h
  1085  04B6  3420               	retlw	020h
  1086  04B7  347C               	retlw	07Ch
  1087  04B8  341C               	retlw	01Ch
  1088  04B9  3420               	retlw	020h
  1089  04BA  3440               	retlw	040h
  1090  04BB  3420               	retlw	020h
  1091  04BC  341C               	retlw	01Ch
  1092  04BD  343C               	retlw	03Ch
  1093  04BE  3440               	retlw	040h
  1094  04BF  3430               	retlw	030h
  1095  04C0  3440               	retlw	040h
  1096  04C1  343C               	retlw	03Ch
  1097  04C2  3444               	retlw	044h
  1098  04C3  3428               	retlw	028h
  1099  04C4  3410               	retlw	010h
  1100  04C5  3428               	retlw	028h
  1101  04C6  3444               	retlw	044h
  1102  04C7  340C               	retlw	0Ch
  1103  04C8  3450               	retlw	050h
  1104  04C9  3450               	retlw	050h
  1105  04CA  3450               	retlw	050h
  1106  04CB  343C               	retlw	03Ch
  1107  04CC  3444               	retlw	044h
  1108  04CD  3464               	retlw	064h
  1109  04CE  3454               	retlw	054h
  1110  04CF  344C               	retlw	04Ch
  1111  04D0  3444               	retlw	044h
  1112                           	global	_units
  1113                           psect	stringtext
  1114                           	file	"C:\Users\vboxuser\Desktop\lc-meter\src\julznc\display.h"
  1115                           	line	43
  1116  04D1                     _units:
  1117  04D1  3400               	retlw	0
  1118  04D2  3400               	retlw	0
  1119  04D3  3400               	retlw	0
  1120  04D4  3400               	retlw	0
  1121  04D5  3400               	retlw	0
  1122  04D6  3400               	retlw	0
  1123  04D7  3400               	retlw	0
  1124  04D8  3400               	retlw	0
  1125  04D9  3400               	retlw	0
  1126  04DA  3400               	retlw	0
  1127  04DB  3400               	retlw	0
  1128  04DC  34FC               	retlw	0FCh
  1129  04DD  34FC               	retlw	0FCh
  1130  04DE  34C0               	retlw	0C0h
  1131  04DF  34C0               	retlw	0C0h
  1132  04E0  34C0               	retlw	0C0h
  1133  04E1  34FC               	retlw	0FCh
  1134  04E2  34FC               	retlw	0FCh
  1135  04E3  3400               	retlw	0
  1136  04E4  3400               	retlw	0
  1137  04E5  3400               	retlw	0
  1138  04E6  3400               	retlw	0
  1139  04E7  3400               	retlw	0
  1140  04E8  3400               	retlw	0
  1141  04E9  3400               	retlw	0
  1142  04EA  3400               	retlw	0
  1143  04EB  3400               	retlw	0
  1144  04EC  3400               	retlw	0
  1145  04ED  3400               	retlw	0
  1146  04EE  341F               	retlw	01Fh
  1147  04EF  341F               	retlw	01Fh
  1148  04F0  3400               	retlw	0
  1149  04F1  3400               	retlw	0
  1150  04F2  3400               	retlw	0
  1151  04F3  341F               	retlw	01Fh
  1152  04F4  341F               	retlw	01Fh
  1153  04F5  34E0               	retlw	0E0h
  1154  04F6  34E0               	retlw	0E0h
  1155  04F7  34C0               	retlw	0C0h
  1156  04F8  3460               	retlw	060h
  1157  04F9  34E0               	retlw	0E0h
  1158  04FA  34E0               	retlw	0E0h
  1159  04FB  34C0               	retlw	0C0h
  1160  04FC  3460               	retlw	060h
  1161  04FD  34E0               	retlw	0E0h
  1162  04FE  34C0               	retlw	0C0h
  1163  04FF  3400               	retlw	0
  1164  0500  34FC               	retlw	0FCh
  1165  0501  34FC               	retlw	0FCh
  1166  0502  34C0               	retlw	0C0h
  1167  0503  34C0               	retlw	0C0h
  1168  0504  34C0               	retlw	0C0h
  1169  0505  34FC               	retlw	0FCh
  1170  0506  34FC               	retlw	0FCh
  1171  0507  341F               	retlw	01Fh
  1172  0508  341F               	retlw	01Fh
  1173  0509  3400               	retlw	0
  1174  050A  3400               	retlw	0
  1175  050B  341F               	retlw	01Fh
  1176  050C  341F               	retlw	01Fh
  1177  050D  3400               	retlw	0
  1178  050E  3400               	retlw	0
  1179  050F  341F               	retlw	01Fh
  1180  0510  341F               	retlw	01Fh
  1181  0511  3400               	retlw	0
  1182  0512  341F               	retlw	01Fh
  1183  0513  341F               	retlw	01Fh
  1184  0514  3400               	retlw	0
  1185  0515  3400               	retlw	0
  1186  0516  3400               	retlw	0
  1187  0517  341F               	retlw	01Fh
  1188  0518  341F               	retlw	01Fh
  1189  0519  3400               	retlw	0
  1190  051A  3400               	retlw	0
  1191  051B  3400               	retlw	0
  1192  051C  34E0               	retlw	0E0h
  1193  051D  34E0               	retlw	0E0h
  1194  051E  3400               	retlw	0
  1195  051F  3400               	retlw	0
  1196  0520  34E0               	retlw	0E0h
  1197  0521  34E0               	retlw	0E0h
  1198  0522  3400               	retlw	0
  1199  0523  3400               	retlw	0
  1200  0524  34FC               	retlw	0FCh
  1201  0525  34FC               	retlw	0FCh
  1202  0526  34C0               	retlw	0C0h
  1203  0527  34C0               	retlw	0C0h
  1204  0528  34C0               	retlw	0C0h
  1205  0529  34FC               	retlw	0FCh
  1206  052A  34FC               	retlw	0FCh
  1207  052B  3400               	retlw	0
  1208  052C  3400               	retlw	0
  1209  052D  3400               	retlw	0
  1210  052E  34FF               	retlw	0FFh
  1211  052F  34FF               	retlw	0FFh
  1212  0530  3418               	retlw	018h
  1213  0531  3408               	retlw	08h
  1214  0532  341F               	retlw	01Fh
  1215  0533  341F               	retlw	01Fh
  1216  0534  3400               	retlw	0
  1217  0535  3400               	retlw	0
  1218  0536  341F               	retlw	01Fh
  1219  0537  341F               	retlw	01Fh
  1220  0538  3400               	retlw	0
  1221  0539  3400               	retlw	0
  1222  053A  3400               	retlw	0
  1223  053B  341F               	retlw	01Fh
  1224  053C  341F               	retlw	01Fh
  1225  053D  3400               	retlw	0
  1226  053E  3400               	retlw	0
  1227  053F  3400               	retlw	0
  1228  0540  34E0               	retlw	0E0h
  1229  0541  34E0               	retlw	0E0h
  1230  0542  34C0               	retlw	0C0h
  1231  0543  3460               	retlw	060h
  1232  0544  34E0               	retlw	0E0h
  1233  0545  34C0               	retlw	0C0h
  1234  0546  3400               	retlw	0
  1235  0547  3400               	retlw	0
  1236  0548  34FC               	retlw	0FCh
  1237  0549  34FC               	retlw	0FCh
  1238  054A  34C0               	retlw	0C0h
  1239  054B  34C0               	retlw	0C0h
  1240  054C  34C0               	retlw	0C0h
  1241  054D  34FC               	retlw	0FCh
  1242  054E  34FC               	retlw	0FCh
  1243  054F  3400               	retlw	0
  1244  0550  3400               	retlw	0
  1245  0551  3400               	retlw	0
  1246  0552  341F               	retlw	01Fh
  1247  0553  341F               	retlw	01Fh
  1248  0554  3400               	retlw	0
  1249  0555  3400               	retlw	0
  1250  0556  341F               	retlw	01Fh
  1251  0557  341F               	retlw	01Fh
  1252  0558  3400               	retlw	0
  1253  0559  3400               	retlw	0
  1254  055A  341F               	retlw	01Fh
  1255  055B  341F               	retlw	01Fh
  1256  055C  3400               	retlw	0
  1257  055D  3400               	retlw	0
  1258  055E  3400               	retlw	0
  1259  055F  341F               	retlw	01Fh
  1260  0560  341F               	retlw	01Fh
  1261  0561  34E0               	retlw	0E0h
  1262  0562  34E0               	retlw	0E0h
  1263  0563  34C0               	retlw	0C0h
  1264  0564  3460               	retlw	060h
  1265  0565  34E0               	retlw	0E0h
  1266  0566  34E0               	retlw	0E0h
  1267  0567  34C0               	retlw	0C0h
  1268  0568  3460               	retlw	060h
  1269  0569  34E0               	retlw	0E0h
  1270  056A  34C0               	retlw	0C0h
  1271  056B  3400               	retlw	0
  1272  056C  3400               	retlw	0
  1273  056D  34FC               	retlw	0FCh
  1274  056E  34FC               	retlw	0FCh
  1275  056F  34CC               	retlw	0CCh
  1276  0570  34CC               	retlw	0CCh
  1277  0571  34CC               	retlw	0CCh
  1278  0572  340C               	retlw	0Ch
  1279  0573  341F               	retlw	01Fh
  1280  0574  341F               	retlw	01Fh
  1281  0575  3400               	retlw	0
  1282  0576  3400               	retlw	0
  1283  0577  341F               	retlw	01Fh
  1284  0578  341F               	retlw	01Fh
  1285  0579  3400               	retlw	0
  1286  057A  3400               	retlw	0
  1287  057B  341F               	retlw	01Fh
  1288  057C  341F               	retlw	01Fh
  1289  057D  3400               	retlw	0
  1290  057E  3400               	retlw	0
  1291  057F  341F               	retlw	01Fh
  1292  0580  341F               	retlw	01Fh
  1293  0581  3400               	retlw	0
  1294  0582  3400               	retlw	0
  1295  0583  3400               	retlw	0
  1296  0584  3400               	retlw	0
  1297  0585  3400               	retlw	0
  1298  0586  3400               	retlw	0
  1299  0587  3400               	retlw	0
  1300  0588  3400               	retlw	0
  1301  0589  34E0               	retlw	0E0h
  1302  058A  34E0               	retlw	0E0h
  1303  058B  3400               	retlw	0
  1304  058C  3400               	retlw	0
  1305  058D  34E0               	retlw	0E0h
  1306  058E  34E0               	retlw	0E0h
  1307  058F  3400               	retlw	0
  1308  0590  3400               	retlw	0
  1309  0591  34FC               	retlw	0FCh
  1310  0592  34FC               	retlw	0FCh
  1311  0593  34CC               	retlw	0CCh
  1312  0594  34CC               	retlw	0CCh
  1313  0595  34CC               	retlw	0CCh
  1314  0596  340C               	retlw	0Ch
  1315  0597  3400               	retlw	0
  1316  0598  3400               	retlw	0
  1317  0599  3400               	retlw	0
  1318  059A  3400               	retlw	0
  1319  059B  34FF               	retlw	0FFh
  1320  059C  34FF               	retlw	0FFh
  1321  059D  3418               	retlw	018h
  1322  059E  3408               	retlw	08h
  1323  059F  341F               	retlw	01Fh
  1324  05A0  341F               	retlw	01Fh
  1325  05A1  3400               	retlw	0
  1326  05A2  3400               	retlw	0
  1327  05A3  341F               	retlw	01Fh
  1328  05A4  341F               	retlw	01Fh
  1329  05A5  3400               	retlw	0
  1330  05A6  3400               	retlw	0
  1331  05A7  3400               	retlw	0
  1332  05A8  3400               	retlw	0
  1333  05A9  3400               	retlw	0
  1334  05AA  3400               	retlw	0
  1335  05AB  3400               	retlw	0
  1336  05AC  3400               	retlw	0
  1337  05AD  34E0               	retlw	0E0h
  1338  05AE  34E0               	retlw	0E0h
  1339  05AF  34C0               	retlw	0C0h
  1340  05B0  3460               	retlw	060h
  1341  05B1  34E0               	retlw	0E0h
  1342  05B2  34C0               	retlw	0C0h
  1343  05B3  3400               	retlw	0
  1344  05B4  3400               	retlw	0
  1345  05B5  34FC               	retlw	0FCh
  1346  05B6  34FC               	retlw	0FCh
  1347  05B7  34CC               	retlw	0CCh
  1348  05B8  34CC               	retlw	0CCh
  1349  05B9  34CC               	retlw	0CCh
  1350  05BA  340C               	retlw	0Ch
  1351  05BB  3400               	retlw	0
  1352  05BC  3400               	retlw	0
  1353  05BD  3400               	retlw	0
  1354  05BE  3400               	retlw	0
  1355  05BF  341F               	retlw	01Fh
  1356  05C0  341F               	retlw	01Fh
  1357  05C1  3400               	retlw	0
  1358  05C2  3400               	retlw	0
  1359  05C3  341F               	retlw	01Fh
  1360  05C4  341F               	retlw	01Fh
  1361  05C5  3400               	retlw	0
  1362  05C6  3400               	retlw	0
  1363  05C7  341F               	retlw	01Fh
  1364  05C8  341F               	retlw	01Fh
  1365  05C9  3400               	retlw	0
  1366  05CA  3400               	retlw	0
  1367  05CB  3400               	retlw	0
  1368  05CC  3400               	retlw	0
  1369  05CD  3400               	retlw	0
  1370  05CE  3400               	retlw	0
  1371  05CF  3400               	retlw	0
  1372  05D0  3400               	retlw	0
  1373  05D1  34E0               	retlw	0E0h
  1374  05D2  34E0               	retlw	0E0h
  1375  05D3  3460               	retlw	060h
  1376  05D4  3460               	retlw	060h
  1377  05D5  34E0               	retlw	0E0h
  1378  05D6  34C0               	retlw	0C0h
  1379  05D7  3400               	retlw	0
  1380  05D8  3400               	retlw	0
  1381  05D9  34FC               	retlw	0FCh
  1382  05DA  34FC               	retlw	0FCh
  1383  05DB  34CC               	retlw	0CCh
  1384  05DC  34CC               	retlw	0CCh
  1385  05DD  34CC               	retlw	0CCh
  1386  05DE  340C               	retlw	0Ch
  1387  05DF  3400               	retlw	0
  1388  05E0  3400               	retlw	0
  1389  05E1  3400               	retlw	0
  1390  05E2  3400               	retlw	0
  1391  05E3  34FF               	retlw	0FFh
  1392  05E4  34FF               	retlw	0FFh
  1393  05E5  3418               	retlw	018h
  1394  05E6  3418               	retlw	018h
  1395  05E7  341F               	retlw	01Fh
  1396  05E8  3407               	retlw	07h
  1397  05E9  3400               	retlw	0
  1398  05EA  3400               	retlw	0
  1399  05EB  341F               	retlw	01Fh
  1400  05EC  341F               	retlw	01Fh
  1401  05ED  3400               	retlw	0
  1402  05EE  3400               	retlw	0
  1403  05EF  3400               	retlw	0
  1404  05F0  3400               	retlw	0
  1405                           	global	_digits_8x16
  1406                           psect	stringtext
  1407                           	file	"C:\Users\vboxuser\Desktop\lc-meter\src\julznc\display.h"
  1408                           	line	31
  1409  05F1                     _digits_8x16:
  1410  05F1  34FC               	retlw	0FCh
  1411  05F2  34FE               	retlw	0FEh
  1412  05F3  34FE               	retlw	0FEh
  1413  05F4  3406               	retlw	06h
  1414  05F5  3406               	retlw	06h
  1415  05F6  34FE               	retlw	0FEh
  1416  05F7  34FE               	retlw	0FEh
  1417  05F8  34FC               	retlw	0FCh
  1418  05F9  347F               	retlw	07Fh
  1419  05FA  34FF               	retlw	0FFh
  1420  05FB  34FF               	retlw	0FFh
  1421  05FC  34C0               	retlw	0C0h
  1422  05FD  34C0               	retlw	0C0h
  1423  05FE  34FF               	retlw	0FFh
  1424  05FF  34FF               	retlw	0FFh
  1425  0600  347F               	retlw	07Fh
  1426  0601  3400               	retlw	0
  1427  0602  3418               	retlw	018h
  1428  0603  341C               	retlw	01Ch
  1429  0604  34FE               	retlw	0FEh
  1430  0605  34FE               	retlw	0FEh
  1431  0606  34FE               	retlw	0FEh
  1432  0607  3400               	retlw	0
  1433  0608  3400               	retlw	0
  1434  0609  3400               	retlw	0
  1435  060A  3400               	retlw	0
  1436  060B  34C0               	retlw	0C0h
  1437  060C  34FF               	retlw	0FFh
  1438  060D  34FF               	retlw	0FFh
  1439  060E  34FF               	retlw	0FFh
  1440  060F  34C0               	retlw	0C0h
  1441  0610  3400               	retlw	0
  1442  0611  343C               	retlw	03Ch
  1443  0612  343E               	retlw	03Eh
  1444  0613  343E               	retlw	03Eh
  1445  0614  3406               	retlw	06h
  1446  0615  3486               	retlw	086h
  1447  0616  34FE               	retlw	0FEh
  1448  0617  34FE               	retlw	0FEh
  1449  0618  347C               	retlw	07Ch
  1450  0619  34E0               	retlw	0E0h
  1451  061A  34F0               	retlw	0F0h
  1452  061B  34FC               	retlw	0FCh
  1453  061C  34FF               	retlw	0FFh
  1454  061D  34CF               	retlw	0CFh
  1455  061E  34C7               	retlw	0C7h
  1456  061F  34C1               	retlw	0C1h
  1457  0620  34C0               	retlw	0C0h
  1458  0621  341C               	retlw	01Ch
  1459  0622  341E               	retlw	01Eh
  1460  0623  349E               	retlw	09Eh
  1461  0624  3486               	retlw	086h
  1462  0625  3486               	retlw	086h
  1463  0626  34FE               	retlw	0FEh
  1464  0627  34FE               	retlw	0FEh
  1465  0628  34FC               	retlw	0FCh
  1466  0629  3478               	retlw	078h
  1467  062A  34F8               	retlw	0F8h
  1468  062B  34F9               	retlw	0F9h
  1469  062C  34C1               	retlw	0C1h
  1470  062D  34C1               	retlw	0C1h
  1471  062E  34FF               	retlw	0FFh
  1472  062F  34FF               	retlw	0FFh
  1473  0630  347E               	retlw	07Eh
  1474  0631  3400               	retlw	0
  1475  0632  34F0               	retlw	0F0h
  1476  0633  34FE               	retlw	0FEh
  1477  0634  347E               	retlw	07Eh
  1478  0635  34FE               	retlw	0FEh
  1479  0636  34FE               	retlw	0FEh
  1480  0637  34FE               	retlw	0FEh
  1481  0638  3400               	retlw	0
  1482  0639  343F               	retlw	03Fh
  1483  063A  343F               	retlw	03Fh
  1484  063B  3437               	retlw	037h
  1485  063C  3430               	retlw	030h
  1486  063D  34FF               	retlw	0FFh
  1487  063E  34FF               	retlw	0FFh
  1488  063F  34FF               	retlw	0FFh
  1489  0640  3430               	retlw	030h
  1490  0641  34FE               	retlw	0FEh
  1491  0642  34FE               	retlw	0FEh
  1492  0643  34FE               	retlw	0FEh
  1493  0644  34C6               	retlw	0C6h
  1494  0645  34C6               	retlw	0C6h
  1495  0646  34C6               	retlw	0C6h
  1496  0647  34C6               	retlw	0C6h
  1497  0648  3486               	retlw	086h
  1498  0649  3471               	retlw	071h
  1499  064A  34F1               	retlw	0F1h
  1500  064B  34F1               	retlw	0F1h
  1501  064C  34C0               	retlw	0C0h
  1502  064D  34C0               	retlw	0C0h
  1503  064E  34FF               	retlw	0FFh
  1504  064F  34FF               	retlw	0FFh
  1505  0650  347F               	retlw	07Fh
  1506  0651  34FC               	retlw	0FCh
  1507  0652  34FE               	retlw	0FEh
  1508  0653  34FE               	retlw	0FEh
  1509  0654  34C6               	retlw	0C6h
  1510  0655  34C6               	retlw	0C6h
  1511  0656  34DE               	retlw	0DEh
  1512  0657  34DE               	retlw	0DEh
  1513  0658  349C               	retlw	09Ch
  1514  0659  347F               	retlw	07Fh
  1515  065A  34FF               	retlw	0FFh
  1516  065B  34FF               	retlw	0FFh
  1517  065C  34C0               	retlw	0C0h
  1518  065D  34C0               	retlw	0C0h
  1519  065E  34FF               	retlw	0FFh
  1520  065F  34FF               	retlw	0FFh
  1521  0660  347F               	retlw	07Fh
  1522  0661  3406               	retlw	06h
  1523  0662  3406               	retlw	06h
  1524  0663  3406               	retlw	06h
  1525  0664  3486               	retlw	086h
  1526  0665  34E6               	retlw	0E6h
  1527  0666  34FE               	retlw	0FEh
  1528  0667  347E               	retlw	07Eh
  1529  0668  341E               	retlw	01Eh
  1530  0669  3480               	retlw	080h
  1531  066A  34F0               	retlw	0F0h
  1532  066B  34FE               	retlw	0FEh
  1533  066C  343F               	retlw	03Fh
  1534  066D  3407               	retlw	07h
  1535  066E  3401               	retlw	01h
  1536  066F  3400               	retlw	0
  1537  0670  3400               	retlw	0
  1538  0671  347C               	retlw	07Ch
  1539  0672  34FE               	retlw	0FEh
  1540  0673  34FE               	retlw	0FEh
  1541  0674  3486               	retlw	086h
  1542  0675  3486               	retlw	086h
  1543  0676  34FE               	retlw	0FEh
  1544  0677  34FE               	retlw	0FEh
  1545  0678  347C               	retlw	07Ch
  1546  0679  347E               	retlw	07Eh
  1547  067A  34FF               	retlw	0FFh
  1548  067B  34FF               	retlw	0FFh
  1549  067C  34C1               	retlw	0C1h
  1550  067D  34C1               	retlw	0C1h
  1551  067E  34FF               	retlw	0FFh
  1552  067F  34FF               	retlw	0FFh
  1553  0680  347E               	retlw	07Eh
  1554  0681  34FC               	retlw	0FCh
  1555  0682  34FE               	retlw	0FEh
  1556  0683  34FE               	retlw	0FEh
  1557  0684  3486               	retlw	086h
  1558  0685  3486               	retlw	086h
  1559  0686  34FE               	retlw	0FEh
  1560  0687  34FE               	retlw	0FEh
  1561  0688  34FC               	retlw	0FCh
  1562  0689  3478               	retlw	078h
  1563  068A  34F9               	retlw	0F9h
  1564  068B  34F9               	retlw	0F9h
  1565  068C  34C1               	retlw	0C1h
  1566  068D  34C1               	retlw	0C1h
  1567  068E  34FF               	retlw	0FFh
  1568  068F  34FF               	retlw	0FFh
  1569  0690  347F               	retlw	07Fh
  1570                           	global	exp@coeff
  1571                           psect	stringtext
  1572                           	file	"C:\Program Files (x86)\HI-TECH Software\PICC\9.83\sources\exp.c"
  1573                           	line	17
  1574  0691                     exp@coeff:
  1575  0691  3400               	retlw	0x0
  1576  0692  3400               	retlw	0x0
  1577  0693  3480               	retlw	0x80
  1578  0694  343F               	retlw	0x3f
  1579                           
  1580  0695  3418               	retlw	0x18
  1581  0696  3472               	retlw	0x72
  1582  0697  3431               	retlw	0x31
  1583  0698  343F               	retlw	0x3f
  1584                           
  1585  0699  34F0               	retlw	0xf0
  1586  069A  34FD               	retlw	0xfd
  1587  069B  3475               	retlw	0x75
  1588  069C  343E               	retlw	0x3e
  1589                           
  1590  069D  3447               	retlw	0x47
  1591  069E  3458               	retlw	0x58
  1592  069F  3463               	retlw	0x63
  1593  06A0  343D               	retlw	0x3d
  1594                           
  1595  06A1  3458               	retlw	0x58
  1596  06A2  3495               	retlw	0x95
  1597  06A3  341D               	retlw	0x1d
  1598  06A4  343C               	retlw	0x3c
  1599                           
  1600  06A5  3482               	retlw	0x82
  1601  06A6  34C4               	retlw	0xc4
  1602  06A7  34AE               	retlw	0xae
  1603  06A8  343A               	retlw	0x3a
  1604                           
  1605  06A9  34A8               	retlw	0xa8
  1606  06AA  3478               	retlw	0x78
  1607  06AB  3421               	retlw	0x21
  1608  06AC  3439               	retlw	0x39
  1609                           
  1610  06AD  34EF               	retlw	0xef
  1611  06AE  3493               	retlw	0x93
  1612  06AF  3480               	retlw	0x80
  1613  06B0  3437               	retlw	0x37
  1614                           
  1615  06B1  34A0               	retlw	0xa0
  1616  06B2  3492               	retlw	0x92
  1617  06B3  34A7               	retlw	0xa7
  1618  06B4  3435               	retlw	0x35
  1619                           
  1620  06B5  3446               	retlw	0x46
  1621  06B6  3456               	retlw	0x56
  1622  06B7  3415               	retlw	0x15
  1623  06B8  3434               	retlw	0x34
  1624                           
  1625                           	global	log@coeff
  1626                           psect	stringtext
  1627                           	file	"C:\Program Files (x86)\HI-TECH Software\PICC\9.83\sources\log.c"
  1628                           	line	9
  1629  06B9                     log@coeff:
  1630  06B9  3400               	retlw	0x0
  1631  06BA  3400               	retlw	0x0
  1632  06BB  3400               	retlw	0x0
  1633  06BC  3400               	retlw	0x0
  1634                           
  1635  06BD  34C4               	retlw	0xc4
  1636  06BE  34FF               	retlw	0xff
  1637  06BF  347F               	retlw	0x7f
  1638  06C0  343F               	retlw	0x3f
  1639                           
  1640  06C1  3480               	retlw	0x80
  1641  06C2  34EF               	retlw	0xef
  1642  06C3  34FF               	retlw	0xff
  1643  06C4  34BE               	retlw	0xbe
  1644                           
  1645  06C5  3490               	retlw	0x90
  1646  06C6  34E1               	retlw	0xe1
  1647  06C7  34A9               	retlw	0xa9
  1648  06C8  343E               	retlw	0x3e
  1649                           
  1650  06C9  34EC               	retlw	0xec
  1651  06CA  3482               	retlw	0x82
  1652  06CB  3476               	retlw	0x76
  1653  06CC  34BE               	retlw	0xbe
  1654                           
  1655  06CD  3482               	retlw	0x82
  1656  06CE  34AD               	retlw	0xad
  1657  06CF  342B               	retlw	0x2b
  1658  06D0  343E               	retlw	0x3e
  1659                           
  1660  06D1  340E               	retlw	0xe
  1661  06D2  343C               	retlw	0x3c
  1662  06D3  34C3               	retlw	0xc3
  1663  06D4  34BD               	retlw	0xbd
  1664                           
  1665  06D5  3487               	retlw	0x87
  1666  06D6  34D1               	retlw	0xd1
  1667  06D7  3413               	retlw	0x13
  1668  06D8  343D               	retlw	0x3d
  1669                           
  1670  06D9  3441               	retlw	0x41
  1671  06DA  3478               	retlw	0x78
  1672  06DB  34D3               	retlw	0xd3
  1673  06DC  34BB               	retlw	0xbb
  1674                           
  1675                           	global	display@logo_image
  1676                           	global	_lcd_font
  1677                           	global	_units
  1678                           	global	_digits_8x16
  1679                           	global	exp@coeff
  1680                           	global	log@coeff
  1681                           	global	_txfifo
  1682                           	global	_rxiptr
  1683                           	global	_rxoptr
  1684                           	global	_txiptr
  1685                           	global	_txoptr
  1686                           	global	_F2
  1687                           	global	_F3
  1688                           	global	_F1
  1689                           	global	_TMR0
  1690  0001                     _TMR0	set	1
  1691                           	global	_CREN
  1692  00C4                     _CREN	set	196
  1693                           	global	_GIE
  1694  005F                     _GIE	set	95
  1695                           	global	_PEIE
  1696  005E                     _PEIE	set	94
  1697                           	global	_RB0
  1698  0030                     _RB0	set	48
  1699                           	global	_RC0
  1700  0038                     _RC0	set	56
  1701                           	global	_RC1
  1702  0039                     _RC1	set	57
  1703                           	global	_RC2
  1704  003A                     _RC2	set	58
  1705                           	global	_RC3
  1706  003B                     _RC3	set	59
  1707                           	global	_RC4
  1708  003C                     _RC4	set	60
  1709                           	global	_RC5
  1710  003D                     _RC5	set	61
  1711                           	global	_RC7
  1712  003F                     _RC7	set	63
  1713                           	global	_RX9
  1714  00C6                     _RX9	set	198
  1715                           	global	_SPEN
  1716  00C7                     _SPEN	set	199
  1717                           	global	_TMR0IF
  1718  005A                     _TMR0IF	set	90
  1719                           	global	_CMCON
  1720  009C                     _CMCON	set	156
  1721                           	global	_SPBRG
  1722  0099                     _SPBRG	set	153
  1723                           	global	_TRISA
  1724  0085                     _TRISA	set	133
  1725                           	global	_TRISC
  1726  0087                     _TRISC	set	135
  1727                           	global	_BRGH
  1728  04C2                     _BRGH	set	1218
  1729                           	global	_PS0
  1730  0408                     _PS0	set	1032
  1731                           	global	_PS1
  1732  0409                     _PS1	set	1033
  1733                           	global	_PS2
  1734  040A                     _PS2	set	1034
  1735                           	global	_PSA
  1736  040B                     _PSA	set	1035
  1737                           	global	_SYNC
  1738  04C4                     _SYNC	set	1220
  1739                           	global	_T0CS
  1740  040D                     _T0CS	set	1037
  1741                           	global	_T0SE
  1742  040C                     _T0SE	set	1036
  1743                           	global	_TRISA4
  1744  042C                     _TRISA4	set	1068
  1745                           	global	_TRISB0
  1746  0430                     _TRISB0	set	1072
  1747                           	global	_TRISC0
  1748  0438                     _TRISC0	set	1080
  1749                           	global	_TRISC6
  1750  043E                     _TRISC6	set	1086
  1751                           	global	_TX9
  1752  04C6                     _TX9	set	1222
  1753                           	global	_TXEN
  1754  04C5                     _TXEN	set	1221
  1755                           	global	_TXIE
  1756  0464                     _TXIE	set	1124
  1757                           	global	_nRBPU
  1758  040F                     _nRBPU	set	1039
  1759                           	
  1760  06DD                     STR_7:	
  1761  06DD  3470               	retlw	112	;'p'
  1762  06DE  346C               	retlw	108	;'l'
  1763  06DF  3465               	retlw	101	;'e'
  1764  06E0  3461               	retlw	97	;'a'
  1765  06E1  3473               	retlw	115	;'s'
  1766  06E2  3465               	retlw	101	;'e'
  1767  06E3  3420               	retlw	32	;' '
  1768  06E4  3477               	retlw	119	;'w'
  1769  06E5  3461               	retlw	97	;'a'
  1770  06E6  3469               	retlw	105	;'i'
  1771  06E7  3474               	retlw	116	;'t'
  1772  06E8  342E               	retlw	46	;'.'
  1773  06E9  342E               	retlw	46	;'.'
  1774  06EA  3400               	retlw	0
  1775                           psect	stringtext
  1776                           	
  1777  06EB                     STR_9:	
  1778  06EB  3420               	retlw	32	;' '
  1779  06EC  3469               	retlw	105	;'i'
  1780  06ED  346E               	retlw	110	;'n'
  1781  06EE  3464               	retlw	100	;'d'
  1782  06EF  3475               	retlw	117	;'u'
  1783  06F0  3463               	retlw	99	;'c'
  1784  06F1  3474               	retlw	116	;'t'
  1785  06F2  3461               	retlw	97	;'a'
  1786  06F3  346E               	retlw	110	;'n'
  1787  06F4  3463               	retlw	99	;'c'
  1788  06F5  3465               	retlw	101	;'e'
  1789  06F6  3420               	retlw	32	;' '
  1790  06F7  3400               	retlw	0
  1791                           psect	stringtext
  1792                           	
  1793  06F8                     STR_6:	
  1794  06F8  3443               	retlw	67	;'C'
  1795  06F9  3461               	retlw	97	;'a'
  1796  06FA  346C               	retlw	108	;'l'
  1797  06FB  3469               	retlw	105	;'i'
  1798  06FC  3462               	retlw	98	;'b'
  1799  06FD  3472               	retlw	114	;'r'
  1800  06FE  3461               	retlw	97	;'a'
  1801  06FF  3474               	retlw	116	;'t'
  1802  0700  3469               	retlw	105	;'i'
  1803  0701  346E               	retlw	110	;'n'
  1804  0702  3467               	retlw	103	;'g'
  1805  0703  342E               	retlw	46	;'.'
  1806  0704  3400               	retlw	0
  1807                           psect	stringtext
  1808                           	
  1809  0705                     STR_8:	
  1810  0705  3420               	retlw	32	;' '
  1811  0706  3463               	retlw	99	;'c'
  1812  0707  3461               	retlw	97	;'a'
  1813  0708  3470               	retlw	112	;'p'
  1814  0709  3461               	retlw	97	;'a'
  1815  070A  3463               	retlw	99	;'c'
  1816  070B  3469               	retlw	105	;'i'
  1817  070C  3474               	retlw	116	;'t'
  1818  070D  3461               	retlw	97	;'a'
  1819  070E  346E               	retlw	110	;'n'
  1820  070F  3463               	retlw	99	;'c'
  1821  0710  3465               	retlw	101	;'e'
  1822  0711  3400               	retlw	0
  1823                           psect	stringtext
  1824                           	
  1825  0712                     STR_1:	
  1826  0712  3420               	retlw	32	;' '
  1827  0713  3420               	retlw	32	;' '
  1828  0714  3420               	retlw	32	;' '
  1829  0715  3420               	retlw	32	;' '
  1830  0716  3420               	retlw	32	;' '
  1831  0717  3420               	retlw	32	;' '
  1832  0718  3420               	retlw	32	;' '
  1833  0719  3420               	retlw	32	;' '
  1834  071A  3420               	retlw	32	;' '
  1835  071B  3400               	retlw	0
  1836                           psect	stringtext
  1837                           	
  1838  071C                     STR_4:	
  1839  071C  3459               	retlw	89	;'Y'
  1840  071D  3455               	retlw	85	;'U'
  1841  071E  3453               	retlw	83	;'S'
  1842  071F  3427               	retlw	39	;'''
  1843  0720  3430               	retlw	48	;'0'
  1844  0721  3439               	retlw	57	;'9'
  1845  0722  3400               	retlw	0
  1846                           psect	stringtext
  1847                           	
  1848  0723                     STR_5:	
  1849  0723  342E               	retlw	46	;'.'
  1850  0724  342E               	retlw	46	;'.'
  1851  0725  342E               	retlw	46	;'.'
  1852  0726  340D               	retlw	13
  1853  0727  340A               	retlw	10
  1854  0728  3400               	retlw	0
  1855                           psect	stringtext
  1856  0712                     STR_2	equ	STR_1+0
  1857  071A                     STR_3	equ	STR_1+8
  1858                           	file	"LC-meter-julznc-htc-debug.as"
  1859                           	line	#
  1860                           psect cinit,class=CODE,delta=2
  1861                           global start_initialization
  1862  1F69                     start_initialization:
  1863                           
  1864                           psect	bssBANK0,class=BANK0,space=1
  1865                           global __pbssBANK0
  1866  005B                     __pbssBANK0:
  1867  005B                     _txfifo:
  1868  005B                            ds      16
  1869                           
  1870  006B                     _rxiptr:
  1871  006B                            ds      1
  1872                           
  1873  006C                     _rxoptr:
  1874  006C                            ds      1
  1875                           
  1876  006D                     _txiptr:
  1877  006D                            ds      1
  1878                           
  1879  006E                     _txoptr:
  1880  006E                            ds      1
  1881                           
  1882                           psect	bssBANK1,class=BANK1,space=1
  1883                           global __pbssBANK1
  1884  00C2                     __pbssBANK1:
  1885  00C2                     _F2:
  1886  00C2                            ds      4
  1887                           
  1888  00C6                     _F3:
  1889  00C6                            ds      4
  1890                           
  1891  00CA                     _F1:
  1892  00CA                            ds      4
  1893                           
  1894                           psect clrtext,class=CODE,delta=2
  1895                           global clear_ram
  1896                           ;	Called with FSR containing the base address, and
  1897                           ;	W with the last address+1
  1898  1F61                     clear_ram:
  1899  1F61  0064               	clrwdt			;clear the watchdog before getting into this loop
  1900  1F62                     clrloop:
  1901  1F62  0180               	clrf	indf		;clear RAM location pointed to by FSR
  1902  1F63  0A84               	incf	fsr,f		;increment pointer
  1903  1F64  0604               	xorwf	fsr,w		;XOR with final address
  1904  1F65  1903               	btfsc	status,2	;have we reached the end yet?
  1905  1F66  3400               	retlw	0		;all done for this memory range, return
  1906  1F67  0604               	xorwf	fsr,w		;XOR again to restore value
  1907  1F68  2F62               	goto	clrloop		;do the next byte
  1908                           
  1909                           ; Clear objects allocated to BANK0
  1910                           psect cinit,class=CODE,delta=2
  1911  1F69  1383               	bcf	status, 7	;select IRP bank0
  1912  1F6A  305B               	movlw	low(__pbssBANK0)
  1913  1F6B  0084               	movwf	fsr
  1914  1F6C  306F               	movlw	low((__pbssBANK0)+014h)
  1915  1F6D  160A  158A  2761   	fcall	clear_ram
              160A  158A         
  1916                           ; Clear objects allocated to BANK1
  1917                           psect cinit,class=CODE,delta=2
  1918  1F72  30C2               	movlw	low(__pbssBANK1)
  1919  1F73  0084               	movwf	fsr
  1920  1F74  30CE               	movlw	low((__pbssBANK1)+0Ch)
  1921  1F75  160A  158A  2761   	fcall	clear_ram
              160A  158A         
  1922                           psect cinit,class=CODE,delta=2
  1923                           global end_of_initialization
  1924                           
  1925                           ;End of C runtime variable initialization code
  1926                           
  1927  1F7A                     end_of_initialization:
  1928  1F7A  0183               clrf status
  1929  1F7B  160A  118A  2B4D   ljmp _main	;jump to C main() function
  1930                           psect	cstackBANK1,class=BANK1,space=1
  1931                           global __pcstackBANK1
  1932  00A0                     __pcstackBANK1:
  1933                           	global	measure_inductance@numerator
  1934  00A0                     measure_inductance@numerator:	; 4 bytes @ 0x0
  1935                           	global	_measure_capacitance$8391
  1936  00A0                     _measure_capacitance$8391:	; 4 bytes @ 0x0
  1937  00A0                     	ds	4
  1938                           	global	measure_inductance@denominator
  1939  00A4                     measure_inductance@denominator:	; 4 bytes @ 0x4
  1940                           	global	_measure_capacitance$8392
  1941  00A4                     _measure_capacitance$8392:	; 4 bytes @ 0x4
  1942  00A4                     	ds	4
  1943                           	global	_measure_capacitance$8393
  1944  00A8                     _measure_capacitance$8393:	; 4 bytes @ 0x8
  1945                           	global	_measure_inductance$8398
  1946  00A8                     _measure_inductance$8398:	; 4 bytes @ 0x8
  1947  00A8                     	ds	4
  1948                           	global	_measure_capacitance$8394
  1949  00AC                     _measure_capacitance$8394:	; 4 bytes @ 0xC
  1950                           	global	_measure_inductance$8399
  1951  00AC                     _measure_inductance$8399:	; 4 bytes @ 0xC
  1952  00AC                     	ds	4
  1953                           	global	_measure_capacitance$8395
  1954  00B0                     _measure_capacitance$8395:	; 4 bytes @ 0x10
  1955                           	global	_measure_inductance$8400
  1956  00B0                     _measure_inductance$8400:	; 4 bytes @ 0x10
  1957  00B0                     	ds	4
  1958                           	global	measure_capacitance@var
  1959  00B4                     measure_capacitance@var:	; 2 bytes @ 0x14
  1960                           	global	_measure_inductance$8396
  1961  00B4                     _measure_inductance$8396:	; 4 bytes @ 0x14
  1962  00B4                     	ds	2
  1963                           	global	measure_capacitance@Cin
  1964  00B6                     measure_capacitance@Cin:	; 4 bytes @ 0x16
  1965  00B6                     	ds	2
  1966                           	global	_measure_inductance$8397
  1967  00B8                     _measure_inductance$8397:	; 4 bytes @ 0x18
  1968  00B8                     	ds	4
  1969                           	global	measure_inductance@var
  1970  00BC                     measure_inductance@var:	; 2 bytes @ 0x1C
  1971  00BC                     	ds	2
  1972                           	global	measure_inductance@Lin
  1973  00BE                     measure_inductance@Lin:	; 4 bytes @ 0x1E
  1974  00BE                     	ds	4
  1975                           psect	cstackCOMMON,class=COMMON,space=1
  1976                           global __pcstackCOMMON
  1977  0070                     __pcstackCOMMON:
  1978                           	global	?_initialize
  1979  0070                     ?_initialize:	; 0 bytes @ 0x0
  1980                           	global	?_delay10ms
  1981  0070                     ?_delay10ms:	; 0 bytes @ 0x0
  1982                           	global	?_calibrate
  1983  0070                     ?_calibrate:	; 0 bytes @ 0x0
  1984                           	global	?_measure_capacitance
  1985  0070                     ?_measure_capacitance:	; 0 bytes @ 0x0
  1986                           	global	?_measure_inductance
  1987  0070                     ?_measure_inductance:	; 0 bytes @ 0x0
  1988                           	global	?_ser_init
  1989  0070                     ?_ser_init:	; 0 bytes @ 0x0
  1990                           	global	??_ser_init
  1991  0070                     ??_ser_init:	; 0 bytes @ 0x0
  1992                           	global	?_display_unit
  1993  0070                     ?_display_unit:	; 0 bytes @ 0x0
  1994                           	global	?_indicator
  1995  0070                     ?_indicator:	; 0 bytes @ 0x0
  1996                           	global	?_lcd_init
  1997  0070                     ?_lcd_init:	; 0 bytes @ 0x0
  1998                           	global	?_lcd_clear
  1999  0070                     ?_lcd_clear:	; 0 bytes @ 0x0
  2000                           	global	?_lcd_putch
  2001  0070                     ?_lcd_putch:	; 0 bytes @ 0x0
  2002                           	global	?_main
  2003  0070                     ?_main:	; 0 bytes @ 0x0
  2004                           	global	?_ser_putch
  2005  0070                     ?_ser_putch:	; 0 bytes @ 0x0
  2006                           	global	??_ser_putch
  2007  0070                     ??_ser_putch:	; 0 bytes @ 0x0
  2008                           	global	?___flge
  2009  0070                     ?___flge:	; 1 bit 
  2010                           	global	?___wmul
  2011  0070                     ?___wmul:	; 2 bytes @ 0x0
  2012                           	global	?___lwdiv
  2013  0070                     ?___lwdiv:	; 2 bytes @ 0x0
  2014                           	global	?___flpack
  2015  0070                     ?___flpack:	; 4 bytes @ 0x0
  2016                           	global	?___fltol
  2017  0070                     ?___fltol:	; 4 bytes @ 0x0
  2018                           	global	ser_putch@c
  2019  0070                     ser_putch@c:	; 1 bytes @ 0x0
  2020                           	global	delay10ms@period_10ms
  2021  0070                     delay10ms@period_10ms:	; 2 bytes @ 0x0
  2022                           	global	___wmul@multiplier
  2023  0070                     ___wmul@multiplier:	; 2 bytes @ 0x0
  2024                           	global	___lwdiv@divisor
  2025  0070                     ___lwdiv@divisor:	; 2 bytes @ 0x0
  2026                           	global	___fltol@f1
  2027  0070                     ___fltol@f1:	; 4 bytes @ 0x0
  2028                           	global	___flge@ff1
  2029  0070                     ___flge@ff1:	; 4 bytes @ 0x0
  2030                           	global	___flpack@arg
  2031  0070                     ___flpack@arg:	; 4 bytes @ 0x0
  2032  0070                     	ds	1
  2033                           	global	?_ser_puts
  2034  0071                     ?_ser_puts:	; 0 bytes @ 0x1
  2035                           	global	ser_puts@s
  2036  0071                     ser_puts@s:	; 2 bytes @ 0x1
  2037  0071                     	ds	1
  2038                           	global	??_delay10ms
  2039  0072                     ??_delay10ms:	; 0 bytes @ 0x2
  2040                           	global	___wmul@multiplicand
  2041  0072                     ___wmul@multiplicand:	; 2 bytes @ 0x2
  2042                           	global	___lwdiv@dividend
  2043  0072                     ___lwdiv@dividend:	; 2 bytes @ 0x2
  2044  0072                     	ds	1
  2045                           	global	??_ser_puts
  2046  0073                     ??_ser_puts:	; 0 bytes @ 0x3
  2047  0073                     	ds	1
  2048                           	global	??___wmul
  2049  0074                     ??___wmul:	; 0 bytes @ 0x4
  2050                           	global	??___lwdiv
  2051  0074                     ??___lwdiv:	; 0 bytes @ 0x4
  2052                           	global	??___fltol
  2053  0074                     ??___fltol:	; 0 bytes @ 0x4
  2054                           	global	___flpack@exp
  2055  0074                     ___flpack@exp:	; 1 bytes @ 0x4
  2056                           	global	___wmul@product
  2057  0074                     ___wmul@product:	; 2 bytes @ 0x4
  2058                           	global	___lwdiv@quotient
  2059  0074                     ___lwdiv@quotient:	; 2 bytes @ 0x4
  2060                           	global	___flge@ff2
  2061  0074                     ___flge@ff2:	; 4 bytes @ 0x4
  2062  0074                     	ds	1
  2063                           	global	___flpack@sign
  2064  0075                     ___flpack@sign:	; 1 bytes @ 0x5
  2065  0075                     	ds	1
  2066                           	global	?_lcd_send
  2067  0076                     ?_lcd_send:	; 0 bytes @ 0x6
  2068                           	global	??___flpack
  2069  0076                     ??___flpack:	; 0 bytes @ 0x6
  2070                           	global	lcd_send@cmd
  2071  0076                     lcd_send@cmd:	; 1 bytes @ 0x6
  2072                           	global	___lwdiv@counter
  2073  0076                     ___lwdiv@counter:	; 1 bytes @ 0x6
  2074  0076                     	ds	1
  2075                           	global	??_lcd_send
  2076  0077                     ??_lcd_send:	; 0 bytes @ 0x7
  2077                           	global	?___lwmod
  2078  0077                     ?___lwmod:	; 2 bytes @ 0x7
  2079                           	global	lcd_send@a
  2080  0077                     lcd_send@a:	; 1 bytes @ 0x7
  2081                           	global	___lwmod@divisor
  2082  0077                     ___lwmod@divisor:	; 2 bytes @ 0x7
  2083  0077                     	ds	1
  2084                           	global	?_lcd_gotoxy
  2085  0078                     ?_lcd_gotoxy:	; 0 bytes @ 0x8
  2086                           	global	??_lcd_init
  2087  0078                     ??_lcd_init:	; 0 bytes @ 0x8
  2088                           	global	??_lcd_putch
  2089  0078                     ??_lcd_putch:	; 0 bytes @ 0x8
  2090                           	global	??___flge
  2091  0078                     ??___flge:	; 0 bytes @ 0x8
  2092                           	global	lcd_putch@c
  2093  0078                     lcd_putch@c:	; 1 bytes @ 0x8
  2094                           	global	___fltol@sign1
  2095  0078                     ___fltol@sign1:	; 1 bytes @ 0x8
  2096                           	global	lcd_gotoxy@y
  2097  0078                     lcd_gotoxy@y:	; 2 bytes @ 0x8
  2098  0078                     	ds	1
  2099                           	global	?_lcd_puts
  2100  0079                     ?_lcd_puts:	; 0 bytes @ 0x9
  2101                           	global	___fltol@exp1
  2102  0079                     ___fltol@exp1:	; 1 bytes @ 0x9
  2103                           	global	lcd_puts@s
  2104  0079                     lcd_puts@s:	; 2 bytes @ 0x9
  2105                           	global	___lwmod@dividend
  2106  0079                     ___lwmod@dividend:	; 2 bytes @ 0x9
  2107  0079                     	ds	1
  2108                           	global	??_lcd_gotoxy
  2109  007A                     ??_lcd_gotoxy:	; 0 bytes @ 0xA
  2110                           	global	??___fladd
  2111  007A                     ??___fladd:	; 0 bytes @ 0xA
  2112                           	global	?___lwtofl
  2113  007A                     ?___lwtofl:	; 4 bytes @ 0xA
  2114                           	global	lcd_gotoxy@x
  2115  007A                     lcd_gotoxy@x:	; 1 bytes @ 0xA
  2116                           	global	___lwtofl@c
  2117  007A                     ___lwtofl@c:	; 2 bytes @ 0xA
  2118  007A                     	ds	1
  2119                           	global	??_lcd_puts
  2120  007B                     ??_lcd_puts:	; 0 bytes @ 0xB
  2121                           	global	??_indicator
  2122  007B                     ??_indicator:	; 0 bytes @ 0xB
  2123                           	global	??_lcd_clear
  2124  007B                     ??_lcd_clear:	; 0 bytes @ 0xB
  2125                           	global	??___lwmod
  2126  007B                     ??___lwmod:	; 0 bytes @ 0xB
  2127                           	global	display_unit@unit
  2128  007B                     display_unit@unit:	; 1 bytes @ 0xB
  2129                           	global	indicator@indicate
  2130  007B                     indicator@indicate:	; 1 bytes @ 0xB
  2131                           	global	___lwmod@counter
  2132  007B                     ___lwmod@counter:	; 1 bytes @ 0xB
  2133                           	global	lcd_clear@i
  2134  007B                     lcd_clear@i:	; 2 bytes @ 0xB
  2135  007B                     	ds	1
  2136                           	global	?_display_digit
  2137  007C                     ?_display_digit:	; 0 bytes @ 0xC
  2138                           	global	display_digit@column
  2139  007C                     display_digit@column:	; 1 bytes @ 0xC
  2140                           	global	display_unit@i
  2141  007C                     display_unit@i:	; 1 bytes @ 0xC
  2142  007C                     	ds	1
  2143                           	global	??_initialize
  2144  007D                     ??_initialize:	; 0 bytes @ 0xD
  2145                           	global	display_digit@digit
  2146  007D                     display_digit@digit:	; 1 bytes @ 0xD
  2147  007D                     	ds	1
  2148                           	global	??_calibrate
  2149  007E                     ??_calibrate:	; 0 bytes @ 0xE
  2150                           	global	??_measure_capacitance
  2151  007E                     ??_measure_capacitance:	; 0 bytes @ 0xE
  2152                           	global	??_measure_inductance
  2153  007E                     ??_measure_inductance:	; 0 bytes @ 0xE
  2154                           	global	??_display_reading
  2155  007E                     ??_display_reading:	; 0 bytes @ 0xE
  2156                           	global	??_main
  2157  007E                     ??_main:	; 0 bytes @ 0xE
  2158                           	global	??___flsub
  2159  007E                     ??___flsub:	; 0 bytes @ 0xE
  2160                           	global	??___lwtofl
  2161  007E                     ??___lwtofl:	; 0 bytes @ 0xE
  2162                           psect	cstackBANK0,class=BANK0,space=1
  2163                           global __pcstackBANK0
  2164  0020                     __pcstackBANK0:
  2165                           	global	??_display_digit
  2166  0020                     ??_display_digit:	; 0 bytes @ 0x0
  2167                           	global	??_display_unit
  2168  0020                     ??_display_unit:	; 0 bytes @ 0x0
  2169                           	global	?_measure_freq
  2170  0020                     ?_measure_freq:	; 2 bytes @ 0x0
  2171                           	global	?___fladd
  2172  0020                     ?___fladd:	; 4 bytes @ 0x0
  2173                           	global	___fladd@f1
  2174  0020                     ___fladd@f1:	; 4 bytes @ 0x0
  2175  0020                     	ds	2
  2176                           	global	??_measure_freq
  2177  0022                     ??_measure_freq:	; 0 bytes @ 0x2
  2178                           	global	display_digit@line
  2179  0022                     display_digit@line:	; 1 bytes @ 0x2
  2180  0022                     	ds	1
  2181                           	global	display_digit@i
  2182  0023                     display_digit@i:	; 1 bytes @ 0x3
  2183  0023                     	ds	1
  2184                           	global	?_display_reading
  2185  0024                     ?_display_reading:	; 0 bytes @ 0x4
  2186                           	global	display_reading@measurement
  2187  0024                     display_reading@measurement:	; 2 bytes @ 0x4
  2188                           	global	measure_freq@oldTMR0
  2189  0024                     measure_freq@oldTMR0:	; 2 bytes @ 0x4
  2190                           	global	___fladd@f2
  2191  0024                     ___fladd@f2:	; 4 bytes @ 0x4
  2192  0024                     	ds	2
  2193                           	global	measure_freq@prescaler_cntr
  2194  0026                     measure_freq@prescaler_cntr:	; 2 bytes @ 0x6
  2195  0026                     	ds	2
  2196                           	global	calibrate@i
  2197  0028                     calibrate@i:	; 1 bytes @ 0x8
  2198                           	global	___fladd@sign
  2199  0028                     ___fladd@sign:	; 1 bytes @ 0x8
  2200  0028                     	ds	1
  2201                           	global	___fladd@exp2
  2202  0029                     ___fladd@exp2:	; 1 bytes @ 0x9
  2203  0029                     	ds	1
  2204                           	global	___fladd@exp1
  2205  002A                     ___fladd@exp1:	; 1 bytes @ 0xA
  2206  002A                     	ds	1
  2207                           	global	?___fldiv
  2208  002B                     ?___fldiv:	; 4 bytes @ 0xB
  2209                           	global	___fldiv@f2
  2210  002B                     ___fldiv@f2:	; 4 bytes @ 0xB
  2211  002B                     	ds	4
  2212                           	global	___fldiv@f1
  2213  002F                     ___fldiv@f1:	; 4 bytes @ 0xF
  2214  002F                     	ds	4
  2215                           	global	??___fldiv
  2216  0033                     ??___fldiv:	; 0 bytes @ 0x13
  2217  0033                     	ds	4
  2218                           	global	___fldiv@f3
  2219  0037                     ___fldiv@f3:	; 4 bytes @ 0x17
  2220  0037                     	ds	4
  2221                           	global	___fldiv@cntr
  2222  003B                     ___fldiv@cntr:	; 1 bytes @ 0x1B
  2223  003B                     	ds	1
  2224                           	global	___fldiv@exp
  2225  003C                     ___fldiv@exp:	; 1 bytes @ 0x1C
  2226  003C                     	ds	1
  2227                           	global	___fldiv@sign
  2228  003D                     ___fldiv@sign:	; 1 bytes @ 0x1D
  2229  003D                     	ds	1
  2230                           	global	?___flmul
  2231  003E                     ?___flmul:	; 4 bytes @ 0x1E
  2232                           	global	___flmul@f1
  2233  003E                     ___flmul@f1:	; 4 bytes @ 0x1E
  2234  003E                     	ds	4
  2235                           	global	___flmul@f2
  2236  0042                     ___flmul@f2:	; 4 bytes @ 0x22
  2237  0042                     	ds	4
  2238                           	global	??___flmul
  2239  0046                     ??___flmul:	; 0 bytes @ 0x26
  2240  0046                     	ds	4
  2241                           	global	___flmul@exp
  2242  004A                     ___flmul@exp:	; 1 bytes @ 0x2A
  2243  004A                     	ds	1
  2244                           	global	___flmul@f3_as_product
  2245  004B                     ___flmul@f3_as_product:	; 4 bytes @ 0x2B
  2246  004B                     	ds	4
  2247                           	global	___flmul@cntr
  2248  004F                     ___flmul@cntr:	; 1 bytes @ 0x2F
  2249  004F                     	ds	1
  2250                           	global	___flmul@sign
  2251  0050                     ___flmul@sign:	; 1 bytes @ 0x30
  2252  0050                     	ds	1
  2253                           	global	?___flsub
  2254  0051                     ?___flsub:	; 4 bytes @ 0x31
  2255                           	global	___flsub@f2
  2256  0051                     ___flsub@f2:	; 4 bytes @ 0x31
  2257  0051                     	ds	4
  2258                           	global	___flsub@f1
  2259  0055                     ___flsub@f1:	; 4 bytes @ 0x35
  2260  0055                     	ds	4
  2261                           	global	main@i
  2262  0059                     main@i:	; 2 bytes @ 0x39
  2263  0059                     	ds	2
  2264 ;;Data sizes: Strings 76, constant 1483, data 0, bss 32, persistent 0 stack 0
  2265 ;;Auto spaces:   Size  Autos    Used
  2266 ;; COMMON          14     14      14
  2267 ;; BANK0           80     59      79
  2268 ;; BANK1           80     34      46
  2269 ;; BANK3           96      0       0
  2270 ;; BANK2           96      0       0
  2271                           
  2272 ;;
  2273 ;; Pointer list with targets:
  2274                           
  2275 ;; ?___flpack	 size(1) Largest target is 0
  2276 ;;
  2277 ;; ?___fladd	 size(1) Largest target is 0
  2278 ;;
  2279 ;; ?___fltol	long  size(1) Largest target is 0
  2280 ;;
  2281 ;; ?___flsub	long  size(1) Largest target is 0
  2282 ;;
  2283 ;; ?___flmul	long  size(1) Largest target is 0
  2284 ;;
  2285 ;; ?___fldiv	long  size(1) Largest target is 0
  2286 ;;
  2287 ;; ?___lwtofl	long  size(1) Largest target is 0
  2288 ;;
  2289 ;; ?_measure_freq	unsigned int  size(1) Largest target is 0
  2290 ;;
  2291 ;; ?___lwmod	unsigned int  size(1) Largest target is 0
  2292 ;;
  2293 ;; ?___lwdiv	unsigned int  size(1) Largest target is 0
  2294 ;;
  2295 ;; ?___wmul	unsigned int  size(1) Largest target is 0
  2296 ;;
  2297 ;; ser_puts@s	PTR const unsigned char  size(2) Largest target is 6
  2298 ;;		 -> STR_5(CODE[6]), 
  2299 ;;
  2300 ;; putchar_ptr	PTR FTN(unsigned char ,)void  size(1) Largest target is 0
  2301 ;;		 -> format_putchar(), 
  2302 ;;
  2303 ;; lcd_puts@s	PTR const unsigned char  size(2) Largest target is 14
  2304 ;;		 -> STR_9(CODE[13]), STR_8(CODE[13]), STR_7(CODE[14]), STR_6(CODE[13]), 
  2305 ;;		 -> STR_4(CODE[7]), STR_3(CODE[2]), STR_2(CODE[10]), STR_1(CODE[10]), 
  2306 ;;
  2307                           
  2308                           
  2309 ;;
  2310 ;; Critical Paths under _main in COMMON
  2311 ;;
  2312 ;;   _measure_inductance->___lwtofl
  2313 ;;   _measure_capacitance->___lwtofl
  2314 ;;   _calibrate->___lwtofl
  2315 ;;   _initialize->_lcd_clear
  2316 ;;   _indicator->_lcd_gotoxy
  2317 ;;   _indicator->_lcd_puts
  2318 ;;   _display_reading->_display_digit
  2319 ;;   _lcd_clear->_lcd_gotoxy
  2320 ;;   _lcd_puts->_lcd_putch
  2321 ;;   _display_unit->_lcd_gotoxy
  2322 ;;   _display_digit->___lwmod
  2323 ;;   ___flsub->___fladd
  2324 ;;   _measure_freq->___lwtofl
  2325 ;;   _lcd_putch->_lcd_send
  2326 ;;   _lcd_init->_lcd_send
  2327 ;;   _lcd_gotoxy->_lcd_send
  2328 ;;   ___lwtofl->___flpack
  2329 ;;   ___fldiv->___fladd
  2330 ;;   ___fladd->___flpack
  2331 ;;   _ser_puts->_ser_putch
  2332 ;;   _lcd_send->___wmul
  2333 ;;   ___lwmod->___lwdiv
  2334 ;;
  2335 ;; Critical Paths under _main in BANK0
  2336 ;;
  2337 ;;   _measure_inductance->___flsub
  2338 ;;   _measure_capacitance->___flsub
  2339 ;;   _calibrate->_measure_freq
  2340 ;;   _display_reading->_display_digit
  2341 ;;   ___flsub->___flmul
  2342 ;;   ___flmul->___fldiv
  2343 ;;   ___fldiv->___fladd
  2344 ;;
  2345 ;; Critical Paths under _main in BANK1
  2346 ;;
  2347 ;;   _main->_measure_inductance
  2348 ;;
  2349 ;; Critical Paths under _main in BANK3
  2350 ;;
  2351 ;;   None.
  2352 ;;
  2353 ;; Critical Paths under _main in BANK2
  2354 ;;
  2355 ;;   None.
  2356                           
  2357 ;;
  2358 ;;Main: autosize = 0, tempsize = 0, incstack = 0, save=0
  2359 ;;
  2360                           
  2361 ;;
  2362 ;;Call Graph Tables:
  2363 ;;
  2364 ;; ---------------------------------------------------------------------------------
  2365 ;; (Depth) Function   	        Calls       Base Space   Used Autos Params    Refs
  2366 ;; ---------------------------------------------------------------------------------
  2367 ;; (0) _main                                                 2     2      0   18884
  2368 ;;                                             57 BANK0      2     2      0
  2369 ;;                         _initialize
  2370 ;;                         _lcd_gotoxy
  2371 ;;                           _lcd_send
  2372 ;;                           _lcd_puts
  2373 ;;                          _delay10ms
  2374 ;;                          _calibrate
  2375 ;;                          _lcd_clear
  2376 ;;                           _ser_puts
  2377 ;;                _measure_capacitance
  2378 ;;                 _measure_inductance
  2379 ;;                          _indicator
  2380 ;; ---------------------------------------------------------------------------------
  2381 ;; (1) _measure_inductance                                  42    42      0    7017
  2382 ;;                                              0 BANK1     34    34      0
  2383 ;;                         _lcd_gotoxy
  2384 ;;                           _lcd_puts
  2385 ;;                       _measure_freq
  2386 ;;                           ___lwtofl
  2387 ;;                             ___flge
  2388 ;;                            ___flsub
  2389 ;;                            ___flmul
  2390 ;;                            ___fldiv
  2391 ;;                       _display_unit
  2392 ;;                            ___fltol
  2393 ;;                    _display_reading
  2394 ;; ---------------------------------------------------------------------------------
  2395 ;; (1) _measure_capacitance                                 26    26      0    6833
  2396 ;;                                              0 BANK1     26    26      0
  2397 ;;                         _lcd_gotoxy
  2398 ;;                           _lcd_puts
  2399 ;;                       _measure_freq
  2400 ;;                           ___lwtofl
  2401 ;;                             ___flge
  2402 ;;                            ___flmul
  2403 ;;                            ___flsub
  2404 ;;                            ___fldiv
  2405 ;;                       _display_unit
  2406 ;;                            ___fltol
  2407 ;;                    _display_reading
  2408 ;; ---------------------------------------------------------------------------------
  2409 ;; (1) _calibrate                                            1     1      0    1827
  2410 ;;                                              8 BANK0      1     1      0
  2411 ;;                          _lcd_clear
  2412 ;;                         _lcd_gotoxy
  2413 ;;                           _lcd_puts
  2414 ;;                       _measure_freq
  2415 ;;                           ___lwtofl
  2416 ;;                          _delay10ms
  2417 ;;                           _lcd_send
  2418 ;; ---------------------------------------------------------------------------------
  2419 ;; (1) _initialize                                           0     0      0     684
  2420 ;;                           _lcd_init
  2421 ;;                          _lcd_clear
  2422 ;;                           _ser_init
  2423 ;; ---------------------------------------------------------------------------------
  2424 ;; (1) _indicator                                            1     1      0     951
  2425 ;;                                             11 COMMON     1     1      0
  2426 ;;                         _lcd_gotoxy
  2427 ;;                           _lcd_send
  2428 ;;                           _lcd_puts
  2429 ;; ---------------------------------------------------------------------------------
  2430 ;; (2) _display_reading                                      2     0      2    2222
  2431 ;;                                              4 BANK0      2     0      2
  2432 ;;                         _lcd_gotoxy
  2433 ;;                           _lcd_puts
  2434 ;;                           _lcd_send
  2435 ;;                            ___lwdiv
  2436 ;;                      _display_digit
  2437 ;;                            ___lwmod
  2438 ;; ---------------------------------------------------------------------------------
  2439 ;; (1) _lcd_clear                                            2     2      0     486
  2440 ;;                                             11 COMMON     2     2      0
  2441 ;;                         _lcd_gotoxy
  2442 ;;                           _lcd_send
  2443 ;; ---------------------------------------------------------------------------------
  2444 ;; (2) _lcd_puts                                             2     0      2     489
  2445 ;;                                              9 COMMON     2     0      2
  2446 ;;                          _lcd_putch
  2447 ;; ---------------------------------------------------------------------------------
  2448 ;; (2) _display_unit                                         6     6      0     712
  2449 ;;                                             11 COMMON     2     2      0
  2450 ;;                                              0 BANK0      4     4      0
  2451 ;;                         _lcd_gotoxy
  2452 ;;                             ___wmul
  2453 ;;                           _lcd_send
  2454 ;; ---------------------------------------------------------------------------------
  2455 ;; (3) _display_digit                                        6     4      2     796
  2456 ;;                                             12 COMMON     2     0      2
  2457 ;;                                              0 BANK0      4     4      0
  2458 ;;                         _lcd_gotoxy
  2459 ;;                           _lcd_send
  2460 ;;                            ___lwdiv (ARG)
  2461 ;;                            ___lwmod (ARG)
  2462 ;; ---------------------------------------------------------------------------------
  2463 ;; (2) ___flsub                                              8     0      8    1094
  2464 ;;                                             49 BANK0      8     0      8
  2465 ;;                            ___fladd
  2466 ;;                            ___flmul (ARG)
  2467 ;;                            ___fldiv (ARG)
  2468 ;; ---------------------------------------------------------------------------------
  2469 ;; (2) _measure_freq                                         8     6      2     113
  2470 ;;                                              0 BANK0      8     6      2
  2471 ;;                          _delay10ms
  2472 ;;                           ___lwtofl (ARG)
  2473 ;; ---------------------------------------------------------------------------------
  2474 ;; (3) _lcd_putch                                            1     1      0     444
  2475 ;;                                              8 COMMON     1     1      0
  2476 ;;                             ___wmul
  2477 ;;                           _lcd_send
  2478 ;; ---------------------------------------------------------------------------------
  2479 ;; (2) _lcd_init                                             2     2      0     198
  2480 ;;                                              8 COMMON     2     2      0
  2481 ;;                           _lcd_send
  2482 ;; ---------------------------------------------------------------------------------
  2483 ;; (2) _lcd_gotoxy                                           3     1      2     242
  2484 ;;                                              8 COMMON     3     1      2
  2485 ;;                           _lcd_send
  2486 ;; ---------------------------------------------------------------------------------
  2487 ;; (2) ___lwtofl                                             4     0      4     231
  2488 ;;                                             10 COMMON     4     0      4
  2489 ;;                           ___flpack
  2490 ;;                          _delay10ms (ARG)
  2491 ;; ---------------------------------------------------------------------------------
  2492 ;; (2) ___flmul                                             19    11      8     535
  2493 ;;                                             30 BANK0     19    11      8
  2494 ;;                           ___flpack
  2495 ;;                            ___fldiv (ARG)
  2496 ;; ---------------------------------------------------------------------------------
  2497 ;; (2) ___fldiv                                             19    11      8     488
  2498 ;;                                             11 BANK0     19    11      8
  2499 ;;                           ___flpack
  2500 ;;                            ___fladd (ARG)
  2501 ;; ---------------------------------------------------------------------------------
  2502 ;; (3) ___fladd                                             15     7      8    1049
  2503 ;;                                             10 COMMON     4     4      0
  2504 ;;                                              0 BANK0     11     3      8
  2505 ;;                           ___flpack
  2506 ;; ---------------------------------------------------------------------------------
  2507 ;; (1) _ser_puts                                             2     0      2      67
  2508 ;;                                              1 COMMON     2     0      2
  2509 ;;                          _ser_putch
  2510 ;; ---------------------------------------------------------------------------------
  2511 ;; (3) _delay10ms                                            4     2      2      22
  2512 ;;                                              0 COMMON     4     2      2
  2513 ;; ---------------------------------------------------------------------------------
  2514 ;; (4) _lcd_send                                             2     1      1     198
  2515 ;;                                              6 COMMON     2     1      1
  2516 ;;                             ___wmul (ARG)
  2517 ;; ---------------------------------------------------------------------------------
  2518 ;; (2) ___flge                                              12     4      8     136
  2519 ;;                                              0 COMMON    12     4      8
  2520 ;; ---------------------------------------------------------------------------------
  2521 ;; (2) ___fltol                                             10     6      4     229
  2522 ;;                                              0 COMMON    10     6      4
  2523 ;; ---------------------------------------------------------------------------------
  2524 ;; (3) ___flpack                                            10     4      6     209
  2525 ;;                                              0 COMMON    10     4      6
  2526 ;; ---------------------------------------------------------------------------------
  2527 ;; (3) ___lwmod                                              5     1      4     159
  2528 ;;                                              7 COMMON     5     1      4
  2529 ;;                            ___lwdiv (ARG)
  2530 ;; ---------------------------------------------------------------------------------
  2531 ;; (3) ___lwdiv                                              7     3      4     162
  2532 ;;                                              0 COMMON     7     3      4
  2533 ;; ---------------------------------------------------------------------------------
  2534 ;; (4) ___wmul                                               6     2      4      92
  2535 ;;                                              0 COMMON     6     2      4
  2536 ;; ---------------------------------------------------------------------------------
  2537 ;; (2) _ser_putch                                            1     1      0      22
  2538 ;;                                              0 COMMON     1     1      0
  2539 ;; ---------------------------------------------------------------------------------
  2540 ;; (2) _ser_init                                             0     0      0       0
  2541 ;; ---------------------------------------------------------------------------------
  2542 ;; Estimated maximum stack depth 4
  2543 ;; ---------------------------------------------------------------------------------
  2544                           
  2545 ;; Call Graph Graphs:
  2546                           
  2547 ;; _main (ROOT)
  2548 ;;   _initialize
  2549 ;;     _lcd_init
  2550 ;;       _lcd_send
  2551 ;;         ___wmul (ARG)
  2552 ;;     _lcd_clear
  2553 ;;       _lcd_gotoxy
  2554 ;;         _lcd_send
  2555 ;;           ___wmul (ARG)
  2556 ;;       _lcd_send
  2557 ;;         ___wmul (ARG)
  2558 ;;     _ser_init
  2559 ;;   _lcd_gotoxy
  2560 ;;     _lcd_send
  2561 ;;       ___wmul (ARG)
  2562 ;;   _lcd_send
  2563 ;;     ___wmul (ARG)
  2564 ;;   _lcd_puts
  2565 ;;     _lcd_putch
  2566 ;;       ___wmul
  2567 ;;       _lcd_send
  2568 ;;         ___wmul (ARG)
  2569 ;;   _delay10ms
  2570 ;;   _calibrate
  2571 ;;     _lcd_clear
  2572 ;;       _lcd_gotoxy
  2573 ;;         _lcd_send
  2574 ;;           ___wmul (ARG)
  2575 ;;       _lcd_send
  2576 ;;         ___wmul (ARG)
  2577 ;;     _lcd_gotoxy
  2578 ;;       _lcd_send
  2579 ;;         ___wmul (ARG)
  2580 ;;     _lcd_puts
  2581 ;;       _lcd_putch
  2582 ;;         ___wmul
  2583 ;;         _lcd_send
  2584 ;;           ___wmul (ARG)
  2585 ;;     _measure_freq
  2586 ;;       _delay10ms
  2587 ;;       ___lwtofl (ARG)
  2588 ;;         ___flpack
  2589 ;;         _delay10ms (ARG)
  2590 ;;     ___lwtofl
  2591 ;;       ___flpack
  2592 ;;       _delay10ms (ARG)
  2593 ;;     _delay10ms
  2594 ;;     _lcd_send
  2595 ;;       ___wmul (ARG)
  2596 ;;   _lcd_clear
  2597 ;;     _lcd_gotoxy
  2598 ;;       _lcd_send
  2599 ;;         ___wmul (ARG)
  2600 ;;     _lcd_send
  2601 ;;       ___wmul (ARG)
  2602 ;;   _ser_puts
  2603 ;;     _ser_putch
  2604 ;;   _measure_capacitance
  2605 ;;     _lcd_gotoxy
  2606 ;;       _lcd_send
  2607 ;;         ___wmul (ARG)
  2608 ;;     _lcd_puts
  2609 ;;       _lcd_putch
  2610 ;;         ___wmul
  2611 ;;         _lcd_send
  2612 ;;           ___wmul (ARG)
  2613 ;;     _measure_freq
  2614 ;;       _delay10ms
  2615 ;;       ___lwtofl (ARG)
  2616 ;;         ___flpack
  2617 ;;         _delay10ms (ARG)
  2618 ;;     ___lwtofl
  2619 ;;       ___flpack
  2620 ;;       _delay10ms (ARG)
  2621 ;;     ___flge
  2622 ;;     ___flmul
  2623 ;;       ___flpack
  2624 ;;       ___fldiv (ARG)
  2625 ;;         ___flpack
  2626 ;;         ___fladd (ARG)
  2627 ;;           ___flpack
  2628 ;;     ___flsub
  2629 ;;       ___fladd
  2630 ;;         ___flpack
  2631 ;;       ___flmul (ARG)
  2632 ;;         ___flpack
  2633 ;;         ___fldiv (ARG)
  2634 ;;           ___flpack
  2635 ;;           ___fladd (ARG)
  2636 ;;             ___flpack
  2637 ;;       ___fldiv (ARG)
  2638 ;;         ___flpack
  2639 ;;         ___fladd (ARG)
  2640 ;;           ___flpack
  2641 ;;     ___fldiv
  2642 ;;       ___flpack
  2643 ;;       ___fladd (ARG)
  2644 ;;         ___flpack
  2645 ;;     _display_unit
  2646 ;;       _lcd_gotoxy
  2647 ;;         _lcd_send
  2648 ;;           ___wmul (ARG)
  2649 ;;       ___wmul
  2650 ;;       _lcd_send
  2651 ;;         ___wmul (ARG)
  2652 ;;     ___fltol
  2653 ;;     _display_reading
  2654 ;;       _lcd_gotoxy
  2655 ;;         _lcd_send
  2656 ;;           ___wmul (ARG)
  2657 ;;       _lcd_puts
  2658 ;;         _lcd_putch
  2659 ;;           ___wmul
  2660 ;;           _lcd_send
  2661 ;;             ___wmul (ARG)
  2662 ;;       _lcd_send
  2663 ;;         ___wmul (ARG)
  2664 ;;       ___lwdiv
  2665 ;;       _display_digit
  2666 ;;         _lcd_gotoxy
  2667 ;;           _lcd_send
  2668 ;;             ___wmul (ARG)
  2669 ;;         _lcd_send
  2670 ;;           ___wmul (ARG)
  2671 ;;         ___lwdiv (ARG)
  2672 ;;         ___lwmod (ARG)
  2673 ;;           ___lwdiv (ARG)
  2674 ;;       ___lwmod
  2675 ;;         ___lwdiv (ARG)
  2676 ;;   _measure_inductance
  2677 ;;     _lcd_gotoxy
  2678 ;;       _lcd_send
  2679 ;;         ___wmul (ARG)
  2680 ;;     _lcd_puts
  2681 ;;       _lcd_putch
  2682 ;;         ___wmul
  2683 ;;         _lcd_send
  2684 ;;           ___wmul (ARG)
  2685 ;;     _measure_freq
  2686 ;;       _delay10ms
  2687 ;;       ___lwtofl (ARG)
  2688 ;;         ___flpack
  2689 ;;         _delay10ms (ARG)
  2690 ;;     ___lwtofl
  2691 ;;       ___flpack
  2692 ;;       _delay10ms (ARG)
  2693 ;;     ___flge
  2694 ;;     ___flsub
  2695 ;;       ___fladd
  2696 ;;         ___flpack
  2697 ;;       ___flmul (ARG)
  2698 ;;         ___flpack
  2699 ;;         ___fldiv (ARG)
  2700 ;;           ___flpack
  2701 ;;           ___fladd (ARG)
  2702 ;;             ___flpack
  2703 ;;       ___fldiv (ARG)
  2704 ;;         ___flpack
  2705 ;;         ___fladd (ARG)
  2706 ;;           ___flpack
  2707 ;;     ___flmul
  2708 ;;       ___flpack
  2709 ;;       ___fldiv (ARG)
  2710 ;;         ___flpack
  2711 ;;         ___fladd (ARG)
  2712 ;;           ___flpack
  2713 ;;     ___fldiv
  2714 ;;       ___flpack
  2715 ;;       ___fladd (ARG)
  2716 ;;         ___flpack
  2717 ;;     _display_unit
  2718 ;;       _lcd_gotoxy
  2719 ;;         _lcd_send
  2720 ;;           ___wmul (ARG)
  2721 ;;       ___wmul
  2722 ;;       _lcd_send
  2723 ;;         ___wmul (ARG)
  2724 ;;     ___fltol
  2725 ;;     _display_reading
  2726 ;;       _lcd_gotoxy
  2727 ;;         _lcd_send
  2728 ;;           ___wmul (ARG)
  2729 ;;       _lcd_puts
  2730 ;;         _lcd_putch
  2731 ;;           ___wmul
  2732 ;;           _lcd_send
  2733 ;;             ___wmul (ARG)
  2734 ;;       _lcd_send
  2735 ;;         ___wmul (ARG)
  2736 ;;       ___lwdiv
  2737 ;;       _display_digit
  2738 ;;         _lcd_gotoxy
  2739 ;;           _lcd_send
  2740 ;;             ___wmul (ARG)
  2741 ;;         _lcd_send
  2742 ;;           ___wmul (ARG)
  2743 ;;         ___lwdiv (ARG)
  2744 ;;         ___lwmod (ARG)
  2745 ;;           ___lwdiv (ARG)
  2746 ;;       ___lwmod
  2747 ;;         ___lwdiv (ARG)
  2748 ;;   _indicator
  2749 ;;     _lcd_gotoxy
  2750 ;;       _lcd_send
  2751 ;;         ___wmul (ARG)
  2752 ;;     _lcd_send
  2753 ;;       ___wmul (ARG)
  2754 ;;     _lcd_puts
  2755 ;;       _lcd_putch
  2756 ;;         ___wmul
  2757 ;;         _lcd_send
  2758 ;;           ___wmul (ARG)
  2759 ;;
  2760                           
  2761 ;; Address spaces:
  2762                           
  2763 ;;Name               Size   Autos  Total    Cost      Usage
  2764 ;;BITCOMMON            E      0       0       0        0.0%
  2765 ;;EEDATA             100      0       0       0        0.0%
  2766 ;;NULL                 0      0       0       0        0.0%
  2767 ;;CODE                 0      0       0       0        0.0%
  2768 ;;COMMON               E      E       E       1      100.0%
  2769 ;;BITSFR0              0      0       0       1        0.0%
  2770 ;;SFR0                 0      0       0       1        0.0%
  2771 ;;BITSFR1              0      0       0       2        0.0%
  2772 ;;SFR1                 0      0       0       2        0.0%
  2773 ;;STACK                0      0       5       2        0.0%
  2774 ;;ABS                  0      0      8B       3        0.0%
  2775 ;;BITBANK0            50      0       0       4        0.0%
  2776 ;;BITSFR3              0      0       0       4        0.0%
  2777 ;;SFR3                 0      0       0       4        0.0%
  2778 ;;BANK0               50     3B      4F       5       98.8%
  2779 ;;BITSFR2              0      0       0       5        0.0%
  2780 ;;SFR2                 0      0       0       5        0.0%
  2781 ;;BITBANK1            50      0       0       6        0.0%
  2782 ;;BANK1               50     22      2E       7       57.5%
  2783 ;;BITBANK3            60      0       0       8        0.0%
  2784 ;;BANK3               60      0       0       9        0.0%
  2785 ;;BITBANK2            60      0       0      10        0.0%
  2786 ;;BANK2               60      0       0      11        0.0%
  2787 ;;DATA                 0      0      90      12        0.0%
  2788                           
  2789                           	global	_main
  2790                           psect	maintext,global,class=CODE,delta=2
  2791                           global __pmaintext
  2792  134D                     __pmaintext:
  2793                           
  2794 ;; *************** function _main *****************
  2795 ;; Defined at:
  2796 ;;		line 27 in file "C:\Users\vboxuser\Desktop\lc-meter\src\julznc\main.c"
  2797 ;; Parameters:    Size  Location     Type
  2798 ;;		None
  2799 ;; Auto vars:     Size  Location     Type
  2800 ;;  i               2   57[BANK0 ] int 
  2801 ;; Return value:  Size  Location     Type
  2802 ;;		None               void
  2803 ;; Registers used:
  2804 ;;		wreg, fsr0l, fsr0h, status,2, status,0, btemp+1, pclath, cstack
  2805 ;; Tracked objects:
  2806 ;;		On entry : 17F/0
  2807 ;;		On exit  : 0/0
  2808 ;;		Unchanged: 0/0
  2809 ;; Data sizes:     COMMON   BANK0   BANK1   BANK3   BANK2
  2810 ;;      Params:         0       0       0       0       0
  2811 ;;      Locals:         0       2       0       0       0
  2812 ;;      Temps:          0       0       0       0       0
  2813 ;;      Totals:         0       2       0       0       0
  2814 ;;Total ram usage:        2 bytes
  2815 ;; Hardware stack levels required when called:    5
  2816 ;; This function calls:
  2817 ;;		_initialize
  2818 ;;		_lcd_gotoxy
  2819 ;;		_lcd_send
  2820 ;;		_lcd_puts
  2821 ;;		_delay10ms
  2822 ;;		_calibrate
  2823 ;;		_lcd_clear
  2824 ;;		_ser_puts
  2825 ;;		_measure_capacitance
  2826 ;;		_measure_inductance
  2827 ;;		_indicator
  2828 ;; This function is called by:
  2829 ;;		Startup code after reset
  2830 ;; This function uses a non-reentrant model
  2831 ;;
  2832                           psect	maintext
  2833                           	file	"C:\Users\vboxuser\Desktop\lc-meter\src\julznc\main.c"
  2834                           	line	27
  2835                           	global	__size_of_main
  2836  0091                     	__size_of_main	equ	__end_of_main-_main
  2837                           	
  2838  134D                     _main:	
  2839                           	opt	stack 3
  2840                           ; Regs used in _main: [wreg-fsr0h+status,2+status,0+btemp+1+pclath+cstack]
  2841                           	line	29
  2842                           	
  2843  134D                     l10246:	
  2844                           ;main.c: 28: int i;
  2845                           ;main.c: 29: initialize();
  2846  134D  160A  118A  2062   	fcall	_initialize
              160A  118A         
  2847                           	line	30
  2848                           ;main.c: 30: lcd_gotoxy(0, 0);
  2849  1352  01F8               	clrf	(?_lcd_gotoxy)
  2850  1353  01F9               	clrf	(?_lcd_gotoxy+1)
  2851  1354  3000               	movlw	(0)
  2852  1355  120A  118A  20ED   	fcall	_lcd_gotoxy
              160A  118A         
  2853                           	line	32
  2854                           	
  2855  135A                     l10248:	
  2856                           ;main.c: 32: for(i = 0; i < 504; i++) lcd_send(logo_image[i], 1);
  2857  135A  01D9               	clrf	(main@i)
  2858  135B  01DA               	clrf	(main@i+1)
  2859                           	
  2860  135C                     l10254:	
  2861  135C  01F6               	clrf	(?_lcd_send)
  2862  135D  0AF6               	incf	(?_lcd_send),f
  2863  135E  3081               	movlw	high(display@logo_image|8000h)
  2864  135F  1283               	bcf	status, 5	;RP0=0, select bank0
  2865  1360  1303               	bcf	status, 6	;RP1=0, select bank0
  2866  1361  075A               	addwf	(main@i+1),w
  2867  1362  00FF               	movwf	btemp+1
  2868  1363  3012               	movlw	low(display@logo_image|8000h)
  2869  1364  0759               	addwf	(main@i),w
  2870  1365  0084               	movwf	fsr0
  2871  1366  1803               	skipnc
  2872  1367  0AFF               	incf	btemp+1,f
  2873  1368  120A  118A  2100   	fcall	stringtab
              160A  118A         
  2874  136D  160A  118A  2472   	fcall	_lcd_send
              160A  118A         
  2875                           	
  2876  1372                     l10256:	
  2877  1372  0AD9               	incf	(main@i),f
  2878  1373  1903               	skipnz
  2879  1374  0ADA               	incf	(main@i+1),f
  2880                           	
  2881  1375                     l10258:	
  2882  1375  085A               	movf	(main@i+1),w
  2883  1376  3A80               	xorlw	80h
  2884  1377  00FF               	movwf	btemp+1
  2885  1378  3081               	movlw	(high(01F8h))^80h
  2886  1379  027F               	subwf	btemp+1,w
  2887  137A  1D03               	skipz
  2888  137B  2B7E               	goto	u2055
  2889  137C  30F8               	movlw	low(01F8h)
  2890  137D  0259               	subwf	(main@i),w
  2891  137E                     u2055:
  2892                           
  2893  137E  1C03               	skipc
  2894  137F  2B81               	goto	u2051
  2895  1380  2B82               	goto	u2050
  2896  1381                     u2051:
  2897  1381  2B5C               	goto	l10254
  2898  1382                     u2050:
  2899                           	line	33
  2900                           	
  2901  1382                     l10260:	
  2902                           ;main.c: 33: lcd_gotoxy(40, 5);
  2903  1382  3005               	movlw	05h
  2904  1383  00F8               	movwf	(?_lcd_gotoxy)
  2905  1384  01F9               	clrf	(?_lcd_gotoxy+1)
  2906  1385  3028               	movlw	(028h)
  2907  1386  120A  118A  20ED   	fcall	_lcd_gotoxy
              160A  118A         
  2908                           	line	34
  2909                           	
  2910  138B                     l10262:	
  2911                           ;main.c: 34: lcd_puts("YUS'09");
  2912  138B  301C               	movlw	low(STR_4|8000h)
  2913  138C  00F9               	movwf	(?_lcd_puts)
  2914  138D  3087               	movlw	high(STR_4|8000h)
  2915  138E  00FA               	movwf	((?_lcd_puts))+1
  2916  138F  160A  118A  201E   	fcall	_lcd_puts
              160A  118A         
  2917                           	line	35
  2918                           	
  2919  1394                     l10264:	
  2920                           ;main.c: 35: delay10ms(200);
  2921  1394  30C8               	movlw	0C8h
  2922  1395  00F0               	movwf	(?_delay10ms)
  2923  1396  01F1               	clrf	(?_delay10ms+1)
  2924  1397  160A  158A  2794   	fcall	_delay10ms
              160A  118A         
  2925                           	line	36
  2926                           ;main.c: 36: calibrate();
  2927  139C  120A  118A  2729   	fcall	_calibrate
              160A  118A         
  2928                           	line	37
  2929                           	
  2930  13A1                     l10266:	
  2931                           ;main.c: 37: lcd_clear();
  2932  13A1  160A  158A  27C1   	fcall	_lcd_clear
              160A  118A         
  2933                           	line	41
  2934                           	
  2935  13A6                     l10268:	
  2936                           ;main.c: 41: ser_puts("...\r\n");
  2937  13A6  3023               	movlw	low(STR_5|8000h)
  2938  13A7  00F1               	movwf	(?_ser_puts)
  2939  13A8  3087               	movlw	high(STR_5|8000h)
  2940  13A9  00F2               	movwf	((?_ser_puts))+1
  2941  13AA  160A  118A  203F   	fcall	_ser_puts
              160A  118A         
  2942                           	line	43
  2943                           	
  2944  13AF                     l10270:	
  2945                           ;main.c: 43: if(RB0)
  2946  13AF  1C06               	btfss	(48/8),(48)&7
  2947  13B0  2BB2               	goto	u2061
  2948  13B1  2BB3               	goto	u2060
  2949  13B2                     u2061:
  2950  13B2  2BB9               	goto	l10274
  2951  13B3                     u2060:
  2952                           	line	44
  2953                           	
  2954  13B3                     l10272:	
  2955                           ;main.c: 44: measure_capacitance();
  2956  13B3  120A  158A  2080   	fcall	_measure_capacitance
              160A  118A         
  2957  13B8  2BBE               	goto	l1426
  2958                           	line	46
  2959                           	
  2960  13B9                     l10274:	
  2961                           ;main.c: 45: else
  2962                           ;main.c: 46: measure_inductance();
  2963  13B9  120A  158A  23DF   	fcall	_measure_inductance
              160A  118A         
  2964                           	
  2965  13BE                     l1426:	
  2966                           	line	47
  2967                           ;main.c: 47: indicator(1);
  2968  13BE  3001               	movlw	(01h)
  2969  13BF  160A  118A  20B2   	fcall	_indicator
              160A  118A         
  2970                           	line	48
  2971                           	
  2972  13C4                     l10276:	
  2973                           ;main.c: 48: delay10ms(30);
  2974  13C4  301E               	movlw	01Eh
  2975  13C5  00F0               	movwf	(?_delay10ms)
  2976  13C6  01F1               	clrf	(?_delay10ms+1)
  2977  13C7  160A  158A  2794   	fcall	_delay10ms
              160A  118A         
  2978                           	line	49
  2979                           	
  2980  13CC                     l10278:	
  2981                           ;main.c: 49: indicator(0);
  2982  13CC  3000               	movlw	(0)
  2983  13CD  160A  118A  20B2   	fcall	_indicator
              160A  118A         
  2984                           	line	50
  2985                           ;main.c: 50: delay10ms(20);
  2986  13D2  3014               	movlw	014h
  2987  13D3  00F0               	movwf	(?_delay10ms)
  2988  13D4  01F1               	clrf	(?_delay10ms+1)
  2989  13D5  160A  158A  2794   	fcall	_delay10ms
              160A  118A         
  2990  13DA  2BA6               	goto	l10268
  2991                           	global	start
  2992  13DB  120A  118A  2804   	ljmp	start
  2993                           	opt stack 0
  2994                           psect	maintext
  2995                           	line	52
  2996                           GLOBAL	__end_of_main
  2997  13DE                     	__end_of_main:
  2998 ;; =============== function _main ends ============
  2999                           
  3000                           	signat	_main,88
  3001                           	global	_measure_inductance
  3002                           psect	text569,local,class=CODE,delta=2
  3003                           global __ptext569
  3004  0BDF                     __ptext569:
  3005                           
  3006 ;; *************** function _measure_inductance *****************
  3007 ;; Defined at:
  3008 ;;		line 168 in file "C:\Users\vboxuser\Desktop\lc-meter\src\julznc\main.c"
  3009 ;; Parameters:    Size  Location     Type
  3010 ;;		None
  3011 ;; Auto vars:     Size  Location     Type
  3012 ;;  Lin             4   30[BANK1 ] int 
  3013 ;;  denominator     4    4[BANK1 ] int 
  3014 ;;  numerator       4    0[BANK1 ] int 
  3015 ;;  var             2   28[BANK1 ] unsigned int 
  3016 ;; Return value:  Size  Location     Type
  3017 ;;		None               void
  3018 ;; Registers used:
  3019 ;;		wreg, fsr0l, fsr0h, status,2, status,0, btemp+1, pclath, cstack
  3020 ;; Tracked objects:
  3021 ;;		On entry : 60/0
  3022 ;;		On exit  : 60/0
  3023 ;;		Unchanged: 0/0
  3024 ;; Data sizes:     COMMON   BANK0   BANK1   BANK3   BANK2
  3025 ;;      Params:         0       0       0       0       0
  3026 ;;      Locals:         0       0      34       0       0
  3027 ;;      Temps:          0       0       0       0       0
  3028 ;;      Totals:         0       0      34       0       0
  3029 ;;Total ram usage:       34 bytes
  3030 ;; Hardware stack levels used:    1
  3031 ;; Hardware stack levels required when called:    4
  3032 ;; This function calls:
  3033 ;;		_lcd_gotoxy
  3034 ;;		_lcd_puts
  3035 ;;		_measure_freq
  3036 ;;		___lwtofl
  3037 ;;		___flge
  3038 ;;		___flsub
  3039 ;;		___flmul
  3040 ;;		___fldiv
  3041 ;;		_display_unit
  3042 ;;		___fltol
  3043 ;;		_display_reading
  3044 ;; This function is called by:
  3045 ;;		_main
  3046 ;; This function uses a non-reentrant model
  3047 ;;
  3048                           psect	text569
  3049                           	file	"C:\Users\vboxuser\Desktop\lc-meter\src\julznc\main.c"
  3050                           	line	168
  3051                           	global	__size_of_measure_inductance
  3052  0421                     	__size_of_measure_inductance	equ	__end_of_measure_inductance-_measure_inductance
  3053                           	
  3054  0BDF                     _measure_inductance:	
  3055                           	opt	stack 3
  3056                           ; Regs used in _measure_inductance: [wreg-fsr0h+status,2+status,0+btemp+1+pclath+cstack]
  3057                           	line	171
  3058                           	
  3059  0BDF                     l10190:	
  3060                           ;main.c: 169: unsigned int var;
  3061                           ;main.c: 170: double Lin, numerator, denominator;
  3062                           ;main.c: 171: lcd_gotoxy(7, 5);
  3063  0BDF  3005               	movlw	05h
  3064  0BE0  00F8               	movwf	(?_lcd_gotoxy)
  3065  0BE1  01F9               	clrf	(?_lcd_gotoxy+1)
  3066  0BE2  3007               	movlw	(07h)
  3067  0BE3  120A  118A  20ED   	fcall	_lcd_gotoxy
              120A  158A         
  3068                           	line	172
  3069                           	
  3070  0BE8                     l10192:	
  3071                           ;main.c: 172: lcd_puts(" inductance ");
  3072  0BE8  30EB               	movlw	low(STR_9|8000h)
  3073  0BE9  00F9               	movwf	(?_lcd_puts)
  3074  0BEA  3086               	movlw	high(STR_9|8000h)
  3075  0BEB  00FA               	movwf	((?_lcd_puts))+1
  3076  0BEC  160A  118A  201E   	fcall	_lcd_puts
              120A  158A         
  3077                           	line	173
  3078                           	
  3079  0BF1                     l10194:	
  3080                           ;main.c: 173: var = measure_freq();
  3081  0BF1  160A  118A  20FC   	fcall	_measure_freq
              120A  158A         
  3082  0BF6  0821               	movf	(1+(?_measure_freq)),w
  3083  0BF7  1683               	bsf	status, 5	;RP0=1, select bank1
  3084  0BF8  00BD               	movwf	(measure_inductance@var+1)^080h
  3085  0BF9  1283               	bcf	status, 5	;RP0=0, select bank0
  3086  0BFA  0820               	movf	(0+(?_measure_freq)),w
  3087  0BFB  1683               	bsf	status, 5	;RP0=1, select bank1
  3088  0BFC  00BC               	movwf	(measure_inductance@var)^080h
  3089                           	line	174
  3090                           	
  3091  0BFD                     l10196:	
  3092                           ;main.c: 174: F3 = (double)var;
  3093  0BFD  083D               	movf	(measure_inductance@var+1)^080h,w
  3094  0BFE  00FB               	movwf	(?___lwtofl+1)
  3095  0BFF  083C               	movf	(measure_inductance@var)^080h,w
  3096  0C00  00FA               	movwf	(?___lwtofl)
  3097  0C01  160A  158A  27AA   	fcall	___lwtofl
              120A  158A         
  3098  0C06  087D               	movf	(3+(?___lwtofl)),w
  3099  0C07  00C9               	movwf	(_F3+3)^080h
  3100  0C08  087C               	movf	(2+(?___lwtofl)),w
  3101  0C09  00C8               	movwf	(_F3+2)^080h
  3102  0C0A  087B               	movf	(1+(?___lwtofl)),w
  3103  0C0B  00C7               	movwf	(_F3+1)^080h
  3104  0C0C  087A               	movf	(0+(?___lwtofl)),w
  3105  0C0D  00C6               	movwf	(_F3)^080h
  3106                           
  3107                           	line	175
  3108                           	
  3109  0C0E                     l10198:	
  3110                           ;main.c: 175: if(F3 > F1)
  3111  0C0E  084D               	movf	(_F1+3)^080h,w
  3112  0C0F  00F3               	movwf	(?___flge+3)
  3113  0C10  084C               	movf	(_F1+2)^080h,w
  3114  0C11  00F2               	movwf	(?___flge+2)
  3115  0C12  084B               	movf	(_F1+1)^080h,w
  3116  0C13  00F1               	movwf	(?___flge+1)
  3117  0C14  084A               	movf	(_F1)^080h,w
  3118  0C15  00F0               	movwf	(?___flge)
  3119                           
  3120  0C16  0849               	movf	(_F3+3)^080h,w
  3121  0C17  00F7               	movwf	3+(?___flge)+04h
  3122  0C18  0848               	movf	(_F3+2)^080h,w
  3123  0C19  00F6               	movwf	2+(?___flge)+04h
  3124  0C1A  0847               	movf	(_F3+1)^080h,w
  3125  0C1B  00F5               	movwf	1+(?___flge)+04h
  3126  0C1C  0846               	movf	(_F3)^080h,w
  3127  0C1D  00F4               	movwf	0+(?___flge)+04h
  3128                           
  3129  0C1E  160A  118A  21FE   	fcall	___flge
              120A  158A         
  3130  0C23  1803               	btfsc	status,0
  3131  0C24  2C26               	goto	u2011
  3132  0C25  2C27               	goto	u2010
  3133  0C26                     u2011:
  3134  0C26  2C2F               	goto	l10202
  3135  0C27                     u2010:
  3136                           	line	176
  3137                           	
  3138  0C27                     l10200:	
  3139                           ;main.c: 176: F3 = F1;
  3140  0C27  084D               	movf	(_F1+3)^080h,w
  3141  0C28  00C9               	movwf	(_F3+3)^080h
  3142  0C29  084C               	movf	(_F1+2)^080h,w
  3143  0C2A  00C8               	movwf	(_F3+2)^080h
  3144  0C2B  084B               	movf	(_F1+1)^080h,w
  3145  0C2C  00C7               	movwf	(_F3+1)^080h
  3146  0C2D  084A               	movf	(_F1)^080h,w
  3147  0C2E  00C6               	movwf	(_F3)^080h
  3148                           
  3149                           	line	177
  3150                           	
  3151  0C2F                     l10202:	
  3152                           ;main.c: 177: numerator = ((F1 * F1) - (F3 * F3)) * ((F1 * F1) - (F2 - F2)) * (100 * 100
                                 );
  3153  0C2F  0849               	movf	(_F3+3)^080h,w
  3154  0C30  1283               	bcf	status, 5	;RP0=0, select bank0
  3155  0C31  00C1               	movwf	(?___flmul+3)
  3156  0C32  1683               	bsf	status, 5	;RP0=1, select bank1
  3157  0C33  0848               	movf	(_F3+2)^080h,w
  3158  0C34  1283               	bcf	status, 5	;RP0=0, select bank0
  3159  0C35  00C0               	movwf	(?___flmul+2)
  3160  0C36  1683               	bsf	status, 5	;RP0=1, select bank1
  3161  0C37  0847               	movf	(_F3+1)^080h,w
  3162  0C38  1283               	bcf	status, 5	;RP0=0, select bank0
  3163  0C39  00BF               	movwf	(?___flmul+1)
  3164  0C3A  1683               	bsf	status, 5	;RP0=1, select bank1
  3165  0C3B  0846               	movf	(_F3)^080h,w
  3166  0C3C  1283               	bcf	status, 5	;RP0=0, select bank0
  3167  0C3D  00BE               	movwf	(?___flmul)
  3168                           
  3169  0C3E  1683               	bsf	status, 5	;RP0=1, select bank1
  3170  0C3F  0849               	movf	(_F3+3)^080h,w
  3171  0C40  1283               	bcf	status, 5	;RP0=0, select bank0
  3172  0C41  00C5               	movwf	3+(?___flmul)+04h
  3173  0C42  1683               	bsf	status, 5	;RP0=1, select bank1
  3174  0C43  0848               	movf	(_F3+2)^080h,w
  3175  0C44  1283               	bcf	status, 5	;RP0=0, select bank0
  3176  0C45  00C4               	movwf	2+(?___flmul)+04h
  3177  0C46  1683               	bsf	status, 5	;RP0=1, select bank1
  3178  0C47  0847               	movf	(_F3+1)^080h,w
  3179  0C48  1283               	bcf	status, 5	;RP0=0, select bank0
  3180  0C49  00C3               	movwf	1+(?___flmul)+04h
  3181  0C4A  1683               	bsf	status, 5	;RP0=1, select bank1
  3182  0C4B  0846               	movf	(_F3)^080h,w
  3183  0C4C  1283               	bcf	status, 5	;RP0=0, select bank0
  3184  0C4D  00C2               	movwf	0+(?___flmul)+04h
  3185                           
  3186  0C4E  120A  118A  2007   	fcall	___flmul
              120A  158A         
  3187  0C53  0841               	movf	(3+(?___flmul)),w
  3188  0C54  00D4               	movwf	(?___flsub+3)
  3189  0C55  0840               	movf	(2+(?___flmul)),w
  3190  0C56  00D3               	movwf	(?___flsub+2)
  3191  0C57  083F               	movf	(1+(?___flmul)),w
  3192  0C58  00D2               	movwf	(?___flsub+1)
  3193  0C59  083E               	movf	(0+(?___flmul)),w
  3194  0C5A  00D1               	movwf	(?___flsub)
  3195                           
  3196  0C5B  1683               	bsf	status, 5	;RP0=1, select bank1
  3197  0C5C  084D               	movf	(_F1+3)^080h,w
  3198  0C5D  1283               	bcf	status, 5	;RP0=0, select bank0
  3199  0C5E  00C1               	movwf	(?___flmul+3)
  3200  0C5F  1683               	bsf	status, 5	;RP0=1, select bank1
  3201  0C60  084C               	movf	(_F1+2)^080h,w
  3202  0C61  1283               	bcf	status, 5	;RP0=0, select bank0
  3203  0C62  00C0               	movwf	(?___flmul+2)
  3204  0C63  1683               	bsf	status, 5	;RP0=1, select bank1
  3205  0C64  084B               	movf	(_F1+1)^080h,w
  3206  0C65  1283               	bcf	status, 5	;RP0=0, select bank0
  3207  0C66  00BF               	movwf	(?___flmul+1)
  3208  0C67  1683               	bsf	status, 5	;RP0=1, select bank1
  3209  0C68  084A               	movf	(_F1)^080h,w
  3210  0C69  1283               	bcf	status, 5	;RP0=0, select bank0
  3211  0C6A  00BE               	movwf	(?___flmul)
  3212                           
  3213  0C6B  1683               	bsf	status, 5	;RP0=1, select bank1
  3214  0C6C  084D               	movf	(_F1+3)^080h,w
  3215  0C6D  1283               	bcf	status, 5	;RP0=0, select bank0
  3216  0C6E  00C5               	movwf	3+(?___flmul)+04h
  3217  0C6F  1683               	bsf	status, 5	;RP0=1, select bank1
  3218  0C70  084C               	movf	(_F1+2)^080h,w
  3219  0C71  1283               	bcf	status, 5	;RP0=0, select bank0
  3220  0C72  00C4               	movwf	2+(?___flmul)+04h
  3221  0C73  1683               	bsf	status, 5	;RP0=1, select bank1
  3222  0C74  084B               	movf	(_F1+1)^080h,w
  3223  0C75  1283               	bcf	status, 5	;RP0=0, select bank0
  3224  0C76  00C3               	movwf	1+(?___flmul)+04h
  3225  0C77  1683               	bsf	status, 5	;RP0=1, select bank1
  3226  0C78  084A               	movf	(_F1)^080h,w
  3227  0C79  1283               	bcf	status, 5	;RP0=0, select bank0
  3228  0C7A  00C2               	movwf	0+(?___flmul)+04h
  3229                           
  3230  0C7B  120A  118A  2007   	fcall	___flmul
              120A  158A         
  3231  0C80  0841               	movf	(3+(?___flmul)),w
  3232  0C81  00D8               	movwf	3+(?___flsub)+04h
  3233  0C82  0840               	movf	(2+(?___flmul)),w
  3234  0C83  00D7               	movwf	2+(?___flsub)+04h
  3235  0C84  083F               	movf	(1+(?___flmul)),w
  3236  0C85  00D6               	movwf	1+(?___flsub)+04h
  3237  0C86  083E               	movf	(0+(?___flmul)),w
  3238  0C87  00D5               	movwf	0+(?___flsub)+04h
  3239                           
  3240  0C88  160A  158A  27E0   	fcall	___flsub
              120A  158A         
  3241  0C8D  0854               	movf	(3+(?___flsub)),w
  3242  0C8E  1683               	bsf	status, 5	;RP0=1, select bank1
  3243  0C8F  00B7               	movwf	(_measure_inductance$8396+3)^080h
  3244  0C90  1283               	bcf	status, 5	;RP0=0, select bank0
  3245  0C91  0853               	movf	(2+(?___flsub)),w
  3246  0C92  1683               	bsf	status, 5	;RP0=1, select bank1
  3247  0C93  00B6               	movwf	(_measure_inductance$8396+2)^080h
  3248  0C94  1283               	bcf	status, 5	;RP0=0, select bank0
  3249  0C95  0852               	movf	(1+(?___flsub)),w
  3250  0C96  1683               	bsf	status, 5	;RP0=1, select bank1
  3251  0C97  00B5               	movwf	(_measure_inductance$8396+1)^080h
  3252  0C98  1283               	bcf	status, 5	;RP0=0, select bank0
  3253  0C99  0851               	movf	(0+(?___flsub)),w
  3254  0C9A  1683               	bsf	status, 5	;RP0=1, select bank1
  3255  0C9B  00B4               	movwf	(_measure_inductance$8396)^080h
  3256                           
  3257                           	
  3258  0C9C                     l10204:	
  3259                           ;main.c: 177: numerator = ((F1 * F1) - (F3 * F3)) * ((F1 * F1) - (F2 - F2)) * (100 * 100
                                 );
  3260  0C9C  0845               	movf	(_F2+3)^080h,w
  3261  0C9D  1283               	bcf	status, 5	;RP0=0, select bank0
  3262  0C9E  00D4               	movwf	(?___flsub+3)
  3263  0C9F  1683               	bsf	status, 5	;RP0=1, select bank1
  3264  0CA0  0844               	movf	(_F2+2)^080h,w
  3265  0CA1  1283               	bcf	status, 5	;RP0=0, select bank0
  3266  0CA2  00D3               	movwf	(?___flsub+2)
  3267  0CA3  1683               	bsf	status, 5	;RP0=1, select bank1
  3268  0CA4  0843               	movf	(_F2+1)^080h,w
  3269  0CA5  1283               	bcf	status, 5	;RP0=0, select bank0
  3270  0CA6  00D2               	movwf	(?___flsub+1)
  3271  0CA7  1683               	bsf	status, 5	;RP0=1, select bank1
  3272  0CA8  0842               	movf	(_F2)^080h,w
  3273  0CA9  1283               	bcf	status, 5	;RP0=0, select bank0
  3274  0CAA  00D1               	movwf	(?___flsub)
  3275                           
  3276  0CAB  1683               	bsf	status, 5	;RP0=1, select bank1
  3277  0CAC  0845               	movf	(_F2+3)^080h,w
  3278  0CAD  1283               	bcf	status, 5	;RP0=0, select bank0
  3279  0CAE  00D8               	movwf	3+(?___flsub)+04h
  3280  0CAF  1683               	bsf	status, 5	;RP0=1, select bank1
  3281  0CB0  0844               	movf	(_F2+2)^080h,w
  3282  0CB1  1283               	bcf	status, 5	;RP0=0, select bank0
  3283  0CB2  00D7               	movwf	2+(?___flsub)+04h
  3284  0CB3  1683               	bsf	status, 5	;RP0=1, select bank1
  3285  0CB4  0843               	movf	(_F2+1)^080h,w
  3286  0CB5  1283               	bcf	status, 5	;RP0=0, select bank0
  3287  0CB6  00D6               	movwf	1+(?___flsub)+04h
  3288  0CB7  1683               	bsf	status, 5	;RP0=1, select bank1
  3289  0CB8  0842               	movf	(_F2)^080h,w
  3290  0CB9  1283               	bcf	status, 5	;RP0=0, select bank0
  3291  0CBA  00D5               	movwf	0+(?___flsub)+04h
  3292                           
  3293  0CBB  160A  158A  27E0   	fcall	___flsub
              120A  158A         
  3294  0CC0  0854               	movf	(3+(?___flsub)),w
  3295  0CC1  00D4               	movwf	(?___flsub+3)
  3296  0CC2  0853               	movf	(2+(?___flsub)),w
  3297  0CC3  00D3               	movwf	(?___flsub+2)
  3298  0CC4  0852               	movf	(1+(?___flsub)),w
  3299  0CC5  00D2               	movwf	(?___flsub+1)
  3300  0CC6  0851               	movf	(0+(?___flsub)),w
  3301  0CC7  00D1               	movwf	(?___flsub)
  3302                           
  3303  0CC8  1683               	bsf	status, 5	;RP0=1, select bank1
  3304  0CC9  084D               	movf	(_F1+3)^080h,w
  3305  0CCA  1283               	bcf	status, 5	;RP0=0, select bank0
  3306  0CCB  00C1               	movwf	(?___flmul+3)
  3307  0CCC  1683               	bsf	status, 5	;RP0=1, select bank1
  3308  0CCD  084C               	movf	(_F1+2)^080h,w
  3309  0CCE  1283               	bcf	status, 5	;RP0=0, select bank0
  3310  0CCF  00C0               	movwf	(?___flmul+2)
  3311  0CD0  1683               	bsf	status, 5	;RP0=1, select bank1
  3312  0CD1  084B               	movf	(_F1+1)^080h,w
  3313  0CD2  1283               	bcf	status, 5	;RP0=0, select bank0
  3314  0CD3  00BF               	movwf	(?___flmul+1)
  3315  0CD4  1683               	bsf	status, 5	;RP0=1, select bank1
  3316  0CD5  084A               	movf	(_F1)^080h,w
  3317  0CD6  1283               	bcf	status, 5	;RP0=0, select bank0
  3318  0CD7  00BE               	movwf	(?___flmul)
  3319                           
  3320  0CD8  1683               	bsf	status, 5	;RP0=1, select bank1
  3321  0CD9  084D               	movf	(_F1+3)^080h,w
  3322  0CDA  1283               	bcf	status, 5	;RP0=0, select bank0
  3323  0CDB  00C5               	movwf	3+(?___flmul)+04h
  3324  0CDC  1683               	bsf	status, 5	;RP0=1, select bank1
  3325  0CDD  084C               	movf	(_F1+2)^080h,w
  3326  0CDE  1283               	bcf	status, 5	;RP0=0, select bank0
  3327  0CDF  00C4               	movwf	2+(?___flmul)+04h
  3328  0CE0  1683               	bsf	status, 5	;RP0=1, select bank1
  3329  0CE1  084B               	movf	(_F1+1)^080h,w
  3330  0CE2  1283               	bcf	status, 5	;RP0=0, select bank0
  3331  0CE3  00C3               	movwf	1+(?___flmul)+04h
  3332  0CE4  1683               	bsf	status, 5	;RP0=1, select bank1
  3333  0CE5  084A               	movf	(_F1)^080h,w
  3334  0CE6  1283               	bcf	status, 5	;RP0=0, select bank0
  3335  0CE7  00C2               	movwf	0+(?___flmul)+04h
  3336                           
  3337  0CE8  120A  118A  2007   	fcall	___flmul
              120A  158A         
  3338  0CED  0841               	movf	(3+(?___flmul)),w
  3339  0CEE  00D8               	movwf	3+(?___flsub)+04h
  3340  0CEF  0840               	movf	(2+(?___flmul)),w
  3341  0CF0  00D7               	movwf	2+(?___flsub)+04h
  3342  0CF1  083F               	movf	(1+(?___flmul)),w
  3343  0CF2  00D6               	movwf	1+(?___flsub)+04h
  3344  0CF3  083E               	movf	(0+(?___flmul)),w
  3345  0CF4  00D5               	movwf	0+(?___flsub)+04h
  3346                           
  3347  0CF5  160A  158A  27E0   	fcall	___flsub
              120A  158A         
  3348  0CFA  0854               	movf	(3+(?___flsub)),w
  3349  0CFB  00C1               	movwf	(?___flmul+3)
  3350  0CFC  0853               	movf	(2+(?___flsub)),w
  3351  0CFD  00C0               	movwf	(?___flmul+2)
  3352  0CFE  0852               	movf	(1+(?___flsub)),w
  3353  0CFF  00BF               	movwf	(?___flmul+1)
  3354  0D00  0851               	movf	(0+(?___flsub)),w
  3355  0D01  00BE               	movwf	(?___flmul)
  3356                           
  3357  0D02  1683               	bsf	status, 5	;RP0=1, select bank1
  3358  0D03  0837               	movf	(_measure_inductance$8396+3)^080h,w
  3359  0D04  1283               	bcf	status, 5	;RP0=0, select bank0
  3360  0D05  00C5               	movwf	3+(?___flmul)+04h
  3361  0D06  1683               	bsf	status, 5	;RP0=1, select bank1
  3362  0D07  0836               	movf	(_measure_inductance$8396+2)^080h,w
  3363  0D08  1283               	bcf	status, 5	;RP0=0, select bank0
  3364  0D09  00C4               	movwf	2+(?___flmul)+04h
  3365  0D0A  1683               	bsf	status, 5	;RP0=1, select bank1
  3366  0D0B  0835               	movf	(_measure_inductance$8396+1)^080h,w
  3367  0D0C  1283               	bcf	status, 5	;RP0=0, select bank0
  3368  0D0D  00C3               	movwf	1+(?___flmul)+04h
  3369  0D0E  1683               	bsf	status, 5	;RP0=1, select bank1
  3370  0D0F  0834               	movf	(_measure_inductance$8396)^080h,w
  3371  0D10  1283               	bcf	status, 5	;RP0=0, select bank0
  3372  0D11  00C2               	movwf	0+(?___flmul)+04h
  3373                           
  3374  0D12  120A  118A  2007   	fcall	___flmul
              120A  158A         
  3375  0D17  0841               	movf	(3+(?___flmul)),w
  3376  0D18  1683               	bsf	status, 5	;RP0=1, select bank1
  3377  0D19  00BB               	movwf	(_measure_inductance$8397+3)^080h
  3378  0D1A  1283               	bcf	status, 5	;RP0=0, select bank0
  3379  0D1B  0840               	movf	(2+(?___flmul)),w
  3380  0D1C  1683               	bsf	status, 5	;RP0=1, select bank1
  3381  0D1D  00BA               	movwf	(_measure_inductance$8397+2)^080h
  3382  0D1E  1283               	bcf	status, 5	;RP0=0, select bank0
  3383  0D1F  083F               	movf	(1+(?___flmul)),w
  3384  0D20  1683               	bsf	status, 5	;RP0=1, select bank1
  3385  0D21  00B9               	movwf	(_measure_inductance$8397+1)^080h
  3386  0D22  1283               	bcf	status, 5	;RP0=0, select bank0
  3387  0D23  083E               	movf	(0+(?___flmul)),w
  3388  0D24  1683               	bsf	status, 5	;RP0=1, select bank1
  3389  0D25  00B8               	movwf	(_measure_inductance$8397)^080h
  3390                           
  3391                           	
  3392  0D26                     l10206:	
  3393                           ;main.c: 177: numerator = ((F1 * F1) - (F3 * F3)) * ((F1 * F1) - (F2 - F2)) * (100 * 100
                                 );
  3394  0D26  3046               	movlw	0x46
  3395  0D27  1283               	bcf	status, 5	;RP0=0, select bank0
  3396  0D28  00C1               	movwf	(?___flmul+3)
  3397  0D29  301C               	movlw	0x1c
  3398  0D2A  00C0               	movwf	(?___flmul+2)
  3399  0D2B  3040               	movlw	0x40
  3400  0D2C  00BF               	movwf	(?___flmul+1)
  3401  0D2D  3000               	movlw	0x0
  3402  0D2E  00BE               	movwf	(?___flmul)
  3403                           
  3404  0D2F  1683               	bsf	status, 5	;RP0=1, select bank1
  3405  0D30  083B               	movf	(_measure_inductance$8397+3)^080h,w
  3406  0D31  1283               	bcf	status, 5	;RP0=0, select bank0
  3407  0D32  00C5               	movwf	3+(?___flmul)+04h
  3408  0D33  1683               	bsf	status, 5	;RP0=1, select bank1
  3409  0D34  083A               	movf	(_measure_inductance$8397+2)^080h,w
  3410  0D35  1283               	bcf	status, 5	;RP0=0, select bank0
  3411  0D36  00C4               	movwf	2+(?___flmul)+04h
  3412  0D37  1683               	bsf	status, 5	;RP0=1, select bank1
  3413  0D38  0839               	movf	(_measure_inductance$8397+1)^080h,w
  3414  0D39  1283               	bcf	status, 5	;RP0=0, select bank0
  3415  0D3A  00C3               	movwf	1+(?___flmul)+04h
  3416  0D3B  1683               	bsf	status, 5	;RP0=1, select bank1
  3417  0D3C  0838               	movf	(_measure_inductance$8397)^080h,w
  3418  0D3D  1283               	bcf	status, 5	;RP0=0, select bank0
  3419  0D3E  00C2               	movwf	0+(?___flmul)+04h
  3420                           
  3421  0D3F  120A  118A  2007   	fcall	___flmul
              120A  158A         
  3422  0D44  0841               	movf	(3+(?___flmul)),w
  3423  0D45  1683               	bsf	status, 5	;RP0=1, select bank1
  3424  0D46  00A3               	movwf	(measure_inductance@numerator+3)^080h
  3425  0D47  1283               	bcf	status, 5	;RP0=0, select bank0
  3426  0D48  0840               	movf	(2+(?___flmul)),w
  3427  0D49  1683               	bsf	status, 5	;RP0=1, select bank1
  3428  0D4A  00A2               	movwf	(measure_inductance@numerator+2)^080h
  3429  0D4B  1283               	bcf	status, 5	;RP0=0, select bank0
  3430  0D4C  083F               	movf	(1+(?___flmul)),w
  3431  0D4D  1683               	bsf	status, 5	;RP0=1, select bank1
  3432  0D4E  00A1               	movwf	(measure_inductance@numerator+1)^080h
  3433  0D4F  1283               	bcf	status, 5	;RP0=0, select bank0
  3434  0D50  083E               	movf	(0+(?___flmul)),w
  3435  0D51  1683               	bsf	status, 5	;RP0=1, select bank1
  3436  0D52  00A0               	movwf	(measure_inductance@numerator)^080h
  3437                           
  3438                           	line	178
  3439                           	
  3440  0D53                     l10208:	
  3441                           ;main.c: 178: denominator = 4 * 3.14159 * 3.14159 * F1 * F1 * F2 * F2 * F3 * F3 * 1000;
  3442  0D53  084D               	movf	(_F1+3)^080h,w
  3443  0D54  1283               	bcf	status, 5	;RP0=0, select bank0
  3444  0D55  00C1               	movwf	(?___flmul+3)
  3445  0D56  1683               	bsf	status, 5	;RP0=1, select bank1
  3446  0D57  084C               	movf	(_F1+2)^080h,w
  3447  0D58  1283               	bcf	status, 5	;RP0=0, select bank0
  3448  0D59  00C0               	movwf	(?___flmul+2)
  3449  0D5A  1683               	bsf	status, 5	;RP0=1, select bank1
  3450  0D5B  084B               	movf	(_F1+1)^080h,w
  3451  0D5C  1283               	bcf	status, 5	;RP0=0, select bank0
  3452  0D5D  00BF               	movwf	(?___flmul+1)
  3453  0D5E  1683               	bsf	status, 5	;RP0=1, select bank1
  3454  0D5F  084A               	movf	(_F1)^080h,w
  3455  0D60  1283               	bcf	status, 5	;RP0=0, select bank0
  3456  0D61  00BE               	movwf	(?___flmul)
  3457                           
  3458  0D62  1683               	bsf	status, 5	;RP0=1, select bank1
  3459  0D63  084D               	movf	(_F1+3)^080h,w
  3460  0D64  1283               	bcf	status, 5	;RP0=0, select bank0
  3461  0D65  00C5               	movwf	3+(?___flmul)+04h
  3462  0D66  1683               	bsf	status, 5	;RP0=1, select bank1
  3463  0D67  084C               	movf	(_F1+2)^080h,w
  3464  0D68  1283               	bcf	status, 5	;RP0=0, select bank0
  3465  0D69  00C4               	movwf	2+(?___flmul)+04h
  3466  0D6A  1683               	bsf	status, 5	;RP0=1, select bank1
  3467  0D6B  084B               	movf	(_F1+1)^080h,w
  3468  0D6C  1283               	bcf	status, 5	;RP0=0, select bank0
  3469  0D6D  00C3               	movwf	1+(?___flmul)+04h
  3470  0D6E  1683               	bsf	status, 5	;RP0=1, select bank1
  3471  0D6F  084A               	movf	(_F1)^080h,w
  3472  0D70  1283               	bcf	status, 5	;RP0=0, select bank0
  3473  0D71  00C2               	movwf	0+(?___flmul)+04h
  3474                           
  3475  0D72  120A  118A  2007   	fcall	___flmul
              120A  158A         
  3476  0D77  0841               	movf	(3+(?___flmul)),w
  3477  0D78  1683               	bsf	status, 5	;RP0=1, select bank1
  3478  0D79  00B7               	movwf	(_measure_inductance$8396+3)^080h
  3479  0D7A  1283               	bcf	status, 5	;RP0=0, select bank0
  3480  0D7B  0840               	movf	(2+(?___flmul)),w
  3481  0D7C  1683               	bsf	status, 5	;RP0=1, select bank1
  3482  0D7D  00B6               	movwf	(_measure_inductance$8396+2)^080h
  3483  0D7E  1283               	bcf	status, 5	;RP0=0, select bank0
  3484  0D7F  083F               	movf	(1+(?___flmul)),w
  3485  0D80  1683               	bsf	status, 5	;RP0=1, select bank1
  3486  0D81  00B5               	movwf	(_measure_inductance$8396+1)^080h
  3487  0D82  1283               	bcf	status, 5	;RP0=0, select bank0
  3488  0D83  083E               	movf	(0+(?___flmul)),w
  3489  0D84  1683               	bsf	status, 5	;RP0=1, select bank1
  3490  0D85  00B4               	movwf	(_measure_inductance$8396)^080h
  3491                           
  3492                           	
  3493  0D86                     l10210:	
  3494                           ;main.c: 178: denominator = 4 * 3.14159 * 3.14159 * F1 * F1 * F2 * F2 * F3 * F3 * 1000;
  3495  0D86  0845               	movf	(_F2+3)^080h,w
  3496  0D87  1283               	bcf	status, 5	;RP0=0, select bank0
  3497  0D88  00C1               	movwf	(?___flmul+3)
  3498  0D89  1683               	bsf	status, 5	;RP0=1, select bank1
  3499  0D8A  0844               	movf	(_F2+2)^080h,w
  3500  0D8B  1283               	bcf	status, 5	;RP0=0, select bank0
  3501  0D8C  00C0               	movwf	(?___flmul+2)
  3502  0D8D  1683               	bsf	status, 5	;RP0=1, select bank1
  3503  0D8E  0843               	movf	(_F2+1)^080h,w
  3504  0D8F  1283               	bcf	status, 5	;RP0=0, select bank0
  3505  0D90  00BF               	movwf	(?___flmul+1)
  3506  0D91  1683               	bsf	status, 5	;RP0=1, select bank1
  3507  0D92  0842               	movf	(_F2)^080h,w
  3508  0D93  1283               	bcf	status, 5	;RP0=0, select bank0
  3509  0D94  00BE               	movwf	(?___flmul)
  3510                           
  3511  0D95  1683               	bsf	status, 5	;RP0=1, select bank1
  3512  0D96  0837               	movf	(_measure_inductance$8396+3)^080h,w
  3513  0D97  1283               	bcf	status, 5	;RP0=0, select bank0
  3514  0D98  00C5               	movwf	3+(?___flmul)+04h
  3515  0D99  1683               	bsf	status, 5	;RP0=1, select bank1
  3516  0D9A  0836               	movf	(_measure_inductance$8396+2)^080h,w
  3517  0D9B  1283               	bcf	status, 5	;RP0=0, select bank0
  3518  0D9C  00C4               	movwf	2+(?___flmul)+04h
  3519  0D9D  1683               	bsf	status, 5	;RP0=1, select bank1
  3520  0D9E  0835               	movf	(_measure_inductance$8396+1)^080h,w
  3521  0D9F  1283               	bcf	status, 5	;RP0=0, select bank0
  3522  0DA0  00C3               	movwf	1+(?___flmul)+04h
  3523  0DA1  1683               	bsf	status, 5	;RP0=1, select bank1
  3524  0DA2  0834               	movf	(_measure_inductance$8396)^080h,w
  3525  0DA3  1283               	bcf	status, 5	;RP0=0, select bank0
  3526  0DA4  00C2               	movwf	0+(?___flmul)+04h
  3527                           
  3528  0DA5  120A  118A  2007   	fcall	___flmul
              120A  158A         
  3529  0DAA  0841               	movf	(3+(?___flmul)),w
  3530  0DAB  1683               	bsf	status, 5	;RP0=1, select bank1
  3531  0DAC  00BB               	movwf	(_measure_inductance$8397+3)^080h
  3532  0DAD  1283               	bcf	status, 5	;RP0=0, select bank0
  3533  0DAE  0840               	movf	(2+(?___flmul)),w
  3534  0DAF  1683               	bsf	status, 5	;RP0=1, select bank1
  3535  0DB0  00BA               	movwf	(_measure_inductance$8397+2)^080h
  3536  0DB1  1283               	bcf	status, 5	;RP0=0, select bank0
  3537  0DB2  083F               	movf	(1+(?___flmul)),w
  3538  0DB3  1683               	bsf	status, 5	;RP0=1, select bank1
  3539  0DB4  00B9               	movwf	(_measure_inductance$8397+1)^080h
  3540  0DB5  1283               	bcf	status, 5	;RP0=0, select bank0
  3541  0DB6  083E               	movf	(0+(?___flmul)),w
  3542  0DB7  1683               	bsf	status, 5	;RP0=1, select bank1
  3543  0DB8  00B8               	movwf	(_measure_inductance$8397)^080h
  3544                           
  3545                           	
  3546  0DB9                     l10212:	
  3547                           ;main.c: 178: denominator = 4 * 3.14159 * 3.14159 * F1 * F1 * F2 * F2 * F3 * F3 * 1000;
  3548  0DB9  0845               	movf	(_F2+3)^080h,w
  3549  0DBA  1283               	bcf	status, 5	;RP0=0, select bank0
  3550  0DBB  00C1               	movwf	(?___flmul+3)
  3551  0DBC  1683               	bsf	status, 5	;RP0=1, select bank1
  3552  0DBD  0844               	movf	(_F2+2)^080h,w
  3553  0DBE  1283               	bcf	status, 5	;RP0=0, select bank0
  3554  0DBF  00C0               	movwf	(?___flmul+2)
  3555  0DC0  1683               	bsf	status, 5	;RP0=1, select bank1
  3556  0DC1  0843               	movf	(_F2+1)^080h,w
  3557  0DC2  1283               	bcf	status, 5	;RP0=0, select bank0
  3558  0DC3  00BF               	movwf	(?___flmul+1)
  3559  0DC4  1683               	bsf	status, 5	;RP0=1, select bank1
  3560  0DC5  0842               	movf	(_F2)^080h,w
  3561  0DC6  1283               	bcf	status, 5	;RP0=0, select bank0
  3562  0DC7  00BE               	movwf	(?___flmul)
  3563                           
  3564  0DC8  1683               	bsf	status, 5	;RP0=1, select bank1
  3565  0DC9  083B               	movf	(_measure_inductance$8397+3)^080h,w
  3566  0DCA  1283               	bcf	status, 5	;RP0=0, select bank0
  3567  0DCB  00C5               	movwf	3+(?___flmul)+04h
  3568  0DCC  1683               	bsf	status, 5	;RP0=1, select bank1
  3569  0DCD  083A               	movf	(_measure_inductance$8397+2)^080h,w
  3570  0DCE  1283               	bcf	status, 5	;RP0=0, select bank0
  3571  0DCF  00C4               	movwf	2+(?___flmul)+04h
  3572  0DD0  1683               	bsf	status, 5	;RP0=1, select bank1
  3573  0DD1  0839               	movf	(_measure_inductance$8397+1)^080h,w
  3574  0DD2  1283               	bcf	status, 5	;RP0=0, select bank0
  3575  0DD3  00C3               	movwf	1+(?___flmul)+04h
  3576  0DD4  1683               	bsf	status, 5	;RP0=1, select bank1
  3577  0DD5  0838               	movf	(_measure_inductance$8397)^080h,w
  3578  0DD6  1283               	bcf	status, 5	;RP0=0, select bank0
  3579  0DD7  00C2               	movwf	0+(?___flmul)+04h
  3580                           
  3581  0DD8  120A  118A  2007   	fcall	___flmul
              120A  158A         
  3582  0DDD  0841               	movf	(3+(?___flmul)),w
  3583  0DDE  1683               	bsf	status, 5	;RP0=1, select bank1
  3584  0DDF  00AB               	movwf	(_measure_inductance$8398+3)^080h
  3585  0DE0  1283               	bcf	status, 5	;RP0=0, select bank0
  3586  0DE1  0840               	movf	(2+(?___flmul)),w
  3587  0DE2  1683               	bsf	status, 5	;RP0=1, select bank1
  3588  0DE3  00AA               	movwf	(_measure_inductance$8398+2)^080h
  3589  0DE4  1283               	bcf	status, 5	;RP0=0, select bank0
  3590  0DE5  083F               	movf	(1+(?___flmul)),w
  3591  0DE6  1683               	bsf	status, 5	;RP0=1, select bank1
  3592  0DE7  00A9               	movwf	(_measure_inductance$8398+1)^080h
  3593  0DE8  1283               	bcf	status, 5	;RP0=0, select bank0
  3594  0DE9  083E               	movf	(0+(?___flmul)),w
  3595  0DEA  1683               	bsf	status, 5	;RP0=1, select bank1
  3596  0DEB  00A8               	movwf	(_measure_inductance$8398)^080h
  3597                           
  3598                           	
  3599  0DEC                     l10214:	
  3600                           ;main.c: 178: denominator = 4 * 3.14159 * 3.14159 * F1 * F1 * F2 * F2 * F3 * F3 * 1000;
  3601  0DEC  0849               	movf	(_F3+3)^080h,w
  3602  0DED  1283               	bcf	status, 5	;RP0=0, select bank0
  3603  0DEE  00C1               	movwf	(?___flmul+3)
  3604  0DEF  1683               	bsf	status, 5	;RP0=1, select bank1
  3605  0DF0  0848               	movf	(_F3+2)^080h,w
  3606  0DF1  1283               	bcf	status, 5	;RP0=0, select bank0
  3607  0DF2  00C0               	movwf	(?___flmul+2)
  3608  0DF3  1683               	bsf	status, 5	;RP0=1, select bank1
  3609  0DF4  0847               	movf	(_F3+1)^080h,w
  3610  0DF5  1283               	bcf	status, 5	;RP0=0, select bank0
  3611  0DF6  00BF               	movwf	(?___flmul+1)
  3612  0DF7  1683               	bsf	status, 5	;RP0=1, select bank1
  3613  0DF8  0846               	movf	(_F3)^080h,w
  3614  0DF9  1283               	bcf	status, 5	;RP0=0, select bank0
  3615  0DFA  00BE               	movwf	(?___flmul)
  3616                           
  3617  0DFB  1683               	bsf	status, 5	;RP0=1, select bank1
  3618  0DFC  082B               	movf	(_measure_inductance$8398+3)^080h,w
  3619  0DFD  1283               	bcf	status, 5	;RP0=0, select bank0
  3620  0DFE  00C5               	movwf	3+(?___flmul)+04h
  3621  0DFF  1683               	bsf	status, 5	;RP0=1, select bank1
  3622  0E00  082A               	movf	(_measure_inductance$8398+2)^080h,w
  3623  0E01  1283               	bcf	status, 5	;RP0=0, select bank0
  3624  0E02  00C4               	movwf	2+(?___flmul)+04h
  3625  0E03  1683               	bsf	status, 5	;RP0=1, select bank1
  3626  0E04  0829               	movf	(_measure_inductance$8398+1)^080h,w
  3627  0E05  1283               	bcf	status, 5	;RP0=0, select bank0
  3628  0E06  00C3               	movwf	1+(?___flmul)+04h
  3629  0E07  1683               	bsf	status, 5	;RP0=1, select bank1
  3630  0E08  0828               	movf	(_measure_inductance$8398)^080h,w
  3631  0E09  1283               	bcf	status, 5	;RP0=0, select bank0
  3632  0E0A  00C2               	movwf	0+(?___flmul)+04h
  3633                           
  3634  0E0B  120A  118A  2007   	fcall	___flmul
              120A  158A         
  3635  0E10  0841               	movf	(3+(?___flmul)),w
  3636  0E11  1683               	bsf	status, 5	;RP0=1, select bank1
  3637  0E12  00AF               	movwf	(_measure_inductance$8399+3)^080h
  3638  0E13  1283               	bcf	status, 5	;RP0=0, select bank0
  3639  0E14  0840               	movf	(2+(?___flmul)),w
  3640  0E15  1683               	bsf	status, 5	;RP0=1, select bank1
  3641  0E16  00AE               	movwf	(_measure_inductance$8399+2)^080h
  3642  0E17  1283               	bcf	status, 5	;RP0=0, select bank0
  3643  0E18  083F               	movf	(1+(?___flmul)),w
  3644  0E19  1683               	bsf	status, 5	;RP0=1, select bank1
  3645  0E1A  00AD               	movwf	(_measure_inductance$8399+1)^080h
  3646  0E1B  1283               	bcf	status, 5	;RP0=0, select bank0
  3647  0E1C  083E               	movf	(0+(?___flmul)),w
  3648  0E1D  1683               	bsf	status, 5	;RP0=1, select bank1
  3649  0E1E  00AC               	movwf	(_measure_inductance$8399)^080h
  3650                           
  3651                           	
  3652  0E1F                     l10216:	
  3653                           ;main.c: 178: denominator = 4 * 3.14159 * 3.14159 * F1 * F1 * F2 * F2 * F3 * F3 * 1000;
  3654  0E1F  0849               	movf	(_F3+3)^080h,w
  3655  0E20  1283               	bcf	status, 5	;RP0=0, select bank0
  3656  0E21  00C1               	movwf	(?___flmul+3)
  3657  0E22  1683               	bsf	status, 5	;RP0=1, select bank1
  3658  0E23  0848               	movf	(_F3+2)^080h,w
  3659  0E24  1283               	bcf	status, 5	;RP0=0, select bank0
  3660  0E25  00C0               	movwf	(?___flmul+2)
  3661  0E26  1683               	bsf	status, 5	;RP0=1, select bank1
  3662  0E27  0847               	movf	(_F3+1)^080h,w
  3663  0E28  1283               	bcf	status, 5	;RP0=0, select bank0
  3664  0E29  00BF               	movwf	(?___flmul+1)
  3665  0E2A  1683               	bsf	status, 5	;RP0=1, select bank1
  3666  0E2B  0846               	movf	(_F3)^080h,w
  3667  0E2C  1283               	bcf	status, 5	;RP0=0, select bank0
  3668  0E2D  00BE               	movwf	(?___flmul)
  3669                           
  3670  0E2E  1683               	bsf	status, 5	;RP0=1, select bank1
  3671  0E2F  082F               	movf	(_measure_inductance$8399+3)^080h,w
  3672  0E30  1283               	bcf	status, 5	;RP0=0, select bank0
  3673  0E31  00C5               	movwf	3+(?___flmul)+04h
  3674  0E32  1683               	bsf	status, 5	;RP0=1, select bank1
  3675  0E33  082E               	movf	(_measure_inductance$8399+2)^080h,w
  3676  0E34  1283               	bcf	status, 5	;RP0=0, select bank0
  3677  0E35  00C4               	movwf	2+(?___flmul)+04h
  3678  0E36  1683               	bsf	status, 5	;RP0=1, select bank1
  3679  0E37  082D               	movf	(_measure_inductance$8399+1)^080h,w
  3680  0E38  1283               	bcf	status, 5	;RP0=0, select bank0
  3681  0E39  00C3               	movwf	1+(?___flmul)+04h
  3682  0E3A  1683               	bsf	status, 5	;RP0=1, select bank1
  3683  0E3B  082C               	movf	(_measure_inductance$8399)^080h,w
  3684  0E3C  1283               	bcf	status, 5	;RP0=0, select bank0
  3685  0E3D  00C2               	movwf	0+(?___flmul)+04h
  3686                           
  3687  0E3E  120A  118A  2007   	fcall	___flmul
              120A  158A         
  3688  0E43  0841               	movf	(3+(?___flmul)),w
  3689  0E44  1683               	bsf	status, 5	;RP0=1, select bank1
  3690  0E45  00B3               	movwf	(_measure_inductance$8400+3)^080h
  3691  0E46  1283               	bcf	status, 5	;RP0=0, select bank0
  3692  0E47  0840               	movf	(2+(?___flmul)),w
  3693  0E48  1683               	bsf	status, 5	;RP0=1, select bank1
  3694  0E49  00B2               	movwf	(_measure_inductance$8400+2)^080h
  3695  0E4A  1283               	bcf	status, 5	;RP0=0, select bank0
  3696  0E4B  083F               	movf	(1+(?___flmul)),w
  3697  0E4C  1683               	bsf	status, 5	;RP0=1, select bank1
  3698  0E4D  00B1               	movwf	(_measure_inductance$8400+1)^080h
  3699  0E4E  1283               	bcf	status, 5	;RP0=0, select bank0
  3700  0E4F  083E               	movf	(0+(?___flmul)),w
  3701  0E50  1683               	bsf	status, 5	;RP0=1, select bank1
  3702  0E51  00B0               	movwf	(_measure_inductance$8400)^080h
  3703                           
  3704                           	
  3705  0E52                     l10218:	
  3706                           ;main.c: 178: denominator = 4 * 3.14159 * 3.14159 * F1 * F1 * F2 * F2 * F3 * F3 * 1000;
  3707  0E52  3047               	movlw	0x47
  3708  0E53  1283               	bcf	status, 5	;RP0=0, select bank0
  3709  0E54  00C1               	movwf	(?___flmul+3)
  3710  0E55  301A               	movlw	0x1a
  3711  0E56  00C0               	movwf	(?___flmul+2)
  3712  0E57  3036               	movlw	0x36
  3713  0E58  00BF               	movwf	(?___flmul+1)
  3714  0E59  305A               	movlw	0x5a
  3715  0E5A  00BE               	movwf	(?___flmul)
  3716                           
  3717  0E5B  1683               	bsf	status, 5	;RP0=1, select bank1
  3718  0E5C  0833               	movf	(_measure_inductance$8400+3)^080h,w
  3719  0E5D  1283               	bcf	status, 5	;RP0=0, select bank0
  3720  0E5E  00C5               	movwf	3+(?___flmul)+04h
  3721  0E5F  1683               	bsf	status, 5	;RP0=1, select bank1
  3722  0E60  0832               	movf	(_measure_inductance$8400+2)^080h,w
  3723  0E61  1283               	bcf	status, 5	;RP0=0, select bank0
  3724  0E62  00C4               	movwf	2+(?___flmul)+04h
  3725  0E63  1683               	bsf	status, 5	;RP0=1, select bank1
  3726  0E64  0831               	movf	(_measure_inductance$8400+1)^080h,w
  3727  0E65  1283               	bcf	status, 5	;RP0=0, select bank0
  3728  0E66  00C3               	movwf	1+(?___flmul)+04h
  3729  0E67  1683               	bsf	status, 5	;RP0=1, select bank1
  3730  0E68  0830               	movf	(_measure_inductance$8400)^080h,w
  3731  0E69  1283               	bcf	status, 5	;RP0=0, select bank0
  3732  0E6A  00C2               	movwf	0+(?___flmul)+04h
  3733                           
  3734  0E6B  120A  118A  2007   	fcall	___flmul
              120A  158A         
  3735  0E70  0841               	movf	(3+(?___flmul)),w
  3736  0E71  1683               	bsf	status, 5	;RP0=1, select bank1
  3737  0E72  00A7               	movwf	(measure_inductance@denominator+3)^080h
  3738  0E73  1283               	bcf	status, 5	;RP0=0, select bank0
  3739  0E74  0840               	movf	(2+(?___flmul)),w
  3740  0E75  1683               	bsf	status, 5	;RP0=1, select bank1
  3741  0E76  00A6               	movwf	(measure_inductance@denominator+2)^080h
  3742  0E77  1283               	bcf	status, 5	;RP0=0, select bank0
  3743  0E78  083F               	movf	(1+(?___flmul)),w
  3744  0E79  1683               	bsf	status, 5	;RP0=1, select bank1
  3745  0E7A  00A5               	movwf	(measure_inductance@denominator+1)^080h
  3746  0E7B  1283               	bcf	status, 5	;RP0=0, select bank0
  3747  0E7C  083E               	movf	(0+(?___flmul)),w
  3748  0E7D  1683               	bsf	status, 5	;RP0=1, select bank1
  3749  0E7E  00A4               	movwf	(measure_inductance@denominator)^080h
  3750                           
  3751                           	line	179
  3752                           	
  3753  0E7F                     l10220:	
  3754                           ;main.c: 179: Lin = (numerator / denominator) * 1E15;
  3755  0E7F  3058               	movlw	0x58
  3756  0E80  1283               	bcf	status, 5	;RP0=0, select bank0
  3757  0E81  00C1               	movwf	(?___flmul+3)
  3758  0E82  3063               	movlw	0x63
  3759  0E83  00C0               	movwf	(?___flmul+2)
  3760  0E84  305F               	movlw	0x5f
  3761  0E85  00BF               	movwf	(?___flmul+1)
  3762  0E86  30A9               	movlw	0xa9
  3763  0E87  00BE               	movwf	(?___flmul)
  3764                           
  3765  0E88  1683               	bsf	status, 5	;RP0=1, select bank1
  3766  0E89  0827               	movf	(measure_inductance@denominator+3)^080h,w
  3767  0E8A  1283               	bcf	status, 5	;RP0=0, select bank0
  3768  0E8B  00AE               	movwf	(?___fldiv+3)
  3769  0E8C  1683               	bsf	status, 5	;RP0=1, select bank1
  3770  0E8D  0826               	movf	(measure_inductance@denominator+2)^080h,w
  3771  0E8E  1283               	bcf	status, 5	;RP0=0, select bank0
  3772  0E8F  00AD               	movwf	(?___fldiv+2)
  3773  0E90  1683               	bsf	status, 5	;RP0=1, select bank1
  3774  0E91  0825               	movf	(measure_inductance@denominator+1)^080h,w
  3775  0E92  1283               	bcf	status, 5	;RP0=0, select bank0
  3776  0E93  00AC               	movwf	(?___fldiv+1)
  3777  0E94  1683               	bsf	status, 5	;RP0=1, select bank1
  3778  0E95  0824               	movf	(measure_inductance@denominator)^080h,w
  3779  0E96  1283               	bcf	status, 5	;RP0=0, select bank0
  3780  0E97  00AB               	movwf	(?___fldiv)
  3781                           
  3782  0E98  1683               	bsf	status, 5	;RP0=1, select bank1
  3783  0E99  0823               	movf	(measure_inductance@numerator+3)^080h,w
  3784  0E9A  1283               	bcf	status, 5	;RP0=0, select bank0
  3785  0E9B  00B2               	movwf	3+(?___fldiv)+04h
  3786  0E9C  1683               	bsf	status, 5	;RP0=1, select bank1
  3787  0E9D  0822               	movf	(measure_inductance@numerator+2)^080h,w
  3788  0E9E  1283               	bcf	status, 5	;RP0=0, select bank0
  3789  0E9F  00B1               	movwf	2+(?___fldiv)+04h
  3790  0EA0  1683               	bsf	status, 5	;RP0=1, select bank1
  3791  0EA1  0821               	movf	(measure_inductance@numerator+1)^080h,w
  3792  0EA2  1283               	bcf	status, 5	;RP0=0, select bank0
  3793  0EA3  00B0               	movwf	1+(?___fldiv)+04h
  3794  0EA4  1683               	bsf	status, 5	;RP0=1, select bank1
  3795  0EA5  0820               	movf	(measure_inductance@numerator)^080h,w
  3796  0EA6  1283               	bcf	status, 5	;RP0=0, select bank0
  3797  0EA7  00AF               	movwf	0+(?___fldiv)+04h
  3798                           
  3799  0EA8  160A  118A  23DE   	fcall	___fldiv
              120A  158A         
  3800  0EAD  082E               	movf	(3+(?___fldiv)),w
  3801  0EAE  00C5               	movwf	3+(?___flmul)+04h
  3802  0EAF  082D               	movf	(2+(?___fldiv)),w
  3803  0EB0  00C4               	movwf	2+(?___flmul)+04h
  3804  0EB1  082C               	movf	(1+(?___fldiv)),w
  3805  0EB2  00C3               	movwf	1+(?___flmul)+04h
  3806  0EB3  082B               	movf	(0+(?___fldiv)),w
  3807  0EB4  00C2               	movwf	0+(?___flmul)+04h
  3808                           
  3809  0EB5  120A  118A  2007   	fcall	___flmul
              120A  158A         
  3810  0EBA  0841               	movf	(3+(?___flmul)),w
  3811  0EBB  1683               	bsf	status, 5	;RP0=1, select bank1
  3812  0EBC  00C1               	movwf	(measure_inductance@Lin+3)^080h
  3813  0EBD  1283               	bcf	status, 5	;RP0=0, select bank0
  3814  0EBE  0840               	movf	(2+(?___flmul)),w
  3815  0EBF  1683               	bsf	status, 5	;RP0=1, select bank1
  3816  0EC0  00C0               	movwf	(measure_inductance@Lin+2)^080h
  3817  0EC1  1283               	bcf	status, 5	;RP0=0, select bank0
  3818  0EC2  083F               	movf	(1+(?___flmul)),w
  3819  0EC3  1683               	bsf	status, 5	;RP0=1, select bank1
  3820  0EC4  00BF               	movwf	(measure_inductance@Lin+1)^080h
  3821  0EC5  1283               	bcf	status, 5	;RP0=0, select bank0
  3822  0EC6  083E               	movf	(0+(?___flmul)),w
  3823  0EC7  1683               	bsf	status, 5	;RP0=1, select bank1
  3824  0EC8  00BE               	movwf	(measure_inductance@Lin)^080h
  3825                           
  3826                           	line	180
  3827                           	
  3828  0EC9                     l10222:	
  3829                           ;main.c: 180: if(Lin > 999) {
  3830  0EC9  3044               	movlw	0x44
  3831  0ECA  00F3               	movwf	(?___flge+3)
  3832  0ECB  3079               	movlw	0x79
  3833  0ECC  00F2               	movwf	(?___flge+2)
  3834  0ECD  30C0               	movlw	0xc0
  3835  0ECE  00F1               	movwf	(?___flge+1)
  3836  0ECF  3000               	movlw	0x0
  3837  0ED0  00F0               	movwf	(?___flge)
  3838                           
  3839  0ED1  0841               	movf	(measure_inductance@Lin+3)^080h,w
  3840  0ED2  00F7               	movwf	3+(?___flge)+04h
  3841  0ED3  0840               	movf	(measure_inductance@Lin+2)^080h,w
  3842  0ED4  00F6               	movwf	2+(?___flge)+04h
  3843  0ED5  083F               	movf	(measure_inductance@Lin+1)^080h,w
  3844  0ED6  00F5               	movwf	1+(?___flge)+04h
  3845  0ED7  083E               	movf	(measure_inductance@Lin)^080h,w
  3846  0ED8  00F4               	movwf	0+(?___flge)+04h
  3847                           
  3848  0ED9  160A  118A  21FE   	fcall	___flge
              120A  158A         
  3849  0EDE  1803               	btfsc	status,0
  3850  0EDF  2EE1               	goto	u2021
  3851  0EE0  2EE2               	goto	u2020
  3852  0EE1                     u2021:
  3853  0EE1  2FB0               	goto	l10240
  3854  0EE2                     u2020:
  3855                           	line	181
  3856                           	
  3857  0EE2                     l10224:	
  3858                           ;main.c: 181: if(Lin > (999E3)) {
  3859  0EE2  3049               	movlw	0x49
  3860  0EE3  00F3               	movwf	(?___flge+3)
  3861  0EE4  3073               	movlw	0x73
  3862  0EE5  00F2               	movwf	(?___flge+2)
  3863  0EE6  30E5               	movlw	0xe5
  3864  0EE7  00F1               	movwf	(?___flge+1)
  3865  0EE8  3080               	movlw	0x80
  3866  0EE9  00F0               	movwf	(?___flge)
  3867                           
  3868  0EEA  0841               	movf	(measure_inductance@Lin+3)^080h,w
  3869  0EEB  00F7               	movwf	3+(?___flge)+04h
  3870  0EEC  0840               	movf	(measure_inductance@Lin+2)^080h,w
  3871  0EED  00F6               	movwf	2+(?___flge)+04h
  3872  0EEE  083F               	movf	(measure_inductance@Lin+1)^080h,w
  3873  0EEF  00F5               	movwf	1+(?___flge)+04h
  3874  0EF0  083E               	movf	(measure_inductance@Lin)^080h,w
  3875  0EF1  00F4               	movwf	0+(?___flge)+04h
  3876                           
  3877  0EF2  160A  118A  21FE   	fcall	___flge
              120A  158A         
  3878  0EF7  1803               	btfsc	status,0
  3879  0EF8  2EFA               	goto	u2031
  3880  0EF9  2EFB               	goto	u2030
  3881  0EFA                     u2031:
  3882  0EFA  2F7C               	goto	l10236
  3883  0EFB                     u2030:
  3884                           	line	182
  3885                           	
  3886  0EFB                     l10226:	
  3887                           ;main.c: 182: if(Lin > (999E6)) {
  3888  0EFB  304E               	movlw	0x4e
  3889  0EFC  00F3               	movwf	(?___flge+3)
  3890  0EFD  306E               	movlw	0x6e
  3891  0EFE  00F2               	movwf	(?___flge+2)
  3892  0EFF  302E               	movlw	0x2e
  3893  0F00  00F1               	movwf	(?___flge+1)
  3894  0F01  301F               	movlw	0x1f
  3895  0F02  00F0               	movwf	(?___flge)
  3896                           
  3897  0F03  0841               	movf	(measure_inductance@Lin+3)^080h,w
  3898  0F04  00F7               	movwf	3+(?___flge)+04h
  3899  0F05  0840               	movf	(measure_inductance@Lin+2)^080h,w
  3900  0F06  00F6               	movwf	2+(?___flge)+04h
  3901  0F07  083F               	movf	(measure_inductance@Lin+1)^080h,w
  3902  0F08  00F5               	movwf	1+(?___flge)+04h
  3903  0F09  083E               	movf	(measure_inductance@Lin)^080h,w
  3904  0F0A  00F4               	movwf	0+(?___flge)+04h
  3905                           
  3906  0F0B  160A  118A  21FE   	fcall	___flge
              120A  158A         
  3907  0F10  1803               	btfsc	status,0
  3908  0F11  2F13               	goto	u2041
  3909  0F12  2F14               	goto	u2040
  3910  0F13                     u2041:
  3911  0F13  2F48               	goto	l10232
  3912  0F14                     u2040:
  3913                           	line	183
  3914                           	
  3915  0F14                     l10228:	
  3916                           ;main.c: 183: Lin = Lin / (1E9);
  3917  0F14  304E               	movlw	0x4e
  3918  0F15  1283               	bcf	status, 5	;RP0=0, select bank0
  3919  0F16  00AE               	movwf	(?___fldiv+3)
  3920  0F17  306E               	movlw	0x6e
  3921  0F18  00AD               	movwf	(?___fldiv+2)
  3922  0F19  306B               	movlw	0x6b
  3923  0F1A  00AC               	movwf	(?___fldiv+1)
  3924  0F1B  3028               	movlw	0x28
  3925  0F1C  00AB               	movwf	(?___fldiv)
  3926                           
  3927  0F1D  1683               	bsf	status, 5	;RP0=1, select bank1
  3928  0F1E  0841               	movf	(measure_inductance@Lin+3)^080h,w
  3929  0F1F  1283               	bcf	status, 5	;RP0=0, select bank0
  3930  0F20  00B2               	movwf	3+(?___fldiv)+04h
  3931  0F21  1683               	bsf	status, 5	;RP0=1, select bank1
  3932  0F22  0840               	movf	(measure_inductance@Lin+2)^080h,w
  3933  0F23  1283               	bcf	status, 5	;RP0=0, select bank0
  3934  0F24  00B1               	movwf	2+(?___fldiv)+04h
  3935  0F25  1683               	bsf	status, 5	;RP0=1, select bank1
  3936  0F26  083F               	movf	(measure_inductance@Lin+1)^080h,w
  3937  0F27  1283               	bcf	status, 5	;RP0=0, select bank0
  3938  0F28  00B0               	movwf	1+(?___fldiv)+04h
  3939  0F29  1683               	bsf	status, 5	;RP0=1, select bank1
  3940  0F2A  083E               	movf	(measure_inductance@Lin)^080h,w
  3941  0F2B  1283               	bcf	status, 5	;RP0=0, select bank0
  3942  0F2C  00AF               	movwf	0+(?___fldiv)+04h
  3943                           
  3944  0F2D  160A  118A  23DE   	fcall	___fldiv
              120A  158A         
  3945  0F32  082E               	movf	(3+(?___fldiv)),w
  3946  0F33  1683               	bsf	status, 5	;RP0=1, select bank1
  3947  0F34  00C1               	movwf	(measure_inductance@Lin+3)^080h
  3948  0F35  1283               	bcf	status, 5	;RP0=0, select bank0
  3949  0F36  082D               	movf	(2+(?___fldiv)),w
  3950  0F37  1683               	bsf	status, 5	;RP0=1, select bank1
  3951  0F38  00C0               	movwf	(measure_inductance@Lin+2)^080h
  3952  0F39  1283               	bcf	status, 5	;RP0=0, select bank0
  3953  0F3A  082C               	movf	(1+(?___fldiv)),w
  3954  0F3B  1683               	bsf	status, 5	;RP0=1, select bank1
  3955  0F3C  00BF               	movwf	(measure_inductance@Lin+1)^080h
  3956  0F3D  1283               	bcf	status, 5	;RP0=0, select bank0
  3957  0F3E  082B               	movf	(0+(?___fldiv)),w
  3958  0F3F  1683               	bsf	status, 5	;RP0=1, select bank1
  3959  0F40  00BE               	movwf	(measure_inductance@Lin)^080h
  3960                           
  3961                           	line	184
  3962                           	
  3963  0F41                     l10230:	
  3964                           ;main.c: 184: display_unit(0);
  3965  0F41  3000               	movlw	(0)
  3966  0F42  160A  118A  22D4   	fcall	_display_unit
              120A  158A         
  3967                           	line	185
  3968                           ;main.c: 185: } else {
  3969  0F47  2FB6               	goto	l10242
  3970                           	line	186
  3971                           	
  3972  0F48                     l10232:	
  3973                           ;main.c: 186: Lin = Lin / (1E6);
  3974  0F48  3049               	movlw	0x49
  3975  0F49  1283               	bcf	status, 5	;RP0=0, select bank0
  3976  0F4A  00AE               	movwf	(?___fldiv+3)
  3977  0F4B  3074               	movlw	0x74
  3978  0F4C  00AD               	movwf	(?___fldiv+2)
  3979  0F4D  3024               	movlw	0x24
  3980  0F4E  00AC               	movwf	(?___fldiv+1)
  3981  0F4F  3000               	movlw	0x0
  3982  0F50  00AB               	movwf	(?___fldiv)
  3983                           
  3984  0F51  1683               	bsf	status, 5	;RP0=1, select bank1
  3985  0F52  0841               	movf	(measure_inductance@Lin+3)^080h,w
  3986  0F53  1283               	bcf	status, 5	;RP0=0, select bank0
  3987  0F54  00B2               	movwf	3+(?___fldiv)+04h
  3988  0F55  1683               	bsf	status, 5	;RP0=1, select bank1
  3989  0F56  0840               	movf	(measure_inductance@Lin+2)^080h,w
  3990  0F57  1283               	bcf	status, 5	;RP0=0, select bank0
  3991  0F58  00B1               	movwf	2+(?___fldiv)+04h
  3992  0F59  1683               	bsf	status, 5	;RP0=1, select bank1
  3993  0F5A  083F               	movf	(measure_inductance@Lin+1)^080h,w
  3994  0F5B  1283               	bcf	status, 5	;RP0=0, select bank0
  3995  0F5C  00B0               	movwf	1+(?___fldiv)+04h
  3996  0F5D  1683               	bsf	status, 5	;RP0=1, select bank1
  3997  0F5E  083E               	movf	(measure_inductance@Lin)^080h,w
  3998  0F5F  1283               	bcf	status, 5	;RP0=0, select bank0
  3999  0F60  00AF               	movwf	0+(?___fldiv)+04h
  4000                           
  4001  0F61  160A  118A  23DE   	fcall	___fldiv
              120A  158A         
  4002  0F66  082E               	movf	(3+(?___fldiv)),w
  4003  0F67  1683               	bsf	status, 5	;RP0=1, select bank1
  4004  0F68  00C1               	movwf	(measure_inductance@Lin+3)^080h
  4005  0F69  1283               	bcf	status, 5	;RP0=0, select bank0
  4006  0F6A  082D               	movf	(2+(?___fldiv)),w
  4007  0F6B  1683               	bsf	status, 5	;RP0=1, select bank1
  4008  0F6C  00C0               	movwf	(measure_inductance@Lin+2)^080h
  4009  0F6D  1283               	bcf	status, 5	;RP0=0, select bank0
  4010  0F6E  082C               	movf	(1+(?___fldiv)),w
  4011  0F6F  1683               	bsf	status, 5	;RP0=1, select bank1
  4012  0F70  00BF               	movwf	(measure_inductance@Lin+1)^080h
  4013  0F71  1283               	bcf	status, 5	;RP0=0, select bank0
  4014  0F72  082B               	movf	(0+(?___fldiv)),w
  4015  0F73  1683               	bsf	status, 5	;RP0=1, select bank1
  4016  0F74  00BE               	movwf	(measure_inductance@Lin)^080h
  4017                           
  4018                           	line	187
  4019                           	
  4020  0F75                     l10234:	
  4021                           ;main.c: 187: display_unit(1);
  4022  0F75  3001               	movlw	(01h)
  4023  0F76  160A  118A  22D4   	fcall	_display_unit
              120A  158A         
  4024  0F7B  2FB6               	goto	l10242
  4025                           	line	190
  4026                           	
  4027  0F7C                     l10236:	
  4028                           ;main.c: 190: Lin = Lin / 1E3;
  4029  0F7C  3044               	movlw	0x44
  4030  0F7D  1283               	bcf	status, 5	;RP0=0, select bank0
  4031  0F7E  00AE               	movwf	(?___fldiv+3)
  4032  0F7F  307A               	movlw	0x7a
  4033  0F80  00AD               	movwf	(?___fldiv+2)
  4034  0F81  3000               	movlw	0x0
  4035  0F82  00AC               	movwf	(?___fldiv+1)
  4036  0F83  3000               	movlw	0x0
  4037  0F84  00AB               	movwf	(?___fldiv)
  4038                           
  4039  0F85  1683               	bsf	status, 5	;RP0=1, select bank1
  4040  0F86  0841               	movf	(measure_inductance@Lin+3)^080h,w
  4041  0F87  1283               	bcf	status, 5	;RP0=0, select bank0
  4042  0F88  00B2               	movwf	3+(?___fldiv)+04h
  4043  0F89  1683               	bsf	status, 5	;RP0=1, select bank1
  4044  0F8A  0840               	movf	(measure_inductance@Lin+2)^080h,w
  4045  0F8B  1283               	bcf	status, 5	;RP0=0, select bank0
  4046  0F8C  00B1               	movwf	2+(?___fldiv)+04h
  4047  0F8D  1683               	bsf	status, 5	;RP0=1, select bank1
  4048  0F8E  083F               	movf	(measure_inductance@Lin+1)^080h,w
  4049  0F8F  1283               	bcf	status, 5	;RP0=0, select bank0
  4050  0F90  00B0               	movwf	1+(?___fldiv)+04h
  4051  0F91  1683               	bsf	status, 5	;RP0=1, select bank1
  4052  0F92  083E               	movf	(measure_inductance@Lin)^080h,w
  4053  0F93  1283               	bcf	status, 5	;RP0=0, select bank0
  4054  0F94  00AF               	movwf	0+(?___fldiv)+04h
  4055                           
  4056  0F95  160A  118A  23DE   	fcall	___fldiv
              120A  158A         
  4057  0F9A  082E               	movf	(3+(?___fldiv)),w
  4058  0F9B  1683               	bsf	status, 5	;RP0=1, select bank1
  4059  0F9C  00C1               	movwf	(measure_inductance@Lin+3)^080h
  4060  0F9D  1283               	bcf	status, 5	;RP0=0, select bank0
  4061  0F9E  082D               	movf	(2+(?___fldiv)),w
  4062  0F9F  1683               	bsf	status, 5	;RP0=1, select bank1
  4063  0FA0  00C0               	movwf	(measure_inductance@Lin+2)^080h
  4064  0FA1  1283               	bcf	status, 5	;RP0=0, select bank0
  4065  0FA2  082C               	movf	(1+(?___fldiv)),w
  4066  0FA3  1683               	bsf	status, 5	;RP0=1, select bank1
  4067  0FA4  00BF               	movwf	(measure_inductance@Lin+1)^080h
  4068  0FA5  1283               	bcf	status, 5	;RP0=0, select bank0
  4069  0FA6  082B               	movf	(0+(?___fldiv)),w
  4070  0FA7  1683               	bsf	status, 5	;RP0=1, select bank1
  4071  0FA8  00BE               	movwf	(measure_inductance@Lin)^080h
  4072                           
  4073                           	line	191
  4074                           	
  4075  0FA9                     l10238:	
  4076                           ;main.c: 191: display_unit(2);
  4077  0FA9  3002               	movlw	(02h)
  4078  0FAA  160A  118A  22D4   	fcall	_display_unit
              120A  158A         
  4079  0FAF  2FB6               	goto	l10242
  4080                           	line	194
  4081                           	
  4082  0FB0                     l10240:	
  4083                           ;main.c: 194: display_unit(3);
  4084  0FB0  3003               	movlw	(03h)
  4085  0FB1  160A  118A  22D4   	fcall	_display_unit
              120A  158A         
  4086                           	line	195
  4087                           	
  4088  0FB6                     l10242:	
  4089                           ;main.c: 195: Lin = Lin * 100;
  4090  0FB6  3042               	movlw	0x42
  4091  0FB7  00C1               	movwf	(?___flmul+3)
  4092  0FB8  30C8               	movlw	0xc8
  4093  0FB9  00C0               	movwf	(?___flmul+2)
  4094  0FBA  3000               	movlw	0x0
  4095  0FBB  00BF               	movwf	(?___flmul+1)
  4096  0FBC  3000               	movlw	0x0
  4097  0FBD  00BE               	movwf	(?___flmul)
  4098                           
  4099  0FBE  1683               	bsf	status, 5	;RP0=1, select bank1
  4100  0FBF  0841               	movf	(measure_inductance@Lin+3)^080h,w
  4101  0FC0  1283               	bcf	status, 5	;RP0=0, select bank0
  4102  0FC1  00C5               	movwf	3+(?___flmul)+04h
  4103  0FC2  1683               	bsf	status, 5	;RP0=1, select bank1
  4104  0FC3  0840               	movf	(measure_inductance@Lin+2)^080h,w
  4105  0FC4  1283               	bcf	status, 5	;RP0=0, select bank0
  4106  0FC5  00C4               	movwf	2+(?___flmul)+04h
  4107  0FC6  1683               	bsf	status, 5	;RP0=1, select bank1
  4108  0FC7  083F               	movf	(measure_inductance@Lin+1)^080h,w
  4109  0FC8  1283               	bcf	status, 5	;RP0=0, select bank0
  4110  0FC9  00C3               	movwf	1+(?___flmul)+04h
  4111  0FCA  1683               	bsf	status, 5	;RP0=1, select bank1
  4112  0FCB  083E               	movf	(measure_inductance@Lin)^080h,w
  4113  0FCC  1283               	bcf	status, 5	;RP0=0, select bank0
  4114  0FCD  00C2               	movwf	0+(?___flmul)+04h
  4115                           
  4116  0FCE  120A  118A  2007   	fcall	___flmul
              120A  158A         
  4117  0FD3  0841               	movf	(3+(?___flmul)),w
  4118  0FD4  1683               	bsf	status, 5	;RP0=1, select bank1
  4119  0FD5  00C1               	movwf	(measure_inductance@Lin+3)^080h
  4120  0FD6  1283               	bcf	status, 5	;RP0=0, select bank0
  4121  0FD7  0840               	movf	(2+(?___flmul)),w
  4122  0FD8  1683               	bsf	status, 5	;RP0=1, select bank1
  4123  0FD9  00C0               	movwf	(measure_inductance@Lin+2)^080h
  4124  0FDA  1283               	bcf	status, 5	;RP0=0, select bank0
  4125  0FDB  083F               	movf	(1+(?___flmul)),w
  4126  0FDC  1683               	bsf	status, 5	;RP0=1, select bank1
  4127  0FDD  00BF               	movwf	(measure_inductance@Lin+1)^080h
  4128  0FDE  1283               	bcf	status, 5	;RP0=0, select bank0
  4129  0FDF  083E               	movf	(0+(?___flmul)),w
  4130  0FE0  1683               	bsf	status, 5	;RP0=1, select bank1
  4131  0FE1  00BE               	movwf	(measure_inductance@Lin)^080h
  4132                           
  4133                           	line	196
  4134                           	
  4135  0FE2                     l10244:	
  4136                           ;main.c: 196: var = (unsigned int)Lin;
  4137  0FE2  0841               	movf	(measure_inductance@Lin+3)^080h,w
  4138  0FE3  00F3               	movwf	(?___fltol+3)
  4139  0FE4  0840               	movf	(measure_inductance@Lin+2)^080h,w
  4140  0FE5  00F2               	movwf	(?___fltol+2)
  4141  0FE6  083F               	movf	(measure_inductance@Lin+1)^080h,w
  4142  0FE7  00F1               	movwf	(?___fltol+1)
  4143  0FE8  083E               	movf	(measure_inductance@Lin)^080h,w
  4144  0FE9  00F0               	movwf	(?___fltol)
  4145                           
  4146  0FEA  160A  118A  2268   	fcall	___fltol
              120A  158A         
  4147  0FEF  0871               	movf	1+(((0+(?___fltol)))),w
  4148  0FF0  00BD               	movwf	(measure_inductance@var+1)^080h
  4149  0FF1  0870               	movf	0+(((0+(?___fltol)))),w
  4150  0FF2  00BC               	movwf	(measure_inductance@var)^080h
  4151                           	line	197
  4152                           ;main.c: 197: display_reading(var);
  4153  0FF3  083D               	movf	(measure_inductance@var+1)^080h,w
  4154  0FF4  1283               	bcf	status, 5	;RP0=0, select bank0
  4155  0FF5  00A5               	movwf	(?_display_reading+1)
  4156  0FF6  1683               	bsf	status, 5	;RP0=1, select bank1
  4157  0FF7  083C               	movf	(measure_inductance@var)^080h,w
  4158  0FF8  1283               	bcf	status, 5	;RP0=0, select bank0
  4159  0FF9  00A4               	movwf	(?_display_reading)
  4160  0FFA  160A  118A  25BF   	fcall	_display_reading
              120A  158A         
  4161                           	line	198
  4162                           	
  4163  0FFF                     l1464:	
  4164  0FFF  0008               	return
  4165                           	opt stack 0
  4166                           GLOBAL	__end_of_measure_inductance
  4167  1000                     	__end_of_measure_inductance:
  4168 ;; =============== function _measure_inductance ends ============
  4169                           
  4170                           	signat	_measure_inductance,88
  4171                           	global	_measure_capacitance
  4172                           psect	text570,local,class=CODE,delta=2
  4173                           global __ptext570
  4174  0880                     __ptext570:
  4175                           
  4176 ;; *************** function _measure_capacitance *****************
  4177 ;; Defined at:
  4178 ;;		line 138 in file "C:\Users\vboxuser\Desktop\lc-meter\src\julznc\main.c"
  4179 ;; Parameters:    Size  Location     Type
  4180 ;;		None
  4181 ;; Auto vars:     Size  Location     Type
  4182 ;;  Cin             4   22[BANK1 ] unsigned int 
  4183 ;;  var             2   20[BANK1 ] unsigned int 
  4184 ;; Return value:  Size  Location     Type
  4185 ;;		None               void
  4186 ;; Registers used:
  4187 ;;		wreg, fsr0l, fsr0h, status,2, status,0, btemp+1, pclath, cstack
  4188 ;; Tracked objects:
  4189 ;;		On entry : 60/0
  4190 ;;		On exit  : 60/0
  4191 ;;		Unchanged: 0/0
  4192 ;; Data sizes:     COMMON   BANK0   BANK1   BANK3   BANK2
  4193 ;;      Params:         0       0       0       0       0
  4194 ;;      Locals:         0       0      26       0       0
  4195 ;;      Temps:          0       0       0       0       0
  4196 ;;      Totals:         0       0      26       0       0
  4197 ;;Total ram usage:       26 bytes
  4198 ;; Hardware stack levels used:    1
  4199 ;; Hardware stack levels required when called:    4
  4200 ;; This function calls:
  4201 ;;		_lcd_gotoxy
  4202 ;;		_lcd_puts
  4203 ;;		_measure_freq
  4204 ;;		___lwtofl
  4205 ;;		___flge
  4206 ;;		___flmul
  4207 ;;		___flsub
  4208 ;;		___fldiv
  4209 ;;		_display_unit
  4210 ;;		___fltol
  4211 ;;		_display_reading
  4212 ;; This function is called by:
  4213 ;;		_main
  4214 ;; This function uses a non-reentrant model
  4215 ;;
  4216                           psect	text570
  4217                           	file	"C:\Users\vboxuser\Desktop\lc-meter\src\julznc\main.c"
  4218                           	line	138
  4219                           	global	__size_of_measure_capacitance
  4220  035F                     	__size_of_measure_capacitance	equ	__end_of_measure_capacitance-_measure_capacitance
  4221                           	
  4222  0880                     _measure_capacitance:	
  4223                           	opt	stack 3
  4224                           ; Regs used in _measure_capacitance: [wreg-fsr0h+status,2+status,0+btemp+1+pclath+cstack
                                 ]
  4225                           	line	141
  4226                           	
  4227  0880                     l10142:	
  4228                           ;main.c: 139: unsigned int var;
  4229                           ;main.c: 140: double Cin;
  4230                           ;main.c: 141: lcd_gotoxy(7, 5);
  4231  0880  3005               	movlw	05h
  4232  0881  00F8               	movwf	(?_lcd_gotoxy)
  4233  0882  01F9               	clrf	(?_lcd_gotoxy+1)
  4234  0883  3007               	movlw	(07h)
  4235  0884  120A  118A  20ED   	fcall	_lcd_gotoxy
              120A  158A         
  4236                           	line	142
  4237                           	
  4238  0889                     l10144:	
  4239                           ;main.c: 142: lcd_puts(" capacitance");
  4240  0889  3005               	movlw	low(STR_8|8000h)
  4241  088A  00F9               	movwf	(?_lcd_puts)
  4242  088B  3087               	movlw	high(STR_8|8000h)
  4243  088C  00FA               	movwf	((?_lcd_puts))+1
  4244  088D  160A  118A  201E   	fcall	_lcd_puts
              120A  158A         
  4245                           	line	143
  4246                           	
  4247  0892                     l10146:	
  4248                           ;main.c: 143: var = measure_freq();
  4249  0892  160A  118A  20FC   	fcall	_measure_freq
              120A  158A         
  4250  0897  0821               	movf	(1+(?_measure_freq)),w
  4251  0898  1683               	bsf	status, 5	;RP0=1, select bank1
  4252  0899  00B5               	movwf	(measure_capacitance@var+1)^080h
  4253  089A  1283               	bcf	status, 5	;RP0=0, select bank0
  4254  089B  0820               	movf	(0+(?_measure_freq)),w
  4255  089C  1683               	bsf	status, 5	;RP0=1, select bank1
  4256  089D  00B4               	movwf	(measure_capacitance@var)^080h
  4257                           	line	144
  4258                           	
  4259  089E                     l10148:	
  4260                           ;main.c: 144: F3 = (double)var;
  4261  089E  0835               	movf	(measure_capacitance@var+1)^080h,w
  4262  089F  00FB               	movwf	(?___lwtofl+1)
  4263  08A0  0834               	movf	(measure_capacitance@var)^080h,w
  4264  08A1  00FA               	movwf	(?___lwtofl)
  4265  08A2  160A  158A  27AA   	fcall	___lwtofl
              120A  158A         
  4266  08A7  087D               	movf	(3+(?___lwtofl)),w
  4267  08A8  00C9               	movwf	(_F3+3)^080h
  4268  08A9  087C               	movf	(2+(?___lwtofl)),w
  4269  08AA  00C8               	movwf	(_F3+2)^080h
  4270  08AB  087B               	movf	(1+(?___lwtofl)),w
  4271  08AC  00C7               	movwf	(_F3+1)^080h
  4272  08AD  087A               	movf	(0+(?___lwtofl)),w
  4273  08AE  00C6               	movwf	(_F3)^080h
  4274                           
  4275                           	line	145
  4276                           	
  4277  08AF                     l10150:	
  4278                           ;main.c: 145: if(F3 > F1)
  4279  08AF  084D               	movf	(_F1+3)^080h,w
  4280  08B0  00F3               	movwf	(?___flge+3)
  4281  08B1  084C               	movf	(_F1+2)^080h,w
  4282  08B2  00F2               	movwf	(?___flge+2)
  4283  08B3  084B               	movf	(_F1+1)^080h,w
  4284  08B4  00F1               	movwf	(?___flge+1)
  4285  08B5  084A               	movf	(_F1)^080h,w
  4286  08B6  00F0               	movwf	(?___flge)
  4287                           
  4288  08B7  0849               	movf	(_F3+3)^080h,w
  4289  08B8  00F7               	movwf	3+(?___flge)+04h
  4290  08B9  0848               	movf	(_F3+2)^080h,w
  4291  08BA  00F6               	movwf	2+(?___flge)+04h
  4292  08BB  0847               	movf	(_F3+1)^080h,w
  4293  08BC  00F5               	movwf	1+(?___flge)+04h
  4294  08BD  0846               	movf	(_F3)^080h,w
  4295  08BE  00F4               	movwf	0+(?___flge)+04h
  4296                           
  4297  08BF  160A  118A  21FE   	fcall	___flge
              120A  158A         
  4298  08C4  1803               	btfsc	status,0
  4299  08C5  28C7               	goto	u1971
  4300  08C6  28C8               	goto	u1970
  4301  08C7                     u1971:
  4302  08C7  28D0               	goto	l10154
  4303  08C8                     u1970:
  4304                           	line	146
  4305                           	
  4306  08C8                     l10152:	
  4307                           ;main.c: 146: F3 = F1;
  4308  08C8  084D               	movf	(_F1+3)^080h,w
  4309  08C9  00C9               	movwf	(_F3+3)^080h
  4310  08CA  084C               	movf	(_F1+2)^080h,w
  4311  08CB  00C8               	movwf	(_F3+2)^080h
  4312  08CC  084B               	movf	(_F1+1)^080h,w
  4313  08CD  00C7               	movwf	(_F3+1)^080h
  4314  08CE  084A               	movf	(_F1)^080h,w
  4315  08CF  00C6               	movwf	(_F3)^080h
  4316                           
  4317                           	line	147
  4318                           	
  4319  08D0                     l10154:	
  4320                           ;main.c: 147: Cin = F2 * F2 * (F1 * F1 - F3 * F3) * 1000 / (F3 * F3 * (F1 * F1 - F2 * F2
                                 ));
  4321  08D0  0845               	movf	(_F2+3)^080h,w
  4322  08D1  1283               	bcf	status, 5	;RP0=0, select bank0
  4323  08D2  00C1               	movwf	(?___flmul+3)
  4324  08D3  1683               	bsf	status, 5	;RP0=1, select bank1
  4325  08D4  0844               	movf	(_F2+2)^080h,w
  4326  08D5  1283               	bcf	status, 5	;RP0=0, select bank0
  4327  08D6  00C0               	movwf	(?___flmul+2)
  4328  08D7  1683               	bsf	status, 5	;RP0=1, select bank1
  4329  08D8  0843               	movf	(_F2+1)^080h,w
  4330  08D9  1283               	bcf	status, 5	;RP0=0, select bank0
  4331  08DA  00BF               	movwf	(?___flmul+1)
  4332  08DB  1683               	bsf	status, 5	;RP0=1, select bank1
  4333  08DC  0842               	movf	(_F2)^080h,w
  4334  08DD  1283               	bcf	status, 5	;RP0=0, select bank0
  4335  08DE  00BE               	movwf	(?___flmul)
  4336                           
  4337  08DF  1683               	bsf	status, 5	;RP0=1, select bank1
  4338  08E0  0845               	movf	(_F2+3)^080h,w
  4339  08E1  1283               	bcf	status, 5	;RP0=0, select bank0
  4340  08E2  00C5               	movwf	3+(?___flmul)+04h
  4341  08E3  1683               	bsf	status, 5	;RP0=1, select bank1
  4342  08E4  0844               	movf	(_F2+2)^080h,w
  4343  08E5  1283               	bcf	status, 5	;RP0=0, select bank0
  4344  08E6  00C4               	movwf	2+(?___flmul)+04h
  4345  08E7  1683               	bsf	status, 5	;RP0=1, select bank1
  4346  08E8  0843               	movf	(_F2+1)^080h,w
  4347  08E9  1283               	bcf	status, 5	;RP0=0, select bank0
  4348  08EA  00C3               	movwf	1+(?___flmul)+04h
  4349  08EB  1683               	bsf	status, 5	;RP0=1, select bank1
  4350  08EC  0842               	movf	(_F2)^080h,w
  4351  08ED  1283               	bcf	status, 5	;RP0=0, select bank0
  4352  08EE  00C2               	movwf	0+(?___flmul)+04h
  4353                           
  4354  08EF  120A  118A  2007   	fcall	___flmul
              120A  158A         
  4355  08F4  0841               	movf	(3+(?___flmul)),w
  4356  08F5  00D4               	movwf	(?___flsub+3)
  4357  08F6  0840               	movf	(2+(?___flmul)),w
  4358  08F7  00D3               	movwf	(?___flsub+2)
  4359  08F8  083F               	movf	(1+(?___flmul)),w
  4360  08F9  00D2               	movwf	(?___flsub+1)
  4361  08FA  083E               	movf	(0+(?___flmul)),w
  4362  08FB  00D1               	movwf	(?___flsub)
  4363                           
  4364  08FC  1683               	bsf	status, 5	;RP0=1, select bank1
  4365  08FD  084D               	movf	(_F1+3)^080h,w
  4366  08FE  1283               	bcf	status, 5	;RP0=0, select bank0
  4367  08FF  00C1               	movwf	(?___flmul+3)
  4368  0900  1683               	bsf	status, 5	;RP0=1, select bank1
  4369  0901  084C               	movf	(_F1+2)^080h,w
  4370  0902  1283               	bcf	status, 5	;RP0=0, select bank0
  4371  0903  00C0               	movwf	(?___flmul+2)
  4372  0904  1683               	bsf	status, 5	;RP0=1, select bank1
  4373  0905  084B               	movf	(_F1+1)^080h,w
  4374  0906  1283               	bcf	status, 5	;RP0=0, select bank0
  4375  0907  00BF               	movwf	(?___flmul+1)
  4376  0908  1683               	bsf	status, 5	;RP0=1, select bank1
  4377  0909  084A               	movf	(_F1)^080h,w
  4378  090A  1283               	bcf	status, 5	;RP0=0, select bank0
  4379  090B  00BE               	movwf	(?___flmul)
  4380                           
  4381  090C  1683               	bsf	status, 5	;RP0=1, select bank1
  4382  090D  084D               	movf	(_F1+3)^080h,w
  4383  090E  1283               	bcf	status, 5	;RP0=0, select bank0
  4384  090F  00C5               	movwf	3+(?___flmul)+04h
  4385  0910  1683               	bsf	status, 5	;RP0=1, select bank1
  4386  0911  084C               	movf	(_F1+2)^080h,w
  4387  0912  1283               	bcf	status, 5	;RP0=0, select bank0
  4388  0913  00C4               	movwf	2+(?___flmul)+04h
  4389  0914  1683               	bsf	status, 5	;RP0=1, select bank1
  4390  0915  084B               	movf	(_F1+1)^080h,w
  4391  0916  1283               	bcf	status, 5	;RP0=0, select bank0
  4392  0917  00C3               	movwf	1+(?___flmul)+04h
  4393  0918  1683               	bsf	status, 5	;RP0=1, select bank1
  4394  0919  084A               	movf	(_F1)^080h,w
  4395  091A  1283               	bcf	status, 5	;RP0=0, select bank0
  4396  091B  00C2               	movwf	0+(?___flmul)+04h
  4397                           
  4398  091C  120A  118A  2007   	fcall	___flmul
              120A  158A         
  4399  0921  0841               	movf	(3+(?___flmul)),w
  4400  0922  00D8               	movwf	3+(?___flsub)+04h
  4401  0923  0840               	movf	(2+(?___flmul)),w
  4402  0924  00D7               	movwf	2+(?___flsub)+04h
  4403  0925  083F               	movf	(1+(?___flmul)),w
  4404  0926  00D6               	movwf	1+(?___flsub)+04h
  4405  0927  083E               	movf	(0+(?___flmul)),w
  4406  0928  00D5               	movwf	0+(?___flsub)+04h
  4407                           
  4408  0929  160A  158A  27E0   	fcall	___flsub
              120A  158A         
  4409  092E  0854               	movf	(3+(?___flsub)),w
  4410  092F  1683               	bsf	status, 5	;RP0=1, select bank1
  4411  0930  00A3               	movwf	(_measure_capacitance$8391+3)^080h
  4412  0931  1283               	bcf	status, 5	;RP0=0, select bank0
  4413  0932  0853               	movf	(2+(?___flsub)),w
  4414  0933  1683               	bsf	status, 5	;RP0=1, select bank1
  4415  0934  00A2               	movwf	(_measure_capacitance$8391+2)^080h
  4416  0935  1283               	bcf	status, 5	;RP0=0, select bank0
  4417  0936  0852               	movf	(1+(?___flsub)),w
  4418  0937  1683               	bsf	status, 5	;RP0=1, select bank1
  4419  0938  00A1               	movwf	(_measure_capacitance$8391+1)^080h
  4420  0939  1283               	bcf	status, 5	;RP0=0, select bank0
  4421  093A  0851               	movf	(0+(?___flsub)),w
  4422  093B  1683               	bsf	status, 5	;RP0=1, select bank1
  4423  093C  00A0               	movwf	(_measure_capacitance$8391)^080h
  4424                           
  4425                           	
  4426  093D                     l10156:	
  4427                           ;main.c: 147: Cin = F2 * F2 * (F1 * F1 - F3 * F3) * 1000 / (F3 * F3 * (F1 * F1 - F2 * F2
                                 ));
  4428  093D  0849               	movf	(_F3+3)^080h,w
  4429  093E  1283               	bcf	status, 5	;RP0=0, select bank0
  4430  093F  00C1               	movwf	(?___flmul+3)
  4431  0940  1683               	bsf	status, 5	;RP0=1, select bank1
  4432  0941  0848               	movf	(_F3+2)^080h,w
  4433  0942  1283               	bcf	status, 5	;RP0=0, select bank0
  4434  0943  00C0               	movwf	(?___flmul+2)
  4435  0944  1683               	bsf	status, 5	;RP0=1, select bank1
  4436  0945  0847               	movf	(_F3+1)^080h,w
  4437  0946  1283               	bcf	status, 5	;RP0=0, select bank0
  4438  0947  00BF               	movwf	(?___flmul+1)
  4439  0948  1683               	bsf	status, 5	;RP0=1, select bank1
  4440  0949  0846               	movf	(_F3)^080h,w
  4441  094A  1283               	bcf	status, 5	;RP0=0, select bank0
  4442  094B  00BE               	movwf	(?___flmul)
  4443                           
  4444  094C  1683               	bsf	status, 5	;RP0=1, select bank1
  4445  094D  0823               	movf	(_measure_capacitance$8391+3)^080h,w
  4446  094E  1283               	bcf	status, 5	;RP0=0, select bank0
  4447  094F  00C5               	movwf	3+(?___flmul)+04h
  4448  0950  1683               	bsf	status, 5	;RP0=1, select bank1
  4449  0951  0822               	movf	(_measure_capacitance$8391+2)^080h,w
  4450  0952  1283               	bcf	status, 5	;RP0=0, select bank0
  4451  0953  00C4               	movwf	2+(?___flmul)+04h
  4452  0954  1683               	bsf	status, 5	;RP0=1, select bank1
  4453  0955  0821               	movf	(_measure_capacitance$8391+1)^080h,w
  4454  0956  1283               	bcf	status, 5	;RP0=0, select bank0
  4455  0957  00C3               	movwf	1+(?___flmul)+04h
  4456  0958  1683               	bsf	status, 5	;RP0=1, select bank1
  4457  0959  0820               	movf	(_measure_capacitance$8391)^080h,w
  4458  095A  1283               	bcf	status, 5	;RP0=0, select bank0
  4459  095B  00C2               	movwf	0+(?___flmul)+04h
  4460                           
  4461  095C  120A  118A  2007   	fcall	___flmul
              120A  158A         
  4462  0961  0841               	movf	(3+(?___flmul)),w
  4463  0962  1683               	bsf	status, 5	;RP0=1, select bank1
  4464  0963  00A7               	movwf	(_measure_capacitance$8392+3)^080h
  4465  0964  1283               	bcf	status, 5	;RP0=0, select bank0
  4466  0965  0840               	movf	(2+(?___flmul)),w
  4467  0966  1683               	bsf	status, 5	;RP0=1, select bank1
  4468  0967  00A6               	movwf	(_measure_capacitance$8392+2)^080h
  4469  0968  1283               	bcf	status, 5	;RP0=0, select bank0
  4470  0969  083F               	movf	(1+(?___flmul)),w
  4471  096A  1683               	bsf	status, 5	;RP0=1, select bank1
  4472  096B  00A5               	movwf	(_measure_capacitance$8392+1)^080h
  4473  096C  1283               	bcf	status, 5	;RP0=0, select bank0
  4474  096D  083E               	movf	(0+(?___flmul)),w
  4475  096E  1683               	bsf	status, 5	;RP0=1, select bank1
  4476  096F  00A4               	movwf	(_measure_capacitance$8392)^080h
  4477                           
  4478                           	
  4479  0970                     l10158:	
  4480                           ;main.c: 147: Cin = F2 * F2 * (F1 * F1 - F3 * F3) * 1000 / (F3 * F3 * (F1 * F1 - F2 * F2
                                 ));
  4481  0970  0849               	movf	(_F3+3)^080h,w
  4482  0971  1283               	bcf	status, 5	;RP0=0, select bank0
  4483  0972  00C1               	movwf	(?___flmul+3)
  4484  0973  1683               	bsf	status, 5	;RP0=1, select bank1
  4485  0974  0848               	movf	(_F3+2)^080h,w
  4486  0975  1283               	bcf	status, 5	;RP0=0, select bank0
  4487  0976  00C0               	movwf	(?___flmul+2)
  4488  0977  1683               	bsf	status, 5	;RP0=1, select bank1
  4489  0978  0847               	movf	(_F3+1)^080h,w
  4490  0979  1283               	bcf	status, 5	;RP0=0, select bank0
  4491  097A  00BF               	movwf	(?___flmul+1)
  4492  097B  1683               	bsf	status, 5	;RP0=1, select bank1
  4493  097C  0846               	movf	(_F3)^080h,w
  4494  097D  1283               	bcf	status, 5	;RP0=0, select bank0
  4495  097E  00BE               	movwf	(?___flmul)
  4496                           
  4497  097F  1683               	bsf	status, 5	;RP0=1, select bank1
  4498  0980  0849               	movf	(_F3+3)^080h,w
  4499  0981  1283               	bcf	status, 5	;RP0=0, select bank0
  4500  0982  00C5               	movwf	3+(?___flmul)+04h
  4501  0983  1683               	bsf	status, 5	;RP0=1, select bank1
  4502  0984  0848               	movf	(_F3+2)^080h,w
  4503  0985  1283               	bcf	status, 5	;RP0=0, select bank0
  4504  0986  00C4               	movwf	2+(?___flmul)+04h
  4505  0987  1683               	bsf	status, 5	;RP0=1, select bank1
  4506  0988  0847               	movf	(_F3+1)^080h,w
  4507  0989  1283               	bcf	status, 5	;RP0=0, select bank0
  4508  098A  00C3               	movwf	1+(?___flmul)+04h
  4509  098B  1683               	bsf	status, 5	;RP0=1, select bank1
  4510  098C  0846               	movf	(_F3)^080h,w
  4511  098D  1283               	bcf	status, 5	;RP0=0, select bank0
  4512  098E  00C2               	movwf	0+(?___flmul)+04h
  4513                           
  4514  098F  120A  118A  2007   	fcall	___flmul
              120A  158A         
  4515  0994  0841               	movf	(3+(?___flmul)),w
  4516  0995  00D4               	movwf	(?___flsub+3)
  4517  0996  0840               	movf	(2+(?___flmul)),w
  4518  0997  00D3               	movwf	(?___flsub+2)
  4519  0998  083F               	movf	(1+(?___flmul)),w
  4520  0999  00D2               	movwf	(?___flsub+1)
  4521  099A  083E               	movf	(0+(?___flmul)),w
  4522  099B  00D1               	movwf	(?___flsub)
  4523                           
  4524  099C  1683               	bsf	status, 5	;RP0=1, select bank1
  4525  099D  084D               	movf	(_F1+3)^080h,w
  4526  099E  1283               	bcf	status, 5	;RP0=0, select bank0
  4527  099F  00C1               	movwf	(?___flmul+3)
  4528  09A0  1683               	bsf	status, 5	;RP0=1, select bank1
  4529  09A1  084C               	movf	(_F1+2)^080h,w
  4530  09A2  1283               	bcf	status, 5	;RP0=0, select bank0
  4531  09A3  00C0               	movwf	(?___flmul+2)
  4532  09A4  1683               	bsf	status, 5	;RP0=1, select bank1
  4533  09A5  084B               	movf	(_F1+1)^080h,w
  4534  09A6  1283               	bcf	status, 5	;RP0=0, select bank0
  4535  09A7  00BF               	movwf	(?___flmul+1)
  4536  09A8  1683               	bsf	status, 5	;RP0=1, select bank1
  4537  09A9  084A               	movf	(_F1)^080h,w
  4538  09AA  1283               	bcf	status, 5	;RP0=0, select bank0
  4539  09AB  00BE               	movwf	(?___flmul)
  4540                           
  4541  09AC  1683               	bsf	status, 5	;RP0=1, select bank1
  4542  09AD  084D               	movf	(_F1+3)^080h,w
  4543  09AE  1283               	bcf	status, 5	;RP0=0, select bank0
  4544  09AF  00C5               	movwf	3+(?___flmul)+04h
  4545  09B0  1683               	bsf	status, 5	;RP0=1, select bank1
  4546  09B1  084C               	movf	(_F1+2)^080h,w
  4547  09B2  1283               	bcf	status, 5	;RP0=0, select bank0
  4548  09B3  00C4               	movwf	2+(?___flmul)+04h
  4549  09B4  1683               	bsf	status, 5	;RP0=1, select bank1
  4550  09B5  084B               	movf	(_F1+1)^080h,w
  4551  09B6  1283               	bcf	status, 5	;RP0=0, select bank0
  4552  09B7  00C3               	movwf	1+(?___flmul)+04h
  4553  09B8  1683               	bsf	status, 5	;RP0=1, select bank1
  4554  09B9  084A               	movf	(_F1)^080h,w
  4555  09BA  1283               	bcf	status, 5	;RP0=0, select bank0
  4556  09BB  00C2               	movwf	0+(?___flmul)+04h
  4557                           
  4558  09BC  120A  118A  2007   	fcall	___flmul
              120A  158A         
  4559  09C1  0841               	movf	(3+(?___flmul)),w
  4560  09C2  00D8               	movwf	3+(?___flsub)+04h
  4561  09C3  0840               	movf	(2+(?___flmul)),w
  4562  09C4  00D7               	movwf	2+(?___flsub)+04h
  4563  09C5  083F               	movf	(1+(?___flmul)),w
  4564  09C6  00D6               	movwf	1+(?___flsub)+04h
  4565  09C7  083E               	movf	(0+(?___flmul)),w
  4566  09C8  00D5               	movwf	0+(?___flsub)+04h
  4567                           
  4568  09C9  160A  158A  27E0   	fcall	___flsub
              120A  158A         
  4569  09CE  0854               	movf	(3+(?___flsub)),w
  4570  09CF  1683               	bsf	status, 5	;RP0=1, select bank1
  4571  09D0  00AB               	movwf	(_measure_capacitance$8393+3)^080h
  4572  09D1  1283               	bcf	status, 5	;RP0=0, select bank0
  4573  09D2  0853               	movf	(2+(?___flsub)),w
  4574  09D3  1683               	bsf	status, 5	;RP0=1, select bank1
  4575  09D4  00AA               	movwf	(_measure_capacitance$8393+2)^080h
  4576  09D5  1283               	bcf	status, 5	;RP0=0, select bank0
  4577  09D6  0852               	movf	(1+(?___flsub)),w
  4578  09D7  1683               	bsf	status, 5	;RP0=1, select bank1
  4579  09D8  00A9               	movwf	(_measure_capacitance$8393+1)^080h
  4580  09D9  1283               	bcf	status, 5	;RP0=0, select bank0
  4581  09DA  0851               	movf	(0+(?___flsub)),w
  4582  09DB  1683               	bsf	status, 5	;RP0=1, select bank1
  4583  09DC  00A8               	movwf	(_measure_capacitance$8393)^080h
  4584                           
  4585                           	
  4586  09DD                     l10160:	
  4587                           ;main.c: 147: Cin = F2 * F2 * (F1 * F1 - F3 * F3) * 1000 / (F3 * F3 * (F1 * F1 - F2 * F2
                                 ));
  4588  09DD  0845               	movf	(_F2+3)^080h,w
  4589  09DE  1283               	bcf	status, 5	;RP0=0, select bank0
  4590  09DF  00C1               	movwf	(?___flmul+3)
  4591  09E0  1683               	bsf	status, 5	;RP0=1, select bank1
  4592  09E1  0844               	movf	(_F2+2)^080h,w
  4593  09E2  1283               	bcf	status, 5	;RP0=0, select bank0
  4594  09E3  00C0               	movwf	(?___flmul+2)
  4595  09E4  1683               	bsf	status, 5	;RP0=1, select bank1
  4596  09E5  0843               	movf	(_F2+1)^080h,w
  4597  09E6  1283               	bcf	status, 5	;RP0=0, select bank0
  4598  09E7  00BF               	movwf	(?___flmul+1)
  4599  09E8  1683               	bsf	status, 5	;RP0=1, select bank1
  4600  09E9  0842               	movf	(_F2)^080h,w
  4601  09EA  1283               	bcf	status, 5	;RP0=0, select bank0
  4602  09EB  00BE               	movwf	(?___flmul)
  4603                           
  4604  09EC  1683               	bsf	status, 5	;RP0=1, select bank1
  4605  09ED  082B               	movf	(_measure_capacitance$8393+3)^080h,w
  4606  09EE  1283               	bcf	status, 5	;RP0=0, select bank0
  4607  09EF  00C5               	movwf	3+(?___flmul)+04h
  4608  09F0  1683               	bsf	status, 5	;RP0=1, select bank1
  4609  09F1  082A               	movf	(_measure_capacitance$8393+2)^080h,w
  4610  09F2  1283               	bcf	status, 5	;RP0=0, select bank0
  4611  09F3  00C4               	movwf	2+(?___flmul)+04h
  4612  09F4  1683               	bsf	status, 5	;RP0=1, select bank1
  4613  09F5  0829               	movf	(_measure_capacitance$8393+1)^080h,w
  4614  09F6  1283               	bcf	status, 5	;RP0=0, select bank0
  4615  09F7  00C3               	movwf	1+(?___flmul)+04h
  4616  09F8  1683               	bsf	status, 5	;RP0=1, select bank1
  4617  09F9  0828               	movf	(_measure_capacitance$8393)^080h,w
  4618  09FA  1283               	bcf	status, 5	;RP0=0, select bank0
  4619  09FB  00C2               	movwf	0+(?___flmul)+04h
  4620                           
  4621  09FC  120A  118A  2007   	fcall	___flmul
              120A  158A         
  4622  0A01  0841               	movf	(3+(?___flmul)),w
  4623  0A02  1683               	bsf	status, 5	;RP0=1, select bank1
  4624  0A03  00AF               	movwf	(_measure_capacitance$8394+3)^080h
  4625  0A04  1283               	bcf	status, 5	;RP0=0, select bank0
  4626  0A05  0840               	movf	(2+(?___flmul)),w
  4627  0A06  1683               	bsf	status, 5	;RP0=1, select bank1
  4628  0A07  00AE               	movwf	(_measure_capacitance$8394+2)^080h
  4629  0A08  1283               	bcf	status, 5	;RP0=0, select bank0
  4630  0A09  083F               	movf	(1+(?___flmul)),w
  4631  0A0A  1683               	bsf	status, 5	;RP0=1, select bank1
  4632  0A0B  00AD               	movwf	(_measure_capacitance$8394+1)^080h
  4633  0A0C  1283               	bcf	status, 5	;RP0=0, select bank0
  4634  0A0D  083E               	movf	(0+(?___flmul)),w
  4635  0A0E  1683               	bsf	status, 5	;RP0=1, select bank1
  4636  0A0F  00AC               	movwf	(_measure_capacitance$8394)^080h
  4637                           
  4638                           	
  4639  0A10                     l10162:	
  4640                           ;main.c: 147: Cin = F2 * F2 * (F1 * F1 - F3 * F3) * 1000 / (F3 * F3 * (F1 * F1 - F2 * F2
                                 ));
  4641  0A10  0845               	movf	(_F2+3)^080h,w
  4642  0A11  1283               	bcf	status, 5	;RP0=0, select bank0
  4643  0A12  00C1               	movwf	(?___flmul+3)
  4644  0A13  1683               	bsf	status, 5	;RP0=1, select bank1
  4645  0A14  0844               	movf	(_F2+2)^080h,w
  4646  0A15  1283               	bcf	status, 5	;RP0=0, select bank0
  4647  0A16  00C0               	movwf	(?___flmul+2)
  4648  0A17  1683               	bsf	status, 5	;RP0=1, select bank1
  4649  0A18  0843               	movf	(_F2+1)^080h,w
  4650  0A19  1283               	bcf	status, 5	;RP0=0, select bank0
  4651  0A1A  00BF               	movwf	(?___flmul+1)
  4652  0A1B  1683               	bsf	status, 5	;RP0=1, select bank1
  4653  0A1C  0842               	movf	(_F2)^080h,w
  4654  0A1D  1283               	bcf	status, 5	;RP0=0, select bank0
  4655  0A1E  00BE               	movwf	(?___flmul)
  4656                           
  4657  0A1F  1683               	bsf	status, 5	;RP0=1, select bank1
  4658  0A20  082F               	movf	(_measure_capacitance$8394+3)^080h,w
  4659  0A21  1283               	bcf	status, 5	;RP0=0, select bank0
  4660  0A22  00C5               	movwf	3+(?___flmul)+04h
  4661  0A23  1683               	bsf	status, 5	;RP0=1, select bank1
  4662  0A24  082E               	movf	(_measure_capacitance$8394+2)^080h,w
  4663  0A25  1283               	bcf	status, 5	;RP0=0, select bank0
  4664  0A26  00C4               	movwf	2+(?___flmul)+04h
  4665  0A27  1683               	bsf	status, 5	;RP0=1, select bank1
  4666  0A28  082D               	movf	(_measure_capacitance$8394+1)^080h,w
  4667  0A29  1283               	bcf	status, 5	;RP0=0, select bank0
  4668  0A2A  00C3               	movwf	1+(?___flmul)+04h
  4669  0A2B  1683               	bsf	status, 5	;RP0=1, select bank1
  4670  0A2C  082C               	movf	(_measure_capacitance$8394)^080h,w
  4671  0A2D  1283               	bcf	status, 5	;RP0=0, select bank0
  4672  0A2E  00C2               	movwf	0+(?___flmul)+04h
  4673                           
  4674  0A2F  120A  118A  2007   	fcall	___flmul
              120A  158A         
  4675  0A34  0841               	movf	(3+(?___flmul)),w
  4676  0A35  1683               	bsf	status, 5	;RP0=1, select bank1
  4677  0A36  00B3               	movwf	(_measure_capacitance$8395+3)^080h
  4678  0A37  1283               	bcf	status, 5	;RP0=0, select bank0
  4679  0A38  0840               	movf	(2+(?___flmul)),w
  4680  0A39  1683               	bsf	status, 5	;RP0=1, select bank1
  4681  0A3A  00B2               	movwf	(_measure_capacitance$8395+2)^080h
  4682  0A3B  1283               	bcf	status, 5	;RP0=0, select bank0
  4683  0A3C  083F               	movf	(1+(?___flmul)),w
  4684  0A3D  1683               	bsf	status, 5	;RP0=1, select bank1
  4685  0A3E  00B1               	movwf	(_measure_capacitance$8395+1)^080h
  4686  0A3F  1283               	bcf	status, 5	;RP0=0, select bank0
  4687  0A40  083E               	movf	(0+(?___flmul)),w
  4688  0A41  1683               	bsf	status, 5	;RP0=1, select bank1
  4689  0A42  00B0               	movwf	(_measure_capacitance$8395)^080h
  4690                           
  4691                           	
  4692  0A43                     l10164:	
  4693                           ;main.c: 147: Cin = F2 * F2 * (F1 * F1 - F3 * F3) * 1000 / (F3 * F3 * (F1 * F1 - F2 * F2
                                 ));
  4694  0A43  0849               	movf	(_F3+3)^080h,w
  4695  0A44  1283               	bcf	status, 5	;RP0=0, select bank0
  4696  0A45  00C1               	movwf	(?___flmul+3)
  4697  0A46  1683               	bsf	status, 5	;RP0=1, select bank1
  4698  0A47  0848               	movf	(_F3+2)^080h,w
  4699  0A48  1283               	bcf	status, 5	;RP0=0, select bank0
  4700  0A49  00C0               	movwf	(?___flmul+2)
  4701  0A4A  1683               	bsf	status, 5	;RP0=1, select bank1
  4702  0A4B  0847               	movf	(_F3+1)^080h,w
  4703  0A4C  1283               	bcf	status, 5	;RP0=0, select bank0
  4704  0A4D  00BF               	movwf	(?___flmul+1)
  4705  0A4E  1683               	bsf	status, 5	;RP0=1, select bank1
  4706  0A4F  0846               	movf	(_F3)^080h,w
  4707  0A50  1283               	bcf	status, 5	;RP0=0, select bank0
  4708  0A51  00BE               	movwf	(?___flmul)
  4709                           
  4710  0A52  1683               	bsf	status, 5	;RP0=1, select bank1
  4711  0A53  0827               	movf	(_measure_capacitance$8392+3)^080h,w
  4712  0A54  1283               	bcf	status, 5	;RP0=0, select bank0
  4713  0A55  00C5               	movwf	3+(?___flmul)+04h
  4714  0A56  1683               	bsf	status, 5	;RP0=1, select bank1
  4715  0A57  0826               	movf	(_measure_capacitance$8392+2)^080h,w
  4716  0A58  1283               	bcf	status, 5	;RP0=0, select bank0
  4717  0A59  00C4               	movwf	2+(?___flmul)+04h
  4718  0A5A  1683               	bsf	status, 5	;RP0=1, select bank1
  4719  0A5B  0825               	movf	(_measure_capacitance$8392+1)^080h,w
  4720  0A5C  1283               	bcf	status, 5	;RP0=0, select bank0
  4721  0A5D  00C3               	movwf	1+(?___flmul)+04h
  4722  0A5E  1683               	bsf	status, 5	;RP0=1, select bank1
  4723  0A5F  0824               	movf	(_measure_capacitance$8392)^080h,w
  4724  0A60  1283               	bcf	status, 5	;RP0=0, select bank0
  4725  0A61  00C2               	movwf	0+(?___flmul)+04h
  4726                           
  4727  0A62  120A  118A  2007   	fcall	___flmul
              120A  158A         
  4728  0A67  0841               	movf	(3+(?___flmul)),w
  4729  0A68  00AE               	movwf	(?___fldiv+3)
  4730  0A69  0840               	movf	(2+(?___flmul)),w
  4731  0A6A  00AD               	movwf	(?___fldiv+2)
  4732  0A6B  083F               	movf	(1+(?___flmul)),w
  4733  0A6C  00AC               	movwf	(?___fldiv+1)
  4734  0A6D  083E               	movf	(0+(?___flmul)),w
  4735  0A6E  00AB               	movwf	(?___fldiv)
  4736                           
  4737  0A6F  3044               	movlw	0x44
  4738  0A70  00C1               	movwf	(?___flmul+3)
  4739  0A71  307A               	movlw	0x7a
  4740  0A72  00C0               	movwf	(?___flmul+2)
  4741  0A73  3000               	movlw	0x0
  4742  0A74  00BF               	movwf	(?___flmul+1)
  4743  0A75  3000               	movlw	0x0
  4744  0A76  00BE               	movwf	(?___flmul)
  4745                           
  4746  0A77  1683               	bsf	status, 5	;RP0=1, select bank1
  4747  0A78  0833               	movf	(_measure_capacitance$8395+3)^080h,w
  4748  0A79  1283               	bcf	status, 5	;RP0=0, select bank0
  4749  0A7A  00C5               	movwf	3+(?___flmul)+04h
  4750  0A7B  1683               	bsf	status, 5	;RP0=1, select bank1
  4751  0A7C  0832               	movf	(_measure_capacitance$8395+2)^080h,w
  4752  0A7D  1283               	bcf	status, 5	;RP0=0, select bank0
  4753  0A7E  00C4               	movwf	2+(?___flmul)+04h
  4754  0A7F  1683               	bsf	status, 5	;RP0=1, select bank1
  4755  0A80  0831               	movf	(_measure_capacitance$8395+1)^080h,w
  4756  0A81  1283               	bcf	status, 5	;RP0=0, select bank0
  4757  0A82  00C3               	movwf	1+(?___flmul)+04h
  4758  0A83  1683               	bsf	status, 5	;RP0=1, select bank1
  4759  0A84  0830               	movf	(_measure_capacitance$8395)^080h,w
  4760  0A85  1283               	bcf	status, 5	;RP0=0, select bank0
  4761  0A86  00C2               	movwf	0+(?___flmul)+04h
  4762                           
  4763  0A87  120A  118A  2007   	fcall	___flmul
              120A  158A         
  4764  0A8C  0841               	movf	(3+(?___flmul)),w
  4765  0A8D  00B2               	movwf	3+(?___fldiv)+04h
  4766  0A8E  0840               	movf	(2+(?___flmul)),w
  4767  0A8F  00B1               	movwf	2+(?___fldiv)+04h
  4768  0A90  083F               	movf	(1+(?___flmul)),w
  4769  0A91  00B0               	movwf	1+(?___fldiv)+04h
  4770  0A92  083E               	movf	(0+(?___flmul)),w
  4771  0A93  00AF               	movwf	0+(?___fldiv)+04h
  4772                           
  4773  0A94  160A  118A  23DE   	fcall	___fldiv
              120A  158A         
  4774  0A99  082E               	movf	(3+(?___fldiv)),w
  4775  0A9A  1683               	bsf	status, 5	;RP0=1, select bank1
  4776  0A9B  00B9               	movwf	(measure_capacitance@Cin+3)^080h
  4777  0A9C  1283               	bcf	status, 5	;RP0=0, select bank0
  4778  0A9D  082D               	movf	(2+(?___fldiv)),w
  4779  0A9E  1683               	bsf	status, 5	;RP0=1, select bank1
  4780  0A9F  00B8               	movwf	(measure_capacitance@Cin+2)^080h
  4781  0AA0  1283               	bcf	status, 5	;RP0=0, select bank0
  4782  0AA1  082C               	movf	(1+(?___fldiv)),w
  4783  0AA2  1683               	bsf	status, 5	;RP0=1, select bank1
  4784  0AA3  00B7               	movwf	(measure_capacitance@Cin+1)^080h
  4785  0AA4  1283               	bcf	status, 5	;RP0=0, select bank0
  4786  0AA5  082B               	movf	(0+(?___fldiv)),w
  4787  0AA6  1683               	bsf	status, 5	;RP0=1, select bank1
  4788  0AA7  00B6               	movwf	(measure_capacitance@Cin)^080h
  4789                           
  4790                           	line	148
  4791                           	
  4792  0AA8                     l10166:	
  4793                           ;main.c: 148: if(Cin > 999) {
  4794  0AA8  3044               	movlw	0x44
  4795  0AA9  00F3               	movwf	(?___flge+3)
  4796  0AAA  3079               	movlw	0x79
  4797  0AAB  00F2               	movwf	(?___flge+2)
  4798  0AAC  30C0               	movlw	0xc0
  4799  0AAD  00F1               	movwf	(?___flge+1)
  4800  0AAE  3000               	movlw	0x0
  4801  0AAF  00F0               	movwf	(?___flge)
  4802                           
  4803  0AB0  0839               	movf	(measure_capacitance@Cin+3)^080h,w
  4804  0AB1  00F7               	movwf	3+(?___flge)+04h
  4805  0AB2  0838               	movf	(measure_capacitance@Cin+2)^080h,w
  4806  0AB3  00F6               	movwf	2+(?___flge)+04h
  4807  0AB4  0837               	movf	(measure_capacitance@Cin+1)^080h,w
  4808  0AB5  00F5               	movwf	1+(?___flge)+04h
  4809  0AB6  0836               	movf	(measure_capacitance@Cin)^080h,w
  4810  0AB7  00F4               	movwf	0+(?___flge)+04h
  4811                           
  4812  0AB8  160A  118A  21FE   	fcall	___flge
              120A  158A         
  4813  0ABD  1803               	btfsc	status,0
  4814  0ABE  2AC0               	goto	u1981
  4815  0ABF  2AC1               	goto	u1980
  4816  0AC0                     u1981:
  4817  0AC0  2B8F               	goto	l10184
  4818  0AC1                     u1980:
  4819                           	line	149
  4820                           	
  4821  0AC1                     l10168:	
  4822                           ;main.c: 149: if(Cin > (999E3)) {
  4823  0AC1  3049               	movlw	0x49
  4824  0AC2  00F3               	movwf	(?___flge+3)
  4825  0AC3  3073               	movlw	0x73
  4826  0AC4  00F2               	movwf	(?___flge+2)
  4827  0AC5  30E5               	movlw	0xe5
  4828  0AC6  00F1               	movwf	(?___flge+1)
  4829  0AC7  3080               	movlw	0x80
  4830  0AC8  00F0               	movwf	(?___flge)
  4831                           
  4832  0AC9  0839               	movf	(measure_capacitance@Cin+3)^080h,w
  4833  0ACA  00F7               	movwf	3+(?___flge)+04h
  4834  0ACB  0838               	movf	(measure_capacitance@Cin+2)^080h,w
  4835  0ACC  00F6               	movwf	2+(?___flge)+04h
  4836  0ACD  0837               	movf	(measure_capacitance@Cin+1)^080h,w
  4837  0ACE  00F5               	movwf	1+(?___flge)+04h
  4838  0ACF  0836               	movf	(measure_capacitance@Cin)^080h,w
  4839  0AD0  00F4               	movwf	0+(?___flge)+04h
  4840                           
  4841  0AD1  160A  118A  21FE   	fcall	___flge
              120A  158A         
  4842  0AD6  1803               	btfsc	status,0
  4843  0AD7  2AD9               	goto	u1991
  4844  0AD8  2ADA               	goto	u1990
  4845  0AD9                     u1991:
  4846  0AD9  2B5B               	goto	l10180
  4847  0ADA                     u1990:
  4848                           	line	150
  4849                           	
  4850  0ADA                     l10170:	
  4851                           ;main.c: 150: if(Cin > (999E6)) {
  4852  0ADA  304E               	movlw	0x4e
  4853  0ADB  00F3               	movwf	(?___flge+3)
  4854  0ADC  306E               	movlw	0x6e
  4855  0ADD  00F2               	movwf	(?___flge+2)
  4856  0ADE  302E               	movlw	0x2e
  4857  0ADF  00F1               	movwf	(?___flge+1)
  4858  0AE0  301F               	movlw	0x1f
  4859  0AE1  00F0               	movwf	(?___flge)
  4860                           
  4861  0AE2  0839               	movf	(measure_capacitance@Cin+3)^080h,w
  4862  0AE3  00F7               	movwf	3+(?___flge)+04h
  4863  0AE4  0838               	movf	(measure_capacitance@Cin+2)^080h,w
  4864  0AE5  00F6               	movwf	2+(?___flge)+04h
  4865  0AE6  0837               	movf	(measure_capacitance@Cin+1)^080h,w
  4866  0AE7  00F5               	movwf	1+(?___flge)+04h
  4867  0AE8  0836               	movf	(measure_capacitance@Cin)^080h,w
  4868  0AE9  00F4               	movwf	0+(?___flge)+04h
  4869                           
  4870  0AEA  160A  118A  21FE   	fcall	___flge
              120A  158A         
  4871  0AEF  1803               	btfsc	status,0
  4872  0AF0  2AF2               	goto	u2001
  4873  0AF1  2AF3               	goto	u2000
  4874  0AF2                     u2001:
  4875  0AF2  2B27               	goto	l10176
  4876  0AF3                     u2000:
  4877                           	line	151
  4878                           	
  4879  0AF3                     l10172:	
  4880                           ;main.c: 151: Cin = Cin / (1E9);
  4881  0AF3  304E               	movlw	0x4e
  4882  0AF4  1283               	bcf	status, 5	;RP0=0, select bank0
  4883  0AF5  00AE               	movwf	(?___fldiv+3)
  4884  0AF6  306E               	movlw	0x6e
  4885  0AF7  00AD               	movwf	(?___fldiv+2)
  4886  0AF8  306B               	movlw	0x6b
  4887  0AF9  00AC               	movwf	(?___fldiv+1)
  4888  0AFA  3028               	movlw	0x28
  4889  0AFB  00AB               	movwf	(?___fldiv)
  4890                           
  4891  0AFC  1683               	bsf	status, 5	;RP0=1, select bank1
  4892  0AFD  0839               	movf	(measure_capacitance@Cin+3)^080h,w
  4893  0AFE  1283               	bcf	status, 5	;RP0=0, select bank0
  4894  0AFF  00B2               	movwf	3+(?___fldiv)+04h
  4895  0B00  1683               	bsf	status, 5	;RP0=1, select bank1
  4896  0B01  0838               	movf	(measure_capacitance@Cin+2)^080h,w
  4897  0B02  1283               	bcf	status, 5	;RP0=0, select bank0
  4898  0B03  00B1               	movwf	2+(?___fldiv)+04h
  4899  0B04  1683               	bsf	status, 5	;RP0=1, select bank1
  4900  0B05  0837               	movf	(measure_capacitance@Cin+1)^080h,w
  4901  0B06  1283               	bcf	status, 5	;RP0=0, select bank0
  4902  0B07  00B0               	movwf	1+(?___fldiv)+04h
  4903  0B08  1683               	bsf	status, 5	;RP0=1, select bank1
  4904  0B09  0836               	movf	(measure_capacitance@Cin)^080h,w
  4905  0B0A  1283               	bcf	status, 5	;RP0=0, select bank0
  4906  0B0B  00AF               	movwf	0+(?___fldiv)+04h
  4907                           
  4908  0B0C  160A  118A  23DE   	fcall	___fldiv
              120A  158A         
  4909  0B11  082E               	movf	(3+(?___fldiv)),w
  4910  0B12  1683               	bsf	status, 5	;RP0=1, select bank1
  4911  0B13  00B9               	movwf	(measure_capacitance@Cin+3)^080h
  4912  0B14  1283               	bcf	status, 5	;RP0=0, select bank0
  4913  0B15  082D               	movf	(2+(?___fldiv)),w
  4914  0B16  1683               	bsf	status, 5	;RP0=1, select bank1
  4915  0B17  00B8               	movwf	(measure_capacitance@Cin+2)^080h
  4916  0B18  1283               	bcf	status, 5	;RP0=0, select bank0
  4917  0B19  082C               	movf	(1+(?___fldiv)),w
  4918  0B1A  1683               	bsf	status, 5	;RP0=1, select bank1
  4919  0B1B  00B7               	movwf	(measure_capacitance@Cin+1)^080h
  4920  0B1C  1283               	bcf	status, 5	;RP0=0, select bank0
  4921  0B1D  082B               	movf	(0+(?___fldiv)),w
  4922  0B1E  1683               	bsf	status, 5	;RP0=1, select bank1
  4923  0B1F  00B6               	movwf	(measure_capacitance@Cin)^080h
  4924                           
  4925                           	line	152
  4926                           	
  4927  0B20                     l10174:	
  4928                           ;main.c: 152: display_unit(4);
  4929  0B20  3004               	movlw	(04h)
  4930  0B21  160A  118A  22D4   	fcall	_display_unit
              120A  158A         
  4931                           	line	153
  4932                           ;main.c: 153: } else {
  4933  0B26  2B95               	goto	l10186
  4934                           	line	154
  4935                           	
  4936  0B27                     l10176:	
  4937                           ;main.c: 154: Cin = Cin / (1E6);
  4938  0B27  3049               	movlw	0x49
  4939  0B28  1283               	bcf	status, 5	;RP0=0, select bank0
  4940  0B29  00AE               	movwf	(?___fldiv+3)
  4941  0B2A  3074               	movlw	0x74
  4942  0B2B  00AD               	movwf	(?___fldiv+2)
  4943  0B2C  3024               	movlw	0x24
  4944  0B2D  00AC               	movwf	(?___fldiv+1)
  4945  0B2E  3000               	movlw	0x0
  4946  0B2F  00AB               	movwf	(?___fldiv)
  4947                           
  4948  0B30  1683               	bsf	status, 5	;RP0=1, select bank1
  4949  0B31  0839               	movf	(measure_capacitance@Cin+3)^080h,w
  4950  0B32  1283               	bcf	status, 5	;RP0=0, select bank0
  4951  0B33  00B2               	movwf	3+(?___fldiv)+04h
  4952  0B34  1683               	bsf	status, 5	;RP0=1, select bank1
  4953  0B35  0838               	movf	(measure_capacitance@Cin+2)^080h,w
  4954  0B36  1283               	bcf	status, 5	;RP0=0, select bank0
  4955  0B37  00B1               	movwf	2+(?___fldiv)+04h
  4956  0B38  1683               	bsf	status, 5	;RP0=1, select bank1
  4957  0B39  0837               	movf	(measure_capacitance@Cin+1)^080h,w
  4958  0B3A  1283               	bcf	status, 5	;RP0=0, select bank0
  4959  0B3B  00B0               	movwf	1+(?___fldiv)+04h
  4960  0B3C  1683               	bsf	status, 5	;RP0=1, select bank1
  4961  0B3D  0836               	movf	(measure_capacitance@Cin)^080h,w
  4962  0B3E  1283               	bcf	status, 5	;RP0=0, select bank0
  4963  0B3F  00AF               	movwf	0+(?___fldiv)+04h
  4964                           
  4965  0B40  160A  118A  23DE   	fcall	___fldiv
              120A  158A         
  4966  0B45  082E               	movf	(3+(?___fldiv)),w
  4967  0B46  1683               	bsf	status, 5	;RP0=1, select bank1
  4968  0B47  00B9               	movwf	(measure_capacitance@Cin+3)^080h
  4969  0B48  1283               	bcf	status, 5	;RP0=0, select bank0
  4970  0B49  082D               	movf	(2+(?___fldiv)),w
  4971  0B4A  1683               	bsf	status, 5	;RP0=1, select bank1
  4972  0B4B  00B8               	movwf	(measure_capacitance@Cin+2)^080h
  4973  0B4C  1283               	bcf	status, 5	;RP0=0, select bank0
  4974  0B4D  082C               	movf	(1+(?___fldiv)),w
  4975  0B4E  1683               	bsf	status, 5	;RP0=1, select bank1
  4976  0B4F  00B7               	movwf	(measure_capacitance@Cin+1)^080h
  4977  0B50  1283               	bcf	status, 5	;RP0=0, select bank0
  4978  0B51  082B               	movf	(0+(?___fldiv)),w
  4979  0B52  1683               	bsf	status, 5	;RP0=1, select bank1
  4980  0B53  00B6               	movwf	(measure_capacitance@Cin)^080h
  4981                           
  4982                           	line	155
  4983                           	
  4984  0B54                     l10178:	
  4985                           ;main.c: 155: display_unit(5);
  4986  0B54  3005               	movlw	(05h)
  4987  0B55  160A  118A  22D4   	fcall	_display_unit
              120A  158A         
  4988  0B5A  2B95               	goto	l10186
  4989                           	line	158
  4990                           	
  4991  0B5B                     l10180:	
  4992                           ;main.c: 158: Cin = Cin / 1E3;
  4993  0B5B  3044               	movlw	0x44
  4994  0B5C  1283               	bcf	status, 5	;RP0=0, select bank0
  4995  0B5D  00AE               	movwf	(?___fldiv+3)
  4996  0B5E  307A               	movlw	0x7a
  4997  0B5F  00AD               	movwf	(?___fldiv+2)
  4998  0B60  3000               	movlw	0x0
  4999  0B61  00AC               	movwf	(?___fldiv+1)
  5000  0B62  3000               	movlw	0x0
  5001  0B63  00AB               	movwf	(?___fldiv)
  5002                           
  5003  0B64  1683               	bsf	status, 5	;RP0=1, select bank1
  5004  0B65  0839               	movf	(measure_capacitance@Cin+3)^080h,w
  5005  0B66  1283               	bcf	status, 5	;RP0=0, select bank0
  5006  0B67  00B2               	movwf	3+(?___fldiv)+04h
  5007  0B68  1683               	bsf	status, 5	;RP0=1, select bank1
  5008  0B69  0838               	movf	(measure_capacitance@Cin+2)^080h,w
  5009  0B6A  1283               	bcf	status, 5	;RP0=0, select bank0
  5010  0B6B  00B1               	movwf	2+(?___fldiv)+04h
  5011  0B6C  1683               	bsf	status, 5	;RP0=1, select bank1
  5012  0B6D  0837               	movf	(measure_capacitance@Cin+1)^080h,w
  5013  0B6E  1283               	bcf	status, 5	;RP0=0, select bank0
  5014  0B6F  00B0               	movwf	1+(?___fldiv)+04h
  5015  0B70  1683               	bsf	status, 5	;RP0=1, select bank1
  5016  0B71  0836               	movf	(measure_capacitance@Cin)^080h,w
  5017  0B72  1283               	bcf	status, 5	;RP0=0, select bank0
  5018  0B73  00AF               	movwf	0+(?___fldiv)+04h
  5019                           
  5020  0B74  160A  118A  23DE   	fcall	___fldiv
              120A  158A         
  5021  0B79  082E               	movf	(3+(?___fldiv)),w
  5022  0B7A  1683               	bsf	status, 5	;RP0=1, select bank1
  5023  0B7B  00B9               	movwf	(measure_capacitance@Cin+3)^080h
  5024  0B7C  1283               	bcf	status, 5	;RP0=0, select bank0
  5025  0B7D  082D               	movf	(2+(?___fldiv)),w
  5026  0B7E  1683               	bsf	status, 5	;RP0=1, select bank1
  5027  0B7F  00B8               	movwf	(measure_capacitance@Cin+2)^080h
  5028  0B80  1283               	bcf	status, 5	;RP0=0, select bank0
  5029  0B81  082C               	movf	(1+(?___fldiv)),w
  5030  0B82  1683               	bsf	status, 5	;RP0=1, select bank1
  5031  0B83  00B7               	movwf	(measure_capacitance@Cin+1)^080h
  5032  0B84  1283               	bcf	status, 5	;RP0=0, select bank0
  5033  0B85  082B               	movf	(0+(?___fldiv)),w
  5034  0B86  1683               	bsf	status, 5	;RP0=1, select bank1
  5035  0B87  00B6               	movwf	(measure_capacitance@Cin)^080h
  5036                           
  5037                           	line	159
  5038                           	
  5039  0B88                     l10182:	
  5040                           ;main.c: 159: display_unit(6);
  5041  0B88  3006               	movlw	(06h)
  5042  0B89  160A  118A  22D4   	fcall	_display_unit
              120A  158A         
  5043  0B8E  2B95               	goto	l10186
  5044                           	line	162
  5045                           	
  5046  0B8F                     l10184:	
  5047                           ;main.c: 162: display_unit(7);
  5048  0B8F  3007               	movlw	(07h)
  5049  0B90  160A  118A  22D4   	fcall	_display_unit
              120A  158A         
  5050                           	line	163
  5051                           	
  5052  0B95                     l10186:	
  5053                           ;main.c: 163: Cin = Cin * 100;
  5054  0B95  3042               	movlw	0x42
  5055  0B96  00C1               	movwf	(?___flmul+3)
  5056  0B97  30C8               	movlw	0xc8
  5057  0B98  00C0               	movwf	(?___flmul+2)
  5058  0B99  3000               	movlw	0x0
  5059  0B9A  00BF               	movwf	(?___flmul+1)
  5060  0B9B  3000               	movlw	0x0
  5061  0B9C  00BE               	movwf	(?___flmul)
  5062                           
  5063  0B9D  1683               	bsf	status, 5	;RP0=1, select bank1
  5064  0B9E  0839               	movf	(measure_capacitance@Cin+3)^080h,w
  5065  0B9F  1283               	bcf	status, 5	;RP0=0, select bank0
  5066  0BA0  00C5               	movwf	3+(?___flmul)+04h
  5067  0BA1  1683               	bsf	status, 5	;RP0=1, select bank1
  5068  0BA2  0838               	movf	(measure_capacitance@Cin+2)^080h,w
  5069  0BA3  1283               	bcf	status, 5	;RP0=0, select bank0
  5070  0BA4  00C4               	movwf	2+(?___flmul)+04h
  5071  0BA5  1683               	bsf	status, 5	;RP0=1, select bank1
  5072  0BA6  0837               	movf	(measure_capacitance@Cin+1)^080h,w
  5073  0BA7  1283               	bcf	status, 5	;RP0=0, select bank0
  5074  0BA8  00C3               	movwf	1+(?___flmul)+04h
  5075  0BA9  1683               	bsf	status, 5	;RP0=1, select bank1
  5076  0BAA  0836               	movf	(measure_capacitance@Cin)^080h,w
  5077  0BAB  1283               	bcf	status, 5	;RP0=0, select bank0
  5078  0BAC  00C2               	movwf	0+(?___flmul)+04h
  5079                           
  5080  0BAD  120A  118A  2007   	fcall	___flmul
              120A  158A         
  5081  0BB2  0841               	movf	(3+(?___flmul)),w
  5082  0BB3  1683               	bsf	status, 5	;RP0=1, select bank1
  5083  0BB4  00B9               	movwf	(measure_capacitance@Cin+3)^080h
  5084  0BB5  1283               	bcf	status, 5	;RP0=0, select bank0
  5085  0BB6  0840               	movf	(2+(?___flmul)),w
  5086  0BB7  1683               	bsf	status, 5	;RP0=1, select bank1
  5087  0BB8  00B8               	movwf	(measure_capacitance@Cin+2)^080h
  5088  0BB9  1283               	bcf	status, 5	;RP0=0, select bank0
  5089  0BBA  083F               	movf	(1+(?___flmul)),w
  5090  0BBB  1683               	bsf	status, 5	;RP0=1, select bank1
  5091  0BBC  00B7               	movwf	(measure_capacitance@Cin+1)^080h
  5092  0BBD  1283               	bcf	status, 5	;RP0=0, select bank0
  5093  0BBE  083E               	movf	(0+(?___flmul)),w
  5094  0BBF  1683               	bsf	status, 5	;RP0=1, select bank1
  5095  0BC0  00B6               	movwf	(measure_capacitance@Cin)^080h
  5096                           
  5097                           	line	164
  5098                           	
  5099  0BC1                     l10188:	
  5100                           ;main.c: 164: var = (unsigned int)Cin;
  5101  0BC1  0839               	movf	(measure_capacitance@Cin+3)^080h,w
  5102  0BC2  00F3               	movwf	(?___fltol+3)
  5103  0BC3  0838               	movf	(measure_capacitance@Cin+2)^080h,w
  5104  0BC4  00F2               	movwf	(?___fltol+2)
  5105  0BC5  0837               	movf	(measure_capacitance@Cin+1)^080h,w
  5106  0BC6  00F1               	movwf	(?___fltol+1)
  5107  0BC7  0836               	movf	(measure_capacitance@Cin)^080h,w
  5108  0BC8  00F0               	movwf	(?___fltol)
  5109                           
  5110  0BC9  160A  118A  2268   	fcall	___fltol
              120A  158A         
  5111  0BCE  0871               	movf	1+(((0+(?___fltol)))),w
  5112  0BCF  00B5               	movwf	(measure_capacitance@var+1)^080h
  5113  0BD0  0870               	movf	0+(((0+(?___fltol)))),w
  5114  0BD1  00B4               	movwf	(measure_capacitance@var)^080h
  5115                           	line	165
  5116                           ;main.c: 165: display_reading(var);
  5117  0BD2  0835               	movf	(measure_capacitance@var+1)^080h,w
  5118  0BD3  1283               	bcf	status, 5	;RP0=0, select bank0
  5119  0BD4  00A5               	movwf	(?_display_reading+1)
  5120  0BD5  1683               	bsf	status, 5	;RP0=1, select bank1
  5121  0BD6  0834               	movf	(measure_capacitance@var)^080h,w
  5122  0BD7  1283               	bcf	status, 5	;RP0=0, select bank0
  5123  0BD8  00A4               	movwf	(?_display_reading)
  5124  0BD9  160A  118A  25BF   	fcall	_display_reading
              120A  158A         
  5125                           	line	166
  5126                           	
  5127  0BDE                     l1454:	
  5128  0BDE  0008               	return
  5129                           	opt stack 0
  5130                           GLOBAL	__end_of_measure_capacitance
  5131  0BDF                     	__end_of_measure_capacitance:
  5132 ;; =============== function _measure_capacitance ends ============
  5133                           
  5134                           	signat	_measure_capacitance,88
  5135                           	global	_calibrate
  5136                           psect	text571,local,class=CODE,delta=2
  5137                           global __ptext571
  5138  0729                     __ptext571:
  5139                           
  5140 ;; *************** function _calibrate *****************
  5141 ;; Defined at:
  5142 ;;		line 115 in file "C:\Users\vboxuser\Desktop\lc-meter\src\julznc\main.c"
  5143 ;; Parameters:    Size  Location     Type
  5144 ;;		None
  5145 ;; Auto vars:     Size  Location     Type
  5146 ;;  i               1    8[BANK0 ] unsigned char 
  5147 ;; Return value:  Size  Location     Type
  5148 ;;		None               void
  5149 ;; Registers used:
  5150 ;;		wreg, fsr0l, fsr0h, status,2, status,0, btemp+1, pclath, cstack
  5151 ;; Tracked objects:
  5152 ;;		On entry : 0/0
  5153 ;;		On exit  : 60/0
  5154 ;;		Unchanged: 0/0
  5155 ;; Data sizes:     COMMON   BANK0   BANK1   BANK3   BANK2
  5156 ;;      Params:         0       0       0       0       0
  5157 ;;      Locals:         0       1       0       0       0
  5158 ;;      Temps:          0       0       0       0       0
  5159 ;;      Totals:         0       1       0       0       0
  5160 ;;Total ram usage:        1 bytes
  5161 ;; Hardware stack levels used:    1
  5162 ;; Hardware stack levels required when called:    3
  5163 ;; This function calls:
  5164 ;;		_lcd_clear
  5165 ;;		_lcd_gotoxy
  5166 ;;		_lcd_puts
  5167 ;;		_measure_freq
  5168 ;;		___lwtofl
  5169 ;;		_delay10ms
  5170 ;;		_lcd_send
  5171 ;; This function is called by:
  5172 ;;		_main
  5173 ;; This function uses a non-reentrant model
  5174 ;;
  5175                           psect	text571
  5176                           	file	"C:\Users\vboxuser\Desktop\lc-meter\src\julznc\main.c"
  5177                           	line	115
  5178                           	global	__size_of_calibrate
  5179  00BE                     	__size_of_calibrate	equ	__end_of_calibrate-_calibrate
  5180                           	
  5181  0729                     _calibrate:	
  5182                           	opt	stack 4
  5183                           ; Regs used in _calibrate: [wreg-fsr0h+status,2+status,0+btemp+1+pclath+cstack]
  5184                           	line	117
  5185                           	
  5186  0729                     l10104:	
  5187                           ;main.c: 116: unsigned char i;
  5188                           ;main.c: 117: lcd_clear();
  5189  0729  160A  158A  27C1   	fcall	_lcd_clear
              120A  118A         
  5190                           	line	118
  5191                           ;main.c: 118: lcd_gotoxy(1, 1);
  5192  072E  01F8               	clrf	(?_lcd_gotoxy)
  5193  072F  0AF8               	incf	(?_lcd_gotoxy),f
  5194  0730  01F9               	clrf	(?_lcd_gotoxy+1)
  5195  0731  3001               	movlw	(01h)
  5196  0732  120A  118A  20ED   	fcall	_lcd_gotoxy
              120A  118A         
  5197                           	line	119
  5198                           	
  5199  0737                     l10106:	
  5200                           ;main.c: 119: lcd_puts("Calibrating.");
  5201  0737  30F8               	movlw	low(STR_6|8000h)
  5202  0738  00F9               	movwf	(?_lcd_puts)
  5203  0739  3086               	movlw	high(STR_6|8000h)
  5204  073A  00FA               	movwf	((?_lcd_puts))+1
  5205  073B  160A  118A  201E   	fcall	_lcd_puts
              120A  118A         
  5206                           	line	120
  5207                           	
  5208  0740                     l10108:	
  5209                           ;main.c: 120: lcd_gotoxy(1, 3);
  5210  0740  3003               	movlw	03h
  5211  0741  00F8               	movwf	(?_lcd_gotoxy)
  5212  0742  01F9               	clrf	(?_lcd_gotoxy+1)
  5213  0743  3001               	movlw	(01h)
  5214  0744  120A  118A  20ED   	fcall	_lcd_gotoxy
              120A  118A         
  5215                           	line	121
  5216                           ;main.c: 121: lcd_puts("please wait..");
  5217  0749  30DD               	movlw	low(STR_7|8000h)
  5218  074A  00F9               	movwf	(?_lcd_puts)
  5219  074B  3086               	movlw	high(STR_7|8000h)
  5220  074C  00FA               	movwf	((?_lcd_puts))+1
  5221  074D  160A  118A  201E   	fcall	_lcd_puts
              120A  118A         
  5222                           	line	122
  5223                           	
  5224  0752                     l10110:	
  5225                           ;main.c: 122: RC0 = 0;
  5226  0752  1007               	bcf	(56/8),(56)&7
  5227                           	line	123
  5228                           	
  5229  0753                     l10112:	
  5230                           ;main.c: 123: F1 = (double)measure_freq();
  5231  0753  160A  118A  20FC   	fcall	_measure_freq
              120A  118A         
  5232  0758  0821               	movf	(1+(?_measure_freq)),w
  5233  0759  00FB               	movwf	(?___lwtofl+1)
  5234  075A  0820               	movf	(0+(?_measure_freq)),w
  5235  075B  00FA               	movwf	(?___lwtofl)
  5236  075C  160A  158A  27AA   	fcall	___lwtofl
              120A  118A         
  5237  0761  087D               	movf	(3+(?___lwtofl)),w
  5238  0762  1683               	bsf	status, 5	;RP0=1, select bank1
  5239  0763  00CD               	movwf	(_F1+3)^080h
  5240  0764  087C               	movf	(2+(?___lwtofl)),w
  5241  0765  00CC               	movwf	(_F1+2)^080h
  5242  0766  087B               	movf	(1+(?___lwtofl)),w
  5243  0767  00CB               	movwf	(_F1+1)^080h
  5244  0768  087A               	movf	(0+(?___lwtofl)),w
  5245  0769  00CA               	movwf	(_F1)^080h
  5246                           
  5247                           	line	124
  5248                           	
  5249  076A                     l10114:	
  5250                           ;main.c: 124: delay10ms(50);
  5251  076A  3032               	movlw	032h
  5252  076B  00F0               	movwf	(?_delay10ms)
  5253  076C  01F1               	clrf	(?_delay10ms+1)
  5254  076D  160A  158A  2794   	fcall	_delay10ms
              120A  118A         
  5255                           	line	125
  5256                           	
  5257  0772                     l10116:	
  5258                           ;main.c: 125: F1 = (double)measure_freq();
  5259  0772  160A  118A  20FC   	fcall	_measure_freq
              120A  118A         
  5260  0777  0821               	movf	(1+(?_measure_freq)),w
  5261  0778  00FB               	movwf	(?___lwtofl+1)
  5262  0779  0820               	movf	(0+(?_measure_freq)),w
  5263  077A  00FA               	movwf	(?___lwtofl)
  5264  077B  160A  158A  27AA   	fcall	___lwtofl
              120A  118A         
  5265  0780  087D               	movf	(3+(?___lwtofl)),w
  5266  0781  1683               	bsf	status, 5	;RP0=1, select bank1
  5267  0782  00CD               	movwf	(_F1+3)^080h
  5268  0783  087C               	movf	(2+(?___lwtofl)),w
  5269  0784  00CC               	movwf	(_F1+2)^080h
  5270  0785  087B               	movf	(1+(?___lwtofl)),w
  5271  0786  00CB               	movwf	(_F1+1)^080h
  5272  0787  087A               	movf	(0+(?___lwtofl)),w
  5273  0788  00CA               	movwf	(_F1)^080h
  5274                           
  5275                           	line	126
  5276                           	
  5277  0789                     l10118:	
  5278                           ;main.c: 126: RC0 = 1;
  5279  0789  1283               	bcf	status, 5	;RP0=0, select bank0
  5280  078A  1407               	bsf	(56/8),(56)&7
  5281                           	line	127
  5282                           	
  5283  078B                     l10120:	
  5284                           ;main.c: 127: F2 = (double)measure_freq();
  5285  078B  160A  118A  20FC   	fcall	_measure_freq
              120A  118A         
  5286  0790  0821               	movf	(1+(?_measure_freq)),w
  5287  0791  00FB               	movwf	(?___lwtofl+1)
  5288  0792  0820               	movf	(0+(?_measure_freq)),w
  5289  0793  00FA               	movwf	(?___lwtofl)
  5290  0794  160A  158A  27AA   	fcall	___lwtofl
              120A  118A         
  5291  0799  087D               	movf	(3+(?___lwtofl)),w
  5292  079A  1683               	bsf	status, 5	;RP0=1, select bank1
  5293  079B  00C5               	movwf	(_F2+3)^080h
  5294  079C  087C               	movf	(2+(?___lwtofl)),w
  5295  079D  00C4               	movwf	(_F2+2)^080h
  5296  079E  087B               	movf	(1+(?___lwtofl)),w
  5297  079F  00C3               	movwf	(_F2+1)^080h
  5298  07A0  087A               	movf	(0+(?___lwtofl)),w
  5299  07A1  00C2               	movwf	(_F2)^080h
  5300                           
  5301                           	line	128
  5302                           	
  5303  07A2                     l10122:	
  5304                           ;main.c: 128: delay10ms(50);
  5305  07A2  3032               	movlw	032h
  5306  07A3  00F0               	movwf	(?_delay10ms)
  5307  07A4  01F1               	clrf	(?_delay10ms+1)
  5308  07A5  160A  158A  2794   	fcall	_delay10ms
              120A  118A         
  5309                           	line	129
  5310                           	
  5311  07AA                     l10124:	
  5312                           ;main.c: 129: F2 = (double)measure_freq();
  5313  07AA  160A  118A  20FC   	fcall	_measure_freq
              120A  118A         
  5314  07AF  0821               	movf	(1+(?_measure_freq)),w
  5315  07B0  00FB               	movwf	(?___lwtofl+1)
  5316  07B1  0820               	movf	(0+(?_measure_freq)),w
  5317  07B2  00FA               	movwf	(?___lwtofl)
  5318  07B3  160A  158A  27AA   	fcall	___lwtofl
              120A  118A         
  5319  07B8  087D               	movf	(3+(?___lwtofl)),w
  5320  07B9  1683               	bsf	status, 5	;RP0=1, select bank1
  5321  07BA  00C5               	movwf	(_F2+3)^080h
  5322  07BB  087C               	movf	(2+(?___lwtofl)),w
  5323  07BC  00C4               	movwf	(_F2+2)^080h
  5324  07BD  087B               	movf	(1+(?___lwtofl)),w
  5325  07BE  00C3               	movwf	(_F2+1)^080h
  5326  07BF  087A               	movf	(0+(?___lwtofl)),w
  5327  07C0  00C2               	movwf	(_F2)^080h
  5328                           
  5329                           	line	130
  5330                           	
  5331  07C1                     l10126:	
  5332                           ;main.c: 130: RC0 = 0;
  5333  07C1  1283               	bcf	status, 5	;RP0=0, select bank0
  5334  07C2  1007               	bcf	(56/8),(56)&7
  5335                           	line	131
  5336                           	
  5337  07C3                     l10128:	
  5338                           ;main.c: 131: lcd_gotoxy(0, 4);
  5339  07C3  3004               	movlw	04h
  5340  07C4  00F8               	movwf	(?_lcd_gotoxy)
  5341  07C5  01F9               	clrf	(?_lcd_gotoxy+1)
  5342  07C6  3000               	movlw	(0)
  5343  07C7  120A  118A  20ED   	fcall	_lcd_gotoxy
              120A  118A         
  5344                           	line	132
  5345                           	
  5346  07CC                     l10130:	
  5347                           ;main.c: 132: for(i = 0; i < 84; i++) {
  5348  07CC  01A8               	clrf	(calibrate@i)
  5349                           	line	133
  5350                           	
  5351  07CD                     l10136:	
  5352                           ;main.c: 133: lcd_send(0xfc, 1);
  5353  07CD  01F6               	clrf	(?_lcd_send)
  5354  07CE  0AF6               	incf	(?_lcd_send),f
  5355  07CF  30FC               	movlw	(0FCh)
  5356  07D0  160A  118A  2472   	fcall	_lcd_send
              120A  118A         
  5357                           	line	134
  5358                           ;main.c: 134: delay10ms(2);
  5359  07D5  3002               	movlw	02h
  5360  07D6  00F0               	movwf	(?_delay10ms)
  5361  07D7  01F1               	clrf	(?_delay10ms+1)
  5362  07D8  160A  158A  2794   	fcall	_delay10ms
              120A  118A         
  5363                           	line	132
  5364                           	
  5365  07DD                     l10138:	
  5366  07DD  1283               	bcf	status, 5	;RP0=0, select bank0
  5367  07DE  1303               	bcf	status, 6	;RP1=0, select bank0
  5368  07DF  0AA8               	incf	(calibrate@i),f
  5369                           	
  5370  07E0                     l10140:	
  5371  07E0  3054               	movlw	(054h)
  5372  07E1  0228               	subwf	(calibrate@i),w
  5373  07E2  1C03               	skipc
  5374  07E3  2FE5               	goto	u1961
  5375  07E4  2FE6               	goto	u1960
  5376  07E5                     u1961:
  5377  07E5  2FCD               	goto	l10136
  5378  07E6                     u1960:
  5379                           	line	136
  5380                           	
  5381  07E6                     l1444:	
  5382  07E6  0008               	return
  5383                           	opt stack 0
  5384                           GLOBAL	__end_of_calibrate
  5385  07E7                     	__end_of_calibrate:
  5386 ;; =============== function _calibrate ends ============
  5387                           
  5388                           	signat	_calibrate,88
  5389                           	global	_initialize
  5390                           psect	text572,local,class=CODE,delta=2
  5391                           global __ptext572
  5392  1062                     __ptext572:
  5393                           
  5394 ;; *************** function _initialize *****************
  5395 ;; Defined at:
  5396 ;;		line 54 in file "C:\Users\vboxuser\Desktop\lc-meter\src\julznc\main.c"
  5397 ;; Parameters:    Size  Location     Type
  5398 ;;		None
  5399 ;; Auto vars:     Size  Location     Type
  5400 ;;		None
  5401 ;; Return value:  Size  Location     Type
  5402 ;;		None               void
  5403 ;; Registers used:
  5404 ;;		wreg, status,2, status,0, pclath, cstack
  5405 ;; Tracked objects:
  5406 ;;		On entry : 17F/0
  5407 ;;		On exit  : 60/20
  5408 ;;		Unchanged: 0/0
  5409 ;; Data sizes:     COMMON   BANK0   BANK1   BANK3   BANK2
  5410 ;;      Params:         0       0       0       0       0
  5411 ;;      Locals:         0       0       0       0       0
  5412 ;;      Temps:          0       0       0       0       0
  5413 ;;      Totals:         0       0       0       0       0
  5414 ;;Total ram usage:        0 bytes
  5415 ;; Hardware stack levels used:    1
  5416 ;; Hardware stack levels required when called:    3
  5417 ;; This function calls:
  5418 ;;		_lcd_init
  5419 ;;		_lcd_clear
  5420 ;;		_ser_init
  5421 ;; This function is called by:
  5422 ;;		_main
  5423 ;; This function uses a non-reentrant model
  5424 ;;
  5425                           psect	text572
  5426                           	file	"C:\Users\vboxuser\Desktop\lc-meter\src\julznc\main.c"
  5427                           	line	54
  5428                           	global	__size_of_initialize
  5429  0023                     	__size_of_initialize	equ	__end_of_initialize-_initialize
  5430                           	
  5431  1062                     _initialize:	
  5432                           	opt	stack 4
  5433                           ; Regs used in _initialize: [wreg+status,2+status,0+pclath+cstack]
  5434                           	line	56
  5435                           	
  5436  1062                     l10072:	
  5437                           ;main.c: 56: CMCON = 0b00000101;
  5438  1062  3005               	movlw	(05h)
  5439  1063  1683               	bsf	status, 5	;RP0=1, select bank1
  5440  1064  009C               	movwf	(156)^080h	;volatile
  5441                           	line	57
  5442                           ;main.c: 57: TRISA = 0b11001111;
  5443  1065  30CF               	movlw	(0CFh)
  5444  1066  0085               	movwf	(133)^080h	;volatile
  5445                           	line	59
  5446                           	
  5447  1067                     l10074:	
  5448                           ;main.c: 59: T0CS = 1;
  5449  1067  1681               	bsf	(1037/8)^080h,(1037)&7
  5450                           	line	60
  5451                           	
  5452  1068                     l10076:	
  5453                           ;main.c: 60: T0SE = 1;
  5454  1068  1601               	bsf	(1036/8)^080h,(1036)&7
  5455                           	line	61
  5456                           	
  5457  1069                     l10078:	
  5458                           ;main.c: 61: PSA = 0;
  5459  1069  1181               	bcf	(1035/8)^080h,(1035)&7
  5460                           	line	62
  5461                           	
  5462  106A                     l10080:	
  5463                           ;main.c: 62: PS2 = 1;
  5464  106A  1501               	bsf	(1034/8)^080h,(1034)&7
  5465                           	line	63
  5466                           	
  5467  106B                     l10082:	
  5468                           ;main.c: 63: PS1 = 1;
  5469  106B  1481               	bsf	(1033/8)^080h,(1033)&7
  5470                           	line	64
  5471                           	
  5472  106C                     l10084:	
  5473                           ;main.c: 64: PS0 = 1;
  5474  106C  1401               	bsf	(1032/8)^080h,(1032)&7
  5475                           	line	66
  5476                           	
  5477  106D                     l10086:	
  5478                           ;main.c: 66: lcd_init();
  5479  106D  160A  118A  214C   	fcall	_lcd_init
              160A  118A         
  5480                           	line	67
  5481                           	
  5482  1072                     l10088:	
  5483                           ;main.c: 67: lcd_clear();
  5484  1072  160A  158A  27C1   	fcall	_lcd_clear
              160A  118A         
  5485                           	line	69
  5486                           	
  5487  1077                     l10090:	
  5488                           ;main.c: 69: TRISB0 = 1;
  5489  1077  1683               	bsf	status, 5	;RP0=1, select bank1
  5490  1078  1406               	bsf	(1072/8)^080h,(1072)&7
  5491                           	line	70
  5492                           	
  5493  1079                     l10092:	
  5494                           ;main.c: 70: TRISC0 = 0;
  5495  1079  1007               	bcf	(1080/8)^080h,(1080)&7
  5496                           	line	73
  5497                           	
  5498  107A                     l10094:	
  5499                           ;main.c: 73: ser_init();
  5500  107A  120A  118A  27E7   	fcall	_ser_init
              160A  118A         
  5501                           	line	78
  5502                           	
  5503  107F                     l10096:	
  5504                           ;main.c: 78: TRISC &= ~0b01000000;
  5505  107F  1683               	bsf	status, 5	;RP0=1, select bank1
  5506  1080  1307               	bcf	(135)^080h+(6/8),(6)&7	;volatile
  5507                           	line	80
  5508                           	
  5509  1081                     l10098:	
  5510                           ;main.c: 80: PEIE = 1;
  5511  1081  170B               	bsf	(94/8),(94)&7
  5512                           	line	81
  5513                           	
  5514  1082                     l10100:	
  5515                           ;main.c: 81: GIE = 1;
  5516  1082  178B               	bsf	(95/8),(95)&7
  5517                           	line	84
  5518                           	
  5519  1083                     l10102:	
  5520                           ;main.c: 84: nRBPU = 1;
  5521  1083  1781               	bsf	(1039/8)^080h,(1039)&7
  5522                           	line	88
  5523                           	
  5524  1084                     l1432:	
  5525  1084  0008               	return
  5526                           	opt stack 0
  5527                           GLOBAL	__end_of_initialize
  5528  1085                     	__end_of_initialize:
  5529 ;; =============== function _initialize ends ============
  5530                           
  5531                           	signat	_initialize,88
  5532                           	global	_indicator
  5533                           psect	text573,local,class=CODE,delta=2
  5534                           global __ptext573
  5535  10B2                     __ptext573:
  5536                           
  5537 ;; *************** function _indicator *****************
  5538 ;; Defined at:
  5539 ;;		line 53 in file "C:\Users\vboxuser\Desktop\lc-meter\src\julznc\display.c"
  5540 ;; Parameters:    Size  Location     Type
  5541 ;;  indicate        1    wreg     unsigned char 
  5542 ;; Auto vars:     Size  Location     Type
  5543 ;;  indicate        1   11[COMMON] unsigned char 
  5544 ;; Return value:  Size  Location     Type
  5545 ;;		None               void
  5546 ;; Registers used:
  5547 ;;		wreg, fsr0l, fsr0h, status,2, status,0, btemp+1, pclath, cstack
  5548 ;; Tracked objects:
  5549 ;;		On entry : 0/0
  5550 ;;		On exit  : 60/0
  5551 ;;		Unchanged: 0/0
  5552 ;; Data sizes:     COMMON   BANK0   BANK1   BANK3   BANK2
  5553 ;;      Params:         0       0       0       0       0
  5554 ;;      Locals:         1       0       0       0       0
  5555 ;;      Temps:          0       0       0       0       0
  5556 ;;      Totals:         1       0       0       0       0
  5557 ;;Total ram usage:        1 bytes
  5558 ;; Hardware stack levels used:    1
  5559 ;; Hardware stack levels required when called:    3
  5560 ;; This function calls:
  5561 ;;		_lcd_gotoxy
  5562 ;;		_lcd_send
  5563 ;;		_lcd_puts
  5564 ;; This function is called by:
  5565 ;;		_main
  5566 ;; This function uses a non-reentrant model
  5567 ;;
  5568                           psect	text573
  5569                           	file	"C:\Users\vboxuser\Desktop\lc-meter\src\julznc\display.c"
  5570                           	line	53
  5571                           	global	__size_of_indicator
  5572  004A                     	__size_of_indicator	equ	__end_of_indicator-_indicator
  5573                           	
  5574  10B2                     _indicator:	
  5575                           	opt	stack 4
  5576                           ; Regs used in _indicator: [wreg-fsr0h+status,2+status,0+btemp+1+pclath+cstack]
  5577                           ;indicator@indicate stored from wreg
  5578  10B2  00FB               	movwf	(indicator@indicate)
  5579                           	line	54
  5580                           	
  5581  10B3                     l10064:	
  5582                           ;display.c: 54: if(indicate) {
  5583  10B3  087B               	movf	(indicator@indicate),w
  5584  10B4  1D03               	skipz
  5585  10B5  28B7               	goto	u1950
  5586  10B6  28E9               	goto	l10068
  5587  10B7                     u1950:
  5588                           	line	55
  5589                           	
  5590  10B7                     l10066:	
  5591                           ;display.c: 55: lcd_gotoxy(70, 4);
  5592  10B7  3004               	movlw	04h
  5593  10B8  00F8               	movwf	(?_lcd_gotoxy)
  5594  10B9  01F9               	clrf	(?_lcd_gotoxy+1)
  5595  10BA  3046               	movlw	(046h)
  5596  10BB  120A  118A  20ED   	fcall	_lcd_gotoxy
              160A  118A         
  5597                           	line	56
  5598                           ;display.c: 56: lcd_send(0x1C, 1);
  5599  10C0  01F6               	clrf	(?_lcd_send)
  5600  10C1  0AF6               	incf	(?_lcd_send),f
  5601  10C2  301C               	movlw	(01Ch)
  5602  10C3  160A  118A  2472   	fcall	_lcd_send
              160A  118A         
  5603                           	line	57
  5604                           ;display.c: 57: lcd_send(0x3E, 1);
  5605  10C8  01F6               	clrf	(?_lcd_send)
  5606  10C9  0AF6               	incf	(?_lcd_send),f
  5607  10CA  303E               	movlw	(03Eh)
  5608  10CB  160A  118A  2472   	fcall	_lcd_send
              160A  118A         
  5609                           	line	58
  5610                           ;display.c: 58: lcd_send(0x36, 1);
  5611  10D0  01F6               	clrf	(?_lcd_send)
  5612  10D1  0AF6               	incf	(?_lcd_send),f
  5613  10D2  3036               	movlw	(036h)
  5614  10D3  160A  118A  2472   	fcall	_lcd_send
              160A  118A         
  5615                           	line	59
  5616                           ;display.c: 59: lcd_send(0x3E, 1);
  5617  10D8  01F6               	clrf	(?_lcd_send)
  5618  10D9  0AF6               	incf	(?_lcd_send),f
  5619  10DA  303E               	movlw	(03Eh)
  5620  10DB  160A  118A  2472   	fcall	_lcd_send
              160A  118A         
  5621                           	line	60
  5622                           ;display.c: 60: lcd_send(0x1C, 1);
  5623  10E0  01F6               	clrf	(?_lcd_send)
  5624  10E1  0AF6               	incf	(?_lcd_send),f
  5625  10E2  301C               	movlw	(01Ch)
  5626  10E3  160A  118A  2472   	fcall	_lcd_send
              160A  118A         
  5627                           	line	61
  5628                           ;display.c: 61: } else {
  5629  10E8  28FB               	goto	l43
  5630                           	line	62
  5631                           	
  5632  10E9                     l10068:	
  5633                           ;display.c: 62: lcd_gotoxy(70, 4);
  5634  10E9  3004               	movlw	04h
  5635  10EA  00F8               	movwf	(?_lcd_gotoxy)
  5636  10EB  01F9               	clrf	(?_lcd_gotoxy+1)
  5637  10EC  3046               	movlw	(046h)
  5638  10ED  120A  118A  20ED   	fcall	_lcd_gotoxy
              160A  118A         
  5639                           	line	63
  5640                           	
  5641  10F2                     l10070:	
  5642                           ;display.c: 63: lcd_puts(" ");
  5643  10F2  301A               	movlw	low(STR_3|8000h)
  5644  10F3  00F9               	movwf	(?_lcd_puts)
  5645  10F4  3087               	movlw	high(STR_3|8000h)
  5646  10F5  00FA               	movwf	((?_lcd_puts))+1
  5647  10F6  160A  118A  201E   	fcall	_lcd_puts
              160A  118A         
  5648                           	line	65
  5649                           	
  5650  10FB                     l43:	
  5651  10FB  0008               	return
  5652                           	opt stack 0
  5653                           GLOBAL	__end_of_indicator
  5654  10FC                     	__end_of_indicator:
  5655 ;; =============== function _indicator ends ============
  5656                           
  5657                           	signat	_indicator,4216
  5658                           	global	_display_reading
  5659                           psect	text574,local,class=CODE,delta=2
  5660                           global __ptext574
  5661  15BF                     __ptext574:
  5662                           
  5663 ;; *************** function _display_reading *****************
  5664 ;; Defined at:
  5665 ;;		line 28 in file "C:\Users\vboxuser\Desktop\lc-meter\src\julznc\display.c"
  5666 ;; Parameters:    Size  Location     Type
  5667 ;;  measurement     2    4[BANK0 ] unsigned int 
  5668 ;; Auto vars:     Size  Location     Type
  5669 ;;		None
  5670 ;; Return value:  Size  Location     Type
  5671 ;;		None               void
  5672 ;; Registers used:
  5673 ;;		wreg, fsr0l, fsr0h, status,2, status,0, btemp+1, pclath, cstack
  5674 ;; Tracked objects:
  5675 ;;		On entry : 60/0
  5676 ;;		On exit  : 60/0
  5677 ;;		Unchanged: 0/0
  5678 ;; Data sizes:     COMMON   BANK0   BANK1   BANK3   BANK2
  5679 ;;      Params:         0       2       0       0       0
  5680 ;;      Locals:         0       0       0       0       0
  5681 ;;      Temps:          0       0       0       0       0
  5682 ;;      Totals:         0       2       0       0       0
  5683 ;;Total ram usage:        2 bytes
  5684 ;; Hardware stack levels used:    1
  5685 ;; Hardware stack levels required when called:    3
  5686 ;; This function calls:
  5687 ;;		_lcd_gotoxy
  5688 ;;		_lcd_puts
  5689 ;;		_lcd_send
  5690 ;;		___lwdiv
  5691 ;;		_display_digit
  5692 ;;		___lwmod
  5693 ;; This function is called by:
  5694 ;;		_measure_capacitance
  5695 ;;		_measure_inductance
  5696 ;; This function uses a non-reentrant model
  5697 ;;
  5698                           psect	text574
  5699                           	file	"C:\Users\vboxuser\Desktop\lc-meter\src\julznc\display.c"
  5700                           	line	28
  5701                           	global	__size_of_display_reading
  5702  011F                     	__size_of_display_reading	equ	__end_of_display_reading-_display_reading
  5703                           	
  5704  15BF                     _display_reading:	
  5705                           	opt	stack 3
  5706                           ; Regs used in _display_reading: [wreg-fsr0h+status,2+status,0+btemp+1+pclath+cstack]
  5707                           	line	30
  5708                           	
  5709  15BF                     l10040:	
  5710                           ;display.c: 30: lcd_gotoxy(0, 2);
  5711  15BF  3002               	movlw	02h
  5712  15C0  00F8               	movwf	(?_lcd_gotoxy)
  5713  15C1  01F9               	clrf	(?_lcd_gotoxy+1)
  5714  15C2  3000               	movlw	(0)
  5715  15C3  120A  118A  20ED   	fcall	_lcd_gotoxy
              160A  118A         
  5716                           	line	31
  5717                           	
  5718  15C8                     l10042:	
  5719                           ;display.c: 31: lcd_puts("         ");
  5720  15C8  3012               	movlw	low(STR_1|8000h)
  5721  15C9  00F9               	movwf	(?_lcd_puts)
  5722  15CA  3087               	movlw	high(STR_1|8000h)
  5723  15CB  00FA               	movwf	((?_lcd_puts))+1
  5724  15CC  160A  118A  201E   	fcall	_lcd_puts
              160A  118A         
  5725                           	line	32
  5726                           	
  5727  15D1                     l10044:	
  5728                           ;display.c: 32: lcd_gotoxy(0, 3);
  5729  15D1  3003               	movlw	03h
  5730  15D2  00F8               	movwf	(?_lcd_gotoxy)
  5731  15D3  01F9               	clrf	(?_lcd_gotoxy+1)
  5732  15D4  3000               	movlw	(0)
  5733  15D5  120A  118A  20ED   	fcall	_lcd_gotoxy
              160A  118A         
  5734                           	line	33
  5735                           ;display.c: 33: lcd_puts("         ");
  5736  15DA  3012               	movlw	low(STR_2|8000h)
  5737  15DB  00F9               	movwf	(?_lcd_puts)
  5738  15DC  3087               	movlw	high(STR_2|8000h)
  5739  15DD  00FA               	movwf	((?_lcd_puts))+1
  5740  15DE  160A  118A  201E   	fcall	_lcd_puts
              160A  118A         
  5741                           	line	35
  5742                           	
  5743  15E3                     l10046:	
  5744                           ;display.c: 35: lcd_gotoxy(35, 3);
  5745  15E3  3003               	movlw	03h
  5746  15E4  00F8               	movwf	(?_lcd_gotoxy)
  5747  15E5  01F9               	clrf	(?_lcd_gotoxy+1)
  5748  15E6  3023               	movlw	(023h)
  5749  15E7  120A  118A  20ED   	fcall	_lcd_gotoxy
              160A  118A         
  5750                           	line	36
  5751                           	
  5752  15EC                     l10048:	
  5753                           ;display.c: 36: lcd_send(0x70, 1);
  5754  15EC  01F6               	clrf	(?_lcd_send)
  5755  15ED  0AF6               	incf	(?_lcd_send),f
  5756  15EE  3070               	movlw	(070h)
  5757  15EF  160A  118A  2472   	fcall	_lcd_send
              160A  118A         
  5758                           	line	37
  5759                           	
  5760  15F4                     l10050:	
  5761                           ;display.c: 37: lcd_send(0x70, 1);
  5762  15F4  01F6               	clrf	(?_lcd_send)
  5763  15F5  0AF6               	incf	(?_lcd_send),f
  5764  15F6  3070               	movlw	(070h)
  5765  15F7  160A  118A  2472   	fcall	_lcd_send
              160A  118A         
  5766                           	line	38
  5767                           	
  5768  15FC                     l10052:	
  5769                           ;display.c: 38: lcd_send(0x70, 1);
  5770  15FC  01F6               	clrf	(?_lcd_send)
  5771  15FD  0AF6               	incf	(?_lcd_send),f
  5772  15FE  3070               	movlw	(070h)
  5773  15FF  160A  118A  2472   	fcall	_lcd_send
              160A  118A         
  5774                           	line	40
  5775                           	
  5776  1604                     l10054:	
  5777                           ;display.c: 40: if(measurement / 10000 > 0)
  5778  1604  3010               	movlw	low(02710h)
  5779  1605  00F0               	movwf	(?___lwdiv)
  5780  1606  3027               	movlw	high(02710h)
  5781  1607  00F1               	movwf	((?___lwdiv))+1
  5782  1608  0825               	movf	(display_reading@measurement+1),w
  5783  1609  00F3               	movwf	1+(?___lwdiv)+02h
  5784  160A  0824               	movf	(display_reading@measurement),w
  5785  160B  00F2               	movwf	0+(?___lwdiv)+02h
  5786  160C  120A  118A  20BA   	fcall	___lwdiv
              160A  118A         
  5787  1611  0871               	movf	(1+(?___lwdiv)),w
  5788  1612  0470               	iorwf	(0+(?___lwdiv)),w
  5789  1613  1903               	skipnz
  5790  1614  2E16               	goto	u1921
  5791  1615  2E17               	goto	u1920
  5792  1616                     u1921:
  5793  1616  2E2E               	goto	l10058
  5794  1617                     u1920:
  5795                           	line	41
  5796                           	
  5797  1617                     l10056:	
  5798                           ;display.c: 41: display_digit(3, 5, measurement / 10000);
  5799  1617  3005               	movlw	(05h)
  5800  1618  00FC               	movwf	(?_display_digit)
  5801  1619  3010               	movlw	low(02710h)
  5802  161A  00F0               	movwf	(?___lwdiv)
  5803  161B  3027               	movlw	high(02710h)
  5804  161C  00F1               	movwf	((?___lwdiv))+1
  5805  161D  0825               	movf	(display_reading@measurement+1),w
  5806  161E  00F3               	movwf	1+(?___lwdiv)+02h
  5807  161F  0824               	movf	(display_reading@measurement),w
  5808  1620  00F2               	movwf	0+(?___lwdiv)+02h
  5809  1621  120A  118A  20BA   	fcall	___lwdiv
              160A  118A         
  5810  1626  0870               	movf	(0+(?___lwdiv)),w
  5811  1627  00FD               	movwf	0+(?_display_digit)+01h
  5812  1628  3003               	movlw	(03h)
  5813  1629  120A  158A  2006   	fcall	_display_digit
              160A  118A         
  5814                           	line	43
  5815                           	
  5816  162E                     l10058:	
  5817                           ;display.c: 43: if(((measurement / 1000) % 10 > 0) || (measurement / 10000 > 0))
  5818  162E  300A               	movlw	0Ah
  5819  162F  00F7               	movwf	(?___lwmod)
  5820  1630  01F8               	clrf	(?___lwmod+1)
  5821  1631  30E8               	movlw	low(03E8h)
  5822  1632  00F0               	movwf	(?___lwdiv)
  5823  1633  3003               	movlw	high(03E8h)
  5824  1634  00F1               	movwf	((?___lwdiv))+1
  5825  1635  0825               	movf	(display_reading@measurement+1),w
  5826  1636  00F3               	movwf	1+(?___lwdiv)+02h
  5827  1637  0824               	movf	(display_reading@measurement),w
  5828  1638  00F2               	movwf	0+(?___lwdiv)+02h
  5829  1639  120A  118A  20BA   	fcall	___lwdiv
              160A  118A         
  5830  163E  0871               	movf	(1+(?___lwdiv)),w
  5831  163F  00FA               	movwf	1+(?___lwmod)+02h
  5832  1640  0870               	movf	(0+(?___lwdiv)),w
  5833  1641  00F9               	movwf	0+(?___lwmod)+02h
  5834  1642  160A  118A  2085   	fcall	___lwmod
              160A  118A         
  5835  1647  0878               	movf	((1+(?___lwmod))),w
  5836  1648  0477               	iorwf	((0+(?___lwmod))),w
  5837  1649  1D03               	skipz
  5838  164A  2E4C               	goto	u1931
  5839  164B  2E4D               	goto	u1930
  5840  164C                     u1931:
  5841  164C  2E60               	goto	l10062
  5842  164D                     u1930:
  5843                           	
  5844  164D                     l10060:	
  5845  164D  3010               	movlw	low(02710h)
  5846  164E  00F0               	movwf	(?___lwdiv)
  5847  164F  3027               	movlw	high(02710h)
  5848  1650  00F1               	movwf	((?___lwdiv))+1
  5849  1651  0825               	movf	(display_reading@measurement+1),w
  5850  1652  00F3               	movwf	1+(?___lwdiv)+02h
  5851  1653  0824               	movf	(display_reading@measurement),w
  5852  1654  00F2               	movwf	0+(?___lwdiv)+02h
  5853  1655  120A  118A  20BA   	fcall	___lwdiv
              160A  118A         
  5854  165A  0871               	movf	(1+(?___lwdiv)),w
  5855  165B  0470               	iorwf	(0+(?___lwdiv)),w
  5856  165C  1903               	skipnz
  5857  165D  2E5F               	goto	u1941
  5858  165E  2E60               	goto	u1940
  5859  165F                     u1941:
  5860  165F  2E83               	goto	l35
  5861  1660                     u1940:
  5862                           	line	44
  5863                           	
  5864  1660                     l10062:	
  5865                           ;display.c: 44: display_digit(3, 15, (measurement / 1000) % 10);
  5866  1660  300F               	movlw	(0Fh)
  5867  1661  00FC               	movwf	(?_display_digit)
  5868  1662  300A               	movlw	0Ah
  5869  1663  00F7               	movwf	(?___lwmod)
  5870  1664  01F8               	clrf	(?___lwmod+1)
  5871  1665  30E8               	movlw	low(03E8h)
  5872  1666  00F0               	movwf	(?___lwdiv)
  5873  1667  3003               	movlw	high(03E8h)
  5874  1668  00F1               	movwf	((?___lwdiv))+1
  5875  1669  0825               	movf	(display_reading@measurement+1),w
  5876  166A  00F3               	movwf	1+(?___lwdiv)+02h
  5877  166B  0824               	movf	(display_reading@measurement),w
  5878  166C  00F2               	movwf	0+(?___lwdiv)+02h
  5879  166D  120A  118A  20BA   	fcall	___lwdiv
              160A  118A         
  5880  1672  0871               	movf	(1+(?___lwdiv)),w
  5881  1673  00FA               	movwf	1+(?___lwmod)+02h
  5882  1674  0870               	movf	(0+(?___lwdiv)),w
  5883  1675  00F9               	movwf	0+(?___lwmod)+02h
  5884  1676  160A  118A  2085   	fcall	___lwmod
              160A  118A         
  5885  167B  0877               	movf	(0+(?___lwmod)),w
  5886  167C  00FD               	movwf	0+(?_display_digit)+01h
  5887  167D  3003               	movlw	(03h)
  5888  167E  120A  158A  2006   	fcall	_display_digit
              160A  118A         
  5889                           	
  5890  1683                     l35:	
  5891                           	line	46
  5892                           ;display.c: 46: display_digit(3, 25, (measurement / 100) % 10);
  5893  1683  3019               	movlw	(019h)
  5894  1684  00FC               	movwf	(?_display_digit)
  5895  1685  300A               	movlw	0Ah
  5896  1686  00F7               	movwf	(?___lwmod)
  5897  1687  01F8               	clrf	(?___lwmod+1)
  5898  1688  3064               	movlw	064h
  5899  1689  00F0               	movwf	(?___lwdiv)
  5900  168A  01F1               	clrf	(?___lwdiv+1)
  5901  168B  0825               	movf	(display_reading@measurement+1),w
  5902  168C  00F3               	movwf	1+(?___lwdiv)+02h
  5903  168D  0824               	movf	(display_reading@measurement),w
  5904  168E  00F2               	movwf	0+(?___lwdiv)+02h
  5905  168F  120A  118A  20BA   	fcall	___lwdiv
              160A  118A         
  5906  1694  0871               	movf	(1+(?___lwdiv)),w
  5907  1695  00FA               	movwf	1+(?___lwmod)+02h
  5908  1696  0870               	movf	(0+(?___lwdiv)),w
  5909  1697  00F9               	movwf	0+(?___lwmod)+02h
  5910  1698  160A  118A  2085   	fcall	___lwmod
              160A  118A         
  5911  169D  0877               	movf	(0+(?___lwmod)),w
  5912  169E  00FD               	movwf	0+(?_display_digit)+01h
  5913  169F  3003               	movlw	(03h)
  5914  16A0  120A  158A  2006   	fcall	_display_digit
              160A  118A         
  5915                           	line	48
  5916                           ;display.c: 48: display_digit(3, 40, (measurement / 10) % 10);
  5917  16A5  3028               	movlw	(028h)
  5918  16A6  00FC               	movwf	(?_display_digit)
  5919  16A7  300A               	movlw	0Ah
  5920  16A8  00F7               	movwf	(?___lwmod)
  5921  16A9  01F8               	clrf	(?___lwmod+1)
  5922  16AA  300A               	movlw	0Ah
  5923  16AB  00F0               	movwf	(?___lwdiv)
  5924  16AC  01F1               	clrf	(?___lwdiv+1)
  5925  16AD  0825               	movf	(display_reading@measurement+1),w
  5926  16AE  00F3               	movwf	1+(?___lwdiv)+02h
  5927  16AF  0824               	movf	(display_reading@measurement),w
  5928  16B0  00F2               	movwf	0+(?___lwdiv)+02h
  5929  16B1  120A  118A  20BA   	fcall	___lwdiv
              160A  118A         
  5930  16B6  0871               	movf	(1+(?___lwdiv)),w
  5931  16B7  00FA               	movwf	1+(?___lwmod)+02h
  5932  16B8  0870               	movf	(0+(?___lwdiv)),w
  5933  16B9  00F9               	movwf	0+(?___lwmod)+02h
  5934  16BA  160A  118A  2085   	fcall	___lwmod
              160A  118A         
  5935  16BF  0877               	movf	(0+(?___lwmod)),w
  5936  16C0  00FD               	movwf	0+(?_display_digit)+01h
  5937  16C1  3003               	movlw	(03h)
  5938  16C2  120A  158A  2006   	fcall	_display_digit
              160A  118A         
  5939                           	line	50
  5940                           ;display.c: 50: display_digit(3, 50, measurement % 10);
  5941  16C7  3032               	movlw	(032h)
  5942  16C8  00FC               	movwf	(?_display_digit)
  5943  16C9  300A               	movlw	0Ah
  5944  16CA  00F7               	movwf	(?___lwmod)
  5945  16CB  01F8               	clrf	(?___lwmod+1)
  5946  16CC  0825               	movf	(display_reading@measurement+1),w
  5947  16CD  00FA               	movwf	1+(?___lwmod)+02h
  5948  16CE  0824               	movf	(display_reading@measurement),w
  5949  16CF  00F9               	movwf	0+(?___lwmod)+02h
  5950  16D0  160A  118A  2085   	fcall	___lwmod
              160A  118A         
  5951  16D5  0877               	movf	(0+(?___lwmod)),w
  5952  16D6  00FD               	movwf	0+(?_display_digit)+01h
  5953  16D7  3003               	movlw	(03h)
  5954  16D8  120A  158A  2006   	fcall	_display_digit
              160A  118A         
  5955                           	line	51
  5956                           	
  5957  16DD                     l38:	
  5958  16DD  0008               	return
  5959                           	opt stack 0
  5960                           GLOBAL	__end_of_display_reading
  5961  16DE                     	__end_of_display_reading:
  5962 ;; =============== function _display_reading ends ============
  5963                           
  5964                           	signat	_display_reading,4216
  5965                           	global	_lcd_clear
  5966                           psect	text575,local,class=CODE,delta=2
  5967                           global __ptext575
  5968  1FC1                     __ptext575:
  5969                           
  5970 ;; *************** function _lcd_clear *****************
  5971 ;; Defined at:
  5972 ;;		line 228 in file "C:\Users\vboxuser\Desktop\lc-meter\src\julznc\lcd3310.c"
  5973 ;; Parameters:    Size  Location     Type
  5974 ;;		None
  5975 ;; Auto vars:     Size  Location     Type
  5976 ;;  i               2   11[COMMON] unsigned int 
  5977 ;; Return value:  Size  Location     Type
  5978 ;;		None               void
  5979 ;; Registers used:
  5980 ;;		wreg, status,2, status,0, pclath, cstack
  5981 ;; Tracked objects:
  5982 ;;		On entry : 0/0
  5983 ;;		On exit  : 60/0
  5984 ;;		Unchanged: 0/0
  5985 ;; Data sizes:     COMMON   BANK0   BANK1   BANK3   BANK2
  5986 ;;      Params:         0       0       0       0       0
  5987 ;;      Locals:         2       0       0       0       0
  5988 ;;      Temps:          0       0       0       0       0
  5989 ;;      Totals:         2       0       0       0       0
  5990 ;;Total ram usage:        2 bytes
  5991 ;; Hardware stack levels used:    1
  5992 ;; Hardware stack levels required when called:    2
  5993 ;; This function calls:
  5994 ;;		_lcd_gotoxy
  5995 ;;		_lcd_send
  5996 ;; This function is called by:
  5997 ;;		_main
  5998 ;;		_initialize
  5999 ;;		_calibrate
  6000 ;; This function uses a non-reentrant model
  6001 ;;
  6002                           psect	text575
  6003                           	file	"C:\Users\vboxuser\Desktop\lc-meter\src\julznc\lcd3310.c"
  6004                           	line	228
  6005                           	global	__size_of_lcd_clear
  6006  001F                     	__size_of_lcd_clear	equ	__end_of_lcd_clear-_lcd_clear
  6007                           	
  6008  1FC1                     _lcd_clear:	
  6009                           	opt	stack 5
  6010                           ; Regs used in _lcd_clear: [wreg+status,2+status,0+pclath+cstack]
  6011                           	line	231
  6012                           	
  6013  1FC1                     l10026:	
  6014                           ;lcd3310.c: 229: unsigned int i;
  6015                           ;lcd3310.c: 231: lcd_gotoxy(0, 0);
  6016  1FC1  01F8               	clrf	(?_lcd_gotoxy)
  6017  1FC2  01F9               	clrf	(?_lcd_gotoxy+1)
  6018  1FC3  3000               	movlw	(0)
  6019  1FC4  120A  118A  20ED   	fcall	_lcd_gotoxy
              160A  158A         
  6020                           	line	232
  6021                           	
  6022  1FC9                     l10028:	
  6023                           ;lcd3310.c: 232: for(i = 0; i < 504; ++i) {
  6024  1FC9  01FB               	clrf	(lcd_clear@i)
  6025  1FCA  01FC               	clrf	(lcd_clear@i+1)
  6026                           	line	233
  6027                           	
  6028  1FCB                     l10034:	
  6029                           ;lcd3310.c: 233: lcd_send(0, 1);
  6030  1FCB  01F6               	clrf	(?_lcd_send)
  6031  1FCC  0AF6               	incf	(?_lcd_send),f
  6032  1FCD  3000               	movlw	(0)
  6033  1FCE  160A  118A  2472   	fcall	_lcd_send
              160A  158A         
  6034                           	line	232
  6035                           	
  6036  1FD3                     l10036:	
  6037  1FD3  0AFB               	incf	(lcd_clear@i),f
  6038  1FD4  1903               	skipnz
  6039  1FD5  0AFC               	incf	(lcd_clear@i+1),f
  6040                           	
  6041  1FD6                     l10038:	
  6042  1FD6  3001               	movlw	high(01F8h)
  6043  1FD7  027C               	subwf	(lcd_clear@i+1),w
  6044  1FD8  30F8               	movlw	low(01F8h)
  6045  1FD9  1903               	skipnz
  6046  1FDA  027B               	subwf	(lcd_clear@i),w
  6047  1FDB  1C03               	skipc
  6048  1FDC  2FDE               	goto	u1911
  6049  1FDD  2FDF               	goto	u1910
  6050  1FDE                     u1911:
  6051  1FDE  2FCB               	goto	l10034
  6052  1FDF                     u1910:
  6053                           	line	235
  6054                           	
  6055  1FDF                     l694:	
  6056  1FDF  0008               	return
  6057                           	opt stack 0
  6058                           GLOBAL	__end_of_lcd_clear
  6059  1FE0                     	__end_of_lcd_clear:
  6060 ;; =============== function _lcd_clear ends ============
  6061                           
  6062                           	signat	_lcd_clear,88
  6063                           	global	_lcd_puts
  6064                           psect	text576,local,class=CODE,delta=2
  6065                           global __ptext576
  6066  101E                     __ptext576:
  6067                           
  6068 ;; *************** function _lcd_puts *****************
  6069 ;; Defined at:
  6070 ;;		line 259 in file "C:\Users\vboxuser\Desktop\lc-meter\src\julznc\lcd3310.c"
  6071 ;; Parameters:    Size  Location     Type
  6072 ;;  s               2    9[COMMON] PTR const unsigned char 
  6073 ;;		 -> STR_9(13), STR_8(13), STR_7(14), STR_6(13), 
  6074 ;;		 -> STR_4(7), STR_3(2), STR_2(10), STR_1(10), 
  6075 ;; Auto vars:     Size  Location     Type
  6076 ;;		None
  6077 ;; Return value:  Size  Location     Type
  6078 ;;		None               void
  6079 ;; Registers used:
  6080 ;;		wreg, fsr0l, fsr0h, status,2, status,0, btemp+1, pclath, cstack
  6081 ;; Tracked objects:
  6082 ;;		On entry : 60/0
  6083 ;;		On exit  : 60/0
  6084 ;;		Unchanged: 0/0
  6085 ;; Data sizes:     COMMON   BANK0   BANK1   BANK3   BANK2
  6086 ;;      Params:         2       0       0       0       0
  6087 ;;      Locals:         0       0       0       0       0
  6088 ;;      Temps:          0       0       0       0       0
  6089 ;;      Totals:         2       0       0       0       0
  6090 ;;Total ram usage:        2 bytes
  6091 ;; Hardware stack levels used:    1
  6092 ;; Hardware stack levels required when called:    2
  6093 ;; This function calls:
  6094 ;;		_lcd_putch
  6095 ;; This function is called by:
  6096 ;;		_display_reading
  6097 ;;		_indicator
  6098 ;;		_main
  6099 ;;		_calibrate
  6100 ;;		_measure_capacitance
  6101 ;;		_measure_inductance
  6102 ;; This function uses a non-reentrant model
  6103 ;;
  6104                           psect	text576
  6105                           	file	"C:\Users\vboxuser\Desktop\lc-meter\src\julznc\lcd3310.c"
  6106                           	line	259
  6107                           	global	__size_of_lcd_puts
  6108  0021                     	__size_of_lcd_puts	equ	__end_of_lcd_puts-_lcd_puts
  6109                           	
  6110  101E                     _lcd_puts:	
  6111                           	opt	stack 4
  6112                           ; Regs used in _lcd_puts: [wreg-fsr0h+status,2+status,0+btemp+1+pclath+cstack]
  6113                           	line	260
  6114                           	
  6115  101E                     l10018:	
  6116                           ;lcd3310.c: 260: while(*s) {
  6117  101E  2830               	goto	l10024
  6118                           	line	261
  6119                           	
  6120  101F                     l10020:	
  6121                           ;lcd3310.c: 261: lcd_putch(*s);
  6122  101F  087A               	movf	(lcd_puts@s+1),w
  6123  1020  00FF               	movwf	btemp+1
  6124  1021  0879               	movf	(lcd_puts@s),w
  6125  1022  0084               	movwf	fsr0
  6126  1023  120A  118A  2100   	fcall	stringtab
              160A  118A         
  6127  1028  160A  118A  250D   	fcall	_lcd_putch
              160A  118A         
  6128                           	line	262
  6129                           	
  6130  102D                     l10022:	
  6131                           ;lcd3310.c: 262: ++s;
  6132  102D  0AF9               	incf	(lcd_puts@s),f
  6133  102E  1903               	skipnz
  6134  102F  0AFA               	incf	(lcd_puts@s+1),f
  6135                           	line	260
  6136                           	
  6137  1030                     l10024:	
  6138  1030  087A               	movf	(lcd_puts@s+1),w
  6139  1031  00FF               	movwf	btemp+1
  6140  1032  0879               	movf	(lcd_puts@s),w
  6141  1033  0084               	movwf	fsr0
  6142  1034  120A  118A  2100   	fcall	stringtab
              160A  118A         
  6143  1039  3800               	iorlw	0
  6144  103A  1D03               	skipz
  6145  103B  283D               	goto	u1901
  6146  103C  283E               	goto	u1900
  6147  103D                     u1901:
  6148  103D  281F               	goto	l10020
  6149  103E                     u1900:
  6150                           	line	265
  6151                           	
  6152  103E                     l709:	
  6153  103E  0008               	return
  6154                           	opt stack 0
  6155                           GLOBAL	__end_of_lcd_puts
  6156  103F                     	__end_of_lcd_puts:
  6157 ;; =============== function _lcd_puts ends ============
  6158                           
  6159                           	signat	_lcd_puts,4216
  6160                           	global	_display_unit
  6161                           psect	text577,local,class=CODE,delta=2
  6162                           global __ptext577
  6163  12D4                     __ptext577:
  6164                           
  6165 ;; *************** function _display_unit *****************
  6166 ;; Defined at:
  6167 ;;		line 19 in file "C:\Users\vboxuser\Desktop\lc-meter\src\julznc\display.c"
  6168 ;; Parameters:    Size  Location     Type
  6169 ;;  unit            1    wreg     unsigned char 
  6170 ;; Auto vars:     Size  Location     Type
  6171 ;;  unit            1   11[COMMON] unsigned char 
  6172 ;;  i               1   12[COMMON] unsigned char 
  6173 ;; Return value:  Size  Location     Type
  6174 ;;		None               void
  6175 ;; Registers used:
  6176 ;;		wreg, fsr0l, fsr0h, status,2, status,0, btemp+1, pclath, cstack
  6177 ;; Tracked objects:
  6178 ;;		On entry : 60/20
  6179 ;;		On exit  : 60/0
  6180 ;;		Unchanged: 0/0
  6181 ;; Data sizes:     COMMON   BANK0   BANK1   BANK3   BANK2
  6182 ;;      Params:         0       0       0       0       0
  6183 ;;      Locals:         2       0       0       0       0
  6184 ;;      Temps:          0       4       0       0       0
  6185 ;;      Totals:         2       4       0       0       0
  6186 ;;Total ram usage:        6 bytes
  6187 ;; Hardware stack levels used:    1
  6188 ;; Hardware stack levels required when called:    2
  6189 ;; This function calls:
  6190 ;;		_lcd_gotoxy
  6191 ;;		___wmul
  6192 ;;		_lcd_send
  6193 ;; This function is called by:
  6194 ;;		_measure_capacitance
  6195 ;;		_measure_inductance
  6196 ;; This function uses a non-reentrant model
  6197 ;;
  6198                           psect	text577
  6199                           	file	"C:\Users\vboxuser\Desktop\lc-meter\src\julznc\display.c"
  6200                           	line	19
  6201                           	global	__size_of_display_unit
  6202  0079                     	__size_of_display_unit	equ	__end_of_display_unit-_display_unit
  6203                           	
  6204  12D4                     _display_unit:	
  6205                           	opt	stack 4
  6206                           ; Regs used in _display_unit: [wreg-fsr0h+status,2+status,0+btemp+1+pclath+cstack]
  6207                           ;display_unit@unit stored from wreg
  6208                           	line	21
  6209  12D4  00FB               	movwf	(display_unit@unit)
  6210                           	
  6211  12D5                     l9990:	
  6212                           ;display.c: 20: unsigned char i;
  6213                           ;display.c: 21: lcd_gotoxy(60, 2);
  6214  12D5  3002               	movlw	02h
  6215  12D6  00F8               	movwf	(?_lcd_gotoxy)
  6216  12D7  01F9               	clrf	(?_lcd_gotoxy+1)
  6217  12D8  303C               	movlw	(03Ch)
  6218  12D9  120A  118A  20ED   	fcall	_lcd_gotoxy
              160A  118A         
  6219                           	line	22
  6220                           	
  6221  12DE                     l9992:	
  6222                           ;display.c: 22: for(i = 0; i < 18; i++) lcd_send(units[unit * 36 + i], 1);
  6223  12DE  01FC               	clrf	(display_unit@i)
  6224                           	
  6225  12DF                     l9998:	
  6226  12DF  01F6               	clrf	(?_lcd_send)
  6227  12E0  0AF6               	incf	(?_lcd_send),f
  6228  12E1  087B               	movf	(display_unit@unit),w
  6229  12E2  00F0               	movwf	(?___wmul)
  6230  12E3  01F1               	clrf	(?___wmul+1)
  6231  12E4  3024               	movlw	024h
  6232  12E5  00F2               	movwf	0+(?___wmul)+02h
  6233  12E6  01F3               	clrf	1+(?___wmul)+02h
  6234  12E7  160A  118A  2001   	fcall	___wmul
              160A  118A         
  6235  12EC  30D1               	movlw	low(_units|8000h)
  6236  12ED  00A0               	movwf	(??_display_unit+0)+0
  6237  12EE  3084               	movlw	high(_units|8000h)
  6238  12EF  00A1               	movwf	(??_display_unit+0)+0+1
  6239  12F0  0870               	movf	(0+(?___wmul)),w
  6240  12F1  0720               	addwf	0+(??_display_unit+0)+0,w
  6241  12F2  00A2               	movwf	(??_display_unit+2)+0
  6242  12F3  0871               	movf	(1+(?___wmul)),w
  6243  12F4  1803               	skipnc
  6244  12F5  0A71               	incf	(1+(?___wmul)),w
  6245  12F6  0721               	addwf	1+(??_display_unit+0)+0,w
  6246  12F7  00A3               	movwf	1+(??_display_unit+2)+0
  6247  12F8  087C               	movf	(display_unit@i),w
  6248  12F9  0722               	addwf	0+(??_display_unit+2)+0,w
  6249  12FA  0084               	movwf	fsr0
  6250  12FB  0823               	movf	1+(??_display_unit+2)+0,w
  6251  12FC  1803               	skipnc
  6252  12FD  0A23               	incf	1+(??_display_unit+2)+0,w
  6253  12FE  00FF               	movwf	btemp+1
  6254  12FF  120A  118A  2100   	fcall	stringtab
              160A  118A         
  6255  1304  160A  118A  2472   	fcall	_lcd_send
              160A  118A         
  6256                           	
  6257  1309                     l10000:	
  6258  1309  0AFC               	incf	(display_unit@i),f
  6259                           	
  6260  130A                     l10002:	
  6261  130A  3012               	movlw	(012h)
  6262  130B  027C               	subwf	(display_unit@i),w
  6263  130C  1C03               	skipc
  6264  130D  2B0F               	goto	u1881
  6265  130E  2B10               	goto	u1880
  6266  130F                     u1881:
  6267  130F  2ADF               	goto	l9998
  6268  1310                     u1880:
  6269                           	line	23
  6270                           	
  6271  1310                     l10004:	
  6272                           ;display.c: 23: lcd_gotoxy(60, 3);
  6273  1310  3003               	movlw	03h
  6274  1311  00F8               	movwf	(?_lcd_gotoxy)
  6275  1312  01F9               	clrf	(?_lcd_gotoxy+1)
  6276  1313  303C               	movlw	(03Ch)
  6277  1314  120A  118A  20ED   	fcall	_lcd_gotoxy
              160A  118A         
  6278                           	line	24
  6279                           	
  6280  1319                     l10006:	
  6281                           ;display.c: 24: for(i = 18; i < 36; i++) lcd_send(units[unit * 36 + i], 1);
  6282  1319  3012               	movlw	(012h)
  6283  131A  00FC               	movwf	(display_unit@i)
  6284                           	
  6285  131B                     l10012:	
  6286  131B  01F6               	clrf	(?_lcd_send)
  6287  131C  0AF6               	incf	(?_lcd_send),f
  6288  131D  087B               	movf	(display_unit@unit),w
  6289  131E  00F0               	movwf	(?___wmul)
  6290  131F  01F1               	clrf	(?___wmul+1)
  6291  1320  3024               	movlw	024h
  6292  1321  00F2               	movwf	0+(?___wmul)+02h
  6293  1322  01F3               	clrf	1+(?___wmul)+02h
  6294  1323  160A  118A  2001   	fcall	___wmul
              160A  118A         
  6295  1328  30D1               	movlw	low(_units|8000h)
  6296  1329  00A0               	movwf	(??_display_unit+0)+0
  6297  132A  3084               	movlw	high(_units|8000h)
  6298  132B  00A1               	movwf	(??_display_unit+0)+0+1
  6299  132C  0870               	movf	(0+(?___wmul)),w
  6300  132D  0720               	addwf	0+(??_display_unit+0)+0,w
  6301  132E  00A2               	movwf	(??_display_unit+2)+0
  6302  132F  0871               	movf	(1+(?___wmul)),w
  6303  1330  1803               	skipnc
  6304  1331  0A71               	incf	(1+(?___wmul)),w
  6305  1332  0721               	addwf	1+(??_display_unit+0)+0,w
  6306  1333  00A3               	movwf	1+(??_display_unit+2)+0
  6307  1334  087C               	movf	(display_unit@i),w
  6308  1335  0722               	addwf	0+(??_display_unit+2)+0,w
  6309  1336  0084               	movwf	fsr0
  6310  1337  0823               	movf	1+(??_display_unit+2)+0,w
  6311  1338  1803               	skipnc
  6312  1339  0A23               	incf	1+(??_display_unit+2)+0,w
  6313  133A  00FF               	movwf	btemp+1
  6314  133B  120A  118A  2100   	fcall	stringtab
              160A  118A         
  6315  1340  160A  118A  2472   	fcall	_lcd_send
              160A  118A         
  6316                           	
  6317  1345                     l10014:	
  6318  1345  0AFC               	incf	(display_unit@i),f
  6319                           	
  6320  1346                     l10016:	
  6321  1346  3024               	movlw	(024h)
  6322  1347  027C               	subwf	(display_unit@i),w
  6323  1348  1C03               	skipc
  6324  1349  2B4B               	goto	u1891
  6325  134A  2B4C               	goto	u1890
  6326  134B                     u1891:
  6327  134B  2B1B               	goto	l10012
  6328  134C                     u1890:
  6329                           	line	25
  6330                           	
  6331  134C                     l31:	
  6332  134C  0008               	return
  6333                           	opt stack 0
  6334                           GLOBAL	__end_of_display_unit
  6335  134D                     	__end_of_display_unit:
  6336 ;; =============== function _display_unit ends ============
  6337                           
  6338                           	signat	_display_unit,4216
  6339                           	global	_display_digit
  6340                           psect	text578,local,class=CODE,delta=2
  6341                           global __ptext578
  6342  0806                     __ptext578:
  6343                           
  6344 ;; *************** function _display_digit *****************
  6345 ;; Defined at:
  6346 ;;		line 4 in file "C:\Users\vboxuser\Desktop\lc-meter\src\julznc\display.c"
  6347 ;; Parameters:    Size  Location     Type
  6348 ;;  line            1    wreg     unsigned char 
  6349 ;;  column          1   12[COMMON] unsigned char 
  6350 ;;  digit           1   13[COMMON] unsigned char 
  6351 ;; Auto vars:     Size  Location     Type
  6352 ;;  line            1    2[BANK0 ] unsigned char 
  6353 ;;  i               1    3[BANK0 ] unsigned char 
  6354 ;; Return value:  Size  Location     Type
  6355 ;;		None               void
  6356 ;; Registers used:
  6357 ;;		wreg, fsr0l, fsr0h, status,2, status,0, btemp+1, pclath, cstack
  6358 ;; Tracked objects:
  6359 ;;		On entry : 60/0
  6360 ;;		On exit  : 60/0
  6361 ;;		Unchanged: 0/0
  6362 ;; Data sizes:     COMMON   BANK0   BANK1   BANK3   BANK2
  6363 ;;      Params:         2       0       0       0       0
  6364 ;;      Locals:         0       2       0       0       0
  6365 ;;      Temps:          0       2       0       0       0
  6366 ;;      Totals:         2       4       0       0       0
  6367 ;;Total ram usage:        6 bytes
  6368 ;; Hardware stack levels used:    1
  6369 ;; Hardware stack levels required when called:    2
  6370 ;; This function calls:
  6371 ;;		_lcd_gotoxy
  6372 ;;		_lcd_send
  6373 ;; This function is called by:
  6374 ;;		_display_reading
  6375 ;; This function uses a non-reentrant model
  6376 ;;
  6377                           psect	text578
  6378                           	file	"C:\Users\vboxuser\Desktop\lc-meter\src\julznc\display.c"
  6379                           	line	4
  6380                           	global	__size_of_display_digit
  6381  007A                     	__size_of_display_digit	equ	__end_of_display_digit-_display_digit
  6382                           	
  6383  0806                     _display_digit:	
  6384                           	opt	stack 3
  6385                           ; Regs used in _display_digit: [wreg-fsr0h+status,2+status,0+btemp+1+pclath+cstack]
  6386                           ;display_digit@line stored from wreg
  6387                           	line	6
  6388  0806  00A2               	movwf	(display_digit@line)
  6389                           	
  6390  0807                     l9950:	
  6391                           ;display.c: 5: unsigned char i;
  6392                           ;display.c: 6: if(line < 1 || line > 5)
  6393  0807  0822               	movf	(display_digit@line),w
  6394  0808  1D03               	skipz
  6395  0809  280B               	goto	u1820
  6396  080A  287F               	goto	l18
  6397  080B                     u1820:
  6398                           	
  6399  080B                     l9952:	
  6400  080B  3006               	movlw	(06h)
  6401  080C  0222               	subwf	(display_digit@line),w
  6402  080D  1C03               	skipc
  6403  080E  2810               	goto	u1831
  6404  080F  2811               	goto	u1830
  6405  0810                     u1831:
  6406  0810  2812               	goto	l9954
  6407  0811                     u1830:
  6408  0811  287F               	goto	l18
  6409                           	line	8
  6410                           	
  6411  0812                     l9954:	
  6412                           ;display.c: 8: if(column > 74)
  6413  0812  304B               	movlw	(04Bh)
  6414  0813  027C               	subwf	(display_digit@column),w
  6415  0814  1C03               	skipc
  6416  0815  2817               	goto	u1841
  6417  0816  2818               	goto	u1840
  6418  0817                     u1841:
  6419  0817  2819               	goto	l9958
  6420  0818                     u1840:
  6421  0818  287F               	goto	l18
  6422                           	line	10
  6423                           	
  6424  0819                     l9958:	
  6425                           ;display.c: 10: if(digit > 9)
  6426  0819  300A               	movlw	(0Ah)
  6427  081A  027D               	subwf	(display_digit@digit),w
  6428  081B  1C03               	skipc
  6429  081C  281E               	goto	u1851
  6430  081D  281F               	goto	u1850
  6431  081E                     u1851:
  6432  081E  2820               	goto	l9962
  6433  081F                     u1850:
  6434  081F  287F               	goto	l18
  6435                           	line	13
  6436                           	
  6437  0820                     l9962:	
  6438                           ;display.c: 13: lcd_gotoxy(column, line - 1);
  6439  0820  0822               	movf	(display_digit@line),w
  6440  0821  00F8               	movwf	(?_lcd_gotoxy)
  6441  0822  01F9               	clrf	(?_lcd_gotoxy+1)
  6442  0823  30FF               	movlw	low(0FFFFh)
  6443  0824  07F8               	addwf	(?_lcd_gotoxy),f
  6444  0825  1803               	skipnc
  6445  0826  0AF9               	incf	(?_lcd_gotoxy+1),f
  6446  0827  30FF               	movlw	high(0FFFFh)
  6447  0828  07F9               	addwf	(?_lcd_gotoxy+1),f
  6448  0829  087C               	movf	(display_digit@column),w
  6449  082A  120A  118A  20ED   	fcall	_lcd_gotoxy
              120A  158A         
  6450                           	line	14
  6451                           	
  6452  082F                     l9964:	
  6453                           ;display.c: 14: for(i = 0; i < 8; i++) lcd_send(digits_8x16[(digit << 4) + i], 1);
  6454  082F  01A3               	clrf	(display_digit@i)
  6455                           	
  6456  0830                     l9970:	
  6457  0830  01F6               	clrf	(?_lcd_send)
  6458  0831  0AF6               	incf	(?_lcd_send),f
  6459  0832  0E7D               	swapf	(display_digit@digit),w
  6460  0833  39F0               	andlw	(0ffh shl 4) & 0ffh
  6461  0834  3EF1               	addlw	low(_digits_8x16|8000h)
  6462  0835  00A0               	movwf	(??_display_digit+0)+0
  6463  0836  3085               	movlw	high(_digits_8x16|8000h)
  6464  0837  1803               	skipnc
  6465  0838  3E01               	addlw	1
  6466  0839  00A1               	movwf	1+((??_display_digit+0)+0)
  6467  083A  0823               	movf	(display_digit@i),w
  6468  083B  0720               	addwf	0+(??_display_digit+0)+0,w
  6469  083C  0084               	movwf	fsr0
  6470  083D  0821               	movf	1+(??_display_digit+0)+0,w
  6471  083E  1803               	skipnc
  6472  083F  0A21               	incf	1+(??_display_digit+0)+0,w
  6473  0840  00FF               	movwf	btemp+1
  6474  0841  120A  118A  2100   	fcall	stringtab
              120A  158A         
  6475  0846  160A  118A  2472   	fcall	_lcd_send
              120A  158A         
  6476                           	
  6477  084B                     l9972:	
  6478  084B  0AA3               	incf	(display_digit@i),f
  6479                           	
  6480  084C                     l9974:	
  6481  084C  3008               	movlw	(08h)
  6482  084D  0223               	subwf	(display_digit@i),w
  6483  084E  1C03               	skipc
  6484  084F  2851               	goto	u1861
  6485  0850  2852               	goto	u1860
  6486  0851                     u1861:
  6487  0851  2830               	goto	l9970
  6488  0852                     u1860:
  6489                           	line	15
  6490                           	
  6491  0852                     l9976:	
  6492                           ;display.c: 15: lcd_gotoxy(column, line);
  6493  0852  0822               	movf	(display_digit@line),w
  6494  0853  00F8               	movwf	(?_lcd_gotoxy)
  6495  0854  01F9               	clrf	(?_lcd_gotoxy+1)
  6496  0855  087C               	movf	(display_digit@column),w
  6497  0856  120A  118A  20ED   	fcall	_lcd_gotoxy
              120A  158A         
  6498                           	line	16
  6499                           	
  6500  085B                     l9978:	
  6501                           ;display.c: 16: for(i = 8; i < 16; i++) lcd_send(digits_8x16[(digit << 4) + i], 1);
  6502  085B  3008               	movlw	(08h)
  6503  085C  00A3               	movwf	(display_digit@i)
  6504                           	
  6505  085D                     l9984:	
  6506  085D  01F6               	clrf	(?_lcd_send)
  6507  085E  0AF6               	incf	(?_lcd_send),f
  6508  085F  0E7D               	swapf	(display_digit@digit),w
  6509  0860  39F0               	andlw	(0ffh shl 4) & 0ffh
  6510  0861  3EF1               	addlw	low(_digits_8x16|8000h)
  6511  0862  00A0               	movwf	(??_display_digit+0)+0
  6512  0863  3085               	movlw	high(_digits_8x16|8000h)
  6513  0864  1803               	skipnc
  6514  0865  3E01               	addlw	1
  6515  0866  00A1               	movwf	1+((??_display_digit+0)+0)
  6516  0867  0823               	movf	(display_digit@i),w
  6517  0868  0720               	addwf	0+(??_display_digit+0)+0,w
  6518  0869  0084               	movwf	fsr0
  6519  086A  0821               	movf	1+(??_display_digit+0)+0,w
  6520  086B  1803               	skipnc
  6521  086C  0A21               	incf	1+(??_display_digit+0)+0,w
  6522  086D  00FF               	movwf	btemp+1
  6523  086E  120A  118A  2100   	fcall	stringtab
              120A  158A         
  6524  0873  160A  118A  2472   	fcall	_lcd_send
              120A  158A         
  6525                           	
  6526  0878                     l9986:	
  6527  0878  0AA3               	incf	(display_digit@i),f
  6528                           	
  6529  0879                     l9988:	
  6530  0879  3010               	movlw	(010h)
  6531  087A  0223               	subwf	(display_digit@i),w
  6532  087B  1C03               	skipc
  6533  087C  287E               	goto	u1871
  6534  087D  287F               	goto	u1870
  6535  087E                     u1871:
  6536  087E  285D               	goto	l9984
  6537  087F                     u1870:
  6538                           	line	17
  6539                           	
  6540  087F                     l18:	
  6541  087F  0008               	return
  6542                           	opt stack 0
  6543                           GLOBAL	__end_of_display_digit
  6544  0880                     	__end_of_display_digit:
  6545 ;; =============== function _display_digit ends ============
  6546                           
  6547                           	signat	_display_digit,12408
  6548                           	global	___flsub
  6549                           psect	text579,local,class=CODE,delta=2
  6550                           global __ptext579
  6551  1FE0                     __ptext579:
  6552                           
  6553 ;; *************** function ___flsub *****************
  6554 ;; Defined at:
  6555 ;;		line 17 in file "C:\Program Files (x86)\HI-TECH Software\PICC\9.83\sources\flsub.c"
  6556 ;; Parameters:    Size  Location     Type
  6557 ;;  f2              4   49[BANK0 ] unsigned char 
  6558 ;;  f1              4   53[BANK0 ] unsigned char 
  6559 ;; Auto vars:     Size  Location     Type
  6560 ;;		None
  6561 ;; Return value:  Size  Location     Type
  6562 ;;                  4   49[BANK0 ] unsigned char 
  6563 ;; Registers used:
  6564 ;;		wreg, status,2, status,0, pclath, cstack
  6565 ;; Tracked objects:
  6566 ;;		On entry : 60/0
  6567 ;;		On exit  : 60/0
  6568 ;;		Unchanged: FFF9F/0
  6569 ;; Data sizes:     COMMON   BANK0   BANK1   BANK3   BANK2
  6570 ;;      Params:         0       8       0       0       0
  6571 ;;      Locals:         0       0       0       0       0
  6572 ;;      Temps:          0       0       0       0       0
  6573 ;;      Totals:         0       8       0       0       0
  6574 ;;Total ram usage:        8 bytes
  6575 ;; Hardware stack levels used:    1
  6576 ;; Hardware stack levels required when called:    2
  6577 ;; This function calls:
  6578 ;;		___fladd
  6579 ;; This function is called by:
  6580 ;;		_measure_capacitance
  6581 ;;		_measure_inductance
  6582 ;; This function uses a non-reentrant model
  6583 ;;
  6584                           psect	text579
  6585                           	file	"C:\Program Files (x86)\HI-TECH Software\PICC\9.83\sources\flsub.c"
  6586                           	global	__size_of___flsub
  6587  0020                     	__size_of___flsub	equ	__end_of___flsub-___flsub
  6588                           	
  6589  1FE0                     ___flsub:	
  6590                           	opt	stack 4
  6591                           ; Regs used in ___flsub: [wreg+status,2+status,0+pclath+cstack]
  6592                           	line	18
  6593                           	
  6594  1FE0                     l9944:	
  6595  1FE0  3080               	movlw	080h
  6596  1FE1  06D4               	xorwf	(___flsub@f2+3),f
  6597                           	line	19
  6598                           	
  6599  1FE2                     l9946:	
  6600  1FE2  0854               	movf	(___flsub@f2+3),w
  6601  1FE3  00A3               	movwf	(?___fladd+3)
  6602  1FE4  0853               	movf	(___flsub@f2+2),w
  6603  1FE5  00A2               	movwf	(?___fladd+2)
  6604  1FE6  0852               	movf	(___flsub@f2+1),w
  6605  1FE7  00A1               	movwf	(?___fladd+1)
  6606  1FE8  0851               	movf	(___flsub@f2),w
  6607  1FE9  00A0               	movwf	(?___fladd)
  6608                           
  6609  1FEA  0858               	movf	(___flsub@f1+3),w
  6610  1FEB  00A7               	movwf	3+(?___fladd)+04h
  6611  1FEC  0857               	movf	(___flsub@f1+2),w
  6612  1FED  00A6               	movwf	2+(?___fladd)+04h
  6613  1FEE  0856               	movf	(___flsub@f1+1),w
  6614  1FEF  00A5               	movwf	1+(?___fladd)+04h
  6615  1FF0  0855               	movf	(___flsub@f1),w
  6616  1FF1  00A4               	movwf	0+(?___fladd)+04h
  6617                           
  6618  1FF2  160A  118A  26DE   	fcall	___fladd
              160A  158A         
  6619  1FF7  0823               	movf	(3+(?___fladd)),w
  6620  1FF8  00D4               	movwf	(?___flsub+3)
  6621  1FF9  0822               	movf	(2+(?___fladd)),w
  6622  1FFA  00D3               	movwf	(?___flsub+2)
  6623  1FFB  0821               	movf	(1+(?___fladd)),w
  6624  1FFC  00D2               	movwf	(?___flsub+1)
  6625  1FFD  0820               	movf	(0+(?___fladd)),w
  6626  1FFE  00D1               	movwf	(?___flsub)
  6627                           
  6628                           	line	20
  6629                           	
  6630  1FFF                     l6688:	
  6631  1FFF  0008               	return
  6632                           	opt stack 0
  6633                           GLOBAL	__end_of___flsub
  6634  2000                     	__end_of___flsub:
  6635 ;; =============== function ___flsub ends ============
  6636                           
  6637                           	signat	___flsub,8316
  6638                           	global	_measure_freq
  6639                           psect	text580,local,class=CODE,delta=2
  6640                           global __ptext580
  6641  10FC                     __ptext580:
  6642                           
  6643 ;; *************** function _measure_freq *****************
  6644 ;; Defined at:
  6645 ;;		line 91 in file "C:\Users\vboxuser\Desktop\lc-meter\src\julznc\main.c"
  6646 ;; Parameters:    Size  Location     Type
  6647 ;;		None
  6648 ;; Auto vars:     Size  Location     Type
  6649 ;;  prescaler_cn    2    6[BANK0 ] unsigned int 
  6650 ;;  oldTMR0         2    4[BANK0 ] unsigned int 
  6651 ;; Return value:  Size  Location     Type
  6652 ;;                  2    0[BANK0 ] unsigned int 
  6653 ;; Registers used:
  6654 ;;		wreg, status,2, status,0, pclath, cstack
  6655 ;; Tracked objects:
  6656 ;;		On entry : 0/0
  6657 ;;		On exit  : 60/0
  6658 ;;		Unchanged: 0/0
  6659 ;; Data sizes:     COMMON   BANK0   BANK1   BANK3   BANK2
  6660 ;;      Params:         0       2       0       0       0
  6661 ;;      Locals:         0       4       0       0       0
  6662 ;;      Temps:          0       2       0       0       0
  6663 ;;      Totals:         0       8       0       0       0
  6664 ;;Total ram usage:        8 bytes
  6665 ;; Hardware stack levels used:    1
  6666 ;; Hardware stack levels required when called:    1
  6667 ;; This function calls:
  6668 ;;		_delay10ms
  6669 ;; This function is called by:
  6670 ;;		_calibrate
  6671 ;;		_measure_capacitance
  6672 ;;		_measure_inductance
  6673 ;; This function uses a non-reentrant model
  6674 ;;
  6675                           psect	text580
  6676                           	file	"C:\Users\vboxuser\Desktop\lc-meter\src\julznc\main.c"
  6677                           	line	91
  6678                           	global	__size_of_measure_freq
  6679  0050                     	__size_of_measure_freq	equ	__end_of_measure_freq-_measure_freq
  6680                           	
  6681  10FC                     _measure_freq:	
  6682                           	opt	stack 5
  6683                           ; Regs used in _measure_freq: [wreg+status,2+status,0+pclath+cstack]
  6684                           	line	93
  6685                           	
  6686  10FC                     l9908:	
  6687                           ;main.c: 92: unsigned int oldTMR0, prescaler_cntr;
  6688                           ;main.c: 93: TMR0IF = 0;
  6689  10FC  110B               	bcf	(90/8),(90)&7
  6690                           	line	94
  6691                           ;main.c: 94: TRISA4 = 0;
  6692  10FD  1683               	bsf	status, 5	;RP0=1, select bank1
  6693  10FE  1303               	bcf	status, 6	;RP1=0, select bank1
  6694  10FF  1205               	bcf	(1068/8)^080h,(1068)&7
  6695                           	line	95
  6696                           	
  6697  1100                     l9910:	
  6698                           ;main.c: 95: delay10ms(2);
  6699  1100  3002               	movlw	02h
  6700  1101  00F0               	movwf	(?_delay10ms)
  6701  1102  01F1               	clrf	(?_delay10ms+1)
  6702  1103  160A  158A  2794   	fcall	_delay10ms
              160A  118A         
  6703                           	line	96
  6704                           	
  6705  1108                     l9912:	
  6706                           ;main.c: 96: TMR0 = 0x00;
  6707  1108  1283               	bcf	status, 5	;RP0=0, select bank0
  6708  1109  1303               	bcf	status, 6	;RP1=0, select bank0
  6709  110A  0181               	clrf	(1)	;volatile
  6710                           	line	97
  6711                           	
  6712  110B                     l9914:	
  6713                           ;main.c: 97: delay10ms(10);
  6714  110B  300A               	movlw	0Ah
  6715  110C  00F0               	movwf	(?_delay10ms)
  6716  110D  01F1               	clrf	(?_delay10ms+1)
  6717  110E  160A  158A  2794   	fcall	_delay10ms
              160A  118A         
  6718                           	line	98
  6719                           	
  6720  1113                     l9916:	
  6721                           ;main.c: 98: TRISA4 = 1;
  6722  1113  1683               	bsf	status, 5	;RP0=1, select bank1
  6723  1114  1303               	bcf	status, 6	;RP1=0, select bank1
  6724  1115  1605               	bsf	(1068/8)^080h,(1068)&7
  6725                           	line	99
  6726                           	
  6727  1116                     l9918:	
  6728                           ;main.c: 99: oldTMR0 = TMR0;
  6729  1116  1283               	bcf	status, 5	;RP0=0, select bank0
  6730  1117  0801               	movf	(1),w	;volatile
  6731  1118  00A4               	movwf	(measure_freq@oldTMR0)
  6732  1119  01A5               	clrf	(measure_freq@oldTMR0+1)
  6733                           	line	100
  6734                           	
  6735  111A                     l9920:	
  6736                           ;main.c: 100: prescaler_cntr = 0;
  6737  111A  01A6               	clrf	(measure_freq@prescaler_cntr)
  6738  111B  01A7               	clrf	(measure_freq@prescaler_cntr+1)
  6739                           	line	102
  6740                           	
  6741  111C                     l9922:	
  6742                           ;main.c: 102: T0SE = 1;
  6743  111C  1683               	bsf	status, 5	;RP0=1, select bank1
  6744  111D  1601               	bsf	(1036/8)^080h,(1036)&7
  6745                           	line	103
  6746                           	
  6747  111E                     l9924:	
  6748                           ;main.c: 103: _nop();
  6749  111E  0000               	nop
  6750                           	line	104
  6751                           	
  6752  111F                     l9926:	
  6753                           ;main.c: 104: _nop();
  6754  111F  0000               	nop
  6755                           	line	105
  6756                           	
  6757  1120                     l9928:	
  6758                           ;main.c: 105: T0SE = 0;
  6759  1120  1683               	bsf	status, 5	;RP0=1, select bank1
  6760  1121  1303               	bcf	status, 6	;RP1=0, select bank1
  6761  1122  1201               	bcf	(1036/8)^080h,(1036)&7
  6762                           	line	106
  6763                           	
  6764  1123                     l9930:	
  6765                           ;main.c: 106: _nop();
  6766  1123  0000               	nop
  6767                           	line	107
  6768                           	
  6769  1124                     l9932:	
  6770                           ;main.c: 107: _nop();
  6771  1124  0000               	nop
  6772                           	line	108
  6773                           	
  6774  1125                     l9934:	
  6775                           ;main.c: 108: prescaler_cntr++;
  6776  1125  1283               	bcf	status, 5	;RP0=0, select bank0
  6777  1126  1303               	bcf	status, 6	;RP1=0, select bank0
  6778  1127  0AA6               	incf	(measure_freq@prescaler_cntr),f
  6779  1128  1903               	skipnz
  6780  1129  0AA7               	incf	(measure_freq@prescaler_cntr+1),f
  6781                           	line	109
  6782                           	
  6783  112A                     l9936:	
  6784                           ;main.c: 109: } while(oldTMR0 == TMR0 && prescaler_cntr <= 255);
  6785  112A  0801               	movf	(1),w	;volatile
  6786  112B  00A2               	movwf	(??_measure_freq+0)+0
  6787  112C  01A3               	clrf	(??_measure_freq+0)+0+1
  6788  112D  0825               	movf	(measure_freq@oldTMR0+1),w
  6789  112E  0623               	xorwf	1+(??_measure_freq+0)+0,w
  6790  112F  1D03               	skipz
  6791  1130  2933               	goto	u1805
  6792  1131  0824               	movf	(measure_freq@oldTMR0),w
  6793  1132  0622               	xorwf	0+(??_measure_freq+0)+0,w
  6794  1133                     u1805:
  6795                           
  6796  1133  1D03               	skipz
  6797  1134  2936               	goto	u1801
  6798  1135  2937               	goto	u1800
  6799  1136                     u1801:
  6800  1136  2940               	goto	l9940
  6801  1137                     u1800:
  6802                           	
  6803  1137                     l9938:	
  6804  1137  3001               	movlw	high(0100h)
  6805  1138  0227               	subwf	(measure_freq@prescaler_cntr+1),w
  6806  1139  3000               	movlw	low(0100h)
  6807  113A  1903               	skipnz
  6808  113B  0226               	subwf	(measure_freq@prescaler_cntr),w
  6809  113C  1C03               	skipc
  6810  113D  293F               	goto	u1811
  6811  113E  2940               	goto	u1810
  6812  113F                     u1811:
  6813  113F  291C               	goto	l9922
  6814  1140                     u1810:
  6815                           	line	111
  6816                           	
  6817  1140                     l9940:	
  6818                           ;main.c: 111: return ((oldTMR0 << 8) + (256 - prescaler_cntr));
  6819  1140  0824               	movf	(measure_freq@oldTMR0),w
  6820  1141  00A1               	movwf	(?_measure_freq+1)
  6821  1142  01A0               	clrf	(?_measure_freq)
  6822  1143  0826               	movf	(measure_freq@prescaler_cntr),w
  6823  1144  02A0               	subwf	(?_measure_freq),f
  6824  1145  0827               	movf	(measure_freq@prescaler_cntr+1),w
  6825  1146  1C03               	skipc
  6826  1147  03A1               	decf	(?_measure_freq+1),f
  6827  1148  02A1               	subwf	(?_measure_freq+1),f
  6828  1149  3001               	movlw	(0100h >> 8)
  6829  114A  07A1               	addwf	(?_measure_freq+1),f
  6830                           	line	112
  6831                           	
  6832  114B                     l1439:	
  6833  114B  0008               	return
  6834                           	opt stack 0
  6835                           GLOBAL	__end_of_measure_freq
  6836  114C                     	__end_of_measure_freq:
  6837 ;; =============== function _measure_freq ends ============
  6838                           
  6839                           	signat	_measure_freq,90
  6840                           	global	_lcd_putch
  6841                           psect	text581,local,class=CODE,delta=2
  6842                           global __ptext581
  6843  150D                     __ptext581:
  6844                           
  6845 ;; *************** function _lcd_putch *****************
  6846 ;; Defined at:
  6847 ;;		line 244 in file "C:\Users\vboxuser\Desktop\lc-meter\src\julznc\lcd3310.c"
  6848 ;; Parameters:    Size  Location     Type
  6849 ;;  c               1    wreg     unsigned char 
  6850 ;; Auto vars:     Size  Location     Type
  6851 ;;  c               1    8[COMMON] unsigned char 
  6852 ;; Return value:  Size  Location     Type
  6853 ;;		None               void
  6854 ;; Registers used:
  6855 ;;		wreg, fsr0l, fsr0h, status,2, status,0, btemp+1, pclath, cstack
  6856 ;; Tracked objects:
  6857 ;;		On entry : 60/0
  6858 ;;		On exit  : 60/0
  6859 ;;		Unchanged: 0/0
  6860 ;; Data sizes:     COMMON   BANK0   BANK1   BANK3   BANK2
  6861 ;;      Params:         0       0       0       0       0
  6862 ;;      Locals:         1       0       0       0       0
  6863 ;;      Temps:          0       0       0       0       0
  6864 ;;      Totals:         1       0       0       0       0
  6865 ;;Total ram usage:        1 bytes
  6866 ;; Hardware stack levels used:    1
  6867 ;; Hardware stack levels required when called:    1
  6868 ;; This function calls:
  6869 ;;		___wmul
  6870 ;;		_lcd_send
  6871 ;; This function is called by:
  6872 ;;		_lcd_puts
  6873 ;; This function uses a non-reentrant model
  6874 ;;
  6875                           psect	text581
  6876                           	file	"C:\Users\vboxuser\Desktop\lc-meter\src\julznc\lcd3310.c"
  6877                           	line	244
  6878                           	global	__size_of_lcd_putch
  6879  00B2                     	__size_of_lcd_putch	equ	__end_of_lcd_putch-_lcd_putch
  6880                           	
  6881  150D                     _lcd_putch:	
  6882                           	opt	stack 4
  6883                           ; Regs used in _lcd_putch: [wreg-fsr0h+status,2+status,0+btemp+1+pclath+cstack]
  6884                           ;lcd_putch@c stored from wreg
  6885  150D  00F8               	movwf	(lcd_putch@c)
  6886                           	line	245
  6887                           	
  6888  150E                     l9900:	
  6889                           ;lcd3310.c: 245: if(c > 'z' || c < 32) {
  6890  150E  307B               	movlw	(07Bh)
  6891  150F  0278               	subwf	(lcd_putch@c),w
  6892  1510  1803               	skipnc
  6893  1511  2D13               	goto	u1781
  6894  1512  2D14               	goto	u1780
  6895  1513                     u1781:
  6896  1513  2DBE               	goto	l703
  6897  1514                     u1780:
  6898                           	
  6899  1514                     l9902:	
  6900  1514  3020               	movlw	(020h)
  6901  1515  0278               	subwf	(lcd_putch@c),w
  6902  1516  1803               	skipnc
  6903  1517  2D19               	goto	u1791
  6904  1518  2D1A               	goto	u1790
  6905  1519                     u1791:
  6906  1519  2D1B               	goto	l9904
  6907  151A                     u1790:
  6908  151A  2DBE               	goto	l703
  6909                           	line	249
  6910                           	
  6911  151B                     l9904:	
  6912                           ;lcd3310.c: 247: }
  6913                           ;lcd3310.c: 249: lcd_send(lcd_font[c - 32][0], 1);
  6914  151B  01F6               	clrf	(?_lcd_send)
  6915  151C  0AF6               	incf	(?_lcd_send),f
  6916  151D  0878               	movf	(lcd_putch@c),w
  6917  151E  00F0               	movwf	(?___wmul)
  6918  151F  01F1               	clrf	(?___wmul+1)
  6919  1520  3005               	movlw	05h
  6920  1521  00F2               	movwf	0+(?___wmul)+02h
  6921  1522  01F3               	clrf	1+(?___wmul)+02h
  6922  1523  160A  118A  2001   	fcall	___wmul
              160A  118A         
  6923  1528  3082               	movlw	high(_lcd_font|8000h+0FF60h)
  6924  1529  0771               	addwf	(1+(?___wmul)),w
  6925  152A  00FF               	movwf	btemp+1
  6926  152B  306A               	movlw	low(_lcd_font|8000h+0FF60h)
  6927  152C  0770               	addwf	(0+(?___wmul)),w
  6928  152D  0084               	movwf	fsr0
  6929  152E  1803               	skipnc
  6930  152F  0AFF               	incf	btemp+1,f
  6931  1530  120A  118A  2100   	fcall	stringtab
              160A  118A         
  6932  1535  160A  118A  2472   	fcall	_lcd_send
              160A  118A         
  6933                           	line	250
  6934                           ;lcd3310.c: 250: lcd_send(lcd_font[c - 32][1], 1);
  6935  153A  01F6               	clrf	(?_lcd_send)
  6936  153B  0AF6               	incf	(?_lcd_send),f
  6937  153C  0878               	movf	(lcd_putch@c),w
  6938  153D  00F0               	movwf	(?___wmul)
  6939  153E  01F1               	clrf	(?___wmul+1)
  6940  153F  3005               	movlw	05h
  6941  1540  00F2               	movwf	0+(?___wmul)+02h
  6942  1541  01F3               	clrf	1+(?___wmul)+02h
  6943  1542  160A  118A  2001   	fcall	___wmul
              160A  118A         
  6944  1547  3082               	movlw	high(_lcd_font|8000h+0FF61h)
  6945  1548  0771               	addwf	(1+(?___wmul)),w
  6946  1549  00FF               	movwf	btemp+1
  6947  154A  306B               	movlw	low(_lcd_font|8000h+0FF61h)
  6948  154B  0770               	addwf	(0+(?___wmul)),w
  6949  154C  0084               	movwf	fsr0
  6950  154D  1803               	skipnc
  6951  154E  0AFF               	incf	btemp+1,f
  6952  154F  120A  118A  2100   	fcall	stringtab
              160A  118A         
  6953  1554  160A  118A  2472   	fcall	_lcd_send
              160A  118A         
  6954                           	line	251
  6955                           ;lcd3310.c: 251: lcd_send(lcd_font[c - 32][2], 1);
  6956  1559  01F6               	clrf	(?_lcd_send)
  6957  155A  0AF6               	incf	(?_lcd_send),f
  6958  155B  0878               	movf	(lcd_putch@c),w
  6959  155C  00F0               	movwf	(?___wmul)
  6960  155D  01F1               	clrf	(?___wmul+1)
  6961  155E  3005               	movlw	05h
  6962  155F  00F2               	movwf	0+(?___wmul)+02h
  6963  1560  01F3               	clrf	1+(?___wmul)+02h
  6964  1561  160A  118A  2001   	fcall	___wmul
              160A  118A         
  6965  1566  3082               	movlw	high(_lcd_font|8000h+0FF62h)
  6966  1567  0771               	addwf	(1+(?___wmul)),w
  6967  1568  00FF               	movwf	btemp+1
  6968  1569  306C               	movlw	low(_lcd_font|8000h+0FF62h)
  6969  156A  0770               	addwf	(0+(?___wmul)),w
  6970  156B  0084               	movwf	fsr0
  6971  156C  1803               	skipnc
  6972  156D  0AFF               	incf	btemp+1,f
  6973  156E  120A  118A  2100   	fcall	stringtab
              160A  118A         
  6974  1573  160A  118A  2472   	fcall	_lcd_send
              160A  118A         
  6975                           	line	252
  6976                           ;lcd3310.c: 252: lcd_send(lcd_font[c - 32][3], 1);
  6977  1578  01F6               	clrf	(?_lcd_send)
  6978  1579  0AF6               	incf	(?_lcd_send),f
  6979  157A  0878               	movf	(lcd_putch@c),w
  6980  157B  00F0               	movwf	(?___wmul)
  6981  157C  01F1               	clrf	(?___wmul+1)
  6982  157D  3005               	movlw	05h
  6983  157E  00F2               	movwf	0+(?___wmul)+02h
  6984  157F  01F3               	clrf	1+(?___wmul)+02h
  6985  1580  160A  118A  2001   	fcall	___wmul
              160A  118A         
  6986  1585  3082               	movlw	high(_lcd_font|8000h+0FF63h)
  6987  1586  0771               	addwf	(1+(?___wmul)),w
  6988  1587  00FF               	movwf	btemp+1
  6989  1588  306D               	movlw	low(_lcd_font|8000h+0FF63h)
  6990  1589  0770               	addwf	(0+(?___wmul)),w
  6991  158A  0084               	movwf	fsr0
  6992  158B  1803               	skipnc
  6993  158C  0AFF               	incf	btemp+1,f
  6994  158D  120A  118A  2100   	fcall	stringtab
              160A  118A         
  6995  1592  160A  118A  2472   	fcall	_lcd_send
              160A  118A         
  6996                           	line	253
  6997                           ;lcd3310.c: 253: lcd_send(lcd_font[c - 32][4], 1);
  6998  1597  01F6               	clrf	(?_lcd_send)
  6999  1598  0AF6               	incf	(?_lcd_send),f
  7000  1599  0878               	movf	(lcd_putch@c),w
  7001  159A  00F0               	movwf	(?___wmul)
  7002  159B  01F1               	clrf	(?___wmul+1)
  7003  159C  3005               	movlw	05h
  7004  159D  00F2               	movwf	0+(?___wmul)+02h
  7005  159E  01F3               	clrf	1+(?___wmul)+02h
  7006  159F  160A  118A  2001   	fcall	___wmul
              160A  118A         
  7007  15A4  3082               	movlw	high(_lcd_font|8000h+0FF64h)
  7008  15A5  0771               	addwf	(1+(?___wmul)),w
  7009  15A6  00FF               	movwf	btemp+1
  7010  15A7  306E               	movlw	low(_lcd_font|8000h+0FF64h)
  7011  15A8  0770               	addwf	(0+(?___wmul)),w
  7012  15A9  0084               	movwf	fsr0
  7013  15AA  1803               	skipnc
  7014  15AB  0AFF               	incf	btemp+1,f
  7015  15AC  120A  118A  2100   	fcall	stringtab
              160A  118A         
  7016  15B1  160A  118A  2472   	fcall	_lcd_send
              160A  118A         
  7017                           	line	254
  7018                           	
  7019  15B6                     l9906:	
  7020                           ;lcd3310.c: 254: lcd_send(0, 1);
  7021  15B6  01F6               	clrf	(?_lcd_send)
  7022  15B7  0AF6               	incf	(?_lcd_send),f
  7023  15B8  3000               	movlw	(0)
  7024  15B9  160A  118A  2472   	fcall	_lcd_send
              160A  118A         
  7025                           	line	255
  7026                           	
  7027  15BE                     l703:	
  7028  15BE  0008               	return
  7029                           	opt stack 0
  7030                           GLOBAL	__end_of_lcd_putch
  7031  15BF                     	__end_of_lcd_putch:
  7032 ;; =============== function _lcd_putch ends ============
  7033                           
  7034                           	signat	_lcd_putch,4216
  7035                           	global	_lcd_init
  7036                           psect	text582,local,class=CODE,delta=2
  7037                           global __ptext582
  7038  114C                     __ptext582:
  7039                           
  7040 ;; *************** function _lcd_init *****************
  7041 ;; Defined at:
  7042 ;;		line 164 in file "C:\Users\vboxuser\Desktop\lc-meter\src\julznc\lcd3310.c"
  7043 ;; Parameters:    Size  Location     Type
  7044 ;;		None
  7045 ;; Auto vars:     Size  Location     Type
  7046 ;;		None
  7047 ;; Return value:  Size  Location     Type
  7048 ;;		None               void
  7049 ;; Registers used:
  7050 ;;		wreg, status,2, status,0, pclath, cstack
  7051 ;; Tracked objects:
  7052 ;;		On entry : 17F/20
  7053 ;;		On exit  : 60/0
  7054 ;;		Unchanged: 0/0
  7055 ;; Data sizes:     COMMON   BANK0   BANK1   BANK3   BANK2
  7056 ;;      Params:         0       0       0       0       0
  7057 ;;      Locals:         0       0       0       0       0
  7058 ;;      Temps:          2       0       0       0       0
  7059 ;;      Totals:         2       0       0       0       0
  7060 ;;Total ram usage:        2 bytes
  7061 ;; Hardware stack levels used:    1
  7062 ;; Hardware stack levels required when called:    1
  7063 ;; This function calls:
  7064 ;;		_lcd_send
  7065 ;; This function is called by:
  7066 ;;		_initialize
  7067 ;; This function uses a non-reentrant model
  7068 ;;
  7069                           psect	text582
  7070                           	file	"C:\Users\vboxuser\Desktop\lc-meter\src\julznc\lcd3310.c"
  7071                           	line	164
  7072                           	global	__size_of_lcd_init
  7073  0055                     	__size_of_lcd_init	equ	__end_of_lcd_init-_lcd_init
  7074                           	
  7075  114C                     _lcd_init:	
  7076                           	opt	stack 5
  7077                           ; Regs used in _lcd_init: [wreg+status,2+status,0+pclath+cstack]
  7078                           	line	165
  7079                           	
  7080  114C                     l9860:	
  7081                           ;lcd3310.c: 165: TRISC &= 0x00;
  7082  114C  0187               	clrf	(135)^080h	;volatile
  7083                           	line	166
  7084                           	
  7085  114D                     l9862:	
  7086                           ;lcd3310.c: 166: _delay((unsigned long)((20)*(20000000/4000.0)));
  7087                           	opt asmopt_off
  7088  114D  3082               movlw	130
  7089  114E  00F9               movwf	((??_lcd_init+0)+0+1),f
  7090  114F  30DD               	movlw	221
  7091  1150  00F8               movwf	((??_lcd_init+0)+0),f
  7092  1151                     u2077:
  7093  1151  0BF8               	decfsz	((??_lcd_init+0)+0),f
  7094  1152  2951               	goto	u2077
  7095  1153  0BF9               	decfsz	((??_lcd_init+0)+0+1),f
  7096  1154  2951               	goto	u2077
  7097  1155  2956               	nop2
  7098                           opt asmopt_on
  7099                           
  7100                           	line	168
  7101                           	
  7102  1156                     l9864:	
  7103                           ;lcd3310.c: 168: _nop();
  7104  1156  0000               	nop
  7105                           	line	169
  7106                           	
  7107  1157                     l9866:	
  7108                           ;lcd3310.c: 169: RC5 = 0;
  7109  1157  1283               	bcf	status, 5	;RP0=0, select bank0
  7110  1158  1303               	bcf	status, 6	;RP1=0, select bank0
  7111  1159  1287               	bcf	(61/8),(61)&7
  7112                           	line	170
  7113                           	
  7114  115A                     l9868:	
  7115                           ;lcd3310.c: 170: _nop();
  7116  115A  0000               	nop
  7117                           	line	171
  7118                           	
  7119  115B                     l9870:	
  7120                           ;lcd3310.c: 171: RC4 = 1;
  7121  115B  1283               	bcf	status, 5	;RP0=0, select bank0
  7122  115C  1303               	bcf	status, 6	;RP1=0, select bank0
  7123  115D  1607               	bsf	(60/8),(60)&7
  7124                           	line	172
  7125                           	
  7126  115E                     l9872:	
  7127                           ;lcd3310.c: 172: _nop();
  7128  115E  0000               	nop
  7129                           	line	173
  7130                           	
  7131  115F                     l9874:	
  7132                           ;lcd3310.c: 173: RC1 = 0;
  7133  115F  1283               	bcf	status, 5	;RP0=0, select bank0
  7134  1160  1303               	bcf	status, 6	;RP1=0, select bank0
  7135  1161  1087               	bcf	(57/8),(57)&7
  7136                           	line	174
  7137                           	
  7138  1162                     l9876:	
  7139                           ;lcd3310.c: 174: _nop();
  7140  1162  0000               	nop
  7141                           	line	175
  7142                           	
  7143  1163                     l9878:	
  7144                           ;lcd3310.c: 175: RC2 = 1;
  7145  1163  1283               	bcf	status, 5	;RP0=0, select bank0
  7146  1164  1303               	bcf	status, 6	;RP1=0, select bank0
  7147  1165  1507               	bsf	(58/8),(58)&7
  7148                           	line	176
  7149                           	
  7150  1166                     l9880:	
  7151                           ;lcd3310.c: 176: _nop();
  7152  1166  0000               	nop
  7153                           	line	179
  7154                           	
  7155  1167                     l9882:	
  7156                           ;lcd3310.c: 179: RC3 = 0;
  7157  1167  1283               	bcf	status, 5	;RP0=0, select bank0
  7158  1168  1303               	bcf	status, 6	;RP1=0, select bank0
  7159  1169  1187               	bcf	(59/8),(59)&7
  7160                           	line	180
  7161                           	
  7162  116A                     l9884:	
  7163                           ;lcd3310.c: 180: _delay((unsigned long)((20)*(20000000/4000.0)));
  7164                           	opt asmopt_off
  7165  116A  3082               movlw	130
  7166  116B  00F9               movwf	((??_lcd_init+0)+0+1),f
  7167  116C  30DD               	movlw	221
  7168  116D  00F8               movwf	((??_lcd_init+0)+0),f
  7169  116E                     u2087:
  7170  116E  0BF8               	decfsz	((??_lcd_init+0)+0),f
  7171  116F  296E               	goto	u2087
  7172  1170  0BF9               	decfsz	((??_lcd_init+0)+0+1),f
  7173  1171  296E               	goto	u2087
  7174  1172  2973               	nop2
  7175                           opt asmopt_on
  7176                           
  7177                           	line	182
  7178                           	
  7179  1173                     l9886:	
  7180                           ;lcd3310.c: 182: RC3 = 1;
  7181  1173  1283               	bcf	status, 5	;RP0=0, select bank0
  7182  1174  1303               	bcf	status, 6	;RP1=0, select bank0
  7183  1175  1587               	bsf	(59/8),(59)&7
  7184                           	line	186
  7185                           	
  7186  1176                     l9888:	
  7187                           ;lcd3310.c: 186: lcd_send(0x21, 0);
  7188  1176  01F6               	clrf	(?_lcd_send)
  7189  1177  3021               	movlw	(021h)
  7190  1178  160A  118A  2472   	fcall	_lcd_send
              160A  118A         
  7191                           	line	187
  7192                           	
  7193  117D                     l9890:	
  7194                           ;lcd3310.c: 187: lcd_send(0xC8, 0);
  7195  117D  01F6               	clrf	(?_lcd_send)
  7196  117E  30C8               	movlw	(0C8h)
  7197  117F  160A  118A  2472   	fcall	_lcd_send
              160A  118A         
  7198                           	line	188
  7199                           	
  7200  1184                     l9892:	
  7201                           ;lcd3310.c: 188: lcd_send(0x06, 0);
  7202  1184  01F6               	clrf	(?_lcd_send)
  7203  1185  3006               	movlw	(06h)
  7204  1186  160A  118A  2472   	fcall	_lcd_send
              160A  118A         
  7205                           	line	189
  7206                           	
  7207  118B                     l9894:	
  7208                           ;lcd3310.c: 189: lcd_send(0x13, 0);
  7209  118B  01F6               	clrf	(?_lcd_send)
  7210  118C  3013               	movlw	(013h)
  7211  118D  160A  118A  2472   	fcall	_lcd_send
              160A  118A         
  7212                           	line	191
  7213                           	
  7214  1192                     l9896:	
  7215                           ;lcd3310.c: 191: lcd_send(0x20, 0);
  7216  1192  01F6               	clrf	(?_lcd_send)
  7217  1193  3020               	movlw	(020h)
  7218  1194  160A  118A  2472   	fcall	_lcd_send
              160A  118A         
  7219                           	line	193
  7220                           	
  7221  1199                     l9898:	
  7222                           ;lcd3310.c: 193: lcd_send(0x0C, 0);
  7223  1199  01F6               	clrf	(?_lcd_send)
  7224  119A  300C               	movlw	(0Ch)
  7225  119B  160A  118A  2472   	fcall	_lcd_send
              160A  118A         
  7226                           	line	215
  7227                           	
  7228  11A0                     l684:	
  7229  11A0  0008               	return
  7230                           	opt stack 0
  7231                           GLOBAL	__end_of_lcd_init
  7232  11A1                     	__end_of_lcd_init:
  7233 ;; =============== function _lcd_init ends ============
  7234                           
  7235                           	signat	_lcd_init,88
  7236                           	global	_lcd_gotoxy
  7237                           psect	text583,local,class=CODE,delta=2
  7238                           global __ptext583
  7239  00ED                     __ptext583:
  7240                           
  7241 ;; *************** function _lcd_gotoxy *****************
  7242 ;; Defined at:
  7243 ;;		line 238 in file "C:\Users\vboxuser\Desktop\lc-meter\src\julznc\lcd3310.c"
  7244 ;; Parameters:    Size  Location     Type
  7245 ;;  x               1    wreg     unsigned char 
  7246 ;;  y               2    8[COMMON] unsigned int 
  7247 ;; Auto vars:     Size  Location     Type
  7248 ;;  x               1   10[COMMON] unsigned char 
  7249 ;; Return value:  Size  Location     Type
  7250 ;;		None               void
  7251 ;; Registers used:
  7252 ;;		wreg, status,2, status,0, pclath, cstack
  7253 ;; Tracked objects:
  7254 ;;		On entry : 0/20
  7255 ;;		On exit  : 60/0
  7256 ;;		Unchanged: 0/0
  7257 ;; Data sizes:     COMMON   BANK0   BANK1   BANK3   BANK2
  7258 ;;      Params:         2       0       0       0       0
  7259 ;;      Locals:         1       0       0       0       0
  7260 ;;      Temps:          0       0       0       0       0
  7261 ;;      Totals:         3       0       0       0       0
  7262 ;;Total ram usage:        3 bytes
  7263 ;; Hardware stack levels used:    1
  7264 ;; Hardware stack levels required when called:    1
  7265 ;; This function calls:
  7266 ;;		_lcd_send
  7267 ;; This function is called by:
  7268 ;;		_display_digit
  7269 ;;		_display_unit
  7270 ;;		_display_reading
  7271 ;;		_indicator
  7272 ;;		_lcd_clear
  7273 ;;		_main
  7274 ;;		_calibrate
  7275 ;;		_measure_capacitance
  7276 ;;		_measure_inductance
  7277 ;; This function uses a non-reentrant model
  7278 ;;
  7279                           psect	text583
  7280                           	file	"C:\Users\vboxuser\Desktop\lc-meter\src\julznc\lcd3310.c"
  7281                           	line	238
  7282                           	global	__size_of_lcd_gotoxy
  7283  0013                     	__size_of_lcd_gotoxy	equ	__end_of_lcd_gotoxy-_lcd_gotoxy
  7284                           	
  7285  00ED                     _lcd_gotoxy:	
  7286                           	opt	stack 5
  7287                           ; Regs used in _lcd_gotoxy: [wreg+status,2+status,0+pclath+cstack]
  7288                           ;lcd_gotoxy@x stored from wreg
  7289  00ED  00FA               	movwf	(lcd_gotoxy@x)
  7290                           	line	239
  7291                           	
  7292  00EE                     l9858:	
  7293                           ;lcd3310.c: 239: lcd_send(x | 0b10000000, 0);
  7294  00EE  01F6               	clrf	(?_lcd_send)
  7295  00EF  087A               	movf	(lcd_gotoxy@x),w
  7296  00F0  3880               	iorlw	080h
  7297  00F1  160A  118A  2472   	fcall	_lcd_send
              120A  118A         
  7298                           	line	240
  7299                           ;lcd3310.c: 240: lcd_send((y & 0b00000111) | 0b01000000, 0);
  7300  00F6  01F6               	clrf	(?_lcd_send)
  7301  00F7  0878               	movf	(lcd_gotoxy@y),w
  7302  00F8  3907               	andlw	07h
  7303  00F9  3840               	iorlw	040h
  7304  00FA  160A  118A  2472   	fcall	_lcd_send
              120A  118A         
  7305                           	line	241
  7306                           	
  7307  00FF                     l697:	
  7308  00FF  0008               	return
  7309                           	opt stack 0
  7310                           GLOBAL	__end_of_lcd_gotoxy
  7311  0100                     	__end_of_lcd_gotoxy:
  7312 ;; =============== function _lcd_gotoxy ends ============
  7313                           
  7314                           	signat	_lcd_gotoxy,8312
  7315                           	global	___lwtofl
  7316                           psect	text584,local,class=CODE,delta=2
  7317                           global __ptext584
  7318  1FAA                     __ptext584:
  7319                           
  7320 ;; *************** function ___lwtofl *****************
  7321 ;; Defined at:
  7322 ;;		line 29 in file "C:\Program Files (x86)\HI-TECH Software\PICC\9.83\sources\lwtofl.c"
  7323 ;; Parameters:    Size  Location     Type
  7324 ;;  c               2   10[COMMON] unsigned int 
  7325 ;; Auto vars:     Size  Location     Type
  7326 ;;		None
  7327 ;; Return value:  Size  Location     Type
  7328 ;;                  4   10[COMMON] unsigned int 
  7329 ;; Registers used:
  7330 ;;		wreg, status,2, status,0, pclath, cstack
  7331 ;; Tracked objects:
  7332 ;;		On entry : 40/20
  7333 ;;		On exit  : 40/20
  7334 ;;		Unchanged: FFFBF/0
  7335 ;; Data sizes:     COMMON   BANK0   BANK1   BANK3   BANK2
  7336 ;;      Params:         4       0       0       0       0
  7337 ;;      Locals:         0       0       0       0       0
  7338 ;;      Temps:          0       0       0       0       0
  7339 ;;      Totals:         4       0       0       0       0
  7340 ;;Total ram usage:        4 bytes
  7341 ;; Hardware stack levels used:    1
  7342 ;; Hardware stack levels required when called:    1
  7343 ;; This function calls:
  7344 ;;		___flpack
  7345 ;; This function is called by:
  7346 ;;		_calibrate
  7347 ;;		_measure_capacitance
  7348 ;;		_measure_inductance
  7349 ;; This function uses a non-reentrant model
  7350 ;;
  7351                           psect	text584
  7352                           	file	"C:\Program Files (x86)\HI-TECH Software\PICC\9.83\sources\lwtofl.c"
  7353                           	line	29
  7354                           	global	__size_of___lwtofl
  7355  0017                     	__size_of___lwtofl	equ	__end_of___lwtofl-___lwtofl
  7356                           	
  7357  1FAA                     ___lwtofl:	
  7358                           	opt	stack 5
  7359                           ; Regs used in ___lwtofl: [wreg+status,2+status,0+pclath+cstack]
  7360                           	line	30
  7361                           	
  7362  1FAA                     l9854:	
  7363  1FAA  087A               	movf	(___lwtofl@c),w
  7364  1FAB  00F0               	movwf	(?___flpack)
  7365  1FAC  087B               	movf	(___lwtofl@c+1),w
  7366  1FAD  00F1               	movwf	((?___flpack))+1
  7367  1FAE  01F2               	clrf	2+((?___flpack))
  7368  1FAF  01F3               	clrf	3+((?___flpack))
  7369  1FB0  3096               	movlw	(096h)
  7370  1FB1  00F4               	movwf	0+(?___flpack)+04h
  7371  1FB2  01F5               	clrf	0+(?___flpack)+05h
  7372  1FB3  160A  118A  21A1   	fcall	___flpack
              160A  158A         
  7373  1FB8  0873               	movf	(3+(?___flpack)),w
  7374  1FB9  00FD               	movwf	(?___lwtofl+3)
  7375  1FBA  0872               	movf	(2+(?___flpack)),w
  7376  1FBB  00FC               	movwf	(?___lwtofl+2)
  7377  1FBC  0871               	movf	(1+(?___flpack)),w
  7378  1FBD  00FB               	movwf	(?___lwtofl+1)
  7379  1FBE  0870               	movf	(0+(?___flpack)),w
  7380  1FBF  00FA               	movwf	(?___lwtofl)
  7381                           
  7382                           	line	31
  7383                           	
  7384  1FC0                     l6867:	
  7385  1FC0  0008               	return
  7386                           	opt stack 0
  7387                           GLOBAL	__end_of___lwtofl
  7388  1FC1                     	__end_of___lwtofl:
  7389 ;; =============== function ___lwtofl ends ============
  7390                           
  7391                           	signat	___lwtofl,4220
  7392                           	global	___flmul
  7393                           psect	text585,local,class=CODE,delta=2
  7394                           global __ptext585
  7395  0007                     __ptext585:
  7396                           
  7397 ;; *************** function ___flmul *****************
  7398 ;; Defined at:
  7399 ;;		line 51 in file "C:\Program Files (x86)\HI-TECH Software\PICC\9.83\sources\flmul.c"
  7400 ;; Parameters:    Size  Location     Type
  7401 ;;  f1              4   30[BANK0 ] unsigned int 
  7402 ;;  f2              4   34[BANK0 ] unsigned int 
  7403 ;; Auto vars:     Size  Location     Type
  7404 ;;  f3_as_produc    4   43[BANK0 ] unsigned long 
  7405 ;;  sign            1   48[BANK0 ] unsigned char 
  7406 ;;  cntr            1   47[BANK0 ] unsigned char 
  7407 ;;  exp             1   42[BANK0 ] unsigned char 
  7408 ;; Return value:  Size  Location     Type
  7409 ;;                  4   30[BANK0 ] unsigned char 
  7410 ;; Registers used:
  7411 ;;		wreg, status,2, status,0, pclath, cstack
  7412 ;; Tracked objects:
  7413 ;;		On entry : 60/0
  7414 ;;		On exit  : 60/0
  7415 ;;		Unchanged: FFF9F/0
  7416 ;; Data sizes:     COMMON   BANK0   BANK1   BANK3   BANK2
  7417 ;;      Params:         0       8       0       0       0
  7418 ;;      Locals:         0       7       0       0       0
  7419 ;;      Temps:          0       4       0       0       0
  7420 ;;      Totals:         0      19       0       0       0
  7421 ;;Total ram usage:       19 bytes
  7422 ;; Hardware stack levels used:    1
  7423 ;; Hardware stack levels required when called:    1
  7424 ;; This function calls:
  7425 ;;		___flpack
  7426 ;; This function is called by:
  7427 ;;		_measure_capacitance
  7428 ;;		_measure_inductance
  7429 ;; This function uses a non-reentrant model
  7430 ;;
  7431                           psect	text585
  7432                           	file	"C:\Program Files (x86)\HI-TECH Software\PICC\9.83\sources\flmul.c"
  7433                           	line	51
  7434                           	global	__size_of___flmul
  7435  00B3                     	__size_of___flmul	equ	__end_of___flmul-___flmul
  7436                           	
  7437  0007                     ___flmul:	
  7438                           	opt	stack 5
  7439                           ; Regs used in ___flmul: [wreg+status,2+status,0+pclath+cstack]
  7440                           	line	55
  7441                           	
  7442  0007                     l9802:	
  7443  0007  083E               	movf	(___flmul@f1),w
  7444  0008  00C6               	movwf	(??___flmul+0)+0
  7445  0009  083F               	movf	(___flmul@f1+1),w
  7446  000A  00C7               	movwf	((??___flmul+0)+0+1)
  7447  000B  0840               	movf	(___flmul@f1+2),w
  7448  000C  00C8               	movwf	((??___flmul+0)+0+2)
  7449  000D  0841               	movf	(___flmul@f1+3),w
  7450  000E  00C9               	movwf	((??___flmul+0)+0+3)
  7451  000F  1003               	clrc
  7452  0010  0D48               	rlf	(??___flmul+0)+2,w
  7453  0011  0D49               	rlf	(??___flmul+0)+3,w
  7454  0012  00CA               	movwf	(___flmul@exp)
  7455  0013  08CA               	movf	((___flmul@exp)),f
  7456  0014  1D03               	skipz
  7457  0015  2817               	goto	u1701
  7458  0016  2818               	goto	u1700
  7459  0017                     u1701:
  7460  0017  281D               	goto	l9806
  7461  0018                     u1700:
  7462                           	line	56
  7463                           	
  7464  0018                     l9804:	
  7465  0018  01BE               	clrf	(?___flmul)
  7466  0019  01BF               	clrf	(?___flmul+1)
  7467  001A  01C0               	clrf	(?___flmul+2)
  7468  001B  01C1               	clrf	(?___flmul+3)
  7469  001C  28B9               	goto	l6704
  7470                           	line	57
  7471                           	
  7472  001D                     l9806:	
  7473  001D  0842               	movf	(___flmul@f2),w
  7474  001E  00C6               	movwf	(??___flmul+0)+0
  7475  001F  0843               	movf	(___flmul@f2+1),w
  7476  0020  00C7               	movwf	((??___flmul+0)+0+1)
  7477  0021  0844               	movf	(___flmul@f2+2),w
  7478  0022  00C8               	movwf	((??___flmul+0)+0+2)
  7479  0023  0845               	movf	(___flmul@f2+3),w
  7480  0024  00C9               	movwf	((??___flmul+0)+0+3)
  7481  0025  1003               	clrc
  7482  0026  0D48               	rlf	(??___flmul+0)+2,w
  7483  0027  0D49               	rlf	(??___flmul+0)+3,w
  7484  0028  00D0               	movwf	(___flmul@sign)
  7485  0029  08D0               	movf	((___flmul@sign)),f
  7486  002A  1D03               	skipz
  7487  002B  282D               	goto	u1711
  7488  002C  282E               	goto	u1710
  7489  002D                     u1711:
  7490  002D  2833               	goto	l9810
  7491  002E                     u1710:
  7492                           	line	58
  7493                           	
  7494  002E                     l9808:	
  7495  002E  01BE               	clrf	(?___flmul)
  7496  002F  01BF               	clrf	(?___flmul+1)
  7497  0030  01C0               	clrf	(?___flmul+2)
  7498  0031  01C1               	clrf	(?___flmul+3)
  7499  0032  28B9               	goto	l6704
  7500                           	line	59
  7501                           	
  7502  0033                     l9810:	
  7503  0033  0850               	movf	(___flmul@sign),w
  7504  0034  3E7B               	addlw	07Bh
  7505  0035  07CA               	addwf	(___flmul@exp),f
  7506                           	line	60
  7507                           	
  7508  0036                     l9812:	
  7509  0036  0841               	movf	0+(((___flmul@f1))+3),w
  7510  0037  00D0               	movwf	(___flmul@sign)
  7511                           	line	61
  7512                           	
  7513  0038                     l9814:	
  7514  0038  0845               	movf	0+(((___flmul@f2))+3),w
  7515  0039  06D0               	xorwf	(___flmul@sign),f
  7516                           	line	62
  7517                           	
  7518  003A                     l9816:	
  7519  003A  3080               	movlw	(080h)
  7520  003B  05D0               	andwf	(___flmul@sign),f
  7521                           	line	63
  7522                           	
  7523  003C                     l9818:	
  7524  003C  17C0               	bsf	(___flmul@f1)+(23/8),(23)&7
  7525                           	line	65
  7526                           	
  7527  003D                     l9820:	
  7528  003D  17C4               	bsf	(___flmul@f2)+(23/8),(23)&7
  7529                           	line	66
  7530                           	
  7531  003E                     l9822:	
  7532  003E  30FF               	movlw	0FFh
  7533  003F  05C2               	andwf	(___flmul@f2),f
  7534  0040  30FF               	movlw	0FFh
  7535  0041  05C3               	andwf	(___flmul@f2+1),f
  7536  0042  30FF               	movlw	0FFh
  7537  0043  05C4               	andwf	(___flmul@f2+2),f
  7538  0044  3000               	movlw	0
  7539  0045  05C5               	andwf	(___flmul@f2+3),f
  7540                           	line	67
  7541                           	
  7542  0046                     l9824:	
  7543  0046  01CB               	clrf	(___flmul@f3_as_product)
  7544  0047  01CC               	clrf	(___flmul@f3_as_product+1)
  7545  0048  01CD               	clrf	(___flmul@f3_as_product+2)
  7546  0049  01CE               	clrf	(___flmul@f3_as_product+3)
  7547                           	line	68
  7548                           	
  7549  004A                     l9826:	
  7550  004A  3007               	movlw	(07h)
  7551  004B  00CF               	movwf	(___flmul@cntr)
  7552                           	line	70
  7553                           	
  7554  004C                     l9828:	
  7555  004C  1C3E               	btfss	(___flmul@f1),(0)&7
  7556  004D  284F               	goto	u1721
  7557  004E  2850               	goto	u1720
  7558  004F                     u1721:
  7559  004F  2867               	goto	l9832
  7560  0050                     u1720:
  7561                           	line	71
  7562                           	
  7563  0050                     l9830:	
  7564  0050  0842               	movf	(___flmul@f2),w
  7565  0051  07CB               	addwf	(___flmul@f3_as_product),f
  7566  0052  0843               	movf	(___flmul@f2+1),w
  7567  0053  1103               	clrz
  7568  0054  1803               	skipnc
  7569  0055  3E01               	addlw	1
  7570  0056  1903               	skipnz
  7571  0057  2859               	goto	u1731
  7572  0058  07CC               	addwf	(___flmul@f3_as_product+1),f
  7573  0059                     u1731:
  7574  0059  0844               	movf	(___flmul@f2+2),w
  7575  005A  1103               	clrz
  7576  005B  1803               	skipnc
  7577  005C  3E01               	addlw	1
  7578  005D  1903               	skipnz
  7579  005E  2860               	goto	u1732
  7580  005F  07CD               	addwf	(___flmul@f3_as_product+2),f
  7581  0060                     u1732:
  7582  0060  0845               	movf	(___flmul@f2+3),w
  7583  0061  1103               	clrz
  7584  0062  1803               	skipnc
  7585  0063  3E01               	addlw	1
  7586  0064  1903               	skipnz
  7587  0065  2867               	goto	u1733
  7588  0066  07CE               	addwf	(___flmul@f3_as_product+3),f
  7589  0067                     u1733:
  7590                           
  7591                           	line	72
  7592                           	
  7593  0067                     l9832:	
  7594  0067  1003               	clrc
  7595  0068  0CC1               	rrf	(___flmul@f1+3),f
  7596  0069  0CC0               	rrf	(___flmul@f1+2),f
  7597  006A  0CBF               	rrf	(___flmul@f1+1),f
  7598  006B  0CBE               	rrf	(___flmul@f1),f
  7599                           	line	73
  7600                           	
  7601  006C                     l9834:	
  7602  006C  1003               	clrc
  7603  006D  0DC2               	rlf	(___flmul@f2),f
  7604  006E  0DC3               	rlf	(___flmul@f2+1),f
  7605  006F  0DC4               	rlf	(___flmul@f2+2),f
  7606  0070  0DC5               	rlf	(___flmul@f2+3),f
  7607                           	line	74
  7608                           	
  7609  0071                     l9836:	
  7610  0071  0BCF               	decfsz	(___flmul@cntr),f
  7611  0072  2874               	goto	u1741
  7612  0073  2875               	goto	u1740
  7613  0074                     u1741:
  7614  0074  284C               	goto	l9828
  7615  0075                     u1740:
  7616                           	line	75
  7617                           	
  7618  0075                     l9838:	
  7619  0075  3011               	movlw	(011h)
  7620  0076  00CF               	movwf	(___flmul@cntr)
  7621                           	line	77
  7622                           	
  7623  0077                     l9840:	
  7624  0077  1C3E               	btfss	(___flmul@f1),(0)&7
  7625  0078  287A               	goto	u1751
  7626  0079  287B               	goto	u1750
  7627  007A                     u1751:
  7628  007A  2892               	goto	l9844
  7629  007B                     u1750:
  7630                           	line	78
  7631                           	
  7632  007B                     l9842:	
  7633  007B  0842               	movf	(___flmul@f2),w
  7634  007C  07CB               	addwf	(___flmul@f3_as_product),f
  7635  007D  0843               	movf	(___flmul@f2+1),w
  7636  007E  1103               	clrz
  7637  007F  1803               	skipnc
  7638  0080  3E01               	addlw	1
  7639  0081  1903               	skipnz
  7640  0082  2884               	goto	u1761
  7641  0083  07CC               	addwf	(___flmul@f3_as_product+1),f
  7642  0084                     u1761:
  7643  0084  0844               	movf	(___flmul@f2+2),w
  7644  0085  1103               	clrz
  7645  0086  1803               	skipnc
  7646  0087  3E01               	addlw	1
  7647  0088  1903               	skipnz
  7648  0089  288B               	goto	u1762
  7649  008A  07CD               	addwf	(___flmul@f3_as_product+2),f
  7650  008B                     u1762:
  7651  008B  0845               	movf	(___flmul@f2+3),w
  7652  008C  1103               	clrz
  7653  008D  1803               	skipnc
  7654  008E  3E01               	addlw	1
  7655  008F  1903               	skipnz
  7656  0090  2892               	goto	u1763
  7657  0091  07CE               	addwf	(___flmul@f3_as_product+3),f
  7658  0092                     u1763:
  7659                           
  7660                           	line	79
  7661                           	
  7662  0092                     l9844:	
  7663  0092  1003               	clrc
  7664  0093  0CC1               	rrf	(___flmul@f1+3),f
  7665  0094  0CC0               	rrf	(___flmul@f1+2),f
  7666  0095  0CBF               	rrf	(___flmul@f1+1),f
  7667  0096  0CBE               	rrf	(___flmul@f1),f
  7668                           	line	80
  7669                           	
  7670  0097                     l9846:	
  7671  0097  1003               	clrc
  7672  0098  0CCE               	rrf	(___flmul@f3_as_product+3),f
  7673  0099  0CCD               	rrf	(___flmul@f3_as_product+2),f
  7674  009A  0CCC               	rrf	(___flmul@f3_as_product+1),f
  7675  009B  0CCB               	rrf	(___flmul@f3_as_product),f
  7676                           	line	81
  7677                           	
  7678  009C                     l9848:	
  7679  009C  0BCF               	decfsz	(___flmul@cntr),f
  7680  009D  289F               	goto	u1771
  7681  009E  28A0               	goto	u1770
  7682  009F                     u1771:
  7683  009F  2877               	goto	l9840
  7684  00A0                     u1770:
  7685                           	line	82
  7686                           	
  7687  00A0                     l9850:	
  7688  00A0  084E               	movf	(___flmul@f3_as_product+3),w
  7689  00A1  00F3               	movwf	(?___flpack+3)
  7690  00A2  084D               	movf	(___flmul@f3_as_product+2),w
  7691  00A3  00F2               	movwf	(?___flpack+2)
  7692  00A4  084C               	movf	(___flmul@f3_as_product+1),w
  7693  00A5  00F1               	movwf	(?___flpack+1)
  7694  00A6  084B               	movf	(___flmul@f3_as_product),w
  7695  00A7  00F0               	movwf	(?___flpack)
  7696                           
  7697  00A8  084A               	movf	(___flmul@exp),w
  7698  00A9  00F4               	movwf	0+(?___flpack)+04h
  7699  00AA  0850               	movf	(___flmul@sign),w
  7700  00AB  00F5               	movwf	0+(?___flpack)+05h
  7701  00AC  160A  118A  21A1   	fcall	___flpack
              120A  118A         
  7702  00B1  0873               	movf	(3+(?___flpack)),w
  7703  00B2  00C1               	movwf	(?___flmul+3)
  7704  00B3  0872               	movf	(2+(?___flpack)),w
  7705  00B4  00C0               	movwf	(?___flmul+2)
  7706  00B5  0871               	movf	(1+(?___flpack)),w
  7707  00B6  00BF               	movwf	(?___flmul+1)
  7708  00B7  0870               	movf	(0+(?___flpack)),w
  7709  00B8  00BE               	movwf	(?___flmul)
  7710                           
  7711                           	line	83
  7712                           	
  7713  00B9                     l6704:	
  7714  00B9  0008               	return
  7715                           	opt stack 0
  7716                           GLOBAL	__end_of___flmul
  7717  00BA                     	__end_of___flmul:
  7718 ;; =============== function ___flmul ends ============
  7719                           
  7720                           	signat	___flmul,8316
  7721                           	global	___fldiv
  7722                           psect	text586,local,class=CODE,delta=2
  7723                           global __ptext586
  7724  13DE                     __ptext586:
  7725                           
  7726 ;; *************** function ___fldiv *****************
  7727 ;; Defined at:
  7728 ;;		line 50 in file "C:\Program Files (x86)\HI-TECH Software\PICC\9.83\sources\fldiv.c"
  7729 ;; Parameters:    Size  Location     Type
  7730 ;;  f2              4   11[BANK0 ] unsigned char 
  7731 ;;  f1              4   15[BANK0 ] unsigned char 
  7732 ;; Auto vars:     Size  Location     Type
  7733 ;;  f3              4   23[BANK0 ] unsigned char 
  7734 ;;  sign            1   29[BANK0 ] unsigned char 
  7735 ;;  exp             1   28[BANK0 ] unsigned char 
  7736 ;;  cntr            1   27[BANK0 ] unsigned char 
  7737 ;; Return value:  Size  Location     Type
  7738 ;;                  4   11[BANK0 ] unsigned char 
  7739 ;; Registers used:
  7740 ;;		wreg, status,2, status,0, pclath, cstack
  7741 ;; Tracked objects:
  7742 ;;		On entry : 60/0
  7743 ;;		On exit  : 60/0
  7744 ;;		Unchanged: FFF9F/0
  7745 ;; Data sizes:     COMMON   BANK0   BANK1   BANK3   BANK2
  7746 ;;      Params:         0       8       0       0       0
  7747 ;;      Locals:         0       7       0       0       0
  7748 ;;      Temps:          0       4       0       0       0
  7749 ;;      Totals:         0      19       0       0       0
  7750 ;;Total ram usage:       19 bytes
  7751 ;; Hardware stack levels used:    1
  7752 ;; Hardware stack levels required when called:    1
  7753 ;; This function calls:
  7754 ;;		___flpack
  7755 ;; This function is called by:
  7756 ;;		_measure_capacitance
  7757 ;;		_measure_inductance
  7758 ;; This function uses a non-reentrant model
  7759 ;;
  7760                           psect	text586
  7761                           	file	"C:\Program Files (x86)\HI-TECH Software\PICC\9.83\sources\fldiv.c"
  7762                           	line	50
  7763                           	global	__size_of___fldiv
  7764  0094                     	__size_of___fldiv	equ	__end_of___fldiv-___fldiv
  7765                           	
  7766  13DE                     ___fldiv:	
  7767                           	opt	stack 5
  7768                           ; Regs used in ___fldiv: [wreg+status,2+status,0+pclath+cstack]
  7769                           	line	55
  7770                           	
  7771  13DE                     l9762:	
  7772  13DE  082F               	movf	(___fldiv@f1),w
  7773  13DF  00B3               	movwf	(??___fldiv+0)+0
  7774  13E0  0830               	movf	(___fldiv@f1+1),w
  7775  13E1  00B4               	movwf	((??___fldiv+0)+0+1)
  7776  13E2  0831               	movf	(___fldiv@f1+2),w
  7777  13E3  00B5               	movwf	((??___fldiv+0)+0+2)
  7778  13E4  0832               	movf	(___fldiv@f1+3),w
  7779  13E5  00B6               	movwf	((??___fldiv+0)+0+3)
  7780  13E6  1003               	clrc
  7781  13E7  0D35               	rlf	(??___fldiv+0)+2,w
  7782  13E8  0D36               	rlf	(??___fldiv+0)+3,w
  7783  13E9  00BC               	movwf	(___fldiv@exp)
  7784  13EA  08BC               	movf	((___fldiv@exp)),f
  7785  13EB  1D03               	skipz
  7786  13EC  2BEE               	goto	u1661
  7787  13ED  2BEF               	goto	u1660
  7788  13EE                     u1661:
  7789  13EE  2BF4               	goto	l9766
  7790  13EF                     u1660:
  7791                           	line	56
  7792                           	
  7793  13EF                     l9764:	
  7794  13EF  01AB               	clrf	(?___fldiv)
  7795  13F0  01AC               	clrf	(?___fldiv+1)
  7796  13F1  01AD               	clrf	(?___fldiv+2)
  7797  13F2  01AE               	clrf	(?___fldiv+3)
  7798  13F3  2C71               	goto	l6694
  7799                           	line	57
  7800                           	
  7801  13F4                     l9766:	
  7802  13F4  082B               	movf	(___fldiv@f2),w
  7803  13F5  00B3               	movwf	(??___fldiv+0)+0
  7804  13F6  082C               	movf	(___fldiv@f2+1),w
  7805  13F7  00B4               	movwf	((??___fldiv+0)+0+1)
  7806  13F8  082D               	movf	(___fldiv@f2+2),w
  7807  13F9  00B5               	movwf	((??___fldiv+0)+0+2)
  7808  13FA  082E               	movf	(___fldiv@f2+3),w
  7809  13FB  00B6               	movwf	((??___fldiv+0)+0+3)
  7810  13FC  1003               	clrc
  7811  13FD  0D35               	rlf	(??___fldiv+0)+2,w
  7812  13FE  0D36               	rlf	(??___fldiv+0)+3,w
  7813  13FF  00BD               	movwf	(___fldiv@sign)
  7814  1400  08BD               	movf	((___fldiv@sign)),f
  7815  1401  1D03               	skipz
  7816  1402  2C04               	goto	u1671
  7817  1403  2C05               	goto	u1670
  7818  1404                     u1671:
  7819  1404  2C0A               	goto	l9770
  7820  1405                     u1670:
  7821                           	line	58
  7822                           	
  7823  1405                     l9768:	
  7824  1405  01AB               	clrf	(?___fldiv)
  7825  1406  01AC               	clrf	(?___fldiv+1)
  7826  1407  01AD               	clrf	(?___fldiv+2)
  7827  1408  01AE               	clrf	(?___fldiv+3)
  7828  1409  2C71               	goto	l6694
  7829                           	line	59
  7830                           	
  7831  140A                     l9770:	
  7832  140A  3089               	movlw	(089h)
  7833  140B  073D               	addwf	(___fldiv@sign),w
  7834  140C  00B3               	movwf	(??___fldiv+0)+0
  7835  140D  0833               	movf	0+(??___fldiv+0)+0,w
  7836  140E  02BC               	subwf	(___fldiv@exp),f
  7837                           	line	60
  7838                           	
  7839  140F                     l9772:	
  7840  140F  0832               	movf	0+(((___fldiv@f1))+3),w
  7841  1410  00BD               	movwf	(___fldiv@sign)
  7842                           	line	61
  7843                           	
  7844  1411                     l9774:	
  7845  1411  082E               	movf	0+(((___fldiv@f2))+3),w
  7846  1412  06BD               	xorwf	(___fldiv@sign),f
  7847                           	line	62
  7848                           	
  7849  1413                     l9776:	
  7850  1413  3080               	movlw	(080h)
  7851  1414  05BD               	andwf	(___fldiv@sign),f
  7852                           	line	63
  7853                           	
  7854  1415                     l9778:	
  7855  1415  17B1               	bsf	(___fldiv@f1)+(23/8),(23)&7
  7856                           	line	64
  7857                           	
  7858  1416                     l9780:	
  7859  1416  30FF               	movlw	0FFh
  7860  1417  05AF               	andwf	(___fldiv@f1),f
  7861  1418  30FF               	movlw	0FFh
  7862  1419  05B0               	andwf	(___fldiv@f1+1),f
  7863  141A  30FF               	movlw	0FFh
  7864  141B  05B1               	andwf	(___fldiv@f1+2),f
  7865  141C  3000               	movlw	0
  7866  141D  05B2               	andwf	(___fldiv@f1+3),f
  7867                           	line	65
  7868                           	
  7869  141E                     l9782:	
  7870  141E  17AD               	bsf	(___fldiv@f2)+(23/8),(23)&7
  7871                           	line	66
  7872                           	
  7873  141F                     l9784:	
  7874  141F  30FF               	movlw	0FFh
  7875  1420  05AB               	andwf	(___fldiv@f2),f
  7876  1421  30FF               	movlw	0FFh
  7877  1422  05AC               	andwf	(___fldiv@f2+1),f
  7878  1423  30FF               	movlw	0FFh
  7879  1424  05AD               	andwf	(___fldiv@f2+2),f
  7880  1425  3000               	movlw	0
  7881  1426  05AE               	andwf	(___fldiv@f2+3),f
  7882                           	line	67
  7883                           	
  7884  1427                     l9786:	
  7885  1427  3020               	movlw	(020h)
  7886  1428  00BB               	movwf	(___fldiv@cntr)
  7887                           	line	69
  7888                           	
  7889  1429                     l9788:	
  7890  1429  1003               	clrc
  7891  142A  0DB7               	rlf	(___fldiv@f3),f
  7892  142B  0DB8               	rlf	(___fldiv@f3+1),f
  7893  142C  0DB9               	rlf	(___fldiv@f3+2),f
  7894  142D  0DBA               	rlf	(___fldiv@f3+3),f
  7895                           	line	70
  7896  142E  082E               	movf	(___fldiv@f2+3),w
  7897  142F  0232               	subwf	(___fldiv@f1+3),w
  7898  1430  1D03               	skipz
  7899  1431  2C3C               	goto	u1685
  7900  1432  082D               	movf	(___fldiv@f2+2),w
  7901  1433  0231               	subwf	(___fldiv@f1+2),w
  7902  1434  1D03               	skipz
  7903  1435  2C3C               	goto	u1685
  7904  1436  082C               	movf	(___fldiv@f2+1),w
  7905  1437  0230               	subwf	(___fldiv@f1+1),w
  7906  1438  1D03               	skipz
  7907  1439  2C3C               	goto	u1685
  7908  143A  082B               	movf	(___fldiv@f2),w
  7909  143B  022F               	subwf	(___fldiv@f1),w
  7910  143C                     u1685:
  7911  143C  1C03               	skipc
  7912  143D  2C3F               	goto	u1681
  7913  143E  2C40               	goto	u1680
  7914  143F                     u1681:
  7915  143F  2C4F               	goto	l9794
  7916  1440                     u1680:
  7917                           	line	71
  7918                           	
  7919  1440                     l9790:	
  7920  1440  082B               	movf	(___fldiv@f2),w
  7921  1441  02AF               	subwf	(___fldiv@f1),f
  7922  1442  082C               	movf	(___fldiv@f2+1),w
  7923  1443  1C03               	skipc
  7924  1444  0F2C               	incfsz	(___fldiv@f2+1),w
  7925  1445  02B0               	subwf	(___fldiv@f1+1),f
  7926  1446  082D               	movf	(___fldiv@f2+2),w
  7927  1447  1C03               	skipc
  7928  1448  0F2D               	incfsz	(___fldiv@f2+2),w
  7929  1449  02B1               	subwf	(___fldiv@f1+2),f
  7930  144A  082E               	movf	(___fldiv@f2+3),w
  7931  144B  1C03               	skipc
  7932  144C  0F2E               	incfsz	(___fldiv@f2+3),w
  7933  144D  02B2               	subwf	(___fldiv@f1+3),f
  7934                           	line	72
  7935                           	
  7936  144E                     l9792:	
  7937  144E  1437               	bsf	(___fldiv@f3)+(0/8),(0)&7
  7938                           	line	74
  7939                           	
  7940  144F                     l9794:	
  7941  144F  1003               	clrc
  7942  1450  0DAF               	rlf	(___fldiv@f1),f
  7943  1451  0DB0               	rlf	(___fldiv@f1+1),f
  7944  1452  0DB1               	rlf	(___fldiv@f1+2),f
  7945  1453  0DB2               	rlf	(___fldiv@f1+3),f
  7946                           	line	75
  7947                           	
  7948  1454                     l9796:	
  7949  1454  0BBB               	decfsz	(___fldiv@cntr),f
  7950  1455  2C57               	goto	u1691
  7951  1456  2C58               	goto	u1690
  7952  1457                     u1691:
  7953  1457  2C29               	goto	l9788
  7954  1458                     u1690:
  7955                           	line	76
  7956                           	
  7957  1458                     l9798:	
  7958  1458  083A               	movf	(___fldiv@f3+3),w
  7959  1459  00F3               	movwf	(?___flpack+3)
  7960  145A  0839               	movf	(___fldiv@f3+2),w
  7961  145B  00F2               	movwf	(?___flpack+2)
  7962  145C  0838               	movf	(___fldiv@f3+1),w
  7963  145D  00F1               	movwf	(?___flpack+1)
  7964  145E  0837               	movf	(___fldiv@f3),w
  7965  145F  00F0               	movwf	(?___flpack)
  7966                           
  7967  1460  083C               	movf	(___fldiv@exp),w
  7968  1461  00F4               	movwf	0+(?___flpack)+04h
  7969  1462  083D               	movf	(___fldiv@sign),w
  7970  1463  00F5               	movwf	0+(?___flpack)+05h
  7971  1464  160A  118A  21A1   	fcall	___flpack
              160A  118A         
  7972  1469  0873               	movf	(3+(?___flpack)),w
  7973  146A  00AE               	movwf	(?___fldiv+3)
  7974  146B  0872               	movf	(2+(?___flpack)),w
  7975  146C  00AD               	movwf	(?___fldiv+2)
  7976  146D  0871               	movf	(1+(?___flpack)),w
  7977  146E  00AC               	movwf	(?___fldiv+1)
  7978  146F  0870               	movf	(0+(?___flpack)),w
  7979  1470  00AB               	movwf	(?___fldiv)
  7980                           
  7981                           	line	77
  7982                           	
  7983  1471                     l6694:	
  7984  1471  0008               	return
  7985                           	opt stack 0
  7986                           GLOBAL	__end_of___fldiv
  7987  1472                     	__end_of___fldiv:
  7988 ;; =============== function ___fldiv ends ============
  7989                           
  7990                           	signat	___fldiv,8316
  7991                           	global	___fladd
  7992                           psect	text587,local,class=CODE,delta=2
  7993                           global __ptext587
  7994  16DE                     __ptext587:
  7995                           
  7996 ;; *************** function ___fladd *****************
  7997 ;; Defined at:
  7998 ;;		line 89 in file "C:\Program Files (x86)\HI-TECH Software\PICC\9.83\sources\fladd.c"
  7999 ;; Parameters:    Size  Location     Type
  8000 ;;  f1              4    0[BANK0 ] unsigned char 
  8001 ;;  f2              4    4[BANK0 ] unsigned char 
  8002 ;; Auto vars:     Size  Location     Type
  8003 ;;  exp1            1   10[BANK0 ] unsigned char 
  8004 ;;  exp2            1    9[BANK0 ] unsigned char 
  8005 ;;  sign            1    8[BANK0 ] unsigned char 
  8006 ;; Return value:  Size  Location     Type
  8007 ;;                  4    0[BANK0 ] unsigned char 
  8008 ;; Registers used:
  8009 ;;		wreg, status,2, status,0, pclath, cstack
  8010 ;; Tracked objects:
  8011 ;;		On entry : 60/0
  8012 ;;		On exit  : 60/0
  8013 ;;		Unchanged: FFF9F/0
  8014 ;; Data sizes:     COMMON   BANK0   BANK1   BANK3   BANK2
  8015 ;;      Params:         0       8       0       0       0
  8016 ;;      Locals:         0       3       0       0       0
  8017 ;;      Temps:          4       0       0       0       0
  8018 ;;      Totals:         4      11       0       0       0
  8019 ;;Total ram usage:       15 bytes
  8020 ;; Hardware stack levels used:    1
  8021 ;; Hardware stack levels required when called:    1
  8022 ;; This function calls:
  8023 ;;		___flpack
  8024 ;; This function is called by:
  8025 ;;		___flsub
  8026 ;; This function uses a non-reentrant model
  8027 ;;
  8028                           psect	text587
  8029                           	file	"C:\Program Files (x86)\HI-TECH Software\PICC\9.83\sources\fladd.c"
  8030                           	line	89
  8031                           	global	__size_of___fladd
  8032  0122                     	__size_of___fladd	equ	__end_of___fladd-___fladd
  8033                           	
  8034  16DE                     ___fladd:	
  8035                           	opt	stack 4
  8036                           ; Regs used in ___fladd: [wreg+status,2+status,0+pclath+cstack]
  8037                           	line	92
  8038                           	
  8039  16DE                     l9684:	
  8040  16DE  0820               	movf	(___fladd@f1),w
  8041  16DF  00FA               	movwf	(??___fladd+0)+0
  8042  16E0  0821               	movf	(___fladd@f1+1),w
  8043  16E1  00FB               	movwf	((??___fladd+0)+0+1)
  8044  16E2  0822               	movf	(___fladd@f1+2),w
  8045  16E3  00FC               	movwf	((??___fladd+0)+0+2)
  8046  16E4  0823               	movf	(___fladd@f1+3),w
  8047  16E5  00FD               	movwf	((??___fladd+0)+0+3)
  8048  16E6  1003               	clrc
  8049  16E7  0D7C               	rlf	(??___fladd+0)+2,w
  8050  16E8  0D7D               	rlf	(??___fladd+0)+3,w
  8051  16E9  00AA               	movwf	(___fladd@exp1)
  8052                           	line	93
  8053  16EA  0824               	movf	(___fladd@f2),w
  8054  16EB  00FA               	movwf	(??___fladd+0)+0
  8055  16EC  0825               	movf	(___fladd@f2+1),w
  8056  16ED  00FB               	movwf	((??___fladd+0)+0+1)
  8057  16EE  0826               	movf	(___fladd@f2+2),w
  8058  16EF  00FC               	movwf	((??___fladd+0)+0+2)
  8059  16F0  0827               	movf	(___fladd@f2+3),w
  8060  16F1  00FD               	movwf	((??___fladd+0)+0+3)
  8061  16F2  1003               	clrc
  8062  16F3  0D7C               	rlf	(??___fladd+0)+2,w
  8063  16F4  0D7D               	rlf	(??___fladd+0)+3,w
  8064  16F5  00A9               	movwf	(___fladd@exp2)
  8065                           	line	94
  8066                           	
  8067  16F6                     l9686:	
  8068  16F6  082A               	movf	(___fladd@exp1),w
  8069  16F7  1D03               	skipz
  8070  16F8  2EFA               	goto	u1460
  8071  16F9  2F0A               	goto	l9692
  8072  16FA                     u1460:
  8073                           	
  8074  16FA                     l9688:	
  8075  16FA  0829               	movf	(___fladd@exp2),w
  8076  16FB  022A               	subwf	(___fladd@exp1),w
  8077  16FC  1803               	skipnc
  8078  16FD  2EFF               	goto	u1471
  8079  16FE  2F00               	goto	u1470
  8080  16FF                     u1471:
  8081  16FF  2F13               	goto	l9696
  8082  1700                     u1470:
  8083                           	
  8084  1700                     l9690:	
  8085  1700  0829               	movf	(___fladd@exp2),w
  8086  1701  00FA               	movwf	(??___fladd+0)+0
  8087  1702  082A               	movf	(___fladd@exp1),w
  8088  1703  02FA               	subwf	(??___fladd+0)+0,f
  8089  1704  3021               	movlw	(021h)
  8090  1705  027A               	subwf	0+(??___fladd+0)+0,w
  8091  1706  1C03               	skipc
  8092  1707  2F09               	goto	u1481
  8093  1708  2F0A               	goto	u1480
  8094  1709                     u1481:
  8095  1709  2F13               	goto	l9696
  8096  170A                     u1480:
  8097                           	line	95
  8098                           	
  8099  170A                     l9692:	
  8100  170A  0827               	movf	(___fladd@f2+3),w
  8101  170B  00A3               	movwf	(?___fladd+3)
  8102  170C  0826               	movf	(___fladd@f2+2),w
  8103  170D  00A2               	movwf	(?___fladd+2)
  8104  170E  0825               	movf	(___fladd@f2+1),w
  8105  170F  00A1               	movwf	(?___fladd+1)
  8106  1710  0824               	movf	(___fladd@f2),w
  8107  1711  00A0               	movwf	(?___fladd)
  8108                           
  8109  1712  2FFF               	goto	l6658
  8110                           	line	96
  8111                           	
  8112  1713                     l9696:	
  8113  1713  0829               	movf	(___fladd@exp2),w
  8114  1714  1D03               	skipz
  8115  1715  2F17               	goto	u1490
  8116  1716  2F27               	goto	l6661
  8117  1717                     u1490:
  8118                           	
  8119  1717                     l9698:	
  8120  1717  082A               	movf	(___fladd@exp1),w
  8121  1718  0229               	subwf	(___fladd@exp2),w
  8122  1719  1803               	skipnc
  8123  171A  2F1C               	goto	u1501
  8124  171B  2F1D               	goto	u1500
  8125  171C                     u1501:
  8126  171C  2F28               	goto	l9702
  8127  171D                     u1500:
  8128                           	
  8129  171D                     l9700:	
  8130  171D  082A               	movf	(___fladd@exp1),w
  8131  171E  00FA               	movwf	(??___fladd+0)+0
  8132  171F  0829               	movf	(___fladd@exp2),w
  8133  1720  02FA               	subwf	(??___fladd+0)+0,f
  8134  1721  3021               	movlw	(021h)
  8135  1722  027A               	subwf	0+(??___fladd+0)+0,w
  8136  1723  1C03               	skipc
  8137  1724  2F26               	goto	u1511
  8138  1725  2F27               	goto	u1510
  8139  1726                     u1511:
  8140  1726  2F28               	goto	l9702
  8141  1727                     u1510:
  8142                           	
  8143  1727                     l6661:	
  8144                           	line	97
  8145  1727  2FFF               	goto	l6658
  8146                           	line	98
  8147                           	
  8148  1728                     l9702:	
  8149  1728  3006               	movlw	(06h)
  8150  1729  00A8               	movwf	(___fladd@sign)
  8151                           	line	99
  8152                           	
  8153  172A                     l9704:	
  8154  172A  1FA3               	btfss	(___fladd@f1+3),(31)&7
  8155  172B  2F2D               	goto	u1521
  8156  172C  2F2E               	goto	u1520
  8157  172D                     u1521:
  8158  172D  2F2F               	goto	l6662
  8159  172E                     u1520:
  8160                           	line	100
  8161                           	
  8162  172E                     l9706:	
  8163  172E  17A8               	bsf	(___fladd@sign)+(7/8),(7)&7
  8164                           	
  8165  172F                     l6662:	
  8166                           	line	101
  8167  172F  1FA7               	btfss	(___fladd@f2+3),(31)&7
  8168  1730  2F32               	goto	u1531
  8169  1731  2F33               	goto	u1530
  8170  1732                     u1531:
  8171  1732  2F34               	goto	l6663
  8172  1733                     u1530:
  8173                           	line	102
  8174                           	
  8175  1733                     l9708:	
  8176  1733  1728               	bsf	(___fladd@sign)+(6/8),(6)&7
  8177                           	
  8178  1734                     l6663:	
  8179                           	line	103
  8180  1734  17A2               	bsf	(___fladd@f1)+(23/8),(23)&7
  8181                           	line	104
  8182                           	
  8183  1735                     l9710:	
  8184  1735  30FF               	movlw	0FFh
  8185  1736  05A0               	andwf	(___fladd@f1),f
  8186  1737  30FF               	movlw	0FFh
  8187  1738  05A1               	andwf	(___fladd@f1+1),f
  8188  1739  30FF               	movlw	0FFh
  8189  173A  05A2               	andwf	(___fladd@f1+2),f
  8190  173B  3000               	movlw	0
  8191  173C  05A3               	andwf	(___fladd@f1+3),f
  8192                           	line	105
  8193                           	
  8194  173D                     l9712:	
  8195  173D  17A6               	bsf	(___fladd@f2)+(23/8),(23)&7
  8196                           	line	106
  8197  173E  30FF               	movlw	0FFh
  8198  173F  05A4               	andwf	(___fladd@f2),f
  8199  1740  30FF               	movlw	0FFh
  8200  1741  05A5               	andwf	(___fladd@f2+1),f
  8201  1742  30FF               	movlw	0FFh
  8202  1743  05A6               	andwf	(___fladd@f2+2),f
  8203  1744  3000               	movlw	0
  8204  1745  05A7               	andwf	(___fladd@f2+3),f
  8205                           	line	108
  8206  1746  0829               	movf	(___fladd@exp2),w
  8207  1747  022A               	subwf	(___fladd@exp1),w
  8208  1748  1803               	skipnc
  8209  1749  2F4B               	goto	u1541
  8210  174A  2F4C               	goto	u1540
  8211  174B                     u1541:
  8212  174B  2F6D               	goto	l9724
  8213  174C                     u1540:
  8214                           	line	112
  8215                           	
  8216  174C                     l9714:	
  8217  174C  1003               	clrc
  8218  174D  0DA4               	rlf	(___fladd@f2),f
  8219  174E  0DA5               	rlf	(___fladd@f2+1),f
  8220  174F  0DA6               	rlf	(___fladd@f2+2),f
  8221  1750  0DA7               	rlf	(___fladd@f2+3),f
  8222                           	line	113
  8223  1751  03A9               	decf	(___fladd@exp2),f
  8224                           	line	114
  8225                           	
  8226  1752                     l9716:	
  8227  1752  0829               	movf	(___fladd@exp2),w
  8228  1753  062A               	xorwf	(___fladd@exp1),w
  8229  1754  1903               	skipnz
  8230  1755  2F57               	goto	u1551
  8231  1756  2F58               	goto	u1550
  8232  1757                     u1551:
  8233  1757  2F66               	goto	l9722
  8234  1758                     u1550:
  8235                           	
  8236  1758                     l9718:	
  8237  1758  03A8               	decf	(___fladd@sign),f
  8238  1759  0828               	movf	((___fladd@sign)),w
  8239  175A  3907               	andlw	07h
  8240  175B  1D03               	btfss	status,2
  8241  175C  2F5E               	goto	u1561
  8242  175D  2F5F               	goto	u1560
  8243  175E                     u1561:
  8244  175E  2F4C               	goto	l9714
  8245  175F                     u1560:
  8246  175F  2F66               	goto	l9722
  8247                           	line	116
  8248                           	
  8249  1760                     l9720:	
  8250  1760  1003               	clrc
  8251  1761  0CA3               	rrf	(___fladd@f1+3),f
  8252  1762  0CA2               	rrf	(___fladd@f1+2),f
  8253  1763  0CA1               	rrf	(___fladd@f1+1),f
  8254  1764  0CA0               	rrf	(___fladd@f1),f
  8255                           	line	117
  8256  1765  0AAA               	incf	(___fladd@exp1),f
  8257                           	line	115
  8258                           	
  8259  1766                     l9722:	
  8260  1766  082A               	movf	(___fladd@exp1),w
  8261  1767  0629               	xorwf	(___fladd@exp2),w
  8262  1768  1D03               	skipz
  8263  1769  2F6B               	goto	u1571
  8264  176A  2F6C               	goto	u1570
  8265  176B                     u1571:
  8266  176B  2F60               	goto	l9720
  8267  176C                     u1570:
  8268  176C  2F93               	goto	l6672
  8269                           	line	119
  8270                           	
  8271  176D                     l9724:	
  8272  176D  082A               	movf	(___fladd@exp1),w
  8273  176E  0229               	subwf	(___fladd@exp2),w
  8274  176F  1803               	skipnc
  8275  1770  2F72               	goto	u1581
  8276  1771  2F73               	goto	u1580
  8277  1772                     u1581:
  8278  1772  2F93               	goto	l6672
  8279  1773                     u1580:
  8280                           	line	123
  8281                           	
  8282  1773                     l9726:	
  8283  1773  1003               	clrc
  8284  1774  0DA0               	rlf	(___fladd@f1),f
  8285  1775  0DA1               	rlf	(___fladd@f1+1),f
  8286  1776  0DA2               	rlf	(___fladd@f1+2),f
  8287  1777  0DA3               	rlf	(___fladd@f1+3),f
  8288                           	line	124
  8289  1778  03AA               	decf	(___fladd@exp1),f
  8290                           	line	125
  8291                           	
  8292  1779                     l9728:	
  8293  1779  0829               	movf	(___fladd@exp2),w
  8294  177A  062A               	xorwf	(___fladd@exp1),w
  8295  177B  1903               	skipnz
  8296  177C  2F7E               	goto	u1591
  8297  177D  2F7F               	goto	u1590
  8298  177E                     u1591:
  8299  177E  2F8D               	goto	l9734
  8300  177F                     u1590:
  8301                           	
  8302  177F                     l9730:	
  8303  177F  03A8               	decf	(___fladd@sign),f
  8304  1780  0828               	movf	((___fladd@sign)),w
  8305  1781  3907               	andlw	07h
  8306  1782  1D03               	btfss	status,2
  8307  1783  2F85               	goto	u1601
  8308  1784  2F86               	goto	u1600
  8309  1785                     u1601:
  8310  1785  2F73               	goto	l9726
  8311  1786                     u1600:
  8312  1786  2F8D               	goto	l9734
  8313                           	line	127
  8314                           	
  8315  1787                     l9732:	
  8316  1787  1003               	clrc
  8317  1788  0CA7               	rrf	(___fladd@f2+3),f
  8318  1789  0CA6               	rrf	(___fladd@f2+2),f
  8319  178A  0CA5               	rrf	(___fladd@f2+1),f
  8320  178B  0CA4               	rrf	(___fladd@f2),f
  8321                           	line	128
  8322  178C  0AA9               	incf	(___fladd@exp2),f
  8323                           	line	126
  8324                           	
  8325  178D                     l9734:	
  8326  178D  082A               	movf	(___fladd@exp1),w
  8327  178E  0629               	xorwf	(___fladd@exp2),w
  8328  178F  1D03               	skipz
  8329  1790  2F92               	goto	u1611
  8330  1791  2F93               	goto	u1610
  8331  1792                     u1611:
  8332  1792  2F87               	goto	l9732
  8333  1793                     u1610:
  8334                           	line	131
  8335                           	
  8336  1793                     l6672:	
  8337  1793  1FA8               	btfss	(___fladd@sign),(7)&7
  8338  1794  2F96               	goto	u1621
  8339  1795  2F97               	goto	u1620
  8340  1796                     u1621:
  8341  1796  2FA6               	goto	l9740
  8342  1797                     u1620:
  8343                           	line	133
  8344                           	
  8345  1797                     l9736:	
  8346  1797  30FF               	movlw	0FFh
  8347  1798  06A0               	xorwf	(___fladd@f1),f
  8348  1799  30FF               	movlw	0FFh
  8349  179A  06A1               	xorwf	(___fladd@f1+1),f
  8350  179B  30FF               	movlw	0FFh
  8351  179C  06A2               	xorwf	(___fladd@f1+2),f
  8352  179D  30FF               	movlw	0FFh
  8353  179E  06A3               	xorwf	(___fladd@f1+3),f
  8354                           	line	134
  8355                           	
  8356  179F                     l9738:	
  8357  179F  0AA0               	incf	(___fladd@f1),f
  8358  17A0  1903               	skipnz
  8359  17A1  0AA1               	incf	(___fladd@f1+1),f
  8360  17A2  1903               	skipnz
  8361  17A3  0AA2               	incf	(___fladd@f1+2),f
  8362  17A4  1903               	skipnz
  8363  17A5  0AA3               	incf	(___fladd@f1+3),f
  8364                           	line	136
  8365                           	
  8366  17A6                     l9740:	
  8367  17A6  1F28               	btfss	(___fladd@sign),(6)&7
  8368  17A7  2FA9               	goto	u1631
  8369  17A8  2FAA               	goto	u1630
  8370  17A9                     u1631:
  8371  17A9  2FB9               	goto	l9746
  8372  17AA                     u1630:
  8373                           	line	138
  8374                           	
  8375  17AA                     l9742:	
  8376  17AA  30FF               	movlw	0FFh
  8377  17AB  06A4               	xorwf	(___fladd@f2),f
  8378  17AC  30FF               	movlw	0FFh
  8379  17AD  06A5               	xorwf	(___fladd@f2+1),f
  8380  17AE  30FF               	movlw	0FFh
  8381  17AF  06A6               	xorwf	(___fladd@f2+2),f
  8382  17B0  30FF               	movlw	0FFh
  8383  17B1  06A7               	xorwf	(___fladd@f2+3),f
  8384                           	line	139
  8385                           	
  8386  17B2                     l9744:	
  8387  17B2  0AA4               	incf	(___fladd@f2),f
  8388  17B3  1903               	skipnz
  8389  17B4  0AA5               	incf	(___fladd@f2+1),f
  8390  17B5  1903               	skipnz
  8391  17B6  0AA6               	incf	(___fladd@f2+2),f
  8392  17B7  1903               	skipnz
  8393  17B8  0AA7               	incf	(___fladd@f2+3),f
  8394                           	line	141
  8395                           	
  8396  17B9                     l9746:	
  8397  17B9  01A8               	clrf	(___fladd@sign)
  8398                           	line	142
  8399                           	
  8400  17BA                     l9748:	
  8401  17BA  0820               	movf	(___fladd@f1),w
  8402  17BB  07A4               	addwf	(___fladd@f2),f
  8403  17BC  0821               	movf	(___fladd@f1+1),w
  8404  17BD  1103               	clrz
  8405  17BE  1803               	skipnc
  8406  17BF  3E01               	addlw	1
  8407  17C0  1903               	skipnz
  8408  17C1  2FC3               	goto	u1641
  8409  17C2  07A5               	addwf	(___fladd@f2+1),f
  8410  17C3                     u1641:
  8411  17C3  0822               	movf	(___fladd@f1+2),w
  8412  17C4  1103               	clrz
  8413  17C5  1803               	skipnc
  8414  17C6  3E01               	addlw	1
  8415  17C7  1903               	skipnz
  8416  17C8  2FCA               	goto	u1642
  8417  17C9  07A6               	addwf	(___fladd@f2+2),f
  8418  17CA                     u1642:
  8419  17CA  0823               	movf	(___fladd@f1+3),w
  8420  17CB  1103               	clrz
  8421  17CC  1803               	skipnc
  8422  17CD  3E01               	addlw	1
  8423  17CE  1903               	skipnz
  8424  17CF  2FD1               	goto	u1643
  8425  17D0  07A7               	addwf	(___fladd@f2+3),f
  8426  17D1                     u1643:
  8427                           
  8428                           	line	143
  8429                           	
  8430  17D1                     l9750:	
  8431  17D1  1FA7               	btfss	(___fladd@f2+3),(31)&7
  8432  17D2  2FD4               	goto	u1651
  8433  17D3  2FD5               	goto	u1650
  8434  17D4                     u1651:
  8435  17D4  2FE6               	goto	l9758
  8436  17D5                     u1650:
  8437                           	line	144
  8438                           	
  8439  17D5                     l9752:	
  8440  17D5  30FF               	movlw	0FFh
  8441  17D6  06A4               	xorwf	(___fladd@f2),f
  8442  17D7  30FF               	movlw	0FFh
  8443  17D8  06A5               	xorwf	(___fladd@f2+1),f
  8444  17D9  30FF               	movlw	0FFh
  8445  17DA  06A6               	xorwf	(___fladd@f2+2),f
  8446  17DB  30FF               	movlw	0FFh
  8447  17DC  06A7               	xorwf	(___fladd@f2+3),f
  8448                           	line	145
  8449                           	
  8450  17DD                     l9754:	
  8451  17DD  0AA4               	incf	(___fladd@f2),f
  8452  17DE  1903               	skipnz
  8453  17DF  0AA5               	incf	(___fladd@f2+1),f
  8454  17E0  1903               	skipnz
  8455  17E1  0AA6               	incf	(___fladd@f2+2),f
  8456  17E2  1903               	skipnz
  8457  17E3  0AA7               	incf	(___fladd@f2+3),f
  8458                           	line	146
  8459                           	
  8460  17E4                     l9756:	
  8461  17E4  01A8               	clrf	(___fladd@sign)
  8462  17E5  0AA8               	incf	(___fladd@sign),f
  8463                           	line	148
  8464                           	
  8465  17E6                     l9758:	
  8466  17E6  0827               	movf	(___fladd@f2+3),w
  8467  17E7  00F3               	movwf	(?___flpack+3)
  8468  17E8  0826               	movf	(___fladd@f2+2),w
  8469  17E9  00F2               	movwf	(?___flpack+2)
  8470  17EA  0825               	movf	(___fladd@f2+1),w
  8471  17EB  00F1               	movwf	(?___flpack+1)
  8472  17EC  0824               	movf	(___fladd@f2),w
  8473  17ED  00F0               	movwf	(?___flpack)
  8474                           
  8475  17EE  082A               	movf	(___fladd@exp1),w
  8476  17EF  00F4               	movwf	0+(?___flpack)+04h
  8477  17F0  0828               	movf	(___fladd@sign),w
  8478  17F1  00F5               	movwf	0+(?___flpack)+05h
  8479  17F2  160A  118A  21A1   	fcall	___flpack
              160A  118A         
  8480  17F7  0873               	movf	(3+(?___flpack)),w
  8481  17F8  00A3               	movwf	(?___fladd+3)
  8482  17F9  0872               	movf	(2+(?___flpack)),w
  8483  17FA  00A2               	movwf	(?___fladd+2)
  8484  17FB  0871               	movf	(1+(?___flpack)),w
  8485  17FC  00A1               	movwf	(?___fladd+1)
  8486  17FD  0870               	movf	(0+(?___flpack)),w
  8487  17FE  00A0               	movwf	(?___fladd)
  8488                           
  8489                           	line	149
  8490                           	
  8491  17FF                     l6658:	
  8492  17FF  0008               	return
  8493                           	opt stack 0
  8494                           GLOBAL	__end_of___fladd
  8495  1800                     	__end_of___fladd:
  8496 ;; =============== function ___fladd ends ============
  8497                           
  8498                           	signat	___fladd,8316
  8499                           	global	_ser_puts
  8500                           psect	text588,local,class=CODE,delta=2
  8501                           global __ptext588
  8502  103F                     __ptext588:
  8503                           
  8504 ;; *************** function _ser_puts *****************
  8505 ;; Defined at:
  8506 ;;		line 92 in file "C:\Users\vboxuser\Desktop\lc-meter\lib\ser.c"
  8507 ;; Parameters:    Size  Location     Type
  8508 ;;  s               2    1[COMMON] PTR const unsigned char 
  8509 ;;		 -> STR_5(6), 
  8510 ;; Auto vars:     Size  Location     Type
  8511 ;;		None
  8512 ;; Return value:  Size  Location     Type
  8513 ;;		None               void
  8514 ;; Registers used:
  8515 ;;		wreg, fsr0l, fsr0h, status,2, status,0, btemp+1, pclath, cstack
  8516 ;; Tracked objects:
  8517 ;;		On entry : 0/0
  8518 ;;		On exit  : 60/0
  8519 ;;		Unchanged: FFE9F/0
  8520 ;; Data sizes:     COMMON   BANK0   BANK1   BANK3   BANK2
  8521 ;;      Params:         2       0       0       0       0
  8522 ;;      Locals:         0       0       0       0       0
  8523 ;;      Temps:          0       0       0       0       0
  8524 ;;      Totals:         2       0       0       0       0
  8525 ;;Total ram usage:        2 bytes
  8526 ;; Hardware stack levels used:    1
  8527 ;; Hardware stack levels required when called:    1
  8528 ;; This function calls:
  8529 ;;		_ser_putch
  8530 ;; This function is called by:
  8531 ;;		_main
  8532 ;; This function uses a non-reentrant model
  8533 ;;
  8534                           psect	text588
  8535                           	file	"C:\Users\vboxuser\Desktop\lc-meter\lib\ser.c"
  8536                           	line	92
  8537                           	global	__size_of_ser_puts
  8538  0023                     	__size_of_ser_puts	equ	__end_of_ser_puts-_ser_puts
  8539                           	
  8540  103F                     _ser_puts:	
  8541                           	opt	stack 6
  8542                           ; Regs used in _ser_puts: [wreg-fsr0h+status,2+status,0+btemp+1+pclath+cstack]
  8543                           	line	93
  8544                           	
  8545  103F                     l9676:	
  8546                           ;ser.c: 93: while(*s) ser_putch(*s++);
  8547  103F  2851               	goto	l9682
  8548                           	
  8549  1040                     l9678:	
  8550  1040  0872               	movf	(ser_puts@s+1),w
  8551  1041  00FF               	movwf	btemp+1
  8552  1042  0871               	movf	(ser_puts@s),w
  8553  1043  0084               	movwf	fsr0
  8554  1044  120A  118A  2100   	fcall	stringtab
              160A  118A         
  8555  1049  160A  158A  277E   	fcall	_ser_putch
              160A  118A         
  8556                           	
  8557  104E                     l9680:	
  8558  104E  0AF1               	incf	(ser_puts@s),f
  8559  104F  1903               	skipnz
  8560  1050  0AF2               	incf	(ser_puts@s+1),f
  8561                           	
  8562  1051                     l9682:	
  8563  1051  0872               	movf	(ser_puts@s+1),w
  8564  1052  1283               	bcf	status, 5	;RP0=0, select bank0
  8565  1053  1303               	bcf	status, 6	;RP1=0, select bank0
  8566  1054  00FF               	movwf	btemp+1
  8567  1055  0871               	movf	(ser_puts@s),w
  8568  1056  0084               	movwf	fsr0
  8569  1057  120A  118A  2100   	fcall	stringtab
              160A  118A         
  8570  105C  3800               	iorlw	0
  8571  105D  1D03               	skipz
  8572  105E  2860               	goto	u1451
  8573  105F  2861               	goto	u1450
  8574  1060                     u1451:
  8575  1060  2840               	goto	l9678
  8576  1061                     u1450:
  8577                           	line	94
  8578                           	
  8579  1061                     l4603:	
  8580  1061  0008               	return
  8581                           	opt stack 0
  8582                           GLOBAL	__end_of_ser_puts
  8583  1062                     	__end_of_ser_puts:
  8584 ;; =============== function _ser_puts ends ============
  8585                           
  8586                           	signat	_ser_puts,4216
  8587                           	global	_delay10ms
  8588                           psect	text589,local,class=CODE,delta=2
  8589                           global __ptext589
  8590  1F94                     __ptext589:
  8591                           
  8592 ;; *************** function _delay10ms *****************
  8593 ;; Defined at:
  8594 ;;		line 200 in file "C:\Users\vboxuser\Desktop\lc-meter\src\julznc\main.c"
  8595 ;; Parameters:    Size  Location     Type
  8596 ;;  period_10ms     2    0[COMMON] unsigned int 
  8597 ;; Auto vars:     Size  Location     Type
  8598 ;;		None
  8599 ;; Return value:  Size  Location     Type
  8600 ;;		None               void
  8601 ;; Registers used:
  8602 ;;		wreg, status,2, status,0
  8603 ;; Tracked objects:
  8604 ;;		On entry : 40/0
  8605 ;;		On exit  : 0/0
  8606 ;;		Unchanged: 0/0
  8607 ;; Data sizes:     COMMON   BANK0   BANK1   BANK3   BANK2
  8608 ;;      Params:         2       0       0       0       0
  8609 ;;      Locals:         0       0       0       0       0
  8610 ;;      Temps:          2       0       0       0       0
  8611 ;;      Totals:         4       0       0       0       0
  8612 ;;Total ram usage:        4 bytes
  8613 ;; Hardware stack levels used:    1
  8614 ;; This function calls:
  8615 ;;		Nothing
  8616 ;; This function is called by:
  8617 ;;		_main
  8618 ;;		_measure_freq
  8619 ;;		_calibrate
  8620 ;; This function uses a non-reentrant model
  8621 ;;
  8622                           psect	text589
  8623                           	file	"C:\Users\vboxuser\Desktop\lc-meter\src\julznc\main.c"
  8624                           	line	200
  8625                           	global	__size_of_delay10ms
  8626  0016                     	__size_of_delay10ms	equ	__end_of_delay10ms-_delay10ms
  8627                           	
  8628  1F94                     _delay10ms:	
  8629                           	opt	stack 5
  8630                           ; Regs used in _delay10ms: [wreg+status,2+status,0]
  8631                           	line	201
  8632                           ;main.c: 201: do {
  8633                           	
  8634  1F94                     l1467:	
  8635                           	line	202
  8636                           	
  8637  1F94                     l9672:	
  8638                           ;main.c: 202: _delay((unsigned long)((10)*(20000000/4000.0)));
  8639                           	opt asmopt_off
  8640  1F94  3041               movlw	65
  8641  1F95  00F3               movwf	((??_delay10ms+0)+0+1),f
  8642  1F96  30EE               	movlw	238
  8643  1F97  00F2               movwf	((??_delay10ms+0)+0),f
  8644  1F98                     u2097:
  8645  1F98  0BF2               	decfsz	((??_delay10ms+0)+0),f
  8646  1F99  2F98               	goto	u2097
  8647  1F9A  0BF3               	decfsz	((??_delay10ms+0)+0+1),f
  8648  1F9B  2F98               	goto	u2097
  8649  1F9C  0064               	clrwdt
  8650                           opt asmopt_on
  8651                           
  8652                           	line	203
  8653                           	
  8654  1F9D                     l9674:	
  8655                           ;main.c: 203: } while(--period_10ms);
  8656  1F9D  3001               	movlw	low(01h)
  8657  1F9E  02F0               	subwf	(delay10ms@period_10ms),f
  8658  1F9F  3000               	movlw	high(01h)
  8659  1FA0  1C03               	skipc
  8660  1FA1  03F1               	decf	(delay10ms@period_10ms+1),f
  8661  1FA2  02F1               	subwf	(delay10ms@period_10ms+1),f
  8662  1FA3  0871               	movf	(((delay10ms@period_10ms+1))),w
  8663  1FA4  0470               	iorwf	(((delay10ms@period_10ms))),w
  8664  1FA5  1D03               	skipz
  8665  1FA6  2FA8               	goto	u1441
  8666  1FA7  2FA9               	goto	u1440
  8667  1FA8                     u1441:
  8668  1FA8  2F94               	goto	l1467
  8669  1FA9                     u1440:
  8670                           	line	204
  8671                           	
  8672  1FA9                     l1469:	
  8673  1FA9  0008               	return
  8674                           	opt stack 0
  8675                           GLOBAL	__end_of_delay10ms
  8676  1FAA                     	__end_of_delay10ms:
  8677 ;; =============== function _delay10ms ends ============
  8678                           
  8679                           	signat	_delay10ms,4216
  8680                           	global	_lcd_send
  8681                           psect	text590,local,class=CODE,delta=2
  8682                           global __ptext590
  8683  1472                     __ptext590:
  8684                           
  8685 ;; *************** function _lcd_send *****************
  8686 ;; Defined at:
  8687 ;;		line 140 in file "C:\Users\vboxuser\Desktop\lc-meter\src\julznc\lcd3310.c"
  8688 ;; Parameters:    Size  Location     Type
  8689 ;;  a               1    wreg     unsigned char 
  8690 ;;  cmd             1    6[COMMON] unsigned char 
  8691 ;; Auto vars:     Size  Location     Type
  8692 ;;  a               1    7[COMMON] unsigned char 
  8693 ;; Return value:  Size  Location     Type
  8694 ;;		None               void
  8695 ;; Registers used:
  8696 ;;		wreg, status,2, status,0
  8697 ;; Tracked objects:
  8698 ;;		On entry : 0/0
  8699 ;;		On exit  : 60/0
  8700 ;;		Unchanged: 0/0
  8701 ;; Data sizes:     COMMON   BANK0   BANK1   BANK3   BANK2
  8702 ;;      Params:         1       0       0       0       0
  8703 ;;      Locals:         1       0       0       0       0
  8704 ;;      Temps:          0       0       0       0       0
  8705 ;;      Totals:         2       0       0       0       0
  8706 ;;Total ram usage:        2 bytes
  8707 ;; Hardware stack levels used:    1
  8708 ;; This function calls:
  8709 ;;		Nothing
  8710 ;; This function is called by:
  8711 ;;		_display_digit
  8712 ;;		_display_unit
  8713 ;;		_display_reading
  8714 ;;		_indicator
  8715 ;;		_lcd_init
  8716 ;;		_lcd_clear
  8717 ;;		_lcd_gotoxy
  8718 ;;		_lcd_putch
  8719 ;;		_main
  8720 ;;		_calibrate
  8721 ;; This function uses a non-reentrant model
  8722 ;;
  8723                           psect	text590
  8724                           	file	"C:\Users\vboxuser\Desktop\lc-meter\src\julznc\lcd3310.c"
  8725                           	line	140
  8726                           	global	__size_of_lcd_send
  8727  009B                     	__size_of_lcd_send	equ	__end_of_lcd_send-_lcd_send
  8728                           	
  8729  1472                     _lcd_send:	
  8730                           	opt	stack 4
  8731                           ; Regs used in _lcd_send: [wreg+status,2+status,0]
  8732                           ;lcd_send@a stored from wreg
  8733                           	line	142
  8734  1472  00F7               	movwf	(lcd_send@a)
  8735                           	
  8736  1473                     l9650:	
  8737                           ;lcd3310.c: 142: RC1 = 1;
  8738  1473  1283               	bcf	status, 5	;RP0=0, select bank0
  8739  1474  1303               	bcf	status, 6	;RP1=0, select bank0
  8740  1475  1487               	bsf	(57/8),(57)&7
  8741                           	line	143
  8742                           	
  8743  1476                     l9652:	
  8744                           ;lcd3310.c: 143: if(cmd == 0) {
  8745  1476  08F6               	movf	(lcd_send@cmd),f
  8746  1477  1D03               	skipz
  8747  1478  2C7A               	goto	u1351
  8748  1479  2C7B               	goto	u1350
  8749  147A                     u1351:
  8750  147A  2C7C               	goto	l672
  8751  147B                     u1350:
  8752                           	line	144
  8753                           	
  8754  147B                     l9654:	
  8755                           ;lcd3310.c: 144: RC1 = 0;
  8756  147B  1087               	bcf	(57/8),(57)&7
  8757                           	line	145
  8758                           	
  8759  147C                     l672:	
  8760                           	line	146
  8761                           ;lcd3310.c: 145: }
  8762                           ;lcd3310.c: 146: _nop();
  8763  147C  0000               	nop
  8764                           	line	147
  8765                           ;lcd3310.c: 147: RC2 = 0;
  8766  147D  1283               	bcf	status, 5	;RP0=0, select bank0
  8767  147E  1303               	bcf	status, 6	;RP1=0, select bank0
  8768  147F  1107               	bcf	(58/8),(58)&7
  8769                           	line	150
  8770                           ;lcd3310.c: 150: _nop(); RC5 = 0; _nop(); RC4 = 0; if((a) & (0b10000000)) { RC4 = 1; } _
                                 nop(); RC5 = 1;
  8771  1480  0000               	nop
  8772  1481  1283               	bcf	status, 5	;RP0=0, select bank0
  8773  1482  1303               	bcf	status, 6	;RP1=0, select bank0
  8774  1483  1287               	bcf	(61/8),(61)&7
  8775  1484  0000               	nop
  8776  1485  1283               	bcf	status, 5	;RP0=0, select bank0
  8777  1486  1303               	bcf	status, 6	;RP1=0, select bank0
  8778  1487  1207               	bcf	(60/8),(60)&7
  8779  1488  1FF7               	btfss	(lcd_send@a),(7)&7
  8780  1489  2C8B               	goto	u1361
  8781  148A  2C8C               	goto	u1360
  8782  148B                     u1361:
  8783  148B  2C8D               	goto	l673
  8784  148C                     u1360:
  8785                           	
  8786  148C                     l9656:	
  8787  148C  1607               	bsf	(60/8),(60)&7
  8788                           	
  8789  148D                     l673:	
  8790  148D  0000               	nop
  8791  148E  1283               	bcf	status, 5	;RP0=0, select bank0
  8792  148F  1303               	bcf	status, 6	;RP1=0, select bank0
  8793  1490  1687               	bsf	(61/8),(61)&7
  8794                           	line	151
  8795                           ;lcd3310.c: 151: _nop(); RC5 = 0; _nop(); RC4 = 0; if((a) & (0b01000000)) { RC4 = 1; } _
                                 nop(); RC5 = 1;
  8796  1491  0000               	nop
  8797  1492  1283               	bcf	status, 5	;RP0=0, select bank0
  8798  1493  1303               	bcf	status, 6	;RP1=0, select bank0
  8799  1494  1287               	bcf	(61/8),(61)&7
  8800  1495  0000               	nop
  8801  1496  1283               	bcf	status, 5	;RP0=0, select bank0
  8802  1497  1303               	bcf	status, 6	;RP1=0, select bank0
  8803  1498  1207               	bcf	(60/8),(60)&7
  8804  1499  1F77               	btfss	(lcd_send@a),(6)&7
  8805  149A  2C9C               	goto	u1371
  8806  149B  2C9D               	goto	u1370
  8807  149C                     u1371:
  8808  149C  2C9E               	goto	l674
  8809  149D                     u1370:
  8810                           	
  8811  149D                     l9658:	
  8812  149D  1607               	bsf	(60/8),(60)&7
  8813                           	
  8814  149E                     l674:	
  8815  149E  0000               	nop
  8816  149F  1283               	bcf	status, 5	;RP0=0, select bank0
  8817  14A0  1303               	bcf	status, 6	;RP1=0, select bank0
  8818  14A1  1687               	bsf	(61/8),(61)&7
  8819                           	line	152
  8820                           ;lcd3310.c: 152: _nop(); RC5 = 0; _nop(); RC4 = 0; if((a) & (0b00100000)) { RC4 = 1; } _
                                 nop(); RC5 = 1;
  8821  14A2  0000               	nop
  8822  14A3  1283               	bcf	status, 5	;RP0=0, select bank0
  8823  14A4  1303               	bcf	status, 6	;RP1=0, select bank0
  8824  14A5  1287               	bcf	(61/8),(61)&7
  8825  14A6  0000               	nop
  8826  14A7  1283               	bcf	status, 5	;RP0=0, select bank0
  8827  14A8  1303               	bcf	status, 6	;RP1=0, select bank0
  8828  14A9  1207               	bcf	(60/8),(60)&7
  8829  14AA  1EF7               	btfss	(lcd_send@a),(5)&7
  8830  14AB  2CAD               	goto	u1381
  8831  14AC  2CAE               	goto	u1380
  8832  14AD                     u1381:
  8833  14AD  2CAF               	goto	l675
  8834  14AE                     u1380:
  8835                           	
  8836  14AE                     l9660:	
  8837  14AE  1607               	bsf	(60/8),(60)&7
  8838                           	
  8839  14AF                     l675:	
  8840  14AF  0000               	nop
  8841  14B0  1283               	bcf	status, 5	;RP0=0, select bank0
  8842  14B1  1303               	bcf	status, 6	;RP1=0, select bank0
  8843  14B2  1687               	bsf	(61/8),(61)&7
  8844                           	line	153
  8845                           ;lcd3310.c: 153: _nop(); RC5 = 0; _nop(); RC4 = 0; if((a) & (0b00010000)) { RC4 = 1; } _
                                 nop(); RC5 = 1;
  8846  14B3  0000               	nop
  8847  14B4  1283               	bcf	status, 5	;RP0=0, select bank0
  8848  14B5  1303               	bcf	status, 6	;RP1=0, select bank0
  8849  14B6  1287               	bcf	(61/8),(61)&7
  8850  14B7  0000               	nop
  8851  14B8  1283               	bcf	status, 5	;RP0=0, select bank0
  8852  14B9  1303               	bcf	status, 6	;RP1=0, select bank0
  8853  14BA  1207               	bcf	(60/8),(60)&7
  8854  14BB  1E77               	btfss	(lcd_send@a),(4)&7
  8855  14BC  2CBE               	goto	u1391
  8856  14BD  2CBF               	goto	u1390
  8857  14BE                     u1391:
  8858  14BE  2CC0               	goto	l676
  8859  14BF                     u1390:
  8860                           	
  8861  14BF                     l9662:	
  8862  14BF  1607               	bsf	(60/8),(60)&7
  8863                           	
  8864  14C0                     l676:	
  8865  14C0  0000               	nop
  8866  14C1  1283               	bcf	status, 5	;RP0=0, select bank0
  8867  14C2  1303               	bcf	status, 6	;RP1=0, select bank0
  8868  14C3  1687               	bsf	(61/8),(61)&7
  8869                           	line	154
  8870                           ;lcd3310.c: 154: _nop(); RC5 = 0; _nop(); RC4 = 0; if((a) & (0b00001000)) { RC4 = 1; } _
                                 nop(); RC5 = 1;
  8871  14C4  0000               	nop
  8872  14C5  1283               	bcf	status, 5	;RP0=0, select bank0
  8873  14C6  1303               	bcf	status, 6	;RP1=0, select bank0
  8874  14C7  1287               	bcf	(61/8),(61)&7
  8875  14C8  0000               	nop
  8876  14C9  1283               	bcf	status, 5	;RP0=0, select bank0
  8877  14CA  1303               	bcf	status, 6	;RP1=0, select bank0
  8878  14CB  1207               	bcf	(60/8),(60)&7
  8879  14CC  1DF7               	btfss	(lcd_send@a),(3)&7
  8880  14CD  2CCF               	goto	u1401
  8881  14CE  2CD0               	goto	u1400
  8882  14CF                     u1401:
  8883  14CF  2CD1               	goto	l677
  8884  14D0                     u1400:
  8885                           	
  8886  14D0                     l9664:	
  8887  14D0  1607               	bsf	(60/8),(60)&7
  8888                           	
  8889  14D1                     l677:	
  8890  14D1  0000               	nop
  8891  14D2  1283               	bcf	status, 5	;RP0=0, select bank0
  8892  14D3  1303               	bcf	status, 6	;RP1=0, select bank0
  8893  14D4  1687               	bsf	(61/8),(61)&7
  8894                           	line	155
  8895                           ;lcd3310.c: 155: _nop(); RC5 = 0; _nop(); RC4 = 0; if((a) & (0b00000100)) { RC4 = 1; } _
                                 nop(); RC5 = 1;
  8896  14D5  0000               	nop
  8897  14D6  1283               	bcf	status, 5	;RP0=0, select bank0
  8898  14D7  1303               	bcf	status, 6	;RP1=0, select bank0
  8899  14D8  1287               	bcf	(61/8),(61)&7
  8900  14D9  0000               	nop
  8901  14DA  1283               	bcf	status, 5	;RP0=0, select bank0
  8902  14DB  1303               	bcf	status, 6	;RP1=0, select bank0
  8903  14DC  1207               	bcf	(60/8),(60)&7
  8904  14DD  1D77               	btfss	(lcd_send@a),(2)&7
  8905  14DE  2CE0               	goto	u1411
  8906  14DF  2CE1               	goto	u1410
  8907  14E0                     u1411:
  8908  14E0  2CE2               	goto	l678
  8909  14E1                     u1410:
  8910                           	
  8911  14E1                     l9666:	
  8912  14E1  1607               	bsf	(60/8),(60)&7
  8913                           	
  8914  14E2                     l678:	
  8915  14E2  0000               	nop
  8916  14E3  1283               	bcf	status, 5	;RP0=0, select bank0
  8917  14E4  1303               	bcf	status, 6	;RP1=0, select bank0
  8918  14E5  1687               	bsf	(61/8),(61)&7
  8919                           	line	156
  8920                           ;lcd3310.c: 156: _nop(); RC5 = 0; _nop(); RC4 = 0; if((a) & (0b00000010)) { RC4 = 1; } _
                                 nop(); RC5 = 1;
  8921  14E6  0000               	nop
  8922  14E7  1283               	bcf	status, 5	;RP0=0, select bank0
  8923  14E8  1303               	bcf	status, 6	;RP1=0, select bank0
  8924  14E9  1287               	bcf	(61/8),(61)&7
  8925  14EA  0000               	nop
  8926  14EB  1283               	bcf	status, 5	;RP0=0, select bank0
  8927  14EC  1303               	bcf	status, 6	;RP1=0, select bank0
  8928  14ED  1207               	bcf	(60/8),(60)&7
  8929  14EE  1CF7               	btfss	(lcd_send@a),(1)&7
  8930  14EF  2CF1               	goto	u1421
  8931  14F0  2CF2               	goto	u1420
  8932  14F1                     u1421:
  8933  14F1  2CF3               	goto	l679
  8934  14F2                     u1420:
  8935                           	
  8936  14F2                     l9668:	
  8937  14F2  1607               	bsf	(60/8),(60)&7
  8938                           	
  8939  14F3                     l679:	
  8940  14F3  0000               	nop
  8941  14F4  1283               	bcf	status, 5	;RP0=0, select bank0
  8942  14F5  1303               	bcf	status, 6	;RP1=0, select bank0
  8943  14F6  1687               	bsf	(61/8),(61)&7
  8944                           	line	157
  8945                           ;lcd3310.c: 157: _nop(); RC5 = 0; _nop(); RC4 = 0; if((a) & (0b00000001)) { RC4 = 1; } _
                                 nop(); RC5 = 1;
  8946  14F7  0000               	nop
  8947  14F8  1283               	bcf	status, 5	;RP0=0, select bank0
  8948  14F9  1303               	bcf	status, 6	;RP1=0, select bank0
  8949  14FA  1287               	bcf	(61/8),(61)&7
  8950  14FB  0000               	nop
  8951  14FC  1283               	bcf	status, 5	;RP0=0, select bank0
  8952  14FD  1303               	bcf	status, 6	;RP1=0, select bank0
  8953  14FE  1207               	bcf	(60/8),(60)&7
  8954  14FF  1C77               	btfss	(lcd_send@a),(0)&7
  8955  1500  2D02               	goto	u1431
  8956  1501  2D03               	goto	u1430
  8957  1502                     u1431:
  8958  1502  2D04               	goto	l680
  8959  1503                     u1430:
  8960                           	
  8961  1503                     l9670:	
  8962  1503  1607               	bsf	(60/8),(60)&7
  8963                           	
  8964  1504                     l680:	
  8965  1504  0000               	nop
  8966  1505  1283               	bcf	status, 5	;RP0=0, select bank0
  8967  1506  1303               	bcf	status, 6	;RP1=0, select bank0
  8968  1507  1687               	bsf	(61/8),(61)&7
  8969                           	line	159
  8970                           ;lcd3310.c: 159: _nop();
  8971  1508  0000               	nop
  8972                           	line	160
  8973                           ;lcd3310.c: 160: RC2 = 1;
  8974  1509  1283               	bcf	status, 5	;RP0=0, select bank0
  8975  150A  1303               	bcf	status, 6	;RP1=0, select bank0
  8976  150B  1507               	bsf	(58/8),(58)&7
  8977                           	line	161
  8978                           	
  8979  150C                     l681:	
  8980  150C  0008               	return
  8981                           	opt stack 0
  8982                           GLOBAL	__end_of_lcd_send
  8983  150D                     	__end_of_lcd_send:
  8984 ;; =============== function _lcd_send ends ============
  8985                           
  8986                           	signat	_lcd_send,8312
  8987                           	global	___flge
  8988                           psect	text591,local,class=CODE,delta=2
  8989                           global __ptext591
  8990  11FE                     __ptext591:
  8991                           
  8992 ;; *************** function ___flge *****************
  8993 ;; Defined at:
  8994 ;;		line 5 in file "C:\Program Files (x86)\HI-TECH Software\PICC\9.83\sources\flge.c"
  8995 ;; Parameters:    Size  Location     Type
  8996 ;;  ff1             4    0[COMMON] unsigned char 
  8997 ;;  ff2             4    4[COMMON] unsigned char 
  8998 ;; Auto vars:     Size  Location     Type
  8999 ;;		None
  9000 ;; Return value:  Size  Location     Type
  9001 ;;		None               void
  9002 ;; Registers used:
  9003 ;;		wreg, status,2, status,0
  9004 ;; Tracked objects:
  9005 ;;		On entry : 60/20
  9006 ;;		On exit  : 60/20
  9007 ;;		Unchanged: FFF9F/0
  9008 ;; Data sizes:     COMMON   BANK0   BANK1   BANK3   BANK2
  9009 ;;      Params:         8       0       0       0       0
  9010 ;;      Locals:         0       0       0       0       0
  9011 ;;      Temps:          4       0       0       0       0
  9012 ;;      Totals:        12       0       0       0       0
  9013 ;;Total ram usage:       12 bytes
  9014 ;; Hardware stack levels used:    1
  9015 ;; This function calls:
  9016 ;;		Nothing
  9017 ;; This function is called by:
  9018 ;;		_measure_capacitance
  9019 ;;		_measure_inductance
  9020 ;; This function uses a non-reentrant model
  9021 ;;
  9022                           psect	text591
  9023                           	file	"C:\Program Files (x86)\HI-TECH Software\PICC\9.83\sources\flge.c"
  9024                           	line	5
  9025                           	global	__size_of___flge
  9026  006A                     	__size_of___flge	equ	__end_of___flge-___flge
  9027                           	
  9028  11FE                     ___flge:	
  9029                           	opt	stack 6
  9030                           ; Regs used in ___flge: [wreg+status,2+status,0]
  9031                           	line	6
  9032                           	
  9033  11FE                     l9636:	
  9034  11FE  1FF3               	btfss	(___flge@ff1+3),(31)&7
  9035  11FF  2A01               	goto	u1301
  9036  1200  2A02               	goto	u1300
  9037  1201                     u1301:
  9038  1201  2A26               	goto	l9640
  9039  1202                     u1300:
  9040                           	line	7
  9041                           	
  9042  1202                     l9638:	
  9043  1202  3000               	movlw	0
  9044  1203  00F8               	movwf	((??___flge+0)+0)
  9045  1204  3000               	movlw	0
  9046  1205  00F9               	movwf	((??___flge+0)+0+1)
  9047  1206  3000               	movlw	0
  9048  1207  00FA               	movwf	((??___flge+0)+0+2)
  9049  1208  3080               	movlw	080h
  9050  1209  00FB               	movwf	((??___flge+0)+0+3)
  9051  120A  0870               	movf	(___flge@ff1),w
  9052  120B  02F8               	subwf	(??___flge+0)+0,f
  9053  120C  0871               	movf	(___flge@ff1+1),w
  9054  120D  1C03               	skipc
  9055  120E  0F71               	incfsz	(___flge@ff1+1),w
  9056  120F  2A11               	goto	u1311
  9057  1210  2A12               	goto	u1312
  9058  1211                     u1311:
  9059  1211  02F9               	subwf	(??___flge+0)+1,f
  9060  1212                     u1312:
  9061  1212  0872               	movf	(___flge@ff1+2),w
  9062  1213  1C03               	skipc
  9063  1214  0F72               	incfsz	(___flge@ff1+2),w
  9064  1215  2A17               	goto	u1313
  9065  1216  2A18               	goto	u1314
  9066  1217                     u1313:
  9067  1217  02FA               	subwf	(??___flge+0)+2,f
  9068  1218                     u1314:
  9069  1218  0873               	movf	(___flge@ff1+3),w
  9070  1219  1C03               	skipc
  9071  121A  0F73               	incfsz	(___flge@ff1+3),w
  9072  121B  2A1D               	goto	u1315
  9073  121C  2A1E               	goto	u1316
  9074  121D                     u1315:
  9075  121D  02FB               	subwf	(??___flge+0)+3,f
  9076  121E                     u1316:
  9077                           
  9078  121E  087B               	movf	3+(??___flge+0)+0,w
  9079  121F  00F3               	movwf	(___flge@ff1+3)
  9080  1220  087A               	movf	2+(??___flge+0)+0,w
  9081  1221  00F2               	movwf	(___flge@ff1+2)
  9082  1222  0879               	movf	1+(??___flge+0)+0,w
  9083  1223  00F1               	movwf	(___flge@ff1+1)
  9084  1224  0878               	movf	0+(??___flge+0)+0,w
  9085  1225  00F0               	movwf	(___flge@ff1)
  9086                           
  9087                           	line	8
  9088                           	
  9089  1226                     l9640:	
  9090  1226  1FF7               	btfss	(___flge@ff2+3),(31)&7
  9091  1227  2A29               	goto	u1321
  9092  1228  2A2A               	goto	u1320
  9093  1229                     u1321:
  9094  1229  2A4E               	goto	l6802
  9095  122A                     u1320:
  9096                           	line	9
  9097                           	
  9098  122A                     l9642:	
  9099  122A  3000               	movlw	0
  9100  122B  00F8               	movwf	((??___flge+0)+0)
  9101  122C  3000               	movlw	0
  9102  122D  00F9               	movwf	((??___flge+0)+0+1)
  9103  122E  3000               	movlw	0
  9104  122F  00FA               	movwf	((??___flge+0)+0+2)
  9105  1230  3080               	movlw	080h
  9106  1231  00FB               	movwf	((??___flge+0)+0+3)
  9107  1232  0874               	movf	(___flge@ff2),w
  9108  1233  02F8               	subwf	(??___flge+0)+0,f
  9109  1234  0875               	movf	(___flge@ff2+1),w
  9110  1235  1C03               	skipc
  9111  1236  0F75               	incfsz	(___flge@ff2+1),w
  9112  1237  2A39               	goto	u1331
  9113  1238  2A3A               	goto	u1332
  9114  1239                     u1331:
  9115  1239  02F9               	subwf	(??___flge+0)+1,f
  9116  123A                     u1332:
  9117  123A  0876               	movf	(___flge@ff2+2),w
  9118  123B  1C03               	skipc
  9119  123C  0F76               	incfsz	(___flge@ff2+2),w
  9120  123D  2A3F               	goto	u1333
  9121  123E  2A40               	goto	u1334
  9122  123F                     u1333:
  9123  123F  02FA               	subwf	(??___flge+0)+2,f
  9124  1240                     u1334:
  9125  1240  0877               	movf	(___flge@ff2+3),w
  9126  1241  1C03               	skipc
  9127  1242  0F77               	incfsz	(___flge@ff2+3),w
  9128  1243  2A45               	goto	u1335
  9129  1244  2A46               	goto	u1336
  9130  1245                     u1335:
  9131  1245  02FB               	subwf	(??___flge+0)+3,f
  9132  1246                     u1336:
  9133                           
  9134  1246  087B               	movf	3+(??___flge+0)+0,w
  9135  1247  00F7               	movwf	(___flge@ff2+3)
  9136  1248  087A               	movf	2+(??___flge+0)+0,w
  9137  1249  00F6               	movwf	(___flge@ff2+2)
  9138  124A  0879               	movf	1+(??___flge+0)+0,w
  9139  124B  00F5               	movwf	(___flge@ff2+1)
  9140  124C  0878               	movf	0+(??___flge+0)+0,w
  9141  124D  00F4               	movwf	(___flge@ff2)
  9142                           
  9143                           	
  9144  124E                     l6802:	
  9145                           	line	10
  9146  124E  3080               	movlw	080h
  9147  124F  06F3               	xorwf	(___flge@ff1+3),f
  9148                           	line	11
  9149  1250  3080               	movlw	080h
  9150  1251  06F7               	xorwf	(___flge@ff2+3),f
  9151                           	line	12
  9152  1252  0877               	movf	(___flge@ff2+3),w
  9153  1253  0273               	subwf	(___flge@ff1+3),w
  9154  1254  1D03               	skipz
  9155  1255  2A60               	goto	u1345
  9156  1256  0876               	movf	(___flge@ff2+2),w
  9157  1257  0272               	subwf	(___flge@ff1+2),w
  9158  1258  1D03               	skipz
  9159  1259  2A60               	goto	u1345
  9160  125A  0875               	movf	(___flge@ff2+1),w
  9161  125B  0271               	subwf	(___flge@ff1+1),w
  9162  125C  1D03               	skipz
  9163  125D  2A60               	goto	u1345
  9164  125E  0874               	movf	(___flge@ff2),w
  9165  125F  0270               	subwf	(___flge@ff1),w
  9166  1260                     u1345:
  9167  1260  1803               	skipnc
  9168  1261  2A63               	goto	u1341
  9169  1262  2A64               	goto	u1340
  9170  1263                     u1341:
  9171  1263  2A66               	goto	l9646
  9172  1264                     u1340:
  9173                           	
  9174  1264                     l9644:	
  9175  1264  1003               	clrc
  9176                           	
  9177  1265  2A67               	goto	l6803
  9178                           	
  9179  1266                     l9646:	
  9180  1266  1403               	setc
  9181                           	
  9182                           	line	13
  9183                           	
  9184  1267                     l6803:	
  9185  1267  0008               	return
  9186                           	opt stack 0
  9187                           GLOBAL	__end_of___flge
  9188  1268                     	__end_of___flge:
  9189 ;; =============== function ___flge ends ============
  9190                           
  9191                           	signat	___flge,8312
  9192                           	global	___fltol
  9193                           psect	text592,local,class=CODE,delta=2
  9194                           global __ptext592
  9195  1268                     __ptext592:
  9196                           
  9197 ;; *************** function ___fltol *****************
  9198 ;; Defined at:
  9199 ;;		line 44 in file "C:\Program Files (x86)\HI-TECH Software\PICC\9.83\sources\fltol.c"
  9200 ;; Parameters:    Size  Location     Type
  9201 ;;  f1              4    0[COMMON] unsigned char 
  9202 ;; Auto vars:     Size  Location     Type
  9203 ;;  exp1            1    9[COMMON] unsigned char 
  9204 ;;  sign1           1    8[COMMON] unsigned char 
  9205 ;; Return value:  Size  Location     Type
  9206 ;;                  4    0[COMMON] long 
  9207 ;; Registers used:
  9208 ;;		wreg, status,2, status,0
  9209 ;; Tracked objects:
  9210 ;;		On entry : 60/20
  9211 ;;		On exit  : 60/20
  9212 ;;		Unchanged: FFF9F/0
  9213 ;; Data sizes:     COMMON   BANK0   BANK1   BANK3   BANK2
  9214 ;;      Params:         4       0       0       0       0
  9215 ;;      Locals:         2       0       0       0       0
  9216 ;;      Temps:          4       0       0       0       0
  9217 ;;      Totals:        10       0       0       0       0
  9218 ;;Total ram usage:       10 bytes
  9219 ;; Hardware stack levels used:    1
  9220 ;; This function calls:
  9221 ;;		Nothing
  9222 ;; This function is called by:
  9223 ;;		_measure_capacitance
  9224 ;;		_measure_inductance
  9225 ;; This function uses a non-reentrant model
  9226 ;;
  9227                           psect	text592
  9228                           	file	"C:\Program Files (x86)\HI-TECH Software\PICC\9.83\sources\fltol.c"
  9229                           	line	44
  9230                           	global	__size_of___fltol
  9231  006C                     	__size_of___fltol	equ	__end_of___fltol-___fltol
  9232                           	
  9233  1268                     ___fltol:	
  9234                           	opt	stack 6
  9235                           ; Regs used in ___fltol: [wreg+status,2+status,0]
  9236                           	line	47
  9237                           	
  9238  1268                     l9604:	
  9239  1268  0870               	movf	(___fltol@f1),w
  9240  1269  00F4               	movwf	(??___fltol+0)+0
  9241  126A  0871               	movf	(___fltol@f1+1),w
  9242  126B  00F5               	movwf	((??___fltol+0)+0+1)
  9243  126C  0872               	movf	(___fltol@f1+2),w
  9244  126D  00F6               	movwf	((??___fltol+0)+0+2)
  9245  126E  0873               	movf	(___fltol@f1+3),w
  9246  126F  00F7               	movwf	((??___fltol+0)+0+3)
  9247  1270  1003               	clrc
  9248  1271  0D76               	rlf	(??___fltol+0)+2,w
  9249  1272  0D77               	rlf	(??___fltol+0)+3,w
  9250  1273  00F9               	movwf	(___fltol@exp1)
  9251  1274  08F9               	movf	((___fltol@exp1)),f
  9252  1275  1D03               	skipz
  9253  1276  2A78               	goto	u1221
  9254  1277  2A79               	goto	u1220
  9255  1278                     u1221:
  9256  1278  2A7E               	goto	l9608
  9257  1279                     u1220:
  9258                           	line	48
  9259                           	
  9260  1279                     l9606:	
  9261  1279  01F0               	clrf	(?___fltol)
  9262  127A  01F1               	clrf	(?___fltol+1)
  9263  127B  01F2               	clrf	(?___fltol+2)
  9264  127C  01F3               	clrf	(?___fltol+3)
  9265  127D  2AD3               	goto	l6777
  9266                           	line	49
  9267                           	
  9268  127E                     l9608:	
  9269  127E  0870               	movf	(___fltol@f1),w
  9270  127F  00F4               	movwf	(??___fltol+0)+0
  9271  1280  0871               	movf	(___fltol@f1+1),w
  9272  1281  00F5               	movwf	((??___fltol+0)+0+1)
  9273  1282  0872               	movf	(___fltol@f1+2),w
  9274  1283  00F6               	movwf	((??___fltol+0)+0+2)
  9275  1284  0873               	movf	(___fltol@f1+3),w
  9276  1285  00F7               	movwf	((??___fltol+0)+0+3)
  9277  1286  301F               	movlw	01Fh
  9278  1287                     u1235:
  9279  1287  1003               	clrc
  9280  1288  0CF7               	rrf	(??___fltol+0)+3,f
  9281  1289  0CF6               	rrf	(??___fltol+0)+2,f
  9282  128A  0CF5               	rrf	(??___fltol+0)+1,f
  9283  128B  0CF4               	rrf	(??___fltol+0)+0,f
  9284  128C                     u1230:
  9285  128C  3EFF               	addlw	-1
  9286  128D  1D03               	skipz
  9287  128E  2A87               	goto	u1235
  9288  128F  0874               	movf	0+(??___fltol+0)+0,w
  9289  1290  00F8               	movwf	(___fltol@sign1)
  9290                           	line	50
  9291                           	
  9292  1291                     l9610:	
  9293  1291  17F2               	bsf	(___fltol@f1)+(23/8),(23)&7
  9294                           	line	51
  9295                           	
  9296  1292                     l9612:	
  9297  1292  30FF               	movlw	0FFh
  9298  1293  05F0               	andwf	(___fltol@f1),f
  9299  1294  30FF               	movlw	0FFh
  9300  1295  05F1               	andwf	(___fltol@f1+1),f
  9301  1296  30FF               	movlw	0FFh
  9302  1297  05F2               	andwf	(___fltol@f1+2),f
  9303  1298  3000               	movlw	0
  9304  1299  05F3               	andwf	(___fltol@f1+3),f
  9305                           	line	52
  9306                           	
  9307  129A                     l9614:	
  9308  129A  3096               	movlw	low(096h)
  9309  129B  02F9               	subwf	(___fltol@exp1),f
  9310                           	line	53
  9311                           	
  9312  129C                     l9616:	
  9313  129C  1FF9               	btfss	(___fltol@exp1),7
  9314  129D  2A9F               	goto	u1241
  9315  129E  2AA0               	goto	u1240
  9316  129F                     u1241:
  9317  129F  2AB2               	goto	l9626
  9318  12A0                     u1240:
  9319                           	line	54
  9320                           	
  9321  12A0                     l9618:	
  9322  12A0  0879               	movf	(___fltol@exp1),w
  9323  12A1  3A80               	xorlw	80h
  9324  12A2  3E97               	addlw	-((-23)^80h)
  9325  12A3  1803               	skipnc
  9326  12A4  2AA6               	goto	u1251
  9327  12A5  2AA7               	goto	u1250
  9328  12A6                     u1251:
  9329  12A6  2AA8               	goto	l9622
  9330  12A7                     u1250:
  9331  12A7  2A79               	goto	l9606
  9332                           	line	57
  9333                           	
  9334  12A8                     l9622:	
  9335  12A8  1003               	clrc
  9336  12A9  0CF3               	rrf	(___fltol@f1+3),f
  9337  12AA  0CF2               	rrf	(___fltol@f1+2),f
  9338  12AB  0CF1               	rrf	(___fltol@f1+1),f
  9339  12AC  0CF0               	rrf	(___fltol@f1),f
  9340                           	line	58
  9341                           	
  9342  12AD                     l9624:	
  9343  12AD  0FF9               	incfsz	(___fltol@exp1),f
  9344  12AE  2AB0               	goto	u1261
  9345  12AF  2AB1               	goto	u1260
  9346  12B0                     u1261:
  9347  12B0  2AA8               	goto	l9622
  9348  12B1                     u1260:
  9349  12B1  2AC4               	goto	l9632
  9350                           	line	60
  9351                           	
  9352  12B2                     l9626:	
  9353  12B2  3020               	movlw	(020h)
  9354  12B3  0279               	subwf	(___fltol@exp1),w
  9355  12B4  1C03               	skipc
  9356  12B5  2AB7               	goto	u1271
  9357  12B6  2AB8               	goto	u1270
  9358  12B7                     u1271:
  9359  12B7  2ABF               	goto	l6784
  9360  12B8                     u1270:
  9361  12B8  2A79               	goto	l9606
  9362                           	line	63
  9363                           	
  9364  12B9                     l9630:	
  9365  12B9  1003               	clrc
  9366  12BA  0DF0               	rlf	(___fltol@f1),f
  9367  12BB  0DF1               	rlf	(___fltol@f1+1),f
  9368  12BC  0DF2               	rlf	(___fltol@f1+2),f
  9369  12BD  0DF3               	rlf	(___fltol@f1+3),f
  9370                           	line	64
  9371  12BE  03F9               	decf	(___fltol@exp1),f
  9372                           	line	65
  9373                           	
  9374  12BF                     l6784:	
  9375                           	line	62
  9376  12BF  08F9               	movf	(___fltol@exp1),f
  9377  12C0  1D03               	skipz
  9378  12C1  2AC3               	goto	u1281
  9379  12C2  2AC4               	goto	u1280
  9380  12C3                     u1281:
  9381  12C3  2AB9               	goto	l9630
  9382  12C4                     u1280:
  9383                           	line	67
  9384                           	
  9385  12C4                     l9632:	
  9386  12C4  0878               	movf	(___fltol@sign1),w
  9387  12C5  1D03               	skipz
  9388  12C6  2AC8               	goto	u1290
  9389  12C7  2AD3               	goto	l6787
  9390  12C8                     u1290:
  9391                           	line	68
  9392                           	
  9393  12C8                     l9634:	
  9394  12C8  09F0               	comf	(___fltol@f1),f
  9395  12C9  09F1               	comf	(___fltol@f1+1),f
  9396  12CA  09F2               	comf	(___fltol@f1+2),f
  9397  12CB  09F3               	comf	(___fltol@f1+3),f
  9398  12CC  0AF0               	incf	(___fltol@f1),f
  9399  12CD  1903               	skipnz
  9400  12CE  0AF1               	incf	(___fltol@f1+1),f
  9401  12CF  1903               	skipnz
  9402  12D0  0AF2               	incf	(___fltol@f1+2),f
  9403  12D1  1903               	skipnz
  9404  12D2  0AF3               	incf	(___fltol@f1+3),f
  9405                           	
  9406  12D3                     l6787:	
  9407                           	line	69
  9408                           	line	70
  9409                           	
  9410  12D3                     l6777:	
  9411  12D3  0008               	return
  9412                           	opt stack 0
  9413                           GLOBAL	__end_of___fltol
  9414  12D4                     	__end_of___fltol:
  9415 ;; =============== function ___fltol ends ============
  9416                           
  9417                           	signat	___fltol,4220
  9418                           	global	___flpack
  9419                           psect	text593,local,class=CODE,delta=2
  9420                           global __ptext593
  9421  11A1                     __ptext593:
  9422                           
  9423 ;; *************** function ___flpack *****************
  9424 ;; Defined at:
  9425 ;;		line 64 in file "C:\Program Files (x86)\HI-TECH Software\PICC\9.83\sources\double.c"
  9426 ;; Parameters:    Size  Location     Type
  9427 ;;  arg             4    0[COMMON] unsigned long 
  9428 ;;  exp             1    4[COMMON] unsigned char 
  9429 ;;  sign            1    5[COMMON] unsigned char 
  9430 ;; Auto vars:     Size  Location     Type
  9431 ;;		None
  9432 ;; Return value:  Size  Location     Type
  9433 ;;                  4    0[COMMON] unsigned char 
  9434 ;; Registers used:
  9435 ;;		wreg, status,2, status,0
  9436 ;; Tracked objects:
  9437 ;;		On entry : 40/20
  9438 ;;		On exit  : 40/20
  9439 ;;		Unchanged: FFFBF/0
  9440 ;; Data sizes:     COMMON   BANK0   BANK1   BANK3   BANK2
  9441 ;;      Params:         6       0       0       0       0
  9442 ;;      Locals:         0       0       0       0       0
  9443 ;;      Temps:          4       0       0       0       0
  9444 ;;      Totals:        10       0       0       0       0
  9445 ;;Total ram usage:       10 bytes
  9446 ;; Hardware stack levels used:    1
  9447 ;; This function calls:
  9448 ;;		Nothing
  9449 ;; This function is called by:
  9450 ;;		___fladd
  9451 ;;		___fldiv
  9452 ;;		___flmul
  9453 ;;		___lwtofl
  9454 ;; This function uses a non-reentrant model
  9455 ;;
  9456                           psect	text593
  9457                           	file	"C:\Program Files (x86)\HI-TECH Software\PICC\9.83\sources\double.c"
  9458                           	line	64
  9459                           	global	__size_of___flpack
  9460  005D                     	__size_of___flpack	equ	__end_of___flpack-___flpack
  9461                           	
  9462  11A1                     ___flpack:	
  9463                           	opt	stack 5
  9464                           ; Regs used in ___flpack: [wreg+status,2+status,0]
  9465                           	line	65
  9466                           	
  9467  11A1                     l9578:	
  9468  11A1  0874               	movf	(___flpack@exp),w
  9469  11A2  1D03               	skipz
  9470  11A3  29A5               	goto	u1150
  9471  11A4  29AD               	goto	l7056
  9472  11A5                     u1150:
  9473                           	
  9474  11A5                     l9580:	
  9475  11A5  0873               	movf	(___flpack@arg+3),w
  9476  11A6  0472               	iorwf	(___flpack@arg+2),w
  9477  11A7  0471               	iorwf	(___flpack@arg+1),w
  9478  11A8  0470               	iorwf	(___flpack@arg),w
  9479  11A9  1D03               	skipz
  9480  11AA  29AC               	goto	u1161
  9481  11AB  29AD               	goto	u1160
  9482  11AC                     u1161:
  9483  11AC  29B8               	goto	l9584
  9484  11AD                     u1160:
  9485                           	
  9486  11AD                     l7056:	
  9487                           	line	66
  9488  11AD  01F0               	clrf	(?___flpack)
  9489  11AE  01F1               	clrf	(?___flpack+1)
  9490  11AF  01F2               	clrf	(?___flpack+2)
  9491  11B0  01F3               	clrf	(?___flpack+3)
  9492  11B1  29FD               	goto	l7057
  9493                           	line	68
  9494                           	
  9495  11B2                     l9582:	
  9496  11B2  0AF4               	incf	(___flpack@exp),f
  9497                           	line	69
  9498  11B3  1003               	clrc
  9499  11B4  0CF3               	rrf	(___flpack@arg+3),f
  9500  11B5  0CF2               	rrf	(___flpack@arg+2),f
  9501  11B6  0CF1               	rrf	(___flpack@arg+1),f
  9502  11B7  0CF0               	rrf	(___flpack@arg),f
  9503                           	line	67
  9504                           	
  9505  11B8                     l9584:	
  9506  11B8  30FE               	movlw	high highword(-33554432)
  9507  11B9  0573               	andwf	(___flpack@arg+3),w
  9508  11BA  1D03               	btfss	status,2
  9509  11BB  29BD               	goto	u1171
  9510  11BC  29BE               	goto	u1170
  9511  11BD                     u1171:
  9512  11BD  29B2               	goto	l9582
  9513  11BE                     u1170:
  9514  11BE  29CC               	goto	l9592
  9515                           	line	72
  9516                           	
  9517  11BF                     l9586:	
  9518  11BF  0AF4               	incf	(___flpack@exp),f
  9519                           	line	73
  9520                           	
  9521  11C0                     l9588:	
  9522  11C0  0AF0               	incf	(___flpack@arg),f
  9523  11C1  1903               	skipnz
  9524  11C2  0AF1               	incf	(___flpack@arg+1),f
  9525  11C3  1903               	skipnz
  9526  11C4  0AF2               	incf	(___flpack@arg+2),f
  9527  11C5  1903               	skipnz
  9528  11C6  0AF3               	incf	(___flpack@arg+3),f
  9529                           	line	74
  9530                           	
  9531  11C7                     l9590:	
  9532  11C7  1003               	clrc
  9533  11C8  0CF3               	rrf	(___flpack@arg+3),f
  9534  11C9  0CF2               	rrf	(___flpack@arg+2),f
  9535  11CA  0CF1               	rrf	(___flpack@arg+1),f
  9536  11CB  0CF0               	rrf	(___flpack@arg),f
  9537                           	line	71
  9538                           	
  9539  11CC                     l9592:	
  9540  11CC  30FF               	movlw	high highword(-16777216)
  9541  11CD  0573               	andwf	(___flpack@arg+3),w
  9542  11CE  1D03               	btfss	status,2
  9543  11CF  29D1               	goto	u1181
  9544  11D0  29D2               	goto	u1180
  9545  11D1                     u1181:
  9546  11D1  29BF               	goto	l9586
  9547  11D2                     u1180:
  9548  11D2  29D9               	goto	l9596
  9549                           	line	77
  9550                           	
  9551  11D3                     l9594:	
  9552  11D3  03F4               	decf	(___flpack@exp),f
  9553                           	line	78
  9554  11D4  1003               	clrc
  9555  11D5  0DF0               	rlf	(___flpack@arg),f
  9556  11D6  0DF1               	rlf	(___flpack@arg+1),f
  9557  11D7  0DF2               	rlf	(___flpack@arg+2),f
  9558  11D8  0DF3               	rlf	(___flpack@arg+3),f
  9559                           	line	76
  9560                           	
  9561  11D9                     l9596:	
  9562  11D9  1FF2               	btfss	(___flpack@arg+2),(23)&7
  9563  11DA  29DC               	goto	u1191
  9564  11DB  29DD               	goto	u1190
  9565  11DC                     u1191:
  9566  11DC  29D3               	goto	l9594
  9567  11DD                     u1190:
  9568                           	
  9569  11DD                     l7066:	
  9570                           	line	80
  9571  11DD  1874               	btfsc	(___flpack@exp),(0)&7
  9572  11DE  29E0               	goto	u1201
  9573  11DF  29E1               	goto	u1200
  9574  11E0                     u1201:
  9575  11E0  29E9               	goto	l9600
  9576  11E1                     u1200:
  9577                           	line	81
  9578                           	
  9579  11E1                     l9598:	
  9580  11E1  30FF               	movlw	0FFh
  9581  11E2  05F0               	andwf	(___flpack@arg),f
  9582  11E3  30FF               	movlw	0FFh
  9583  11E4  05F1               	andwf	(___flpack@arg+1),f
  9584  11E5  307F               	movlw	07Fh
  9585  11E6  05F2               	andwf	(___flpack@arg+2),f
  9586  11E7  30FF               	movlw	0FFh
  9587  11E8  05F3               	andwf	(___flpack@arg+3),f
  9588                           	line	82
  9589                           	
  9590  11E9                     l9600:	
  9591  11E9  1003               	clrc
  9592  11EA  0CF4               	rrf	(___flpack@exp),f
  9593                           	line	83
  9594  11EB  0874               	movf	(___flpack@exp),w
  9595  11EC  00F9               	movwf	((??___flpack+0)+0+3)
  9596  11ED  01F8               	clrf	((??___flpack+0)+0+2)
  9597  11EE  01F7               	clrf	((??___flpack+0)+0+1)
  9598  11EF  01F6               	clrf	(??___flpack+0)+0
  9599  11F0  0876               	movf	0+(??___flpack+0)+0,w
  9600  11F1  04F0               	iorwf	(___flpack@arg),f
  9601  11F2  0877               	movf	1+(??___flpack+0)+0,w
  9602  11F3  04F1               	iorwf	(___flpack@arg+1),f
  9603  11F4  0878               	movf	2+(??___flpack+0)+0,w
  9604  11F5  04F2               	iorwf	(___flpack@arg+2),f
  9605  11F6  0879               	movf	3+(??___flpack+0)+0,w
  9606  11F7  04F3               	iorwf	(___flpack@arg+3),f
  9607                           	line	84
  9608  11F8  0875               	movf	(___flpack@sign),w
  9609  11F9  1D03               	skipz
  9610  11FA  29FC               	goto	u1210
  9611  11FB  29FD               	goto	l7068
  9612  11FC                     u1210:
  9613                           	line	85
  9614                           	
  9615  11FC                     l9602:	
  9616  11FC  17F3               	bsf	(___flpack@arg)+(31/8),(31)&7
  9617                           	
  9618  11FD                     l7068:	
  9619                           	line	86
  9620                           	line	87
  9621                           	
  9622  11FD                     l7057:	
  9623  11FD  0008               	return
  9624                           	opt stack 0
  9625                           GLOBAL	__end_of___flpack
  9626  11FE                     	__end_of___flpack:
  9627 ;; =============== function ___flpack ends ============
  9628                           
  9629                           	signat	___flpack,12412
  9630                           	global	___lwmod
  9631                           psect	text594,local,class=CODE,delta=2
  9632                           global __ptext594
  9633  1085                     __ptext594:
  9634                           
  9635 ;; *************** function ___lwmod *****************
  9636 ;; Defined at:
  9637 ;;		line 5 in file "C:\Program Files (x86)\HI-TECH Software\PICC\9.83\sources\lwmod.c"
  9638 ;; Parameters:    Size  Location     Type
  9639 ;;  divisor         2    7[COMMON] unsigned int 
  9640 ;;  dividend        2    9[COMMON] unsigned int 
  9641 ;; Auto vars:     Size  Location     Type
  9642 ;;  counter         1   11[COMMON] unsigned char 
  9643 ;; Return value:  Size  Location     Type
  9644 ;;                  2    7[COMMON] unsigned int 
  9645 ;; Registers used:
  9646 ;;		wreg, status,2, status,0
  9647 ;; Tracked objects:
  9648 ;;		On entry : 60/0
  9649 ;;		On exit  : 60/0
  9650 ;;		Unchanged: FFF9F/0
  9651 ;; Data sizes:     COMMON   BANK0   BANK1   BANK3   BANK2
  9652 ;;      Params:         4       0       0       0       0
  9653 ;;      Locals:         1       0       0       0       0
  9654 ;;      Temps:          0       0       0       0       0
  9655 ;;      Totals:         5       0       0       0       0
  9656 ;;Total ram usage:        5 bytes
  9657 ;; Hardware stack levels used:    1
  9658 ;; This function calls:
  9659 ;;		Nothing
  9660 ;; This function is called by:
  9661 ;;		_display_reading
  9662 ;; This function uses a non-reentrant model
  9663 ;;
  9664                           psect	text594
  9665                           	file	"C:\Program Files (x86)\HI-TECH Software\PICC\9.83\sources\lwmod.c"
  9666                           	line	5
  9667                           	global	__size_of___lwmod
  9668  002D                     	__size_of___lwmod	equ	__end_of___lwmod-___lwmod
  9669                           	
  9670  1085                     ___lwmod:	
  9671                           	opt	stack 5
  9672                           ; Regs used in ___lwmod: [wreg+status,2+status,0]
  9673                           	line	8
  9674                           	
  9675  1085                     l9558:	
  9676  1085  0878               	movf	(___lwmod@divisor+1),w
  9677  1086  0477               	iorwf	(___lwmod@divisor),w
  9678  1087  1903               	skipnz
  9679  1088  288A               	goto	u1111
  9680  1089  288B               	goto	u1110
  9681  108A                     u1111:
  9682  108A  28AD               	goto	l9574
  9683  108B                     u1110:
  9684                           	line	9
  9685                           	
  9686  108B                     l9560:	
  9687  108B  01FB               	clrf	(___lwmod@counter)
  9688  108C  0AFB               	incf	(___lwmod@counter),f
  9689                           	line	10
  9690  108D  2892               	goto	l9564
  9691                           	line	11
  9692                           	
  9693  108E                     l9562:	
  9694  108E  1003               	clrc
  9695  108F  0DF7               	rlf	(___lwmod@divisor),f
  9696  1090  0DF8               	rlf	(___lwmod@divisor+1),f
  9697                           	line	12
  9698  1091  0AFB               	incf	(___lwmod@counter),f
  9699                           	line	10
  9700                           	
  9701  1092                     l9564:	
  9702  1092  1FF8               	btfss	(___lwmod@divisor+1),(15)&7
  9703  1093  2895               	goto	u1121
  9704  1094  2896               	goto	u1120
  9705  1095                     u1121:
  9706  1095  288E               	goto	l9562
  9707  1096                     u1120:
  9708                           	line	15
  9709                           	
  9710  1096                     l9566:	
  9711  1096  0878               	movf	(___lwmod@divisor+1),w
  9712  1097  027A               	subwf	(___lwmod@dividend+1),w
  9713  1098  1D03               	skipz
  9714  1099  289C               	goto	u1135
  9715  109A  0877               	movf	(___lwmod@divisor),w
  9716  109B  0279               	subwf	(___lwmod@dividend),w
  9717  109C                     u1135:
  9718  109C  1C03               	skipc
  9719  109D  289F               	goto	u1131
  9720  109E  28A0               	goto	u1130
  9721  109F                     u1131:
  9722  109F  28A6               	goto	l9570
  9723  10A0                     u1130:
  9724                           	line	16
  9725                           	
  9726  10A0                     l9568:	
  9727  10A0  0877               	movf	(___lwmod@divisor),w
  9728  10A1  02F9               	subwf	(___lwmod@dividend),f
  9729  10A2  0878               	movf	(___lwmod@divisor+1),w
  9730  10A3  1C03               	skipc
  9731  10A4  03FA               	decf	(___lwmod@dividend+1),f
  9732  10A5  02FA               	subwf	(___lwmod@dividend+1),f
  9733                           	line	17
  9734                           	
  9735  10A6                     l9570:	
  9736  10A6  1003               	clrc
  9737  10A7  0CF8               	rrf	(___lwmod@divisor+1),f
  9738  10A8  0CF7               	rrf	(___lwmod@divisor),f
  9739                           	line	18
  9740                           	
  9741  10A9                     l9572:	
  9742  10A9  0BFB               	decfsz	(___lwmod@counter),f
  9743  10AA  28AC               	goto	u1141
  9744  10AB  28AD               	goto	u1140
  9745  10AC                     u1141:
  9746  10AC  2896               	goto	l9566
  9747  10AD                     u1140:
  9748                           	line	20
  9749                           	
  9750  10AD                     l9574:	
  9751  10AD  087A               	movf	(___lwmod@dividend+1),w
  9752  10AE  00F8               	movwf	(?___lwmod+1)
  9753  10AF  0879               	movf	(___lwmod@dividend),w
  9754  10B0  00F7               	movwf	(?___lwmod)
  9755                           	line	21
  9756                           	
  9757  10B1                     l6567:	
  9758  10B1  0008               	return
  9759                           	opt stack 0
  9760                           GLOBAL	__end_of___lwmod
  9761  10B2                     	__end_of___lwmod:
  9762 ;; =============== function ___lwmod ends ============
  9763                           
  9764                           	signat	___lwmod,8314
  9765                           	global	___lwdiv
  9766                           psect	text595,local,class=CODE,delta=2
  9767                           global __ptext595
  9768  00BA                     __ptext595:
  9769                           
  9770 ;; *************** function ___lwdiv *****************
  9771 ;; Defined at:
  9772 ;;		line 5 in file "C:\Program Files (x86)\HI-TECH Software\PICC\9.83\sources\lwdiv.c"
  9773 ;; Parameters:    Size  Location     Type
  9774 ;;  divisor         2    0[COMMON] unsigned int 
  9775 ;;  dividend        2    2[COMMON] unsigned int 
  9776 ;; Auto vars:     Size  Location     Type
  9777 ;;  quotient        2    4[COMMON] unsigned int 
  9778 ;;  counter         1    6[COMMON] unsigned char 
  9779 ;; Return value:  Size  Location     Type
  9780 ;;                  2    0[COMMON] unsigned int 
  9781 ;; Registers used:
  9782 ;;		wreg, status,2, status,0
  9783 ;; Tracked objects:
  9784 ;;		On entry : 60/0
  9785 ;;		On exit  : 60/0
  9786 ;;		Unchanged: FFF9F/0
  9787 ;; Data sizes:     COMMON   BANK0   BANK1   BANK3   BANK2
  9788 ;;      Params:         4       0       0       0       0
  9789 ;;      Locals:         3       0       0       0       0
  9790 ;;      Temps:          0       0       0       0       0
  9791 ;;      Totals:         7       0       0       0       0
  9792 ;;Total ram usage:        7 bytes
  9793 ;; Hardware stack levels used:    1
  9794 ;; This function calls:
  9795 ;;		Nothing
  9796 ;; This function is called by:
  9797 ;;		_display_reading
  9798 ;; This function uses a non-reentrant model
  9799 ;;
  9800                           psect	text595
  9801                           	file	"C:\Program Files (x86)\HI-TECH Software\PICC\9.83\sources\lwdiv.c"
  9802                           	line	5
  9803                           	global	__size_of___lwdiv
  9804  0033                     	__size_of___lwdiv	equ	__end_of___lwdiv-___lwdiv
  9805                           	
  9806  00BA                     ___lwdiv:	
  9807                           	opt	stack 5
  9808                           ; Regs used in ___lwdiv: [wreg+status,2+status,0]
  9809                           	line	9
  9810                           	
  9811  00BA                     l9532:	
  9812  00BA  01F4               	clrf	(___lwdiv@quotient)
  9813  00BB  01F5               	clrf	(___lwdiv@quotient+1)
  9814                           	line	10
  9815                           	
  9816  00BC                     l9534:	
  9817  00BC  0871               	movf	(___lwdiv@divisor+1),w
  9818  00BD  0470               	iorwf	(___lwdiv@divisor),w
  9819  00BE  1903               	skipnz
  9820  00BF  28C1               	goto	u1071
  9821  00C0  28C2               	goto	u1070
  9822  00C1                     u1071:
  9823  00C1  28E8               	goto	l9554
  9824  00C2                     u1070:
  9825                           	line	11
  9826                           	
  9827  00C2                     l9536:	
  9828  00C2  01F6               	clrf	(___lwdiv@counter)
  9829  00C3  0AF6               	incf	(___lwdiv@counter),f
  9830                           	line	12
  9831  00C4  28C9               	goto	l9540
  9832                           	line	13
  9833                           	
  9834  00C5                     l9538:	
  9835  00C5  1003               	clrc
  9836  00C6  0DF0               	rlf	(___lwdiv@divisor),f
  9837  00C7  0DF1               	rlf	(___lwdiv@divisor+1),f
  9838                           	line	14
  9839  00C8  0AF6               	incf	(___lwdiv@counter),f
  9840                           	line	12
  9841                           	
  9842  00C9                     l9540:	
  9843  00C9  1FF1               	btfss	(___lwdiv@divisor+1),(15)&7
  9844  00CA  28CC               	goto	u1081
  9845  00CB  28CD               	goto	u1080
  9846  00CC                     u1081:
  9847  00CC  28C5               	goto	l9538
  9848  00CD                     u1080:
  9849                           	line	17
  9850                           	
  9851  00CD                     l9542:	
  9852  00CD  1003               	clrc
  9853  00CE  0DF4               	rlf	(___lwdiv@quotient),f
  9854  00CF  0DF5               	rlf	(___lwdiv@quotient+1),f
  9855                           	line	18
  9856                           	
  9857  00D0                     l9544:	
  9858  00D0  0871               	movf	(___lwdiv@divisor+1),w
  9859  00D1  0273               	subwf	(___lwdiv@dividend+1),w
  9860  00D2  1D03               	skipz
  9861  00D3  28D6               	goto	u1095
  9862  00D4  0870               	movf	(___lwdiv@divisor),w
  9863  00D5  0272               	subwf	(___lwdiv@dividend),w
  9864  00D6                     u1095:
  9865  00D6  1C03               	skipc
  9866  00D7  28D9               	goto	u1091
  9867  00D8  28DA               	goto	u1090
  9868  00D9                     u1091:
  9869  00D9  28E1               	goto	l9550
  9870  00DA                     u1090:
  9871                           	line	19
  9872                           	
  9873  00DA                     l9546:	
  9874  00DA  0870               	movf	(___lwdiv@divisor),w
  9875  00DB  02F2               	subwf	(___lwdiv@dividend),f
  9876  00DC  0871               	movf	(___lwdiv@divisor+1),w
  9877  00DD  1C03               	skipc
  9878  00DE  03F3               	decf	(___lwdiv@dividend+1),f
  9879  00DF  02F3               	subwf	(___lwdiv@dividend+1),f
  9880                           	line	20
  9881                           	
  9882  00E0                     l9548:	
  9883  00E0  1474               	bsf	(___lwdiv@quotient)+(0/8),(0)&7
  9884                           	line	22
  9885                           	
  9886  00E1                     l9550:	
  9887  00E1  1003               	clrc
  9888  00E2  0CF1               	rrf	(___lwdiv@divisor+1),f
  9889  00E3  0CF0               	rrf	(___lwdiv@divisor),f
  9890                           	line	23
  9891                           	
  9892  00E4                     l9552:	
  9893  00E4  0BF6               	decfsz	(___lwdiv@counter),f
  9894  00E5  28E7               	goto	u1101
  9895  00E6  28E8               	goto	u1100
  9896  00E7                     u1101:
  9897  00E7  28CD               	goto	l9542
  9898  00E8                     u1100:
  9899                           	line	25
  9900                           	
  9901  00E8                     l9554:	
  9902  00E8  0875               	movf	(___lwdiv@quotient+1),w
  9903  00E9  00F1               	movwf	(?___lwdiv+1)
  9904  00EA  0874               	movf	(___lwdiv@quotient),w
  9905  00EB  00F0               	movwf	(?___lwdiv)
  9906                           	line	26
  9907                           	
  9908  00EC                     l6557:	
  9909  00EC  0008               	return
  9910                           	opt stack 0
  9911                           GLOBAL	__end_of___lwdiv
  9912  00ED                     	__end_of___lwdiv:
  9913 ;; =============== function ___lwdiv ends ============
  9914                           
  9915                           	signat	___lwdiv,8314
  9916                           	global	___wmul
  9917                           psect	text596,local,class=CODE,delta=2
  9918                           global __ptext596
  9919  1001                     __ptext596:
  9920                           
  9921 ;; *************** function ___wmul *****************
  9922 ;; Defined at:
  9923 ;;		line 3 in file "C:\Program Files (x86)\HI-TECH Software\PICC\9.83\sources\wmul.c"
  9924 ;; Parameters:    Size  Location     Type
  9925 ;;  multiplier      2    0[COMMON] unsigned int 
  9926 ;;  multiplicand    2    2[COMMON] unsigned int 
  9927 ;; Auto vars:     Size  Location     Type
  9928 ;;  product         2    4[COMMON] unsigned int 
  9929 ;; Return value:  Size  Location     Type
  9930 ;;                  2    0[COMMON] unsigned int 
  9931 ;; Registers used:
  9932 ;;		wreg, status,2, status,0
  9933 ;; Tracked objects:
  9934 ;;		On entry : 40/0
  9935 ;;		On exit  : 60/0
  9936 ;;		Unchanged: FFF9F/0
  9937 ;; Data sizes:     COMMON   BANK0   BANK1   BANK3   BANK2
  9938 ;;      Params:         4       0       0       0       0
  9939 ;;      Locals:         2       0       0       0       0
  9940 ;;      Temps:          0       0       0       0       0
  9941 ;;      Totals:         6       0       0       0       0
  9942 ;;Total ram usage:        6 bytes
  9943 ;; Hardware stack levels used:    1
  9944 ;; This function calls:
  9945 ;;		Nothing
  9946 ;; This function is called by:
  9947 ;;		_display_unit
  9948 ;;		_lcd_putch
  9949 ;; This function uses a non-reentrant model
  9950 ;;
  9951                           psect	text596
  9952                           	file	"C:\Program Files (x86)\HI-TECH Software\PICC\9.83\sources\wmul.c"
  9953                           	line	3
  9954                           	global	__size_of___wmul
  9955  001D                     	__size_of___wmul	equ	__end_of___wmul-___wmul
  9956                           	
  9957  1001                     ___wmul:	
  9958                           	opt	stack 4
  9959                           ; Regs used in ___wmul: [wreg+status,2+status,0]
  9960                           	line	4
  9961                           	
  9962  1001                     l9516:	
  9963  1001  01F4               	clrf	(___wmul@product)
  9964  1002  01F5               	clrf	(___wmul@product+1)
  9965                           	line	7
  9966                           	
  9967  1003                     l9518:	
  9968  1003  1C70               	btfss	(___wmul@multiplier),(0)&7
  9969  1004  2806               	goto	u1051
  9970  1005  2807               	goto	u1050
  9971  1006                     u1051:
  9972  1006  280D               	goto	l9522
  9973  1007                     u1050:
  9974                           	line	8
  9975                           	
  9976  1007                     l9520:	
  9977  1007  0872               	movf	(___wmul@multiplicand),w
  9978  1008  07F4               	addwf	(___wmul@product),f
  9979  1009  1803               	skipnc
  9980  100A  0AF5               	incf	(___wmul@product+1),f
  9981  100B  0873               	movf	(___wmul@multiplicand+1),w
  9982  100C  07F5               	addwf	(___wmul@product+1),f
  9983                           	line	9
  9984                           	
  9985  100D                     l9522:	
  9986  100D  1003               	clrc
  9987  100E  0DF2               	rlf	(___wmul@multiplicand),f
  9988  100F  0DF3               	rlf	(___wmul@multiplicand+1),f
  9989                           	line	10
  9990                           	
  9991  1010                     l9524:	
  9992  1010  1003               	clrc
  9993  1011  0CF1               	rrf	(___wmul@multiplier+1),f
  9994  1012  0CF0               	rrf	(___wmul@multiplier),f
  9995                           	line	11
  9996                           	
  9997  1013                     l9526:	
  9998  1013  0871               	movf	((___wmul@multiplier+1)),w
  9999  1014  0470               	iorwf	((___wmul@multiplier)),w
 10000  1015  1D03               	skipz
 10001  1016  2818               	goto	u1061
 10002  1017  2819               	goto	u1060
 10003  1018                     u1061:
 10004  1018  2803               	goto	l9518
 10005  1019                     u1060:
 10006                           	line	12
 10007                           	
 10008  1019                     l9528:	
 10009  1019  0875               	movf	(___wmul@product+1),w
 10010  101A  00F1               	movwf	(?___wmul+1)
 10011  101B  0874               	movf	(___wmul@product),w
 10012  101C  00F0               	movwf	(?___wmul)
 10013                           	line	13
 10014                           	
 10015  101D                     l6547:	
 10016  101D  0008               	return
 10017                           	opt stack 0
 10018                           GLOBAL	__end_of___wmul
 10019  101E                     	__end_of___wmul:
 10020 ;; =============== function ___wmul ends ============
 10021                           
 10022                           	signat	___wmul,8314
 10023                           	global	_ser_putch
 10024                           psect	text597,local,class=CODE,delta=2
 10025                           global __ptext597
 10026  1F7E                     __ptext597:
 10027                           
 10028 ;; *************** function _ser_putch *****************
 10029 ;; Defined at:
 10030 ;;		line 82 in file "C:\Users\vboxuser\Desktop\lc-meter\lib\ser.c"
 10031 ;; Parameters:    Size  Location     Type
 10032 ;;  c               1    wreg     unsigned char 
 10033 ;; Auto vars:     Size  Location     Type
 10034 ;;  c               1    0[COMMON] unsigned char 
 10035 ;; Return value:  Size  Location     Type
 10036 ;;		None               void
 10037 ;; Registers used:
 10038 ;;		wreg, fsr0l, fsr0h, status,2, status,0
 10039 ;; Tracked objects:
 10040 ;;		On entry : 60/0
 10041 ;;		On exit  : 160/20
 10042 ;;		Unchanged: FFE9F/0
 10043 ;; Data sizes:     COMMON   BANK0   BANK1   BANK3   BANK2
 10044 ;;      Params:         0       0       0       0       0
 10045 ;;      Locals:         1       0       0       0       0
 10046 ;;      Temps:          0       0       0       0       0
 10047 ;;      Totals:         1       0       0       0       0
 10048 ;;Total ram usage:        1 bytes
 10049 ;; Hardware stack levels used:    1
 10050 ;; This function calls:
 10051 ;;		Nothing
 10052 ;; This function is called by:
 10053 ;;		_ser_puts
 10054 ;; This function uses a non-reentrant model
 10055 ;;
 10056                           psect	text597
 10057                           	file	"C:\Users\vboxuser\Desktop\lc-meter\lib\ser.c"
 10058                           	line	82
 10059                           	global	__size_of_ser_putch
 10060  0016                     	__size_of_ser_putch	equ	__end_of_ser_putch-_ser_putch
 10061                           	
 10062  1F7E                     _ser_putch:	
 10063                           	opt	stack 6
 10064                           ; Regs used in _ser_putch: [wreg-fsr0h+status,2+status,0]
 10065                           ;ser_putch@c stored from wreg
 10066  1F7E  00F0               	movwf	(ser_putch@c)
 10067                           	line	83
 10068                           	
 10069  1F7F                     l9502:	
 10070                           ;ser.c: 83: while(((txiptr + 1) & ((uint8_t)16 - 1)) == txoptr) continue;
 10071                           	
 10072  1F7F                     l9504:	
 10073  1F7F  0A6D               	incf	(_txiptr),w	;volatile
 10074  1F80  390F               	andlw	0Fh
 10075  1F81  066E               	xorwf	(_txoptr),w	;volatile
 10076  1F82  1903               	skipnz
 10077  1F83  2F85               	goto	u1041
 10078  1F84  2F86               	goto	u1040
 10079  1F85                     u1041:
 10080  1F85  2F7F               	goto	l9504
 10081  1F86                     u1040:
 10082                           	
 10083  1F86                     l4596:	
 10084                           	line	84
 10085                           ;ser.c: 84: GIE = 0;
 10086  1F86  138B               	bcf	(95/8),(95)&7
 10087                           	line	85
 10088                           	
 10089  1F87                     l9506:	
 10090                           ;ser.c: 85: txfifo[txiptr] = c;
 10091  1F87  086D               	movf	(_txiptr),w
 10092  1F88  3E5B               	addlw	_txfifo&0ffh
 10093  1F89  0084               	movwf	fsr0
 10094  1F8A  0870               	movf	(ser_putch@c),w
 10095  1F8B  1383               	bcf	status, 7	;select IRP bank0
 10096  1F8C  0080               	movwf	indf
 10097                           	line	86
 10098                           	
 10099  1F8D                     l9508:	
 10100                           ;ser.c: 86: txiptr = (txiptr + 1) & ((uint8_t)16 - 1);
 10101  1F8D  0AED               	incf	(_txiptr),f	;volatile
 10102                           	
 10103  1F8E                     l9510:	
 10104  1F8E  300F               	movlw	(0Fh)
 10105  1F8F  05ED               	andwf	(_txiptr),f	;volatile
 10106                           	line	87
 10107                           	
 10108  1F90                     l9512:	
 10109                           ;ser.c: 87: TXIE = 1;
 10110  1F90  1683               	bsf	status, 5	;RP0=1, select bank1
 10111  1F91  160C               	bsf	(1124/8)^080h,(1124)&7
 10112                           	line	88
 10113                           	
 10114  1F92                     l9514:	
 10115                           ;ser.c: 88: GIE = 1;
 10116  1F92  178B               	bsf	(95/8),(95)&7
 10117                           	line	89
 10118                           	
 10119  1F93                     l4597:	
 10120  1F93  0008               	return
 10121                           	opt stack 0
 10122                           GLOBAL	__end_of_ser_putch
 10123  1F94                     	__end_of_ser_putch:
 10124 ;; =============== function _ser_putch ends ============
 10125                           
 10126                           	signat	_ser_putch,4216
 10127                           	global	_ser_init
 10128                           psect	text598,local,class=CODE,delta=2
 10129                           global __ptext598
 10130  07E7                     __ptext598:
 10131                           
 10132 ;; *************** function _ser_init *****************
 10133 ;; Defined at:
 10134 ;;		line 125 in file "C:\Users\vboxuser\Desktop\lc-meter\lib\ser.c"
 10135 ;; Parameters:    Size  Location     Type
 10136 ;;		None
 10137 ;; Auto vars:     Size  Location     Type
 10138 ;;		None
 10139 ;; Return value:  Size  Location     Type
 10140 ;;		None               void
 10141 ;; Registers used:
 10142 ;;		wreg, status,2
 10143 ;; Tracked objects:
 10144 ;;		On entry : 60/20
 10145 ;;		On exit  : 60/0
 10146 ;;		Unchanged: FFF9F/0
 10147 ;; Data sizes:     COMMON   BANK0   BANK1   BANK3   BANK2
 10148 ;;      Params:         0       0       0       0       0
 10149 ;;      Locals:         0       0       0       0       0
 10150 ;;      Temps:          0       0       0       0       0
 10151 ;;      Totals:         0       0       0       0       0
 10152 ;;Total ram usage:        0 bytes
 10153 ;; Hardware stack levels used:    1
 10154 ;; This function calls:
 10155 ;;		Nothing
 10156 ;; This function is called by:
 10157 ;;		_initialize
 10158 ;; This function uses a non-reentrant model
 10159 ;;
 10160                           psect	text598
 10161                           	file	"C:\Users\vboxuser\Desktop\lc-meter\lib\ser.c"
 10162                           	line	125
 10163                           	global	__size_of_ser_init
 10164  0019                     	__size_of_ser_init	equ	__end_of_ser_init-_ser_init
 10165                           	
 10166  07E7                     _ser_init:	
 10167                           	opt	stack 6
 10168                           ; Regs used in _ser_init: [wreg+status,2]
 10169                           	line	128
 10170                           	
 10171  07E7                     l9480:	
 10172                           ;ser.c: 128: TRISC6 = 1;
 10173  07E7  1707               	bsf	(1086/8)^080h,(1086)&7
 10174                           	line	129
 10175                           ;ser.c: 129: RC7 = 1;
 10176  07E8  1283               	bcf	status, 5	;RP0=0, select bank0
 10177  07E9  1787               	bsf	(63/8),(63)&7
 10178                           	line	131
 10179                           ;ser.c: 131: BRGH = 1;
 10180  07EA  1683               	bsf	status, 5	;RP0=1, select bank1
 10181  07EB  1518               	bsf	(1218/8)^080h,(1218)&7
 10182                           	line	136
 10183                           	
 10184  07EC                     l9482:	
 10185                           ;ser.c: 136: SPBRG = ser_brg;
 10186  07EC  301F               	movlw	(01Fh)
 10187  07ED  0099               	movwf	(153)^080h	;volatile
 10188                           	line	139
 10189                           	
 10190  07EE                     l9484:	
 10191                           ;ser.c: 139: TX9 = 0;
 10192  07EE  1318               	bcf	(1222/8)^080h,(1222)&7
 10193                           	line	140
 10194                           	
 10195  07EF                     l9486:	
 10196                           ;ser.c: 140: RX9 = 0;
 10197  07EF  1283               	bcf	status, 5	;RP0=0, select bank0
 10198  07F0  1318               	bcf	(198/8),(198)&7
 10199                           	line	142
 10200                           	
 10201  07F1                     l9488:	
 10202                           ;ser.c: 142: SYNC = 0;
 10203  07F1  1683               	bsf	status, 5	;RP0=1, select bank1
 10204  07F2  1218               	bcf	(1220/8)^080h,(1220)&7
 10205                           	line	143
 10206                           	
 10207  07F3                     l9490:	
 10208                           ;ser.c: 143: SPEN = 1;
 10209  07F3  1283               	bcf	status, 5	;RP0=0, select bank0
 10210  07F4  1798               	bsf	(199/8),(199)&7
 10211                           	line	144
 10212                           	
 10213  07F5                     l9492:	
 10214                           ;ser.c: 144: CREN = 1;
 10215  07F5  1618               	bsf	(196/8),(196)&7
 10216                           	line	145
 10217                           	
 10218  07F6                     l9494:	
 10219                           ;ser.c: 145: TXIE = 0;
 10220  07F6  1683               	bsf	status, 5	;RP0=1, select bank1
 10221  07F7  120C               	bcf	(1124/8)^080h,(1124)&7
 10222                           	line	147
 10223                           	
 10224  07F8                     l9496:	
 10225                           ;ser.c: 147: TXEN = 1;
 10226  07F8  1698               	bsf	(1221/8)^080h,(1221)&7
 10227                           	line	148
 10228                           	
 10229  07F9                     l9498:	
 10230                           ;ser.c: 148: PEIE = 1;
 10231  07F9  170B               	bsf	(94/8),(94)&7
 10232                           	line	150
 10233                           	
 10234  07FA                     l9500:	
 10235                           ;ser.c: 150: rxiptr = rxoptr = txiptr = txoptr = 0;
 10236  07FA  1283               	bcf	status, 5	;RP0=0, select bank0
 10237  07FB  01EE               	clrf	(_txoptr)	;volatile
 10238  07FC  01ED               	clrf	(_txiptr)	;volatile
 10239  07FD  01EC               	clrf	(_rxoptr)	;volatile
 10240  07FE  01EB               	clrf	(_rxiptr)	;volatile
 10241                           	line	151
 10242                           	
 10243  07FF                     l4625:	
 10244  07FF  0008               	return
 10245                           	opt stack 0
 10246                           GLOBAL	__end_of_ser_init
 10247  0800                     	__end_of_ser_init:
 10248 ;; =============== function _ser_init ends ============
 10249                           
 10250                           	signat	_ser_init,88
 10251                           psect	text599,local,class=CODE,delta=2
 10252                           global __ptext599
 10253  0000                     __ptext599:
 10254                           	global	btemp
 10255  007E                     	btemp set 07Eh
 10256                           
 10257                           	DABS	1,126,2	;btemp
 10258                           	global	wtemp0
 10259  007E                     	wtemp0 set btemp


HI-TECH Software PICC Macro Assembler V9.83 build 10920 
Symbol Table                                                                                   Fri Aug 30 06:22:34 2019

                 ___fldiv@cntr 003B                              pc 0002                   ___fldiv@sign 003D  
                           _F1 00CA                             _F2 00C2                             _F3 00C6  
                           l31 134C                             l18 087F                             l35 1683  
                           l43 10FB                             l38 16DD                             fsr 0004  
          ___wmul@multiplicand 0072                   ___flpack@arg 0070                   ___flpack@exp 0074  
                          l703 15BE                            l709 103E                            l680 1504  
                          l672 147C                            l681 150C                            l673 148D  
                          l674 149E                            l675 14AF                            l676 14C0  
                          l684 11A0                            l677 14D1                            l678 14E2  
                          l694 1FDF                            l679 14F3                            l697 00FF  
                          _GIE 005F                            _RB0 0030                            _RC0 0038  
                          _RC1 0039                            _RC2 003A                            _RC3 003B  
                          _RC4 003C                            _RC5 003D                            _RC7 003F  
                          _PS0 0408                            _PS1 0409                            _PS2 040A  
                          _PSA 040B                            _RX9 00C6                            _TX9 04C6  
                ?_display_unit 0070                            fsr0 0004                            indf 0000  
                 ___flmul@cntr 004F                   ___flmul@sign 0050                    lcd_gotoxy@x 007A  
                  lcd_gotoxy@y 0078                    lcd_send@cmd 0076                  ___flpack@sign 0075  
                 ___fltol@exp1 0079                           l1432 1084                           l1426 13BE  
                         l1444 07E6                           l1454 0BDE                           l1439 114B  
                         l1464 0FFF                           l1467 1F94                           l1469 1FA9  
                         l4603 1061                 ?_display_digit 007C                           l4625 07FF  
                         l7056 11AD                           l7057 11FD                           l7066 11DD  
                         l4596 1F86                           l7068 11FD                           l4597 1F93  
                         l6704 00B9                           l6802 124E                           l6547 101D  
                         l6803 1267                           l6557 00EC                           l6661 1727  
                         l6662 172F                           l6567 10B1                           l6663 1734  
                         l6672 1793                           l6658 17FF                           l9500 07FA  
                         l9510 1F8E                           l9502 1F7F                           l6694 1471  
                         l9512 1F90                           l9504 1F7F                           l9520 1007  
                         l9600 11E9                           l6784 12BF                           l6688 1FFF  
                         l6777 12D3                           l9514 1F92                           l9506 1F87  
                         l9522 100D                           l9602 11FC                           l9610 1291  
                         l6787 12D3                           l6867 1FC0                           l9508 1F8D  
                         l9524 1010                           l9516 1001                           l9540 00C9  
                         l9532 00BA                           l9612 1292                           l9604 1268  
                         l9700 171D                           l9526 1013                           l9518 1003  
                         l9550 00E1                           l9542 00CD                           l9534 00BC  
                         l9630 12B9                           l9622 12A8                           l9614 129A  
                         l9606 1279                           l9710 1735                           l9702 1728  
                         l9480 07E7                           l9528 1019                           l9552 00E4  
                         l9544 00D0                           l9536 00C2                           l9560 108B  
                         l9632 12C4                           l9624 12AD                           l9616 129C  
                         l9608 127E                           l9640 1226                           l9720 1760  
                         l9712 173D                           l9704 172A                           l9490 07F3  
                         l9482 07EC                           l9546 00DA                           l9538 00C5  
                         l9554 00E8                           l9570 10A6                           l9562 108E  
                         l9634 12C8                           l9618 12A0                           l9626 12B2  
                         l9642 122A                           l9650 1473                           l9730 177F  
                         l9722 1766                           l9714 174C                           l9706 172E  
                         l9810 0033                           l9802 0007                           l9492 07F5  
                         l9484 07EE                           l9548 00E0                           l9572 10A9  
                         l9564 1092                           l9580 11A5                           l9644 1264  
                         l9636 11FE                           l9660 14AE                           l9652 1476  
                         l9740 17A6                           l9732 1787                           l9716 1752  
                         l9724 176D                           l9708 1733                           l9820 003D  
                         l9812 0036                           l9804 0018                           l9900 150E  
                         l9494 07F6                           l9486 07EF                           l9566 1096  
                         l9574 10AD                           l9558 1085                           l9590 11C7  
                         l9582 11B2                           l9646 1266                           l9638 1202  
                         l9670 1503                           l9662 14BF                           l9654 147B  
                         l9750 17D1                           l9742 17AA                           l9734 178D  
                         l9726 1773                           l9718 1758                           l9830 0050  
                         l9822 003E                           l9814 0038                           l9806 001D  
                         l9902 1514                           l9910 1100                           l9496 07F8  
                         l9488 07F1                           l9568 10A0                           l9592 11CC  
                         l9584 11B8                           l9664 14D0                           l9656 148C  
                         l9672 1F94                           l9680 104E                           l9752 17D5  
                         l9744 17B2                           l9736 1797                           l9728 1779  
                         l9840 0077                           l9832 0067                           l9824 0046  
                         l9816 003A                           l9808 002E                           l9904 151B  
                         l9920 111A                           l9912 1108                           l9498 07F9  
                         l9594 11D3                           l9586 11BF                           l9578 11A1  
                         l9666 14E1                           l9658 149D                           l9674 1F9D  
                         l9682 1051                           l9754 17DD                           l9746 17B9  
                         l9738 179F                           l9690 1700                           l9770 140A  
                         l9762 13DE                           l9850 00A0                           l9842 007B  
                         l9834 006C                           l9826 004A                           l9818 003C  
                         l9906 15B6                           l9930 1123                           l9922 111C  
                         l9914 110B                           l9596 11D9                           l9588 11C0  
                         l9668 14F2                           l9676 103F                           l9756 17E4  
                         l9748 17BA                           l9692 170A                           l9684 16DE  
                         l9780 1416                           l9772 140F                           l9764 13EF  
                         l9844 0092                           l9836 0071                           l9828 004C  
                         l9860 114C                           l9940 1140                           l9932 1124  
                         l9924 111E                           l9916 1113                           l9908 10FC  
                         l9598 11E1                           l9678 1040                           l9758 17E6  
                         l9686 16F6                           l9790 1440                           l9782 141E  
                         l9774 1411                           l9766 13F4                           l9846 0097  
                         l9838 0075                           l9854 1FAA                           l9870 115B  
                         l9862 114D                           l9934 1125                           l9926 111F  
                         l9918 1116                           l9950 0807                           STR_1 0712  
                         l9696 1713                           l9688 16FA                           l9792 144E  
                         l9784 141F                           l9776 1413                           l9768 1405  
                         l9848 009C                           l9880 1166                           l9872 115E  
                         l9864 1156                           l9936 112A                           l9928 1120  
                         l9944 1FE0                           l9952 080B                           STR_2 0712  
                         STR_3 071A                           l9698 1717                           l9794 144F  
                         l9786 1427                           l9778 1415                           l9858 00EE  
                         l9890 117D                           l9882 1167                           l9874 115F  
                         l9866 1157                           l9938 1137                           l9946 1FE2  
                         l9970 0830                           l9962 0820                           l9954 0812  
                         STR_4 071C                           STR_5 0723                           l9796 1454  
                         l9788 1429                           l9892 1184                           l9884 116A  
                         l9876 1162                           l9868 115A                           l9972 084B  
                         l9964 082F                           STR_6 06F8                           STR_7 06DD  
                         l9798 1458                           l9894 118B                           l9886 1173  
                         l9878 1163                           l9974 084C                           l9958 0819  
                         l9990 12D5                           STR_8 0705                           STR_9 06EB  
                         l9896 1192                           l9888 1176                           l9984 085D  
                         l9976 0852                           l9992 12DE                           l9898 1199  
                         l9986 0878                           l9978 085B                           l9988 0879  
                         l9998 12DF                           _BRGH 04C2                           _CREN 00C4  
                         _T0CS 040D                           u1100 00E8                           u1101 00E7  
                         u1110 108B                           u1111 108A                           u1040 1F86  
                         u1120 1096                           u1200 11E1                           u2000 0AF3  
                         u1041 1F85                           u1121 1095                           u1201 11E0  
                         u2001 0AF2                           u1050 1007                           u1130 10A0  
                         u1210 11FC                           u2010 0C27                           u1051 1006  
                         u1131 109F                           u2011 0C26                           u1060 1019  
                         u1140 10AD                           u1220 1279                           u1300 1202  
                         u2020 0EE2                           u1061 1018                           u1141 10AC  
                         u1221 1278                           u1301 1201                           u2021 0EE1  
                         u1070 00C2                           u1150 11A5                           u1230 128C  
                         u2030 0EFB                           u1071 00C1                           u1135 109C  
                         u1311 1211                           u2031 0EFA                           u1080 00CD  
                         u1160 11AD                           u1240 12A0                           u1320 122A  
                         u1312 1212                           u1400 14D0                           u2040 0F14  
                         u1081 00CC                           u1161 11AC                           u1241 129F  
                         u1321 1229                           u1313 1217                           u1401 14CF  
                         u2041 0F13                           u1090 00DA                           u1170 11BE  
                         u1250 12A7                           u1314 1218                           u1410 14E1  
                         u2050 1382                           u1091 00D9                           u1171 11BD  
                         u1251 12A6                           u1235 1287                           u1331 1239  
                         u1315 121D                           u1411 14E0                           u2051 1381  
                         _T0SE 040C                           u1180 11D2                           u1260 12B1  
                         u1340 1264                           u1332 123A                           u1316 121E  
                         u1420 14F2                           u1500 171D                           u2060 13B3  
                         u1181 11D1                           u1261 12B0                           u1341 1263  
                         u1333 123F                           u1421 14F1                           u1501 171C  
                         u2061 13B2                           u1190 11DD                           u1270 12B8  
                         u1334 1240                           u1430 1503                           u1350 147B  
                         u1510 1727                           u1095 00D6                           u1191 11DC  
                         u1271 12B7                           u1335 1245                           u1431 1502  
                         u1351 147A                           u1511 1726                           u2055 137E  
                         u1280 12C4                           u1336 1246                           u1360 148C  
                         u1440 1FA9                           u1600 1786                           u1520 172E  
                         u1281 12C3                           u1345 1260                           u1361 148B  
                         u1441 1FA8                           u1601 1785                           u1521 172D  
                         u1290 12C8                           u1370 149D                           u1450 1061  
                         u1610 1793                           u1530 1733                           u1371 149C  
                         u1451 1060                           u1611 1792                           u1531 1732  
                         u1380 14AE                           u1620 1797                           u1540 174C  
                         u1460 16FA                           u1700 0018                           u1381 14AD  
                         u1621 1796                           u1541 174B                           u1701 0017  
                         u2077 1151                           u1390 14BF                           u1630 17AA  
                         u1550 1758                           u1470 1700                           u1710 002E  
                         u1391 14BE                           u1631 17A9                           u1551 1757  
                         u1471 16FF                           u1711 002D                           u2087 116E  
                         u1560 175F                           u1480 170A                           u1720 0050  
                         u1800 1137                           u2097 1F98                           u1641 17C3  
                         u1561 175E                           u1481 1709                           u1721 004F  
                         u1801 1136                           u1650 17D5                           u1642 17CA  
                         u1570 176C                           u1490 1717                           u1810 1140  
                         u1651 17D4                           u1643 17D1                           u1571 176B  
                         u1731 0059                           u1811 113F                           u1580 1773  
                         u1660 13EF                           u1740 0075                           u1732 0060  
                         u1820 080B                           u1900 103E                           u1581 1772  
                         u1661 13EE                           u1741 0074                           u1733 0067  
                         u1805 1133                           u1901 103D                           u1590 177F  
                         u1670 1405                           u1750 007B                           u1830 0811  
                         u1910 1FDF                           u1591 177E                           u1671 1404  
                         u1751 007A                           u1831 0810                           u1911 1FDE  
                         u1680 1440                           u1840 0818                           u1920 1617  
                         u1681 143F                           u1761 0084                           u1841 0817  
                         u1921 1616                           u1690 1458                           u1770 00A0  
                         u1762 008B                           u1850 081F                           u1930 164D  
                         u1691 1457                           u1771 009F                           u1763 0092  
                         u1851 081E                           u1931 164C                           u1780 1514  
                         u1860 0852                           u1940 1660                           u1685 143C  
                         u1781 1513                           u1861 0851                           u1941 165F  
                         u1790 151A                           u1870 087F                           u1950 10B7  
                         u1791 1519                           u1871 087E                           u1880 1310  
                         u1960 07E6                           u1881 130F                           u1961 07E5  
                         u1890 134C                           u1970 08C8                           u1891 134B  
                         u1971 08C7                           _PEIE 005E                           u1980 0AC1  
                         u1981 0AC0                           u1990 0ADA                           u1991 0AD9  
                         _TMR0 0001                           _SPEN 00C7                           _TXIE 0464  
                         _TXEN 04C5                           _SYNC 04C4        __end_of_display_reading 16DE  
                         _main 134D                           btemp 007E     __end_of_measure_inductance 1000  
                         start 0004                          l10000 1309                          l10002 130A  
                        l10012 131B                          l10004 1310                          l10020 101F  
                        l10100 1082                          l10014 1345                          l10006 1319  
                        l10022 102D                          l10102 1083                          l10110 0752  
                        l10016 1346                          l10024 1030                          l10040 15BF  
                        l10120 078B                          l10112 0753                          l10104 0729  
                        l10200 0C27                          l10018 101E                          l10034 1FCB  
                        l10026 1FC1                          l10050 15F4                          l10042 15C8  
                        l10130 07CC                          l10122 07A2                          l10114 076A  
                        l10106 0737                          l10210 0D86                          l10202 0C2F  
                        l10036 1FD3                          l10028 1FC9                          l10060 164D  
                        l10052 15FC                          l10044 15D1                          l10140 07E0  
                        l10124 07AA                          l10116 0772                          l10108 0740  
                        l10220 0E7F                          l10212 0DB9                          l10204 0C9C  
                        l10038 1FD6                          l10062 1660                          l10054 1604  
                        l10046 15E3                          l10070 10F2                          l10126 07C1  
                        l10118 0789                          l10150 08AF                          l10142 0880  
                        l10230 0F41                          l10222 0EC9                          l10214 0DEC  
                        l10206 0D26                          l10056 1617                          l10048 15EC  
                        l10064 10B3                          l10080 106A                          l10072 1062  
                        l10136 07CD                          l10128 07C3                          l10160 09DD  
                        l10152 08C8                          l10144 0889                          l10232 0F48  
                        l10224 0EE2                          l10240 0FB0                          l10216 0E1F  
                        l10208 0D53                          l10058 162E                          l10066 10B7  
                        l10090 1077                          l10082 106B                          l10074 1067  
                        l10138 07DD                          l10170 0ADA                          l10162 0A10  
                        l10154 08D0                          l10146 0892                          l10234 0F75  
                        l10242 0FB6                          l10226 0EFB                          l10218 0E52  
                        l10068 10E9                          l10092 1079                          l10084 106C  
                        l10076 1068                          l10172 0AF3                          l10180 0B5B  
                        l10164 0A43                          l10156 093D                          l10148 089E  
                        l10244 0FE2                          l10228 0F14                          l10236 0F7C  
                        l10260 1382                          l10094 107A                          l10086 106D  
                        l10078 1069                          l10182 0B88                          l10174 0B20  
                        l10166 0AA8                          l10158 0970                          l10238 0FA9  
                        l10190 0BDF                          l10270 13AF                          l10262 138B  
                        l10254 135C                          l10246 134D                          l10096 107F  
                        l10088 1072                          l10176 0B27                          l10168 0AC1  
                        l10184 0B8F                          l10192 0BE8                          l10272 13B3  
                        l10264 1394                          l10256 1372                          l10248 135A  
                        l10098 1081                          l10178 0B54                          l10186 0B95  
                        l10194 0BF1                          l10274 13B9                          l10266 13A1  
                        l10258 1375                          l10188 0BC1                          l10196 0BFD  
                        l10276 13C4                          l10268 13A6                          l10198 0C0E  
                        l10278 13CC                  ___fltol@sign1 0078                __end_of___fladd 1800  
                        ?_main 0070                __end_of___fldiv 1472                 ??_display_unit 0020  
              __end_of___flmul 00BA                __end_of___flsub 2000                __end_of___fltol 12D4  
                        _CMCON 009C                __end_of___lwdiv 00ED                __end_of___lwmod 10B2  
                        _SPBRG 0099                          _TRISA 0085                          _TRISC 0087  
                        _nRBPU 040F                          main@i 0059                          _units 04D1  
                        pclath 000A                          status 0003                          wtemp0 007E  
                 __end_of_main 13DE                  ?_measure_freq 0020                         ??_main 007E  
              ??_display_digit 0020               __end_of___flpack 11FE               __end_of___lwtofl 1FC1  
             ?_display_reading 0024                         _TMR0IF 005A                         _TRISB0 0430  
                       _TRISC0 0438                         _TRISA4 042C                         _TRISC6 043E  
             __end_of_lcd_init 11A1               __end_of_lcd_send 150D                         ___flge 11FE  
             __end_of_lcd_puts 103F                      ??___fladd 007A                         ___wmul 1001  
                    ??___fldiv 0033                      ??___flmul 0046                      ??___flsub 007E  
                    ??___fltol 0074                 ??_measure_freq 0022                      ??___lwdiv 0074  
                    ??___lwmod 007B                         clrloop 1F62                         _txfifo 005B  
                       _rxiptr 006B                         _rxoptr 006C                         _txiptr 006D  
                       _txoptr 006E               __end_of_ser_init 0800     measure_freq@prescaler_cntr 0026  
             __end_of_ser_puts 1062        _measure_inductance$8400 00B0        _measure_inductance$8396 00B4  
      _measure_inductance$8397 00B8        _measure_inductance$8398 00A8        _measure_inductance$8399 00AC  
                display_unit@i 007C                     ___fladd@f1 0020                     ___fladd@f2 0024  
                   ___flge@ff1 0070                     ___flge@ff2 0074                     ___fldiv@f1 002F  
                   ___fldiv@f2 002B                     ___fldiv@f3 0037              display@logo_image 0112  
                   ___flmul@f1 003E                     ___flmul@f2 0042           __end_of_display_unit 134D  
                   ___flsub@f1 0055                     ___flsub@f2 0051                     ___fltol@f1 0070  
       measure_capacitance@Cin 00B6   __size_of_measure_capacitance 035F         measure_capacitance@var 00B4  
               __pcstackCOMMON 0070             __size_of_calibrate 00BE             __size_of_delay10ms 0016  
                   ___lwtofl@c 007A             __size_of_lcd_clear 001F             __size_of_lcd_putch 00B2  
                   __pbssBANK0 005B                     __pbssBANK1 00C2             __size_of_indicator 004A  
                   __pmaintext 134D                        ?___flge 0070                        ?___wmul 0070  
                    ?___flpack 0070     display_reading@measurement 0024             _measure_inductance 0BDF  
           __size_of_ser_putch 0016             display_digit@digit 007D                      ?___lwtofl 007A  
                   _lcd_gotoxy 00ED            ?_measure_inductance 0070              __end_of_calibrate 07E7  
                    ?_lcd_init 0070                      ?_lcd_send 0076              __end_of_delay10ms 1FAA  
                    ?_lcd_puts 0079           __end_of_measure_freq 114C                     calibrate@i 0028  
                    ?_ser_init 0070           ??_measure_inductance 007E                      ?_ser_puts 0071  
            __end_of_lcd_clear 1FE0                __size_of___flge 006A                        ___fladd 16DE  
            __end_of_lcd_putch 15BF                        ___fldiv 13DE                        ___flmul 0007  
                      ___flsub 1FE0                        ___fltol 1268                __size_of___wmul 001D  
                      ___lwdiv 00BA                        ___lwmod 1085                     ??___flpack 0076  
            __end_of_indicator 10FC                     _initialize 1062                     ??___lwtofl 007E  
                   ??_lcd_init 0078                     ??_lcd_send 0077                     ??_lcd_puts 007B  
        __size_of_display_unit 0079           end_of_initialization 1F7A              __end_of_ser_putch 1F94  
               display_digit@i 0023  measure_inductance@denominator 00A4                     ??_ser_init 0070  
                   ??_ser_puts 0073                   __pstringtext 0100                   _display_unit 12D4  
          _measure_capacitance 0880                    ?_lcd_gotoxy 0078                    ___fldiv@exp 003C  
                   lcd_clear@i 007B          __end_of_display_digit 0880                    ___flmul@exp 004A  
                   lcd_putch@c 0078           ?_measure_capacitance 0070       __size_of_display_reading 011F  
               __end_of___flge 1268                 __end_of___wmul 101E                    ?_initialize 0070  
          start_initialization 1F69          __size_of_measure_freq 0050            measure_freq@oldTMR0 0024  
        ??_measure_capacitance 007E                       ??___flge 0078            __size_of_lcd_gotoxy 0013  
                     ??___wmul 0074                   _measure_freq 10FC              __size_of___flpack 005D  
            __size_of___lwtofl 0017                  __pcstackBANK0 0020                  __pcstackBANK1 00A0  
            __size_of_lcd_init 0055              __size_of_lcd_send 009B                      _calibrate 0729  
            __size_of_lcd_puts 0021            __size_of_initialize 0023                      _delay10ms 1F94  
             ___lwdiv@dividend 0072                       ?___fladd 0020                       ?___fldiv 002B  
                    __ptext570 0880                      __ptext571 0729                      __ptext580 10FC  
                    __ptext572 1062                      __ptext581 150D                      __ptext573 10B2  
                    __ptext590 1472                      __ptext582 114C                      __ptext574 15BF  
                    __ptext591 11FE                      __ptext583 00ED                      __ptext575 1FC1  
                     ?___flmul 003E                      __ptext592 1268                      __ptext584 1FAA  
                    __ptext576 101E                      __ptext593 11A1                      __ptext585 0007  
                    __ptext577 12D4                      __ptext569 0BDF                      __ptext594 1085  
                    __ptext586 13DE                      __ptext578 0806                      __ptext595 00BA  
                    __ptext587 16DE                      __ptext579 1FE0                      __ptext596 1001  
                    __ptext588 103F                      __ptext597 1F7E                      __ptext589 1F94  
                    __ptext598 07E7                      __ptext599 0000                       ?___flsub 0051  
                     ?___fltol 0070              __size_of_ser_init 0019                       ?___lwdiv 0070  
                     ?___lwmod 0077              __size_of_ser_puts 0023              display_digit@line 0022  
                    _lcd_clear 1FC1                    _digits_8x16 05F1                      _lcd_putch 150D  
            ??_display_reading 007E                      _indicator 10B2               ___lwdiv@quotient 0074  
          display_digit@column 007C                     ?_calibrate 0070                 ___wmul@product 0074  
                   ser_putch@c 0070                     ?_delay10ms 0070                      _ser_putch 1F7E  
  __size_of_measure_inductance 0421              indicator@indicate 007B                     ?_lcd_clear 0070  
                   ?_lcd_putch 0070                    __stringbase 0112              ___wmul@multiplier 0070  
                    lcd_send@a 0077                     ?_indicator 0070                      lcd_puts@s 0079  
                 ??_lcd_gotoxy 007A          measure_inductance@Lin 00BE          measure_inductance@var 00BC  
                   ?_ser_putch 0070             __end_of_lcd_gotoxy 0100               __size_of___fladd 0122  
             __size_of___fldiv 0094               __size_of___flmul 00B3               __size_of___flsub 0020  
             __size_of___fltol 006C                       ___flpack 11A1               __size_of___lwdiv 0033  
             __size_of___lwmod 002D                   ??_initialize 007D                       ___lwtofl 1FAA  
              ___lwdiv@divisor 0070                ___lwdiv@counter 0076                       _lcd_font 030A  
                     _lcd_init 114C                       _lcd_send 1472                       _lcd_puts 101E  
                  ??_calibrate 007E                  __size_of_main 0091                    ??_delay10ms 0072  
           __end_of_initialize 1085                      ser_puts@s 0071                       clear_ram 1F61  
                     _ser_init 07E7                       _ser_puts 103F                    ??_lcd_clear 007B  
       __size_of_display_digit 007A                    ??_lcd_putch 0078                       exp@coeff 0691  
        ___flmul@f3_as_product 004B                       log@coeff 06B9    measure_inductance@numerator 00A0  
                  ??_indicator 007B    __end_of_measure_capacitance 0BDF               ___lwmod@dividend 0079  
             display_unit@unit 007B                      stringcode 010A                _display_reading 15BF  
                  ??_ser_putch 0070           delay10ms@period_10ms 0070       _measure_capacitance$8391 00A0  
     _measure_capacitance$8392 00A4       _measure_capacitance$8393 00A8       _measure_capacitance$8394 00AC  
     _measure_capacitance$8395 00B0                ___lwmod@divisor 0077                ___lwmod@counter 007B  
                     stringtab 0100                  _display_digit 0806                   ___fladd@exp1 002A  
                 ___fladd@exp2 0029                   ___fladd@sign 0028  
