

HI-TECH Software PIC PRO Macro Assembler V9.83 build 10920 
                                                                                               Fri Aug 30 16:43:54 2019

HI-TECH Software Omniscient Code Generator (PRO mode) build 10920
     1                           	processor	16F876A
     2                           	opt	pw 120
     3                           	opt	pm
     4                           	psect	config,global,class=CONFIG,delta=2
     5                           	psect	idataBANK0,global,class=CODE,delta=2
     6                           	psect	strings,global,class=STRING,delta=2
     7                           	psect	nvBANK3,global,class=BANK3,space=1,delta=1
     8                           	psect	cinit,global,class=CODE,delta=2
     9                           	psect	bssCOMMON,global,class=COMMON,space=1,delta=1
    10                           	psect	dataBANK0,global,class=BANK0,space=1,delta=1
    11                           	psect	bssBANK1,global,class=BANK1,space=1,delta=1
    12                           	psect	bssBANK3,global,class=BANK3,space=1,delta=1
    13                           	psect	clrtext,global,class=CODE,delta=2
    14                           	psect	cstackBANK3,global,class=BANK3,space=1,delta=1
    15                           	psect	cstackBANK1,global,class=BANK1,space=1,delta=1
    16                           	psect	cstackCOMMON,global,class=COMMON,space=1,delta=1
    17                           	psect	cstackBANK0,global,class=BANK0,space=1,delta=1
    18                           	psect	maintext,global,class=CODE,delta=2
    19                           	psect	text1118,local,class=CODE,delta=2
    20                           	psect	text1124,local,class=CODE,delta=2
    21                           	psect	text1125,local,class=CODE,delta=2
    22                           	psect	text1127,local,class=CODE,delta=2
    23                           	psect	text1138,local,class=CODE,delta=2
    24                           	psect	text1140,local,class=CODE,delta=2
    25                           	psect	text1150,local,class=CODE,delta=2
    26                           	psect	text1151,local,class=CODE,delta=2
    27                           	psect	text1152,local,class=CODE,delta=2
    28                           	psect	text1153,local,class=CODE,delta=2
    29                           	psect	text1155,local,class=CODE,delta=2
    30                           	psect	intentry,global,class=CODE,delta=2
    31                           	psect	functab,global,reloc=256,class=CODE,delta=2
    32                           	psect	pa_nodes,global,class=CODE,delta=2
    33                           	dabs	1,0x7E,2
    34  000A                     	;#
    35                           
    36                           	psect	config
    37  2007  FF72               	dw	65394	;#
    38                           
    39                           	psect	idataBANK0
    40  0000                     __pidataBANK0:	
    41                           
    42                           	psect	strings
    43  1800                     __pstrings:	
    44  1800                     stringtab:	
    45                           ;	global	stringdir,stringtab,__stringbase
    46                           
    47  1800                     stringcode:	
    48                           ;	String table - string pointers are 1 byte each
    49                           
    50  1800                     stringdir:	
    51  1800  3018               	movlw	high stringdir
    52  1801  008A               	movwf	10
    53  1802  0804               	movf	4,w
    54  1803  0A84               	incf	4,f
    55  1804  0782               	addwf	2,f
    56  1805                     __stringbase:	
    57  1805  3400               	retlw	0
    58  1806                     exp@coeff:	
    59  1806  3400               	retlw	0
    60  1807  3400               	retlw	0
    61  1808  3480               	retlw	128
    62  1809  343F               	retlw	63
    63  180A  3418               	retlw	24
    64  180B  3472               	retlw	114
    65  180C  3431               	retlw	49
    66  180D  343F               	retlw	63
    67  180E  34F0               	retlw	240
    68  180F  34FD               	retlw	253
    69  1810  3475               	retlw	117
    70  1811  343E               	retlw	62
    71  1812  3447               	retlw	71
    72  1813  3458               	retlw	88
    73  1814  3463               	retlw	99
    74  1815  343D               	retlw	61
    75  1816  3458               	retlw	88
    76  1817  3495               	retlw	149
    77  1818  341D               	retlw	29
    78  1819  343C               	retlw	60
    79  181A  3482               	retlw	130
    80  181B  34C4               	retlw	196
    81  181C  34AE               	retlw	174
    82  181D  343A               	retlw	58
    83  181E  34A8               	retlw	168
    84  181F  3478               	retlw	120
    85  1820  3421               	retlw	33
    86  1821  3439               	retlw	57
    87  1822  34EF               	retlw	239
    88  1823  3493               	retlw	147
    89  1824  3480               	retlw	128
    90  1825  3437               	retlw	55
    91  1826  34A0               	retlw	160
    92  1827  3492               	retlw	146
    93  1828  34A7               	retlw	167
    94  1829  3435               	retlw	53
    95  182A  3446               	retlw	70
    96  182B  3456               	retlw	86
    97  182C  3415               	retlw	21
    98  182D  3434               	retlw	52
    99  182E                     log@coeff:	
   100  182E  3400               	retlw	0
   101  182F  3400               	retlw	0
   102  1830  3400               	retlw	0
   103  1831  3400               	retlw	0
   104  1832  34C4               	retlw	196
   105  1833  34FF               	retlw	255
   106  1834  347F               	retlw	127
   107  1835  343F               	retlw	63
   108  1836  3480               	retlw	128
   109  1837  34EF               	retlw	239
   110  1838  34FF               	retlw	255
   111  1839  34BE               	retlw	190
   112  183A  3490               	retlw	144
   113  183B  34E1               	retlw	225
   114  183C  34A9               	retlw	169
   115  183D  343E               	retlw	62
   116  183E  34EC               	retlw	236
   117  183F  3482               	retlw	130
   118  1840  3476               	retlw	118
   119  1841  34BE               	retlw	190
   120  1842  3482               	retlw	130
   121  1843  34AD               	retlw	173
   122  1844  342B               	retlw	43
   123  1845  343E               	retlw	62
   124  1846  340E               	retlw	14
   125  1847  343C               	retlw	60
   126  1848  34C3               	retlw	195
   127  1849  34BD               	retlw	189
   128  184A  3487               	retlw	135
   129  184B  34D1               	retlw	209
   130  184C  3413               	retlw	19
   131  184D  343D               	retlw	61
   132  184E  3441               	retlw	65
   133  184F  3478               	retlw	120
   134  1850  34D3               	retlw	211
   135  1851  34BB               	retlw	187
   136  1852                     STR_8:	
   137  1852  340D               	retlw	13
   138  1853  340A               	retlw	10
   139  1854  3443               	retlw	67	;'C'
   140  1855  3443               	retlw	67	;'C'
   141  1856  3461               	retlw	97	;'a'
   142  1857  346C               	retlw	108	;'l'
   143  1858  343D               	retlw	61	;'='
   144  1859  3400               	retlw	0
   145  185A                     STR_1:	
   146  185A  342E               	retlw	46	;'.'
   147  185B  342E               	retlw	46	;'.'
   148  185C  342E               	retlw	46	;'.'
   149  185D  340D               	retlw	13
   150  185E  340A               	retlw	10
   151  185F  3400               	retlw	0
   152  1860                     STR_5:	
   153  1860  340D               	retlw	13
   154  1861  340A               	retlw	10
   155  1862  3446               	retlw	70	;'F'
   156  1863  3431               	retlw	49	;'1'
   157  1864  343D               	retlw	61	;'='
   158  1865  3400               	retlw	0
   159  1866                     STR_6:	
   160  1866  340D               	retlw	13
   161  1867  340A               	retlw	10
   162  1868  3446               	retlw	70	;'F'
   163  1869  3432               	retlw	50	;'2'
   164  186A  343D               	retlw	61	;'='
   165  186B  3400               	retlw	0
   166  186C                     STR_7:	
   167  186C  340D               	retlw	13
   168  186D  340A               	retlw	10
   169  186E  3446               	retlw	70	;'F'
   170  186F  3433               	retlw	51	;'3'
   171  1870  343D               	retlw	61	;'='
   172  1871  3400               	retlw	0
   173  1872                     STR_10:	
   174  1872  3443               	retlw	67	;'C'
   175  1873  3469               	retlw	105	;'i'
   176  1874  346E               	retlw	110	;'n'
   177  1875  343D               	retlw	61	;'='
   178  1876  3400               	retlw	0
   179  1877                     STR_4:	
   180  1877  3476               	retlw	118	;'v'
   181  1878  3461               	retlw	97	;'a'
   182  1879  3472               	retlw	114	;'r'
   183  187A  343D               	retlw	61	;'='
   184  187B  3400               	retlw	0
   185  185D                     
   186                           	psect	nvBANK3
   187  01D7                     __pnvBANK3:	
   188  01D7                     _CCal:	
   189  01D7                     	ds	4
   190  01DB                     _bres:	
   191  01DB                     	ds	2
   192  01DD                     _msecpart:	
   193  01DD                     	ds	2
   194  001A                     _RCREG	set	26
   195  0001                     _TMR0	set	1
   196  0011                     _TMR2	set	17
   197  0019                     _TXREG	set	25
   198  00C4                     _CREN	set	196
   199  005F                     _GIE	set	95
   200  005E                     _PEIE	set	94
   201  003B                     _RC3	set	59
   202  003C                     _RC4	set	60
   203  003D                     _RC5	set	61
   204  003F                     _RC7	set	63
   205  0065                     _RCIF	set	101
   206  00C6                     _RX9	set	198
   207  00C7                     _SPEN	set	199
   208  00A5                     _SSPEN	set	165
   209  0090                     _T2CKPS0	set	144
   210  0091                     _T2CKPS1	set	145
   211  005A                     _TMR0IF	set	90
   212  0061                     _TMR2IF	set	97
   213  0092                     _TMR2ON	set	146
   214  0093                     _TOUTPS0	set	147
   215  0094                     _TOUTPS1	set	148
   216  0095                     _TOUTPS2	set	149
   217  0064                     _TXIF	set	100
   218  009C                     _CMCON	set	156
   219  0099                     _SPBRG	set	153
   220  0085                     _TRISA	set	133
   221  0087                     _TRISC	set	135
   222  04C2                     _BRGH	set	1218
   223  04C4                     _SYNC	set	1220
   224  040D                     _T0CS	set	1037
   225  040C                     _T0SE	set	1036
   226  0461                     _TMR2IE	set	1121
   227  0438                     _TRISC0	set	1080
   228  0439                     _TRISC1	set	1081
   229  043A                     _TRISC2	set	1082
   230  043B                     _TRISC3	set	1083
   231  043C                     _TRISC4	set	1084
   232  043D                     _TRISC5	set	1085
   233  043E                     _TRISC6	set	1086
   234  04C6                     _TX9	set	1222
   235  04C5                     _TXEN	set	1221
   236  0464                     _TXIE	set	1124
   237  040F                     _nRBPU	set	1039
   238                           
   239                           	psect	cinit
   240  085E                     start_initialization:	
   241                           
   242                           ; Clear objects allocated to COMMON
   243  085E  01F8               	clrf	__pbssCOMMON& (0+127)
   244  085F  01F9               	clrf	(__pbssCOMMON+1)& (0+127)
   245  0860  01FA               	clrf	(__pbssCOMMON+2)& (0+127)
   246                           
   247                           ; Clear objects allocated to BANK1
   248  0861  1383               	bcf	3,7	;select IRP bank0
   249  0862  30E6               	movlw	low __pbssBANK1
   250  0863  0084               	movwf	4
   251  0864  30EE               	movlw	low (__pbssBANK1+8)
   252  0865  120A  118A  27EF   	fcall	clear_ram
      +       120A  158A         
   253                           
   254                           ; Clear objects allocated to BANK3
   255  086A  1783               	bsf	3,7	;select IRP bank2
   256  086B  3090               	movlw	low __pbssBANK3
   257  086C  0084               	movwf	4
   258  086D  30C4               	movlw	low (__pbssBANK3+52)
   259  086E  120A  118A  27EF   	fcall	clear_ram
   260                           
   261                           ;initializer for _putchar_ptr
   262  0871  3007               	movlw	(fp__format_putchar-fpbase)& (0+255)
   263  0872  00EF               	movwf	__pdataBANK0& (0+127)
   264  0873                     end_of_initialization:	
   265                           ;End of C runtime variable initialization code
   266                           
   267  0873  0183               	clrf	3
   268  0874  120A  158A  2877   	ljmp	_main	;jump to C main() function
   269                           
   270                           	psect	bssCOMMON
   271  0078                     __pbssCOMMON:	
   272  0078                     _rxiptr:	
   273  0078                     	ds	1
   274  0079                     _txiptr:	
   275  0079                     	ds	1
   276  007A                     _txoptr:	
   277  007A                     	ds	1
   278                           
   279                           	psect	dataBANK0
   280  006F                     __pdataBANK0:	
   281  006F                     _putchar_ptr:	
   282  006F                     	ds	1
   283                           
   284                           	psect	bssBANK1
   285  00E6                     __pbssBANK1:	
   286  00E6                     _timer1of:	
   287  00E6                     	ds	4
   288  00EA                     _blink:	
   289  00EA                     	ds	2
   290  00EC                     _rxoptr:	
   291  00EC                     	ds	1
   292  00ED                     _ser_tmp:	
   293  00ED                     	ds	1
   294                           
   295                           	psect	bssBANK3
   296  0190                     __pbssBANK3:	
   297  0190                     _rxfifo:	
   298  0190                     	ds	16
   299  01A0                     _txfifo:	
   300  01A0                     	ds	16
   301  01B0                     _F2:	
   302  01B0                     	ds	4
   303  01B4                     _F3:	
   304  01B4                     	ds	4
   305  01B8                     _msecs:	
   306  01B8                     	ds	4
   307  01BC                     _seconds:	
   308  01BC                     	ds	4
   309  01C0                     _F1:	
   310  01C0                     	ds	4
   311                           
   312                           	psect	clrtext
   313  07EF                     clear_ram:	
   314                           ;	Called with FSR containing the base address, and
   315                           ;	W with the last address+1
   316                           
   317  07EF  0064               	clrwdt	;clear the watchdog before getting into this loop
   318  07F0                     clrloop:	
   319  07F0  0180               	clrf	0	;clear RAM location pointed to by FSR
   320  07F1  0A84               	incf	4,f	;increment pointer
   321  07F2  0604               	xorwf	4,w	;XOR with final address
   322  07F3  1903               	btfsc	3,2	;have we reached the end yet?
   323  07F4  3400               	retlw	0	;all done for this memory range, return
   324  07F5  0604               	xorwf	4,w	;XOR again to restore value
   325  07F6  2FF0               	goto	clrloop	;do the next byte
   326                           
   327                           	psect	cstackBANK3
   328  01C4                     __pcstackBANK3:	
   329  01C4                     _measure_capacitance$5199:	
   330                           
   331                           ; 4 bytes @ 0x0
   332  01C4                     	ds	4
   333  01C8                     _measure_capacitance$5200:	
   334                           
   335                           ; 4 bytes @ 0x4
   336  01C8                     	ds	4
   337  01CC                     _measure_capacitance$5201:	
   338                           
   339                           ; 4 bytes @ 0x8
   340  01CC                     	ds	4
   341  01D0                     measure_capacitance@unit:	
   342                           
   343                           ; 1 bytes @ 0xC
   344  01D0                     	ds	1
   345  01D1                     measure_capacitance@var:	
   346                           
   347                           ; 2 bytes @ 0xD
   348  01D1                     	ds	2
   349  01D3                     measure_capacitance@Cin:	
   350                           
   351                           ; 4 bytes @ 0xF
   352  01D3                     	ds	4
   353                           
   354                           	psect	cstackBANK1
   355  00A0                     __pcstackBANK1:	
   356  00A0                     measure_inductance@numerator:	
   357  00A0                     floor@i:	
   358                           ; 4 bytes @ 0x0
   359                           
   360  00A0                     _ldexp$4679:	
   361                           ; 4 bytes @ 0x0
   362                           
   363                           
   364                           ; 4 bytes @ 0x0
   365  00A0                     	ds	4
   366  00A4                     ?_eval_poly:	
   367  00A4                     floor@expon:	
   368                           ; 4 bytes @ 0x4
   369                           
   370  00A4                     measure_inductance@denominator:	
   371                           ; 2 bytes @ 0x4
   372                           
   373  00A4                     eval_poly@x:	
   374                           ; 4 bytes @ 0x4
   375                           
   376                           
   377                           ; 4 bytes @ 0x4
   378  00A4                     	ds	4
   379  00A8                     eval_poly@d:	
   380  00A8                     _measure_inductance$5204:	
   381                           ; 1 bytes @ 0x8
   382                           
   383                           
   384                           ; 4 bytes @ 0x8
   385  00A8                     	ds	1
   386  00A9                     eval_poly@n:	
   387                           
   388                           ; 2 bytes @ 0x9
   389  00A9                     	ds	2
   390  00AB                     ??_eval_poly:	
   391                           
   392                           ; 0 bytes @ 0xB
   393  00AB                     	ds	1
   394  00AC                     _measure_inductance$5205:	
   395                           
   396                           ; 4 bytes @ 0xC
   397  00AC                     	ds	4
   398  00B0                     eval_poly@res:	
   399  00B0                     _measure_inductance$5206:	
   400                           ; 4 bytes @ 0x10
   401                           
   402                           
   403                           ; 4 bytes @ 0x10
   404  00B0                     	ds	4
   405  00B4                     ?_log:	
   406  00B4                     log@x:	
   407                           ; 4 bytes @ 0x14
   408                           
   409  00B4                     _measure_inductance$5207:	
   410                           ; 4 bytes @ 0x14
   411                           
   412                           
   413                           ; 4 bytes @ 0x14
   414  00B4                     	ds	4
   415  00B8                     measure_inductance@unit:	
   416  00B8                     log@exp:	
   417                           ; 1 bytes @ 0x18
   418                           
   419                           
   420                           ; 2 bytes @ 0x18
   421  00B8                     	ds	1
   422  00B9                     _measure_inductance$5202:	
   423                           
   424                           ; 4 bytes @ 0x19
   425  00B9                     	ds	1
   426  00BA                     ?_log10:	
   427  00BA                     ?_exp:	
   428                           ; 4 bytes @ 0x1A
   429                           
   430  00BA                     log10@x:	
   431                           ; 4 bytes @ 0x1A
   432                           
   433  00BA                     exp@x:	
   434                           ; 4 bytes @ 0x1A
   435                           
   436                           
   437                           ; 4 bytes @ 0x1A
   438  00BA                     	ds	3
   439  00BD                     _measure_inductance$5203:	
   440                           
   441                           ; 4 bytes @ 0x1D
   442  00BD                     	ds	1
   443  00BE                     _exp$4863:	
   444  00BE                     _log10$5208:	
   445                           ; 4 bytes @ 0x1E
   446                           
   447                           
   448                           ; 4 bytes @ 0x1E
   449  00BE                     	ds	3
   450  00C1                     measure_inductance@var:	
   451                           
   452                           ; 2 bytes @ 0x21
   453  00C1                     	ds	1
   454  00C2                     exp@exp:	
   455                           
   456                           ; 2 bytes @ 0x22
   457  00C2                     	ds	1
   458  00C3                     measure_inductance@Lin:	
   459                           
   460                           ; 4 bytes @ 0x23
   461  00C3                     	ds	1
   462  00C4                     exp@sign:	
   463                           
   464                           ; 1 bytes @ 0x24
   465  00C4                     	ds	1
   466  00C5                     ?_pow:	
   467  00C5                     pow@x:	
   468                           ; 4 bytes @ 0x25
   469                           
   470                           
   471                           ; 4 bytes @ 0x25
   472  00C5                     	ds	4
   473  00C9                     pow@y:	
   474                           
   475                           ; 4 bytes @ 0x29
   476  00C9                     	ds	4
   477  00CD                     _pow$5209:	
   478                           
   479                           ; 4 bytes @ 0x2D
   480  00CD                     	ds	4
   481  00D1                     pow@sign:	
   482                           
   483                           ; 1 bytes @ 0x31
   484  00D1                     	ds	1
   485  00D2                     pow@yi:	
   486                           
   487                           ; 4 bytes @ 0x32
   488  00D2                     	ds	4
   489  00D6                     ?_format_double:	
   490  00D6                     format_double@num:	
   491                           ; 0 bytes @ 0x36
   492                           
   493                           
   494                           ; 4 bytes @ 0x36
   495  00D6                     	ds	4
   496  00DA                     _format_double$5198:	
   497                           
   498                           ; 4 bytes @ 0x3A
   499  00DA                     	ds	4
   500  00DE                     format_double@weight:	
   501                           
   502                           ; 4 bytes @ 0x3E
   503  00DE                     	ds	4
   504  00E2                     format_double@digit:	
   505                           
   506                           ; 2 bytes @ 0x42
   507  00E2                     	ds	2
   508  00E4                     format_double@m:	
   509                           
   510                           ; 2 bytes @ 0x44
   511  00E4                     	ds	2
   512                           
   513                           	psect	cstackCOMMON
   514  0071                     __pcstackCOMMON:	
   515  0071                     ?_calibrate:	
   516  0071                     ?_measure_capacitance:	
   517                           ; 0 bytes @ 0x0
   518                           
   519  0071                     ?_measure_inductance:	
   520                           ; 0 bytes @ 0x0
   521                           
   522  0071                     ?_print_unit:	
   523                           ; 0 bytes @ 0x0
   524                           
   525  0071                     ?_indicator:	
   526                           ; 0 bytes @ 0x0
   527                           
   528  0071                     ?_ser_puts:	
   529                           ; 0 bytes @ 0x0
   530                           
   531  0071                     ?_ser_init:	
   532                           ; 0 bytes @ 0x0
   533                           
   534  0071                     ?_timer2_init:	
   535                           ; 0 bytes @ 0x0
   536                           
   537  0071                     ??_isr:	
   538                           ; 0 bytes @ 0x0
   539                           
   540  0071                     ?_main:	
   541                           ; 0 bytes @ 0x0
   542                           
   543  0071                     ?_isr:	
   544                           ; 0 bytes @ 0x0
   545                           
   546                           
   547                           ; 2 bytes @ 0x0
   548  0071                     	ds	3
   549  0074                     ??_frexp:	
   550  0074                     ??___flpack:	
   551                           ; 0 bytes @ 0x3
   552                           
   553  0074                     ??_print_unit:	
   554                           ; 0 bytes @ 0x3
   555                           
   556  0074                     ?_print_reading:	
   557                           ; 0 bytes @ 0x3
   558                           
   559  0074                     ??_indicator:	
   560                           ; 0 bytes @ 0x3
   561                           
   562  0074                     ??_ser_init:	
   563                           ; 0 bytes @ 0x3
   564                           
   565  0074                     ??_timer2_init:	
   566                           ; 0 bytes @ 0x3
   567                           
   568  0074                     ??___flge:	
   569                           ; 0 bytes @ 0x3
   570                           
   571  0074                     ?_measure_freq:	
   572                           ; 0 bytes @ 0x3
   573                           
   574  0074                     ?___wmul:	
   575                           ; 2 bytes @ 0x3
   576                           
   577  0074                     ?___lwdiv:	
   578                           ; 2 bytes @ 0x3
   579                           
   580  0074                     ?___lwmod:	
   581                           ; 2 bytes @ 0x3
   582                           
   583  0074                     ?___flneg:	
   584                           ; 2 bytes @ 0x3
   585                           
   586  0074                     print_reading@measurement:	
   587                           ; 4 bytes @ 0x3
   588                           
   589  0074                     ___wmul@multiplier:	
   590                           ; 2 bytes @ 0x3
   591                           
   592  0074                     ___lwdiv@divisor:	
   593                           ; 2 bytes @ 0x3
   594                           
   595  0074                     ___lwmod@divisor:	
   596                           ; 2 bytes @ 0x3
   597                           
   598  0074                     ___flneg@f1:	
   599                           ; 2 bytes @ 0x3
   600                           
   601                           
   602                           ; 4 bytes @ 0x3
   603  0074                     	ds	1
   604  0075                     ??_ser_putch:	
   605  0075                     ??_ser_puts:	
   606                           ; 0 bytes @ 0x4
   607                           
   608  0075                     ser_puts@s:	
   609                           ; 0 bytes @ 0x4
   610                           
   611  0075                     timer2_init@ps_mode:	
   612                           ; 1 bytes @ 0x4
   613                           
   614                           
   615                           ; 1 bytes @ 0x4
   616  0075                     	ds	1
   617  0076                     ??_print_reading:	
   618  0076                     ?_ser_putch:	
   619                           ; 0 bytes @ 0x5
   620                           
   621  0076                     ?_format_putchar:	
   622                           ; 0 bytes @ 0x5
   623                           
   624  0076                     ??_format_putchar:	
   625                           ; 0 bytes @ 0x5
   626                           
   627  0076                     ?_output_putch:	
   628                           ; 0 bytes @ 0x5
   629                           
   630  0076                     ser_putch@c:	
   631                           ; 0 bytes @ 0x5
   632                           
   633  0076                     timer2_init@ps:	
   634                           ; 1 bytes @ 0x5
   635                           
   636  0076                     format_putchar@c:	
   637                           ; 1 bytes @ 0x5
   638                           
   639  0076                     output_putch@c:	
   640                           ; 1 bytes @ 0x5
   641                           
   642  0076                     ___wmul@multiplicand:	
   643                           ; 1 bytes @ 0x5
   644                           
   645  0076                     ___lwdiv@dividend:	
   646                           ; 2 bytes @ 0x5
   647                           
   648  0076                     ___lwmod@dividend:	
   649                           ; 2 bytes @ 0x5
   650                           
   651                           
   652                           ; 2 bytes @ 0x5
   653  0076                     	ds	1
   654  0077                     ??_output_putch:	
   655                           
   656                           ; 0 bytes @ 0x6
   657  0077                     	ds	1
   658  0078                     ??_log10:	
   659  0078                     ??_pow:	
   660                           ; 0 bytes @ 0x7
   661                           
   662  0078                     ??_floor:	
   663                           ; 0 bytes @ 0x7
   664                           
   665  0078                     ??_calibrate:	
   666                           ; 0 bytes @ 0x7
   667                           
   668  0078                     ??_measure_capacitance:	
   669                           ; 0 bytes @ 0x7
   670                           
   671  0078                     ??_measure_inductance:	
   672                           ; 0 bytes @ 0x7
   673                           
   674  0078                     ??_exp:	
   675                           ; 0 bytes @ 0x7
   676                           
   677  0078                     ??_format_xint32:	
   678                           ; 0 bytes @ 0x7
   679                           
   680  0078                     ??_format_double:	
   681                           ; 0 bytes @ 0x7
   682                           
   683  0078                     ??_main:	
   684                           ; 0 bytes @ 0x7
   685                           
   686  0078                     ??_log:	
   687                           ; 0 bytes @ 0x7
   688                           
   689  0078                     ??___wmul:	
   690                           ; 0 bytes @ 0x7
   691                           
   692  0078                     ??___lwdiv:	
   693                           ; 0 bytes @ 0x7
   694                           
   695  0078                     ??___lwmod:	
   696                           ; 0 bytes @ 0x7
   697                           
   698  0078                     ??___flsub:	
   699                           ; 0 bytes @ 0x7
   700                           
   701  0078                     ??___flneg:	
   702                           ; 0 bytes @ 0x7
   703                           
   704  0078                     ??___awtofl:	
   705                           ; 0 bytes @ 0x7
   706                           
   707  0078                     ??___lwtofl:	
   708                           ; 0 bytes @ 0x7
   709                           
   710  0078                     ??___altofl:	
   711                           ; 0 bytes @ 0x7
   712                           
   713  0078                     ??___lltofl:	
   714                           ; 0 bytes @ 0x7
   715                           
   716                           
   717                           	psect	cstackBANK0
   718  0020                     __pcstackBANK0:	
   719                           ; 0 bytes @ 0x7
   720                           
   721  0020                     ??_measure_freq:	
   722  0020                     ?___flge:	
   723                           ; 0 bytes @ 0x0
   724                           
   725  0020                     ?_frexp:	
   726                           ; 1 bit 
   727                           
   728  0020                     ?___flpack:	
   729                           ; 4 bytes @ 0x0
   730                           
   731  0020                     ___lwdiv@counter:	
   732                           ; 4 bytes @ 0x0
   733                           
   734  0020                     ___lwmod@counter:	
   735                           ; 1 bytes @ 0x0
   736                           
   737  0020                     ___wmul@product:	
   738                           ; 1 bytes @ 0x0
   739                           
   740  0020                     frexp@value:	
   741                           ; 2 bytes @ 0x0
   742                           
   743  0020                     ___flge@ff1:	
   744                           ; 4 bytes @ 0x0
   745                           
   746  0020                     ___flpack@arg:	
   747                           ; 4 bytes @ 0x0
   748                           
   749                           
   750                           ; 4 bytes @ 0x0
   751  0020                     	ds	1
   752  0021                     ___lwdiv@quotient:	
   753                           
   754                           ; 2 bytes @ 0x1
   755  0021                     	ds	1
   756  0022                     ?_delay10ms:	
   757  0022                     delay10ms@period_10ms:	
   758                           ; 0 bytes @ 0x2
   759                           
   760                           
   761                           ; 2 bytes @ 0x2
   762  0022                     	ds	1
   763  0023                     ?_format_number:	
   764  0023                     format_number@n:	
   765                           ; 0 bytes @ 0x3
   766                           
   767                           
   768                           ; 2 bytes @ 0x3
   769  0023                     	ds	1
   770  0024                     ??_delay10ms:	
   771  0024                     measure_freq@prev:	
   772                           ; 0 bytes @ 0x4
   773                           
   774  0024                     frexp@eptr:	
   775                           ; 1 bytes @ 0x4
   776                           
   777  0024                     ___flpack@exp:	
   778                           ; 1 bytes @ 0x4
   779                           
   780  0024                     ___flge@ff2:	
   781                           ; 1 bytes @ 0x4
   782                           
   783                           
   784                           ; 4 bytes @ 0x4
   785  0024                     	ds	1
   786  0025                     format_number@base:	
   787  0025                     measure_freq@i:	
   788                           ; 1 bytes @ 0x5
   789                           
   790  0025                     ___flpack@sign:	
   791                           ; 1 bytes @ 0x5
   792                           
   793                           
   794                           ; 1 bytes @ 0x5
   795  0025                     	ds	1
   796  0026                     ?___lltofl:	
   797  0026                     format_number@pad:	
   798                           ; 4 bytes @ 0x6
   799                           
   800  0026                     measure_freq@count:	
   801                           ; 1 bytes @ 0x6
   802                           
   803  0026                     ___lltofl@c:	
   804                           ; 2 bytes @ 0x6
   805                           
   806                           
   807                           ; 4 bytes @ 0x6
   808  0026                     	ds	1
   809  0027                     ??_format_number:	
   810                           
   811                           ; 0 bytes @ 0x7
   812  0027                     	ds	1
   813  0028                     ?___fltol:	
   814  0028                     ?___lwtofl:	
   815                           ; 4 bytes @ 0x8
   816                           
   817  0028                     ___lwtofl@c:	
   818                           ; 4 bytes @ 0x8
   819                           
   820  0028                     delay10ms@ms:	
   821                           ; 2 bytes @ 0x8
   822                           
   823  0028                     ___fltol@f1:	
   824                           ; 4 bytes @ 0x8
   825                           
   826  0028                     format_number@buf:	
   827                           ; 4 bytes @ 0x8
   828                           
   829                           
   830                           ; 32 bytes @ 0x8
   831  0028                     	ds	4
   832  002C                     ??___fltol:	
   833  002C                     delay10ms@run:	
   834                           ; 0 bytes @ 0xC
   835                           
   836                           
   837                           ; 1 bytes @ 0xC
   838  002C                     	ds	4
   839  0030                     ___fltol@sign1:	
   840                           
   841                           ; 1 bytes @ 0x10
   842  0030                     	ds	1
   843  0031                     ___fltol@exp1:	
   844                           
   845                           ; 1 bytes @ 0x11
   846  0031                     	ds	1
   847  0032                     ?___fldiv:	
   848  0032                     ?___awtofl:	
   849                           ; 4 bytes @ 0x12
   850                           
   851  0032                     ?___altofl:	
   852                           ; 4 bytes @ 0x12
   853                           
   854  0032                     ___awtofl@c:	
   855                           ; 4 bytes @ 0x12
   856                           
   857  0032                     ___fldiv@f2:	
   858                           ; 2 bytes @ 0x12
   859                           
   860  0032                     ___altofl@c:	
   861                           ; 4 bytes @ 0x12
   862                           
   863                           
   864                           ; 4 bytes @ 0x12
   865  0032                     	ds	4
   866  0036                     ___awtofl@sign:	
   867  0036                     ___altofl@sign:	
   868                           ; 1 bytes @ 0x16
   869                           
   870  0036                     ___fldiv@f1:	
   871                           ; 1 bytes @ 0x16
   872                           
   873                           
   874                           ; 4 bytes @ 0x16
   875  0036                     	ds	4
   876  003A                     ??___fldiv:	
   877                           
   878                           ; 0 bytes @ 0x1A
   879  003A                     	ds	4
   880  003E                     ___fldiv@f3:	
   881                           
   882                           ; 4 bytes @ 0x1E
   883  003E                     	ds	4
   884  0042                     ___fldiv@cntr:	
   885                           
   886                           ; 1 bytes @ 0x22
   887  0042                     	ds	1
   888  0043                     ___fldiv@exp:	
   889                           
   890                           ; 1 bytes @ 0x23
   891  0043                     	ds	1
   892  0044                     ___fldiv@sign:	
   893                           
   894                           ; 1 bytes @ 0x24
   895  0044                     	ds	1
   896  0045                     ?___flmul:	
   897  0045                     ___flmul@f1:	
   898                           ; 4 bytes @ 0x25
   899                           
   900                           
   901                           ; 4 bytes @ 0x25
   902  0045                     	ds	3
   903  0048                     format_number@padchar:	
   904                           
   905                           ; 1 bytes @ 0x28
   906  0048                     	ds	1
   907  0049                     _format_number$3434:	
   908  0049                     ___flmul@f2:	
   909                           ; 2 bytes @ 0x29
   910                           
   911                           
   912                           ; 4 bytes @ 0x29
   913  0049                     	ds	2
   914  004B                     format_number@di:	
   915                           
   916                           ; 1 bytes @ 0x2B
   917  004B                     	ds	1
   918  004C                     format_number@i:	
   919                           
   920                           ; 1 bytes @ 0x2C
   921  004C                     	ds	1
   922  004D                     ?_format_xint32:	
   923  004D                     ??___flmul:	
   924                           ; 0 bytes @ 0x2D
   925                           
   926  004D                     format_xint32@x:	
   927                           ; 0 bytes @ 0x2D
   928                           
   929                           
   930                           ; 4 bytes @ 0x2D
   931  004D                     	ds	4
   932  0051                     ___flmul@exp:	
   933                           
   934                           ; 1 bytes @ 0x31
   935  0051                     	ds	1
   936  0052                     ___flmul@f3_as_product:	
   937                           
   938                           ; 4 bytes @ 0x32
   939  0052                     	ds	4
   940  0056                     ___flmul@cntr:	
   941                           
   942                           ; 1 bytes @ 0x36
   943  0056                     	ds	1
   944  0057                     ___flmul@sign:	
   945                           
   946                           ; 1 bytes @ 0x37
   947  0057                     	ds	1
   948  0058                     ?___fladd:	
   949  0058                     ___fladd@f1:	
   950                           ; 4 bytes @ 0x38
   951                           
   952                           
   953                           ; 4 bytes @ 0x38
   954  0058                     	ds	4
   955  005C                     ___fladd@f2:	
   956                           
   957                           ; 4 bytes @ 0x3C
   958  005C                     	ds	4
   959  0060                     ??___fladd:	
   960                           
   961                           ; 0 bytes @ 0x40
   962  0060                     	ds	4
   963  0064                     ___fladd@sign:	
   964                           
   965                           ; 1 bytes @ 0x44
   966  0064                     	ds	1
   967  0065                     ___fladd@exp2:	
   968                           
   969                           ; 1 bytes @ 0x45
   970  0065                     	ds	1
   971  0066                     ___fladd@exp1:	
   972                           
   973                           ; 1 bytes @ 0x46
   974  0066                     	ds	1
   975  0067                     ?_floor:	
   976  0067                     ?_ldexp:	
   977                           ; 4 bytes @ 0x47
   978                           
   979  0067                     ?___flsub:	
   980                           ; 4 bytes @ 0x47
   981                           
   982  0067                     floor@x:	
   983                           ; 4 bytes @ 0x47
   984                           
   985  0067                     ldexp@value:	
   986                           ; 4 bytes @ 0x47
   987                           
   988  0067                     ___flsub@f2:	
   989                           ; 4 bytes @ 0x47
   990                           
   991                           
   992                           ; 4 bytes @ 0x47
   993  0067                     	ds	4
   994  006B                     ldexp@newexp:	
   995  006B                     ___flsub@f1:	
   996                           ; 2 bytes @ 0x4B
   997                           
   998                           
   999                           ; 4 bytes @ 0x4B
  1000  006B                     	ds	2
  1001  006D                     ??_ldexp:	
  1002                           
  1003                           ; 0 bytes @ 0x4D
  1004  006D                     	ds	2
  1005                           
  1006                           	psect	maintext
  1007  0877                     __pmaintext:	
  1008 ;;Data sizes: Strings 42, constant 76, data 1, bss 63, persistent 8 stack 0
  1009 ;;Auto spaces:   Size  Autos    Used
  1010 ;; COMMON          13      7      10
  1011 ;; BANK0           80     79      80
  1012 ;; BANK1           80     70      78
  1013 ;; BANK3           85     19      79
  1014 ;; BANK2           96      0       0
  1015 ;;
  1016 ;; Pointer list with targets:
  1017 ;; ?___flpack	 size(1) Largest target is 0
  1018 ;;
  1019 ;; ?_ldexp	 size(1) Largest target is 0
  1020 ;;
  1021 ;; ?_exp	 size(1) Largest target is 0
  1022 ;;
  1023 ;; ?___flneg	 size(1) Largest target is 0
  1024 ;;
  1025 ;; ?___lltofl	 size(1) Largest target is 0
  1026 ;;
  1027 ;; ?_log	 size(1) Largest target is 0
  1028 ;;
  1029 ;; ?_eval_poly	 size(1) Largest target is 0
  1030 ;;
  1031 ;; ?___fladd	 size(1) Largest target is 0
  1032 ;;
  1033 ;; ?___altofl	 size(1) Largest target is 0
  1034 ;;
  1035 ;; ?_frexp	 size(1) Largest target is 0
  1036 ;;
  1037 ;; ?___wmul	unsigned int  size(1) Largest target is 0
  1038 ;;
  1039 ;; ?___lwtofl	unsigned int  size(1) Largest target is 0
  1040 ;;
  1041 ;; ?_measure_freq	unsigned int  size(1) Largest target is 0
  1042 ;;
  1043 ;; ?___flsub	unsigned int  size(1) Largest target is 0
  1044 ;;
  1045 ;; ?___flmul	unsigned int  size(1) Largest target is 0
  1046 ;;
  1047 ;; ?___fldiv	unsigned int  size(1) Largest target is 0
  1048 ;;
  1049 ;; ?_floor	unsigned int  size(1) Largest target is 0
  1050 ;;
  1051 ;; ?___awtofl	unsigned int  size(1) Largest target is 0
  1052 ;;
  1053 ;; ?_pow	unsigned int  size(1) Largest target is 0
  1054 ;;
  1055 ;; ?___fltol	long  size(1) Largest target is 0
  1056 ;;
  1057 ;; ?_log10	long  size(1) Largest target is 0
  1058 ;;
  1059 ;; ?___lwdiv	unsigned int  size(1) Largest target is 0
  1060 ;;
  1061 ;; ?___lwmod	unsigned int  size(1) Largest target is 0
  1062 ;;
  1063 ;; eval_poly@d	PTR const  size(1) Largest target is 40
  1064 ;;		 -> exp@coeff(CODE[40]), log@coeff(CODE[36]), 
  1065 ;;
  1066 ;; frexp@eptr	PTR int  size(1) Largest target is 2
  1067 ;;		 -> log@exp(BANK1[2]), floor@expon(BANK1[2]), 
  1068 ;;
  1069 ;; putchar_ptr	PTR FTN(unsigned char ,)void  size(1) Largest target is 0
  1070 ;;		 -> output_putch(), format_putchar(), ser_putch(), 
  1071 ;;
  1072 ;; ser_puts@s	PTR const unsigned char  size(1) Largest target is 8
  1073 ;;		 -> STR_11(CODE[3]), STR_10(CODE[5]), STR_9(CODE[3]), STR_8(CODE[8]), 
  1074 ;;		 -> STR_7(CODE[6]), STR_6(CODE[6]), STR_5(CODE[6]), STR_4(CODE[5]), 
  1075 ;;		 -> STR_3(CODE[3]), STR_2(CODE[3]), STR_1(CODE[6]), 
  1076 ;;
  1077 ;;
  1078 ;; Critical Paths under _main in COMMON
  1079 ;;
  1080 ;;   _main->_timer2_init
  1081 ;;   _measure_capacitance->___flge
  1082 ;;   _format_double->___flge
  1083 ;;   _pow->___flge
  1084 ;;   _pow->___flneg
  1085 ;;   _exp->___flge
  1086 ;;   _exp->___flneg
  1087 ;;   _log->___flge
  1088 ;;   _measure_inductance->___flge
  1089 ;;   _floor->___flge
  1090 ;;   _format_number->___lwmod
  1091 ;;   _format_number->___lwdiv
  1092 ;;   ___lltofl->___flpack
  1093 ;;   ___altofl->___flpack
  1094 ;;   ___lwtofl->___flpack
  1095 ;;   ___awtofl->___flpack
  1096 ;;   ___flmul->___flpack
  1097 ;;   ___fldiv->___flpack
  1098 ;;   ___fladd->___flpack
  1099 ;;   _ldexp->___flge
  1100 ;;   _ldexp->___flneg
  1101 ;;   _delay10ms->___wmul
  1102 ;;   ___fltol->___flge
  1103 ;;   ___fltol->___flpack
  1104 ;;
  1105 ;; Critical Paths under _isr in COMMON
  1106 ;;
  1107 ;;   None.
  1108 ;;
  1109 ;; Critical Paths under _main in BANK0
  1110 ;;
  1111 ;;   _measure_capacitance->___flsub
  1112 ;;   _format_double->___flsub
  1113 ;;   _exp->___flsub
  1114 ;;   _exp->_ldexp
  1115 ;;   _measure_inductance->___flsub
  1116 ;;   _format_xint32->_format_number
  1117 ;;   ___flsub->___fladd
  1118 ;;   _eval_poly->_ldexp
  1119 ;;   _calibrate->_delay10ms
  1120 ;;   _floor->___fladd
  1121 ;;   _format_number->___lwdiv
  1122 ;;   ___lltofl->___flpack
  1123 ;;   ___altofl->___fltol
  1124 ;;   ___lwtofl->_measure_freq
  1125 ;;   ___awtofl->___fltol
  1126 ;;   ___flmul->___fldiv
  1127 ;;   ___fldiv->___fltol
  1128 ;;   ___fladd->___flmul
  1129 ;;   _ldexp->___fladd
  1130 ;;   _delay10ms->___wmul
  1131 ;;   ___fltol->___flge
  1132 ;;
  1133 ;; Critical Paths under _isr in BANK0
  1134 ;;
  1135 ;;   None.
  1136 ;;
  1137 ;; Critical Paths under _main in BANK1
  1138 ;;
  1139 ;;   _measure_capacitance->_format_double
  1140 ;;   _format_double->_pow
  1141 ;;   _pow->_exp
  1142 ;;   _log10->_log
  1143 ;;   _exp->_log
  1144 ;;   _log->_eval_poly
  1145 ;;   _eval_poly->_ldexp
  1146 ;;
  1147 ;; Critical Paths under _isr in BANK1
  1148 ;;
  1149 ;;   None.
  1150 ;;
  1151 ;; Critical Paths under _main in BANK3
  1152 ;;
  1153 ;;   _main->_measure_capacitance
  1154 ;;
  1155 ;; Critical Paths under _isr in BANK3
  1156 ;;
  1157 ;;   None.
  1158 ;;
  1159 ;; Critical Paths under _main in BANK2
  1160 ;;
  1161 ;;   None.
  1162 ;;
  1163 ;; Critical Paths under _isr in BANK2
  1164 ;;
  1165 ;;   None.
  1166 ;;
  1167 ;;Main: autosize = 0, tempsize = 0, incstack = 0, save=0
  1168 ;;
  1169 ;;
  1170 ;;Call Graph Tables:
  1171 ;;
  1172 ;; ---------------------------------------------------------------------------------
  1173 ;; (Depth) Function   	        Calls       Base Space   Used Autos Params    Refs
  1174 ;; ---------------------------------------------------------------------------------
  1175 ;; (0) _main                                                 0     0      0   45426
  1176 ;;                        _timer2_init
  1177 ;;                          _delay10ms
  1178 ;;                           _ser_init
  1179 ;;                          _calibrate
  1180 ;;                           _ser_puts
  1181 ;;                _measure_capacitance
  1182 ;;                 _measure_inductance
  1183 ;;                          _indicator
  1184 ;; ---------------------------------------------------------------------------------
  1185 ;; (1) _measure_capacitance                                 19    19      0   39151
  1186 ;;                                              0 BANK3     19    19      0
  1187 ;;                       _measure_freq
  1188 ;;                           ___lwtofl
  1189 ;;                           _ser_puts
  1190 ;;                      _format_xint32
  1191 ;;                      _format_double
  1192 ;;                          _ser_putch
  1193 ;;                             ___flge
  1194 ;;                            ___flmul
  1195 ;;                            ___flsub
  1196 ;;                            ___fldiv
  1197 ;;                            ___fltol
  1198 ;;                      _print_reading
  1199 ;;                         _print_unit
  1200 ;; ---------------------------------------------------------------------------------
  1201 ;; (2) _format_double                                       16    12      4   33087
  1202 ;;                                             54 BANK1     16    12      4
  1203 ;;                              _log10
  1204 ;;                            ___fltol
  1205 ;;                           ___awtofl
  1206 ;;                                _pow
  1207 ;;                            ___fldiv
  1208 ;;                              _floor
  1209 ;;                            ___flmul
  1210 ;;                            ___flsub
  1211 ;;                       _output_putch
  1212 ;;                     _format_putchar
  1213 ;;                          _ser_putch
  1214 ;;                             ___flge
  1215 ;; ---------------------------------------------------------------------------------
  1216 ;; (3) _pow                                                 17     9      8   18738
  1217 ;;                                             37 BANK1     17     9      8
  1218 ;;                             ___flge
  1219 ;;                            ___fltol
  1220 ;;                           ___lltofl
  1221 ;;                            ___flneg
  1222 ;;                                _log
  1223 ;;                            ___flmul
  1224 ;;                                _exp
  1225 ;; ---------------------------------------------------------------------------------
  1226 ;; (3) _log10                                                8     4      4    6946
  1227 ;;                                             26 BANK1      8     4      4
  1228 ;;                                _log
  1229 ;;                            ___flmul
  1230 ;;                            ___fltol (ARG)
  1231 ;; ---------------------------------------------------------------------------------
  1232 ;; (4) _exp                                                 11     7      4   10618
  1233 ;;                                             26 BANK1     11     7      4
  1234 ;;                             ___flge
  1235 ;;                            ___flneg
  1236 ;;                            ___flmul
  1237 ;;                              _floor
  1238 ;;                            ___fltol
  1239 ;;                           ___awtofl
  1240 ;;                            ___flsub
  1241 ;;                          _eval_poly
  1242 ;;                              _ldexp
  1243 ;;                            ___fldiv
  1244 ;;                                _log (ARG)
  1245 ;; ---------------------------------------------------------------------------------
  1246 ;; (4) _log                                                  6     2      4    6081
  1247 ;;                                             20 BANK1      6     2      4
  1248 ;;                             ___flge
  1249 ;;                              _frexp
  1250 ;;                            ___flmul
  1251 ;;                            ___fladd
  1252 ;;                          _eval_poly
  1253 ;;                           ___awtofl
  1254 ;;                            ___fltol (ARG)
  1255 ;; ---------------------------------------------------------------------------------
  1256 ;; (1) _measure_inductance                                  47    47      0    4924
  1257 ;;                                              0 BANK1     39    39      0
  1258 ;;                       _measure_freq
  1259 ;;                           ___lwtofl
  1260 ;;                             ___flge
  1261 ;;                            ___flsub
  1262 ;;                            ___flmul
  1263 ;;                            ___fldiv
  1264 ;;                            ___fltol
  1265 ;;                      _print_reading
  1266 ;;                         _print_unit
  1267 ;; ---------------------------------------------------------------------------------
  1268 ;; (2) _format_xint32                                        4     0      4    1332
  1269 ;;                                             45 BANK0      4     0      4
  1270 ;;                       _output_putch
  1271 ;;                     _format_putchar
  1272 ;;                          _ser_putch
  1273 ;;                      _format_number
  1274 ;; ---------------------------------------------------------------------------------
  1275 ;; (2) ___flsub                                              8     0      8    1602
  1276 ;;                                             71 BANK0      8     0      8
  1277 ;;                            ___fladd
  1278 ;;                            ___flmul (ARG)
  1279 ;;                           ___awtofl (ARG)
  1280 ;; ---------------------------------------------------------------------------------
  1281 ;; (5) _eval_poly                                           16     9      7    2591
  1282 ;;                                              4 BANK1     16     9      7
  1283 ;;                            ___flmul
  1284 ;;                            ___fladd
  1285 ;;                            ___fltol (ARG)
  1286 ;;                              _ldexp (ARG)
  1287 ;; ---------------------------------------------------------------------------------
  1288 ;; (1) _calibrate                                            1     1      0     886
  1289 ;;                       _measure_freq
  1290 ;;                           ___lwtofl
  1291 ;;                          _delay10ms
  1292 ;;                           _ser_puts
  1293 ;; ---------------------------------------------------------------------------------
  1294 ;; (3) _floor                                               10     6      4    3037
  1295 ;;                                             71 BANK0      4     0      4
  1296 ;;                                              0 BANK1      6     6      0
  1297 ;;                              _frexp
  1298 ;;                             ___flge
  1299 ;;                            ___fltol
  1300 ;;                           ___altofl
  1301 ;;                            ___fladd
  1302 ;;                            ___fldiv (ARG)
  1303 ;; ---------------------------------------------------------------------------------
  1304 ;; (3) _format_number                                       42    38      4    1204
  1305 ;;                                              3 BANK0     42    38      4
  1306 ;;                            ___lwmod
  1307 ;;                            ___lwdiv
  1308 ;;                       _output_putch
  1309 ;;                     _format_putchar
  1310 ;;                          _ser_putch
  1311 ;; ---------------------------------------------------------------------------------
  1312 ;; (4) ___lltofl                                             4     0      4     343
  1313 ;;                                              6 BANK0      4     0      4
  1314 ;;                           ___flpack
  1315 ;; ---------------------------------------------------------------------------------
  1316 ;; (4) ___altofl                                             5     1      4     445
  1317 ;;                                             18 BANK0      5     1      4
  1318 ;;                           ___flpack
  1319 ;;                            ___fltol (ARG)
  1320 ;; ---------------------------------------------------------------------------------
  1321 ;; (2) ___lwtofl                                             4     0      4     343
  1322 ;;                                              8 BANK0      4     0      4
  1323 ;;                           ___flpack
  1324 ;;                       _measure_freq (ARG)
  1325 ;; ---------------------------------------------------------------------------------
  1326 ;; (5) ___awtofl                                             9     5      4     445
  1327 ;;                                             18 BANK0      5     1      4
  1328 ;;                           ___flpack
  1329 ;;                            ___fltol (ARG)
  1330 ;; ---------------------------------------------------------------------------------
  1331 ;; (2) ___flmul                                             19    11      8     800
  1332 ;;                                             37 BANK0     19    11      8
  1333 ;;                           ___flpack
  1334 ;;                            ___fltol (ARG)
  1335 ;;                           ___awtofl (ARG)
  1336 ;;                              _frexp (ARG)
  1337 ;;                            ___fldiv (ARG)
  1338 ;; ---------------------------------------------------------------------------------
  1339 ;; (2) ___fldiv                                             19    11      8     729
  1340 ;;                                             18 BANK0     19    11      8
  1341 ;;                           ___flpack
  1342 ;;                            ___fltol (ARG)
  1343 ;; ---------------------------------------------------------------------------------
  1344 ;; (3) ___fladd                                             15     7      8    1537
  1345 ;;                                             56 BANK0     15     7      8
  1346 ;;                           ___flpack
  1347 ;;                            ___fltol (ARG)
  1348 ;;                            ___flmul (ARG)
  1349 ;;                              _frexp (ARG)
  1350 ;;                           ___awtofl (ARG)
  1351 ;; ---------------------------------------------------------------------------------
  1352 ;; (5) _ldexp                                               12     6      6     453
  1353 ;;                                             71 BANK0      8     2      6
  1354 ;;                                              0 BANK1      4     4      0
  1355 ;;                             ___flge
  1356 ;;                            ___flneg
  1357 ;;                            ___flmul (ARG)
  1358 ;;                            ___fladd (ARG)
  1359 ;; ---------------------------------------------------------------------------------
  1360 ;; (2) _measure_freq                                        10     8      2     235
  1361 ;;                                              3 COMMON     2     0      2
  1362 ;;                                              0 BANK0      8     8      0
  1363 ;; ---------------------------------------------------------------------------------
  1364 ;; (2) _delay10ms                                           11     9      2     241
  1365 ;;                                              2 BANK0     11     9      2
  1366 ;;                             ___wmul
  1367 ;; ---------------------------------------------------------------------------------
  1368 ;; (3) _output_putch                                         1     0      1      44
  1369 ;;                                              5 COMMON     1     0      1
  1370 ;;                          _ser_putch
  1371 ;; ---------------------------------------------------------------------------------
  1372 ;; (2) _ser_puts                                             1     1      0      67
  1373 ;;                                              4 COMMON     1     1      0
  1374 ;;                          _ser_putch
  1375 ;; ---------------------------------------------------------------------------------
  1376 ;; (2) ___flge                                              12     4      8     136
  1377 ;;                                              3 COMMON     4     4      0
  1378 ;;                                              0 BANK0      8     0      8
  1379 ;; ---------------------------------------------------------------------------------
  1380 ;; (2) ___fltol                                             10     6      4     229
  1381 ;;                                              8 BANK0     10     6      4
  1382 ;;                             ___flge (ARG)
  1383 ;;                              _frexp (ARG)
  1384 ;;                           ___flpack (ARG)
  1385 ;; ---------------------------------------------------------------------------------
  1386 ;; (6) ___flneg                                              4     0      4      45
  1387 ;;                                              3 COMMON     4     0      4
  1388 ;; ---------------------------------------------------------------------------------
  1389 ;; (3) ___flpack                                            10     4      6     312
  1390 ;;                                              3 COMMON     4     4      0
  1391 ;;                                              0 BANK0      6     0      6
  1392 ;; ---------------------------------------------------------------------------------
  1393 ;; (4) ___lwmod                                              5     1      4     232
  1394 ;;                                              3 COMMON     4     0      4
  1395 ;;                                              0 BANK0      1     1      0
  1396 ;; ---------------------------------------------------------------------------------
  1397 ;; (4) ___lwdiv                                              7     3      4     241
  1398 ;;                                              3 COMMON     4     0      4
  1399 ;;                                              0 BANK0      3     3      0
  1400 ;; ---------------------------------------------------------------------------------
  1401 ;; (3) ___wmul                                               6     2      4     136
  1402 ;;                                              3 COMMON     4     0      4
  1403 ;;                                              0 BANK0      2     2      0
  1404 ;; ---------------------------------------------------------------------------------
  1405 ;; (4) _frexp                                                7     2      5     322
  1406 ;;                                              3 COMMON     2     2      0
  1407 ;;                                              0 BANK0      5     0      5
  1408 ;; ---------------------------------------------------------------------------------
  1409 ;; (3) _format_putchar                                       1     0      1       0
  1410 ;;                                              5 COMMON     1     0      1
  1411 ;; ---------------------------------------------------------------------------------
  1412 ;; (1) _timer2_init                                          4     4      0     157
  1413 ;;                                              3 COMMON     4     4      0
  1414 ;; ---------------------------------------------------------------------------------
  1415 ;; (1) _ser_init                                             0     0      0       0
  1416 ;; ---------------------------------------------------------------------------------
  1417 ;; (2) _ser_putch                                            1     0      1      22
  1418 ;;                                              5 COMMON     1     0      1
  1419 ;; ---------------------------------------------------------------------------------
  1420 ;; (1) _indicator                                            0     0      0       0
  1421 ;; ---------------------------------------------------------------------------------
  1422 ;; (2) _print_reading                                        2     0      2       0
  1423 ;;                                              3 COMMON     2     0      2
  1424 ;; ---------------------------------------------------------------------------------
  1425 ;; (2) _print_unit                                           0     0      0       0
  1426 ;; ---------------------------------------------------------------------------------
  1427 ;; Estimated maximum stack depth 6
  1428 ;; ---------------------------------------------------------------------------------
  1429 ;; (Depth) Function   	        Calls       Base Space   Used Autos Params    Refs
  1430 ;; ---------------------------------------------------------------------------------
  1431 ;; (8) _isr                                                  3     3      0       0
  1432 ;;                                              0 COMMON     3     3      0
  1433 ;; ---------------------------------------------------------------------------------
  1434 ;; Estimated maximum stack depth 8
  1435 ;; ---------------------------------------------------------------------------------
  1436 ;; Call Graph Graphs:
  1437 ;; _main (ROOT)
  1438 ;;   _timer2_init
  1439 ;;   _delay10ms
  1440 ;;     ___wmul
  1441 ;;   _ser_init
  1442 ;;   _calibrate
  1443 ;;     _measure_freq
  1444 ;;     ___lwtofl
  1445 ;;       ___flpack
  1446 ;;       _measure_freq (ARG)
  1447 ;;     _delay10ms
  1448 ;;       ___wmul
  1449 ;;     _ser_puts
  1450 ;;       _ser_putch
  1451 ;;   _ser_puts
  1452 ;;     _ser_putch
  1453 ;;   _measure_capacitance
  1454 ;;     _measure_freq
  1455 ;;     ___lwtofl
  1456 ;;       ___flpack
  1457 ;;       _measure_freq (ARG)
  1458 ;;     _ser_puts
  1459 ;;       _ser_putch
  1460 ;;     _format_xint32
  1461 ;;       _output_putch
  1462 ;;         _ser_putch
  1463 ;;       _format_putchar
  1464 ;;       _ser_putch
  1465 ;;       _format_number
  1466 ;;         ___lwmod
  1467 ;;         ___lwdiv
  1468 ;;         _output_putch
  1469 ;;           _ser_putch
  1470 ;;         _format_putchar
  1471 ;;         _ser_putch
  1472 ;;     _format_double
  1473 ;;       _log10
  1474 ;;         _log
  1475 ;;           ___flge
  1476 ;;           _frexp
  1477 ;;           ___flmul
  1478 ;;             ___flpack
  1479 ;;             ___fltol (ARG)
  1480 ;;               ___flge (ARG)
  1481 ;;               _frexp (ARG)
  1482 ;;               ___flpack (ARG)
  1483 ;;             ___awtofl (ARG)
  1484 ;;               ___flpack
  1485 ;;               ___fltol (ARG)
  1486 ;;                 ___flge (ARG)
  1487 ;;                 _frexp (ARG)
  1488 ;;                 ___flpack (ARG)
  1489 ;;             _frexp (ARG)
  1490 ;;             ___fldiv (ARG)
  1491 ;;               ___flpack
  1492 ;;               ___fltol (ARG)
  1493 ;;                 ___flge (ARG)
  1494 ;;                 _frexp (ARG)
  1495 ;;                 ___flpack (ARG)
  1496 ;;           ___fladd
  1497 ;;             ___flpack
  1498 ;;             ___fltol (ARG)
  1499 ;;               ___flge (ARG)
  1500 ;;               _frexp (ARG)
  1501 ;;               ___flpack (ARG)
  1502 ;;             ___flmul (ARG)
  1503 ;;               ___flpack
  1504 ;;               ___fltol (ARG)
  1505 ;;                 ___flge (ARG)
  1506 ;;                 _frexp (ARG)
  1507 ;;                 ___flpack (ARG)
  1508 ;;               ___awtofl (ARG)
  1509 ;;                 ___flpack
  1510 ;;                 ___fltol (ARG)
  1511 ;;                   ___flge (ARG)
  1512 ;;                   _frexp (ARG)
  1513 ;;                   ___flpack (ARG)
  1514 ;;               _frexp (ARG)
  1515 ;;               ___fldiv (ARG)
  1516 ;;                 ___flpack
  1517 ;;                 ___fltol (ARG)
  1518 ;;                   ___flge (ARG)
  1519 ;;                   _frexp (ARG)
  1520 ;;                   ___flpack (ARG)
  1521 ;;             _frexp (ARG)
  1522 ;;             ___awtofl (ARG)
  1523 ;;               ___flpack
  1524 ;;               ___fltol (ARG)
  1525 ;;                 ___flge (ARG)
  1526 ;;                 _frexp (ARG)
  1527 ;;                 ___flpack (ARG)
  1528 ;;           _eval_poly
  1529 ;;             ___flmul
  1530 ;;               ___flpack
  1531 ;;               ___fltol (ARG)
  1532 ;;                 ___flge (ARG)
  1533 ;;                 _frexp (ARG)
  1534 ;;                 ___flpack (ARG)
  1535 ;;               ___awtofl (ARG)
  1536 ;;                 ___flpack
  1537 ;;                 ___fltol (ARG)
  1538 ;;                   ___flge (ARG)
  1539 ;;                   _frexp (ARG)
  1540 ;;                   ___flpack (ARG)
  1541 ;;               _frexp (ARG)
  1542 ;;               ___fldiv (ARG)
  1543 ;;                 ___flpack
  1544 ;;                 ___fltol (ARG)
  1545 ;;                   ___flge (ARG)
  1546 ;;                   _frexp (ARG)
  1547 ;;                   ___flpack (ARG)
  1548 ;;             ___fladd
  1549 ;;               ___flpack
  1550 ;;               ___fltol (ARG)
  1551 ;;                 ___flge (ARG)
  1552 ;;                 _frexp (ARG)
  1553 ;;                 ___flpack (ARG)
  1554 ;;               ___flmul (ARG)
  1555 ;;                 ___flpack
  1556 ;;                 ___fltol (ARG)
  1557 ;;                   ___flge (ARG)
  1558 ;;                   _frexp (ARG)
  1559 ;;                   ___flpack (ARG)
  1560 ;;                 ___awtofl (ARG)
  1561 ;;                   ___flpack
  1562 ;;                   ___fltol (ARG)
  1563 ;;                     ___flge (ARG)
  1564 ;;                     _frexp (ARG)
  1565 ;;                     ___flpack (ARG)
  1566 ;;                 _frexp (ARG)
  1567 ;;                 ___fldiv (ARG)
  1568 ;;                   ___flpack
  1569 ;;                   ___fltol (ARG)
  1570 ;;                     ___flge (ARG)
  1571 ;;                     _frexp (ARG)
  1572 ;;                     ___flpack (ARG)
  1573 ;;               _frexp (ARG)
  1574 ;;               ___awtofl (ARG)
  1575 ;;                 ___flpack
  1576 ;;                 ___fltol (ARG)
  1577 ;;                   ___flge (ARG)
  1578 ;;                   _frexp (ARG)
  1579 ;;                   ___flpack (ARG)
  1580 ;;             ___fltol (ARG)
  1581 ;;               ___flge (ARG)
  1582 ;;               _frexp (ARG)
  1583 ;;               ___flpack (ARG)
  1584 ;;             _ldexp (ARG)
  1585 ;;               ___flge
  1586 ;;               ___flneg
  1587 ;;               ___flmul (ARG)
  1588 ;;                 ___flpack
  1589 ;;                 ___fltol (ARG)
  1590 ;;                   ___flge (ARG)
  1591 ;;                   _frexp (ARG)
  1592 ;;                   ___flpack (ARG)
  1593 ;;                 ___awtofl (ARG)
  1594 ;;                   ___flpack
  1595 ;;                   ___fltol (ARG)
  1596 ;;                     ___flge (ARG)
  1597 ;;                     _frexp (ARG)
  1598 ;;                     ___flpack (ARG)
  1599 ;;                 _frexp (ARG)
  1600 ;;                 ___fldiv (ARG)
  1601 ;;                   ___flpack
  1602 ;;                   ___fltol (ARG)
  1603 ;;                     ___flge (ARG)
  1604 ;;                     _frexp (ARG)
  1605 ;;                     ___flpack (ARG)
  1606 ;;               ___fladd (ARG)
  1607 ;;                 ___flpack
  1608 ;;                 ___fltol (ARG)
  1609 ;;                   ___flge (ARG)
  1610 ;;                   _frexp (ARG)
  1611 ;;                   ___flpack (ARG)
  1612 ;;                 ___flmul (ARG)
  1613 ;;                   ___flpack
  1614 ;;                   ___fltol (ARG)
  1615 ;;                     ___flge (ARG)
  1616 ;;                     _frexp (ARG)
  1617 ;;                     ___flpack (ARG)
  1618 ;;                   ___awtofl (ARG)
  1619 ;;                     ___flpack
  1620 ;;                     ___fltol (ARG)
  1621 ;;                       ___flge (ARG)
  1622 ;;                       _frexp (ARG)
  1623 ;;                       ___flpack (ARG)
  1624 ;;                   _frexp (ARG)
  1625 ;;                   ___fldiv (ARG)
  1626 ;;                     ___flpack
  1627 ;;                     ___fltol (ARG)
  1628 ;;                       ___flge (ARG)
  1629 ;;                       _frexp (ARG)
  1630 ;;                       ___flpack (ARG)
  1631 ;;                 _frexp (ARG)
  1632 ;;                 ___awtofl (ARG)
  1633 ;;                   ___flpack
  1634 ;;                   ___fltol (ARG)
  1635 ;;                     ___flge (ARG)
  1636 ;;                     _frexp (ARG)
  1637 ;;                     ___flpack (ARG)
  1638 ;;           ___awtofl
  1639 ;;             ___flpack
  1640 ;;             ___fltol (ARG)
  1641 ;;               ___flge (ARG)
  1642 ;;               _frexp (ARG)
  1643 ;;               ___flpack (ARG)
  1644 ;;           ___fltol (ARG)
  1645 ;;             ___flge (ARG)
  1646 ;;             _frexp (ARG)
  1647 ;;             ___flpack (ARG)
  1648 ;;         ___flmul
  1649 ;;           ___flpack
  1650 ;;           ___fltol (ARG)
  1651 ;;             ___flge (ARG)
  1652 ;;             _frexp (ARG)
  1653 ;;             ___flpack (ARG)
  1654 ;;           ___awtofl (ARG)
  1655 ;;             ___flpack
  1656 ;;             ___fltol (ARG)
  1657 ;;               ___flge (ARG)
  1658 ;;               _frexp (ARG)
  1659 ;;               ___flpack (ARG)
  1660 ;;           _frexp (ARG)
  1661 ;;           ___fldiv (ARG)
  1662 ;;             ___flpack
  1663 ;;             ___fltol (ARG)
  1664 ;;               ___flge (ARG)
  1665 ;;               _frexp (ARG)
  1666 ;;               ___flpack (ARG)
  1667 ;;         ___fltol (ARG)
  1668 ;;           ___flge (ARG)
  1669 ;;           _frexp (ARG)
  1670 ;;           ___flpack (ARG)
  1671 ;;       ___fltol
  1672 ;;         ___flge (ARG)
  1673 ;;         _frexp (ARG)
  1674 ;;         ___flpack (ARG)
  1675 ;;       ___awtofl
  1676 ;;         ___flpack
  1677 ;;         ___fltol (ARG)
  1678 ;;           ___flge (ARG)
  1679 ;;           _frexp (ARG)
  1680 ;;           ___flpack (ARG)
  1681 ;;       _pow
  1682 ;;         ___flge
  1683 ;;         ___fltol
  1684 ;;           ___flge (ARG)
  1685 ;;           _frexp (ARG)
  1686 ;;           ___flpack (ARG)
  1687 ;;         ___lltofl
  1688 ;;           ___flpack
  1689 ;;         ___flneg
  1690 ;;         _log
  1691 ;;           ___flge
  1692 ;;           _frexp
  1693 ;;           ___flmul
  1694 ;;             ___flpack
  1695 ;;             ___fltol (ARG)
  1696 ;;               ___flge (ARG)
  1697 ;;               _frexp (ARG)
  1698 ;;               ___flpack (ARG)
  1699 ;;             ___awtofl (ARG)
  1700 ;;               ___flpack
  1701 ;;               ___fltol (ARG)
  1702 ;;                 ___flge (ARG)
  1703 ;;                 _frexp (ARG)
  1704 ;;                 ___flpack (ARG)
  1705 ;;             _frexp (ARG)
  1706 ;;             ___fldiv (ARG)
  1707 ;;               ___flpack
  1708 ;;               ___fltol (ARG)
  1709 ;;                 ___flge (ARG)
  1710 ;;                 _frexp (ARG)
  1711 ;;                 ___flpack (ARG)
  1712 ;;           ___fladd
  1713 ;;             ___flpack
  1714 ;;             ___fltol (ARG)
  1715 ;;               ___flge (ARG)
  1716 ;;               _frexp (ARG)
  1717 ;;               ___flpack (ARG)
  1718 ;;             ___flmul (ARG)
  1719 ;;               ___flpack
  1720 ;;               ___fltol (ARG)
  1721 ;;                 ___flge (ARG)
  1722 ;;                 _frexp (ARG)
  1723 ;;                 ___flpack (ARG)
  1724 ;;               ___awtofl (ARG)
  1725 ;;                 ___flpack
  1726 ;;                 ___fltol (ARG)
  1727 ;;                   ___flge (ARG)
  1728 ;;                   _frexp (ARG)
  1729 ;;                   ___flpack (ARG)
  1730 ;;               _frexp (ARG)
  1731 ;;               ___fldiv (ARG)
  1732 ;;                 ___flpack
  1733 ;;                 ___fltol (ARG)
  1734 ;;                   ___flge (ARG)
  1735 ;;                   _frexp (ARG)
  1736 ;;                   ___flpack (ARG)
  1737 ;;             _frexp (ARG)
  1738 ;;             ___awtofl (ARG)
  1739 ;;               ___flpack
  1740 ;;               ___fltol (ARG)
  1741 ;;                 ___flge (ARG)
  1742 ;;                 _frexp (ARG)
  1743 ;;                 ___flpack (ARG)
  1744 ;;           _eval_poly
  1745 ;;             ___flmul
  1746 ;;               ___flpack
  1747 ;;               ___fltol (ARG)
  1748 ;;                 ___flge (ARG)
  1749 ;;                 _frexp (ARG)
  1750 ;;                 ___flpack (ARG)
  1751 ;;               ___awtofl (ARG)
  1752 ;;                 ___flpack
  1753 ;;                 ___fltol (ARG)
  1754 ;;                   ___flge (ARG)
  1755 ;;                   _frexp (ARG)
  1756 ;;                   ___flpack (ARG)
  1757 ;;               _frexp (ARG)
  1758 ;;               ___fldiv (ARG)
  1759 ;;                 ___flpack
  1760 ;;                 ___fltol (ARG)
  1761 ;;                   ___flge (ARG)
  1762 ;;                   _frexp (ARG)
  1763 ;;                   ___flpack (ARG)
  1764 ;;             ___fladd
  1765 ;;               ___flpack
  1766 ;;               ___fltol (ARG)
  1767 ;;                 ___flge (ARG)
  1768 ;;                 _frexp (ARG)
  1769 ;;                 ___flpack (ARG)
  1770 ;;               ___flmul (ARG)
  1771 ;;                 ___flpack
  1772 ;;                 ___fltol (ARG)
  1773 ;;                   ___flge (ARG)
  1774 ;;                   _frexp (ARG)
  1775 ;;                   ___flpack (ARG)
  1776 ;;                 ___awtofl (ARG)
  1777 ;;                   ___flpack
  1778 ;;                   ___fltol (ARG)
  1779 ;;                     ___flge (ARG)
  1780 ;;                     _frexp (ARG)
  1781 ;;                     ___flpack (ARG)
  1782 ;;                 _frexp (ARG)
  1783 ;;                 ___fldiv (ARG)
  1784 ;;                   ___flpack
  1785 ;;                   ___fltol (ARG)
  1786 ;;                     ___flge (ARG)
  1787 ;;                     _frexp (ARG)
  1788 ;;                     ___flpack (ARG)
  1789 ;;               _frexp (ARG)
  1790 ;;               ___awtofl (ARG)
  1791 ;;                 ___flpack
  1792 ;;                 ___fltol (ARG)
  1793 ;;                   ___flge (ARG)
  1794 ;;                   _frexp (ARG)
  1795 ;;                   ___flpack (ARG)
  1796 ;;             ___fltol (ARG)
  1797 ;;               ___flge (ARG)
  1798 ;;               _frexp (ARG)
  1799 ;;               ___flpack (ARG)
  1800 ;;             _ldexp (ARG)
  1801 ;;               ___flge
  1802 ;;               ___flneg
  1803 ;;               ___flmul (ARG)
  1804 ;;                 ___flpack
  1805 ;;                 ___fltol (ARG)
  1806 ;;                   ___flge (ARG)
  1807 ;;                   _frexp (ARG)
  1808 ;;                   ___flpack (ARG)
  1809 ;;                 ___awtofl (ARG)
  1810 ;;                   ___flpack
  1811 ;;                   ___fltol (ARG)
  1812 ;;                     ___flge (ARG)
  1813 ;;                     _frexp (ARG)
  1814 ;;                     ___flpack (ARG)
  1815 ;;                 _frexp (ARG)
  1816 ;;                 ___fldiv (ARG)
  1817 ;;                   ___flpack
  1818 ;;                   ___fltol (ARG)
  1819 ;;                     ___flge (ARG)
  1820 ;;                     _frexp (ARG)
  1821 ;;                     ___flpack (ARG)
  1822 ;;               ___fladd (ARG)
  1823 ;;                 ___flpack
  1824 ;;                 ___fltol (ARG)
  1825 ;;                   ___flge (ARG)
  1826 ;;                   _frexp (ARG)
  1827 ;;                   ___flpack (ARG)
  1828 ;;                 ___flmul (ARG)
  1829 ;;                   ___flpack
  1830 ;;                   ___fltol (ARG)
  1831 ;;                     ___flge (ARG)
  1832 ;;                     _frexp (ARG)
  1833 ;;                     ___flpack (ARG)
  1834 ;;                   ___awtofl (ARG)
  1835 ;;                     ___flpack
  1836 ;;                     ___fltol (ARG)
  1837 ;;                       ___flge (ARG)
  1838 ;;                       _frexp (ARG)
  1839 ;;                       ___flpack (ARG)
  1840 ;;                   _frexp (ARG)
  1841 ;;                   ___fldiv (ARG)
  1842 ;;                     ___flpack
  1843 ;;                     ___fltol (ARG)
  1844 ;;                       ___flge (ARG)
  1845 ;;                       _frexp (ARG)
  1846 ;;                       ___flpack (ARG)
  1847 ;;                 _frexp (ARG)
  1848 ;;                 ___awtofl (ARG)
  1849 ;;                   ___flpack
  1850 ;;                   ___fltol (ARG)
  1851 ;;                     ___flge (ARG)
  1852 ;;                     _frexp (ARG)
  1853 ;;                     ___flpack (ARG)
  1854 ;;           ___awtofl
  1855 ;;             ___flpack
  1856 ;;             ___fltol (ARG)
  1857 ;;               ___flge (ARG)
  1858 ;;               _frexp (ARG)
  1859 ;;               ___flpack (ARG)
  1860 ;;           ___fltol (ARG)
  1861 ;;             ___flge (ARG)
  1862 ;;             _frexp (ARG)
  1863 ;;             ___flpack (ARG)
  1864 ;;         ___flmul
  1865 ;;           ___flpack
  1866 ;;           ___fltol (ARG)
  1867 ;;             ___flge (ARG)
  1868 ;;             _frexp (ARG)
  1869 ;;             ___flpack (ARG)
  1870 ;;           ___awtofl (ARG)
  1871 ;;             ___flpack
  1872 ;;             ___fltol (ARG)
  1873 ;;               ___flge (ARG)
  1874 ;;               _frexp (ARG)
  1875 ;;               ___flpack (ARG)
  1876 ;;           _frexp (ARG)
  1877 ;;           ___fldiv (ARG)
  1878 ;;             ___flpack
  1879 ;;             ___fltol (ARG)
  1880 ;;               ___flge (ARG)
  1881 ;;               _frexp (ARG)
  1882 ;;               ___flpack (ARG)
  1883 ;;         _exp
  1884 ;;           ___flge
  1885 ;;           ___flneg
  1886 ;;           ___flmul
  1887 ;;             ___flpack
  1888 ;;             ___fltol (ARG)
  1889 ;;               ___flge (ARG)
  1890 ;;               _frexp (ARG)
  1891 ;;               ___flpack (ARG)
  1892 ;;             ___awtofl (ARG)
  1893 ;;               ___flpack
  1894 ;;               ___fltol (ARG)
  1895 ;;                 ___flge (ARG)
  1896 ;;                 _frexp (ARG)
  1897 ;;                 ___flpack (ARG)
  1898 ;;             _frexp (ARG)
  1899 ;;             ___fldiv (ARG)
  1900 ;;               ___flpack
  1901 ;;               ___fltol (ARG)
  1902 ;;                 ___flge (ARG)
  1903 ;;                 _frexp (ARG)
  1904 ;;                 ___flpack (ARG)
  1905 ;;           _floor
  1906 ;;             _frexp
  1907 ;;             ___flge
  1908 ;;             ___fltol
  1909 ;;               ___flge (ARG)
  1910 ;;               _frexp (ARG)
  1911 ;;               ___flpack (ARG)
  1912 ;;             ___altofl
  1913 ;;               ___flpack
  1914 ;;               ___fltol (ARG)
  1915 ;;                 ___flge (ARG)
  1916 ;;                 _frexp (ARG)
  1917 ;;                 ___flpack (ARG)
  1918 ;;             ___fladd
  1919 ;;               ___flpack
  1920 ;;               ___fltol (ARG)
  1921 ;;                 ___flge (ARG)
  1922 ;;                 _frexp (ARG)
  1923 ;;                 ___flpack (ARG)
  1924 ;;               ___flmul (ARG)
  1925 ;;                 ___flpack
  1926 ;;                 ___fltol (ARG)
  1927 ;;                   ___flge (ARG)
  1928 ;;                   _frexp (ARG)
  1929 ;;                   ___flpack (ARG)
  1930 ;;                 ___awtofl (ARG)
  1931 ;;                   ___flpack
  1932 ;;                   ___fltol (ARG)
  1933 ;;                     ___flge (ARG)
  1934 ;;                     _frexp (ARG)
  1935 ;;                     ___flpack (ARG)
  1936 ;;                 _frexp (ARG)
  1937 ;;                 ___fldiv (ARG)
  1938 ;;                   ___flpack
  1939 ;;                   ___fltol (ARG)
  1940 ;;                     ___flge (ARG)
  1941 ;;                     _frexp (ARG)
  1942 ;;                     ___flpack (ARG)
  1943 ;;               _frexp (ARG)
  1944 ;;               ___awtofl (ARG)
  1945 ;;                 ___flpack
  1946 ;;                 ___fltol (ARG)
  1947 ;;                   ___flge (ARG)
  1948 ;;                   _frexp (ARG)
  1949 ;;                   ___flpack (ARG)
  1950 ;;             ___fldiv (ARG)
  1951 ;;               ___flpack
  1952 ;;               ___fltol (ARG)
  1953 ;;                 ___flge (ARG)
  1954 ;;                 _frexp (ARG)
  1955 ;;                 ___flpack (ARG)
  1956 ;;           ___fltol
  1957 ;;             ___flge (ARG)
  1958 ;;             _frexp (ARG)
  1959 ;;             ___flpack (ARG)
  1960 ;;           ___awtofl
  1961 ;;             ___flpack
  1962 ;;             ___fltol (ARG)
  1963 ;;               ___flge (ARG)
  1964 ;;               _frexp (ARG)
  1965 ;;               ___flpack (ARG)
  1966 ;;           ___flsub
  1967 ;;             ___fladd
  1968 ;;               ___flpack
  1969 ;;               ___fltol (ARG)
  1970 ;;                 ___flge (ARG)
  1971 ;;                 _frexp (ARG)
  1972 ;;                 ___flpack (ARG)
  1973 ;;               ___flmul (ARG)
  1974 ;;                 ___flpack
  1975 ;;                 ___fltol (ARG)
  1976 ;;                   ___flge (ARG)
  1977 ;;                   _frexp (ARG)
  1978 ;;                   ___flpack (ARG)
  1979 ;;                 ___awtofl (ARG)
  1980 ;;                   ___flpack
  1981 ;;                   ___fltol (ARG)
  1982 ;;                     ___flge (ARG)
  1983 ;;                     _frexp (ARG)
  1984 ;;                     ___flpack (ARG)
  1985 ;;                 _frexp (ARG)
  1986 ;;                 ___fldiv (ARG)
  1987 ;;                   ___flpack
  1988 ;;                   ___fltol (ARG)
  1989 ;;                     ___flge (ARG)
  1990 ;;                     _frexp (ARG)
  1991 ;;                     ___flpack (ARG)
  1992 ;;               _frexp (ARG)
  1993 ;;               ___awtofl (ARG)
  1994 ;;                 ___flpack
  1995 ;;                 ___fltol (ARG)
  1996 ;;                   ___flge (ARG)
  1997 ;;                   _frexp (ARG)
  1998 ;;                   ___flpack (ARG)
  1999 ;;             ___flmul (ARG)
  2000 ;;               ___flpack
  2001 ;;               ___fltol (ARG)
  2002 ;;                 ___flge (ARG)
  2003 ;;                 _frexp (ARG)
  2004 ;;                 ___flpack (ARG)
  2005 ;;               ___awtofl (ARG)
  2006 ;;                 ___flpack
  2007 ;;                 ___fltol (ARG)
  2008 ;;                   ___flge (ARG)
  2009 ;;                   _frexp (ARG)
  2010 ;;                   ___flpack (ARG)
  2011 ;;               _frexp (ARG)
  2012 ;;               ___fldiv (ARG)
  2013 ;;                 ___flpack
  2014 ;;                 ___fltol (ARG)
  2015 ;;                   ___flge (ARG)
  2016 ;;                   _frexp (ARG)
  2017 ;;                   ___flpack (ARG)
  2018 ;;             ___awtofl (ARG)
  2019 ;;               ___flpack
  2020 ;;               ___fltol (ARG)
  2021 ;;                 ___flge (ARG)
  2022 ;;                 _frexp (ARG)
  2023 ;;                 ___flpack (ARG)
  2024 ;;           _eval_poly
  2025 ;;             ___flmul
  2026 ;;               ___flpack
  2027 ;;               ___fltol (ARG)
  2028 ;;                 ___flge (ARG)
  2029 ;;                 _frexp (ARG)
  2030 ;;                 ___flpack (ARG)
  2031 ;;               ___awtofl (ARG)
  2032 ;;                 ___flpack
  2033 ;;                 ___fltol (ARG)
  2034 ;;                   ___flge (ARG)
  2035 ;;                   _frexp (ARG)
  2036 ;;                   ___flpack (ARG)
  2037 ;;               _frexp (ARG)
  2038 ;;               ___fldiv (ARG)
  2039 ;;                 ___flpack
  2040 ;;                 ___fltol (ARG)
  2041 ;;                   ___flge (ARG)
  2042 ;;                   _frexp (ARG)
  2043 ;;                   ___flpack (ARG)
  2044 ;;             ___fladd
  2045 ;;               ___flpack
  2046 ;;               ___fltol (ARG)
  2047 ;;                 ___flge (ARG)
  2048 ;;                 _frexp (ARG)
  2049 ;;                 ___flpack (ARG)
  2050 ;;               ___flmul (ARG)
  2051 ;;                 ___flpack
  2052 ;;                 ___fltol (ARG)
  2053 ;;                   ___flge (ARG)
  2054 ;;                   _frexp (ARG)
  2055 ;;                   ___flpack (ARG)
  2056 ;;                 ___awtofl (ARG)
  2057 ;;                   ___flpack
  2058 ;;                   ___fltol (ARG)
  2059 ;;                     ___flge (ARG)
  2060 ;;                     _frexp (ARG)
  2061 ;;                     ___flpack (ARG)
  2062 ;;                 _frexp (ARG)
  2063 ;;                 ___fldiv (ARG)
  2064 ;;                   ___flpack
  2065 ;;                   ___fltol (ARG)
  2066 ;;                     ___flge (ARG)
  2067 ;;                     _frexp (ARG)
  2068 ;;                     ___flpack (ARG)
  2069 ;;               _frexp (ARG)
  2070 ;;               ___awtofl (ARG)
  2071 ;;                 ___flpack
  2072 ;;                 ___fltol (ARG)
  2073 ;;                   ___flge (ARG)
  2074 ;;                   _frexp (ARG)
  2075 ;;                   ___flpack (ARG)
  2076 ;;             ___fltol (ARG)
  2077 ;;               ___flge (ARG)
  2078 ;;               _frexp (ARG)
  2079 ;;               ___flpack (ARG)
  2080 ;;             _ldexp (ARG)
  2081 ;;               ___flge
  2082 ;;               ___flneg
  2083 ;;               ___flmul (ARG)
  2084 ;;                 ___flpack
  2085 ;;                 ___fltol (ARG)
  2086 ;;                   ___flge (ARG)
  2087 ;;                   _frexp (ARG)
  2088 ;;                   ___flpack (ARG)
  2089 ;;                 ___awtofl (ARG)
  2090 ;;                   ___flpack
  2091 ;;                   ___fltol (ARG)
  2092 ;;                     ___flge (ARG)
  2093 ;;                     _frexp (ARG)
  2094 ;;                     ___flpack (ARG)
  2095 ;;                 _frexp (ARG)
  2096 ;;                 ___fldiv (ARG)
  2097 ;;                   ___flpack
  2098 ;;                   ___fltol (ARG)
  2099 ;;                     ___flge (ARG)
  2100 ;;                     _frexp (ARG)
  2101 ;;                     ___flpack (ARG)
  2102 ;;               ___fladd (ARG)
  2103 ;;                 ___flpack
  2104 ;;                 ___fltol (ARG)
  2105 ;;                   ___flge (ARG)
  2106 ;;                   _frexp (ARG)
  2107 ;;                   ___flpack (ARG)
  2108 ;;                 ___flmul (ARG)
  2109 ;;                   ___flpack
  2110 ;;                   ___fltol (ARG)
  2111 ;;                     ___flge (ARG)
  2112 ;;                     _frexp (ARG)
  2113 ;;                     ___flpack (ARG)
  2114 ;;                   ___awtofl (ARG)
  2115 ;;                     ___flpack
  2116 ;;                     ___fltol (ARG)
  2117 ;;                       ___flge (ARG)
  2118 ;;                       _frexp (ARG)
  2119 ;;                       ___flpack (ARG)
  2120 ;;                   _frexp (ARG)
  2121 ;;                   ___fldiv (ARG)
  2122 ;;                     ___flpack
  2123 ;;                     ___fltol (ARG)
  2124 ;;                       ___flge (ARG)
  2125 ;;                       _frexp (ARG)
  2126 ;;                       ___flpack (ARG)
  2127 ;;                 _frexp (ARG)
  2128 ;;                 ___awtofl (ARG)
  2129 ;;                   ___flpack
  2130 ;;                   ___fltol (ARG)
  2131 ;;                     ___flge (ARG)
  2132 ;;                     _frexp (ARG)
  2133 ;;                     ___flpack (ARG)
  2134 ;;           _ldexp
  2135 ;;             ___flge
  2136 ;;             ___flneg
  2137 ;;             ___flmul (ARG)
  2138 ;;               ___flpack
  2139 ;;               ___fltol (ARG)
  2140 ;;                 ___flge (ARG)
  2141 ;;                 _frexp (ARG)
  2142 ;;                 ___flpack (ARG)
  2143 ;;               ___awtofl (ARG)
  2144 ;;                 ___flpack
  2145 ;;                 ___fltol (ARG)
  2146 ;;                   ___flge (ARG)
  2147 ;;                   _frexp (ARG)
  2148 ;;                   ___flpack (ARG)
  2149 ;;               _frexp (ARG)
  2150 ;;               ___fldiv (ARG)
  2151 ;;                 ___flpack
  2152 ;;                 ___fltol (ARG)
  2153 ;;                   ___flge (ARG)
  2154 ;;                   _frexp (ARG)
  2155 ;;                   ___flpack (ARG)
  2156 ;;             ___fladd (ARG)
  2157 ;;               ___flpack
  2158 ;;               ___fltol (ARG)
  2159 ;;                 ___flge (ARG)
  2160 ;;                 _frexp (ARG)
  2161 ;;                 ___flpack (ARG)
  2162 ;;               ___flmul (ARG)
  2163 ;;                 ___flpack
  2164 ;;                 ___fltol (ARG)
  2165 ;;                   ___flge (ARG)
  2166 ;;                   _frexp (ARG)
  2167 ;;                   ___flpack (ARG)
  2168 ;;                 ___awtofl (ARG)
  2169 ;;                   ___flpack
  2170 ;;                   ___fltol (ARG)
  2171 ;;                     ___flge (ARG)
  2172 ;;                     _frexp (ARG)
  2173 ;;                     ___flpack (ARG)
  2174 ;;                 _frexp (ARG)
  2175 ;;                 ___fldiv (ARG)
  2176 ;;                   ___flpack
  2177 ;;                   ___fltol (ARG)
  2178 ;;                     ___flge (ARG)
  2179 ;;                     _frexp (ARG)
  2180 ;;                     ___flpack (ARG)
  2181 ;;               _frexp (ARG)
  2182 ;;               ___awtofl (ARG)
  2183 ;;                 ___flpack
  2184 ;;                 ___fltol (ARG)
  2185 ;;                   ___flge (ARG)
  2186 ;;                   _frexp (ARG)
  2187 ;;                   ___flpack (ARG)
  2188 ;;           ___fldiv
  2189 ;;             ___flpack
  2190 ;;             ___fltol (ARG)
  2191 ;;               ___flge (ARG)
  2192 ;;               _frexp (ARG)
  2193 ;;               ___flpack (ARG)
  2194 ;;           _log (ARG)
  2195 ;;             ___flge
  2196 ;;             _frexp
  2197 ;;             ___flmul
  2198 ;;               ___flpack
  2199 ;;               ___fltol (ARG)
  2200 ;;                 ___flge (ARG)
  2201 ;;                 _frexp (ARG)
  2202 ;;                 ___flpack (ARG)
  2203 ;;               ___awtofl (ARG)
  2204 ;;                 ___flpack
  2205 ;;                 ___fltol (ARG)
  2206 ;;                   ___flge (ARG)
  2207 ;;                   _frexp (ARG)
  2208 ;;                   ___flpack (ARG)
  2209 ;;               _frexp (ARG)
  2210 ;;               ___fldiv (ARG)
  2211 ;;                 ___flpack
  2212 ;;                 ___fltol (ARG)
  2213 ;;                   ___flge (ARG)
  2214 ;;                   _frexp (ARG)
  2215 ;;                   ___flpack (ARG)
  2216 ;;             ___fladd
  2217 ;;               ___flpack
  2218 ;;               ___fltol (ARG)
  2219 ;;                 ___flge (ARG)
  2220 ;;                 _frexp (ARG)
  2221 ;;                 ___flpack (ARG)
  2222 ;;               ___flmul (ARG)
  2223 ;;                 ___flpack
  2224 ;;                 ___fltol (ARG)
  2225 ;;                   ___flge (ARG)
  2226 ;;                   _frexp (ARG)
  2227 ;;                   ___flpack (ARG)
  2228 ;;                 ___awtofl (ARG)
  2229 ;;                   ___flpack
  2230 ;;                   ___fltol (ARG)
  2231 ;;                     ___flge (ARG)
  2232 ;;                     _frexp (ARG)
  2233 ;;                     ___flpack (ARG)
  2234 ;;                 _frexp (ARG)
  2235 ;;                 ___fldiv (ARG)
  2236 ;;                   ___flpack
  2237 ;;                   ___fltol (ARG)
  2238 ;;                     ___flge (ARG)
  2239 ;;                     _frexp (ARG)
  2240 ;;                     ___flpack (ARG)
  2241 ;;               _frexp (ARG)
  2242 ;;               ___awtofl (ARG)
  2243 ;;                 ___flpack
  2244 ;;                 ___fltol (ARG)
  2245 ;;                   ___flge (ARG)
  2246 ;;                   _frexp (ARG)
  2247 ;;                   ___flpack (ARG)
  2248 ;;             _eval_poly
  2249 ;;               ___flmul
  2250 ;;                 ___flpack
  2251 ;;                 ___fltol (ARG)
  2252 ;;                   ___flge (ARG)
  2253 ;;                   _frexp (ARG)
  2254 ;;                   ___flpack (ARG)
  2255 ;;                 ___awtofl (ARG)
  2256 ;;                   ___flpack
  2257 ;;                   ___fltol (ARG)
  2258 ;;                     ___flge (ARG)
  2259 ;;                     _frexp (ARG)
  2260 ;;                     ___flpack (ARG)
  2261 ;;                 _frexp (ARG)
  2262 ;;                 ___fldiv (ARG)
  2263 ;;                   ___flpack
  2264 ;;                   ___fltol (ARG)
  2265 ;;                     ___flge (ARG)
  2266 ;;                     _frexp (ARG)
  2267 ;;                     ___flpack (ARG)
  2268 ;;               ___fladd
  2269 ;;                 ___flpack
  2270 ;;                 ___fltol (ARG)
  2271 ;;                   ___flge (ARG)
  2272 ;;                   _frexp (ARG)
  2273 ;;                   ___flpack (ARG)
  2274 ;;                 ___flmul (ARG)
  2275 ;;                   ___flpack
  2276 ;;                   ___fltol (ARG)
  2277 ;;                     ___flge (ARG)
  2278 ;;                     _frexp (ARG)
  2279 ;;                     ___flpack (ARG)
  2280 ;;                   ___awtofl (ARG)
  2281 ;;                     ___flpack
  2282 ;;                     ___fltol (ARG)
  2283 ;;                       ___flge (ARG)
  2284 ;;                       _frexp (ARG)
  2285 ;;                       ___flpack (ARG)
  2286 ;;                   _frexp (ARG)
  2287 ;;                   ___fldiv (ARG)
  2288 ;;                     ___flpack
  2289 ;;                     ___fltol (ARG)
  2290 ;;                       ___flge (ARG)
  2291 ;;                       _frexp (ARG)
  2292 ;;                       ___flpack (ARG)
  2293 ;;                 _frexp (ARG)
  2294 ;;                 ___awtofl (ARG)
  2295 ;;                   ___flpack
  2296 ;;                   ___fltol (ARG)
  2297 ;;                     ___flge (ARG)
  2298 ;;                     _frexp (ARG)
  2299 ;;                     ___flpack (ARG)
  2300 ;;               ___fltol (ARG)
  2301 ;;                 ___flge (ARG)
  2302 ;;                 _frexp (ARG)
  2303 ;;                 ___flpack (ARG)
  2304 ;;               _ldexp (ARG)
  2305 ;;                 ___flge
  2306 ;;                 ___flneg
  2307 ;;                 ___flmul (ARG)
  2308 ;;                   ___flpack
  2309 ;;                   ___fltol (ARG)
  2310 ;;                     ___flge (ARG)
  2311 ;;                     _frexp (ARG)
  2312 ;;                     ___flpack (ARG)
  2313 ;;                   ___awtofl (ARG)
  2314 ;;                     ___flpack
  2315 ;;                     ___fltol (ARG)
  2316 ;;                       ___flge (ARG)
  2317 ;;                       _frexp (ARG)
  2318 ;;                       ___flpack (ARG)
  2319 ;;                   _frexp (ARG)
  2320 ;;                   ___fldiv (ARG)
  2321 ;;                     ___flpack
  2322 ;;                     ___fltol (ARG)
  2323 ;;                       ___flge (ARG)
  2324 ;;                       _frexp (ARG)
  2325 ;;                       ___flpack (ARG)
  2326 ;;                 ___fladd (ARG)
  2327 ;;                   ___flpack
  2328 ;;                   ___fltol (ARG)
  2329 ;;                     ___flge (ARG)
  2330 ;;                     _frexp (ARG)
  2331 ;;                     ___flpack (ARG)
  2332 ;;                   ___flmul (ARG)
  2333 ;;                     ___flpack
  2334 ;;                     ___fltol (ARG)
  2335 ;;                       ___flge (ARG)
  2336 ;;                       _frexp (ARG)
  2337 ;;                       ___flpack (ARG)
  2338 ;;                     ___awtofl (ARG)
  2339 ;;                       ___flpack
  2340 ;;                       ___fltol (ARG)
  2341 ;;                         ___flge (ARG)
  2342 ;;                         _frexp (ARG)
  2343 ;;                         ___flpack (ARG)
  2344 ;;                     _frexp (ARG)
  2345 ;;                     ___fldiv (ARG)
  2346 ;;                       ___flpack
  2347 ;;                       ___fltol (ARG)
  2348 ;;                         ___flge (ARG)
  2349 ;;                         _frexp (ARG)
  2350 ;;                         ___flpack (ARG)
  2351 ;;                   _frexp (ARG)
  2352 ;;                   ___awtofl (ARG)
  2353 ;;                     ___flpack
  2354 ;;                     ___fltol (ARG)
  2355 ;;                       ___flge (ARG)
  2356 ;;                       _frexp (ARG)
  2357 ;;                       ___flpack (ARG)
  2358 ;;             ___awtofl
  2359 ;;               ___flpack
  2360 ;;               ___fltol (ARG)
  2361 ;;                 ___flge (ARG)
  2362 ;;                 _frexp (ARG)
  2363 ;;                 ___flpack (ARG)
  2364 ;;             ___fltol (ARG)
  2365 ;;               ___flge (ARG)
  2366 ;;               _frexp (ARG)
  2367 ;;               ___flpack (ARG)
  2368 ;;       ___fldiv
  2369 ;;         ___flpack
  2370 ;;         ___fltol (ARG)
  2371 ;;           ___flge (ARG)
  2372 ;;           _frexp (ARG)
  2373 ;;           ___flpack (ARG)
  2374 ;;       _floor
  2375 ;;         _frexp
  2376 ;;         ___flge
  2377 ;;         ___fltol
  2378 ;;           ___flge (ARG)
  2379 ;;           _frexp (ARG)
  2380 ;;           ___flpack (ARG)
  2381 ;;         ___altofl
  2382 ;;           ___flpack
  2383 ;;           ___fltol (ARG)
  2384 ;;             ___flge (ARG)
  2385 ;;             _frexp (ARG)
  2386 ;;             ___flpack (ARG)
  2387 ;;         ___fladd
  2388 ;;           ___flpack
  2389 ;;           ___fltol (ARG)
  2390 ;;             ___flge (ARG)
  2391 ;;             _frexp (ARG)
  2392 ;;             ___flpack (ARG)
  2393 ;;           ___flmul (ARG)
  2394 ;;             ___flpack
  2395 ;;             ___fltol (ARG)
  2396 ;;               ___flge (ARG)
  2397 ;;               _frexp (ARG)
  2398 ;;               ___flpack (ARG)
  2399 ;;             ___awtofl (ARG)
  2400 ;;               ___flpack
  2401 ;;               ___fltol (ARG)
  2402 ;;                 ___flge (ARG)
  2403 ;;                 _frexp (ARG)
  2404 ;;                 ___flpack (ARG)
  2405 ;;             _frexp (ARG)
  2406 ;;             ___fldiv (ARG)
  2407 ;;               ___flpack
  2408 ;;               ___fltol (ARG)
  2409 ;;                 ___flge (ARG)
  2410 ;;                 _frexp (ARG)
  2411 ;;                 ___flpack (ARG)
  2412 ;;           _frexp (ARG)
  2413 ;;           ___awtofl (ARG)
  2414 ;;             ___flpack
  2415 ;;             ___fltol (ARG)
  2416 ;;               ___flge (ARG)
  2417 ;;               _frexp (ARG)
  2418 ;;               ___flpack (ARG)
  2419 ;;         ___fldiv (ARG)
  2420 ;;           ___flpack
  2421 ;;           ___fltol (ARG)
  2422 ;;             ___flge (ARG)
  2423 ;;             _frexp (ARG)
  2424 ;;             ___flpack (ARG)
  2425 ;;       ___flmul
  2426 ;;         ___flpack
  2427 ;;         ___fltol (ARG)
  2428 ;;           ___flge (ARG)
  2429 ;;           _frexp (ARG)
  2430 ;;           ___flpack (ARG)
  2431 ;;         ___awtofl (ARG)
  2432 ;;           ___flpack
  2433 ;;           ___fltol (ARG)
  2434 ;;             ___flge (ARG)
  2435 ;;             _frexp (ARG)
  2436 ;;             ___flpack (ARG)
  2437 ;;         _frexp (ARG)
  2438 ;;         ___fldiv (ARG)
  2439 ;;           ___flpack
  2440 ;;           ___fltol (ARG)
  2441 ;;             ___flge (ARG)
  2442 ;;             _frexp (ARG)
  2443 ;;             ___flpack (ARG)
  2444 ;;       ___flsub
  2445 ;;         ___fladd
  2446 ;;           ___flpack
  2447 ;;           ___fltol (ARG)
  2448 ;;             ___flge (ARG)
  2449 ;;             _frexp (ARG)
  2450 ;;             ___flpack (ARG)
  2451 ;;           ___flmul (ARG)
  2452 ;;             ___flpack
  2453 ;;             ___fltol (ARG)
  2454 ;;               ___flge (ARG)
  2455 ;;               _frexp (ARG)
  2456 ;;               ___flpack (ARG)
  2457 ;;             ___awtofl (ARG)
  2458 ;;               ___flpack
  2459 ;;               ___fltol (ARG)
  2460 ;;                 ___flge (ARG)
  2461 ;;                 _frexp (ARG)
  2462 ;;                 ___flpack (ARG)
  2463 ;;             _frexp (ARG)
  2464 ;;             ___fldiv (ARG)
  2465 ;;               ___flpack
  2466 ;;               ___fltol (ARG)
  2467 ;;                 ___flge (ARG)
  2468 ;;                 _frexp (ARG)
  2469 ;;                 ___flpack (ARG)
  2470 ;;           _frexp (ARG)
  2471 ;;           ___awtofl (ARG)
  2472 ;;             ___flpack
  2473 ;;             ___fltol (ARG)
  2474 ;;               ___flge (ARG)
  2475 ;;               _frexp (ARG)
  2476 ;;               ___flpack (ARG)
  2477 ;;         ___flmul (ARG)
  2478 ;;           ___flpack
  2479 ;;           ___fltol (ARG)
  2480 ;;             ___flge (ARG)
  2481 ;;             _frexp (ARG)
  2482 ;;             ___flpack (ARG)
  2483 ;;           ___awtofl (ARG)
  2484 ;;             ___flpack
  2485 ;;             ___fltol (ARG)
  2486 ;;               ___flge (ARG)
  2487 ;;               _frexp (ARG)
  2488 ;;               ___flpack (ARG)
  2489 ;;           _frexp (ARG)
  2490 ;;           ___fldiv (ARG)
  2491 ;;             ___flpack
  2492 ;;             ___fltol (ARG)
  2493 ;;               ___flge (ARG)
  2494 ;;               _frexp (ARG)
  2495 ;;               ___flpack (ARG)
  2496 ;;         ___awtofl (ARG)
  2497 ;;           ___flpack
  2498 ;;           ___fltol (ARG)
  2499 ;;             ___flge (ARG)
  2500 ;;             _frexp (ARG)
  2501 ;;             ___flpack (ARG)
  2502 ;;       _output_putch
  2503 ;;         _ser_putch
  2504 ;;       _format_putchar
  2505 ;;       _ser_putch
  2506 ;;       ___flge
  2507 ;;     _ser_putch
  2508 ;;     ___flge
  2509 ;;     ___flmul
  2510 ;;       ___flpack
  2511 ;;       ___fltol (ARG)
  2512 ;;         ___flge (ARG)
  2513 ;;         _frexp (ARG)
  2514 ;;         ___flpack (ARG)
  2515 ;;       ___awtofl (ARG)
  2516 ;;         ___flpack
  2517 ;;         ___fltol (ARG)
  2518 ;;           ___flge (ARG)
  2519 ;;           _frexp (ARG)
  2520 ;;           ___flpack (ARG)
  2521 ;;       _frexp (ARG)
  2522 ;;       ___fldiv (ARG)
  2523 ;;         ___flpack
  2524 ;;         ___fltol (ARG)
  2525 ;;           ___flge (ARG)
  2526 ;;           _frexp (ARG)
  2527 ;;           ___flpack (ARG)
  2528 ;;     ___flsub
  2529 ;;       ___fladd
  2530 ;;         ___flpack
  2531 ;;         ___fltol (ARG)
  2532 ;;           ___flge (ARG)
  2533 ;;           _frexp (ARG)
  2534 ;;           ___flpack (ARG)
  2535 ;;         ___flmul (ARG)
  2536 ;;           ___flpack
  2537 ;;           ___fltol (ARG)
  2538 ;;             ___flge (ARG)
  2539 ;;             _frexp (ARG)
  2540 ;;             ___flpack (ARG)
  2541 ;;           ___awtofl (ARG)
  2542 ;;             ___flpack
  2543 ;;             ___fltol (ARG)
  2544 ;;               ___flge (ARG)
  2545 ;;               _frexp (ARG)
  2546 ;;               ___flpack (ARG)
  2547 ;;           _frexp (ARG)
  2548 ;;           ___fldiv (ARG)
  2549 ;;             ___flpack
  2550 ;;             ___fltol (ARG)
  2551 ;;               ___flge (ARG)
  2552 ;;               _frexp (ARG)
  2553 ;;               ___flpack (ARG)
  2554 ;;         _frexp (ARG)
  2555 ;;         ___awtofl (ARG)
  2556 ;;           ___flpack
  2557 ;;           ___fltol (ARG)
  2558 ;;             ___flge (ARG)
  2559 ;;             _frexp (ARG)
  2560 ;;             ___flpack (ARG)
  2561 ;;       ___flmul (ARG)
  2562 ;;         ___flpack
  2563 ;;         ___fltol (ARG)
  2564 ;;           ___flge (ARG)
  2565 ;;           _frexp (ARG)
  2566 ;;           ___flpack (ARG)
  2567 ;;         ___awtofl (ARG)
  2568 ;;           ___flpack
  2569 ;;           ___fltol (ARG)
  2570 ;;             ___flge (ARG)
  2571 ;;             _frexp (ARG)
  2572 ;;             ___flpack (ARG)
  2573 ;;         _frexp (ARG)
  2574 ;;         ___fldiv (ARG)
  2575 ;;           ___flpack
  2576 ;;           ___fltol (ARG)
  2577 ;;             ___flge (ARG)
  2578 ;;             _frexp (ARG)
  2579 ;;             ___flpack (ARG)
  2580 ;;       ___awtofl (ARG)
  2581 ;;         ___flpack
  2582 ;;         ___fltol (ARG)
  2583 ;;           ___flge (ARG)
  2584 ;;           _frexp (ARG)
  2585 ;;           ___flpack (ARG)
  2586 ;;     ___fldiv
  2587 ;;       ___flpack
  2588 ;;       ___fltol (ARG)
  2589 ;;         ___flge (ARG)
  2590 ;;         _frexp (ARG)
  2591 ;;         ___flpack (ARG)
  2592 ;;     ___fltol
  2593 ;;       ___flge (ARG)
  2594 ;;       _frexp (ARG)
  2595 ;;       ___flpack (ARG)
  2596 ;;     _print_reading
  2597 ;;     _print_unit
  2598 ;;   _measure_inductance
  2599 ;;     _measure_freq
  2600 ;;     ___lwtofl
  2601 ;;       ___flpack
  2602 ;;       _measure_freq (ARG)
  2603 ;;     ___flge
  2604 ;;     ___flsub
  2605 ;;       ___fladd
  2606 ;;         ___flpack
  2607 ;;         ___fltol (ARG)
  2608 ;;           ___flge (ARG)
  2609 ;;           _frexp (ARG)
  2610 ;;           ___flpack (ARG)
  2611 ;;         ___flmul (ARG)
  2612 ;;           ___flpack
  2613 ;;           ___fltol (ARG)
  2614 ;;             ___flge (ARG)
  2615 ;;             _frexp (ARG)
  2616 ;;             ___flpack (ARG)
  2617 ;;           ___awtofl (ARG)
  2618 ;;             ___flpack
  2619 ;;             ___fltol (ARG)
  2620 ;;               ___flge (ARG)
  2621 ;;               _frexp (ARG)
  2622 ;;               ___flpack (ARG)
  2623 ;;           _frexp (ARG)
  2624 ;;           ___fldiv (ARG)
  2625 ;;             ___flpack
  2626 ;;             ___fltol (ARG)
  2627 ;;               ___flge (ARG)
  2628 ;;               _frexp (ARG)
  2629 ;;               ___flpack (ARG)
  2630 ;;         _frexp (ARG)
  2631 ;;         ___awtofl (ARG)
  2632 ;;           ___flpack
  2633 ;;           ___fltol (ARG)
  2634 ;;             ___flge (ARG)
  2635 ;;             _frexp (ARG)
  2636 ;;             ___flpack (ARG)
  2637 ;;       ___flmul (ARG)
  2638 ;;         ___flpack
  2639 ;;         ___fltol (ARG)
  2640 ;;           ___flge (ARG)
  2641 ;;           _frexp (ARG)
  2642 ;;           ___flpack (ARG)
  2643 ;;         ___awtofl (ARG)
  2644 ;;           ___flpack
  2645 ;;           ___fltol (ARG)
  2646 ;;             ___flge (ARG)
  2647 ;;             _frexp (ARG)
  2648 ;;             ___flpack (ARG)
  2649 ;;         _frexp (ARG)
  2650 ;;         ___fldiv (ARG)
  2651 ;;           ___flpack
  2652 ;;           ___fltol (ARG)
  2653 ;;             ___flge (ARG)
  2654 ;;             _frexp (ARG)
  2655 ;;             ___flpack (ARG)
  2656 ;;       ___awtofl (ARG)
  2657 ;;         ___flpack
  2658 ;;         ___fltol (ARG)
  2659 ;;           ___flge (ARG)
  2660 ;;           _frexp (ARG)
  2661 ;;           ___flpack (ARG)
  2662 ;;     ___flmul
  2663 ;;       ___flpack
  2664 ;;       ___fltol (ARG)
  2665 ;;         ___flge (ARG)
  2666 ;;         _frexp (ARG)
  2667 ;;         ___flpack (ARG)
  2668 ;;       ___awtofl (ARG)
  2669 ;;         ___flpack
  2670 ;;         ___fltol (ARG)
  2671 ;;           ___flge (ARG)
  2672 ;;           _frexp (ARG)
  2673 ;;           ___flpack (ARG)
  2674 ;;       _frexp (ARG)
  2675 ;;       ___fldiv (ARG)
  2676 ;;         ___flpack
  2677 ;;         ___fltol (ARG)
  2678 ;;           ___flge (ARG)
  2679 ;;           _frexp (ARG)
  2680 ;;           ___flpack (ARG)
  2681 ;;     ___fldiv
  2682 ;;       ___flpack
  2683 ;;       ___fltol (ARG)
  2684 ;;         ___flge (ARG)
  2685 ;;         _frexp (ARG)
  2686 ;;         ___flpack (ARG)
  2687 ;;     ___fltol
  2688 ;;       ___flge (ARG)
  2689 ;;       _frexp (ARG)
  2690 ;;       ___flpack (ARG)
  2691 ;;     _print_reading
  2692 ;;     _print_unit
  2693 ;;   _indicator
  2694 ;;
  2695 ;; _isr (ROOT)
  2696 ;;
  2697 ;; Address spaces:
  2698 ;;Name               Size   Autos  Total    Cost      Usage
  2699 ;;BANK3               55     13      4F       9       92.9%
  2700 ;;BITBANK3            55      0       0       8        0.0%
  2701 ;;SFR3                 0      0       0       4        0.0%
  2702 ;;BITSFR3              0      0       0       4        0.0%
  2703 ;;BANK2               60      0       0      11        0.0%
  2704 ;;BITBANK2            60      0       0      10        0.0%
  2705 ;;SFR2                 0      0       0       5        0.0%
  2706 ;;BITSFR2              0      0       0       5        0.0%
  2707 ;;SFR1                 0      0       0       2        0.0%
  2708 ;;BITSFR1              0      0       0       2        0.0%
  2709 ;;BANK1               50     46      4E       7       97.5%
  2710 ;;BITBANK1            50      0       0       6        0.0%
  2711 ;;CODE                 0      0       0       0        0.0%
  2712 ;;DATA                 0      0      FE      12        0.0%
  2713 ;;ABS                  0      0      F7       3        0.0%
  2714 ;;NULL                 0      0       0       0        0.0%
  2715 ;;STACK                0      0       7       2        0.0%
  2716 ;;BANK0               50     4F      50       5      100.0%
  2717 ;;BITBANK0            50      0       0       4        0.0%
  2718 ;;SFR0                 0      0       0       1        0.0%
  2719 ;;BITSFR0              0      0       0       1        0.0%
  2720 ;;COMMON               D      7       A       1       76.9%
  2721 ;;BITCOMMON            D      0       0       0        0.0%
  2722 ;;EEDATA             100      0       0       0        0.0%
  2723                           
  2724                           
  2725 ;; *************** function _main *****************
  2726 ;; Defined at:
  2727 ;;		line 115 in file "../../../src/LC-meter.c"
  2728 ;; Parameters:    Size  Location     Type
  2729 ;;		None
  2730 ;; Auto vars:     Size  Location     Type
  2731 ;;		None
  2732 ;; Return value:  Size  Location     Type
  2733 ;;		None               void
  2734 ;; Registers used:
  2735 ;;		wreg, fsr0l, fsr0h, status,2, status,0, btemp+1, pclath, cstack
  2736 ;; Tracked objects:
  2737 ;;		On entry : 17F/0
  2738 ;;		On exit  : 60/0
  2739 ;;		Unchanged: 0/0
  2740 ;; Data sizes:     COMMON   BANK0   BANK1   BANK3   BANK2
  2741 ;;      Params:         0       0       0       0       0
  2742 ;;      Locals:         0       0       0       0       0
  2743 ;;      Temps:          0       0       0       0       0
  2744 ;;      Totals:         0       0       0       0       0
  2745 ;;Total ram usage:        0 bytes
  2746 ;; Hardware stack levels required when called:    8
  2747 ;; This function calls:
  2748 ;;		_timer2_init
  2749 ;;		_delay10ms
  2750 ;;		_ser_init
  2751 ;;		_calibrate
  2752 ;;		_ser_puts
  2753 ;;		_measure_capacitance
  2754 ;;		_measure_inductance
  2755 ;;		_indicator
  2756 ;; This function is called by:
  2757 ;;		Startup code after reset
  2758 ;; This function uses a non-reentrant model
  2759 ;;
  2760  0877                     _main:	
  2761                           
  2762                           ;LC-meter.c: 116: bres = msecpart = msecs = seconds = 0;
  2763                           
  2764                           ; Regs used in _main: [wreg-fsr0h+status,2+status,0+btemp+1+pclath+cstack]
  2765  0877  1683               	bsf	3,5	;RP0=1, select bank3
  2766  0878  1703               	bsf	3,6	;RP1=1, select bank3
  2767  0879  01BC               	clrf	_seconds^(0+384)	;volatile
  2768  087A  01BD               	clrf	(_seconds+1)^(0+384)	;volatile
  2769  087B  01BE               	clrf	(_seconds+2)^(0+384)	;volatile
  2770  087C  01BF               	clrf	(_seconds+3)^(0+384)	;volatile
  2771  087D  083F               	movf	(_seconds+3)^(0+384),w	;volatile
  2772  087E  00BB               	movwf	(_msecs+3)^(0+384)	;volatile
  2773  087F  083E               	movf	(_seconds+2)^(0+384),w	;volatile
  2774  0880  00BA               	movwf	(_msecs+2)^(0+384)	;volatile
  2775  0881  083D               	movf	(_seconds+1)^(0+384),w	;volatile
  2776  0882  00B9               	movwf	(_msecs+1)^(0+384)	;volatile
  2777  0883  083C               	movf	_seconds^(0+384),w	;volatile
  2778  0884  00B8               	movwf	_msecs^(0+384)	;volatile
  2779  0885  0839               	movf	(_msecs^(0+384)+1),w	;volatile
  2780  0886  00DE               	movwf	(_msecpart+1)^(0+384)	;volatile
  2781  0887  0838               	movf	_msecs^(0+384),w	;volatile
  2782  0888  00DD               	movwf	_msecpart^(0+384)	;volatile
  2783  0889  085E               	movf	(_msecpart+1)^(0+384),w	;volatile
  2784  088A  00DC               	movwf	(_bres+1)^(0+384)	;volatile
  2785  088B  085D               	movf	_msecpart^(0+384),w	;volatile
  2786  088C  00DB               	movwf	_bres^(0+384)	;volatile
  2787                           
  2788                           ;LC-meter.c: 118: CCal = 1000;
  2789  088D  3044               	movlw	68
  2790  088E  00DA               	movwf	(_CCal+3)^(0+384)
  2791  088F  307A               	movlw	122
  2792  0890  00D9               	movwf	(_CCal+2)^(0+384)
  2793  0891  3005               	movlw	5
  2794  0892  01D8               	clrf	(_CCal+1)^(0+384)
  2795  0893  01D7               	clrf	_CCal^(0+384)
  2796                           
  2797                           ;LC-meter.c: 125: CMCON = 0b00000101;
  2798  0894  1303               	bcf	3,6	;RP1=0, select bank1
  2799  0895  009C               	movwf	28	;volatile
  2800                           
  2801                           ;LC-meter.c: 127: TRISA = 0b11001111;
  2802  0896  30CF               	movlw	207
  2803  0897  0085               	movwf	5	;volatile
  2804                           
  2805                           ;LC-meter.c: 129: T0CS = 1;
  2806  0898  1681               	bsf	1,5
  2807                           
  2808                           ;LC-meter.c: 130: T0SE = 1;
  2809  0899  1601               	bsf	1,4
  2810                           
  2811                           ;LC-meter.c: 141: nRBPU = 0;
  2812  089A  1381               	bcf	1,7
  2813                           
  2814                           ;LC-meter.c: 144: TRISC3 = 0;
  2815  089B  1187               	bcf	7,3
  2816                           
  2817                           ;LC-meter.c: 145: RC3 = ((1) == 0);
  2818  089C  1283               	bcf	3,5	;RP0=0, select bank0
  2819  089D  3080               	movlw	128
  2820  089E  1187               	bcf	7,3
  2821                           
  2822                           ;LC-meter.c: 147: SSPEN = 0;
  2823  089F  1294               	bcf	20,5
  2824                           
  2825                           ;LC-meter.c: 152: timer2_init(0b000 | 0x80);
  2826  08A0  120A  118A  27BF   	fcall	_timer2_init
      +       120A  158A         
  2827                           
  2828                           ;LC-meter.c: 157: TRISC1 = 0;
  2829  08A5  1087               	bcf	7,1
  2830                           
  2831                           ;LC-meter.c: 160: TRISC3 = 0;
  2832  08A6  1187               	bcf	7,3
  2833                           
  2834                           ;LC-meter.c: 162: TRISC0 = 1;
  2835  08A7  1407               	bsf	7,0
  2836                           
  2837                           ;LC-meter.c: 163: TRISC2 = 1;
  2838  08A8  1507               	bsf	7,2
  2839                           
  2840                           ;LC-meter.c: 173: TRISC4 = 1;
  2841  08A9  1607               	bsf	7,4
  2842                           
  2843                           ;LC-meter.c: 174: TRISC5 = 0;
  2844  08AA  1287               	bcf	7,5
  2845                           
  2846                           ;LC-meter.c: 176: RC5 = 0;
  2847  08AB  1283               	bcf	3,5	;RP0=0, select bank0
  2848  08AC  3032               	movlw	50
  2849  08AD  1287               	bcf	7,5
  2850                           
  2851                           ;LC-meter.c: 177: delay10ms(50);
  2852  08AE  00A2               	movwf	?_delay10ms
  2853  08AF  01A3               	clrf	?_delay10ms+1
  2854  08B0  160A  118A  2145   	fcall	_delay10ms
      +       120A  158A         
  2855  08B5  3032               	movlw	50
  2856                           
  2857                           ;LC-meter.c: 178: RC5 = 1;
  2858  08B6  1687               	bsf	7,5
  2859                           
  2860                           ;LC-meter.c: 179: delay10ms(50);
  2861  08B7  00A2               	movwf	?_delay10ms
  2862  08B8  01A3               	clrf	?_delay10ms+1
  2863  08B9  160A  118A  2145   	fcall	_delay10ms
      +       120A  158A         
  2864  08BE  3032               	movlw	50
  2865                           
  2866                           ;LC-meter.c: 180: RC5 = 0;
  2867  08BF  1287               	bcf	7,5
  2868                           
  2869                           ;LC-meter.c: 181: delay10ms(50);
  2870  08C0  00A2               	movwf	?_delay10ms
  2871  08C1  01A3               	clrf	?_delay10ms+1
  2872  08C2  160A  118A  2145   	fcall	_delay10ms
      +       120A  158A         
  2873  08C7  3032               	movlw	50
  2874                           
  2875                           ;LC-meter.c: 182: RC5 = 1;
  2876  08C8  1687               	bsf	7,5
  2877                           
  2878                           ;LC-meter.c: 183: delay10ms(50);
  2879  08C9  00A2               	movwf	?_delay10ms
  2880  08CA  01A3               	clrf	?_delay10ms+1
  2881  08CB  160A  118A  2145   	fcall	_delay10ms
      +       120A  158A         
  2882                           
  2883                           ;LC-meter.c: 184: RC5 = 0;
  2884  08D0  1287               	bcf	7,5
  2885                           
  2886                           ;LC-meter.c: 187: ser_init();
  2887  08D1  120A  158A  2045   	fcall	_ser_init
      +       120A  158A         
  2888                           
  2889                           ;LC-meter.c: 192: TRISC &= ~0b01000000;
  2890  08D6  1307               	bcf	7,6	;volatile
  2891  08D7  30C8               	movlw	200
  2892                           
  2893                           ;LC-meter.c: 194: PEIE = 1;
  2894  08D8  170B               	bsf	11,6
  2895                           
  2896                           ;LC-meter.c: 195: GIE = 1;
  2897  08D9  178B               	bsf	11,7
  2898                           
  2899                           ;LC-meter.c: 214: delay10ms(200);
  2900  08DA  1283               	bcf	3,5	;RP0=0, select bank0
  2901  08DB  00A2               	movwf	?_delay10ms
  2902  08DC  01A3               	clrf	?_delay10ms+1
  2903  08DD  160A  118A  2145   	fcall	_delay10ms
      +       120A  158A         
  2904                           
  2905                           ;LC-meter.c: 217: calibrate();
  2906  08E2  160A  118A  203C   	fcall	_calibrate
      +       120A  158A         
  2907  08E7                     l8987:	
  2908                           
  2909                           ;LC-meter.c: 230: ser_puts("...\r\n");
  2910  08E7  3055               	movlw	(STR_1-__stringbase)& (0+255)
  2911  08E8  120A  158A  25B3   	fcall	_ser_puts
      +       120A  158A         
  2912                           
  2913                           ;LC-meter.c: 231: if(RC4)
  2914  08ED  1283               	bcf	3,5	;RP0=0, select bank0
  2915  08EE  1303               	bcf	3,6	;RP1=0, select bank0
  2916  08EF  1E07               	btfss	7,4
  2917  08F0  28F7               	goto	l8993
  2918                           
  2919                           ;LC-meter.c: 232: measure_capacitance();
  2920  08F1  120A  158A  2112   	fcall	_measure_capacitance
      +       120A  158A         
  2921  08F6  28FC               	goto	l8995
  2922  08F7                     l8993:	
  2923                           
  2924                           ;LC-meter.c: 233: else
  2925                           ;LC-meter.c: 234: measure_inductance();
  2926  08F7  120A  118A  2195   	fcall	_measure_inductance
      +       120A  158A         
  2927  08FC                     l8995:	
  2928                           
  2929                           ;LC-meter.c: 237: delay10ms(30);
  2930                           
  2931                           ;LC-meter.c: 236: indicator(1);
  2932  08FC  301E               	movlw	30
  2933  08FD  1283               	bcf	3,5	;RP0=0, select bank0
  2934  08FE  1303               	bcf	3,6	;RP1=0, select bank0
  2935  08FF  00A2               	movwf	?_delay10ms
  2936  0900  01A3               	clrf	?_delay10ms+1
  2937  0901  160A  118A  2145   	fcall	_delay10ms
      +       120A  158A         
  2938                           
  2939                           ;LC-meter.c: 239: delay10ms(20);
  2940                           
  2941                           ;LC-meter.c: 238: indicator(0);
  2942  0906  3014               	movlw	20
  2943  0907  00A2               	movwf	?_delay10ms
  2944  0908  01A3               	clrf	?_delay10ms+1
  2945  0909  160A  118A  2145   	fcall	_delay10ms
      +       120A  158A         
  2946                           
  2947                           ;LC-meter.c: 240: }
  2948  090E  28E7               	goto	l8987
  2949  090F                     __end_of_main:	
  2950                           
  2951                           	psect	text1118
  2952  11C7                     __ptext1118:	
  2953 ;; =============== function _pow ends ============
  2954                           
  2955                           
  2956 ;; *************** function _log10 *****************
  2957 ;; Defined at:
  2958 ;;		line 40 in file "C:\Program Files (x86)\HI-TECH Software\PICC\9.83\sources\log.c"
  2959 ;; Parameters:    Size  Location     Type
  2960 ;;  x               4   26[BANK1 ] unsigned char 
  2961 ;; Auto vars:     Size  Location     Type
  2962 ;;		None
  2963 ;; Return value:  Size  Location     Type
  2964 ;;                  4   26[BANK1 ] unsigned char 
  2965 ;; Registers used:
  2966 ;;		wreg, fsr0l, fsr0h, status,2, status,0, btemp+1, pclath, cstack
  2967 ;; Tracked objects:
  2968 ;;		On entry : 60/20
  2969 ;;		On exit  : 60/20
  2970 ;;		Unchanged: FFE9F/0
  2971 ;; Data sizes:     COMMON   BANK0   BANK1   BANK3   BANK2
  2972 ;;      Params:         0       0       4       0       0
  2973 ;;      Locals:         0       0       4       0       0
  2974 ;;      Temps:          0       0       0       0       0
  2975 ;;      Totals:         0       0       8       0       0
  2976 ;;Total ram usage:        8 bytes
  2977 ;; Hardware stack levels used:    1
  2978 ;; Hardware stack levels required when called:    5
  2979 ;; This function calls:
  2980 ;;		_log
  2981 ;;		___flmul
  2982 ;; This function is called by:
  2983 ;;		_format_double
  2984 ;; This function uses a non-reentrant model
  2985 ;;
  2986  11C7                     _log10:	
  2987                           
  2988                           ; Regs used in _log10: [wreg-fsr0h+status,2+status,0+btemp+1+pclath+cstack]
  2989  11C7  083D               	movf	(log10@x+3)^(0+128),w
  2990  11C8  00B7               	movwf	(?_log+3)^(0+128)
  2991  11C9  083C               	movf	(log10@x+2)^(0+128),w
  2992  11CA  00B6               	movwf	(?_log+2)^(0+128)
  2993  11CB  083B               	movf	(log10@x+1)^(0+128),w
  2994  11CC  00B5               	movwf	(?_log+1)^(0+128)
  2995  11CD  083A               	movf	log10@x^(0+128),w
  2996  11CE  00B4               	movwf	?_log^(0+128)
  2997  11CF  2680               	fcall	_log
  2998  11D0  0837               	movf	(?_log+3)^(0+128),w
  2999  11D1  00C1               	movwf	(_log10$5208+3)^(0+128)
  3000  11D2  0836               	movf	(?_log+2)^(0+128),w
  3001  11D3  00C0               	movwf	(_log10$5208+2)^(0+128)
  3002  11D4  0835               	movf	(?_log+1)^(0+128),w
  3003  11D5  00BF               	movwf	(_log10$5208+1)^(0+128)
  3004  11D6  0834               	movf	?_log^(0+128),w
  3005  11D7  00BE               	movwf	_log10$5208^(0+128)
  3006  11D8  303E               	movlw	62
  3007  11D9  1283               	bcf	3,5	;RP0=0, select bank0
  3008  11DA  00C8               	movwf	?___flmul+3
  3009  11DB  30DE               	movlw	222
  3010  11DC  00C7               	movwf	?___flmul+2
  3011  11DD  305B               	movlw	91
  3012  11DE  00C6               	movwf	?___flmul+1
  3013  11DF  30D9               	movlw	217
  3014  11E0  00C5               	movwf	?___flmul
  3015  11E1  1683               	bsf	3,5	;RP0=1, select bank1
  3016  11E2  0841               	movf	(_log10$5208+3)^(0+128),w
  3017  11E3  1283               	bcf	3,5	;RP0=0, select bank0
  3018  11E4  00CC               	movwf	?___flmul+7
  3019  11E5  1683               	bsf	3,5	;RP0=1, select bank1
  3020  11E6  0840               	movf	(_log10$5208+2)^(0+128),w
  3021  11E7  1283               	bcf	3,5	;RP0=0, select bank0
  3022  11E8  00CB               	movwf	?___flmul+6
  3023  11E9  1683               	bsf	3,5	;RP0=1, select bank1
  3024  11EA  083F               	movf	(_log10$5208+1)^(0+128),w
  3025  11EB  1283               	bcf	3,5	;RP0=0, select bank0
  3026  11EC  00CA               	movwf	?___flmul+5
  3027  11ED  1683               	bsf	3,5	;RP0=1, select bank1
  3028  11EE  083E               	movf	_log10$5208^(0+128),w
  3029  11EF  1283               	bcf	3,5	;RP0=0, select bank0
  3030  11F0  00C9               	movwf	?___flmul+4
  3031  11F1  120A  118A  264B   	fcall	___flmul
  3032  11F4  0848               	movf	?___flmul+3,w
  3033  11F5  1683               	bsf	3,5	;RP0=1, select bank1
  3034  11F6  00BD               	movwf	(?_log10+3)^(0+128)
  3035  11F7  1283               	bcf	3,5	;RP0=0, select bank0
  3036  11F8  0847               	movf	?___flmul+2,w
  3037  11F9  1683               	bsf	3,5	;RP0=1, select bank1
  3038  11FA  00BC               	movwf	(?_log10+2)^(0+128)
  3039  11FB  1283               	bcf	3,5	;RP0=0, select bank0
  3040  11FC  0846               	movf	?___flmul+1,w
  3041  11FD  1683               	bsf	3,5	;RP0=1, select bank1
  3042  11FE  00BB               	movwf	(?_log10+1)^(0+128)
  3043  11FF  1283               	bcf	3,5	;RP0=0, select bank0
  3044  1200  0845               	movf	?___flmul,w
  3045  1201  1683               	bsf	3,5	;RP0=1, select bank1
  3046  1202  00BA               	movwf	?_log10^(0+128)
  3047  1203  0008               	return
  3048  1204                     __end_of_log10:	
  3049  1204                     __ptext1119:	
  3050 ;; =============== function _log10 ends ============
  3051                           
  3052                           
  3053 ;; *************** function _exp *****************
  3054 ;; Defined at:
  3055 ;;		line 13 in file "C:\Program Files (x86)\HI-TECH Software\PICC\9.83\sources\exp.c"
  3056 ;; Parameters:    Size  Location     Type
  3057 ;;  x               4   26[BANK1 ] unsigned char 
  3058 ;; Auto vars:     Size  Location     Type
  3059 ;;  exp             2   34[BANK1 ] int 
  3060 ;;  sign            1   36[BANK1 ] unsigned char 
  3061 ;; Return value:  Size  Location     Type
  3062 ;;                  4   26[BANK1 ] unsigned char 
  3063 ;; Registers used:
  3064 ;;		wreg, fsr0l, fsr0h, status,2, status,0, btemp+1, pclath, cstack
  3065 ;; Tracked objects:
  3066 ;;		On entry : 60/20
  3067 ;;		On exit  : 60/20
  3068 ;;		Unchanged: FFE00/0
  3069 ;; Data sizes:     COMMON   BANK0   BANK1   BANK3   BANK2
  3070 ;;      Params:         0       0       4       0       0
  3071 ;;      Locals:         0       0       7       0       0
  3072 ;;      Temps:          0       0       0       0       0
  3073 ;;      Totals:         0       0      11       0       0
  3074 ;;Total ram usage:       11 bytes
  3075 ;; Hardware stack levels used:    1
  3076 ;; Hardware stack levels required when called:    4
  3077 ;; This function calls:
  3078 ;;		___flge
  3079 ;;		___flneg
  3080 ;;		___flmul
  3081 ;;		_floor
  3082 ;;		___fltol
  3083 ;;		___awtofl
  3084 ;;		___flsub
  3085 ;;		_eval_poly
  3086 ;;		_ldexp
  3087 ;;		___fldiv
  3088 ;; This function is called by:
  3089 ;;		_pow
  3090 ;; This function uses a non-reentrant model
  3091 ;;
  3092  1204                     _exp:	
  3093                           
  3094                           ; Regs used in _exp: [wreg-fsr0h+status,2+status,0+btemp+1+pclath+cstack]
  3095  1204  083D               	movf	(exp@x+3)^(0+128),w
  3096  1205  043C               	iorwf	(exp@x+2)^(0+128),w
  3097  1206  043B               	iorwf	(exp@x+1)^(0+128),w
  3098  1207  043A               	iorwf	exp@x^(0+128),w
  3099  1208  1D03               	skipz
  3100  1209  2A12               	goto	l8733
  3101  120A  303F               	movlw	63
  3102  120B  00BD               	movwf	(?_exp+3)^(0+128)
  3103  120C  3080               	movlw	128
  3104  120D  00BC               	movwf	(?_exp+2)^(0+128)
  3105  120E  3000               	movlw	0
  3106  120F  01BB               	clrf	(?_exp+1)^(0+128)
  3107  1210  01BA               	clrf	?_exp^(0+128)
  3108  1211  0008               	return
  3109  1212                     l8733:	
  3110  1212  3044               	movlw	68
  3111  1213  1283               	bcf	3,5	;RP0=0, select bank0
  3112  1214  00A3               	movwf	?___flge+3
  3113  1215  3031               	movlw	49
  3114  1216  00A2               	movwf	?___flge+2
  3115  1217  3072               	movlw	114
  3116  1218  00A1               	movwf	?___flge+1
  3117  1219  3018               	movlw	24
  3118  121A  00A0               	movwf	?___flge
  3119  121B  1683               	bsf	3,5	;RP0=1, select bank1
  3120  121C  083D               	movf	(exp@x+3)^(0+128),w
  3121  121D  1283               	bcf	3,5	;RP0=0, select bank0
  3122  121E  00A7               	movwf	?___flge+7
  3123  121F  1683               	bsf	3,5	;RP0=1, select bank1
  3124  1220  083C               	movf	(exp@x+2)^(0+128),w
  3125  1221  1283               	bcf	3,5	;RP0=0, select bank0
  3126  1222  00A6               	movwf	?___flge+6
  3127  1223  1683               	bsf	3,5	;RP0=1, select bank1
  3128  1224  083B               	movf	(exp@x+1)^(0+128),w
  3129  1225  1283               	bcf	3,5	;RP0=0, select bank0
  3130  1226  00A5               	movwf	?___flge+5
  3131  1227  1683               	bsf	3,5	;RP0=1, select bank1
  3132  1228  083A               	movf	exp@x^(0+128),w
  3133  1229  1283               	bcf	3,5	;RP0=0, select bank0
  3134  122A  00A4               	movwf	?___flge+4
  3135  122B  120A  158A  2739   	fcall	___flge
      +       160A  118A         
  3136  1230  1803               	btfsc	3,0
  3137  1231  2A3B               	goto	l8743
  3138  1232  307F               	movlw	127
  3139  1233  1683               	bsf	3,5	;RP0=1, select bank1
  3140  1234  00BD               	movwf	(?_exp+3)^(0+128)
  3141  1235  00BC               	movwf	(?_exp+2)^(0+128)
  3142  1236  30FE               	movlw	254
  3143  1237  00BB               	movwf	(?_exp+1)^(0+128)
  3144  1238  30F7               	movlw	247
  3145  1239  00BA               	movwf	?_exp^(0+128)
  3146  123A  0008               	return
  3147  123B                     l8743:	
  3148  123B  1683               	bsf	3,5	;RP0=1, select bank1
  3149  123C  083D               	movf	(exp@x+3)^(0+128),w
  3150  123D  1283               	bcf	3,5	;RP0=0, select bank0
  3151  123E  00A3               	movwf	?___flge+3
  3152  123F  1683               	bsf	3,5	;RP0=1, select bank1
  3153  1240  083C               	movf	(exp@x+2)^(0+128),w
  3154  1241  1283               	bcf	3,5	;RP0=0, select bank0
  3155  1242  00A2               	movwf	?___flge+2
  3156  1243  1683               	bsf	3,5	;RP0=1, select bank1
  3157  1244  083B               	movf	(exp@x+1)^(0+128),w
  3158  1245  1283               	bcf	3,5	;RP0=0, select bank0
  3159  1246  00A1               	movwf	?___flge+1
  3160  1247  1683               	bsf	3,5	;RP0=1, select bank1
  3161  1248  083A               	movf	exp@x^(0+128),w
  3162  1249  1283               	bcf	3,5	;RP0=0, select bank0
  3163  124A  00A0               	movwf	?___flge
  3164  124B  30C4               	movlw	196
  3165  124C  00A7               	movwf	?___flge+7
  3166  124D  303A               	movlw	58
  3167  124E  00A6               	movwf	?___flge+6
  3168  124F  3048               	movlw	72
  3169  1250  00A5               	movwf	?___flge+5
  3170  1251  3087               	movlw	135
  3171  1252  00A4               	movwf	?___flge+4
  3172  1253  120A  158A  2739   	fcall	___flge
      +       160A  118A         
  3173  1258  1803               	btfsc	3,0
  3174  1259  2A60               	goto	l8747
  3175  125A  1683               	bsf	3,5	;RP0=1, select bank1
  3176  125B  01BA               	clrf	?_exp^(0+128)
  3177  125C  01BB               	clrf	(?_exp+1)^(0+128)
  3178  125D  01BC               	clrf	(?_exp+2)^(0+128)
  3179  125E  01BD               	clrf	(?_exp+3)^(0+128)
  3180  125F  0008               	return
  3181  1260                     l8747:	
  3182  1260  1683               	bsf	3,5	;RP0=1, select bank1
  3183  1261  083D               	movf	(exp@x+3)^(0+128),w
  3184  1262  1283               	bcf	3,5	;RP0=0, select bank0
  3185  1263  00A3               	movwf	?___flge+3
  3186  1264  1683               	bsf	3,5	;RP0=1, select bank1
  3187  1265  083C               	movf	(exp@x+2)^(0+128),w
  3188  1266  1283               	bcf	3,5	;RP0=0, select bank0
  3189  1267  00A2               	movwf	?___flge+2
  3190  1268  1683               	bsf	3,5	;RP0=1, select bank1
  3191  1269  083B               	movf	(exp@x+1)^(0+128),w
  3192  126A  1283               	bcf	3,5	;RP0=0, select bank0
  3193  126B  00A1               	movwf	?___flge+1
  3194  126C  1683               	bsf	3,5	;RP0=1, select bank1
  3195  126D  083A               	movf	exp@x^(0+128),w
  3196  126E  1283               	bcf	3,5	;RP0=0, select bank0
  3197  126F  00A0               	movwf	?___flge
  3198  1270  01A4               	clrf	?___flge+4
  3199  1271  01A5               	clrf	?___flge+5
  3200  1272  01A6               	clrf	?___flge+6
  3201  1273  01A7               	clrf	?___flge+7
  3202  1274  120A  158A  2739   	fcall	___flge
      +       160A  118A         
  3203  1279  3000               	movlw	0
  3204  127A  1C03               	btfss	3,0
  3205  127B  3001               	movlw	1
  3206  127C  1683               	bsf	3,5	;RP0=1, select bank1
  3207  127D  00C4               	movwf	exp@sign^(0+128)
  3208  127E  0844               	movf	exp@sign^(0+128),w
  3209  127F  1903               	btfsc	3,2
  3210  1280  2A92               	goto	l8753
  3211  1281  083D               	movf	(exp@x+3)^(0+128),w
  3212  1282  00F7               	movwf	?___flneg+3
  3213  1283  083C               	movf	(exp@x+2)^(0+128),w
  3214  1284  00F6               	movwf	?___flneg+2
  3215  1285  083B               	movf	(exp@x+1)^(0+128),w
  3216  1286  00F5               	movwf	?___flneg+1
  3217  1287  083A               	movf	exp@x^(0+128),w
  3218  1288  00F4               	movwf	?___flneg
  3219  1289  239A               	fcall	___flneg
  3220  128A  0877               	movf	?___flneg+3,w
  3221  128B  00BD               	movwf	(exp@x+3)^(0+128)
  3222  128C  0876               	movf	?___flneg+2,w
  3223  128D  00BC               	movwf	(exp@x+2)^(0+128)
  3224  128E  0875               	movf	?___flneg+1,w
  3225  128F  00BB               	movwf	(exp@x+1)^(0+128)
  3226  1290  0874               	movf	?___flneg,w
  3227  1291  00BA               	movwf	exp@x^(0+128)
  3228  1292                     l8753:	
  3229  1292  303F               	movlw	63
  3230  1293  1283               	bcf	3,5	;RP0=0, select bank0
  3231  1294  00C8               	movwf	?___flmul+3
  3232  1295  30B8               	movlw	184
  3233  1296  00C7               	movwf	?___flmul+2
  3234  1297  30AA               	movlw	170
  3235  1298  00C6               	movwf	?___flmul+1
  3236  1299  303B               	movlw	59
  3237  129A  00C5               	movwf	?___flmul
  3238  129B  1683               	bsf	3,5	;RP0=1, select bank1
  3239  129C  083D               	movf	(exp@x+3)^(0+128),w
  3240  129D  1283               	bcf	3,5	;RP0=0, select bank0
  3241  129E  00CC               	movwf	?___flmul+7
  3242  129F  1683               	bsf	3,5	;RP0=1, select bank1
  3243  12A0  083C               	movf	(exp@x+2)^(0+128),w
  3244  12A1  1283               	bcf	3,5	;RP0=0, select bank0
  3245  12A2  00CB               	movwf	?___flmul+6
  3246  12A3  1683               	bsf	3,5	;RP0=1, select bank1
  3247  12A4  083B               	movf	(exp@x+1)^(0+128),w
  3248  12A5  1283               	bcf	3,5	;RP0=0, select bank0
  3249  12A6  00CA               	movwf	?___flmul+5
  3250  12A7  1683               	bsf	3,5	;RP0=1, select bank1
  3251  12A8  083A               	movf	exp@x^(0+128),w
  3252  12A9  1283               	bcf	3,5	;RP0=0, select bank0
  3253  12AA  00C9               	movwf	?___flmul+4
  3254  12AB  120A  118A  264B   	fcall	___flmul
      +       160A  118A         
  3255  12B0  0848               	movf	?___flmul+3,w
  3256  12B1  1683               	bsf	3,5	;RP0=1, select bank1
  3257  12B2  00BD               	movwf	(exp@x+3)^(0+128)
  3258  12B3  1283               	bcf	3,5	;RP0=0, select bank0
  3259  12B4  0847               	movf	?___flmul+2,w
  3260  12B5  1683               	bsf	3,5	;RP0=1, select bank1
  3261  12B6  00BC               	movwf	(exp@x+2)^(0+128)
  3262  12B7  1283               	bcf	3,5	;RP0=0, select bank0
  3263  12B8  0846               	movf	?___flmul+1,w
  3264  12B9  1683               	bsf	3,5	;RP0=1, select bank1
  3265  12BA  00BB               	movwf	(exp@x+1)^(0+128)
  3266  12BB  1283               	bcf	3,5	;RP0=0, select bank0
  3267  12BC  0845               	movf	?___flmul,w
  3268  12BD  1683               	bsf	3,5	;RP0=1, select bank1
  3269  12BE  00BA               	movwf	exp@x^(0+128)
  3270  12BF  083D               	movf	(exp@x+3)^(0+128),w
  3271  12C0  1283               	bcf	3,5	;RP0=0, select bank0
  3272  12C1  00EA               	movwf	?_floor+3
  3273  12C2  1683               	bsf	3,5	;RP0=1, select bank1
  3274  12C3  083C               	movf	(exp@x+2)^(0+128),w
  3275  12C4  1283               	bcf	3,5	;RP0=0, select bank0
  3276  12C5  00E9               	movwf	?_floor+2
  3277  12C6  1683               	bsf	3,5	;RP0=1, select bank1
  3278  12C7  083B               	movf	(exp@x+1)^(0+128),w
  3279  12C8  1283               	bcf	3,5	;RP0=0, select bank0
  3280  12C9  00E8               	movwf	?_floor+1
  3281  12CA  1683               	bsf	3,5	;RP0=1, select bank1
  3282  12CB  083A               	movf	exp@x^(0+128),w
  3283  12CC  1283               	bcf	3,5	;RP0=0, select bank0
  3284  12CD  00E7               	movwf	?_floor
  3285  12CE  247A  160A  118A   	fcall	_floor
  3286  12D1  1283               	bcf	3,5	;RP0=0, select bank0
  3287  12D2  086A               	movf	?_floor+3,w
  3288  12D3  00AB               	movwf	?___fltol+3
  3289  12D4  0869               	movf	?_floor+2,w
  3290  12D5  00AA               	movwf	?___fltol+2
  3291  12D6  0868               	movf	?_floor+1,w
  3292  12D7  00A9               	movwf	?___fltol+1
  3293  12D8  0867               	movf	?_floor,w
  3294  12D9  00A8               	movwf	?___fltol
  3295  12DA  23A3  160A  118A   	fcall	___fltol
  3296  12DD  0829               	movf	?___fltol+1,w
  3297  12DE  1683               	bsf	3,5	;RP0=1, select bank1
  3298  12DF  00C3               	movwf	(exp@exp+1)^(0+128)
  3299  12E0  1283               	bcf	3,5	;RP0=0, select bank0
  3300  12E1  0828               	movf	?___fltol,w
  3301  12E2  1683               	bsf	3,5	;RP0=1, select bank1
  3302  12E3  00C2               	movwf	exp@exp^(0+128)
  3303  12E4  0843               	movf	(exp@exp+1)^(0+128),w
  3304  12E5  1283               	bcf	3,5	;RP0=0, select bank0
  3305  12E6  00B3               	movwf	?___awtofl+1
  3306  12E7  1683               	bsf	3,5	;RP0=1, select bank1
  3307  12E8  0842               	movf	exp@exp^(0+128),w
  3308  12E9  1283               	bcf	3,5	;RP0=0, select bank0
  3309  12EA  00B2               	movwf	?___awtofl
  3310  12EB  2798               	fcall	___awtofl
  3311  12EC  0835               	movf	?___awtofl+3,w
  3312  12ED  00EA               	movwf	?___flsub+3
  3313  12EE  0834               	movf	?___awtofl+2,w
  3314  12EF  00E9               	movwf	?___flsub+2
  3315  12F0  0833               	movf	?___awtofl+1,w
  3316  12F1  00E8               	movwf	?___flsub+1
  3317  12F2  0832               	movf	?___awtofl,w
  3318  12F3  00E7               	movwf	?___flsub
  3319  12F4  1683               	bsf	3,5	;RP0=1, select bank1
  3320  12F5  083D               	movf	(exp@x+3)^(0+128),w
  3321  12F6  1283               	bcf	3,5	;RP0=0, select bank0
  3322  12F7  00EE               	movwf	?___flsub+7
  3323  12F8  1683               	bsf	3,5	;RP0=1, select bank1
  3324  12F9  083C               	movf	(exp@x+2)^(0+128),w
  3325  12FA  1283               	bcf	3,5	;RP0=0, select bank0
  3326  12FB  00ED               	movwf	?___flsub+6
  3327  12FC  1683               	bsf	3,5	;RP0=1, select bank1
  3328  12FD  083B               	movf	(exp@x+1)^(0+128),w
  3329  12FE  1283               	bcf	3,5	;RP0=0, select bank0
  3330  12FF  00EC               	movwf	?___flsub+5
  3331  1300  1683               	bsf	3,5	;RP0=1, select bank1
  3332  1301  083A               	movf	exp@x^(0+128),w
  3333  1302  1283               	bcf	3,5	;RP0=0, select bank0
  3334  1303  00EB               	movwf	?___flsub+4
  3335  1304  120A  118A  26E3   	fcall	___flsub
      +       160A  118A         
  3336  1309  086A               	movf	?___flsub+3,w
  3337  130A  1683               	bsf	3,5	;RP0=1, select bank1
  3338  130B  00BD               	movwf	(exp@x+3)^(0+128)
  3339  130C  1283               	bcf	3,5	;RP0=0, select bank0
  3340  130D  0869               	movf	?___flsub+2,w
  3341  130E  1683               	bsf	3,5	;RP0=1, select bank1
  3342  130F  00BC               	movwf	(exp@x+2)^(0+128)
  3343  1310  1283               	bcf	3,5	;RP0=0, select bank0
  3344  1311  0868               	movf	?___flsub+1,w
  3345  1312  1683               	bsf	3,5	;RP0=1, select bank1
  3346  1313  00BB               	movwf	(exp@x+1)^(0+128)
  3347  1314  1283               	bcf	3,5	;RP0=0, select bank0
  3348  1315  0867               	movf	?___flsub,w
  3349  1316  1683               	bsf	3,5	;RP0=1, select bank1
  3350  1317  00BA               	movwf	exp@x^(0+128)
  3351  1318  083D               	movf	(exp@x+3)^(0+128),w
  3352  1319  00A7               	movwf	(?_eval_poly+3)^(0+128)
  3353  131A  083C               	movf	(exp@x+2)^(0+128),w
  3354  131B  00A6               	movwf	(?_eval_poly+2)^(0+128)
  3355  131C  083B               	movf	(exp@x+1)^(0+128),w
  3356  131D  00A5               	movwf	(?_eval_poly+1)^(0+128)
  3357  131E  083A               	movf	exp@x^(0+128),w
  3358  131F  00A4               	movwf	?_eval_poly^(0+128)
  3359  1320  3001               	movlw	(exp@coeff-__stringbase)& (0+255)
  3360  1321  00A8               	movwf	(?_eval_poly+4)^(0+128)
  3361  1322  3009               	movlw	9
  3362  1323  00A9               	movwf	(?_eval_poly^(0+128)+5)
  3363  1324  01AA               	clrf	((?_eval_poly+1)^(0+128)+5)
  3364  1325  120A  118A  2011   	fcall	_eval_poly
      +       160A  118A         
  3365  132A  0827               	movf	(?_eval_poly+3)^(0+128),w
  3366  132B  1283               	bcf	3,5	;RP0=0, select bank0
  3367  132C  00EA               	movwf	?_ldexp+3
  3368  132D  1683               	bsf	3,5	;RP0=1, select bank1
  3369  132E  0826               	movf	(?_eval_poly+2)^(0+128),w
  3370  132F  1283               	bcf	3,5	;RP0=0, select bank0
  3371  1330  00E9               	movwf	?_ldexp+2
  3372  1331  1683               	bsf	3,5	;RP0=1, select bank1
  3373  1332  0825               	movf	(?_eval_poly+1)^(0+128),w
  3374  1333  1283               	bcf	3,5	;RP0=0, select bank0
  3375  1334  00E8               	movwf	?_ldexp+1
  3376  1335  1683               	bsf	3,5	;RP0=1, select bank1
  3377  1336  0824               	movf	?_eval_poly^(0+128),w
  3378  1337  1283               	bcf	3,5	;RP0=0, select bank0
  3379  1338  00E7               	movwf	?_ldexp
  3380  1339  1683               	bsf	3,5	;RP0=1, select bank1
  3381  133A  0843               	movf	(exp@exp+1)^(0+128),w
  3382  133B  1283               	bcf	3,5	;RP0=0, select bank0
  3383  133C  00EC               	movwf	?_ldexp+5
  3384  133D  1683               	bsf	3,5	;RP0=1, select bank1
  3385  133E  0842               	movf	exp@exp^(0+128),w
  3386  133F  1283               	bcf	3,5	;RP0=0, select bank0
  3387  1340  00EB               	movwf	?_ldexp+4
  3388  1341  23FA  160A  118A   	fcall	_ldexp
  3389  1344  086A               	movf	?_ldexp+3,w
  3390  1345  1683               	bsf	3,5	;RP0=1, select bank1
  3391  1346  00BD               	movwf	(exp@x+3)^(0+128)
  3392  1347  1283               	bcf	3,5	;RP0=0, select bank0
  3393  1348  0869               	movf	?_ldexp+2,w
  3394  1349  1683               	bsf	3,5	;RP0=1, select bank1
  3395  134A  00BC               	movwf	(exp@x+2)^(0+128)
  3396  134B  1283               	bcf	3,5	;RP0=0, select bank0
  3397  134C  0868               	movf	?_ldexp+1,w
  3398  134D  1683               	bsf	3,5	;RP0=1, select bank1
  3399  134E  00BB               	movwf	(exp@x+1)^(0+128)
  3400  134F  1283               	bcf	3,5	;RP0=0, select bank0
  3401  1350  0867               	movf	?_ldexp,w
  3402  1351  1683               	bsf	3,5	;RP0=1, select bank1
  3403  1352  00BA               	movwf	exp@x^(0+128)
  3404  1353  0844               	movf	exp@sign^(0+128),w
  3405  1354  1903               	btfsc	3,2
  3406  1355  0008               	return
  3407  1356  307F               	movlw	127
  3408  1357  00C1               	movwf	(_exp$4863+3)^(0+128)
  3409  1358  00C0               	movwf	(_exp$4863+2)^(0+128)
  3410  1359  30FE               	movlw	254
  3411  135A  00BF               	movwf	(_exp$4863+1)^(0+128)
  3412  135B  30F7               	movlw	247
  3413  135C  00BE               	movwf	_exp$4863^(0+128)
  3414  135D  083D               	movf	(exp@x+3)^(0+128),w
  3415  135E  0641               	xorwf	(_exp$4863+3)^(0+128),w
  3416  135F  1D03               	skipz
  3417  1360  2B6B               	goto	u3385
  3418  1361  083C               	movf	(exp@x+2)^(0+128),w
  3419  1362  0640               	xorwf	(_exp$4863+2)^(0+128),w
  3420  1363  1D03               	skipz
  3421  1364  2B6B               	goto	u3385
  3422  1365  083B               	movf	(exp@x+1)^(0+128),w
  3423  1366  063F               	xorwf	(_exp$4863+1)^(0+128),w
  3424  1367  1D03               	skipz
  3425  1368  2B6B               	goto	u3385
  3426  1369  083A               	movf	exp@x^(0+128),w
  3427  136A  063E               	xorwf	_exp$4863^(0+128),w
  3428  136B                     u3385:	
  3429  136B  1D03               	skipz
  3430  136C  2B72               	goto	l8771
  3431  136D  01BA               	clrf	?_exp^(0+128)
  3432  136E  01BB               	clrf	(?_exp+1)^(0+128)
  3433  136F  01BC               	clrf	(?_exp+2)^(0+128)
  3434  1370  01BD               	clrf	(?_exp+3)^(0+128)
  3435  1371  0008               	return
  3436  1372                     l8771:	
  3437  1372  083D               	movf	(exp@x+3)^(0+128),w
  3438  1373  1283               	bcf	3,5	;RP0=0, select bank0
  3439  1374  00B5               	movwf	?___fldiv+3
  3440  1375  1683               	bsf	3,5	;RP0=1, select bank1
  3441  1376  083C               	movf	(exp@x+2)^(0+128),w
  3442  1377  1283               	bcf	3,5	;RP0=0, select bank0
  3443  1378  00B4               	movwf	?___fldiv+2
  3444  1379  1683               	bsf	3,5	;RP0=1, select bank1
  3445  137A  083B               	movf	(exp@x+1)^(0+128),w
  3446  137B  1283               	bcf	3,5	;RP0=0, select bank0
  3447  137C  00B3               	movwf	?___fldiv+1
  3448  137D  1683               	bsf	3,5	;RP0=1, select bank1
  3449  137E  083A               	movf	exp@x^(0+128),w
  3450  137F  1283               	bcf	3,5	;RP0=0, select bank0
  3451  1380  00B2               	movwf	?___fldiv
  3452  1381  303F               	movlw	63
  3453  1382  00B9               	movwf	?___fldiv+7
  3454  1383  3080               	movlw	128
  3455  1384  00B8               	movwf	?___fldiv+6
  3456  1385  01B7               	clrf	?___fldiv+5
  3457  1386  01B6               	clrf	?___fldiv+4
  3458  1387  120A  158A  2785   	fcall	___fldiv
  3459  138A  0835               	movf	?___fldiv+3,w
  3460  138B  1683               	bsf	3,5	;RP0=1, select bank1
  3461  138C  00BD               	movwf	(?_exp+3)^(0+128)
  3462  138D  1283               	bcf	3,5	;RP0=0, select bank0
  3463  138E  0834               	movf	?___fldiv+2,w
  3464  138F  1683               	bsf	3,5	;RP0=1, select bank1
  3465  1390  00BC               	movwf	(?_exp+2)^(0+128)
  3466  1391  1283               	bcf	3,5	;RP0=0, select bank0
  3467  1392  0833               	movf	?___fldiv+1,w
  3468  1393  1683               	bsf	3,5	;RP0=1, select bank1
  3469  1394  00BB               	movwf	(?_exp+1)^(0+128)
  3470  1395  1283               	bcf	3,5	;RP0=0, select bank0
  3471  1396  0832               	movf	?___fldiv,w
  3472  1397  1683               	bsf	3,5	;RP0=1, select bank1
  3473  1398  00BA               	movwf	?_exp^(0+128)
  3474  1399  0008               	return
  3475  139A                     __end_of_exp:	
  3476  139A                     __ptext1144:	
  3477 ;; =============== function ___fltol ends ============
  3478                           
  3479                           
  3480 ;; *************** function ___flneg *****************
  3481 ;; Defined at:
  3482 ;;		line 16 in file "C:\Program Files (x86)\HI-TECH Software\PICC\9.83\sources\flneg.c"
  3483 ;; Parameters:    Size  Location     Type
  3484 ;;  f1              4    3[COMMON] long 
  3485 ;; Auto vars:     Size  Location     Type
  3486 ;;		None
  3487 ;; Return value:  Size  Location     Type
  3488 ;;                  4    3[COMMON] long 
  3489 ;; Registers used:
  3490 ;;		wreg
  3491 ;; Tracked objects:
  3492 ;;		On entry : 60/20
  3493 ;;		On exit  : 60/20
  3494 ;;		Unchanged: FFF9F/0
  3495 ;; Data sizes:     COMMON   BANK0   BANK1   BANK3   BANK2
  3496 ;;      Params:         4       0       0       0       0
  3497 ;;      Locals:         0       0       0       0       0
  3498 ;;      Temps:          0       0       0       0       0
  3499 ;;      Totals:         4       0       0       0       0
  3500 ;;Total ram usage:        4 bytes
  3501 ;; Hardware stack levels used:    1
  3502 ;; Hardware stack levels required when called:    1
  3503 ;; This function calls:
  3504 ;;		Nothing
  3505 ;; This function is called by:
  3506 ;;		_pow
  3507 ;;		_ldexp
  3508 ;;		_exp
  3509 ;; This function uses a non-reentrant model
  3510 ;;
  3511  139A                     ___flneg:	
  3512                           
  3513                           ; Regs used in ___flneg: [wreg]
  3514  139A  0877               	movf	___flneg@f1+3,w
  3515  139B  0476               	iorwf	___flneg@f1+2,w
  3516  139C  0475               	iorwf	___flneg@f1+1,w
  3517  139D  0474               	iorwf	___flneg@f1,w
  3518  139E  1903               	skipnz
  3519  139F  0008               	return
  3520  13A0  3080               	movlw	128
  3521  13A1  06F7               	xorwf	___flneg@f1+3,f
  3522  13A2  0008               	return
  3523  13A3                     __end_of___flneg:	
  3524  13A3                     __ptext1143:	
  3525 ;; =============== function ___flge ends ============
  3526                           
  3527                           
  3528 ;; *************** function ___fltol *****************
  3529 ;; Defined at:
  3530 ;;		line 44 in file "C:\Program Files (x86)\HI-TECH Software\PICC\9.83\sources\fltol.c"
  3531 ;; Parameters:    Size  Location     Type
  3532 ;;  f1              4    8[BANK0 ] PTR const unsigned char 
  3533 ;; Auto vars:     Size  Location     Type
  3534 ;;  exp1            1   17[BANK0 ] unsigned char 
  3535 ;;  sign1           1   16[BANK0 ] unsigned char 
  3536 ;; Return value:  Size  Location     Type
  3537 ;;                  4    8[BANK0 ] long 
  3538 ;; Registers used:
  3539 ;;		wreg, status,2, status,0
  3540 ;; Tracked objects:
  3541 ;;		On entry : 60/100
  3542 ;;		On exit  : 60/100
  3543 ;;		Unchanged: FFF9F/0
  3544 ;; Data sizes:     COMMON   BANK0   BANK1   BANK3   BANK2
  3545 ;;      Params:         0       4       0       0       0
  3546 ;;      Locals:         0       2       0       0       0
  3547 ;;      Temps:          0       4       0       0       0
  3548 ;;      Totals:         0      10       0       0       0
  3549 ;;Total ram usage:       10 bytes
  3550 ;; Hardware stack levels used:    1
  3551 ;; Hardware stack levels required when called:    1
  3552 ;; This function calls:
  3553 ;;		Nothing
  3554 ;; This function is called by:
  3555 ;;		_format_double
  3556 ;;		_measure_capacitance
  3557 ;;		_measure_inductance
  3558 ;;		_floor
  3559 ;;		_pow
  3560 ;;		_exp
  3561 ;; This function uses a non-reentrant model
  3562 ;;
  3563  13A3                     ___fltol:	
  3564                           
  3565                           ; Regs used in ___fltol: [wreg+status,2+status,0]
  3566  13A3  0828               	movf	___fltol@f1,w
  3567  13A4  00AC               	movwf	??___fltol
  3568  13A5  0829               	movf	___fltol@f1+1,w
  3569  13A6  00AD               	movwf	??___fltol+1
  3570  13A7  082A               	movf	___fltol@f1+2,w
  3571  13A8  00AE               	movwf	??___fltol+2
  3572  13A9  082B               	movf	___fltol@f1+3,w
  3573  13AA  00AF               	movwf	??___fltol+3
  3574  13AB  1003               	clrc
  3575  13AC  0D2E               	rlf	??___fltol+2,w
  3576  13AD  0D2F               	rlf	??___fltol+3,w
  3577  13AE  00B1               	movwf	___fltol@exp1
  3578  13AF  08B1               	movf	___fltol@exp1,f
  3579  13B0  1D03               	skipz
  3580  13B1  2BB7               	goto	l7203
  3581  13B2                     l7201:	
  3582  13B2  01A8               	clrf	?___fltol
  3583  13B3  01A9               	clrf	?___fltol+1
  3584  13B4  01AA               	clrf	?___fltol+2
  3585  13B5  01AB               	clrf	?___fltol+3
  3586  13B6  0008               	return
  3587  13B7                     l7203:	
  3588  13B7  0828               	movf	___fltol@f1,w
  3589  13B8  00AC               	movwf	??___fltol
  3590  13B9  0829               	movf	___fltol@f1+1,w
  3591  13BA  00AD               	movwf	??___fltol+1
  3592  13BB  082A               	movf	___fltol@f1+2,w
  3593  13BC  00AE               	movwf	??___fltol+2
  3594  13BD  082B               	movf	___fltol@f1+3,w
  3595  13BE  00AF               	movwf	??___fltol+3
  3596  13BF  301F               	movlw	31
  3597  13C0                     u1685:	
  3598  13C0  1003               	clrc
  3599  13C1  0CAF               	rrf	??___fltol+3,f
  3600  13C2  0CAE               	rrf	??___fltol+2,f
  3601  13C3  0CAD               	rrf	??___fltol+1,f
  3602  13C4  0CAC               	rrf	??___fltol,f
  3603  13C5  3EFF               	addlw	-1
  3604  13C6  1D03               	skipz
  3605  13C7  2BC0               	goto	u1685
  3606  13C8  082C               	movf	??___fltol,w
  3607  13C9  00B0               	movwf	___fltol@sign1
  3608  13CA  3096               	movlw	150
  3609  13CB  17AA               	bsf	___fltol@f1+2,7
  3610  13CC  01AB               	clrf	___fltol@f1+3
  3611  13CD  02B1               	subwf	___fltol@exp1,f
  3612  13CE  1FB1               	btfss	___fltol@exp1,7
  3613  13CF  2BDD               	goto	l7221
  3614  13D0  0831               	movf	___fltol@exp1,w
  3615  13D1  3A80               	xorlw	128
  3616  13D2  3E97               	addlw	151
  3617  13D3  1C03               	btfss	3,0
  3618  13D4  2BB2               	goto	l7201
  3619  13D5                     l7217:	
  3620  13D5  1003               	clrc
  3621  13D6  0CAB               	rrf	___fltol@f1+3,f
  3622  13D7  0CAA               	rrf	___fltol@f1+2,f
  3623  13D8  0CA9               	rrf	___fltol@f1+1,f
  3624  13D9  0CA8               	rrf	___fltol@f1,f
  3625  13DA  0FB1               	incfsz	___fltol@exp1,f
  3626  13DB  2BD5               	goto	l7217
  3627  13DC  2BEB               	goto	l7227
  3628  13DD                     l7221:	
  3629  13DD  3020               	movlw	32
  3630  13DE  0231               	subwf	___fltol@exp1,w
  3631  13DF  1803               	btfsc	3,0
  3632  13E0  2BB2               	goto	l7201
  3633  13E1                     l4152:	
  3634  13E1  08B1               	movf	___fltol@exp1,f
  3635  13E2  1903               	btfsc	3,2
  3636  13E3  2BEB               	goto	l7227
  3637  13E4  1003               	clrc
  3638  13E5  0DA8               	rlf	___fltol@f1,f
  3639  13E6  0DA9               	rlf	___fltol@f1+1,f
  3640  13E7  0DAA               	rlf	___fltol@f1+2,f
  3641  13E8  0DAB               	rlf	___fltol@f1+3,f
  3642  13E9  03B1               	decf	___fltol@exp1,f
  3643  13EA  2BE1               	goto	l4152
  3644  13EB                     l7227:	
  3645  13EB  0830               	movf	___fltol@sign1,w
  3646  13EC  1903               	btfsc	3,2
  3647  13ED  0008               	return
  3648  13EE  09A8               	comf	___fltol@f1,f
  3649  13EF  09A9               	comf	___fltol@f1+1,f
  3650  13F0  09AA               	comf	___fltol@f1+2,f
  3651  13F1  09AB               	comf	___fltol@f1+3,f
  3652  13F2  0AA8               	incf	___fltol@f1,f
  3653  13F3  1903               	skipnz
  3654  13F4  0AA9               	incf	___fltol@f1+1,f
  3655  13F5  1903               	skipnz
  3656  13F6  0AAA               	incf	___fltol@f1+2,f
  3657  13F7  1903               	skipnz
  3658  13F8  0AAB               	incf	___fltol@f1+3,f
  3659  13F9  0008               	return
  3660  13FA                     __end_of___fltol:	
  3661  13FA                     __ptext1135:	
  3662 ;; =============== function ___fladd ends ============
  3663                           
  3664                           
  3665 ;; *************** function _ldexp *****************
  3666 ;; Defined at:
  3667 ;;		line 278 in file "C:\Program Files (x86)\HI-TECH Software\PICC\9.83\sources\frexp.c"
  3668 ;; Parameters:    Size  Location     Type
  3669 ;;  value           4   71[BANK0 ] unsigned char 
  3670 ;;  newexp          2   75[BANK0 ] int 
  3671 ;; Auto vars:     Size  Location     Type
  3672 ;;		None
  3673 ;; Return value:  Size  Location     Type
  3674 ;;                  4   71[BANK0 ] int 
  3675 ;; Registers used:
  3676 ;;		wreg, status,2, status,0, btemp+1, pclath, cstack
  3677 ;; Tracked objects:
  3678 ;;		On entry : 160/0
  3679 ;;		On exit  : 60/0
  3680 ;;		Unchanged: FFE00/0
  3681 ;; Data sizes:     COMMON   BANK0   BANK1   BANK3   BANK2
  3682 ;;      Params:         0       6       0       0       0
  3683 ;;      Locals:         0       0       4       0       0
  3684 ;;      Temps:          0       2       0       0       0
  3685 ;;      Totals:         0       8       4       0       0
  3686 ;;Total ram usage:       12 bytes
  3687 ;; Hardware stack levels used:    1
  3688 ;; Hardware stack levels required when called:    2
  3689 ;; This function calls:
  3690 ;;		___flge
  3691 ;;		___flneg
  3692 ;; This function is called by:
  3693 ;;		_exp
  3694 ;; This function uses a non-reentrant model
  3695 ;;
  3696  13FA                     _ldexp:	
  3697                           
  3698                           ; Regs used in _ldexp: [wreg+status,2+status,0+btemp+1+pclath+cstack]
  3699  13FA  086A               	movf	ldexp@value+3,w
  3700  13FB  0469               	iorwf	ldexp@value+2,w
  3701  13FC  0468               	iorwf	ldexp@value+1,w
  3702  13FD  0467               	iorwf	ldexp@value,w
  3703  13FE  1D03               	skipz
  3704  13FF  2C05               	goto	l7321
  3705  1400  01E7               	clrf	?_ldexp
  3706  1401  01E8               	clrf	?_ldexp+1
  3707  1402  01E9               	clrf	?_ldexp+2
  3708  1403  01EA               	clrf	?_ldexp+3
  3709  1404  0008               	return
  3710  1405                     l7321:	
  3711  1405  086A               	movf	ldexp@value+3,w
  3712  1406  397F               	andlw	127
  3713  1407  00ED               	movwf	??_ldexp
  3714  1408  01EE               	clrf	??_ldexp+1
  3715  1409  1003               	clrc
  3716  140A  0DED               	rlf	??_ldexp,f
  3717  140B  0DEE               	rlf	??_ldexp+1,f
  3718  140C  086D               	movf	??_ldexp,w
  3719  140D  07EB               	addwf	ldexp@newexp,f
  3720  140E  1803               	skipnc
  3721  140F  0AEC               	incf	ldexp@newexp+1,f
  3722  1410  086E               	movf	??_ldexp+1,w
  3723  1411  07EC               	addwf	ldexp@newexp+1,f
  3724  1412  0D69               	rlf	ldexp@value+2,w
  3725  1413  0D69               	rlf	ldexp@value+2,w
  3726  1414  3901               	andlw	1
  3727  1415  07EB               	addwf	ldexp@newexp,f
  3728  1416  1803               	skipnc
  3729  1417  0AEC               	incf	ldexp@newexp+1,f
  3730  1418  1FEC               	btfss	ldexp@newexp+1,7
  3731  1419  2C1F               	goto	l7329
  3732  141A  01E7               	clrf	?_ldexp
  3733  141B  01E8               	clrf	?_ldexp+1
  3734  141C  01E9               	clrf	?_ldexp+2
  3735  141D  01EA               	clrf	?_ldexp+3
  3736  141E  0008               	return
  3737  141F                     l7329:	
  3738  141F  086C               	movf	ldexp@newexp+1,w
  3739  1420  3A80               	xorlw	128
  3740  1421  00FF               	movwf	127
  3741  1422  3081               	movlw	129
  3742  1423  027F               	subwf	127,w
  3743  1424  1D03               	skipz
  3744  1425  2C28               	goto	u1895
  3745  1426  3000               	movlw	0
  3746  1427  026B               	subwf	ldexp@newexp,w
  3747  1428                     u1895:	
  3748  1428  1C03               	skipc
  3749  1429  2C61               	goto	l7351
  3750  142A  1283               	bcf	3,5	;RP0=0, select bank0
  3751  142B  1303               	bcf	3,6	;RP1=0, select bank0
  3752  142C  086A               	movf	ldexp@value+3,w
  3753  142D  00A3               	movwf	?___flge+3
  3754  142E  0869               	movf	ldexp@value+2,w
  3755  142F  00A2               	movwf	?___flge+2
  3756  1430  0868               	movf	ldexp@value+1,w
  3757  1431  00A1               	movwf	?___flge+1
  3758  1432  0867               	movf	ldexp@value,w
  3759  1433  00A0               	movwf	?___flge
  3760  1434  01A4               	clrf	?___flge+4
  3761  1435  01A5               	clrf	?___flge+5
  3762  1436  01A6               	clrf	?___flge+6
  3763  1437  01A7               	clrf	?___flge+7
  3764  1438  120A  158A  2739   	fcall	___flge
      +       160A  118A         
  3765  143D  307F               	movlw	127
  3766  143E  1803               	btfsc	3,0
  3767  143F  2C5A               	goto	L8
  3768  1440  1683               	bsf	3,5	;RP0=1, select bank1
  3769  1441  00A3               	movwf	(_ldexp$4679+3)^(0+128)
  3770  1442  00A2               	movwf	(_ldexp$4679+2)^(0+128)
  3771  1443  30FE               	movlw	254
  3772  1444  00A1               	movwf	(_ldexp$4679+1)^(0+128)
  3773  1445  30F7               	movlw	247
  3774  1446  00A0               	movwf	_ldexp$4679^(0+128)
  3775  1447  0823               	movf	(_ldexp$4679+3)^(0+128),w
  3776  1448  00F7               	movwf	?___flneg+3
  3777  1449  0822               	movf	(_ldexp$4679+2)^(0+128),w
  3778  144A  00F6               	movwf	?___flneg+2
  3779  144B  0821               	movf	(_ldexp$4679+1)^(0+128),w
  3780  144C  00F5               	movwf	?___flneg+1
  3781  144D  0820               	movf	_ldexp$4679^(0+128),w
  3782  144E  00F4               	movwf	?___flneg
  3783  144F  239A               	fcall	___flneg
  3784  1450  0877               	movf	?___flneg+3,w
  3785  1451  1283               	bcf	3,5	;RP0=0, select bank0
  3786  1452  00EA               	movwf	?_ldexp+3
  3787  1453  0876               	movf	?___flneg+2,w
  3788  1454  00E9               	movwf	?_ldexp+2
  3789  1455  0875               	movf	?___flneg+1,w
  3790  1456  00E8               	movwf	?_ldexp+1
  3791  1457  0874               	movf	?___flneg,w
  3792  1458  00E7               	movwf	?_ldexp
  3793  1459  0008               	return
  3794  145A                     L8:	
  3795  145A  00EA               	movwf	?_ldexp+3
  3796  145B  00E9               	movwf	?_ldexp+2
  3797  145C  30FE               	movlw	254
  3798  145D  00E8               	movwf	?_ldexp+1
  3799  145E  30F7               	movlw	247
  3800  145F  00E7               	movwf	?_ldexp
  3801  1460  0008               	return
  3802  1461                     l7351:	
  3803  1461  1283               	bcf	3,5	;RP0=0, select bank0
  3804  1462  1303               	bcf	3,6	;RP1=0, select bank0
  3805  1463  086C               	movf	ldexp@newexp+1,w
  3806  1464  00EE               	movwf	??_ldexp+1
  3807  1465  086B               	movf	ldexp@newexp,w
  3808  1466  00ED               	movwf	??_ldexp
  3809  1467  0D6E               	rlf	??_ldexp+1,w
  3810  1468  0CEE               	rrf	??_ldexp+1,f
  3811  1469  0CED               	rrf	??_ldexp,f
  3812  146A  086A               	movf	ldexp@value+3,w
  3813  146B  066D               	xorwf	??_ldexp,w
  3814  146C  3980               	andlw	-128
  3815  146D  066D               	xorwf	??_ldexp,w
  3816  146E  00EA               	movwf	ldexp@value+3
  3817  146F  086B               	movf	ldexp@newexp,w
  3818  1470  3901               	andlw	1
  3819  1471  00ED               	movwf	??_ldexp
  3820  1472  0CED               	rrf	??_ldexp,f
  3821  1473  0CED               	rrf	??_ldexp,f
  3822  1474  0869               	movf	ldexp@value+2,w
  3823  1475  066D               	xorwf	??_ldexp,w
  3824  1476  397F               	andlw	-129
  3825  1477  066D               	xorwf	??_ldexp,w
  3826  1478  00E9               	movwf	ldexp@value+2
  3827  1479  0008               	return
  3828  147A                     __end_of_ldexp:	
  3829  147A                     __ptext1126:	
  3830 ;; =============== function _calibrate ends ============
  3831                           
  3832                           
  3833 ;; *************** function _floor *****************
  3834 ;; Defined at:
  3835 ;;		line 14 in file "C:\Program Files (x86)\HI-TECH Software\PICC\9.83\sources\floor.c"
  3836 ;; Parameters:    Size  Location     Type
  3837 ;;  x               4   71[BANK0 ] unsigned char 
  3838 ;; Auto vars:     Size  Location     Type
  3839 ;;  i               4    0[BANK1 ] unsigned char 
  3840 ;;  expon           2    4[BANK1 ] int 
  3841 ;; Return value:  Size  Location     Type
  3842 ;;                  4   71[BANK0 ] int 
  3843 ;; Registers used:
  3844 ;;		wreg, fsr0l, fsr0h, status,2, status,0, btemp+1, pclath, cstack
  3845 ;; Tracked objects:
  3846 ;;		On entry : 60/0
  3847 ;;		On exit  : 140/0
  3848 ;;		Unchanged: FFE9F/0
  3849 ;; Data sizes:     COMMON   BANK0   BANK1   BANK3   BANK2
  3850 ;;      Params:         0       4       0       0       0
  3851 ;;      Locals:         0       0       6       0       0
  3852 ;;      Temps:          0       0       0       0       0
  3853 ;;      Totals:         0       4       6       0       0
  3854 ;;Total ram usage:       10 bytes
  3855 ;; Hardware stack levels used:    1
  3856 ;; Hardware stack levels required when called:    3
  3857 ;; This function calls:
  3858 ;;		_frexp
  3859 ;;		___flge
  3860 ;;		___fltol
  3861 ;;		___altofl
  3862 ;;		___fladd
  3863 ;; This function is called by:
  3864 ;;		_format_double
  3865 ;;		_exp
  3866 ;; This function uses a non-reentrant model
  3867 ;;
  3868  147A                     _floor:	
  3869                           
  3870                           ; Regs used in _floor: [wreg-fsr0h+status,2+status,0+btemp+1+pclath+cstack]
  3871  147A  086A               	movf	floor@x+3,w
  3872  147B  00A3               	movwf	?_frexp+3
  3873  147C  0869               	movf	floor@x+2,w
  3874  147D  00A2               	movwf	?_frexp+2
  3875  147E  0868               	movf	floor@x+1,w
  3876  147F  00A1               	movwf	?_frexp+1
  3877  1480  0867               	movf	floor@x,w
  3878  1481  00A0               	movwf	?_frexp
  3879  1482  30A4               	movlw	floor@expon& (0+255)
  3880  1483  00A4               	movwf	?_frexp+4
  3881  1484  275A  160A  118A   	fcall	_frexp
  3882  1487  1683               	bsf	3,5	;RP0=1, select bank1
  3883  1488  1FA5               	btfss	(floor@expon+1)^(0+128),7
  3884  1489  2CAB               	goto	l8601
  3885  148A  1283               	bcf	3,5	;RP0=0, select bank0
  3886  148B  086A               	movf	floor@x+3,w
  3887  148C  00A3               	movwf	?___flge+3
  3888  148D  0869               	movf	floor@x+2,w
  3889  148E  00A2               	movwf	?___flge+2
  3890  148F  0868               	movf	floor@x+1,w
  3891  1490  00A1               	movwf	?___flge+1
  3892  1491  0867               	movf	floor@x,w
  3893  1492  00A0               	movwf	?___flge
  3894  1493  01A4               	clrf	?___flge+4
  3895  1494  01A5               	clrf	?___flge+5
  3896  1495  01A6               	clrf	?___flge+6
  3897  1496  01A7               	clrf	?___flge+7
  3898  1497  120A  158A  2739   	fcall	___flge
      +       160A  118A         
  3899  149C  1803               	btfsc	3,0
  3900  149D  2CA6               	goto	l3939
  3901  149E  30BF               	movlw	191
  3902  149F  00EA               	movwf	?_floor+3
  3903  14A0  3080               	movlw	128
  3904  14A1  00E9               	movwf	?_floor+2
  3905  14A2  3000               	movlw	0
  3906  14A3  01E8               	clrf	?_floor+1
  3907  14A4  01E7               	clrf	?_floor
  3908  14A5  0008               	return
  3909  14A6                     l3939:	
  3910  14A6  01E7               	clrf	?_floor
  3911  14A7  01E8               	clrf	?_floor+1
  3912  14A8  01E9               	clrf	?_floor+2
  3913  14A9  01EA               	clrf	?_floor+3
  3914  14AA  0008               	return
  3915  14AB                     l8601:	
  3916  14AB  3000               	movlw	0
  3917  14AC  0225               	subwf	(floor@expon+1)^(0+128),w
  3918  14AD  301D               	movlw	29
  3919  14AE  1903               	skipnz
  3920  14AF  0224               	subwf	floor@expon^(0+128),w
  3921  14B0  1803               	btfsc	3,0
  3922  14B1  0008               	return
  3923  14B2  1283               	bcf	3,5	;RP0=0, select bank0
  3924  14B3  086A               	movf	floor@x+3,w
  3925  14B4  00AB               	movwf	?___fltol+3
  3926  14B5  0869               	movf	floor@x+2,w
  3927  14B6  00AA               	movwf	?___fltol+2
  3928  14B7  0868               	movf	floor@x+1,w
  3929  14B8  00A9               	movwf	?___fltol+1
  3930  14B9  0867               	movf	floor@x,w
  3931  14BA  00A8               	movwf	?___fltol
  3932  14BB  23A3  160A  118A   	fcall	___fltol
  3933  14BE  082B               	movf	?___fltol+3,w
  3934  14BF  00B5               	movwf	?___altofl+3
  3935  14C0  082A               	movf	?___fltol+2,w
  3936  14C1  00B4               	movwf	?___altofl+2
  3937  14C2  0829               	movf	?___fltol+1,w
  3938  14C3  00B3               	movwf	?___altofl+1
  3939  14C4  0828               	movf	?___fltol,w
  3940  14C5  00B2               	movwf	?___altofl
  3941  14C6  2529               	fcall	___altofl
  3942  14C7  0835               	movf	?___altofl+3,w
  3943  14C8  1683               	bsf	3,5	;RP0=1, select bank1
  3944  14C9  00A3               	movwf	(floor@i+3)^(0+128)
  3945  14CA  1283               	bcf	3,5	;RP0=0, select bank0
  3946  14CB  0834               	movf	?___altofl+2,w
  3947  14CC  1683               	bsf	3,5	;RP0=1, select bank1
  3948  14CD  00A2               	movwf	(floor@i+2)^(0+128)
  3949  14CE  1283               	bcf	3,5	;RP0=0, select bank0
  3950  14CF  0833               	movf	?___altofl+1,w
  3951  14D0  1683               	bsf	3,5	;RP0=1, select bank1
  3952  14D1  00A1               	movwf	(floor@i+1)^(0+128)
  3953  14D2  1283               	bcf	3,5	;RP0=0, select bank0
  3954  14D3  0832               	movf	?___altofl,w
  3955  14D4  1683               	bsf	3,5	;RP0=1, select bank1
  3956  14D5  00A0               	movwf	floor@i^(0+128)
  3957  14D6  1283               	bcf	3,5	;RP0=0, select bank0
  3958  14D7  086A               	movf	floor@x+3,w
  3959  14D8  00A3               	movwf	?___flge+3
  3960  14D9  0869               	movf	floor@x+2,w
  3961  14DA  00A2               	movwf	?___flge+2
  3962  14DB  0868               	movf	floor@x+1,w
  3963  14DC  00A1               	movwf	?___flge+1
  3964  14DD  0867               	movf	floor@x,w
  3965  14DE  00A0               	movwf	?___flge
  3966  14DF  1683               	bsf	3,5	;RP0=1, select bank1
  3967  14E0  0823               	movf	(floor@i+3)^(0+128),w
  3968  14E1  1283               	bcf	3,5	;RP0=0, select bank0
  3969  14E2  00A7               	movwf	?___flge+7
  3970  14E3  1683               	bsf	3,5	;RP0=1, select bank1
  3971  14E4  0822               	movf	(floor@i+2)^(0+128),w
  3972  14E5  1283               	bcf	3,5	;RP0=0, select bank0
  3973  14E6  00A6               	movwf	?___flge+6
  3974  14E7  1683               	bsf	3,5	;RP0=1, select bank1
  3975  14E8  0821               	movf	(floor@i+1)^(0+128),w
  3976  14E9  1283               	bcf	3,5	;RP0=0, select bank0
  3977  14EA  00A5               	movwf	?___flge+5
  3978  14EB  1683               	bsf	3,5	;RP0=1, select bank1
  3979  14EC  0820               	movf	floor@i^(0+128),w
  3980  14ED  1283               	bcf	3,5	;RP0=0, select bank0
  3981  14EE  00A4               	movwf	?___flge+4
  3982  14EF  120A  158A  2739   	fcall	___flge
      +       160A  118A         
  3983  14F4  1803               	btfsc	3,0
  3984  14F5  2D18               	goto	l8611
  3985  14F6  30BF               	movlw	191
  3986  14F7  00DB               	movwf	?___fladd+3
  3987  14F8  3080               	movlw	128
  3988  14F9  00DA               	movwf	?___fladd+2
  3989  14FA  01D9               	clrf	?___fladd+1
  3990  14FB  01D8               	clrf	?___fladd
  3991  14FC  1683               	bsf	3,5	;RP0=1, select bank1
  3992  14FD  0823               	movf	(floor@i+3)^(0+128),w
  3993  14FE  1283               	bcf	3,5	;RP0=0, select bank0
  3994  14FF  00DF               	movwf	?___fladd+7
  3995  1500  1683               	bsf	3,5	;RP0=1, select bank1
  3996  1501  0822               	movf	(floor@i+2)^(0+128),w
  3997  1502  1283               	bcf	3,5	;RP0=0, select bank0
  3998  1503  00DE               	movwf	?___fladd+6
  3999  1504  1683               	bsf	3,5	;RP0=1, select bank1
  4000  1505  0821               	movf	(floor@i+1)^(0+128),w
  4001  1506  1283               	bcf	3,5	;RP0=0, select bank0
  4002  1507  00DD               	movwf	?___fladd+5
  4003  1508  1683               	bsf	3,5	;RP0=1, select bank1
  4004  1509  0820               	movf	floor@i^(0+128),w
  4005  150A  1283               	bcf	3,5	;RP0=0, select bank0
  4006  150B  00DC               	movwf	?___fladd+4
  4007  150C  120A  118A  20B6   	fcall	___fladd
  4008  150F  085B               	movf	?___fladd+3,w
  4009  1510  00EA               	movwf	?_floor+3
  4010  1511  085A               	movf	?___fladd+2,w
  4011  1512  00E9               	movwf	?_floor+2
  4012  1513  0859               	movf	?___fladd+1,w
  4013  1514  00E8               	movwf	?_floor+1
  4014  1515  0858               	movf	?___fladd,w
  4015  1516  00E7               	movwf	?_floor
  4016  1517  0008               	return
  4017  1518                     l8611:	
  4018  1518  1683               	bsf	3,5	;RP0=1, select bank1
  4019  1519  0823               	movf	(floor@i+3)^(0+128),w
  4020  151A  1283               	bcf	3,5	;RP0=0, select bank0
  4021  151B  00EA               	movwf	?_floor+3
  4022  151C  1683               	bsf	3,5	;RP0=1, select bank1
  4023  151D  0822               	movf	(floor@i+2)^(0+128),w
  4024  151E  1283               	bcf	3,5	;RP0=0, select bank0
  4025  151F  00E9               	movwf	?_floor+2
  4026  1520  1683               	bsf	3,5	;RP0=1, select bank1
  4027  1521  0821               	movf	(floor@i+1)^(0+128),w
  4028  1522  1283               	bcf	3,5	;RP0=0, select bank0
  4029  1523  00E8               	movwf	?_floor+1
  4030  1524  1683               	bsf	3,5	;RP0=1, select bank1
  4031  1525  0820               	movf	floor@i^(0+128),w
  4032  1526  1283               	bcf	3,5	;RP0=0, select bank0
  4033  1527  00E7               	movwf	?_floor
  4034  1528  0008               	return
  4035  1529                     __end_of_floor:	
  4036  1529                     __ptext1129:	
  4037 ;; =============== function ___lltofl ends ============
  4038                           
  4039                           
  4040 ;; *************** function ___altofl *****************
  4041 ;; Defined at:
  4042 ;;		line 37 in file "C:\Program Files (x86)\HI-TECH Software\PICC\9.83\sources\altofl.c"
  4043 ;; Parameters:    Size  Location     Type
  4044 ;;  c               4   18[BANK0 ] long 
  4045 ;; Auto vars:     Size  Location     Type
  4046 ;;  sign            1   22[BANK0 ] unsigned char 
  4047 ;; Return value:  Size  Location     Type
  4048 ;;                  4   18[BANK0 ] unsigned char 
  4049 ;; Registers used:
  4050 ;;		wreg, status,2, status,0, pclath, cstack
  4051 ;; Tracked objects:
  4052 ;;		On entry : 160/0
  4053 ;;		On exit  : 160/0
  4054 ;;		Unchanged: FFE9F/0
  4055 ;; Data sizes:     COMMON   BANK0   BANK1   BANK3   BANK2
  4056 ;;      Params:         0       4       0       0       0
  4057 ;;      Locals:         0       1       0       0       0
  4058 ;;      Temps:          0       0       0       0       0
  4059 ;;      Totals:         0       5       0       0       0
  4060 ;;Total ram usage:        5 bytes
  4061 ;; Hardware stack levels used:    1
  4062 ;; Hardware stack levels required when called:    2
  4063 ;; This function calls:
  4064 ;;		___flpack
  4065 ;; This function is called by:
  4066 ;;		_floor
  4067 ;; This function uses a non-reentrant model
  4068 ;;
  4069  1529                     ___altofl:	
  4070                           
  4071                           ; Regs used in ___altofl: [wreg+status,2+status,0+pclath+cstack]
  4072  1529  01B6               	clrf	___altofl@sign
  4073  152A  1FB5               	btfss	___altofl@c+3,7
  4074  152B  2D39               	goto	l8543
  4075  152C  09B2               	comf	___altofl@c,f
  4076  152D  09B3               	comf	___altofl@c+1,f
  4077  152E  09B4               	comf	___altofl@c+2,f
  4078  152F  09B5               	comf	___altofl@c+3,f
  4079  1530  0AB2               	incf	___altofl@c,f
  4080  1531  1903               	skipnz
  4081  1532  0AB3               	incf	___altofl@c+1,f
  4082  1533  1903               	skipnz
  4083  1534  0AB4               	incf	___altofl@c+2,f
  4084  1535  1903               	skipnz
  4085  1536  0AB5               	incf	___altofl@c+3,f
  4086  1537  01B6               	clrf	___altofl@sign
  4087  1538  0AB6               	incf	___altofl@sign,f
  4088  1539                     l8543:	
  4089  1539  0835               	movf	___altofl@c+3,w
  4090  153A  00A3               	movwf	?___flpack+3
  4091  153B  0834               	movf	___altofl@c+2,w
  4092  153C  00A2               	movwf	?___flpack+2
  4093  153D  0833               	movf	___altofl@c+1,w
  4094  153E  00A1               	movwf	?___flpack+1
  4095  153F  0832               	movf	___altofl@c,w
  4096  1540  00A0               	movwf	?___flpack
  4097  1541  3096               	movlw	150
  4098  1542  00A4               	movwf	?___flpack+4
  4099  1543  0836               	movf	___altofl@sign,w
  4100  1544  00A5               	movwf	?___flpack+5
  4101  1545  27B5               	fcall	___flpack
  4102  1546  0823               	movf	?___flpack+3,w
  4103  1547  00B5               	movwf	?___altofl+3
  4104  1548  0822               	movf	?___flpack+2,w
  4105  1549  00B4               	movwf	?___altofl+2
  4106  154A  0821               	movf	?___flpack+1,w
  4107  154B  00B3               	movwf	?___altofl+1
  4108  154C  0820               	movf	?___flpack,w
  4109  154D  00B2               	movwf	?___altofl
  4110  154E  0008               	return
  4111  154F                     __end_of___altofl:	
  4112  154F                     __ptext1117:	
  4113 ;; =============== function _format_double ends ============
  4114                           
  4115                           
  4116 ;; *************** function _pow *****************
  4117 ;; Defined at:
  4118 ;;		line 6 in file "C:\Program Files (x86)\HI-TECH Software\PICC\9.83\sources\pow.c"
  4119 ;; Parameters:    Size  Location     Type
  4120 ;;  x               4   37[BANK1 ] short 
  4121 ;;  y               4   41[BANK1 ] short 
  4122 ;; Auto vars:     Size  Location     Type
  4123 ;;  yi              4   50[BANK1 ] unsigned long 
  4124 ;;  sign            1   49[BANK1 ] unsigned char 
  4125 ;; Return value:  Size  Location     Type
  4126 ;;                  4   37[BANK1 ] unsigned char 
  4127 ;; Registers used:
  4128 ;;		wreg, fsr0l, fsr0h, status,2, status,0, btemp+1, pclath, cstack
  4129 ;; Tracked objects:
  4130 ;;		On entry : 60/20
  4131 ;;		On exit  : 60/20
  4132 ;;		Unchanged: FFE00/0
  4133 ;; Data sizes:     COMMON   BANK0   BANK1   BANK3   BANK2
  4134 ;;      Params:         0       0       8       0       0
  4135 ;;      Locals:         0       0       9       0       0
  4136 ;;      Temps:          0       0       0       0       0
  4137 ;;      Totals:         0       0      17       0       0
  4138 ;;Total ram usage:       17 bytes
  4139 ;; Hardware stack levels used:    1
  4140 ;; Hardware stack levels required when called:    5
  4141 ;; This function calls:
  4142 ;;		___flge
  4143 ;;		___fltol
  4144 ;;		___lltofl
  4145 ;;		___flneg
  4146 ;;		_log
  4147 ;;		___flmul
  4148 ;;		_exp
  4149 ;; This function is called by:
  4150 ;;		_format_double
  4151 ;; This function uses a non-reentrant model
  4152 ;;
  4153  154F                     _pow:	
  4154                           
  4155                           ; Regs used in _pow: [wreg-fsr0h+status,2+status,0+btemp+1+pclath+cstack]
  4156  154F  01D1               	clrf	pow@sign^(0+128)
  4157  1550  0848               	movf	(pow@x+3)^(0+128),w
  4158  1551  0447               	iorwf	(pow@x+2)^(0+128),w
  4159  1552  0446               	iorwf	(pow@x+1)^(0+128),w
  4160  1553  0445               	iorwf	pow@x^(0+128),w
  4161  1554  1D03               	skipz
  4162  1555  2D74               	goto	l8787
  4163  1556  1283               	bcf	3,5	;RP0=0, select bank0
  4164  1557  01A0               	clrf	?___flge
  4165  1558  01A1               	clrf	?___flge+1
  4166  1559  01A2               	clrf	?___flge+2
  4167  155A  01A3               	clrf	?___flge+3
  4168  155B  1683               	bsf	3,5	;RP0=1, select bank1
  4169  155C  084C               	movf	(pow@y+3)^(0+128),w
  4170  155D  1283               	bcf	3,5	;RP0=0, select bank0
  4171  155E  00A7               	movwf	?___flge+7
  4172  155F  1683               	bsf	3,5	;RP0=1, select bank1
  4173  1560  084B               	movf	(pow@y+2)^(0+128),w
  4174  1561  1283               	bcf	3,5	;RP0=0, select bank0
  4175  1562  00A6               	movwf	?___flge+6
  4176  1563  1683               	bsf	3,5	;RP0=1, select bank1
  4177  1564  084A               	movf	(pow@y+1)^(0+128),w
  4178  1565  1283               	bcf	3,5	;RP0=0, select bank0
  4179  1566  00A5               	movwf	?___flge+5
  4180  1567  1683               	bsf	3,5	;RP0=1, select bank1
  4181  1568  0849               	movf	pow@y^(0+128),w
  4182  1569  1283               	bcf	3,5	;RP0=0, select bank0
  4183  156A  00A4               	movwf	?___flge+4
  4184  156B  120A  158A  2739   	fcall	___flge
  4185  156E  1683               	bsf	3,5	;RP0=1, select bank1
  4186  156F  01C5               	clrf	?_pow^(0+128)
  4187  1570  01C6               	clrf	(?_pow+1)^(0+128)
  4188  1571  01C7               	clrf	(?_pow+2)^(0+128)
  4189  1572  01C8               	clrf	(?_pow+3)^(0+128)
  4190  1573  0008               	return
  4191  1574                     l8787:	
  4192  1574  084C               	movf	(pow@y+3)^(0+128),w
  4193  1575  044B               	iorwf	(pow@y+2)^(0+128),w
  4194  1576  044A               	iorwf	(pow@y+1)^(0+128),w
  4195  1577  0449               	iorwf	pow@y^(0+128),w
  4196  1578  1D03               	skipz
  4197  1579  2D82               	goto	l8793
  4198  157A  303F               	movlw	63
  4199  157B  00C8               	movwf	(?_pow+3)^(0+128)
  4200  157C  3080               	movlw	128
  4201  157D  00C7               	movwf	(?_pow+2)^(0+128)
  4202  157E  3000               	movlw	0
  4203  157F  01C6               	clrf	(?_pow+1)^(0+128)
  4204  1580  01C5               	clrf	?_pow^(0+128)
  4205  1581  0008               	return
  4206  1582                     l8793:	
  4207  1582  0848               	movf	(pow@x+3)^(0+128),w
  4208  1583  1283               	bcf	3,5	;RP0=0, select bank0
  4209  1584  00A3               	movwf	?___flge+3
  4210  1585  1683               	bsf	3,5	;RP0=1, select bank1
  4211  1586  0847               	movf	(pow@x+2)^(0+128),w
  4212  1587  1283               	bcf	3,5	;RP0=0, select bank0
  4213  1588  00A2               	movwf	?___flge+2
  4214  1589  1683               	bsf	3,5	;RP0=1, select bank1
  4215  158A  0846               	movf	(pow@x+1)^(0+128),w
  4216  158B  1283               	bcf	3,5	;RP0=0, select bank0
  4217  158C  00A1               	movwf	?___flge+1
  4218  158D  1683               	bsf	3,5	;RP0=1, select bank1
  4219  158E  0845               	movf	pow@x^(0+128),w
  4220  158F  1283               	bcf	3,5	;RP0=0, select bank0
  4221  1590  00A0               	movwf	?___flge
  4222  1591  01A4               	clrf	?___flge+4
  4223  1592  01A5               	clrf	?___flge+5
  4224  1593  01A6               	clrf	?___flge+6
  4225  1594  01A7               	clrf	?___flge+7
  4226  1595  120A  158A  2739   	fcall	___flge
      +       160A  118A         
  4227  159A  1803               	btfsc	3,0
  4228  159B  2E06               	goto	l8805
  4229  159C  1683               	bsf	3,5	;RP0=1, select bank1
  4230  159D  084C               	movf	(pow@y+3)^(0+128),w
  4231  159E  1283               	bcf	3,5	;RP0=0, select bank0
  4232  159F  00AB               	movwf	?___fltol+3
  4233  15A0  1683               	bsf	3,5	;RP0=1, select bank1
  4234  15A1  084B               	movf	(pow@y+2)^(0+128),w
  4235  15A2  1283               	bcf	3,5	;RP0=0, select bank0
  4236  15A3  00AA               	movwf	?___fltol+2
  4237  15A4  1683               	bsf	3,5	;RP0=1, select bank1
  4238  15A5  084A               	movf	(pow@y+1)^(0+128),w
  4239  15A6  1283               	bcf	3,5	;RP0=0, select bank0
  4240  15A7  00A9               	movwf	?___fltol+1
  4241  15A8  1683               	bsf	3,5	;RP0=1, select bank1
  4242  15A9  0849               	movf	pow@y^(0+128),w
  4243  15AA  1283               	bcf	3,5	;RP0=0, select bank0
  4244  15AB  00A8               	movwf	?___fltol
  4245  15AC  23A3  160A  118A   	fcall	___fltol
  4246  15AF  082B               	movf	?___fltol+3,w
  4247  15B0  1683               	bsf	3,5	;RP0=1, select bank1
  4248  15B1  00D5               	movwf	(pow@yi+3)^(0+128)
  4249  15B2  1283               	bcf	3,5	;RP0=0, select bank0
  4250  15B3  082A               	movf	?___fltol+2,w
  4251  15B4  1683               	bsf	3,5	;RP0=1, select bank1
  4252  15B5  00D4               	movwf	(pow@yi+2)^(0+128)
  4253  15B6  1283               	bcf	3,5	;RP0=0, select bank0
  4254  15B7  0829               	movf	?___fltol+1,w
  4255  15B8  1683               	bsf	3,5	;RP0=1, select bank1
  4256  15B9  00D3               	movwf	(pow@yi+1)^(0+128)
  4257  15BA  1283               	bcf	3,5	;RP0=0, select bank0
  4258  15BB  0828               	movf	?___fltol,w
  4259  15BC  1683               	bsf	3,5	;RP0=1, select bank1
  4260  15BD  00D2               	movwf	pow@yi^(0+128)
  4261  15BE  0855               	movf	(pow@yi+3)^(0+128),w
  4262  15BF  1283               	bcf	3,5	;RP0=0, select bank0
  4263  15C0  00A9               	movwf	?___lltofl+3
  4264  15C1  1683               	bsf	3,5	;RP0=1, select bank1
  4265  15C2  0854               	movf	(pow@yi+2)^(0+128),w
  4266  15C3  1283               	bcf	3,5	;RP0=0, select bank0
  4267  15C4  00A8               	movwf	?___lltofl+2
  4268  15C5  1683               	bsf	3,5	;RP0=1, select bank1
  4269  15C6  0853               	movf	(pow@yi+1)^(0+128),w
  4270  15C7  1283               	bcf	3,5	;RP0=0, select bank0
  4271  15C8  00A7               	movwf	?___lltofl+1
  4272  15C9  1683               	bsf	3,5	;RP0=1, select bank1
  4273  15CA  0852               	movf	pow@yi^(0+128),w
  4274  15CB  1283               	bcf	3,5	;RP0=0, select bank0
  4275  15CC  00A6               	movwf	?___lltofl
  4276  15CD  266B  160A  118A   	fcall	___lltofl
  4277  15D0  1683               	bsf	3,5	;RP0=1, select bank1
  4278  15D1  084C               	movf	(pow@y+3)^(0+128),w
  4279  15D2  1283               	bcf	3,5	;RP0=0, select bank0
  4280  15D3  0629               	xorwf	?___lltofl+3,w
  4281  15D4  1D03               	skipz
  4282  15D5  2DE6               	goto	u3425
  4283  15D6  1683               	bsf	3,5	;RP0=1, select bank1
  4284  15D7  084B               	movf	(pow@y+2)^(0+128),w
  4285  15D8  1283               	bcf	3,5	;RP0=0, select bank0
  4286  15D9  0628               	xorwf	?___lltofl+2,w
  4287  15DA  1D03               	skipz
  4288  15DB  2DE6               	goto	u3425
  4289  15DC  1683               	bsf	3,5	;RP0=1, select bank1
  4290  15DD  084A               	movf	(pow@y+1)^(0+128),w
  4291  15DE  1283               	bcf	3,5	;RP0=0, select bank0
  4292  15DF  0627               	xorwf	?___lltofl+1,w
  4293  15E0  1D03               	skipz
  4294  15E1  2DE6               	goto	u3425
  4295  15E2  1683               	bsf	3,5	;RP0=1, select bank1
  4296  15E3  0849               	movf	pow@y^(0+128),w
  4297  15E4  1283               	bcf	3,5	;RP0=0, select bank0
  4298  15E5  0626               	xorwf	?___lltofl,w
  4299  15E6                     u3425:	
  4300  15E6  1903               	skipnz
  4301  15E7  2DEE               	goto	l8799
  4302  15E8  1683               	bsf	3,5	;RP0=1, select bank1
  4303  15E9  01C5               	clrf	?_pow^(0+128)
  4304  15EA  01C6               	clrf	(?_pow+1)^(0+128)
  4305  15EB  01C7               	clrf	(?_pow+2)^(0+128)
  4306  15EC  01C8               	clrf	(?_pow+3)^(0+128)
  4307  15ED  0008               	return
  4308  15EE                     l8799:	
  4309  15EE  1683               	bsf	3,5	;RP0=1, select bank1
  4310  15EF  0852               	movf	pow@yi^(0+128),w
  4311  15F0  00D1               	movwf	pow@sign^(0+128)
  4312  15F1  3001               	movlw	1
  4313  15F2  05D1               	andwf	pow@sign^(0+128),f
  4314  15F3  0848               	movf	(pow@x+3)^(0+128),w
  4315  15F4  00F7               	movwf	?___flneg+3
  4316  15F5  0847               	movf	(pow@x+2)^(0+128),w
  4317  15F6  00F6               	movwf	?___flneg+2
  4318  15F7  0846               	movf	(pow@x+1)^(0+128),w
  4319  15F8  00F5               	movwf	?___flneg+1
  4320  15F9  0845               	movf	pow@x^(0+128),w
  4321  15FA  00F4               	movwf	?___flneg
  4322  15FB  239A  160A  118A   	fcall	___flneg
  4323  15FE  0877               	movf	?___flneg+3,w
  4324  15FF  00C8               	movwf	(pow@x+3)^(0+128)
  4325  1600  0876               	movf	?___flneg+2,w
  4326  1601  00C7               	movwf	(pow@x+2)^(0+128)
  4327  1602  0875               	movf	?___flneg+1,w
  4328  1603  00C6               	movwf	(pow@x+1)^(0+128)
  4329  1604  0874               	movf	?___flneg,w
  4330  1605  00C5               	movwf	pow@x^(0+128)
  4331  1606                     l8805:	
  4332  1606  1683               	bsf	3,5	;RP0=1, select bank1
  4333  1607  0848               	movf	(pow@x+3)^(0+128),w
  4334  1608  00B7               	movwf	(?_log+3)^(0+128)
  4335  1609  0847               	movf	(pow@x+2)^(0+128),w
  4336  160A  00B6               	movwf	(?_log+2)^(0+128)
  4337  160B  0846               	movf	(pow@x+1)^(0+128),w
  4338  160C  00B5               	movwf	(?_log+1)^(0+128)
  4339  160D  0845               	movf	pow@x^(0+128),w
  4340  160E  00B4               	movwf	?_log^(0+128)
  4341  160F  2680               	fcall	_log
  4342  1610  0837               	movf	(?_log+3)^(0+128),w
  4343  1611  00D0               	movwf	(_pow$5209+3)^(0+128)
  4344  1612  0836               	movf	(?_log+2)^(0+128),w
  4345  1613  00CF               	movwf	(_pow$5209+2)^(0+128)
  4346  1614  0835               	movf	(?_log+1)^(0+128),w
  4347  1615  00CE               	movwf	(_pow$5209+1)^(0+128)
  4348  1616  0834               	movf	?_log^(0+128),w
  4349  1617  00CD               	movwf	_pow$5209^(0+128)
  4350  1618  084C               	movf	(pow@y+3)^(0+128),w
  4351  1619  1283               	bcf	3,5	;RP0=0, select bank0
  4352  161A  00C8               	movwf	?___flmul+3
  4353  161B  1683               	bsf	3,5	;RP0=1, select bank1
  4354  161C  084B               	movf	(pow@y+2)^(0+128),w
  4355  161D  1283               	bcf	3,5	;RP0=0, select bank0
  4356  161E  00C7               	movwf	?___flmul+2
  4357  161F  1683               	bsf	3,5	;RP0=1, select bank1
  4358  1620  084A               	movf	(pow@y+1)^(0+128),w
  4359  1621  1283               	bcf	3,5	;RP0=0, select bank0
  4360  1622  00C6               	movwf	?___flmul+1
  4361  1623  1683               	bsf	3,5	;RP0=1, select bank1
  4362  1624  0849               	movf	pow@y^(0+128),w
  4363  1625  1283               	bcf	3,5	;RP0=0, select bank0
  4364  1626  00C5               	movwf	?___flmul
  4365  1627  1683               	bsf	3,5	;RP0=1, select bank1
  4366  1628  0850               	movf	(_pow$5209+3)^(0+128),w
  4367  1629  1283               	bcf	3,5	;RP0=0, select bank0
  4368  162A  00CC               	movwf	?___flmul+7
  4369  162B  1683               	bsf	3,5	;RP0=1, select bank1
  4370  162C  084F               	movf	(_pow$5209+2)^(0+128),w
  4371  162D  1283               	bcf	3,5	;RP0=0, select bank0
  4372  162E  00CB               	movwf	?___flmul+6
  4373  162F  1683               	bsf	3,5	;RP0=1, select bank1
  4374  1630  084E               	movf	(_pow$5209+1)^(0+128),w
  4375  1631  1283               	bcf	3,5	;RP0=0, select bank0
  4376  1632  00CA               	movwf	?___flmul+5
  4377  1633  1683               	bsf	3,5	;RP0=1, select bank1
  4378  1634  084D               	movf	_pow$5209^(0+128),w
  4379  1635  1283               	bcf	3,5	;RP0=0, select bank0
  4380  1636  00C9               	movwf	?___flmul+4
  4381  1637  120A  118A  264B   	fcall	___flmul
      +       160A  118A         
  4382  163C  0848               	movf	?___flmul+3,w
  4383  163D  1683               	bsf	3,5	;RP0=1, select bank1
  4384  163E  00BD               	movwf	(?_exp+3)^(0+128)
  4385  163F  1283               	bcf	3,5	;RP0=0, select bank0
  4386  1640  0847               	movf	?___flmul+2,w
  4387  1641  1683               	bsf	3,5	;RP0=1, select bank1
  4388  1642  00BC               	movwf	(?_exp+2)^(0+128)
  4389  1643  1283               	bcf	3,5	;RP0=0, select bank0
  4390  1644  0846               	movf	?___flmul+1,w
  4391  1645  1683               	bsf	3,5	;RP0=1, select bank1
  4392  1646  00BB               	movwf	(?_exp+1)^(0+128)
  4393  1647  1283               	bcf	3,5	;RP0=0, select bank0
  4394  1648  0845               	movf	?___flmul,w
  4395  1649  1683               	bsf	3,5	;RP0=1, select bank1
  4396  164A  00BA               	movwf	?_exp^(0+128)
  4397  164B  2204  160A  118A   	fcall	_exp
  4398  164E  083D               	movf	(?_exp+3)^(0+128),w
  4399  164F  00C8               	movwf	(pow@x+3)^(0+128)
  4400  1650  083C               	movf	(?_exp+2)^(0+128),w
  4401  1651  00C7               	movwf	(pow@x+2)^(0+128)
  4402  1652  083B               	movf	(?_exp+1)^(0+128),w
  4403  1653  00C6               	movwf	(pow@x+1)^(0+128)
  4404  1654  083A               	movf	?_exp^(0+128),w
  4405  1655  00C5               	movwf	pow@x^(0+128)
  4406  1656  0851               	movf	pow@sign^(0+128),w
  4407  1657  1903               	btfsc	3,2
  4408  1658  0008               	return
  4409  1659  0848               	movf	(pow@x+3)^(0+128),w
  4410  165A  00F7               	movwf	?___flneg+3
  4411  165B  0847               	movf	(pow@x+2)^(0+128),w
  4412  165C  00F6               	movwf	?___flneg+2
  4413  165D  0846               	movf	(pow@x+1)^(0+128),w
  4414  165E  00F5               	movwf	?___flneg+1
  4415  165F  0845               	movf	pow@x^(0+128),w
  4416  1660  00F4               	movwf	?___flneg
  4417  1661  239A               	fcall	___flneg
  4418  1662  0877               	movf	?___flneg+3,w
  4419  1663  00C8               	movwf	(?_pow+3)^(0+128)
  4420  1664  0876               	movf	?___flneg+2,w
  4421  1665  00C7               	movwf	(?_pow+2)^(0+128)
  4422  1666  0875               	movf	?___flneg+1,w
  4423  1667  00C6               	movwf	(?_pow+1)^(0+128)
  4424  1668  0874               	movf	?___flneg,w
  4425  1669  00C5               	movwf	?_pow^(0+128)
  4426  166A  0008               	return
  4427  166B                     __end_of_pow:	
  4428  166B                     __ptext1128:	
  4429 ;; =============== function _format_number ends ============
  4430                           
  4431                           
  4432 ;; *************** function ___lltofl *****************
  4433 ;; Defined at:
  4434 ;;		line 31 in file "C:\Program Files (x86)\HI-TECH Software\PICC\9.83\sources\lltofl.c"
  4435 ;; Parameters:    Size  Location     Type
  4436 ;;  c               4    6[BANK0 ] unsigned long 
  4437 ;; Auto vars:     Size  Location     Type
  4438 ;;		None
  4439 ;; Return value:  Size  Location     Type
  4440 ;;                  4    6[BANK0 ] unsigned long 
  4441 ;; Registers used:
  4442 ;;		wreg, status,2, status,0, pclath, cstack
  4443 ;; Tracked objects:
  4444 ;;		On entry : 60/0
  4445 ;;		On exit  : 60/0
  4446 ;;		Unchanged: FFF9F/0
  4447 ;; Data sizes:     COMMON   BANK0   BANK1   BANK3   BANK2
  4448 ;;      Params:         0       4       0       0       0
  4449 ;;      Locals:         0       0       0       0       0
  4450 ;;      Temps:          0       0       0       0       0
  4451 ;;      Totals:         0       4       0       0       0
  4452 ;;Total ram usage:        4 bytes
  4453 ;; Hardware stack levels used:    1
  4454 ;; Hardware stack levels required when called:    2
  4455 ;; This function calls:
  4456 ;;		___flpack
  4457 ;; This function is called by:
  4458 ;;		_pow
  4459 ;; This function uses a non-reentrant model
  4460 ;;
  4461  166B                     ___lltofl:	
  4462                           
  4463                           ; Regs used in ___lltofl: [wreg+status,2+status,0+pclath+cstack]
  4464  166B  0829               	movf	___lltofl@c+3,w
  4465  166C  00A3               	movwf	?___flpack+3
  4466  166D  0828               	movf	___lltofl@c+2,w
  4467  166E  00A2               	movwf	?___flpack+2
  4468  166F  0827               	movf	___lltofl@c+1,w
  4469  1670  00A1               	movwf	?___flpack+1
  4470  1671  0826               	movf	___lltofl@c,w
  4471  1672  00A0               	movwf	?___flpack
  4472  1673  3096               	movlw	150
  4473  1674  00A4               	movwf	?___flpack+4
  4474  1675  01A5               	clrf	?___flpack+5
  4475  1676  27B5               	fcall	___flpack
  4476  1677  0823               	movf	?___flpack+3,w
  4477  1678  00A9               	movwf	?___lltofl+3
  4478  1679  0822               	movf	?___flpack+2,w
  4479  167A  00A8               	movwf	?___lltofl+2
  4480  167B  0821               	movf	?___flpack+1,w
  4481  167C  00A7               	movwf	?___lltofl+1
  4482  167D  0820               	movf	?___flpack,w
  4483  167E  00A6               	movwf	?___lltofl
  4484  167F  0008               	return
  4485  1680                     __end_of___lltofl:	
  4486  1680                     __ptext1120:	
  4487 ;; =============== function _exp ends ============
  4488                           
  4489                           
  4490 ;; *************** function _log *****************
  4491 ;; Defined at:
  4492 ;;		line 6 in file "C:\Program Files (x86)\HI-TECH Software\PICC\9.83\sources\log.c"
  4493 ;; Parameters:    Size  Location     Type
  4494 ;;  x               4   20[BANK1 ] unsigned char 
  4495 ;; Auto vars:     Size  Location     Type
  4496 ;;  exp             2   24[BANK1 ] int 
  4497 ;; Return value:  Size  Location     Type
  4498 ;;                  4   20[BANK1 ] int 
  4499 ;; Registers used:
  4500 ;;		wreg, fsr0l, fsr0h, status,2, status,0, btemp+1, pclath, cstack
  4501 ;; Tracked objects:
  4502 ;;		On entry : 60/20
  4503 ;;		On exit  : 60/20
  4504 ;;		Unchanged: FFE9F/0
  4505 ;; Data sizes:     COMMON   BANK0   BANK1   BANK3   BANK2
  4506 ;;      Params:         0       0       4       0       0
  4507 ;;      Locals:         0       0       2       0       0
  4508 ;;      Temps:          0       0       0       0       0
  4509 ;;      Totals:         0       0       6       0       0
  4510 ;;Total ram usage:        6 bytes
  4511 ;; Hardware stack levels used:    1
  4512 ;; Hardware stack levels required when called:    4
  4513 ;; This function calls:
  4514 ;;		___flge
  4515 ;;		_frexp
  4516 ;;		___flmul
  4517 ;;		___fladd
  4518 ;;		_eval_poly
  4519 ;;		___awtofl
  4520 ;; This function is called by:
  4521 ;;		_log10
  4522 ;;		_pow
  4523 ;; This function uses a non-reentrant model
  4524 ;;
  4525  1680                     _log:	
  4526                           
  4527                           ; Regs used in _log: [wreg-fsr0h+status,2+status,0+btemp+1+pclath+cstack]
  4528  1680  0837               	movf	(log@x+3)^(0+128),w
  4529  1681  1283               	bcf	3,5	;RP0=0, select bank0
  4530  1682  00A3               	movwf	?___flge+3
  4531  1683  1683               	bsf	3,5	;RP0=1, select bank1
  4532  1684  0836               	movf	(log@x+2)^(0+128),w
  4533  1685  1283               	bcf	3,5	;RP0=0, select bank0
  4534  1686  00A2               	movwf	?___flge+2
  4535  1687  1683               	bsf	3,5	;RP0=1, select bank1
  4536  1688  0835               	movf	(log@x+1)^(0+128),w
  4537  1689  1283               	bcf	3,5	;RP0=0, select bank0
  4538  168A  00A1               	movwf	?___flge+1
  4539  168B  1683               	bsf	3,5	;RP0=1, select bank1
  4540  168C  0834               	movf	log@x^(0+128),w
  4541  168D  1283               	bcf	3,5	;RP0=0, select bank0
  4542  168E  00A0               	movwf	?___flge
  4543  168F  01A4               	clrf	?___flge+4
  4544  1690  01A5               	clrf	?___flge+5
  4545  1691  01A6               	clrf	?___flge+6
  4546  1692  01A7               	clrf	?___flge+7
  4547  1693  120A  158A  2739   	fcall	___flge
      +       160A  118A         
  4548  1698  1803               	btfsc	3,0
  4549  1699  2EA0               	goto	l8713
  4550  169A  1683               	bsf	3,5	;RP0=1, select bank1
  4551  169B  01B4               	clrf	?_log^(0+128)
  4552  169C  01B5               	clrf	(?_log+1)^(0+128)
  4553  169D  01B6               	clrf	(?_log+2)^(0+128)
  4554  169E  01B7               	clrf	(?_log+3)^(0+128)
  4555  169F  0008               	return
  4556  16A0                     l8713:	
  4557  16A0  1683               	bsf	3,5	;RP0=1, select bank1
  4558  16A1  0837               	movf	(log@x+3)^(0+128),w
  4559  16A2  0436               	iorwf	(log@x+2)^(0+128),w
  4560  16A3  0435               	iorwf	(log@x+1)^(0+128),w
  4561  16A4  0434               	iorwf	log@x^(0+128),w
  4562  16A5  1D03               	skipz
  4563  16A6  2EAC               	goto	l8717
  4564  16A7  01B4               	clrf	?_log^(0+128)
  4565  16A8  01B5               	clrf	(?_log+1)^(0+128)
  4566  16A9  01B6               	clrf	(?_log+2)^(0+128)
  4567  16AA  01B7               	clrf	(?_log+3)^(0+128)
  4568  16AB  0008               	return
  4569  16AC                     l8717:	
  4570  16AC  30BF               	movlw	191
  4571  16AD  1283               	bcf	3,5	;RP0=0, select bank0
  4572  16AE  00DB               	movwf	?___fladd+3
  4573  16AF  3080               	movlw	128
  4574  16B0  00DA               	movwf	?___fladd+2
  4575  16B1  3040               	movlw	64
  4576  16B2  01D9               	clrf	?___fladd+1
  4577  16B3  01D8               	clrf	?___fladd
  4578  16B4  00C8               	movwf	?___flmul+3
  4579  16B5  30B8               	movlw	log@exp& (0+255)
  4580  16B6  01C7               	clrf	?___flmul+2
  4581  16B7  01C6               	clrf	?___flmul+1
  4582  16B8  01C5               	clrf	?___flmul
  4583  16B9  00A4               	movwf	?_frexp+4
  4584  16BA  1683               	bsf	3,5	;RP0=1, select bank1
  4585  16BB  0837               	movf	(log@x+3)^(0+128),w
  4586  16BC  1283               	bcf	3,5	;RP0=0, select bank0
  4587  16BD  00A3               	movwf	?_frexp+3
  4588  16BE  1683               	bsf	3,5	;RP0=1, select bank1
  4589  16BF  0836               	movf	(log@x+2)^(0+128),w
  4590  16C0  1283               	bcf	3,5	;RP0=0, select bank0
  4591  16C1  00A2               	movwf	?_frexp+2
  4592  16C2  1683               	bsf	3,5	;RP0=1, select bank1
  4593  16C3  0835               	movf	(log@x+1)^(0+128),w
  4594  16C4  1283               	bcf	3,5	;RP0=0, select bank0
  4595  16C5  00A1               	movwf	?_frexp+1
  4596  16C6  1683               	bsf	3,5	;RP0=1, select bank1
  4597  16C7  0834               	movf	log@x^(0+128),w
  4598  16C8  1283               	bcf	3,5	;RP0=0, select bank0
  4599  16C9  00A0               	movwf	?_frexp
  4600  16CA  275A               	fcall	_frexp
  4601  16CB  0823               	movf	?_frexp+3,w
  4602  16CC  00CC               	movwf	?___flmul+7
  4603  16CD  0822               	movf	?_frexp+2,w
  4604  16CE  00CB               	movwf	?___flmul+6
  4605  16CF  0821               	movf	?_frexp+1,w
  4606  16D0  00CA               	movwf	?___flmul+5
  4607  16D1  0820               	movf	?_frexp,w
  4608  16D2  00C9               	movwf	?___flmul+4
  4609  16D3  120A  118A  264B   	fcall	___flmul
      +       160A  118A         
  4610  16D8  0848               	movf	?___flmul+3,w
  4611  16D9  00DF               	movwf	?___fladd+7
  4612  16DA  0847               	movf	?___flmul+2,w
  4613  16DB  00DE               	movwf	?___fladd+6
  4614  16DC  0846               	movf	?___flmul+1,w
  4615  16DD  00DD               	movwf	?___fladd+5
  4616  16DE  0845               	movf	?___flmul,w
  4617  16DF  00DC               	movwf	?___fladd+4
  4618  16E0  120A  118A  20B6   	fcall	___fladd
      +       160A  118A         
  4619  16E5  085B               	movf	?___fladd+3,w
  4620  16E6  1683               	bsf	3,5	;RP0=1, select bank1
  4621  16E7  00B7               	movwf	(log@x+3)^(0+128)
  4622  16E8  1283               	bcf	3,5	;RP0=0, select bank0
  4623  16E9  085A               	movf	?___fladd+2,w
  4624  16EA  1683               	bsf	3,5	;RP0=1, select bank1
  4625  16EB  00B6               	movwf	(log@x+2)^(0+128)
  4626  16EC  1283               	bcf	3,5	;RP0=0, select bank0
  4627  16ED  0859               	movf	?___fladd+1,w
  4628  16EE  1683               	bsf	3,5	;RP0=1, select bank1
  4629  16EF  00B5               	movwf	(log@x+1)^(0+128)
  4630  16F0  1283               	bcf	3,5	;RP0=0, select bank0
  4631  16F1  0858               	movf	?___fladd,w
  4632  16F2  1683               	bsf	3,5	;RP0=1, select bank1
  4633  16F3  00B4               	movwf	log@x^(0+128)
  4634  16F4  30FF               	movlw	-1
  4635  16F5  07B8               	addwf	log@exp^(0+128),f
  4636  16F6  1C03               	skipc
  4637  16F7  03B9               	decf	(log@exp+1)^(0+128),f
  4638  16F8  0837               	movf	(log@x+3)^(0+128),w
  4639  16F9  00A7               	movwf	(?_eval_poly+3)^(0+128)
  4640  16FA  0836               	movf	(log@x+2)^(0+128),w
  4641  16FB  00A6               	movwf	(?_eval_poly+2)^(0+128)
  4642  16FC  0835               	movf	(log@x+1)^(0+128),w
  4643  16FD  00A5               	movwf	(?_eval_poly+1)^(0+128)
  4644  16FE  0834               	movf	log@x^(0+128),w
  4645  16FF  00A4               	movwf	?_eval_poly^(0+128)
  4646  1700  3029               	movlw	(log@coeff-__stringbase)& (0+255)
  4647  1701  00A8               	movwf	(?_eval_poly+4)^(0+128)
  4648  1702  3008               	movlw	8
  4649  1703  00A9               	movwf	(?_eval_poly^(0+128)+5)
  4650  1704  01AA               	clrf	((?_eval_poly+1)^(0+128)+5)
  4651  1705  120A  118A  2011   	fcall	_eval_poly
      +       160A  118A         
  4652  170A  0827               	movf	(?_eval_poly+3)^(0+128),w
  4653  170B  00B7               	movwf	(log@x+3)^(0+128)
  4654  170C  0826               	movf	(?_eval_poly+2)^(0+128),w
  4655  170D  00B6               	movwf	(log@x+2)^(0+128)
  4656  170E  0825               	movf	(?_eval_poly+1)^(0+128),w
  4657  170F  00B5               	movwf	(log@x+1)^(0+128)
  4658  1710  0824               	movf	?_eval_poly^(0+128),w
  4659  1711  00B4               	movwf	log@x^(0+128)
  4660  1712  0837               	movf	(log@x+3)^(0+128),w
  4661  1713  1283               	bcf	3,5	;RP0=0, select bank0
  4662  1714  00DB               	movwf	?___fladd+3
  4663  1715  1683               	bsf	3,5	;RP0=1, select bank1
  4664  1716  0836               	movf	(log@x+2)^(0+128),w
  4665  1717  1283               	bcf	3,5	;RP0=0, select bank0
  4666  1718  00DA               	movwf	?___fladd+2
  4667  1719  1683               	bsf	3,5	;RP0=1, select bank1
  4668  171A  0835               	movf	(log@x+1)^(0+128),w
  4669  171B  1283               	bcf	3,5	;RP0=0, select bank0
  4670  171C  00D9               	movwf	?___fladd+1
  4671  171D  1683               	bsf	3,5	;RP0=1, select bank1
  4672  171E  0834               	movf	log@x^(0+128),w
  4673  171F  1283               	bcf	3,5	;RP0=0, select bank0
  4674  1720  00D8               	movwf	?___fladd
  4675  1721  303F               	movlw	63
  4676  1722  00C8               	movwf	?___flmul+3
  4677  1723  3031               	movlw	49
  4678  1724  00C7               	movwf	?___flmul+2
  4679  1725  3072               	movlw	114
  4680  1726  00C6               	movwf	?___flmul+1
  4681  1727  3018               	movlw	24
  4682  1728  00C5               	movwf	?___flmul
  4683  1729  1683               	bsf	3,5	;RP0=1, select bank1
  4684  172A  0839               	movf	(log@exp+1)^(0+128),w
  4685  172B  1283               	bcf	3,5	;RP0=0, select bank0
  4686  172C  00B3               	movwf	?___awtofl+1
  4687  172D  1683               	bsf	3,5	;RP0=1, select bank1
  4688  172E  0838               	movf	log@exp^(0+128),w
  4689  172F  1283               	bcf	3,5	;RP0=0, select bank0
  4690  1730  00B2               	movwf	?___awtofl
  4691  1731  2798               	fcall	___awtofl
  4692  1732  0835               	movf	?___awtofl+3,w
  4693  1733  00CC               	movwf	?___flmul+7
  4694  1734  0834               	movf	?___awtofl+2,w
  4695  1735  00CB               	movwf	?___flmul+6
  4696  1736  0833               	movf	?___awtofl+1,w
  4697  1737  00CA               	movwf	?___flmul+5
  4698  1738  0832               	movf	?___awtofl,w
  4699  1739  00C9               	movwf	?___flmul+4
  4700  173A  120A  118A  264B   	fcall	___flmul
      +       160A  118A         
  4701  173F  0848               	movf	?___flmul+3,w
  4702  1740  00DF               	movwf	?___fladd+7
  4703  1741  0847               	movf	?___flmul+2,w
  4704  1742  00DE               	movwf	?___fladd+6
  4705  1743  0846               	movf	?___flmul+1,w
  4706  1744  00DD               	movwf	?___fladd+5
  4707  1745  0845               	movf	?___flmul,w
  4708  1746  00DC               	movwf	?___fladd+4
  4709  1747  120A  118A  20B6   	fcall	___fladd
  4710  174A  085B               	movf	?___fladd+3,w
  4711  174B  1683               	bsf	3,5	;RP0=1, select bank1
  4712  174C  00B7               	movwf	(?_log+3)^(0+128)
  4713  174D  1283               	bcf	3,5	;RP0=0, select bank0
  4714  174E  085A               	movf	?___fladd+2,w
  4715  174F  1683               	bsf	3,5	;RP0=1, select bank1
  4716  1750  00B6               	movwf	(?_log+2)^(0+128)
  4717  1751  1283               	bcf	3,5	;RP0=0, select bank0
  4718  1752  0859               	movf	?___fladd+1,w
  4719  1753  1683               	bsf	3,5	;RP0=1, select bank1
  4720  1754  00B5               	movwf	(?_log+1)^(0+128)
  4721  1755  1283               	bcf	3,5	;RP0=0, select bank0
  4722  1756  0858               	movf	?___fladd,w
  4723  1757  1683               	bsf	3,5	;RP0=1, select bank1
  4724  1758  00B4               	movwf	?_log^(0+128)
  4725  1759  0008               	return
  4726  175A                     __end_of_log:	
  4727  175A                     __ptext1149:	
  4728 ;; =============== function ___wmul ends ============
  4729                           
  4730                           
  4731 ;; *************** function _frexp *****************
  4732 ;; Defined at:
  4733 ;;		line 255 in file "C:\Program Files (x86)\HI-TECH Software\PICC\9.83\sources\frexp.c"
  4734 ;; Parameters:    Size  Location     Type
  4735 ;;  value           4    0[BANK0 ] unsigned int 
  4736 ;;  eptr            1    4[BANK0 ] PTR int 
  4737 ;;		 -> log@exp(2), floor@expon(2), 
  4738 ;; Auto vars:     Size  Location     Type
  4739 ;;		None
  4740 ;; Return value:  Size  Location     Type
  4741 ;;                  4    0[BANK0 ] PTR int 
  4742 ;; Registers used:
  4743 ;;		wreg, fsr0l, fsr0h, status,2, status,0, btemp+1
  4744 ;; Tracked objects:
  4745 ;;		On entry : 60/0
  4746 ;;		On exit  : 160/0
  4747 ;;		Unchanged: FFE9F/0
  4748 ;; Data sizes:     COMMON   BANK0   BANK1   BANK3   BANK2
  4749 ;;      Params:         0       5       0       0       0
  4750 ;;      Locals:         0       0       0       0       0
  4751 ;;      Temps:          2       0       0       0       0
  4752 ;;      Totals:         2       5       0       0       0
  4753 ;;Total ram usage:        7 bytes
  4754 ;; Hardware stack levels used:    1
  4755 ;; Hardware stack levels required when called:    1
  4756 ;; This function calls:
  4757 ;;		Nothing
  4758 ;; This function is called by:
  4759 ;;		_floor
  4760 ;;		_log
  4761 ;; This function uses a non-reentrant model
  4762 ;;
  4763  175A                     _frexp:	
  4764                           
  4765                           ; Regs used in _frexp: [wreg-fsr0h+status,2+status,0+btemp+1]
  4766  175A  0823               	movf	frexp@value+3,w
  4767  175B  0422               	iorwf	frexp@value+2,w
  4768  175C  0421               	iorwf	frexp@value+1,w
  4769  175D  0420               	iorwf	frexp@value,w
  4770  175E  1D03               	skipz
  4771  175F  2F6B               	goto	l8191
  4772  1760  0824               	movf	frexp@eptr,w
  4773  1761  0084               	movwf	4
  4774  1762  1383               	bcf	3,7	;select IRP bank0
  4775  1763  0180               	clrf	0
  4776  1764  0A84               	incf	4,f
  4777  1765  0180               	clrf	0
  4778  1766  01A0               	clrf	?_frexp
  4779  1767  01A1               	clrf	?_frexp+1
  4780  1768  01A2               	clrf	?_frexp+2
  4781  1769  01A3               	clrf	?_frexp+3
  4782  176A  0008               	return
  4783  176B                     l8191:	
  4784  176B  0823               	movf	frexp@value+3,w
  4785  176C  397F               	andlw	127
  4786  176D  00F4               	movwf	??_frexp
  4787  176E  01F5               	clrf	??_frexp+1
  4788  176F  1003               	clrc
  4789  1770  0DF4               	rlf	??_frexp,f
  4790  1771  0DF5               	rlf	??_frexp+1,f
  4791  1772  0824               	movf	frexp@eptr,w
  4792  1773  0084               	movwf	4
  4793  1774  0874               	movf	??_frexp,w
  4794  1775  1383               	bcf	3,7	;select IRP bank0
  4795  1776  0080               	movwf	0
  4796  1777  0A84               	incf	4,f
  4797  1778  0875               	movf	??_frexp+1,w
  4798  1779  0080               	movwf	0
  4799  177A  0D22               	rlf	frexp@value+2,w
  4800  177B  0D22               	rlf	frexp@value+2,w
  4801  177C  3901               	andlw	1
  4802  177D  00F4               	movwf	??_frexp
  4803  177E  01F5               	clrf	??_frexp+1
  4804  177F  0824               	movf	frexp@eptr,w
  4805  1780  0084               	movwf	4
  4806  1781  0874               	movf	??_frexp,w
  4807  1782  0480               	iorwf	0,f
  4808  1783  0A84               	incf	4,f
  4809  1784  0875               	movf	??_frexp+1,w
  4810  1785  0480               	iorwf	0,f
  4811  1786  0824               	movf	frexp@eptr,w
  4812  1787  0084               	movwf	4
  4813  1788  3082               	movlw	130
  4814  1789  0780               	addwf	0,f
  4815  178A  0F84               	incfsz	4,f
  4816  178B  0800               	movf	0,w
  4817  178C  1803               	skipnc
  4818  178D  0A00               	incf	0,w
  4819  178E  00FF               	movwf	127
  4820  178F  3EFF               	addlw	255
  4821  1790  0080               	movwf	0
  4822  1791  0384               	decf	4,f
  4823  1792  0823               	movf	frexp@value+3,w
  4824  1793  3980               	andlw	-128
  4825  1794  383F               	iorlw	63
  4826  1795  00A3               	movwf	frexp@value+3
  4827  1796  13A2               	bcf	frexp@value+2,7
  4828  1797  0008               	return
  4829  1798                     __end_of_frexp:	
  4830  1798                     __ptext1131:	
  4831 ;; =============== function ___lwtofl ends ============
  4832                           
  4833                           
  4834 ;; *************** function ___awtofl *****************
  4835 ;; Defined at:
  4836 ;;		line 32 in file "C:\Program Files (x86)\HI-TECH Software\PICC\9.83\sources\awtofl.c"
  4837 ;; Parameters:    Size  Location     Type
  4838 ;;  c               2   18[BANK0 ] int 
  4839 ;; Auto vars:     Size  Location     Type
  4840 ;;  f1              4    0        int 
  4841 ;;  sign            1   22[BANK0 ] unsigned char 
  4842 ;; Return value:  Size  Location     Type
  4843 ;;                  4   18[BANK0 ] unsigned char 
  4844 ;; Registers used:
  4845 ;;		wreg, status,2, status,0, pclath, cstack
  4846 ;; Tracked objects:
  4847 ;;		On entry : 60/0
  4848 ;;		On exit  : 60/0
  4849 ;;		Unchanged: FFF9F/0
  4850 ;; Data sizes:     COMMON   BANK0   BANK1   BANK3   BANK2
  4851 ;;      Params:         0       4       0       0       0
  4852 ;;      Locals:         0       1       0       0       0
  4853 ;;      Temps:          0       0       0       0       0
  4854 ;;      Totals:         0       5       0       0       0
  4855 ;;Total ram usage:        5 bytes
  4856 ;; Hardware stack levels used:    1
  4857 ;; Hardware stack levels required when called:    2
  4858 ;; This function calls:
  4859 ;;		___flpack
  4860 ;; This function is called by:
  4861 ;;		_format_double
  4862 ;;		_log
  4863 ;;		_exp
  4864 ;; This function uses a non-reentrant model
  4865 ;;
  4866  1798                     ___awtofl:	
  4867                           
  4868                           ; Regs used in ___awtofl: [wreg+status,2+status,0+pclath+cstack]
  4869  1798  01B6               	clrf	___awtofl@sign
  4870  1799  1FB3               	btfss	___awtofl@c+1,7
  4871  179A  2FA1               	goto	l8529
  4872  179B  09B2               	comf	___awtofl@c,f
  4873  179C  09B3               	comf	___awtofl@c+1,f
  4874  179D  0AB2               	incf	___awtofl@c,f
  4875  179E  1903               	skipnz
  4876  179F  0AB3               	incf	___awtofl@c+1,f
  4877  17A0  0AB6               	incf	___awtofl@sign,f
  4878  17A1                     l8529:	
  4879  17A1  0832               	movf	___awtofl@c,w
  4880  17A2  00A0               	movwf	?___flpack
  4881  17A3  0833               	movf	___awtofl@c+1,w
  4882  17A4  00A1               	movwf	?___flpack+1
  4883  17A5  3096               	movlw	150
  4884  17A6  01A2               	clrf	?___flpack+2
  4885  17A7  01A3               	clrf	?___flpack+3
  4886  17A8  00A4               	movwf	?___flpack+4
  4887  17A9  0836               	movf	___awtofl@sign,w
  4888  17AA  00A5               	movwf	?___flpack+5
  4889  17AB  27B5               	fcall	___flpack
  4890  17AC  0823               	movf	?___flpack+3,w
  4891  17AD  00B5               	movwf	?___awtofl+3
  4892  17AE  0822               	movf	?___flpack+2,w
  4893  17AF  00B4               	movwf	?___awtofl+2
  4894  17B0  0821               	movf	?___flpack+1,w
  4895  17B1  00B3               	movwf	?___awtofl+1
  4896  17B2  0820               	movf	?___flpack,w
  4897  17B3  00B2               	movwf	?___awtofl
  4898  17B4  0008               	return
  4899  17B5                     __end_of___awtofl:	
  4900  17B5                     __ptext1145:	
  4901 ;; =============== function ___flneg ends ============
  4902                           
  4903                           
  4904 ;; *************** function ___flpack *****************
  4905 ;; Defined at:
  4906 ;;		line 64 in file "C:\Program Files (x86)\HI-TECH Software\PICC\9.83\sources\double.c"
  4907 ;; Parameters:    Size  Location     Type
  4908 ;;  arg             4    0[BANK0 ] unsigned long 
  4909 ;;  exp             1    4[BANK0 ] unsigned char 
  4910 ;;  sign            1    5[BANK0 ] unsigned char 
  4911 ;; Auto vars:     Size  Location     Type
  4912 ;;		None
  4913 ;; Return value:  Size  Location     Type
  4914 ;;                  4    0[BANK0 ] unsigned char 
  4915 ;; Registers used:
  4916 ;;		wreg, status,2, status,0
  4917 ;; Tracked objects:
  4918 ;;		On entry : 60/0
  4919 ;;		On exit  : 60/0
  4920 ;;		Unchanged: FFF9F/0
  4921 ;; Data sizes:     COMMON   BANK0   BANK1   BANK3   BANK2
  4922 ;;      Params:         0       6       0       0       0
  4923 ;;      Locals:         0       0       0       0       0
  4924 ;;      Temps:          4       0       0       0       0
  4925 ;;      Totals:         4       6       0       0       0
  4926 ;;Total ram usage:       10 bytes
  4927 ;; Hardware stack levels used:    1
  4928 ;; Hardware stack levels required when called:    1
  4929 ;; This function calls:
  4930 ;;		Nothing
  4931 ;; This function is called by:
  4932 ;;		___fladd
  4933 ;;		___fldiv
  4934 ;;		___flmul
  4935 ;;		___awtofl
  4936 ;;		___lwtofl
  4937 ;;		___altofl
  4938 ;;		___lltofl
  4939 ;; This function uses a non-reentrant model
  4940 ;;
  4941  17B5                     ___flpack:	
  4942                           
  4943                           ; Regs used in ___flpack: [wreg+status,2+status,0]
  4944  17B5  0824               	movf	___flpack@exp,w
  4945  17B6  1903               	btfsc	3,2
  4946  17B7  2FBE               	goto	l4369
  4947  17B8  0823               	movf	___flpack@arg+3,w
  4948  17B9  0422               	iorwf	___flpack@arg+2,w
  4949  17BA  0421               	iorwf	___flpack@arg+1,w
  4950  17BB  0420               	iorwf	___flpack@arg,w
  4951  17BC  1D03               	skipz
  4952  17BD  2FC9               	goto	l8271
  4953  17BE                     l4369:	
  4954  17BE  01A0               	clrf	?___flpack
  4955  17BF  01A1               	clrf	?___flpack+1
  4956  17C0  01A2               	clrf	?___flpack+2
  4957  17C1  01A3               	clrf	?___flpack+3
  4958  17C2  0008               	return
  4959  17C3                     l8269:	
  4960  17C3  0AA4               	incf	___flpack@exp,f
  4961  17C4  1003               	clrc
  4962  17C5  0CA3               	rrf	___flpack@arg+3,f
  4963  17C6  0CA2               	rrf	___flpack@arg+2,f
  4964  17C7  0CA1               	rrf	___flpack@arg+1,f
  4965  17C8  0CA0               	rrf	___flpack@arg,f
  4966  17C9                     l8271:	
  4967  17C9  30FE               	movlw	254
  4968  17CA  0523               	andwf	___flpack@arg+3,w
  4969  17CB  1903               	btfsc	3,2
  4970  17CC  2FDB               	goto	l8279
  4971  17CD  2FC3               	goto	l8269
  4972  17CE                     l8273:	
  4973  17CE  0AA4               	incf	___flpack@exp,f
  4974  17CF  0AA0               	incf	___flpack@arg,f
  4975  17D0  1903               	skipnz
  4976  17D1  0AA1               	incf	___flpack@arg+1,f
  4977  17D2  1903               	skipnz
  4978  17D3  0AA2               	incf	___flpack@arg+2,f
  4979  17D4  1903               	skipnz
  4980  17D5  0AA3               	incf	___flpack@arg+3,f
  4981  17D6  1003               	clrc
  4982  17D7  0CA3               	rrf	___flpack@arg+3,f
  4983  17D8  0CA2               	rrf	___flpack@arg+2,f
  4984  17D9  0CA1               	rrf	___flpack@arg+1,f
  4985  17DA  0CA0               	rrf	___flpack@arg,f
  4986  17DB                     l8279:	
  4987  17DB  30FF               	movlw	255
  4988  17DC  0523               	andwf	___flpack@arg+3,w
  4989  17DD  1903               	btfsc	3,2
  4990  17DE  2FE6               	goto	l8283
  4991  17DF  2FCE               	goto	l8273
  4992  17E0                     l8281:	
  4993  17E0  03A4               	decf	___flpack@exp,f
  4994  17E1  1003               	clrc
  4995  17E2  0DA0               	rlf	___flpack@arg,f
  4996  17E3  0DA1               	rlf	___flpack@arg+1,f
  4997  17E4  0DA2               	rlf	___flpack@arg+2,f
  4998  17E5  0DA3               	rlf	___flpack@arg+3,f
  4999  17E6                     l8283:	
  5000  17E6  1FA2               	btfss	___flpack@arg+2,7
  5001  17E7  2FE0               	goto	l8281
  5002  17E8  1824               	btfsc	___flpack@exp,0
  5003  17E9  2FED               	goto	l8287
  5004  17EA  307F               	movlw	127
  5005  17EB  05A2               	andwf	___flpack@arg+2,f
  5006  17EC  30FF               	movlw	255
  5007  17ED                     l8287:	
  5008  17ED  1003               	clrc
  5009  17EE  0CA4               	rrf	___flpack@exp,f
  5010  17EF  0824               	movf	___flpack@exp,w
  5011  17F0  00F7               	movwf	??___flpack+3
  5012  17F1  01F6               	clrf	??___flpack+2
  5013  17F2  01F5               	clrf	??___flpack+1
  5014  17F3  01F4               	clrf	??___flpack
  5015  17F4  0874               	movf	??___flpack,w
  5016  17F5  04A0               	iorwf	___flpack@arg,f
  5017  17F6  0875               	movf	??___flpack+1,w
  5018  17F7  04A1               	iorwf	___flpack@arg+1,f
  5019  17F8  0876               	movf	??___flpack+2,w
  5020  17F9  04A2               	iorwf	___flpack@arg+2,f
  5021  17FA  0877               	movf	??___flpack+3,w
  5022  17FB  04A3               	iorwf	___flpack@arg+3,f
  5023  17FC  0825               	movf	___flpack@sign,w
  5024  17FD  1D03               	skipz
  5025  17FE  17A3               	bsf	___flpack@arg+3,7
  5026  17FF  0008               	return
  5027  1800                     __end_of___flpack:	
  5028                           
  5029                           	psect	text1124
  5030  0011                     __ptext1124:	
  5031 ;; =============== function ___flsub ends ============
  5032                           
  5033                           
  5034 ;; *************** function _eval_poly *****************
  5035 ;; Defined at:
  5036 ;;		line 5 in file "C:\Program Files (x86)\HI-TECH Software\PICC\9.83\sources\evalpoly.c"
  5037 ;; Parameters:    Size  Location     Type
  5038 ;;  x               4    4[BANK1 ] unsigned long 
  5039 ;;  d               1    8[BANK1 ] PTR const 
  5040 ;;		 -> exp@coeff(40), log@coeff(36), 
  5041 ;;  n               2    9[BANK1 ] int 
  5042 ;; Auto vars:     Size  Location     Type
  5043 ;;  res             4   16[BANK1 ] int 
  5044 ;; Return value:  Size  Location     Type
  5045 ;;                  4    4[BANK1 ] int 
  5046 ;; Registers used:
  5047 ;;		wreg, fsr0l, fsr0h, status,2, status,0, pclath, cstack
  5048 ;; Tracked objects:
  5049 ;;		On entry : 160/20
  5050 ;;		On exit  : 160/20
  5051 ;;		Unchanged: FFE9F/0
  5052 ;; Data sizes:     COMMON   BANK0   BANK1   BANK3   BANK2
  5053 ;;      Params:         0       0       7       0       0
  5054 ;;      Locals:         0       0       4       0       0
  5055 ;;      Temps:          0       0       5       0       0
  5056 ;;      Totals:         0       0      16       0       0
  5057 ;;Total ram usage:       16 bytes
  5058 ;; Hardware stack levels used:    1
  5059 ;; Hardware stack levels required when called:    3
  5060 ;; This function calls:
  5061 ;;		___flmul
  5062 ;;		___fladd
  5063 ;; This function is called by:
  5064 ;;		_log
  5065 ;;		_exp
  5066 ;; This function uses a non-reentrant model
  5067 ;;
  5068  0011                     _eval_poly:	
  5069                           
  5070 ;; using string table level
  5071                           ; Regs used in _eval_poly: [wreg-fsr0h+status,2+status,0+pclath+cstack]
  5072  0011  0829               	movf	eval_poly@n^(0+128),w
  5073  0012  00AB               	movwf	??_eval_poly^(0+128)
  5074  0013  1003               	clrc
  5075  0014  0DAB               	rlf	??_eval_poly^(0+128),f
  5076  0015  1003               	clrc
  5077  0016  0D2B               	rlf	??_eval_poly^(0+128),w
  5078  0017  0728               	addwf	eval_poly@d^(0+128),w
  5079  0018  0084               	movwf	4
  5080  0019  160A  158A  2000   	fcall	stringdir
      +       120A  118A         
  5081  001E  00AC               	movwf	(??_eval_poly+1)^(0+128)
  5082  001F  160A  158A  2000   	fcall	stringdir
      +       120A  118A         
  5083  0024  00AD               	movwf	((??_eval_poly+1)^(0+128)+1)
  5084  0025  160A  158A  2000   	fcall	stringdir
      +       120A  118A         
  5085  002A  00AE               	movwf	((??_eval_poly+1)^(0+128)+2)
  5086  002B  160A  158A  2000   	fcall	stringdir
      +       120A  118A         
  5087  0030  00AF               	movwf	((??_eval_poly+1)^(0+128)+3)
  5088  0031  082F               	movf	(??_eval_poly+4)^(0+128),w
  5089  0032  00B3               	movwf	(eval_poly@res+3)^(0+128)
  5090  0033  082E               	movf	(??_eval_poly+3)^(0+128),w
  5091  0034  00B2               	movwf	(eval_poly@res+2)^(0+128)
  5092  0035  082D               	movf	(??_eval_poly+2)^(0+128),w
  5093  0036  00B1               	movwf	(eval_poly@res+1)^(0+128)
  5094  0037  082C               	movf	(??_eval_poly+1)^(0+128),w
  5095  0038                     L3:	
  5096  0038  00B0               	movwf	eval_poly@res^(0+128)
  5097  0039  082A               	movf	(eval_poly@n+1)^(0+128),w
  5098  003A  0429               	iorwf	eval_poly@n^(0+128),w
  5099  003B  1903               	btfsc	3,2
  5100  003C  28AD               	goto	l8639
  5101  003D  30FF               	movlw	-1
  5102  003E  07A9               	addwf	eval_poly@n^(0+128),f
  5103  003F  1C03               	skipc
  5104  0040  03AA               	decf	(eval_poly@n+1)^(0+128),f
  5105  0041  0829               	movf	eval_poly@n^(0+128),w
  5106  0042  00AB               	movwf	??_eval_poly^(0+128)
  5107  0043  1003               	clrc
  5108  0044  0DAB               	rlf	??_eval_poly^(0+128),f
  5109  0045  1003               	clrc
  5110  0046  0D2B               	rlf	??_eval_poly^(0+128),w
  5111  0047  0728               	addwf	eval_poly@d^(0+128),w
  5112  0048  0084               	movwf	4
  5113  0049  160A  158A  2000   	fcall	stringdir
      +       120A  118A         
  5114  004E  00AC               	movwf	(??_eval_poly+1)^(0+128)
  5115  004F  160A  158A  2000   	fcall	stringdir
      +       120A  118A         
  5116  0054  00AD               	movwf	((??_eval_poly+1)^(0+128)+1)
  5117  0055  160A  158A  2000   	fcall	stringdir
      +       120A  118A         
  5118  005A  00AE               	movwf	((??_eval_poly+1)^(0+128)+2)
  5119  005B  160A  158A  2000   	fcall	stringdir
      +       120A  118A         
  5120  0060  00AF               	movwf	((??_eval_poly+1)^(0+128)+3)
  5121  0061  082F               	movf	(??_eval_poly+4)^(0+128),w
  5122  0062  1283               	bcf	3,5	;RP0=0, select bank0
  5123  0063  00DB               	movwf	?___fladd+3
  5124  0064  1683               	bsf	3,5	;RP0=1, select bank1
  5125  0065  082E               	movf	(??_eval_poly+3)^(0+128),w
  5126  0066  1283               	bcf	3,5	;RP0=0, select bank0
  5127  0067  00DA               	movwf	?___fladd+2
  5128  0068  1683               	bsf	3,5	;RP0=1, select bank1
  5129  0069  082D               	movf	(??_eval_poly+2)^(0+128),w
  5130  006A  1283               	bcf	3,5	;RP0=0, select bank0
  5131  006B  00D9               	movwf	?___fladd+1
  5132  006C  1683               	bsf	3,5	;RP0=1, select bank1
  5133  006D  082C               	movf	(??_eval_poly+1)^(0+128),w
  5134  006E  1283               	bcf	3,5	;RP0=0, select bank0
  5135  006F  00D8               	movwf	?___fladd
  5136  0070  1683               	bsf	3,5	;RP0=1, select bank1
  5137  0071  0833               	movf	(eval_poly@res+3)^(0+128),w
  5138  0072  1283               	bcf	3,5	;RP0=0, select bank0
  5139  0073  00C8               	movwf	?___flmul+3
  5140  0074  1683               	bsf	3,5	;RP0=1, select bank1
  5141  0075  0832               	movf	(eval_poly@res+2)^(0+128),w
  5142  0076  1283               	bcf	3,5	;RP0=0, select bank0
  5143  0077  00C7               	movwf	?___flmul+2
  5144  0078  1683               	bsf	3,5	;RP0=1, select bank1
  5145  0079  0831               	movf	(eval_poly@res+1)^(0+128),w
  5146  007A  1283               	bcf	3,5	;RP0=0, select bank0
  5147  007B  00C6               	movwf	?___flmul+1
  5148  007C  1683               	bsf	3,5	;RP0=1, select bank1
  5149  007D  0830               	movf	eval_poly@res^(0+128),w
  5150  007E  1283               	bcf	3,5	;RP0=0, select bank0
  5151  007F  00C5               	movwf	?___flmul
  5152  0080  1683               	bsf	3,5	;RP0=1, select bank1
  5153  0081  0827               	movf	(eval_poly@x+3)^(0+128),w
  5154  0082  1283               	bcf	3,5	;RP0=0, select bank0
  5155  0083  00CC               	movwf	?___flmul+7
  5156  0084  1683               	bsf	3,5	;RP0=1, select bank1
  5157  0085  0826               	movf	(eval_poly@x+2)^(0+128),w
  5158  0086  1283               	bcf	3,5	;RP0=0, select bank0
  5159  0087  00CB               	movwf	?___flmul+6
  5160  0088  1683               	bsf	3,5	;RP0=1, select bank1
  5161  0089  0825               	movf	(eval_poly@x+1)^(0+128),w
  5162  008A  1283               	bcf	3,5	;RP0=0, select bank0
  5163  008B  00CA               	movwf	?___flmul+5
  5164  008C  1683               	bsf	3,5	;RP0=1, select bank1
  5165  008D  0824               	movf	eval_poly@x^(0+128),w
  5166  008E  1283               	bcf	3,5	;RP0=0, select bank0
  5167  008F  00C9               	movwf	?___flmul+4
  5168  0090  264B  120A  118A   	fcall	___flmul
  5169  0093  0848               	movf	?___flmul+3,w
  5170  0094  00DF               	movwf	?___fladd+7
  5171  0095  0847               	movf	?___flmul+2,w
  5172  0096  00DE               	movwf	?___fladd+6
  5173  0097  0846               	movf	?___flmul+1,w
  5174  0098  00DD               	movwf	?___fladd+5
  5175  0099  0845               	movf	?___flmul,w
  5176  009A  00DC               	movwf	?___fladd+4
  5177  009B  20B6  120A  118A   	fcall	___fladd
  5178  009E  085B               	movf	?___fladd+3,w
  5179  009F  1683               	bsf	3,5	;RP0=1, select bank1
  5180  00A0  00B3               	movwf	(eval_poly@res+3)^(0+128)
  5181  00A1  1283               	bcf	3,5	;RP0=0, select bank0
  5182  00A2  085A               	movf	?___fladd+2,w
  5183  00A3  1683               	bsf	3,5	;RP0=1, select bank1
  5184  00A4  00B2               	movwf	(eval_poly@res+2)^(0+128)
  5185  00A5  1283               	bcf	3,5	;RP0=0, select bank0
  5186  00A6  0859               	movf	?___fladd+1,w
  5187  00A7  1683               	bsf	3,5	;RP0=1, select bank1
  5188  00A8  00B1               	movwf	(eval_poly@res+1)^(0+128)
  5189  00A9  1283               	bcf	3,5	;RP0=0, select bank0
  5190  00AA  0858               	movf	?___fladd,w
  5191  00AB  1683               	bsf	3,5	;RP0=1, select bank1
  5192  00AC  2838               	goto	L3
  5193  00AD                     l8639:	
  5194  00AD  0833               	movf	(eval_poly@res+3)^(0+128),w
  5195  00AE  00A7               	movwf	(?_eval_poly+3)^(0+128)
  5196  00AF  0832               	movf	(eval_poly@res+2)^(0+128),w
  5197  00B0  00A6               	movwf	(?_eval_poly+2)^(0+128)
  5198  00B1  0831               	movf	(eval_poly@res+1)^(0+128),w
  5199  00B2  00A5               	movwf	(?_eval_poly+1)^(0+128)
  5200  00B3  0830               	movf	eval_poly@res^(0+128),w
  5201  00B4  00A4               	movwf	?_eval_poly^(0+128)
  5202  00B5  0008               	return
  5203  00B6                     __end_of_eval_poly:	
  5204  00B6                     __ptext1134:	
  5205 ;; =============== function ___fldiv ends ============
  5206                           
  5207                           
  5208 ;; *************** function ___fladd *****************
  5209 ;; Defined at:
  5210 ;;		line 89 in file "C:\Program Files (x86)\HI-TECH Software\PICC\9.83\sources\fladd.c"
  5211 ;; Parameters:    Size  Location     Type
  5212 ;;  f1              4   56[BANK0 ] unsigned char 
  5213 ;;  f2              4   60[BANK0 ] unsigned char 
  5214 ;; Auto vars:     Size  Location     Type
  5215 ;;  exp1            1   70[BANK0 ] unsigned char 
  5216 ;;  exp2            1   69[BANK0 ] unsigned char 
  5217 ;;  sign            1   68[BANK0 ] unsigned char 
  5218 ;; Return value:  Size  Location     Type
  5219 ;;                  4   56[BANK0 ] unsigned char 
  5220 ;; Registers used:
  5221 ;;		wreg, status,2, status,0, pclath, cstack
  5222 ;; Tracked objects:
  5223 ;;		On entry : 60/0
  5224 ;;		On exit  : 60/0
  5225 ;;		Unchanged: FFF9F/0
  5226 ;; Data sizes:     COMMON   BANK0   BANK1   BANK3   BANK2
  5227 ;;      Params:         0       8       0       0       0
  5228 ;;      Locals:         0       3       0       0       0
  5229 ;;      Temps:          0       4       0       0       0
  5230 ;;      Totals:         0      15       0       0       0
  5231 ;;Total ram usage:       15 bytes
  5232 ;; Hardware stack levels used:    1
  5233 ;; Hardware stack levels required when called:    2
  5234 ;; This function calls:
  5235 ;;		___flpack
  5236 ;; This function is called by:
  5237 ;;		_floor
  5238 ;;		_log
  5239 ;;		___flsub
  5240 ;;		_eval_poly
  5241 ;; This function uses a non-reentrant model
  5242 ;;
  5243  00B6                     ___fladd:	
  5244                           
  5245                           ; Regs used in ___fladd: [wreg+status,2+status,0+pclath+cstack]
  5246  00B6  0858               	movf	___fladd@f1,w
  5247  00B7  00E0               	movwf	??___fladd
  5248  00B8  0859               	movf	___fladd@f1+1,w
  5249  00B9  00E1               	movwf	??___fladd+1
  5250  00BA  085A               	movf	___fladd@f1+2,w
  5251  00BB  00E2               	movwf	??___fladd+2
  5252  00BC  085B               	movf	___fladd@f1+3,w
  5253  00BD  00E3               	movwf	??___fladd+3
  5254  00BE  1003               	clrc
  5255  00BF  0D62               	rlf	??___fladd+2,w
  5256  00C0  0D63               	rlf	??___fladd+3,w
  5257  00C1  00E6               	movwf	___fladd@exp1
  5258  00C2  085C               	movf	___fladd@f2,w
  5259  00C3  00E0               	movwf	??___fladd
  5260  00C4  085D               	movf	___fladd@f2+1,w
  5261  00C5  00E1               	movwf	??___fladd+1
  5262  00C6  085E               	movf	___fladd@f2+2,w
  5263  00C7  00E2               	movwf	??___fladd+2
  5264  00C8  085F               	movf	___fladd@f2+3,w
  5265  00C9  00E3               	movwf	??___fladd+3
  5266  00CA  1003               	clrc
  5267  00CB  0D62               	rlf	??___fladd+2,w
  5268  00CC  0D63               	rlf	??___fladd+3,w
  5269  00CD  00E5               	movwf	___fladd@exp2
  5270  00CE  0866               	movf	___fladd@exp1,w
  5271  00CF  1903               	btfsc	3,2
  5272  00D0  28DD               	goto	l8361
  5273  00D1  0865               	movf	___fladd@exp2,w
  5274  00D2  0266               	subwf	___fladd@exp1,w
  5275  00D3  0865               	movf	___fladd@exp2,w
  5276  00D4  1803               	skipnc
  5277  00D5  28E7               	goto	L7
  5278  00D6  00E0               	movwf	??___fladd
  5279  00D7  0866               	movf	___fladd@exp1,w
  5280  00D8  02E0               	subwf	??___fladd,f
  5281  00D9  3021               	movlw	33
  5282  00DA  0260               	subwf	??___fladd,w
  5283  00DB  1C03               	skipc
  5284  00DC  28E6               	goto	l8365
  5285  00DD                     l8361:	
  5286  00DD  085F               	movf	___fladd@f2+3,w
  5287  00DE  00DB               	movwf	?___fladd+3
  5288  00DF  085E               	movf	___fladd@f2+2,w
  5289  00E0  00DA               	movwf	?___fladd+2
  5290  00E1  085D               	movf	___fladd@f2+1,w
  5291  00E2  00D9               	movwf	?___fladd+1
  5292  00E3  085C               	movf	___fladd@f2,w
  5293  00E4  00D8               	movwf	?___fladd
  5294  00E5  0008               	return
  5295  00E6                     l8365:	
  5296  00E6  0865               	movf	___fladd@exp2,w
  5297  00E7                     L7:	
  5298  00E7  1903               	btfsc	3,2
  5299  00E8  0008               	return
  5300  00E9  0866               	movf	___fladd@exp1,w
  5301  00EA  0265               	subwf	___fladd@exp2,w
  5302  00EB  1803               	skipnc
  5303  00EC  28F5               	goto	l8371
  5304  00ED  0866               	movf	___fladd@exp1,w
  5305  00EE  00E0               	movwf	??___fladd
  5306  00EF  0865               	movf	___fladd@exp2,w
  5307  00F0  02E0               	subwf	??___fladd,f
  5308  00F1  3021               	movlw	33
  5309  00F2  0260               	subwf	??___fladd,w
  5310  00F3  1803               	btfsc	3,0
  5311  00F4  0008               	return
  5312  00F5                     l8371:	
  5313  00F5  3006               	movlw	6
  5314  00F6  00E4               	movwf	___fladd@sign
  5315  00F7  1BDB               	btfsc	___fladd@f1+3,7
  5316  00F8  17E4               	bsf	___fladd@sign,7
  5317  00F9  1BDF               	btfsc	___fladd@f2+3,7
  5318  00FA  1764               	bsf	___fladd@sign,6
  5319  00FB  17DA               	bsf	___fladd@f1+2,7
  5320  00FC  01DB               	clrf	___fladd@f1+3
  5321  00FD  17DE               	bsf	___fladd@f2+2,7
  5322  00FE  01DF               	clrf	___fladd@f2+3
  5323  00FF  0865               	movf	___fladd@exp2,w
  5324  0100  0266               	subwf	___fladd@exp1,w
  5325  0101  1803               	skipnc
  5326  0102  291E               	goto	l8393
  5327  0103                     l8383:	
  5328  0103  1003               	clrc
  5329  0104  0DDC               	rlf	___fladd@f2,f
  5330  0105  0DDD               	rlf	___fladd@f2+1,f
  5331  0106  0DDE               	rlf	___fladd@f2+2,f
  5332  0107  0DDF               	rlf	___fladd@f2+3,f
  5333  0108  03E5               	decf	___fladd@exp2,f
  5334  0109  0865               	movf	___fladd@exp2,w
  5335  010A  0666               	xorwf	___fladd@exp1,w
  5336  010B  1903               	skipnz
  5337  010C  2919               	goto	l8391
  5338  010D  03E4               	decf	___fladd@sign,f
  5339  010E  0864               	movf	___fladd@sign,w
  5340  010F  3907               	andlw	7
  5341  0110  1903               	btfsc	3,2
  5342  0111  2919               	goto	l8391
  5343  0112  2903               	goto	l8383
  5344  0113                     l8389:	
  5345  0113  1003               	clrc
  5346  0114  0CDB               	rrf	___fladd@f1+3,f
  5347  0115  0CDA               	rrf	___fladd@f1+2,f
  5348  0116  0CD9               	rrf	___fladd@f1+1,f
  5349  0117  0CD8               	rrf	___fladd@f1,f
  5350  0118  0AE6               	incf	___fladd@exp1,f
  5351  0119                     l8391:	
  5352  0119  0866               	movf	___fladd@exp1,w
  5353  011A  0665               	xorwf	___fladd@exp2,w
  5354  011B  1903               	btfsc	3,2
  5355  011C  293C               	goto	l4075
  5356  011D  2913               	goto	l8389
  5357  011E                     l8393:	
  5358  011E  0866               	movf	___fladd@exp1,w
  5359  011F  0265               	subwf	___fladd@exp2,w
  5360  0120  1803               	skipnc
  5361  0121  293C               	goto	l4075
  5362  0122                     l8395:	
  5363  0122  1003               	clrc
  5364  0123  0DD8               	rlf	___fladd@f1,f
  5365  0124  0DD9               	rlf	___fladd@f1+1,f
  5366  0125  0DDA               	rlf	___fladd@f1+2,f
  5367  0126  0DDB               	rlf	___fladd@f1+3,f
  5368  0127  03E6               	decf	___fladd@exp1,f
  5369  0128  0865               	movf	___fladd@exp2,w
  5370  0129  0666               	xorwf	___fladd@exp1,w
  5371  012A  1903               	skipnz
  5372  012B  2938               	goto	l8403
  5373  012C  03E4               	decf	___fladd@sign,f
  5374  012D  0864               	movf	___fladd@sign,w
  5375  012E  3907               	andlw	7
  5376  012F  1903               	btfsc	3,2
  5377  0130  2938               	goto	l8403
  5378  0131  2922               	goto	l8395
  5379  0132                     l8401:	
  5380  0132  1003               	clrc
  5381  0133  0CDF               	rrf	___fladd@f2+3,f
  5382  0134  0CDE               	rrf	___fladd@f2+2,f
  5383  0135  0CDD               	rrf	___fladd@f2+1,f
  5384  0136  0CDC               	rrf	___fladd@f2,f
  5385  0137  0AE5               	incf	___fladd@exp2,f
  5386  0138                     l8403:	
  5387  0138  0866               	movf	___fladd@exp1,w
  5388  0139  0665               	xorwf	___fladd@exp2,w
  5389  013A  1D03               	skipz
  5390  013B  2932               	goto	l8401
  5391  013C                     l4075:	
  5392  013C  1FE4               	btfss	___fladd@sign,7
  5393  013D  294A               	goto	l8409
  5394  013E  30FF               	movlw	255
  5395  013F  06D8               	xorwf	___fladd@f1,f
  5396  0140  06D9               	xorwf	___fladd@f1+1,f
  5397  0141  06DA               	xorwf	___fladd@f1+2,f
  5398  0142  06DB               	xorwf	___fladd@f1+3,f
  5399  0143  0AD8               	incf	___fladd@f1,f
  5400  0144  1903               	skipnz
  5401  0145  0AD9               	incf	___fladd@f1+1,f
  5402  0146  1903               	skipnz
  5403  0147  0ADA               	incf	___fladd@f1+2,f
  5404  0148  1903               	skipnz
  5405  0149  0ADB               	incf	___fladd@f1+3,f
  5406  014A                     l8409:	
  5407  014A  1F64               	btfss	___fladd@sign,6
  5408  014B  2958               	goto	l8415
  5409  014C  30FF               	movlw	255
  5410  014D  06DC               	xorwf	___fladd@f2,f
  5411  014E  06DD               	xorwf	___fladd@f2+1,f
  5412  014F  06DE               	xorwf	___fladd@f2+2,f
  5413  0150  06DF               	xorwf	___fladd@f2+3,f
  5414  0151  0ADC               	incf	___fladd@f2,f
  5415  0152  1903               	skipnz
  5416  0153  0ADD               	incf	___fladd@f2+1,f
  5417  0154  1903               	skipnz
  5418  0155  0ADE               	incf	___fladd@f2+2,f
  5419  0156  1903               	skipnz
  5420  0157  0ADF               	incf	___fladd@f2+3,f
  5421  0158                     l8415:	
  5422  0158  01E4               	clrf	___fladd@sign
  5423  0159  0858               	movf	___fladd@f1,w
  5424  015A  07DC               	addwf	___fladd@f2,f
  5425  015B  0859               	movf	___fladd@f1+1,w
  5426  015C  1103               	clrz
  5427  015D  1803               	skipnc
  5428  015E  3E01               	addlw	1
  5429  015F  1D03               	btfss	3,2
  5430  0160  07DD               	addwf	___fladd@f2+1,f
  5431  0161  085A               	movf	___fladd@f1+2,w
  5432  0162  1103               	clrz
  5433  0163  1803               	skipnc
  5434  0164  3E01               	addlw	1
  5435  0165  1D03               	btfss	3,2
  5436  0166  07DE               	addwf	___fladd@f2+2,f
  5437  0167  085B               	movf	___fladd@f1+3,w
  5438  0168  1103               	clrz
  5439  0169  1803               	skipnc
  5440  016A  3E01               	addlw	1
  5441  016B  1D03               	btfss	3,2
  5442  016C  07DF               	addwf	___fladd@f2+3,f
  5443  016D  1FDF               	btfss	___fladd@f2+3,7
  5444  016E  297D               	goto	l8427
  5445  016F  30FF               	movlw	255
  5446  0170  06DC               	xorwf	___fladd@f2,f
  5447  0171  06DD               	xorwf	___fladd@f2+1,f
  5448  0172  06DE               	xorwf	___fladd@f2+2,f
  5449  0173  06DF               	xorwf	___fladd@f2+3,f
  5450  0174  0ADC               	incf	___fladd@f2,f
  5451  0175  1903               	skipnz
  5452  0176  0ADD               	incf	___fladd@f2+1,f
  5453  0177  1903               	skipnz
  5454  0178  0ADE               	incf	___fladd@f2+2,f
  5455  0179  1903               	skipnz
  5456  017A  0ADF               	incf	___fladd@f2+3,f
  5457  017B  01E4               	clrf	___fladd@sign
  5458  017C  0AE4               	incf	___fladd@sign,f
  5459  017D                     l8427:	
  5460  017D  085F               	movf	___fladd@f2+3,w
  5461  017E  00A3               	movwf	?___flpack+3
  5462  017F  085E               	movf	___fladd@f2+2,w
  5463  0180  00A2               	movwf	?___flpack+2
  5464  0181  085D               	movf	___fladd@f2+1,w
  5465  0182  00A1               	movwf	?___flpack+1
  5466  0183  085C               	movf	___fladd@f2,w
  5467  0184  00A0               	movwf	?___flpack
  5468  0185  0866               	movf	___fladd@exp1,w
  5469  0186  00A4               	movwf	?___flpack+4
  5470  0187  0864               	movf	___fladd@sign,w
  5471  0188  00A5               	movwf	?___flpack+5
  5472  0189  160A  118A  27B5   	fcall	___flpack
  5473  018C  0823               	movf	?___flpack+3,w
  5474  018D  00DB               	movwf	?___fladd+3
  5475  018E  0822               	movf	?___flpack+2,w
  5476  018F  00DA               	movwf	?___fladd+2
  5477  0190  0821               	movf	?___flpack+1,w
  5478  0191  00D9               	movwf	?___fladd+1
  5479  0192  0820               	movf	?___flpack,w
  5480  0193  00D8               	movwf	?___fladd
  5481  0194  0008               	return
  5482  0195                     __end_of___fladd:	
  5483  0195                     __ptext1121:	
  5484 ;; =============== function _log ends ============
  5485                           
  5486                           
  5487 ;; *************** function _measure_inductance *****************
  5488 ;; Defined at:
  5489 ;;		line 469 in file "../../../src/LC-meter.c"
  5490 ;; Parameters:    Size  Location     Type
  5491 ;;		None
  5492 ;; Auto vars:     Size  Location     Type
  5493 ;;  Lin             4   35[BANK1 ] int 
  5494 ;;  denominator     4    4[BANK1 ] int 
  5495 ;;  numerator       4    0[BANK1 ] int 
  5496 ;;  var             2   33[BANK1 ] unsigned int 
  5497 ;;  unit            1   24[BANK1 ] unsigned char 
  5498 ;; Return value:  Size  Location     Type
  5499 ;;		None               void
  5500 ;; Registers used:
  5501 ;;		wreg, status,2, status,0, btemp+1, pclath, cstack
  5502 ;; Tracked objects:
  5503 ;;		On entry : 60/0
  5504 ;;		On exit  : 60/20
  5505 ;;		Unchanged: 0/0
  5506 ;; Data sizes:     COMMON   BANK0   BANK1   BANK3   BANK2
  5507 ;;      Params:         0       0       0       0       0
  5508 ;;      Locals:         0       0      39       0       0
  5509 ;;      Temps:          0       0       0       0       0
  5510 ;;      Totals:         0       0      39       0       0
  5511 ;;Total ram usage:       39 bytes
  5512 ;; Hardware stack levels used:    1
  5513 ;; Hardware stack levels required when called:    4
  5514 ;; This function calls:
  5515 ;;		_measure_freq
  5516 ;;		___lwtofl
  5517 ;;		___flge
  5518 ;;		___flsub
  5519 ;;		___flmul
  5520 ;;		___fldiv
  5521 ;;		___fltol
  5522 ;;		_print_reading
  5523 ;;		_print_unit
  5524 ;; This function is called by:
  5525 ;;		_main
  5526 ;; This function uses a non-reentrant model
  5527 ;;
  5528  0195                     _measure_inductance:	
  5529                           
  5530                           ;LC-meter.c: 470: uint8_t unit;
  5531                           ;LC-meter.c: 471: uint16_t var;
  5532                           ;LC-meter.c: 473: double Lin, numerator, denominator;
  5533                           ;LC-meter.c: 479: var = measure_freq();
  5534                           
  5535                           ; Regs used in _measure_inductance: [wreg+status,2+status,0+btemp+1+pclath+cstack]
  5536  0195  160A  118A  20D5   	fcall	_measure_freq
      +       120A  118A         
  5537  019A  0875               	movf	?_measure_freq+1,w
  5538  019B  1683               	bsf	3,5	;RP0=1, select bank1
  5539  019C  00C2               	movwf	(measure_inductance@var+1)^(0+128)
  5540  019D  0874               	movf	?_measure_freq,w
  5541  019E  00C1               	movwf	measure_inductance@var^(0+128)
  5542                           
  5543                           ;LC-meter.c: 481: F3 = (double)var;
  5544  019F  0842               	movf	(measure_inductance@var+1)^(0+128),w
  5545  01A0  1283               	bcf	3,5	;RP0=0, select bank0
  5546  01A1  00A9               	movwf	?___lwtofl+1
  5547  01A2  1683               	bsf	3,5	;RP0=1, select bank1
  5548  01A3  0841               	movf	measure_inductance@var^(0+128),w
  5549  01A4  1283               	bcf	3,5	;RP0=0, select bank0
  5550  01A5  00A8               	movwf	?___lwtofl
  5551  01A6  160A  118A  2130   	fcall	___lwtofl
      +       120A  118A         
  5552  01AB  082B               	movf	?___lwtofl+3,w
  5553  01AC  1683               	bsf	3,5	;RP0=1, select bank3
  5554  01AD  1703               	bsf	3,6	;RP1=1, select bank3
  5555  01AE  00B7               	movwf	(_F3+3)^(0+384)
  5556  01AF  1283               	bcf	3,5	;RP0=0, select bank0
  5557  01B0  1303               	bcf	3,6	;RP1=0, select bank0
  5558  01B1  082A               	movf	?___lwtofl+2,w
  5559  01B2  1683               	bsf	3,5	;RP0=1, select bank3
  5560  01B3  1703               	bsf	3,6	;RP1=1, select bank3
  5561  01B4  00B6               	movwf	(_F3+2)^(0+384)
  5562  01B5  1283               	bcf	3,5	;RP0=0, select bank0
  5563  01B6  1303               	bcf	3,6	;RP1=0, select bank0
  5564  01B7  0829               	movf	?___lwtofl+1,w
  5565  01B8  1683               	bsf	3,5	;RP0=1, select bank3
  5566  01B9  1703               	bsf	3,6	;RP1=1, select bank3
  5567  01BA  00B5               	movwf	(_F3+1)^(0+384)
  5568  01BB  1283               	bcf	3,5	;RP0=0, select bank0
  5569  01BC  1303               	bcf	3,6	;RP1=0, select bank0
  5570  01BD  0828               	movf	?___lwtofl,w
  5571  01BE  1683               	bsf	3,5	;RP0=1, select bank3
  5572  01BF  1703               	bsf	3,6	;RP1=1, select bank3
  5573  01C0  00B4               	movwf	_F3^(0+384)
  5574                           
  5575                           ;LC-meter.c: 482: if(F3 > F1)
  5576  01C1  0843               	movf	(_F1+3)^(0+384),w
  5577  01C2  1283               	bcf	3,5	;RP0=0, select bank0
  5578  01C3  1303               	bcf	3,6	;RP1=0, select bank0
  5579  01C4  00A3               	movwf	?___flge+3
  5580  01C5  1683               	bsf	3,5	;RP0=1, select bank3
  5581  01C6  1703               	bsf	3,6	;RP1=1, select bank3
  5582  01C7  0842               	movf	(_F1+2)^(0+384),w
  5583  01C8  1283               	bcf	3,5	;RP0=0, select bank0
  5584  01C9  1303               	bcf	3,6	;RP1=0, select bank0
  5585  01CA  00A2               	movwf	?___flge+2
  5586  01CB  1683               	bsf	3,5	;RP0=1, select bank3
  5587  01CC  1703               	bsf	3,6	;RP1=1, select bank3
  5588  01CD  0841               	movf	(_F1+1)^(0+384),w
  5589  01CE  1283               	bcf	3,5	;RP0=0, select bank0
  5590  01CF  1303               	bcf	3,6	;RP1=0, select bank0
  5591  01D0  00A1               	movwf	?___flge+1
  5592  01D1  1683               	bsf	3,5	;RP0=1, select bank3
  5593  01D2  1703               	bsf	3,6	;RP1=1, select bank3
  5594  01D3  0840               	movf	_F1^(0+384),w
  5595  01D4  1283               	bcf	3,5	;RP0=0, select bank0
  5596  01D5  1303               	bcf	3,6	;RP1=0, select bank0
  5597  01D6  00A0               	movwf	?___flge
  5598  01D7  1683               	bsf	3,5	;RP0=1, select bank3
  5599  01D8  1703               	bsf	3,6	;RP1=1, select bank3
  5600  01D9  0837               	movf	(_F3+3)^(0+384),w
  5601  01DA  1283               	bcf	3,5	;RP0=0, select bank0
  5602  01DB  1303               	bcf	3,6	;RP1=0, select bank0
  5603  01DC  00A7               	movwf	?___flge+7
  5604  01DD  1683               	bsf	3,5	;RP0=1, select bank3
  5605  01DE  1703               	bsf	3,6	;RP1=1, select bank3
  5606  01DF  0836               	movf	(_F3+2)^(0+384),w
  5607  01E0  1283               	bcf	3,5	;RP0=0, select bank0
  5608  01E1  1303               	bcf	3,6	;RP1=0, select bank0
  5609  01E2  00A6               	movwf	?___flge+6
  5610  01E3  1683               	bsf	3,5	;RP0=1, select bank3
  5611  01E4  1703               	bsf	3,6	;RP1=1, select bank3
  5612  01E5  0835               	movf	(_F3+1)^(0+384),w
  5613  01E6  1283               	bcf	3,5	;RP0=0, select bank0
  5614  01E7  1303               	bcf	3,6	;RP1=0, select bank0
  5615  01E8  00A5               	movwf	?___flge+5
  5616  01E9  1683               	bsf	3,5	;RP0=1, select bank3
  5617  01EA  1703               	bsf	3,6	;RP1=1, select bank3
  5618  01EB  0834               	movf	_F3^(0+384),w
  5619  01EC  1283               	bcf	3,5	;RP0=0, select bank0
  5620  01ED  1303               	bcf	3,6	;RP1=0, select bank0
  5621  01EE  00A4               	movwf	?___flge+4
  5622  01EF  120A  158A  2739   	fcall	___flge
      +       120A  118A         
  5623  01F4  1803               	btfsc	3,0
  5624  01F5  2A00               	goto	l8659
  5625                           
  5626                           ;LC-meter.c: 483: F3 = F1;
  5627  01F6  1683               	bsf	3,5	;RP0=1, select bank3
  5628  01F7  1703               	bsf	3,6	;RP1=1, select bank3
  5629  01F8  0843               	movf	(_F1+3)^(0+384),w
  5630  01F9  00B7               	movwf	(_F3+3)^(0+384)
  5631  01FA  0842               	movf	(_F1+2)^(0+384),w
  5632  01FB  00B6               	movwf	(_F3+2)^(0+384)
  5633  01FC  0841               	movf	(_F1+1)^(0+384),w
  5634  01FD  00B5               	movwf	(_F3+1)^(0+384)
  5635  01FE  0840               	movf	_F1^(0+384),w
  5636  01FF  00B4               	movwf	_F3^(0+384)
  5637  0200                     l8659:	
  5638                           
  5639                           ;LC-meter.c: 485: numerator = ((F1 * F1) - (F3 * F3)) * ((F1 * F1) - (F2 - F2)) * (100 *
      +                           100);
  5640  0200  1683               	bsf	3,5	;RP0=1, select bank3
  5641  0201  1703               	bsf	3,6	;RP1=1, select bank3
  5642  0202  0837               	movf	(_F3+3)^(0+384),w
  5643  0203  1283               	bcf	3,5	;RP0=0, select bank0
  5644  0204  1303               	bcf	3,6	;RP1=0, select bank0
  5645  0205  00C8               	movwf	?___flmul+3
  5646  0206  1683               	bsf	3,5	;RP0=1, select bank3
  5647  0207  1703               	bsf	3,6	;RP1=1, select bank3
  5648  0208  0836               	movf	(_F3+2)^(0+384),w
  5649  0209  1283               	bcf	3,5	;RP0=0, select bank0
  5650  020A  1303               	bcf	3,6	;RP1=0, select bank0
  5651  020B  00C7               	movwf	?___flmul+2
  5652  020C  1683               	bsf	3,5	;RP0=1, select bank3
  5653  020D  1703               	bsf	3,6	;RP1=1, select bank3
  5654  020E  0835               	movf	(_F3+1)^(0+384),w
  5655  020F  1283               	bcf	3,5	;RP0=0, select bank0
  5656  0210  1303               	bcf	3,6	;RP1=0, select bank0
  5657  0211  00C6               	movwf	?___flmul+1
  5658  0212  1683               	bsf	3,5	;RP0=1, select bank3
  5659  0213  1703               	bsf	3,6	;RP1=1, select bank3
  5660  0214  0834               	movf	_F3^(0+384),w
  5661  0215  1283               	bcf	3,5	;RP0=0, select bank0
  5662  0216  1303               	bcf	3,6	;RP1=0, select bank0
  5663  0217  00C5               	movwf	?___flmul
  5664  0218  1683               	bsf	3,5	;RP0=1, select bank3
  5665  0219  1703               	bsf	3,6	;RP1=1, select bank3
  5666  021A  0837               	movf	(_F3+3)^(0+384),w
  5667  021B  1283               	bcf	3,5	;RP0=0, select bank0
  5668  021C  1303               	bcf	3,6	;RP1=0, select bank0
  5669  021D  00CC               	movwf	?___flmul+7
  5670  021E  1683               	bsf	3,5	;RP0=1, select bank3
  5671  021F  1703               	bsf	3,6	;RP1=1, select bank3
  5672  0220  0836               	movf	(_F3+2)^(0+384),w
  5673  0221  1283               	bcf	3,5	;RP0=0, select bank0
  5674  0222  1303               	bcf	3,6	;RP1=0, select bank0
  5675  0223  00CB               	movwf	?___flmul+6
  5676  0224  1683               	bsf	3,5	;RP0=1, select bank3
  5677  0225  1703               	bsf	3,6	;RP1=1, select bank3
  5678  0226  0835               	movf	(_F3+1)^(0+384),w
  5679  0227  1283               	bcf	3,5	;RP0=0, select bank0
  5680  0228  1303               	bcf	3,6	;RP1=0, select bank0
  5681  0229  00CA               	movwf	?___flmul+5
  5682  022A  1683               	bsf	3,5	;RP0=1, select bank3
  5683  022B  1703               	bsf	3,6	;RP1=1, select bank3
  5684  022C  0834               	movf	_F3^(0+384),w
  5685  022D  1283               	bcf	3,5	;RP0=0, select bank0
  5686  022E  1303               	bcf	3,6	;RP1=0, select bank0
  5687  022F  00C9               	movwf	?___flmul+4
  5688  0230  264B  120A  118A   	fcall	___flmul
  5689  0233  0848               	movf	?___flmul+3,w
  5690  0234  00EA               	movwf	?___flsub+3
  5691  0235  0847               	movf	?___flmul+2,w
  5692  0236  00E9               	movwf	?___flsub+2
  5693  0237  0846               	movf	?___flmul+1,w
  5694  0238  00E8               	movwf	?___flsub+1
  5695  0239  0845               	movf	?___flmul,w
  5696  023A  00E7               	movwf	?___flsub
  5697  023B  1683               	bsf	3,5	;RP0=1, select bank3
  5698  023C  1703               	bsf	3,6	;RP1=1, select bank3
  5699  023D  0843               	movf	(_F1+3)^(0+384),w
  5700  023E  1283               	bcf	3,5	;RP0=0, select bank0
  5701  023F  1303               	bcf	3,6	;RP1=0, select bank0
  5702  0240  00C8               	movwf	?___flmul+3
  5703  0241  1683               	bsf	3,5	;RP0=1, select bank3
  5704  0242  1703               	bsf	3,6	;RP1=1, select bank3
  5705  0243  0842               	movf	(_F1+2)^(0+384),w
  5706  0244  1283               	bcf	3,5	;RP0=0, select bank0
  5707  0245  1303               	bcf	3,6	;RP1=0, select bank0
  5708  0246  00C7               	movwf	?___flmul+2
  5709  0247  1683               	bsf	3,5	;RP0=1, select bank3
  5710  0248  1703               	bsf	3,6	;RP1=1, select bank3
  5711  0249  0841               	movf	(_F1+1)^(0+384),w
  5712  024A  1283               	bcf	3,5	;RP0=0, select bank0
  5713  024B  1303               	bcf	3,6	;RP1=0, select bank0
  5714  024C  00C6               	movwf	?___flmul+1
  5715  024D  1683               	bsf	3,5	;RP0=1, select bank3
  5716  024E  1703               	bsf	3,6	;RP1=1, select bank3
  5717  024F  0840               	movf	_F1^(0+384),w
  5718  0250  1283               	bcf	3,5	;RP0=0, select bank0
  5719  0251  1303               	bcf	3,6	;RP1=0, select bank0
  5720  0252  00C5               	movwf	?___flmul
  5721  0253  1683               	bsf	3,5	;RP0=1, select bank3
  5722  0254  1703               	bsf	3,6	;RP1=1, select bank3
  5723  0255  0843               	movf	(_F1+3)^(0+384),w
  5724  0256  1283               	bcf	3,5	;RP0=0, select bank0
  5725  0257  1303               	bcf	3,6	;RP1=0, select bank0
  5726  0258  00CC               	movwf	?___flmul+7
  5727  0259  1683               	bsf	3,5	;RP0=1, select bank3
  5728  025A  1703               	bsf	3,6	;RP1=1, select bank3
  5729  025B  0842               	movf	(_F1+2)^(0+384),w
  5730  025C  1283               	bcf	3,5	;RP0=0, select bank0
  5731  025D  1303               	bcf	3,6	;RP1=0, select bank0
  5732  025E  00CB               	movwf	?___flmul+6
  5733  025F  1683               	bsf	3,5	;RP0=1, select bank3
  5734  0260  1703               	bsf	3,6	;RP1=1, select bank3
  5735  0261  0841               	movf	(_F1+1)^(0+384),w
  5736  0262  1283               	bcf	3,5	;RP0=0, select bank0
  5737  0263  1303               	bcf	3,6	;RP1=0, select bank0
  5738  0264  00CA               	movwf	?___flmul+5
  5739  0265  1683               	bsf	3,5	;RP0=1, select bank3
  5740  0266  1703               	bsf	3,6	;RP1=1, select bank3
  5741  0267  0840               	movf	_F1^(0+384),w
  5742  0268  1283               	bcf	3,5	;RP0=0, select bank0
  5743  0269  1303               	bcf	3,6	;RP1=0, select bank0
  5744  026A  00C9               	movwf	?___flmul+4
  5745  026B  264B  120A  118A   	fcall	___flmul
  5746  026E  0848               	movf	?___flmul+3,w
  5747  026F  00EE               	movwf	?___flsub+7
  5748  0270  0847               	movf	?___flmul+2,w
  5749  0271  00ED               	movwf	?___flsub+6
  5750  0272  0846               	movf	?___flmul+1,w
  5751  0273  00EC               	movwf	?___flsub+5
  5752  0274  0845               	movf	?___flmul,w
  5753  0275  00EB               	movwf	?___flsub+4
  5754  0276  26E3  120A  118A   	fcall	___flsub
  5755  0279  086A               	movf	?___flsub+3,w
  5756  027A  1683               	bsf	3,5	;RP0=1, select bank1
  5757  027B  00BC               	movwf	(_measure_inductance$5202+3)^(0+128)
  5758  027C  1283               	bcf	3,5	;RP0=0, select bank0
  5759  027D  0869               	movf	?___flsub+2,w
  5760  027E  1683               	bsf	3,5	;RP0=1, select bank1
  5761  027F  00BB               	movwf	(_measure_inductance$5202+2)^(0+128)
  5762  0280  1283               	bcf	3,5	;RP0=0, select bank0
  5763  0281  0868               	movf	?___flsub+1,w
  5764  0282  1683               	bsf	3,5	;RP0=1, select bank1
  5765  0283  00BA               	movwf	(_measure_inductance$5202+1)^(0+128)
  5766  0284  1283               	bcf	3,5	;RP0=0, select bank0
  5767  0285  0867               	movf	?___flsub,w
  5768  0286  1683               	bsf	3,5	;RP0=1, select bank1
  5769  0287  00B9               	movwf	_measure_inductance$5202^(0+128)
  5770                           
  5771                           ;LC-meter.c: 485: numerator = ((F1 * F1) - (F3 * F3)) * ((F1 * F1) - (F2 - F2)) * (100 *
      +                           100);
  5772  0288  1703               	bsf	3,6	;RP1=1, select bank3
  5773  0289  0833               	movf	(_F2+3)^(0+384),w
  5774  028A  1283               	bcf	3,5	;RP0=0, select bank0
  5775  028B  1303               	bcf	3,6	;RP1=0, select bank0
  5776  028C  00EA               	movwf	?___flsub+3
  5777  028D  1683               	bsf	3,5	;RP0=1, select bank3
  5778  028E  1703               	bsf	3,6	;RP1=1, select bank3
  5779  028F  0832               	movf	(_F2+2)^(0+384),w
  5780  0290  1283               	bcf	3,5	;RP0=0, select bank0
  5781  0291  1303               	bcf	3,6	;RP1=0, select bank0
  5782  0292  00E9               	movwf	?___flsub+2
  5783  0293  1683               	bsf	3,5	;RP0=1, select bank3
  5784  0294  1703               	bsf	3,6	;RP1=1, select bank3
  5785  0295  0831               	movf	(_F2+1)^(0+384),w
  5786  0296  1283               	bcf	3,5	;RP0=0, select bank0
  5787  0297  1303               	bcf	3,6	;RP1=0, select bank0
  5788  0298  00E8               	movwf	?___flsub+1
  5789  0299  1683               	bsf	3,5	;RP0=1, select bank3
  5790  029A  1703               	bsf	3,6	;RP1=1, select bank3
  5791  029B  0830               	movf	_F2^(0+384),w
  5792  029C  1283               	bcf	3,5	;RP0=0, select bank0
  5793  029D  1303               	bcf	3,6	;RP1=0, select bank0
  5794  029E  00E7               	movwf	?___flsub
  5795  029F  1683               	bsf	3,5	;RP0=1, select bank3
  5796  02A0  1703               	bsf	3,6	;RP1=1, select bank3
  5797  02A1  0833               	movf	(_F2+3)^(0+384),w
  5798  02A2  1283               	bcf	3,5	;RP0=0, select bank0
  5799  02A3  1303               	bcf	3,6	;RP1=0, select bank0
  5800  02A4  00EE               	movwf	?___flsub+7
  5801  02A5  1683               	bsf	3,5	;RP0=1, select bank3
  5802  02A6  1703               	bsf	3,6	;RP1=1, select bank3
  5803  02A7  0832               	movf	(_F2+2)^(0+384),w
  5804  02A8  1283               	bcf	3,5	;RP0=0, select bank0
  5805  02A9  1303               	bcf	3,6	;RP1=0, select bank0
  5806  02AA  00ED               	movwf	?___flsub+6
  5807  02AB  1683               	bsf	3,5	;RP0=1, select bank3
  5808  02AC  1703               	bsf	3,6	;RP1=1, select bank3
  5809  02AD  0831               	movf	(_F2+1)^(0+384),w
  5810  02AE  1283               	bcf	3,5	;RP0=0, select bank0
  5811  02AF  1303               	bcf	3,6	;RP1=0, select bank0
  5812  02B0  00EC               	movwf	?___flsub+5
  5813  02B1  1683               	bsf	3,5	;RP0=1, select bank3
  5814  02B2  1703               	bsf	3,6	;RP1=1, select bank3
  5815  02B3  0830               	movf	_F2^(0+384),w
  5816  02B4  1283               	bcf	3,5	;RP0=0, select bank0
  5817  02B5  1303               	bcf	3,6	;RP1=0, select bank0
  5818  02B6  00EB               	movwf	?___flsub+4
  5819  02B7  26E3  120A  118A   	fcall	___flsub
  5820  02BA  1683               	bsf	3,5	;RP0=1, select bank3
  5821  02BB  1703               	bsf	3,6	;RP1=1, select bank3
  5822  02BC  0843               	movf	(_F1+3)^(0+384),w
  5823  02BD  1283               	bcf	3,5	;RP0=0, select bank0
  5824  02BE  1303               	bcf	3,6	;RP1=0, select bank0
  5825  02BF  00C8               	movwf	?___flmul+3
  5826  02C0  1683               	bsf	3,5	;RP0=1, select bank3
  5827  02C1  1703               	bsf	3,6	;RP1=1, select bank3
  5828  02C2  0842               	movf	(_F1+2)^(0+384),w
  5829  02C3  1283               	bcf	3,5	;RP0=0, select bank0
  5830  02C4  1303               	bcf	3,6	;RP1=0, select bank0
  5831  02C5  00C7               	movwf	?___flmul+2
  5832  02C6  1683               	bsf	3,5	;RP0=1, select bank3
  5833  02C7  1703               	bsf	3,6	;RP1=1, select bank3
  5834  02C8  0841               	movf	(_F1+1)^(0+384),w
  5835  02C9  1283               	bcf	3,5	;RP0=0, select bank0
  5836  02CA  1303               	bcf	3,6	;RP1=0, select bank0
  5837  02CB  00C6               	movwf	?___flmul+1
  5838  02CC  1683               	bsf	3,5	;RP0=1, select bank3
  5839  02CD  1703               	bsf	3,6	;RP1=1, select bank3
  5840  02CE  0840               	movf	_F1^(0+384),w
  5841  02CF  1283               	bcf	3,5	;RP0=0, select bank0
  5842  02D0  1303               	bcf	3,6	;RP1=0, select bank0
  5843  02D1  00C5               	movwf	?___flmul
  5844  02D2  1683               	bsf	3,5	;RP0=1, select bank3
  5845  02D3  1703               	bsf	3,6	;RP1=1, select bank3
  5846  02D4  0843               	movf	(_F1+3)^(0+384),w
  5847  02D5  1283               	bcf	3,5	;RP0=0, select bank0
  5848  02D6  1303               	bcf	3,6	;RP1=0, select bank0
  5849  02D7  00CC               	movwf	?___flmul+7
  5850  02D8  1683               	bsf	3,5	;RP0=1, select bank3
  5851  02D9  1703               	bsf	3,6	;RP1=1, select bank3
  5852  02DA  0842               	movf	(_F1+2)^(0+384),w
  5853  02DB  1283               	bcf	3,5	;RP0=0, select bank0
  5854  02DC  1303               	bcf	3,6	;RP1=0, select bank0
  5855  02DD  00CB               	movwf	?___flmul+6
  5856  02DE  1683               	bsf	3,5	;RP0=1, select bank3
  5857  02DF  1703               	bsf	3,6	;RP1=1, select bank3
  5858  02E0  0841               	movf	(_F1+1)^(0+384),w
  5859  02E1  1283               	bcf	3,5	;RP0=0, select bank0
  5860  02E2  1303               	bcf	3,6	;RP1=0, select bank0
  5861  02E3  00CA               	movwf	?___flmul+5
  5862  02E4  1683               	bsf	3,5	;RP0=1, select bank3
  5863  02E5  1703               	bsf	3,6	;RP1=1, select bank3
  5864  02E6  0840               	movf	_F1^(0+384),w
  5865  02E7  1283               	bcf	3,5	;RP0=0, select bank0
  5866  02E8  1303               	bcf	3,6	;RP1=0, select bank0
  5867  02E9  00C9               	movwf	?___flmul+4
  5868  02EA  264B  120A  118A   	fcall	___flmul
  5869  02ED  0848               	movf	?___flmul+3,w
  5870  02EE  00EE               	movwf	?___flsub+7
  5871  02EF  0847               	movf	?___flmul+2,w
  5872  02F0  00ED               	movwf	?___flsub+6
  5873  02F1  0846               	movf	?___flmul+1,w
  5874  02F2  00EC               	movwf	?___flsub+5
  5875  02F3  0845               	movf	?___flmul,w
  5876  02F4  00EB               	movwf	?___flsub+4
  5877  02F5  26E3  120A  118A   	fcall	___flsub
  5878  02F8  086A               	movf	?___flsub+3,w
  5879  02F9  00C8               	movwf	?___flmul+3
  5880  02FA  0869               	movf	?___flsub+2,w
  5881  02FB  00C7               	movwf	?___flmul+2
  5882  02FC  0868               	movf	?___flsub+1,w
  5883  02FD  00C6               	movwf	?___flmul+1
  5884  02FE  0867               	movf	?___flsub,w
  5885  02FF  00C5               	movwf	?___flmul
  5886  0300  1683               	bsf	3,5	;RP0=1, select bank1
  5887  0301  083C               	movf	(_measure_inductance$5202+3)^(0+128),w
  5888  0302  1283               	bcf	3,5	;RP0=0, select bank0
  5889  0303  00CC               	movwf	?___flmul+7
  5890  0304  1683               	bsf	3,5	;RP0=1, select bank1
  5891  0305  083B               	movf	(_measure_inductance$5202+2)^(0+128),w
  5892  0306  1283               	bcf	3,5	;RP0=0, select bank0
  5893  0307  00CB               	movwf	?___flmul+6
  5894  0308  1683               	bsf	3,5	;RP0=1, select bank1
  5895  0309  083A               	movf	(_measure_inductance$5202+1)^(0+128),w
  5896  030A  1283               	bcf	3,5	;RP0=0, select bank0
  5897  030B  00CA               	movwf	?___flmul+5
  5898  030C  1683               	bsf	3,5	;RP0=1, select bank1
  5899  030D  0839               	movf	_measure_inductance$5202^(0+128),w
  5900  030E  1283               	bcf	3,5	;RP0=0, select bank0
  5901  030F  00C9               	movwf	?___flmul+4
  5902  0310  264B  120A  118A   	fcall	___flmul
  5903  0313  0848               	movf	?___flmul+3,w
  5904  0314  1683               	bsf	3,5	;RP0=1, select bank1
  5905  0315  00C0               	movwf	(_measure_inductance$5203+3)^(0+128)
  5906  0316  1283               	bcf	3,5	;RP0=0, select bank0
  5907  0317  0847               	movf	?___flmul+2,w
  5908  0318  1683               	bsf	3,5	;RP0=1, select bank1
  5909  0319  00BF               	movwf	(_measure_inductance$5203+2)^(0+128)
  5910  031A  1283               	bcf	3,5	;RP0=0, select bank0
  5911  031B  0846               	movf	?___flmul+1,w
  5912  031C  1683               	bsf	3,5	;RP0=1, select bank1
  5913  031D  00BE               	movwf	(_measure_inductance$5203+1)^(0+128)
  5914  031E  1283               	bcf	3,5	;RP0=0, select bank0
  5915  031F  0845               	movf	?___flmul,w
  5916  0320  1683               	bsf	3,5	;RP0=1, select bank1
  5917  0321  00BD               	movwf	_measure_inductance$5203^(0+128)
  5918                           
  5919                           ;LC-meter.c: 485: numerator = ((F1 * F1) - (F3 * F3)) * ((F1 * F1) - (F2 - F2)) * (100 *
      +                           100);
  5920  0322  3046               	movlw	70
  5921  0323  1283               	bcf	3,5	;RP0=0, select bank0
  5922  0324  00C8               	movwf	?___flmul+3
  5923  0325  301C               	movlw	28
  5924  0326  00C7               	movwf	?___flmul+2
  5925  0327  3040               	movlw	64
  5926  0328  00C6               	movwf	?___flmul+1
  5927  0329  01C5               	clrf	?___flmul
  5928  032A  1683               	bsf	3,5	;RP0=1, select bank1
  5929  032B  0840               	movf	(_measure_inductance$5203+3)^(0+128),w
  5930  032C  1283               	bcf	3,5	;RP0=0, select bank0
  5931  032D  00CC               	movwf	?___flmul+7
  5932  032E  1683               	bsf	3,5	;RP0=1, select bank1
  5933  032F  083F               	movf	(_measure_inductance$5203+2)^(0+128),w
  5934  0330  1283               	bcf	3,5	;RP0=0, select bank0
  5935  0331  00CB               	movwf	?___flmul+6
  5936  0332  1683               	bsf	3,5	;RP0=1, select bank1
  5937  0333  083E               	movf	(_measure_inductance$5203+1)^(0+128),w
  5938  0334  1283               	bcf	3,5	;RP0=0, select bank0
  5939  0335  00CA               	movwf	?___flmul+5
  5940  0336  1683               	bsf	3,5	;RP0=1, select bank1
  5941  0337  083D               	movf	_measure_inductance$5203^(0+128),w
  5942  0338  1283               	bcf	3,5	;RP0=0, select bank0
  5943  0339  00C9               	movwf	?___flmul+4
  5944  033A  264B  120A  118A   	fcall	___flmul
  5945  033D  0848               	movf	?___flmul+3,w
  5946  033E  1683               	bsf	3,5	;RP0=1, select bank1
  5947  033F  00A3               	movwf	(measure_inductance@numerator+3)^(0+128)
  5948  0340  1283               	bcf	3,5	;RP0=0, select bank0
  5949  0341  0847               	movf	?___flmul+2,w
  5950  0342  1683               	bsf	3,5	;RP0=1, select bank1
  5951  0343  00A2               	movwf	(measure_inductance@numerator+2)^(0+128)
  5952  0344  1283               	bcf	3,5	;RP0=0, select bank0
  5953  0345  0846               	movf	?___flmul+1,w
  5954  0346  1683               	bsf	3,5	;RP0=1, select bank1
  5955  0347  00A1               	movwf	(measure_inductance@numerator+1)^(0+128)
  5956  0348  1283               	bcf	3,5	;RP0=0, select bank0
  5957  0349  0845               	movf	?___flmul,w
  5958  034A  1683               	bsf	3,5	;RP0=1, select bank1
  5959  034B  00A0               	movwf	measure_inductance@numerator^(0+128)
  5960                           
  5961                           ;LC-meter.c: 487: denominator = 4 * 3.14159265358979323846l * 3.14159265358979323846l * 
      +                          F1 * F1 * F2 * F2 * F3 * F3 * CCal;
  5962  034C  1703               	bsf	3,6	;RP1=1, select bank3
  5963  034D  0843               	movf	(_F1+3)^(0+384),w
  5964  034E  1283               	bcf	3,5	;RP0=0, select bank0
  5965  034F  1303               	bcf	3,6	;RP1=0, select bank0
  5966  0350  00C8               	movwf	?___flmul+3
  5967  0351  1683               	bsf	3,5	;RP0=1, select bank3
  5968  0352  1703               	bsf	3,6	;RP1=1, select bank3
  5969  0353  0842               	movf	(_F1+2)^(0+384),w
  5970  0354  1283               	bcf	3,5	;RP0=0, select bank0
  5971  0355  1303               	bcf	3,6	;RP1=0, select bank0
  5972  0356  00C7               	movwf	?___flmul+2
  5973  0357  1683               	bsf	3,5	;RP0=1, select bank3
  5974  0358  1703               	bsf	3,6	;RP1=1, select bank3
  5975  0359  0841               	movf	(_F1+1)^(0+384),w
  5976  035A  1283               	bcf	3,5	;RP0=0, select bank0
  5977  035B  1303               	bcf	3,6	;RP1=0, select bank0
  5978  035C  00C6               	movwf	?___flmul+1
  5979  035D  1683               	bsf	3,5	;RP0=1, select bank3
  5980  035E  1703               	bsf	3,6	;RP1=1, select bank3
  5981  035F  0840               	movf	_F1^(0+384),w
  5982  0360  1283               	bcf	3,5	;RP0=0, select bank0
  5983  0361  1303               	bcf	3,6	;RP1=0, select bank0
  5984  0362  00C5               	movwf	?___flmul
  5985  0363  1683               	bsf	3,5	;RP0=1, select bank3
  5986  0364  1703               	bsf	3,6	;RP1=1, select bank3
  5987  0365  0843               	movf	(_F1+3)^(0+384),w
  5988  0366  1283               	bcf	3,5	;RP0=0, select bank0
  5989  0367  1303               	bcf	3,6	;RP1=0, select bank0
  5990  0368  00CC               	movwf	?___flmul+7
  5991  0369  1683               	bsf	3,5	;RP0=1, select bank3
  5992  036A  1703               	bsf	3,6	;RP1=1, select bank3
  5993  036B  0842               	movf	(_F1+2)^(0+384),w
  5994  036C  1283               	bcf	3,5	;RP0=0, select bank0
  5995  036D  1303               	bcf	3,6	;RP1=0, select bank0
  5996  036E  00CB               	movwf	?___flmul+6
  5997  036F  1683               	bsf	3,5	;RP0=1, select bank3
  5998  0370  1703               	bsf	3,6	;RP1=1, select bank3
  5999  0371  0841               	movf	(_F1+1)^(0+384),w
  6000  0372  1283               	bcf	3,5	;RP0=0, select bank0
  6001  0373  1303               	bcf	3,6	;RP1=0, select bank0
  6002  0374  00CA               	movwf	?___flmul+5
  6003  0375  1683               	bsf	3,5	;RP0=1, select bank3
  6004  0376  1703               	bsf	3,6	;RP1=1, select bank3
  6005  0377  0840               	movf	_F1^(0+384),w
  6006  0378  1283               	bcf	3,5	;RP0=0, select bank0
  6007  0379  1303               	bcf	3,6	;RP1=0, select bank0
  6008  037A  00C9               	movwf	?___flmul+4
  6009  037B  264B  120A  118A   	fcall	___flmul
  6010  037E  0848               	movf	?___flmul+3,w
  6011  037F  1683               	bsf	3,5	;RP0=1, select bank1
  6012  0380  00BC               	movwf	(_measure_inductance$5202+3)^(0+128)
  6013  0381  1283               	bcf	3,5	;RP0=0, select bank0
  6014  0382  0847               	movf	?___flmul+2,w
  6015  0383  1683               	bsf	3,5	;RP0=1, select bank1
  6016  0384  00BB               	movwf	(_measure_inductance$5202+2)^(0+128)
  6017  0385  1283               	bcf	3,5	;RP0=0, select bank0
  6018  0386  0846               	movf	?___flmul+1,w
  6019  0387  1683               	bsf	3,5	;RP0=1, select bank1
  6020  0388  00BA               	movwf	(_measure_inductance$5202+1)^(0+128)
  6021  0389  1283               	bcf	3,5	;RP0=0, select bank0
  6022  038A  0845               	movf	?___flmul,w
  6023  038B  1683               	bsf	3,5	;RP0=1, select bank1
  6024  038C  00B9               	movwf	_measure_inductance$5202^(0+128)
  6025                           
  6026                           ;LC-meter.c: 487: denominator = 4 * 3.14159265358979323846l * 3.14159265358979323846l * 
      +                          F1 * F1 * F2 * F2 * F3 * F3 * CCal;
  6027  038D  1703               	bsf	3,6	;RP1=1, select bank3
  6028  038E  0833               	movf	(_F2+3)^(0+384),w
  6029  038F  1283               	bcf	3,5	;RP0=0, select bank0
  6030  0390  1303               	bcf	3,6	;RP1=0, select bank0
  6031  0391  00C8               	movwf	?___flmul+3
  6032  0392  1683               	bsf	3,5	;RP0=1, select bank3
  6033  0393  1703               	bsf	3,6	;RP1=1, select bank3
  6034  0394  0832               	movf	(_F2+2)^(0+384),w
  6035  0395  1283               	bcf	3,5	;RP0=0, select bank0
  6036  0396  1303               	bcf	3,6	;RP1=0, select bank0
  6037  0397  00C7               	movwf	?___flmul+2
  6038  0398  1683               	bsf	3,5	;RP0=1, select bank3
  6039  0399  1703               	bsf	3,6	;RP1=1, select bank3
  6040  039A  0831               	movf	(_F2+1)^(0+384),w
  6041  039B  1283               	bcf	3,5	;RP0=0, select bank0
  6042  039C  1303               	bcf	3,6	;RP1=0, select bank0
  6043  039D  00C6               	movwf	?___flmul+1
  6044  039E  1683               	bsf	3,5	;RP0=1, select bank3
  6045  039F  1703               	bsf	3,6	;RP1=1, select bank3
  6046  03A0  0830               	movf	_F2^(0+384),w
  6047  03A1  1283               	bcf	3,5	;RP0=0, select bank0
  6048  03A2  1303               	bcf	3,6	;RP1=0, select bank0
  6049  03A3  00C5               	movwf	?___flmul
  6050  03A4  1683               	bsf	3,5	;RP0=1, select bank1
  6051  03A5  083C               	movf	(_measure_inductance$5202+3)^(0+128),w
  6052  03A6  1283               	bcf	3,5	;RP0=0, select bank0
  6053  03A7  00CC               	movwf	?___flmul+7
  6054  03A8  1683               	bsf	3,5	;RP0=1, select bank1
  6055  03A9  083B               	movf	(_measure_inductance$5202+2)^(0+128),w
  6056  03AA  1283               	bcf	3,5	;RP0=0, select bank0
  6057  03AB  00CB               	movwf	?___flmul+6
  6058  03AC  1683               	bsf	3,5	;RP0=1, select bank1
  6059  03AD  083A               	movf	(_measure_inductance$5202+1)^(0+128),w
  6060  03AE  1283               	bcf	3,5	;RP0=0, select bank0
  6061  03AF  00CA               	movwf	?___flmul+5
  6062  03B0  1683               	bsf	3,5	;RP0=1, select bank1
  6063  03B1  0839               	movf	_measure_inductance$5202^(0+128),w
  6064  03B2  1283               	bcf	3,5	;RP0=0, select bank0
  6065  03B3  00C9               	movwf	?___flmul+4
  6066  03B4  264B  120A  118A   	fcall	___flmul
  6067  03B7  0848               	movf	?___flmul+3,w
  6068  03B8  1683               	bsf	3,5	;RP0=1, select bank1
  6069  03B9  00C0               	movwf	(_measure_inductance$5203+3)^(0+128)
  6070  03BA  1283               	bcf	3,5	;RP0=0, select bank0
  6071  03BB  0847               	movf	?___flmul+2,w
  6072  03BC  1683               	bsf	3,5	;RP0=1, select bank1
  6073  03BD  00BF               	movwf	(_measure_inductance$5203+2)^(0+128)
  6074  03BE  1283               	bcf	3,5	;RP0=0, select bank0
  6075  03BF  0846               	movf	?___flmul+1,w
  6076  03C0  1683               	bsf	3,5	;RP0=1, select bank1
  6077  03C1  00BE               	movwf	(_measure_inductance$5203+1)^(0+128)
  6078  03C2  1283               	bcf	3,5	;RP0=0, select bank0
  6079  03C3  0845               	movf	?___flmul,w
  6080  03C4  1683               	bsf	3,5	;RP0=1, select bank1
  6081  03C5  00BD               	movwf	_measure_inductance$5203^(0+128)
  6082                           
  6083                           ;LC-meter.c: 487: denominator = 4 * 3.14159265358979323846l * 3.14159265358979323846l * 
      +                          F1 * F1 * F2 * F2 * F3 * F3 * CCal;
  6084  03C6  1703               	bsf	3,6	;RP1=1, select bank3
  6085  03C7  0833               	movf	(_F2+3)^(0+384),w
  6086  03C8  1283               	bcf	3,5	;RP0=0, select bank0
  6087  03C9  1303               	bcf	3,6	;RP1=0, select bank0
  6088  03CA  00C8               	movwf	?___flmul+3
  6089  03CB  1683               	bsf	3,5	;RP0=1, select bank3
  6090  03CC  1703               	bsf	3,6	;RP1=1, select bank3
  6091  03CD  0832               	movf	(_F2+2)^(0+384),w
  6092  03CE  1283               	bcf	3,5	;RP0=0, select bank0
  6093  03CF  1303               	bcf	3,6	;RP1=0, select bank0
  6094  03D0  00C7               	movwf	?___flmul+2
  6095  03D1  1683               	bsf	3,5	;RP0=1, select bank3
  6096  03D2  1703               	bsf	3,6	;RP1=1, select bank3
  6097  03D3  0831               	movf	(_F2+1)^(0+384),w
  6098  03D4  1283               	bcf	3,5	;RP0=0, select bank0
  6099  03D5  1303               	bcf	3,6	;RP1=0, select bank0
  6100  03D6  00C6               	movwf	?___flmul+1
  6101  03D7  1683               	bsf	3,5	;RP0=1, select bank3
  6102  03D8  1703               	bsf	3,6	;RP1=1, select bank3
  6103  03D9  0830               	movf	_F2^(0+384),w
  6104  03DA  1283               	bcf	3,5	;RP0=0, select bank0
  6105  03DB  1303               	bcf	3,6	;RP1=0, select bank0
  6106  03DC  00C5               	movwf	?___flmul
  6107  03DD  1683               	bsf	3,5	;RP0=1, select bank1
  6108  03DE  0840               	movf	(_measure_inductance$5203+3)^(0+128),w
  6109  03DF  1283               	bcf	3,5	;RP0=0, select bank0
  6110  03E0  00CC               	movwf	?___flmul+7
  6111  03E1  1683               	bsf	3,5	;RP0=1, select bank1
  6112  03E2  083F               	movf	(_measure_inductance$5203+2)^(0+128),w
  6113  03E3  1283               	bcf	3,5	;RP0=0, select bank0
  6114  03E4  00CB               	movwf	?___flmul+6
  6115  03E5  1683               	bsf	3,5	;RP0=1, select bank1
  6116  03E6  083E               	movf	(_measure_inductance$5203+1)^(0+128),w
  6117  03E7  1283               	bcf	3,5	;RP0=0, select bank0
  6118  03E8  00CA               	movwf	?___flmul+5
  6119  03E9  1683               	bsf	3,5	;RP0=1, select bank1
  6120  03EA  083D               	movf	_measure_inductance$5203^(0+128),w
  6121  03EB  1283               	bcf	3,5	;RP0=0, select bank0
  6122  03EC  00C9               	movwf	?___flmul+4
  6123  03ED  264B  120A  118A   	fcall	___flmul
  6124  03F0  0848               	movf	?___flmul+3,w
  6125  03F1  1683               	bsf	3,5	;RP0=1, select bank1
  6126  03F2  00AB               	movwf	(_measure_inductance$5204+3)^(0+128)
  6127  03F3  1283               	bcf	3,5	;RP0=0, select bank0
  6128  03F4  0847               	movf	?___flmul+2,w
  6129  03F5  1683               	bsf	3,5	;RP0=1, select bank1
  6130  03F6  00AA               	movwf	(_measure_inductance$5204+2)^(0+128)
  6131  03F7  1283               	bcf	3,5	;RP0=0, select bank0
  6132  03F8  0846               	movf	?___flmul+1,w
  6133  03F9  1683               	bsf	3,5	;RP0=1, select bank1
  6134  03FA  00A9               	movwf	(_measure_inductance$5204+1)^(0+128)
  6135  03FB  1283               	bcf	3,5	;RP0=0, select bank0
  6136  03FC  0845               	movf	?___flmul,w
  6137  03FD  1683               	bsf	3,5	;RP0=1, select bank1
  6138  03FE  00A8               	movwf	_measure_inductance$5204^(0+128)
  6139                           
  6140                           ;LC-meter.c: 487: denominator = 4 * 3.14159265358979323846l * 3.14159265358979323846l * 
      +                          F1 * F1 * F2 * F2 * F3 * F3 * CCal;
  6141  03FF  1703               	bsf	3,6	;RP1=1, select bank3
  6142  0400  0837               	movf	(_F3+3)^(0+384),w
  6143  0401  1283               	bcf	3,5	;RP0=0, select bank0
  6144  0402  1303               	bcf	3,6	;RP1=0, select bank0
  6145  0403  00C8               	movwf	?___flmul+3
  6146  0404  1683               	bsf	3,5	;RP0=1, select bank3
  6147  0405  1703               	bsf	3,6	;RP1=1, select bank3
  6148  0406  0836               	movf	(_F3+2)^(0+384),w
  6149  0407  1283               	bcf	3,5	;RP0=0, select bank0
  6150  0408  1303               	bcf	3,6	;RP1=0, select bank0
  6151  0409  00C7               	movwf	?___flmul+2
  6152  040A  1683               	bsf	3,5	;RP0=1, select bank3
  6153  040B  1703               	bsf	3,6	;RP1=1, select bank3
  6154  040C  0835               	movf	(_F3+1)^(0+384),w
  6155  040D  1283               	bcf	3,5	;RP0=0, select bank0
  6156  040E  1303               	bcf	3,6	;RP1=0, select bank0
  6157  040F  00C6               	movwf	?___flmul+1
  6158  0410  1683               	bsf	3,5	;RP0=1, select bank3
  6159  0411  1703               	bsf	3,6	;RP1=1, select bank3
  6160  0412  0834               	movf	_F3^(0+384),w
  6161  0413  1283               	bcf	3,5	;RP0=0, select bank0
  6162  0414  1303               	bcf	3,6	;RP1=0, select bank0
  6163  0415  00C5               	movwf	?___flmul
  6164  0416  1683               	bsf	3,5	;RP0=1, select bank1
  6165  0417  082B               	movf	(_measure_inductance$5204+3)^(0+128),w
  6166  0418  1283               	bcf	3,5	;RP0=0, select bank0
  6167  0419  00CC               	movwf	?___flmul+7
  6168  041A  1683               	bsf	3,5	;RP0=1, select bank1
  6169  041B  082A               	movf	(_measure_inductance$5204+2)^(0+128),w
  6170  041C  1283               	bcf	3,5	;RP0=0, select bank0
  6171  041D  00CB               	movwf	?___flmul+6
  6172  041E  1683               	bsf	3,5	;RP0=1, select bank1
  6173  041F  0829               	movf	(_measure_inductance$5204+1)^(0+128),w
  6174  0420  1283               	bcf	3,5	;RP0=0, select bank0
  6175  0421  00CA               	movwf	?___flmul+5
  6176  0422  1683               	bsf	3,5	;RP0=1, select bank1
  6177  0423  0828               	movf	_measure_inductance$5204^(0+128),w
  6178  0424  1283               	bcf	3,5	;RP0=0, select bank0
  6179  0425  00C9               	movwf	?___flmul+4
  6180  0426  264B  120A  118A   	fcall	___flmul
  6181  0429  0848               	movf	?___flmul+3,w
  6182  042A  1683               	bsf	3,5	;RP0=1, select bank1
  6183  042B  00AF               	movwf	(_measure_inductance$5205+3)^(0+128)
  6184  042C  1283               	bcf	3,5	;RP0=0, select bank0
  6185  042D  0847               	movf	?___flmul+2,w
  6186  042E  1683               	bsf	3,5	;RP0=1, select bank1
  6187  042F  00AE               	movwf	(_measure_inductance$5205+2)^(0+128)
  6188  0430  1283               	bcf	3,5	;RP0=0, select bank0
  6189  0431  0846               	movf	?___flmul+1,w
  6190  0432  1683               	bsf	3,5	;RP0=1, select bank1
  6191  0433  00AD               	movwf	(_measure_inductance$5205+1)^(0+128)
  6192  0434  1283               	bcf	3,5	;RP0=0, select bank0
  6193  0435  0845               	movf	?___flmul,w
  6194  0436  1683               	bsf	3,5	;RP0=1, select bank1
  6195  0437  00AC               	movwf	_measure_inductance$5205^(0+128)
  6196                           
  6197                           ;LC-meter.c: 487: denominator = 4 * 3.14159265358979323846l * 3.14159265358979323846l * 
      +                          F1 * F1 * F2 * F2 * F3 * F3 * CCal;
  6198  0438  1703               	bsf	3,6	;RP1=1, select bank3
  6199  0439  0837               	movf	(_F3+3)^(0+384),w
  6200  043A  1283               	bcf	3,5	;RP0=0, select bank0
  6201  043B  1303               	bcf	3,6	;RP1=0, select bank0
  6202  043C  00C8               	movwf	?___flmul+3
  6203  043D  1683               	bsf	3,5	;RP0=1, select bank3
  6204  043E  1703               	bsf	3,6	;RP1=1, select bank3
  6205  043F  0836               	movf	(_F3+2)^(0+384),w
  6206  0440  1283               	bcf	3,5	;RP0=0, select bank0
  6207  0441  1303               	bcf	3,6	;RP1=0, select bank0
  6208  0442  00C7               	movwf	?___flmul+2
  6209  0443  1683               	bsf	3,5	;RP0=1, select bank3
  6210  0444  1703               	bsf	3,6	;RP1=1, select bank3
  6211  0445  0835               	movf	(_F3+1)^(0+384),w
  6212  0446  1283               	bcf	3,5	;RP0=0, select bank0
  6213  0447  1303               	bcf	3,6	;RP1=0, select bank0
  6214  0448  00C6               	movwf	?___flmul+1
  6215  0449  1683               	bsf	3,5	;RP0=1, select bank3
  6216  044A  1703               	bsf	3,6	;RP1=1, select bank3
  6217  044B  0834               	movf	_F3^(0+384),w
  6218  044C  1283               	bcf	3,5	;RP0=0, select bank0
  6219  044D  1303               	bcf	3,6	;RP1=0, select bank0
  6220  044E  00C5               	movwf	?___flmul
  6221  044F  1683               	bsf	3,5	;RP0=1, select bank1
  6222  0450  082F               	movf	(_measure_inductance$5205+3)^(0+128),w
  6223  0451  1283               	bcf	3,5	;RP0=0, select bank0
  6224  0452  00CC               	movwf	?___flmul+7
  6225  0453  1683               	bsf	3,5	;RP0=1, select bank1
  6226  0454  082E               	movf	(_measure_inductance$5205+2)^(0+128),w
  6227  0455  1283               	bcf	3,5	;RP0=0, select bank0
  6228  0456  00CB               	movwf	?___flmul+6
  6229  0457  1683               	bsf	3,5	;RP0=1, select bank1
  6230  0458  082D               	movf	(_measure_inductance$5205+1)^(0+128),w
  6231  0459  1283               	bcf	3,5	;RP0=0, select bank0
  6232  045A  00CA               	movwf	?___flmul+5
  6233  045B  1683               	bsf	3,5	;RP0=1, select bank1
  6234  045C  082C               	movf	_measure_inductance$5205^(0+128),w
  6235  045D  1283               	bcf	3,5	;RP0=0, select bank0
  6236  045E  00C9               	movwf	?___flmul+4
  6237  045F  264B  120A  118A   	fcall	___flmul
  6238  0462  0848               	movf	?___flmul+3,w
  6239  0463  1683               	bsf	3,5	;RP0=1, select bank1
  6240  0464  00B3               	movwf	(_measure_inductance$5206+3)^(0+128)
  6241  0465  1283               	bcf	3,5	;RP0=0, select bank0
  6242  0466  0847               	movf	?___flmul+2,w
  6243  0467  1683               	bsf	3,5	;RP0=1, select bank1
  6244  0468  00B2               	movwf	(_measure_inductance$5206+2)^(0+128)
  6245  0469  1283               	bcf	3,5	;RP0=0, select bank0
  6246  046A  0846               	movf	?___flmul+1,w
  6247  046B  1683               	bsf	3,5	;RP0=1, select bank1
  6248  046C  00B1               	movwf	(_measure_inductance$5206+1)^(0+128)
  6249  046D  1283               	bcf	3,5	;RP0=0, select bank0
  6250  046E  0845               	movf	?___flmul,w
  6251  046F  1683               	bsf	3,5	;RP0=1, select bank1
  6252  0470  00B0               	movwf	_measure_inductance$5206^(0+128)
  6253                           
  6254                           ;LC-meter.c: 487: denominator = 4 * 3.14159265358979323846l * 3.14159265358979323846l * 
      +                          F1 * F1 * F2 * F2 * F3 * F3 * CCal;
  6255  0471  1703               	bsf	3,6	;RP1=1, select bank3
  6256  0472  085A               	movf	(_CCal+3)^(0+384),w
  6257  0473  1283               	bcf	3,5	;RP0=0, select bank0
  6258  0474  1303               	bcf	3,6	;RP1=0, select bank0
  6259  0475  00C8               	movwf	?___flmul+3
  6260  0476  1683               	bsf	3,5	;RP0=1, select bank3
  6261  0477  1703               	bsf	3,6	;RP1=1, select bank3
  6262  0478  0859               	movf	(_CCal+2)^(0+384),w
  6263  0479  1283               	bcf	3,5	;RP0=0, select bank0
  6264  047A  1303               	bcf	3,6	;RP1=0, select bank0
  6265  047B  00C7               	movwf	?___flmul+2
  6266  047C  1683               	bsf	3,5	;RP0=1, select bank3
  6267  047D  1703               	bsf	3,6	;RP1=1, select bank3
  6268  047E  0858               	movf	(_CCal+1)^(0+384),w
  6269  047F  1283               	bcf	3,5	;RP0=0, select bank0
  6270  0480  1303               	bcf	3,6	;RP1=0, select bank0
  6271  0481  00C6               	movwf	?___flmul+1
  6272  0482  1683               	bsf	3,5	;RP0=1, select bank3
  6273  0483  1703               	bsf	3,6	;RP1=1, select bank3
  6274  0484  0857               	movf	_CCal^(0+384),w
  6275  0485  1283               	bcf	3,5	;RP0=0, select bank0
  6276  0486  1303               	bcf	3,6	;RP1=0, select bank0
  6277  0487  00C5               	movwf	?___flmul
  6278  0488  1683               	bsf	3,5	;RP0=1, select bank1
  6279  0489  0833               	movf	(_measure_inductance$5206+3)^(0+128),w
  6280  048A  1283               	bcf	3,5	;RP0=0, select bank0
  6281  048B  00CC               	movwf	?___flmul+7
  6282  048C  1683               	bsf	3,5	;RP0=1, select bank1
  6283  048D  0832               	movf	(_measure_inductance$5206+2)^(0+128),w
  6284  048E  1283               	bcf	3,5	;RP0=0, select bank0
  6285  048F  00CB               	movwf	?___flmul+6
  6286  0490  1683               	bsf	3,5	;RP0=1, select bank1
  6287  0491  0831               	movf	(_measure_inductance$5206+1)^(0+128),w
  6288  0492  1283               	bcf	3,5	;RP0=0, select bank0
  6289  0493  00CA               	movwf	?___flmul+5
  6290  0494  1683               	bsf	3,5	;RP0=1, select bank1
  6291  0495  0830               	movf	_measure_inductance$5206^(0+128),w
  6292  0496  1283               	bcf	3,5	;RP0=0, select bank0
  6293  0497  00C9               	movwf	?___flmul+4
  6294  0498  264B  120A  118A   	fcall	___flmul
  6295  049B  0848               	movf	?___flmul+3,w
  6296  049C  1683               	bsf	3,5	;RP0=1, select bank1
  6297  049D  00B7               	movwf	(_measure_inductance$5207+3)^(0+128)
  6298  049E  1283               	bcf	3,5	;RP0=0, select bank0
  6299  049F  0847               	movf	?___flmul+2,w
  6300  04A0  1683               	bsf	3,5	;RP0=1, select bank1
  6301  04A1  00B6               	movwf	(_measure_inductance$5207+2)^(0+128)
  6302  04A2  1283               	bcf	3,5	;RP0=0, select bank0
  6303  04A3  0846               	movf	?___flmul+1,w
  6304  04A4  1683               	bsf	3,5	;RP0=1, select bank1
  6305  04A5  00B5               	movwf	(_measure_inductance$5207+1)^(0+128)
  6306  04A6  1283               	bcf	3,5	;RP0=0, select bank0
  6307  04A7  0845               	movf	?___flmul,w
  6308  04A8  1683               	bsf	3,5	;RP0=1, select bank1
  6309  04A9  00B4               	movwf	_measure_inductance$5207^(0+128)
  6310                           
  6311                           ;LC-meter.c: 487: denominator = 4 * 3.14159265358979323846l * 3.14159265358979323846l * 
      +                          F1 * F1 * F2 * F2 * F3 * F3 * CCal;
  6312  04AA  3042               	movlw	66
  6313  04AB  1283               	bcf	3,5	;RP0=0, select bank0
  6314  04AC  00C8               	movwf	?___flmul+3
  6315  04AD  301D               	movlw	29
  6316  04AE  00C7               	movwf	?___flmul+2
  6317  04AF  30E9               	movlw	233
  6318  04B0  00C6               	movwf	?___flmul+1
  6319  04B1  30E6               	movlw	230
  6320  04B2  00C5               	movwf	?___flmul
  6321  04B3  1683               	bsf	3,5	;RP0=1, select bank1
  6322  04B4  0837               	movf	(_measure_inductance$5207+3)^(0+128),w
  6323  04B5  1283               	bcf	3,5	;RP0=0, select bank0
  6324  04B6  00CC               	movwf	?___flmul+7
  6325  04B7  1683               	bsf	3,5	;RP0=1, select bank1
  6326  04B8  0836               	movf	(_measure_inductance$5207+2)^(0+128),w
  6327  04B9  1283               	bcf	3,5	;RP0=0, select bank0
  6328  04BA  00CB               	movwf	?___flmul+6
  6329  04BB  1683               	bsf	3,5	;RP0=1, select bank1
  6330  04BC  0835               	movf	(_measure_inductance$5207+1)^(0+128),w
  6331  04BD  1283               	bcf	3,5	;RP0=0, select bank0
  6332  04BE  00CA               	movwf	?___flmul+5
  6333  04BF  1683               	bsf	3,5	;RP0=1, select bank1
  6334  04C0  0834               	movf	_measure_inductance$5207^(0+128),w
  6335  04C1  1283               	bcf	3,5	;RP0=0, select bank0
  6336  04C2  00C9               	movwf	?___flmul+4
  6337  04C3  264B  120A  118A   	fcall	___flmul
  6338  04C6  0848               	movf	?___flmul+3,w
  6339  04C7  1683               	bsf	3,5	;RP0=1, select bank1
  6340  04C8  00A7               	movwf	(measure_inductance@denominator+3)^(0+128)
  6341  04C9  1283               	bcf	3,5	;RP0=0, select bank0
  6342  04CA  0847               	movf	?___flmul+2,w
  6343  04CB  1683               	bsf	3,5	;RP0=1, select bank1
  6344  04CC  00A6               	movwf	(measure_inductance@denominator+2)^(0+128)
  6345  04CD  1283               	bcf	3,5	;RP0=0, select bank0
  6346  04CE  0846               	movf	?___flmul+1,w
  6347  04CF  1683               	bsf	3,5	;RP0=1, select bank1
  6348  04D0  00A5               	movwf	(measure_inductance@denominator+1)^(0+128)
  6349  04D1  1283               	bcf	3,5	;RP0=0, select bank0
  6350  04D2  0845               	movf	?___flmul,w
  6351  04D3  1683               	bsf	3,5	;RP0=1, select bank1
  6352  04D4  00A4               	movwf	measure_inductance@denominator^(0+128)
  6353                           
  6354                           ;LC-meter.c: 489: Lin = (numerator / denominator) * 1e+15l;
  6355  04D5  3058               	movlw	88
  6356  04D6  1283               	bcf	3,5	;RP0=0, select bank0
  6357  04D7  00C8               	movwf	?___flmul+3
  6358  04D8  3063               	movlw	99
  6359  04D9  00C7               	movwf	?___flmul+2
  6360  04DA  305F               	movlw	95
  6361  04DB  00C6               	movwf	?___flmul+1
  6362  04DC  30A9               	movlw	169
  6363  04DD  00C5               	movwf	?___flmul
  6364  04DE  1683               	bsf	3,5	;RP0=1, select bank1
  6365  04DF  0827               	movf	(measure_inductance@denominator+3)^(0+128),w
  6366  04E0  1283               	bcf	3,5	;RP0=0, select bank0
  6367  04E1  00B5               	movwf	?___fldiv+3
  6368  04E2  1683               	bsf	3,5	;RP0=1, select bank1
  6369  04E3  0826               	movf	(measure_inductance@denominator+2)^(0+128),w
  6370  04E4  1283               	bcf	3,5	;RP0=0, select bank0
  6371  04E5  00B4               	movwf	?___fldiv+2
  6372  04E6  1683               	bsf	3,5	;RP0=1, select bank1
  6373  04E7  0825               	movf	(measure_inductance@denominator+1)^(0+128),w
  6374  04E8  1283               	bcf	3,5	;RP0=0, select bank0
  6375  04E9  00B3               	movwf	?___fldiv+1
  6376  04EA  1683               	bsf	3,5	;RP0=1, select bank1
  6377  04EB  0824               	movf	measure_inductance@denominator^(0+128),w
  6378  04EC  1283               	bcf	3,5	;RP0=0, select bank0
  6379  04ED  00B2               	movwf	?___fldiv
  6380  04EE  1683               	bsf	3,5	;RP0=1, select bank1
  6381  04EF  0823               	movf	(measure_inductance@numerator+3)^(0+128),w
  6382  04F0  1283               	bcf	3,5	;RP0=0, select bank0
  6383  04F1  00B9               	movwf	?___fldiv+7
  6384  04F2  1683               	bsf	3,5	;RP0=1, select bank1
  6385  04F3  0822               	movf	(measure_inductance@numerator+2)^(0+128),w
  6386  04F4  1283               	bcf	3,5	;RP0=0, select bank0
  6387  04F5  00B8               	movwf	?___fldiv+6
  6388  04F6  1683               	bsf	3,5	;RP0=1, select bank1
  6389  04F7  0821               	movf	(measure_inductance@numerator+1)^(0+128),w
  6390  04F8  1283               	bcf	3,5	;RP0=0, select bank0
  6391  04F9  00B7               	movwf	?___fldiv+5
  6392  04FA  1683               	bsf	3,5	;RP0=1, select bank1
  6393  04FB  0820               	movf	measure_inductance@numerator^(0+128),w
  6394  04FC  1283               	bcf	3,5	;RP0=0, select bank0
  6395  04FD  00B6               	movwf	?___fldiv+4
  6396  04FE  120A  158A  2785   	fcall	___fldiv
      +       120A  118A         
  6397  0503  0835               	movf	?___fldiv+3,w
  6398  0504  00CC               	movwf	?___flmul+7
  6399  0505  0834               	movf	?___fldiv+2,w
  6400  0506  00CB               	movwf	?___flmul+6
  6401  0507  0833               	movf	?___fldiv+1,w
  6402  0508  00CA               	movwf	?___flmul+5
  6403  0509  0832               	movf	?___fldiv,w
  6404  050A  00C9               	movwf	?___flmul+4
  6405  050B  264B               	fcall	___flmul
  6406  050C  0848               	movf	?___flmul+3,w
  6407  050D  1683               	bsf	3,5	;RP0=1, select bank1
  6408  050E  00C6               	movwf	(measure_inductance@Lin+3)^(0+128)
  6409  050F  1283               	bcf	3,5	;RP0=0, select bank0
  6410  0510  0847               	movf	?___flmul+2,w
  6411  0511  1683               	bsf	3,5	;RP0=1, select bank1
  6412  0512  00C5               	movwf	(measure_inductance@Lin+2)^(0+128)
  6413  0513  1283               	bcf	3,5	;RP0=0, select bank0
  6414  0514  0846               	movf	?___flmul+1,w
  6415  0515  1683               	bsf	3,5	;RP0=1, select bank1
  6416  0516  00C4               	movwf	(measure_inductance@Lin+1)^(0+128)
  6417  0517  1283               	bcf	3,5	;RP0=0, select bank0
  6418  0518  0845               	movf	?___flmul,w
  6419  0519  1683               	bsf	3,5	;RP0=1, select bank1
  6420  051A  00C3               	movwf	measure_inductance@Lin^(0+128)
  6421                           
  6422                           ;LC-meter.c: 491: if(Lin > 999) {
  6423  051B  3044               	movlw	68
  6424  051C  1283               	bcf	3,5	;RP0=0, select bank0
  6425  051D  00A3               	movwf	?___flge+3
  6426  051E  3079               	movlw	121
  6427  051F  00A2               	movwf	?___flge+2
  6428  0520  30C0               	movlw	192
  6429  0521  00A1               	movwf	?___flge+1
  6430  0522  01A0               	clrf	?___flge
  6431  0523  1683               	bsf	3,5	;RP0=1, select bank1
  6432  0524  0846               	movf	(measure_inductance@Lin+3)^(0+128),w
  6433  0525  1283               	bcf	3,5	;RP0=0, select bank0
  6434  0526  00A7               	movwf	?___flge+7
  6435  0527  1683               	bsf	3,5	;RP0=1, select bank1
  6436  0528  0845               	movf	(measure_inductance@Lin+2)^(0+128),w
  6437  0529  1283               	bcf	3,5	;RP0=0, select bank0
  6438  052A  00A6               	movwf	?___flge+6
  6439  052B  1683               	bsf	3,5	;RP0=1, select bank1
  6440  052C  0844               	movf	(measure_inductance@Lin+1)^(0+128),w
  6441  052D  1283               	bcf	3,5	;RP0=0, select bank0
  6442  052E  00A5               	movwf	?___flge+5
  6443  052F  1683               	bsf	3,5	;RP0=1, select bank1
  6444  0530  0843               	movf	measure_inductance@Lin^(0+128),w
  6445  0531  1283               	bcf	3,5	;RP0=0, select bank0
  6446  0532  00A4               	movwf	?___flge+4
  6447  0533  120A  158A  2739   	fcall	___flge
      +       120A  118A         
  6448  0538  1803               	btfsc	3,0
  6449  0539  2E00               	goto	l8699
  6450                           
  6451                           ;LC-meter.c: 492: if(Lin > (999e+03l)) {
  6452  053A  3049               	movlw	73
  6453  053B  00A3               	movwf	?___flge+3
  6454  053C  3073               	movlw	115
  6455  053D  00A2               	movwf	?___flge+2
  6456  053E  30E5               	movlw	229
  6457  053F  00A1               	movwf	?___flge+1
  6458  0540  3080               	movlw	128
  6459  0541  00A0               	movwf	?___flge
  6460  0542  1683               	bsf	3,5	;RP0=1, select bank1
  6461  0543  0846               	movf	(measure_inductance@Lin+3)^(0+128),w
  6462  0544  1283               	bcf	3,5	;RP0=0, select bank0
  6463  0545  00A7               	movwf	?___flge+7
  6464  0546  1683               	bsf	3,5	;RP0=1, select bank1
  6465  0547  0845               	movf	(measure_inductance@Lin+2)^(0+128),w
  6466  0548  1283               	bcf	3,5	;RP0=0, select bank0
  6467  0549  00A6               	movwf	?___flge+6
  6468  054A  1683               	bsf	3,5	;RP0=1, select bank1
  6469  054B  0844               	movf	(measure_inductance@Lin+1)^(0+128),w
  6470  054C  1283               	bcf	3,5	;RP0=0, select bank0
  6471  054D  00A5               	movwf	?___flge+5
  6472  054E  1683               	bsf	3,5	;RP0=1, select bank1
  6473  054F  0843               	movf	measure_inductance@Lin^(0+128),w
  6474  0550  1283               	bcf	3,5	;RP0=0, select bank0
  6475  0551  00A4               	movwf	?___flge+4
  6476  0552  120A  158A  2739   	fcall	___flge
      +       120A  118A         
  6477  0557  1803               	btfsc	3,0
  6478  0558  2DD4               	goto	l8695
  6479                           
  6480                           ;LC-meter.c: 493: if(Lin > (999e+06l)) {
  6481  0559  304E               	movlw	78
  6482  055A  00A3               	movwf	?___flge+3
  6483  055B  306E               	movlw	110
  6484  055C  00A2               	movwf	?___flge+2
  6485  055D  302E               	movlw	46
  6486  055E  00A1               	movwf	?___flge+1
  6487  055F  301F               	movlw	31
  6488  0560  00A0               	movwf	?___flge
  6489  0561  1683               	bsf	3,5	;RP0=1, select bank1
  6490  0562  0846               	movf	(measure_inductance@Lin+3)^(0+128),w
  6491  0563  1283               	bcf	3,5	;RP0=0, select bank0
  6492  0564  00A7               	movwf	?___flge+7
  6493  0565  1683               	bsf	3,5	;RP0=1, select bank1
  6494  0566  0845               	movf	(measure_inductance@Lin+2)^(0+128),w
  6495  0567  1283               	bcf	3,5	;RP0=0, select bank0
  6496  0568  00A6               	movwf	?___flge+6
  6497  0569  1683               	bsf	3,5	;RP0=1, select bank1
  6498  056A  0844               	movf	(measure_inductance@Lin+1)^(0+128),w
  6499  056B  1283               	bcf	3,5	;RP0=0, select bank0
  6500  056C  00A5               	movwf	?___flge+5
  6501  056D  1683               	bsf	3,5	;RP0=1, select bank1
  6502  056E  0843               	movf	measure_inductance@Lin^(0+128),w
  6503  056F  1283               	bcf	3,5	;RP0=0, select bank0
  6504  0570  00A4               	movwf	?___flge+4
  6505  0571  120A  158A  2739   	fcall	___flge
      +       120A  118A         
  6506  0576  1803               	btfsc	3,0
  6507  0577  2DA6               	goto	l8691
  6508                           
  6509                           ;LC-meter.c: 494: Lin = Lin / (1e+09l);
  6510  0578  304E               	movlw	78
  6511  0579  00B5               	movwf	?___fldiv+3
  6512  057A  306E               	movlw	110
  6513  057B  00B4               	movwf	?___fldiv+2
  6514  057C  306B               	movlw	107
  6515  057D  00B3               	movwf	?___fldiv+1
  6516  057E  3028               	movlw	40
  6517  057F  00B2               	movwf	?___fldiv
  6518  0580  1683               	bsf	3,5	;RP0=1, select bank1
  6519  0581  0846               	movf	(measure_inductance@Lin+3)^(0+128),w
  6520  0582  1283               	bcf	3,5	;RP0=0, select bank0
  6521  0583  00B9               	movwf	?___fldiv+7
  6522  0584  1683               	bsf	3,5	;RP0=1, select bank1
  6523  0585  0845               	movf	(measure_inductance@Lin+2)^(0+128),w
  6524  0586  1283               	bcf	3,5	;RP0=0, select bank0
  6525  0587  00B8               	movwf	?___fldiv+6
  6526  0588  1683               	bsf	3,5	;RP0=1, select bank1
  6527  0589  0844               	movf	(measure_inductance@Lin+1)^(0+128),w
  6528  058A  1283               	bcf	3,5	;RP0=0, select bank0
  6529  058B  00B7               	movwf	?___fldiv+5
  6530  058C  1683               	bsf	3,5	;RP0=1, select bank1
  6531  058D  0843               	movf	measure_inductance@Lin^(0+128),w
  6532  058E  1283               	bcf	3,5	;RP0=0, select bank0
  6533  058F  00B6               	movwf	?___fldiv+4
  6534  0590  120A  158A  2785   	fcall	___fldiv
      +       120A  118A         
  6535  0595  0835               	movf	?___fldiv+3,w
  6536  0596  1683               	bsf	3,5	;RP0=1, select bank1
  6537  0597  00C6               	movwf	(measure_inductance@Lin+3)^(0+128)
  6538  0598  1283               	bcf	3,5	;RP0=0, select bank0
  6539  0599  0834               	movf	?___fldiv+2,w
  6540  059A  1683               	bsf	3,5	;RP0=1, select bank1
  6541  059B  00C5               	movwf	(measure_inductance@Lin+2)^(0+128)
  6542  059C  1283               	bcf	3,5	;RP0=0, select bank0
  6543  059D  0833               	movf	?___fldiv+1,w
  6544  059E  1683               	bsf	3,5	;RP0=1, select bank1
  6545  059F  00C4               	movwf	(measure_inductance@Lin+1)^(0+128)
  6546  05A0  1283               	bcf	3,5	;RP0=0, select bank0
  6547  05A1  0832               	movf	?___fldiv,w
  6548  05A2  1683               	bsf	3,5	;RP0=1, select bank1
  6549  05A3  00C3               	movwf	measure_inductance@Lin^(0+128)
  6550                           
  6551                           ;LC-meter.c: 495: unit = 0;
  6552  05A4  01B8               	clrf	measure_inductance@unit^(0+128)
  6553                           
  6554                           ;LC-meter.c: 496: } else {
  6555  05A5  2E03               	goto	l8701
  6556  05A6                     l8691:	
  6557                           
  6558                           ;LC-meter.c: 497: Lin = Lin / (1e+06l);
  6559  05A6  3049               	movlw	73
  6560  05A7  00B5               	movwf	?___fldiv+3
  6561  05A8  3074               	movlw	116
  6562  05A9  00B4               	movwf	?___fldiv+2
  6563  05AA  3024               	movlw	36
  6564  05AB  00B3               	movwf	?___fldiv+1
  6565  05AC  01B2               	clrf	?___fldiv
  6566  05AD  1683               	bsf	3,5	;RP0=1, select bank1
  6567  05AE  0846               	movf	(measure_inductance@Lin+3)^(0+128),w
  6568  05AF  1283               	bcf	3,5	;RP0=0, select bank0
  6569  05B0  00B9               	movwf	?___fldiv+7
  6570  05B1  1683               	bsf	3,5	;RP0=1, select bank1
  6571  05B2  0845               	movf	(measure_inductance@Lin+2)^(0+128),w
  6572  05B3  1283               	bcf	3,5	;RP0=0, select bank0
  6573  05B4  00B8               	movwf	?___fldiv+6
  6574  05B5  1683               	bsf	3,5	;RP0=1, select bank1
  6575  05B6  0844               	movf	(measure_inductance@Lin+1)^(0+128),w
  6576  05B7  1283               	bcf	3,5	;RP0=0, select bank0
  6577  05B8  00B7               	movwf	?___fldiv+5
  6578  05B9  1683               	bsf	3,5	;RP0=1, select bank1
  6579  05BA  0843               	movf	measure_inductance@Lin^(0+128),w
  6580  05BB  1283               	bcf	3,5	;RP0=0, select bank0
  6581  05BC  00B6               	movwf	?___fldiv+4
  6582  05BD  120A  158A  2785   	fcall	___fldiv
      +       120A  118A         
  6583  05C2  0835               	movf	?___fldiv+3,w
  6584  05C3  1683               	bsf	3,5	;RP0=1, select bank1
  6585  05C4  00C6               	movwf	(measure_inductance@Lin+3)^(0+128)
  6586  05C5  1283               	bcf	3,5	;RP0=0, select bank0
  6587  05C6  0834               	movf	?___fldiv+2,w
  6588  05C7  1683               	bsf	3,5	;RP0=1, select bank1
  6589  05C8  00C5               	movwf	(measure_inductance@Lin+2)^(0+128)
  6590  05C9  1283               	bcf	3,5	;RP0=0, select bank0
  6591  05CA  0833               	movf	?___fldiv+1,w
  6592  05CB  1683               	bsf	3,5	;RP0=1, select bank1
  6593  05CC  00C4               	movwf	(measure_inductance@Lin+1)^(0+128)
  6594  05CD  1283               	bcf	3,5	;RP0=0, select bank0
  6595  05CE  0832               	movf	?___fldiv,w
  6596  05CF  1683               	bsf	3,5	;RP0=1, select bank1
  6597  05D0  00C3               	movwf	measure_inductance@Lin^(0+128)
  6598                           
  6599                           ;LC-meter.c: 498: unit = 1;
  6600  05D1  01B8               	clrf	measure_inductance@unit^(0+128)
  6601  05D2  0AB8               	incf	measure_inductance@unit^(0+128),f
  6602  05D3  2E03               	goto	l8701
  6603  05D4                     l8695:	
  6604                           
  6605                           ;LC-meter.c: 501: Lin = Lin / 1e+03l;
  6606  05D4  3044               	movlw	68
  6607  05D5  00B5               	movwf	?___fldiv+3
  6608  05D6  307A               	movlw	122
  6609  05D7  00B4               	movwf	?___fldiv+2
  6610  05D8  01B3               	clrf	?___fldiv+1
  6611  05D9  01B2               	clrf	?___fldiv
  6612  05DA  1683               	bsf	3,5	;RP0=1, select bank1
  6613  05DB  0846               	movf	(measure_inductance@Lin+3)^(0+128),w
  6614  05DC  1283               	bcf	3,5	;RP0=0, select bank0
  6615  05DD  00B9               	movwf	?___fldiv+7
  6616  05DE  1683               	bsf	3,5	;RP0=1, select bank1
  6617  05DF  0845               	movf	(measure_inductance@Lin+2)^(0+128),w
  6618  05E0  1283               	bcf	3,5	;RP0=0, select bank0
  6619  05E1  00B8               	movwf	?___fldiv+6
  6620  05E2  1683               	bsf	3,5	;RP0=1, select bank1
  6621  05E3  0844               	movf	(measure_inductance@Lin+1)^(0+128),w
  6622  05E4  1283               	bcf	3,5	;RP0=0, select bank0
  6623  05E5  00B7               	movwf	?___fldiv+5
  6624  05E6  1683               	bsf	3,5	;RP0=1, select bank1
  6625  05E7  0843               	movf	measure_inductance@Lin^(0+128),w
  6626  05E8  1283               	bcf	3,5	;RP0=0, select bank0
  6627  05E9  00B6               	movwf	?___fldiv+4
  6628  05EA  120A  158A  2785   	fcall	___fldiv
      +       120A  118A         
  6629  05EF  0835               	movf	?___fldiv+3,w
  6630  05F0  1683               	bsf	3,5	;RP0=1, select bank1
  6631  05F1  00C6               	movwf	(measure_inductance@Lin+3)^(0+128)
  6632  05F2  1283               	bcf	3,5	;RP0=0, select bank0
  6633  05F3  0834               	movf	?___fldiv+2,w
  6634  05F4  1683               	bsf	3,5	;RP0=1, select bank1
  6635  05F5  00C5               	movwf	(measure_inductance@Lin+2)^(0+128)
  6636  05F6  1283               	bcf	3,5	;RP0=0, select bank0
  6637  05F7  0833               	movf	?___fldiv+1,w
  6638  05F8  1683               	bsf	3,5	;RP0=1, select bank1
  6639  05F9  00C4               	movwf	(measure_inductance@Lin+1)^(0+128)
  6640  05FA  1283               	bcf	3,5	;RP0=0, select bank0
  6641  05FB  0832               	movf	?___fldiv,w
  6642  05FC  1683               	bsf	3,5	;RP0=1, select bank1
  6643  05FD  00C3               	movwf	measure_inductance@Lin^(0+128)
  6644                           
  6645                           ;LC-meter.c: 502: unit = 2;
  6646  05FE  3002               	movlw	2
  6647  05FF  2E02               	goto	L2
  6648  0600                     l8699:	
  6649                           
  6650                           ;LC-meter.c: 505: unit = 3;
  6651  0600  3003               	movlw	3
  6652  0601  1683               	bsf	3,5	;RP0=1, select bank1
  6653  0602                     L2:	
  6654  0602  00B8               	movwf	measure_inductance@unit^(0+128)
  6655  0603                     l8701:	
  6656                           
  6657                           ;LC-meter.c: 507: Lin = Lin * 100;
  6658  0603  3042               	movlw	66
  6659  0604  1283               	bcf	3,5	;RP0=0, select bank0
  6660  0605  00C8               	movwf	?___flmul+3
  6661  0606  30C8               	movlw	200
  6662  0607  00C7               	movwf	?___flmul+2
  6663  0608  01C6               	clrf	?___flmul+1
  6664  0609  01C5               	clrf	?___flmul
  6665  060A  1683               	bsf	3,5	;RP0=1, select bank1
  6666  060B  0846               	movf	(measure_inductance@Lin+3)^(0+128),w
  6667  060C  1283               	bcf	3,5	;RP0=0, select bank0
  6668  060D  00CC               	movwf	?___flmul+7
  6669  060E  1683               	bsf	3,5	;RP0=1, select bank1
  6670  060F  0845               	movf	(measure_inductance@Lin+2)^(0+128),w
  6671  0610  1283               	bcf	3,5	;RP0=0, select bank0
  6672  0611  00CB               	movwf	?___flmul+6
  6673  0612  1683               	bsf	3,5	;RP0=1, select bank1
  6674  0613  0844               	movf	(measure_inductance@Lin+1)^(0+128),w
  6675  0614  1283               	bcf	3,5	;RP0=0, select bank0
  6676  0615  00CA               	movwf	?___flmul+5
  6677  0616  1683               	bsf	3,5	;RP0=1, select bank1
  6678  0617  0843               	movf	measure_inductance@Lin^(0+128),w
  6679  0618  1283               	bcf	3,5	;RP0=0, select bank0
  6680  0619  00C9               	movwf	?___flmul+4
  6681  061A  264B               	fcall	___flmul
  6682  061B  0848               	movf	?___flmul+3,w
  6683  061C  1683               	bsf	3,5	;RP0=1, select bank1
  6684  061D  00C6               	movwf	(measure_inductance@Lin+3)^(0+128)
  6685  061E  1283               	bcf	3,5	;RP0=0, select bank0
  6686  061F  0847               	movf	?___flmul+2,w
  6687  0620  1683               	bsf	3,5	;RP0=1, select bank1
  6688  0621  00C5               	movwf	(measure_inductance@Lin+2)^(0+128)
  6689  0622  1283               	bcf	3,5	;RP0=0, select bank0
  6690  0623  0846               	movf	?___flmul+1,w
  6691  0624  1683               	bsf	3,5	;RP0=1, select bank1
  6692  0625  00C4               	movwf	(measure_inductance@Lin+1)^(0+128)
  6693  0626  1283               	bcf	3,5	;RP0=0, select bank0
  6694  0627  0845               	movf	?___flmul,w
  6695  0628  1683               	bsf	3,5	;RP0=1, select bank1
  6696  0629  00C3               	movwf	measure_inductance@Lin^(0+128)
  6697                           
  6698                           ;LC-meter.c: 508: var = (uint16_t)Lin;
  6699  062A  0846               	movf	(measure_inductance@Lin+3)^(0+128),w
  6700  062B  1283               	bcf	3,5	;RP0=0, select bank0
  6701  062C  00AB               	movwf	?___fltol+3
  6702  062D  1683               	bsf	3,5	;RP0=1, select bank1
  6703  062E  0845               	movf	(measure_inductance@Lin+2)^(0+128),w
  6704  062F  1283               	bcf	3,5	;RP0=0, select bank0
  6705  0630  00AA               	movwf	?___fltol+2
  6706  0631  1683               	bsf	3,5	;RP0=1, select bank1
  6707  0632  0844               	movf	(measure_inductance@Lin+1)^(0+128),w
  6708  0633  1283               	bcf	3,5	;RP0=0, select bank0
  6709  0634  00A9               	movwf	?___fltol+1
  6710  0635  1683               	bsf	3,5	;RP0=1, select bank1
  6711  0636  0843               	movf	measure_inductance@Lin^(0+128),w
  6712  0637  1283               	bcf	3,5	;RP0=0, select bank0
  6713  0638  00A8               	movwf	?___fltol
  6714  0639  160A  118A  23A3   	fcall	___fltol
      +       120A  118A         
  6715  063E  0829               	movf	?___fltol+1,w
  6716  063F  1683               	bsf	3,5	;RP0=1, select bank1
  6717  0640  00C2               	movwf	(measure_inductance@var+1)^(0+128)
  6718  0641  1283               	bcf	3,5	;RP0=0, select bank0
  6719  0642  0828               	movf	?___fltol,w
  6720  0643  1683               	bsf	3,5	;RP0=1, select bank1
  6721  0644  00C1               	movwf	measure_inductance@var^(0+128)
  6722                           
  6723                           ;LC-meter.c: 510: print_reading(var);
  6724  0645  0842               	movf	(measure_inductance@var+1)^(0+128),w
  6725  0646  00F5               	movwf	?_print_reading+1
  6726  0647  0841               	movf	measure_inductance@var^(0+128),w
  6727  0648  00F4               	movwf	?_print_reading
  6728                           
  6729                           ;LC-meter.c: 511: print_unit(unit);
  6730  0649  0838               	movf	measure_inductance@unit^(0+128),w
  6731  064A  2EFF               	ljmp	l630
  6732  064B                     __end_of_measure_inductance:	
  6733  064B                     __ptext1132:	
  6734 ;; =============== function ___awtofl ends ============
  6735                           
  6736                           
  6737 ;; *************** function ___flmul *****************
  6738 ;; Defined at:
  6739 ;;		line 51 in file "C:\Program Files (x86)\HI-TECH Software\PICC\9.83\sources\flmul.c"
  6740 ;; Parameters:    Size  Location     Type
  6741 ;;  f1              4   37[BANK0 ] unsigned char 
  6742 ;;  f2              4   41[BANK0 ] unsigned char 
  6743 ;; Auto vars:     Size  Location     Type
  6744 ;;  f3_as_produc    4   50[BANK0 ] unsigned long 
  6745 ;;  sign            1   55[BANK0 ] unsigned char 
  6746 ;;  cntr            1   54[BANK0 ] unsigned char 
  6747 ;;  exp             1   49[BANK0 ] unsigned char 
  6748 ;; Return value:  Size  Location     Type
  6749 ;;                  4   37[BANK0 ] unsigned char 
  6750 ;; Registers used:
  6751 ;;		wreg, status,2, status,0, pclath, cstack
  6752 ;; Tracked objects:
  6753 ;;		On entry : 60/100
  6754 ;;		On exit  : 60/100
  6755 ;;		Unchanged: FFF9F/0
  6756 ;; Data sizes:     COMMON   BANK0   BANK1   BANK3   BANK2
  6757 ;;      Params:         0       8       0       0       0
  6758 ;;      Locals:         0       7       0       0       0
  6759 ;;      Temps:          0       4       0       0       0
  6760 ;;      Totals:         0      19       0       0       0
  6761 ;;Total ram usage:       19 bytes
  6762 ;; Hardware stack levels used:    1
  6763 ;; Hardware stack levels required when called:    2
  6764 ;; This function calls:
  6765 ;;		___flpack
  6766 ;; This function is called by:
  6767 ;;		_format_double
  6768 ;;		_measure_capacitance
  6769 ;;		_measure_inductance
  6770 ;;		_log
  6771 ;;		_log10
  6772 ;;		_pow
  6773 ;;		_eval_poly
  6774 ;;		_exp
  6775 ;; This function uses a non-reentrant model
  6776 ;;
  6777  064B                     ___flmul:	
  6778                           
  6779                           ; Regs used in ___flmul: [wreg+status,2+status,0+pclath+cstack]
  6780  064B  0845               	movf	___flmul@f1,w
  6781  064C  00CD               	movwf	??___flmul
  6782  064D  0846               	movf	___flmul@f1+1,w
  6783  064E  00CE               	movwf	??___flmul+1
  6784  064F  0847               	movf	___flmul@f1+2,w
  6785  0650  00CF               	movwf	??___flmul+2
  6786  0651  0848               	movf	___flmul@f1+3,w
  6787  0652  00D0               	movwf	??___flmul+3
  6788  0653  1003               	clrc
  6789  0654  0D4F               	rlf	??___flmul+2,w
  6790  0655  0D50               	rlf	??___flmul+3,w
  6791  0656  00D1               	movwf	___flmul@exp
  6792  0657  08D1               	movf	___flmul@exp,f
  6793  0658  1D03               	skipz
  6794  0659  2E5F               	goto	l8475
  6795  065A  01C5               	clrf	?___flmul
  6796  065B  01C6               	clrf	?___flmul+1
  6797  065C  01C7               	clrf	?___flmul+2
  6798  065D  01C8               	clrf	?___flmul+3
  6799  065E  0008               	return
  6800  065F                     l8475:	
  6801  065F  0849               	movf	___flmul@f2,w
  6802  0660  00CD               	movwf	??___flmul
  6803  0661  084A               	movf	___flmul@f2+1,w
  6804  0662  00CE               	movwf	??___flmul+1
  6805  0663  084B               	movf	___flmul@f2+2,w
  6806  0664  00CF               	movwf	??___flmul+2
  6807  0665  084C               	movf	___flmul@f2+3,w
  6808  0666  00D0               	movwf	??___flmul+3
  6809  0667  1003               	clrc
  6810  0668  0D4F               	rlf	??___flmul+2,w
  6811  0669  0D50               	rlf	??___flmul+3,w
  6812  066A  00D7               	movwf	___flmul@sign
  6813  066B  08D7               	movf	___flmul@sign,f
  6814  066C  1D03               	skipz
  6815  066D  2E73               	goto	l8479
  6816  066E  01C5               	clrf	?___flmul
  6817  066F  01C6               	clrf	?___flmul+1
  6818  0670  01C7               	clrf	?___flmul+2
  6819  0671  01C8               	clrf	?___flmul+3
  6820  0672  0008               	return
  6821  0673                     l8479:	
  6822  0673  0857               	movf	___flmul@sign,w
  6823  0674  3E7B               	addlw	123
  6824  0675  07D1               	addwf	___flmul@exp,f
  6825  0676  0848               	movf	___flmul@f1+3,w
  6826  0677  00D7               	movwf	___flmul@sign
  6827  0678  084C               	movf	___flmul@f2+3,w
  6828  0679  06D7               	xorwf	___flmul@sign,f
  6829  067A  3080               	movlw	128
  6830  067B  05D7               	andwf	___flmul@sign,f
  6831  067C  3007               	movlw	7
  6832  067D  17C7               	bsf	___flmul@f1+2,7
  6833  067E  17CB               	bsf	___flmul@f2+2,7
  6834  067F  01CC               	clrf	___flmul@f2+3
  6835  0680  01D2               	clrf	___flmul@f3_as_product
  6836  0681  01D3               	clrf	___flmul@f3_as_product+1
  6837  0682  01D4               	clrf	___flmul@f3_as_product+2
  6838  0683  01D5               	clrf	___flmul@f3_as_product+3
  6839  0684  00D6               	movwf	___flmul@cntr
  6840  0685                     l8497:	
  6841  0685  1C45               	btfss	___flmul@f1,0
  6842  0686  2E9B               	goto	l8501
  6843  0687  0849               	movf	___flmul@f2,w
  6844  0688  07D2               	addwf	___flmul@f3_as_product,f
  6845  0689  084A               	movf	___flmul@f2+1,w
  6846  068A  1103               	clrz
  6847  068B  1803               	skipnc
  6848  068C  3E01               	addlw	1
  6849  068D  1D03               	btfss	3,2
  6850  068E  07D3               	addwf	___flmul@f3_as_product+1,f
  6851  068F  084B               	movf	___flmul@f2+2,w
  6852  0690  1103               	clrz
  6853  0691  1803               	skipnc
  6854  0692  3E01               	addlw	1
  6855  0693  1D03               	btfss	3,2
  6856  0694  07D4               	addwf	___flmul@f3_as_product+2,f
  6857  0695  084C               	movf	___flmul@f2+3,w
  6858  0696  1103               	clrz
  6859  0697  1803               	skipnc
  6860  0698  3E01               	addlw	1
  6861  0699  1D03               	btfss	3,2
  6862  069A  07D5               	addwf	___flmul@f3_as_product+3,f
  6863  069B                     l8501:	
  6864  069B  1003               	clrc
  6865  069C  0CC8               	rrf	___flmul@f1+3,f
  6866  069D  0CC7               	rrf	___flmul@f1+2,f
  6867  069E  0CC6               	rrf	___flmul@f1+1,f
  6868  069F  0CC5               	rrf	___flmul@f1,f
  6869  06A0  1003               	clrc
  6870  06A1  0DC9               	rlf	___flmul@f2,f
  6871  06A2  0DCA               	rlf	___flmul@f2+1,f
  6872  06A3  0DCB               	rlf	___flmul@f2+2,f
  6873  06A4  0DCC               	rlf	___flmul@f2+3,f
  6874  06A5  0BD6               	decfsz	___flmul@cntr,f
  6875  06A6  2E85               	goto	l8497
  6876  06A7  3011               	movlw	17
  6877  06A8  00D6               	movwf	___flmul@cntr
  6878  06A9                     l8509:	
  6879  06A9  1C45               	btfss	___flmul@f1,0
  6880  06AA  2EBF               	goto	l8513
  6881  06AB  0849               	movf	___flmul@f2,w
  6882  06AC  07D2               	addwf	___flmul@f3_as_product,f
  6883  06AD  084A               	movf	___flmul@f2+1,w
  6884  06AE  1103               	clrz
  6885  06AF  1803               	skipnc
  6886  06B0  3E01               	addlw	1
  6887  06B1  1D03               	btfss	3,2
  6888  06B2  07D3               	addwf	___flmul@f3_as_product+1,f
  6889  06B3  084B               	movf	___flmul@f2+2,w
  6890  06B4  1103               	clrz
  6891  06B5  1803               	skipnc
  6892  06B6  3E01               	addlw	1
  6893  06B7  1D03               	btfss	3,2
  6894  06B8  07D4               	addwf	___flmul@f3_as_product+2,f
  6895  06B9  084C               	movf	___flmul@f2+3,w
  6896  06BA  1103               	clrz
  6897  06BB  1803               	skipnc
  6898  06BC  3E01               	addlw	1
  6899  06BD  1D03               	btfss	3,2
  6900  06BE  07D5               	addwf	___flmul@f3_as_product+3,f
  6901  06BF                     l8513:	
  6902  06BF  1003               	clrc
  6903  06C0  0CC8               	rrf	___flmul@f1+3,f
  6904  06C1  0CC7               	rrf	___flmul@f1+2,f
  6905  06C2  0CC6               	rrf	___flmul@f1+1,f
  6906  06C3  0CC5               	rrf	___flmul@f1,f
  6907  06C4  1003               	clrc
  6908  06C5  0CD5               	rrf	___flmul@f3_as_product+3,f
  6909  06C6  0CD4               	rrf	___flmul@f3_as_product+2,f
  6910  06C7  0CD3               	rrf	___flmul@f3_as_product+1,f
  6911  06C8  0CD2               	rrf	___flmul@f3_as_product,f
  6912  06C9  0BD6               	decfsz	___flmul@cntr,f
  6913  06CA  2EA9               	goto	l8509
  6914  06CB  0855               	movf	___flmul@f3_as_product+3,w
  6915  06CC  00A3               	movwf	?___flpack+3
  6916  06CD  0854               	movf	___flmul@f3_as_product+2,w
  6917  06CE  00A2               	movwf	?___flpack+2
  6918  06CF  0853               	movf	___flmul@f3_as_product+1,w
  6919  06D0  00A1               	movwf	?___flpack+1
  6920  06D1  0852               	movf	___flmul@f3_as_product,w
  6921  06D2  00A0               	movwf	?___flpack
  6922  06D3  0851               	movf	___flmul@exp,w
  6923  06D4  00A4               	movwf	?___flpack+4
  6924  06D5  0857               	movf	___flmul@sign,w
  6925  06D6  00A5               	movwf	?___flpack+5
  6926  06D7  160A  118A  27B5   	fcall	___flpack
  6927  06DA  0823               	movf	?___flpack+3,w
  6928  06DB  00C8               	movwf	?___flmul+3
  6929  06DC  0822               	movf	?___flpack+2,w
  6930  06DD  00C7               	movwf	?___flmul+2
  6931  06DE  0821               	movf	?___flpack+1,w
  6932  06DF  00C6               	movwf	?___flmul+1
  6933  06E0  0820               	movf	?___flpack,w
  6934  06E1  00C5               	movwf	?___flmul
  6935  06E2  0008               	return
  6936  06E3                     __end_of___flmul:	
  6937  06E3                     __ptext1123:	
  6938 ;; =============== function _format_xint32 ends ============
  6939                           
  6940                           
  6941 ;; *************** function ___flsub *****************
  6942 ;; Defined at:
  6943 ;;		line 17 in file "C:\Program Files (x86)\HI-TECH Software\PICC\9.83\sources\flsub.c"
  6944 ;; Parameters:    Size  Location     Type
  6945 ;;  f2              4   71[BANK0 ] unsigned long 
  6946 ;;  f1              4   75[BANK0 ] unsigned long 
  6947 ;; Auto vars:     Size  Location     Type
  6948 ;;		None
  6949 ;; Return value:  Size  Location     Type
  6950 ;;                  4   71[BANK0 ] unsigned long 
  6951 ;; Registers used:
  6952 ;;		wreg, status,2, status,0, pclath, cstack
  6953 ;; Tracked objects:
  6954 ;;		On entry : 60/100
  6955 ;;		On exit  : 60/100
  6956 ;;		Unchanged: FFF9F/0
  6957 ;; Data sizes:     COMMON   BANK0   BANK1   BANK3   BANK2
  6958 ;;      Params:         0       8       0       0       0
  6959 ;;      Locals:         0       0       0       0       0
  6960 ;;      Temps:          0       0       0       0       0
  6961 ;;      Totals:         0       8       0       0       0
  6962 ;;Total ram usage:        8 bytes
  6963 ;; Hardware stack levels used:    1
  6964 ;; Hardware stack levels required when called:    3
  6965 ;; This function calls:
  6966 ;;		___fladd
  6967 ;; This function is called by:
  6968 ;;		_format_double
  6969 ;;		_measure_capacitance
  6970 ;;		_measure_inductance
  6971 ;;		_exp
  6972 ;; This function uses a non-reentrant model
  6973 ;;
  6974  06E3                     ___flsub:	
  6975                           
  6976                           ; Regs used in ___flsub: [wreg+status,2+status,0+pclath+cstack]
  6977  06E3  3080               	movlw	128
  6978  06E4  06EA               	xorwf	___flsub@f2+3,f
  6979  06E5  086A               	movf	___flsub@f2+3,w
  6980  06E6  00DB               	movwf	?___fladd+3
  6981  06E7  0869               	movf	___flsub@f2+2,w
  6982  06E8  00DA               	movwf	?___fladd+2
  6983  06E9  0868               	movf	___flsub@f2+1,w
  6984  06EA  00D9               	movwf	?___fladd+1
  6985  06EB  0867               	movf	___flsub@f2,w
  6986  06EC  00D8               	movwf	?___fladd
  6987  06ED  086E               	movf	___flsub@f1+3,w
  6988  06EE  00DF               	movwf	?___fladd+7
  6989  06EF  086D               	movf	___flsub@f1+2,w
  6990  06F0  00DE               	movwf	?___fladd+6
  6991  06F1  086C               	movf	___flsub@f1+1,w
  6992  06F2  00DD               	movwf	?___fladd+5
  6993  06F3  086B               	movf	___flsub@f1,w
  6994  06F4  00DC               	movwf	?___fladd+4
  6995  06F5  20B6               	fcall	___fladd
  6996  06F6  085B               	movf	?___fladd+3,w
  6997  06F7  00EA               	movwf	?___flsub+3
  6998  06F8  085A               	movf	?___fladd+2,w
  6999  06F9  00E9               	movwf	?___flsub+2
  7000  06FA  0859               	movf	?___fladd+1,w
  7001  06FB  00E8               	movwf	?___flsub+1
  7002  06FC  0858               	movf	?___fladd,w
  7003  06FD  00E7               	movwf	?___flsub
  7004  06FE  0008               	return
  7005  06FF                     __end_of___flsub:	
  7006  06FF                     __ptext1154:	
  7007 ;; =============== function _print_reading ends ============
  7008                           
  7009                           
  7010 ;; *************** function _print_unit *****************
  7011 ;; Defined at:
  7012 ;;		line 408 in file "../../../src/print.c"
  7013 ;; Parameters:    Size  Location     Type
  7014 ;;  unit            1    wreg     unsigned char 
  7015 ;; Auto vars:     Size  Location     Type
  7016 ;;		None
  7017 ;; Return value:  Size  Location     Type
  7018 ;;		None               void
  7019 ;; Registers used:
  7020 ;;		wreg
  7021 ;; Tracked objects:
  7022 ;;		On entry : 20/160
  7023 ;;		On exit  : 20/160
  7024 ;;		Unchanged: FFFFFFDF/0
  7025 ;; Data sizes:     COMMON   BANK0   BANK1   BANK3   BANK2
  7026 ;;      Params:         0       0       0       0       0
  7027 ;;      Locals:         0       0       0       0       0
  7028 ;;      Temps:          0       0       0       0       0
  7029 ;;      Totals:         0       0       0       0       0
  7030 ;;Total ram usage:        0 bytes
  7031 ;; Hardware stack levels used:    1
  7032 ;; Hardware stack levels required when called:    1
  7033 ;; This function calls:
  7034 ;;		Nothing
  7035 ;; This function is called by:
  7036 ;;		_measure_capacitance
  7037 ;;		_measure_inductance
  7038 ;; This function uses a non-reentrant model
  7039 ;;
  7040  06FF                     _print_unit:	
  7041  06FF                     l630:	
  7042                           ; Regs used in _print_unit: [wreg]
  7043                           
  7044  06FF  0008               	return
  7045  0700                     __end_of_print_unit:	
  7046                           
  7047                           	psect	text1125
  7048  103C                     __ptext1125:	
  7049 ;; =============== function _eval_poly ends ============
  7050                           
  7051                           
  7052 ;; *************** function _calibrate *****************
  7053 ;; Defined at:
  7054 ;;		line 346 in file "../../../src/LC-meter.c"
  7055 ;; Parameters:    Size  Location     Type
  7056 ;;		None
  7057 ;; Auto vars:     Size  Location     Type
  7058 ;;  i               1    0        unsigned char 
  7059 ;; Return value:  Size  Location     Type
  7060 ;;		None               void
  7061 ;; Registers used:
  7062 ;;		wreg, fsr0l, fsr0h, status,2, status,0, btemp+1, pclath, cstack
  7063 ;; Tracked objects:
  7064 ;;		On entry : 60/0
  7065 ;;		On exit  : 0/0
  7066 ;;		Unchanged: 0/0
  7067 ;; Data sizes:     COMMON   BANK0   BANK1   BANK3   BANK2
  7068 ;;      Params:         0       0       0       0       0
  7069 ;;      Locals:         0       0       0       0       0
  7070 ;;      Temps:          0       0       0       0       0
  7071 ;;      Totals:         0       0       0       0       0
  7072 ;;Total ram usage:        0 bytes
  7073 ;; Hardware stack levels used:    1
  7074 ;; Hardware stack levels required when called:    3
  7075 ;; This function calls:
  7076 ;;		_measure_freq
  7077 ;;		___lwtofl
  7078 ;;		_delay10ms
  7079 ;;		_ser_puts
  7080 ;; This function is called by:
  7081 ;;		_main
  7082 ;; This function uses a non-reentrant model
  7083 ;;
  7084  103C                     _calibrate:	
  7085                           
  7086                           ;LC-meter.c: 347: uint8_t i;
  7087                           ;LC-meter.c: 360: RC5 = 0;
  7088                           
  7089                           ; Regs used in _calibrate: [wreg-fsr0h+status,2+status,0+btemp+1+pclath+cstack]
  7090  103C  1287               	bcf	7,5
  7091                           
  7092                           ;LC-meter.c: 362: F1 = (double)measure_freq();
  7093  103D  20D5  160A  118A   	fcall	_measure_freq
  7094  1040  0875               	movf	?_measure_freq+1,w
  7095  1041  00A9               	movwf	?___lwtofl+1
  7096  1042  0874               	movf	?_measure_freq,w
  7097  1043  00A8               	movwf	?___lwtofl
  7098  1044  2130  160A  118A   	fcall	___lwtofl
  7099  1047  082B               	movf	?___lwtofl+3,w
  7100  1048  1683               	bsf	3,5	;RP0=1, select bank3
  7101  1049  1703               	bsf	3,6	;RP1=1, select bank3
  7102  104A  00C3               	movwf	(_F1+3)^(0+384)
  7103  104B  1283               	bcf	3,5	;RP0=0, select bank0
  7104  104C  1303               	bcf	3,6	;RP1=0, select bank0
  7105  104D  082A               	movf	?___lwtofl+2,w
  7106  104E  1683               	bsf	3,5	;RP0=1, select bank3
  7107  104F  1703               	bsf	3,6	;RP1=1, select bank3
  7108  1050  00C2               	movwf	(_F1+2)^(0+384)
  7109  1051  1283               	bcf	3,5	;RP0=0, select bank0
  7110  1052  1303               	bcf	3,6	;RP1=0, select bank0
  7111  1053  0829               	movf	?___lwtofl+1,w
  7112  1054  1683               	bsf	3,5	;RP0=1, select bank3
  7113  1055  1703               	bsf	3,6	;RP1=1, select bank3
  7114  1056  00C1               	movwf	(_F1+1)^(0+384)
  7115  1057  1283               	bcf	3,5	;RP0=0, select bank0
  7116  1058  1303               	bcf	3,6	;RP1=0, select bank0
  7117  1059  0828               	movf	?___lwtofl,w
  7118  105A  1683               	bsf	3,5	;RP0=1, select bank3
  7119  105B  1703               	bsf	3,6	;RP1=1, select bank3
  7120  105C  00C0               	movwf	_F1^(0+384)
  7121                           
  7122                           ;LC-meter.c: 363: delay10ms(50);
  7123  105D  3032               	movlw	50
  7124  105E  1283               	bcf	3,5	;RP0=0, select bank0
  7125  105F  1303               	bcf	3,6	;RP1=0, select bank0
  7126  1060  00A2               	movwf	?_delay10ms
  7127  1061  01A3               	clrf	?_delay10ms+1
  7128  1062  2145  160A  118A   	fcall	_delay10ms
  7129                           
  7130                           ;LC-meter.c: 365: F1 = (double)measure_freq();
  7131  1065  20D5  160A  118A   	fcall	_measure_freq
  7132  1068  0875               	movf	?_measure_freq+1,w
  7133  1069  00A9               	movwf	?___lwtofl+1
  7134  106A  0874               	movf	?_measure_freq,w
  7135  106B  00A8               	movwf	?___lwtofl
  7136  106C  2130  160A  118A   	fcall	___lwtofl
  7137  106F  082B               	movf	?___lwtofl+3,w
  7138  1070  1683               	bsf	3,5	;RP0=1, select bank3
  7139  1071  1703               	bsf	3,6	;RP1=1, select bank3
  7140  1072  00C3               	movwf	(_F1+3)^(0+384)
  7141  1073  1283               	bcf	3,5	;RP0=0, select bank0
  7142  1074  1303               	bcf	3,6	;RP1=0, select bank0
  7143  1075  082A               	movf	?___lwtofl+2,w
  7144  1076  1683               	bsf	3,5	;RP0=1, select bank3
  7145  1077  1703               	bsf	3,6	;RP1=1, select bank3
  7146  1078  00C2               	movwf	(_F1+2)^(0+384)
  7147  1079  1283               	bcf	3,5	;RP0=0, select bank0
  7148  107A  1303               	bcf	3,6	;RP1=0, select bank0
  7149  107B  0829               	movf	?___lwtofl+1,w
  7150  107C  1683               	bsf	3,5	;RP0=1, select bank3
  7151  107D  1703               	bsf	3,6	;RP1=1, select bank3
  7152  107E  00C1               	movwf	(_F1+1)^(0+384)
  7153  107F  1283               	bcf	3,5	;RP0=0, select bank0
  7154  1080  1303               	bcf	3,6	;RP1=0, select bank0
  7155  1081  0828               	movf	?___lwtofl,w
  7156  1082  1683               	bsf	3,5	;RP0=1, select bank3
  7157  1083  1703               	bsf	3,6	;RP1=1, select bank3
  7158  1084  00C0               	movwf	_F1^(0+384)
  7159                           
  7160                           ;LC-meter.c: 366: RC5 = 1;
  7161  1085  1283               	bcf	3,5	;RP0=0, select bank0
  7162  1086  1303               	bcf	3,6	;RP1=0, select bank0
  7163  1087  1687               	bsf	7,5
  7164                           
  7165                           ;LC-meter.c: 368: F2 = (double)measure_freq();
  7166  1088  20D5  160A  118A   	fcall	_measure_freq
  7167  108B  0875               	movf	?_measure_freq+1,w
  7168  108C  00A9               	movwf	?___lwtofl+1
  7169  108D  0874               	movf	?_measure_freq,w
  7170  108E  00A8               	movwf	?___lwtofl
  7171  108F  2130  160A  118A   	fcall	___lwtofl
  7172  1092  082B               	movf	?___lwtofl+3,w
  7173  1093  1683               	bsf	3,5	;RP0=1, select bank3
  7174  1094  1703               	bsf	3,6	;RP1=1, select bank3
  7175  1095  00B3               	movwf	(_F2+3)^(0+384)
  7176  1096  1283               	bcf	3,5	;RP0=0, select bank0
  7177  1097  1303               	bcf	3,6	;RP1=0, select bank0
  7178  1098  082A               	movf	?___lwtofl+2,w
  7179  1099  1683               	bsf	3,5	;RP0=1, select bank3
  7180  109A  1703               	bsf	3,6	;RP1=1, select bank3
  7181  109B  00B2               	movwf	(_F2+2)^(0+384)
  7182  109C  1283               	bcf	3,5	;RP0=0, select bank0
  7183  109D  1303               	bcf	3,6	;RP1=0, select bank0
  7184  109E  0829               	movf	?___lwtofl+1,w
  7185  109F  1683               	bsf	3,5	;RP0=1, select bank3
  7186  10A0  1703               	bsf	3,6	;RP1=1, select bank3
  7187  10A1  00B1               	movwf	(_F2+1)^(0+384)
  7188  10A2  1283               	bcf	3,5	;RP0=0, select bank0
  7189  10A3  1303               	bcf	3,6	;RP1=0, select bank0
  7190  10A4  0828               	movf	?___lwtofl,w
  7191  10A5  1683               	bsf	3,5	;RP0=1, select bank3
  7192  10A6  1703               	bsf	3,6	;RP1=1, select bank3
  7193  10A7  00B0               	movwf	_F2^(0+384)
  7194                           
  7195                           ;LC-meter.c: 369: delay10ms(50);
  7196  10A8  3032               	movlw	50
  7197  10A9  1283               	bcf	3,5	;RP0=0, select bank0
  7198  10AA  1303               	bcf	3,6	;RP1=0, select bank0
  7199  10AB  00A2               	movwf	?_delay10ms
  7200  10AC  01A3               	clrf	?_delay10ms+1
  7201  10AD  2145  160A  118A   	fcall	_delay10ms
  7202                           
  7203                           ;LC-meter.c: 371: F2 = (double)measure_freq();
  7204  10B0  20D5  160A  118A   	fcall	_measure_freq
  7205  10B3  0875               	movf	?_measure_freq+1,w
  7206  10B4  00A9               	movwf	?___lwtofl+1
  7207  10B5  0874               	movf	?_measure_freq,w
  7208  10B6  00A8               	movwf	?___lwtofl
  7209  10B7  2130               	fcall	___lwtofl
  7210  10B8  082B               	movf	?___lwtofl+3,w
  7211  10B9  1683               	bsf	3,5	;RP0=1, select bank3
  7212  10BA  1703               	bsf	3,6	;RP1=1, select bank3
  7213  10BB  00B3               	movwf	(_F2+3)^(0+384)
  7214  10BC  1283               	bcf	3,5	;RP0=0, select bank0
  7215  10BD  1303               	bcf	3,6	;RP1=0, select bank0
  7216  10BE  082A               	movf	?___lwtofl+2,w
  7217  10BF  1683               	bsf	3,5	;RP0=1, select bank3
  7218  10C0  1703               	bsf	3,6	;RP1=1, select bank3
  7219  10C1  00B2               	movwf	(_F2+2)^(0+384)
  7220  10C2  1283               	bcf	3,5	;RP0=0, select bank0
  7221  10C3  1303               	bcf	3,6	;RP1=0, select bank0
  7222  10C4  0829               	movf	?___lwtofl+1,w
  7223  10C5  1683               	bsf	3,5	;RP0=1, select bank3
  7224  10C6  1703               	bsf	3,6	;RP1=1, select bank3
  7225  10C7  00B1               	movwf	(_F2+1)^(0+384)
  7226  10C8  1283               	bcf	3,5	;RP0=0, select bank0
  7227  10C9  1303               	bcf	3,6	;RP1=0, select bank0
  7228  10CA  0828               	movf	?___lwtofl,w
  7229  10CB  1683               	bsf	3,5	;RP0=1, select bank3
  7230  10CC  1703               	bsf	3,6	;RP1=1, select bank3
  7231  10CD  00B0               	movwf	_F2^(0+384)
  7232                           
  7233                           ;LC-meter.c: 372: RC5 = 0;
  7234  10CE  1283               	bcf	3,5	;RP0=0, select bank0
  7235  10CF  1303               	bcf	3,6	;RP1=0, select bank0
  7236  10D0  3058               	movlw	((STR_1+3)-__stringbase)& (0+255)
  7237  10D1  1287               	bcf	7,5
  7238                           
  7239                           ;LC-meter.c: 384: ser_puts("\r\n");
  7240  10D2  120A  158A  2DB3   	ljmp	_ser_puts
  7241  10D5                     __end_of_calibrate:	
  7242  10D5                     __ptext1136:	
  7243 ;; =============== function _ldexp ends ============
  7244                           
  7245                           
  7246 ;; *************** function _measure_freq *****************
  7247 ;; Defined at:
  7248 ;;		line 299 in file "../../../src/LC-meter.c"
  7249 ;; Parameters:    Size  Location     Type
  7250 ;;		None
  7251 ;; Auto vars:     Size  Location     Type
  7252 ;;  i               1    5[BANK0 ] unsigned char 
  7253 ;;  count           2    6[BANK0 ] unsigned int 
  7254 ;;  prev            1    4[BANK0 ] unsigned char 
  7255 ;; Return value:  Size  Location     Type
  7256 ;;                  2    3[COMMON] unsigned int 
  7257 ;; Registers used:
  7258 ;;		wreg, status,2, status,0, btemp+1
  7259 ;; Tracked objects:
  7260 ;;		On entry : 60/0
  7261 ;;		On exit  : 60/0
  7262 ;;		Unchanged: 0/0
  7263 ;; Data sizes:     COMMON   BANK0   BANK1   BANK3   BANK2
  7264 ;;      Params:         2       0       0       0       0
  7265 ;;      Locals:         0       4       0       0       0
  7266 ;;      Temps:          0       4       0       0       0
  7267 ;;      Totals:         2       8       0       0       0
  7268 ;;Total ram usage:       10 bytes
  7269 ;; Hardware stack levels used:    1
  7270 ;; Hardware stack levels required when called:    1
  7271 ;; This function calls:
  7272 ;;		Nothing
  7273 ;; This function is called by:
  7274 ;;		_calibrate
  7275 ;;		_measure_capacitance
  7276 ;;		_measure_inductance
  7277 ;; This function uses a non-reentrant model
  7278 ;;
  7279  10D5                     _measure_freq:	
  7280                           
  7281                           ;LC-meter.c: 300: uint8_t prev;
  7282                           ;LC-meter.c: 301: uint16_t count;
  7283                           ;LC-meter.c: 303: TMR0IF = 0;
  7284                           
  7285                           ; Regs used in _measure_freq: [wreg+status,2+status,0+btemp+1]
  7286  10D5  110B               	bcf	11,2
  7287                           
  7288                           ;LC-meter.c: 305: TRISA &= ~0b00010000;
  7289  10D6  1683               	bsf	3,5	;RP0=1, select bank1
  7290  10D7  1205               	bcf	5,4	;volatile
  7291                           
  7292                           ;LC-meter.c: 308: _delay((unsigned long)((20)*(20000000/4000.0)));
  7293  10D8  3082               	movlw	130
  7294  10D9  1283               	bcf	3,5	;RP0=0, select bank0
  7295  10DA  00A1               	movwf	??_measure_freq+1
  7296  10DB  30DD               	movlw	221
  7297  10DC  00A0               	movwf	??_measure_freq
  7298  10DD                     u3517:	
  7299  10DD  0BA0               	decfsz	??_measure_freq,f
  7300  10DE  28DD               	goto	u3517
  7301  10DF  0BA1               	decfsz	??_measure_freq+1,f
  7302  10E0  28DD               	goto	u3517
  7303  10E1  28E2               	nop2
  7304                           
  7305                           ;LC-meter.c: 310: TMR0 = 0x00;
  7306  10E2  1283               	bcf	3,5	;RP0=0, select bank0
  7307  10E3  1303               	bcf	3,6	;RP1=0, select bank0
  7308  10E4  0181               	clrf	1	;volatile
  7309                           
  7310                           ;LC-meter.c: 312: for(char i = 0; i < 10; i++) _delay((unsigned long)((10)*(20000000/400
      +                          0.0)));
  7311  10E5  01A5               	clrf	measure_freq@i
  7312  10E6                     l8319:	
  7313  10E6  3041               	movlw	65
  7314  10E7  00A1               	movwf	??_measure_freq+1
  7315  10E8  30EE               	movlw	238
  7316  10E9  00A0               	movwf	??_measure_freq
  7317  10EA                     u3527:	
  7318  10EA  0BA0               	decfsz	??_measure_freq,f
  7319  10EB  28EA               	goto	u3527
  7320  10EC  0BA1               	decfsz	??_measure_freq+1,f
  7321  10ED  28EA               	goto	u3527
  7322  10EE  0064               	clrwdt
  7323  10EF  1283               	bcf	3,5	;RP0=0, select bank0
  7324  10F0  1303               	bcf	3,6	;RP1=0, select bank0
  7325  10F1  300A               	movlw	10
  7326  10F2  0AA5               	incf	measure_freq@i,f
  7327  10F3  0225               	subwf	measure_freq@i,w
  7328  10F4  1C03               	skipc
  7329  10F5  28E6               	goto	l8319
  7330                           
  7331                           ;LC-meter.c: 314: TRISA |= 0b00010000;
  7332  10F6  1683               	bsf	3,5	;RP0=1, select bank1
  7333  10F7  1605               	bsf	5,4	;volatile
  7334                           
  7335                           ;LC-meter.c: 316: prev = TMR0;
  7336  10F8  1283               	bcf	3,5	;RP0=0, select bank0
  7337  10F9  0801               	movf	1,w	;volatile
  7338  10FA  00A4               	movwf	measure_freq@prev
  7339                           
  7340                           ;LC-meter.c: 317: count = 0;
  7341  10FB  01A6               	clrf	measure_freq@count
  7342  10FC  01A7               	clrf	measure_freq@count+1
  7343  10FD  2905               	goto	l8329
  7344  10FE                     l8345:	
  7345  10FE  3001               	movlw	1
  7346  10FF  0227               	subwf	measure_freq@count+1,w
  7347  1100  3000               	movlw	0
  7348  1101  1903               	skipnz
  7349  1102  0226               	subwf	measure_freq@count,w
  7350  1103  1803               	btfsc	3,0
  7351  1104  2917               	goto	l8347
  7352  1105                     l8329:	
  7353                           
  7354                           ;LC-meter.c: 321: T0SE = 1;
  7355  1105  1683               	bsf	3,5	;RP0=1, select bank1
  7356  1106  1601               	bsf	1,4
  7357                           
  7358                           ;LC-meter.c: 322: _nop();
  7359  1107  0000               	nop
  7360                           
  7361                           ;LC-meter.c: 323: _nop();
  7362  1108  0000               	nop
  7363                           
  7364                           ;LC-meter.c: 325: T0SE = 0;
  7365  1109  1683               	bsf	3,5	;RP0=1, select bank1
  7366  110A  1303               	bcf	3,6	;RP1=0, select bank1
  7367  110B  1201               	bcf	1,4
  7368                           
  7369                           ;LC-meter.c: 326: _nop();
  7370  110C  0000               	nop
  7371                           
  7372                           ;LC-meter.c: 327: _nop();
  7373  110D  0000               	nop
  7374                           
  7375                           ;LC-meter.c: 328: count++;
  7376  110E  1283               	bcf	3,5	;RP0=0, select bank0
  7377  110F  1303               	bcf	3,6	;RP1=0, select bank0
  7378  1110  0AA6               	incf	measure_freq@count,f
  7379  1111  1903               	skipnz
  7380  1112  0AA7               	incf	measure_freq@count+1,f
  7381                           
  7382                           ;LC-meter.c: 329: } while(prev == TMR0 && count <= 255);
  7383  1113  0824               	movf	measure_freq@prev,w
  7384  1114  0601               	xorwf	1,w	;volatile
  7385  1115  1903               	btfsc	3,2
  7386  1116  28FE               	goto	l8345
  7387  1117                     l8347:	
  7388                           
  7389                           ;LC-meter.c: 332: count = ((prev << 8) + (256 - count));
  7390  1117  0824               	movf	measure_freq@prev,w
  7391  1118  00A0               	movwf	??_measure_freq
  7392  1119  01A1               	clrf	??_measure_freq+1
  7393  111A  00A1               	movwf	??_measure_freq+1
  7394  111B  01A0               	clrf	??_measure_freq
  7395  111C  0826               	movf	measure_freq@count,w
  7396  111D  0220               	subwf	??_measure_freq,w
  7397  111E  00A2               	movwf	??_measure_freq+2
  7398  111F  0827               	movf	measure_freq@count+1,w
  7399  1120  1C03               	skipc
  7400  1121  0A27               	incf	measure_freq@count+1,w
  7401  1122  0221               	subwf	??_measure_freq+1,w
  7402  1123  00A3               	movwf	??_measure_freq+3
  7403  1124  0822               	movf	??_measure_freq+2,w
  7404  1125  3E00               	addlw	0
  7405  1126  00A6               	movwf	measure_freq@count
  7406  1127  0823               	movf	??_measure_freq+3,w
  7407  1128  1803               	skipnc
  7408  1129  3E01               	addlw	1
  7409  112A  3E01               	addlw	1
  7410  112B  00A7               	movwf	measure_freq@count+1
  7411                           
  7412                           ;LC-meter.c: 339: return count;
  7413  112C  00F5               	movwf	?_measure_freq+1
  7414  112D  0826               	movf	measure_freq@count,w
  7415  112E  00F4               	movwf	?_measure_freq
  7416  112F  0008               	return
  7417  1130                     __end_of_measure_freq:	
  7418  1130                     __ptext1130:	
  7419 ;; =============== function ___altofl ends ============
  7420                           
  7421                           
  7422 ;; *************** function ___lwtofl *****************
  7423 ;; Defined at:
  7424 ;;		line 29 in file "C:\Program Files (x86)\HI-TECH Software\PICC\9.83\sources\lwtofl.c"
  7425 ;; Parameters:    Size  Location     Type
  7426 ;;  c               2    8[BANK0 ] unsigned int 
  7427 ;; Auto vars:     Size  Location     Type
  7428 ;;		None
  7429 ;; Return value:  Size  Location     Type
  7430 ;;                  4    8[BANK0 ] unsigned int 
  7431 ;; Registers used:
  7432 ;;		wreg, status,2, status,0, pclath, cstack
  7433 ;; Tracked objects:
  7434 ;;		On entry : 60/0
  7435 ;;		On exit  : 60/0
  7436 ;;		Unchanged: FFF9F/0
  7437 ;; Data sizes:     COMMON   BANK0   BANK1   BANK3   BANK2
  7438 ;;      Params:         0       4       0       0       0
  7439 ;;      Locals:         0       0       0       0       0
  7440 ;;      Temps:          0       0       0       0       0
  7441 ;;      Totals:         0       4       0       0       0
  7442 ;;Total ram usage:        4 bytes
  7443 ;; Hardware stack levels used:    1
  7444 ;; Hardware stack levels required when called:    2
  7445 ;; This function calls:
  7446 ;;		___flpack
  7447 ;; This function is called by:
  7448 ;;		_calibrate
  7449 ;;		_measure_capacitance
  7450 ;;		_measure_inductance
  7451 ;; This function uses a non-reentrant model
  7452 ;;
  7453  1130                     ___lwtofl:	
  7454                           
  7455                           ; Regs used in ___lwtofl: [wreg+status,2+status,0+pclath+cstack]
  7456  1130  0828               	movf	___lwtofl@c,w
  7457  1131  00A0               	movwf	?___flpack
  7458  1132  0829               	movf	___lwtofl@c+1,w
  7459  1133  00A1               	movwf	?___flpack+1
  7460  1134  3096               	movlw	150
  7461  1135  01A2               	clrf	?___flpack+2
  7462  1136  01A3               	clrf	?___flpack+3
  7463  1137  00A4               	movwf	?___flpack+4
  7464  1138  01A5               	clrf	?___flpack+5
  7465  1139  160A  118A  27B5   	fcall	___flpack
  7466  113C  0823               	movf	?___flpack+3,w
  7467  113D  00AB               	movwf	?___lwtofl+3
  7468  113E  0822               	movf	?___flpack+2,w
  7469  113F  00AA               	movwf	?___lwtofl+2
  7470  1140  0821               	movf	?___flpack+1,w
  7471  1141  00A9               	movwf	?___lwtofl+1
  7472  1142  0820               	movf	?___flpack,w
  7473  1143  00A8               	movwf	?___lwtofl
  7474  1144  0008               	return
  7475  1145                     __end_of___lwtofl:	
  7476  1145                     __ptext1137:	
  7477 ;; =============== function _measure_freq ends ============
  7478                           
  7479                           
  7480 ;; *************** function _delay10ms *****************
  7481 ;; Defined at:
  7482 ;;		line 532 in file "../../../src/LC-meter.c"
  7483 ;; Parameters:    Size  Location     Type
  7484 ;;  period_10ms     2    2[BANK0 ] unsigned int 
  7485 ;; Auto vars:     Size  Location     Type
  7486 ;;  ms              4    8[BANK0 ] unsigned long 
  7487 ;;  run             1   12[BANK0 ] unsigned char 
  7488 ;; Return value:  Size  Location     Type
  7489 ;;		None               void
  7490 ;; Registers used:
  7491 ;;		wreg, status,2, status,0, pclath, cstack
  7492 ;; Tracked objects:
  7493 ;;		On entry : 60/0
  7494 ;;		On exit  : 60/0
  7495 ;;		Unchanged: FFF9F/0
  7496 ;; Data sizes:     COMMON   BANK0   BANK1   BANK3   BANK2
  7497 ;;      Params:         0       2       0       0       0
  7498 ;;      Locals:         0       5       0       0       0
  7499 ;;      Temps:          0       4       0       0       0
  7500 ;;      Totals:         0      11       0       0       0
  7501 ;;Total ram usage:       11 bytes
  7502 ;; Hardware stack levels used:    1
  7503 ;; Hardware stack levels required when called:    2
  7504 ;; This function calls:
  7505 ;;		___wmul
  7506 ;; This function is called by:
  7507 ;;		_main
  7508 ;;		_calibrate
  7509 ;; This function uses a non-reentrant model
  7510 ;;
  7511  1145                     _delay10ms:	
  7512                           
  7513                           ;LC-meter.c: 536: uint32_t ms;
  7514                           ;LC-meter.c: 537: BOOL run = 1;
  7515                           
  7516                           ; Regs used in _delay10ms: [wreg+status,2+status,0+pclath+cstack]
  7517  1145  01AC               	clrf	delay10ms@run
  7518  1146  0AAC               	incf	delay10ms@run,f
  7519                           
  7520                           ;LC-meter.c: 539: GIE = 0, ms = msecs, GIE = 1;
  7521  1147  138B               	bcf	11,7
  7522  1148  1683               	bsf	3,5	;RP0=1, select bank3
  7523  1149  1703               	bsf	3,6	;RP1=1, select bank3
  7524  114A  083B               	movf	(_msecs+3)^(0+384),w	;volatile
  7525  114B  1283               	bcf	3,5	;RP0=0, select bank0
  7526  114C  1303               	bcf	3,6	;RP1=0, select bank0
  7527  114D  00AB               	movwf	delay10ms@ms+3
  7528  114E  1683               	bsf	3,5	;RP0=1, select bank3
  7529  114F  1703               	bsf	3,6	;RP1=1, select bank3
  7530  1150  083A               	movf	(_msecs+2)^(0+384),w	;volatile
  7531  1151  1283               	bcf	3,5	;RP0=0, select bank0
  7532  1152  1303               	bcf	3,6	;RP1=0, select bank0
  7533  1153  00AA               	movwf	delay10ms@ms+2
  7534  1154  1683               	bsf	3,5	;RP0=1, select bank3
  7535  1155  1703               	bsf	3,6	;RP1=1, select bank3
  7536  1156  0839               	movf	(_msecs+1)^(0+384),w	;volatile
  7537  1157  1283               	bcf	3,5	;RP0=0, select bank0
  7538  1158  1303               	bcf	3,6	;RP1=0, select bank0
  7539  1159  00A9               	movwf	delay10ms@ms+1
  7540  115A  1683               	bsf	3,5	;RP0=1, select bank3
  7541  115B  1703               	bsf	3,6	;RP1=1, select bank3
  7542  115C  0838               	movf	_msecs^(0+384),w	;volatile
  7543  115D  1283               	bcf	3,5	;RP0=0, select bank0
  7544  115E  1303               	bcf	3,6	;RP1=0, select bank0
  7545  115F  00A8               	movwf	delay10ms@ms
  7546  1160  178B               	bsf	11,7
  7547                           
  7548                           ;LC-meter.c: 544: ms += period_10ms * 10;
  7549  1161  0823               	movf	delay10ms@period_10ms+1,w
  7550  1162  00F5               	movwf	?___wmul+1
  7551  1163  0822               	movf	delay10ms@period_10ms,w
  7552  1164  00F4               	movwf	?___wmul
  7553  1165  300A               	movlw	10
  7554  1166  00F6               	movwf	?___wmul+2
  7555  1167  01F7               	clrf	?___wmul+3
  7556  1168  21AE  160A  118A   	fcall	___wmul
  7557  116B  0874               	movf	?___wmul,w
  7558  116C  00A4               	movwf	??_delay10ms
  7559  116D  0875               	movf	?___wmul+1,w
  7560  116E  00A5               	movwf	??_delay10ms+1
  7561  116F  01A6               	clrf	??_delay10ms+2
  7562  1170  01A7               	clrf	??_delay10ms+3
  7563  1171  0824               	movf	??_delay10ms,w
  7564  1172  07A8               	addwf	delay10ms@ms,f
  7565  1173  0825               	movf	??_delay10ms+1,w
  7566  1174  1103               	clrz
  7567  1175  1803               	skipnc
  7568  1176  3E01               	addlw	1
  7569  1177  1D03               	btfss	3,2
  7570  1178  07A9               	addwf	delay10ms@ms+1,f
  7571  1179  0826               	movf	??_delay10ms+2,w
  7572  117A  1103               	clrz
  7573  117B  1803               	skipnc
  7574  117C  3E01               	addlw	1
  7575  117D  1D03               	btfss	3,2
  7576  117E  07AA               	addwf	delay10ms@ms+2,f
  7577  117F  0827               	movf	??_delay10ms+3,w
  7578  1180  1103               	clrz
  7579  1181  1803               	skipnc
  7580  1182  3E01               	addlw	1
  7581  1183  1D03               	btfss	3,2
  7582  1184  07AB               	addwf	delay10ms@ms+3,f
  7583  1185                     l8299:	
  7584                           
  7585                           ;LC-meter.c: 548: GIE = 0;
  7586  1185  138B               	bcf	11,7
  7587                           
  7588                           ;LC-meter.c: 549: if(ms <= msecs)
  7589  1186  082B               	movf	delay10ms@ms+3,w
  7590  1187  1683               	bsf	3,5	;RP0=1, select bank3
  7591  1188  1703               	bsf	3,6	;RP1=1, select bank3
  7592  1189  023B               	subwf	(_msecs+3)^(0+384),w	;volatile
  7593  118A  1D03               	skipz
  7594  118B  29A2               	goto	u2785
  7595  118C  1283               	bcf	3,5	;RP0=0, select bank0
  7596  118D  1303               	bcf	3,6	;RP1=0, select bank0
  7597  118E  082A               	movf	delay10ms@ms+2,w
  7598  118F  1683               	bsf	3,5	;RP0=1, select bank3
  7599  1190  1703               	bsf	3,6	;RP1=1, select bank3
  7600  1191  023A               	subwf	(_msecs+2)^(0+384),w	;volatile
  7601  1192  1D03               	skipz
  7602  1193  29A2               	goto	u2785
  7603  1194  1283               	bcf	3,5	;RP0=0, select bank0
  7604  1195  1303               	bcf	3,6	;RP1=0, select bank0
  7605  1196  0829               	movf	delay10ms@ms+1,w
  7606  1197  1683               	bsf	3,5	;RP0=1, select bank3
  7607  1198  1703               	bsf	3,6	;RP1=1, select bank3
  7608  1199  0239               	subwf	(_msecs+1)^(0+384),w	;volatile
  7609  119A  1D03               	skipz
  7610  119B  29A2               	goto	u2785
  7611  119C  1283               	bcf	3,5	;RP0=0, select bank0
  7612  119D  1303               	bcf	3,6	;RP1=0, select bank0
  7613  119E  0828               	movf	delay10ms@ms,w
  7614  119F  1683               	bsf	3,5	;RP0=1, select bank3
  7615  11A0  1703               	bsf	3,6	;RP1=1, select bank3
  7616  11A1  0238               	subwf	_msecs^(0+384),w	;volatile
  7617  11A2                     u2785:	
  7618  11A2  1C03               	skipc
  7619  11A3  29A7               	goto	l8305
  7620                           
  7621                           ;LC-meter.c: 550: run = 0;
  7622  11A4  1283               	bcf	3,5	;RP0=0, select bank0
  7623  11A5  1303               	bcf	3,6	;RP1=0, select bank0
  7624  11A6  01AC               	clrf	delay10ms@run
  7625  11A7                     l8305:	
  7626                           
  7627                           ;LC-meter.c: 551: GIE = 1;
  7628  11A7  178B               	bsf	11,7
  7629                           
  7630                           ;LC-meter.c: 552: } while(run);
  7631  11A8  1283               	bcf	3,5	;RP0=0, select bank0
  7632  11A9  1303               	bcf	3,6	;RP1=0, select bank0
  7633  11AA  08AC               	movf	delay10ms@run,f
  7634  11AB  1903               	btfsc	3,2
  7635  11AC  0008               	return
  7636  11AD  2985               	goto	l8299
  7637  11AE                     __end_of_delay10ms:	
  7638  11AE                     __ptext1148:	
  7639 ;; =============== function ___lwdiv ends ============
  7640                           
  7641                           
  7642 ;; *************** function ___wmul *****************
  7643 ;; Defined at:
  7644 ;;		line 3 in file "C:\Program Files (x86)\HI-TECH Software\PICC\9.83\sources\wmul.c"
  7645 ;; Parameters:    Size  Location     Type
  7646 ;;  multiplier      2    3[COMMON] unsigned int 
  7647 ;;  multiplicand    2    5[COMMON] unsigned int 
  7648 ;; Auto vars:     Size  Location     Type
  7649 ;;  product         2    0[BANK0 ] unsigned int 
  7650 ;; Return value:  Size  Location     Type
  7651 ;;                  2    3[COMMON] unsigned int 
  7652 ;; Registers used:
  7653 ;;		wreg, status,2, status,0
  7654 ;; Tracked objects:
  7655 ;;		On entry : 60/0
  7656 ;;		On exit  : 60/0
  7657 ;;		Unchanged: FFF9F/0
  7658 ;; Data sizes:     COMMON   BANK0   BANK1   BANK3   BANK2
  7659 ;;      Params:         4       0       0       0       0
  7660 ;;      Locals:         0       2       0       0       0
  7661 ;;      Temps:          0       0       0       0       0
  7662 ;;      Totals:         4       2       0       0       0
  7663 ;;Total ram usage:        6 bytes
  7664 ;; Hardware stack levels used:    1
  7665 ;; Hardware stack levels required when called:    1
  7666 ;; This function calls:
  7667 ;;		Nothing
  7668 ;; This function is called by:
  7669 ;;		_delay10ms
  7670 ;; This function uses a non-reentrant model
  7671 ;;
  7672  11AE                     ___wmul:	
  7673                           
  7674                           ; Regs used in ___wmul: [wreg+status,2+status,0]
  7675  11AE  01A0               	clrf	___wmul@product
  7676  11AF  01A1               	clrf	___wmul@product+1
  7677  11B0                     l8205:	
  7678  11B0  1C74               	btfss	___wmul@multiplier,0
  7679  11B1  29B8               	goto	l8209
  7680  11B2  0876               	movf	___wmul@multiplicand,w
  7681  11B3  07A0               	addwf	___wmul@product,f
  7682  11B4  1803               	skipnc
  7683  11B5  0AA1               	incf	___wmul@product+1,f
  7684  11B6  0877               	movf	___wmul@multiplicand+1,w
  7685  11B7  07A1               	addwf	___wmul@product+1,f
  7686  11B8                     l8209:	
  7687  11B8  1003               	clrc
  7688  11B9  0DF6               	rlf	___wmul@multiplicand,f
  7689  11BA  0DF7               	rlf	___wmul@multiplicand+1,f
  7690  11BB  1003               	clrc
  7691  11BC  0CF5               	rrf	___wmul@multiplier+1,f
  7692  11BD  0CF4               	rrf	___wmul@multiplier,f
  7693  11BE  0875               	movf	___wmul@multiplier+1,w
  7694  11BF  0474               	iorwf	___wmul@multiplier,w
  7695  11C0  1D03               	skipz
  7696  11C1  29B0               	goto	l8205
  7697  11C2  0821               	movf	___wmul@product+1,w
  7698  11C3  00F5               	movwf	?___wmul+1
  7699  11C4  0820               	movf	___wmul@product,w
  7700  11C5  00F4               	movwf	?___wmul
  7701  11C6  0008               	return
  7702  11C7                     __end_of___wmul:	
  7703                           
  7704                           	psect	text1127
  7705  070F                     __ptext1127:	
  7706 ;; =============== function _floor ends ============
  7707                           
  7708                           
  7709 ;; *************** function _format_number *****************
  7710 ;; Defined at:
  7711 ;;		line 14 in file "../../../lib/format.c"
  7712 ;; Parameters:    Size  Location     Type
  7713 ;;  n               2    3[BANK0 ] unsigned int 
  7714 ;;  base            1    5[BANK0 ] unsigned char 
  7715 ;;  pad             1    6[BANK0 ] char 
  7716 ;; Auto vars:     Size  Location     Type
  7717 ;;  buf            32    8[BANK0 ] unsigned char [32]
  7718 ;;  i               1   44[BANK0 ] char 
  7719 ;;  di              1   43[BANK0 ] unsigned char 
  7720 ;;  padchar         1   40[BANK0 ] unsigned char 
  7721 ;; Return value:  Size  Location     Type
  7722 ;;		None               void
  7723 ;; Registers used:
  7724 ;;		wreg, fsr0l, fsr0h, status,2, status,0, pclath, cstack
  7725 ;; Tracked objects:
  7726 ;;		On entry : 60/0
  7727 ;;		On exit  : 60/0
  7728 ;;		Unchanged: FFE9F/0
  7729 ;; Data sizes:     COMMON   BANK0   BANK1   BANK3   BANK2
  7730 ;;      Params:         0       4       0       0       0
  7731 ;;      Locals:         0      37       0       0       0
  7732 ;;      Temps:          0       1       0       0       0
  7733 ;;      Totals:         0      42       0       0       0
  7734 ;;Total ram usage:       42 bytes
  7735 ;; Hardware stack levels used:    1
  7736 ;; Hardware stack levels required when called:    3
  7737 ;; This function calls:
  7738 ;;		___lwmod
  7739 ;;		___lwdiv
  7740 ;;		_output_putch
  7741 ;;		_format_putchar
  7742 ;;		_ser_putch
  7743 ;; This function is called by:
  7744 ;;		_format_xint32
  7745 ;; This function uses a non-reentrant model
  7746 ;;
  7747  070F                     _format_number:	
  7748  070F                     l8551:	
  7749                           ; Regs used in _format_number: [wreg-fsr0h+status,2+status,0+pclath+cstack]
  7750                           
  7751  070F  3020               	movlw	32
  7752                           
  7753                           ;format.c: 15: char buf[8 * sizeof(long)];
  7754                           ;format.c: 16: uint8_t di;
  7755                           ;format.c: 17: int8_t i = 0;
  7756  0710  01CC               	clrf	format_number@i
  7757                           
  7758                           ;format.c: 18: char padchar = ' ';
  7759  0711  00C8               	movwf	format_number@padchar
  7760                           
  7761                           ;format.c: 20: if(pad < 0) {
  7762  0712  1FA6               	btfss	format_number@pad,7
  7763  0713  2F18               	goto	l8561
  7764  0714  3030               	movlw	48
  7765                           
  7766                           ;format.c: 21: pad = -pad;
  7767  0715  09A6               	comf	format_number@pad,f
  7768  0716  0AA6               	incf	format_number@pad,f
  7769                           
  7770                           ;format.c: 22: padchar = '0';
  7771  0717  00C8               	movwf	format_number@padchar
  7772  0718                     l8561:	
  7773                           
  7774                           ;format.c: 34: di = n % base;
  7775  0718  0825               	movf	format_number@base,w
  7776  0719  00F4               	movwf	?___lwmod
  7777  071A  01F5               	clrf	?___lwmod+1
  7778  071B  0824               	movf	format_number@n+1,w
  7779  071C  00F7               	movwf	?___lwmod+3
  7780  071D  0823               	movf	format_number@n,w
  7781  071E  00F6               	movwf	?___lwmod+2
  7782  071F  279B  120A  118A   	fcall	___lwmod
  7783  0722  0874               	movf	?___lwmod,w
  7784  0723  00CB               	movwf	format_number@di
  7785                           
  7786                           ;format.c: 35: buf[i++] = (di < 10 ? (uint8_t)'0' + di : (uint8_t)'A' + di - 10);
  7787  0724  300A               	movlw	10
  7788  0725  024B               	subwf	format_number@di,w
  7789  0726  084B               	movf	format_number@di,w
  7790  0727  00C9               	movwf	_format_number$3434
  7791  0728  1C03               	skipc
  7792  0729  2F2C               	goto	L5
  7793  072A  3037               	movlw	55
  7794  072B  2F2D               	goto	L4
  7795  072C                     L5:	
  7796  072C  3030               	movlw	48
  7797  072D                     L4:	
  7798  072D  01CA               	clrf	_format_number$3434+1
  7799  072E  07C9               	addwf	_format_number$3434,f
  7800  072F  1803               	skipnc
  7801  0730  0ACA               	incf	_format_number$3434+1,f
  7802  0731  084C               	movf	format_number@i,w
  7803  0732  3E28               	addlw	format_number@buf& (0+255)
  7804  0733  0084               	movwf	4
  7805  0734  0849               	movf	_format_number$3434,w
  7806  0735  1383               	bcf	3,7	;select IRP bank0
  7807  0736  0080               	movwf	0
  7808  0737  0ACC               	incf	format_number@i,f
  7809                           
  7810                           ;format.c: 37: n /= base;
  7811  0738  0825               	movf	format_number@base,w
  7812  0739  00F4               	movwf	?___lwdiv
  7813  073A  01F5               	clrf	?___lwdiv+1
  7814  073B  0824               	movf	format_number@n+1,w
  7815  073C  00F7               	movwf	?___lwdiv+3
  7816  073D  0823               	movf	format_number@n,w
  7817  073E  00F6               	movwf	?___lwdiv+2
  7818  073F  2771  120A  118A   	fcall	___lwdiv
  7819  0742  0875               	movf	?___lwdiv+1,w
  7820  0743  00A4               	movwf	format_number@n+1
  7821  0744  0874               	movf	?___lwdiv,w
  7822  0745  00A3               	movwf	format_number@n
  7823                           
  7824                           ;format.c: 38: } while(n > 0);
  7825  0746  0424               	iorwf	format_number@n+1,w
  7826  0747  1903               	btfsc	3,2
  7827  0748  2F52               	goto	l8579
  7828  0749  2F18               	goto	l8561
  7829  074A                     l8577:	
  7830  074A  0848               	movf	format_number@padchar,w
  7831  074B  00F6               	movwf	?_output_putch
  7832  074C  086F               	movf	_putchar_ptr,w
  7833  074D  120A  118A  2700   	fcall	fptable
      +       120A  118A         
  7834  0752                     l8579:	
  7835  0752  1283               	bcf	3,5	;RP0=0, select bank0
  7836  0753  084C               	movf	format_number@i,w
  7837  0754  3A80               	xorlw	128
  7838  0755  00A7               	movwf	??_format_number
  7839  0756  0826               	movf	format_number@pad,w
  7840  0757  03A6               	decf	format_number@pad,f
  7841  0758  3A80               	xorlw	128
  7842  0759  02A7               	subwf	??_format_number,f
  7843  075A  1C03               	skipc
  7844  075B  2F4A               	goto	l8577
  7845  075C                     l8581:	
  7846                           
  7847                           ;format.c: 42: for(; i > 0; i--) putchar_ptr((char)buf[(int16_t)i - 1]);
  7848  075C  084C               	movf	format_number@i,w
  7849  075D  3A80               	xorlw	128
  7850  075E  3E7F               	addlw	-129
  7851  075F  1C03               	btfss	3,0
  7852  0760  0008               	return
  7853  0761  084C               	movf	format_number@i,w
  7854  0762  3EFF               	addlw	255
  7855  0763  3E28               	addlw	format_number@buf& (0+255)
  7856  0764  0084               	movwf	4
  7857  0765  1383               	bcf	3,7	;select IRP bank0
  7858  0766  0800               	movf	0,w
  7859  0767  00F6               	movwf	?_output_putch
  7860  0768  086F               	movf	_putchar_ptr,w
  7861  0769  120A  118A  2700   	fcall	fptable
      +       120A  118A         
  7862  076E  1283               	bcf	3,5	;RP0=0, select bank0
  7863  076F  03CC               	decf	format_number@i,f
  7864  0770  2F5C               	goto	l8581
  7865  0771                     __end_of_format_number:	
  7866  0771                     __ptext1147:	
  7867 ;; =============== function ___lwmod ends ============
  7868                           
  7869                           
  7870 ;; *************** function ___lwdiv *****************
  7871 ;; Defined at:
  7872 ;;		line 5 in file "C:\Program Files (x86)\HI-TECH Software\PICC\9.83\sources\lwdiv.c"
  7873 ;; Parameters:    Size  Location     Type
  7874 ;;  divisor         2    3[COMMON] unsigned int 
  7875 ;;  dividend        2    5[COMMON] unsigned int 
  7876 ;; Auto vars:     Size  Location     Type
  7877 ;;  quotient        2    1[BANK0 ] unsigned int 
  7878 ;;  counter         1    0[BANK0 ] unsigned char 
  7879 ;; Return value:  Size  Location     Type
  7880 ;;                  2    3[COMMON] unsigned int 
  7881 ;; Registers used:
  7882 ;;		wreg, status,2, status,0
  7883 ;; Tracked objects:
  7884 ;;		On entry : 160/0
  7885 ;;		On exit  : 160/0
  7886 ;;		Unchanged: FFE9F/0
  7887 ;; Data sizes:     COMMON   BANK0   BANK1   BANK3   BANK2
  7888 ;;      Params:         4       0       0       0       0
  7889 ;;      Locals:         0       3       0       0       0
  7890 ;;      Temps:          0       0       0       0       0
  7891 ;;      Totals:         4       3       0       0       0
  7892 ;;Total ram usage:        7 bytes
  7893 ;; Hardware stack levels used:    1
  7894 ;; Hardware stack levels required when called:    1
  7895 ;; This function calls:
  7896 ;;		Nothing
  7897 ;; This function is called by:
  7898 ;;		_format_number
  7899 ;; This function uses a non-reentrant model
  7900 ;;
  7901  0771                     ___lwdiv:	
  7902                           
  7903                           ; Regs used in ___lwdiv: [wreg+status,2+status,0]
  7904  0771  01A1               	clrf	___lwdiv@quotient
  7905  0772  01A2               	clrf	___lwdiv@quotient+1
  7906  0773  0875               	movf	___lwdiv@divisor+1,w
  7907  0774  0474               	iorwf	___lwdiv@divisor,w
  7908  0775  1903               	skipnz
  7909  0776  2F96               	goto	l8241
  7910  0777  01A0               	clrf	___lwdiv@counter
  7911  0778                     L12:	
  7912  0778  0AA0               	incf	___lwdiv@counter,f
  7913  0779  1BF5               	btfsc	___lwdiv@divisor+1,7
  7914  077A  2F7F               	goto	l8229
  7915  077B  1003               	clrc
  7916  077C  0DF4               	rlf	___lwdiv@divisor,f
  7917  077D  0DF5               	rlf	___lwdiv@divisor+1,f
  7918  077E  2F78               	goto	L12
  7919  077F                     l8229:	
  7920  077F  1003               	clrc
  7921  0780  0DA1               	rlf	___lwdiv@quotient,f
  7922  0781  0DA2               	rlf	___lwdiv@quotient+1,f
  7923  0782  0875               	movf	___lwdiv@divisor+1,w
  7924  0783  0277               	subwf	___lwdiv@dividend+1,w
  7925  0784  1D03               	skipz
  7926  0785  2F88               	goto	u2645
  7927  0786  0874               	movf	___lwdiv@divisor,w
  7928  0787  0276               	subwf	___lwdiv@dividend,w
  7929  0788                     u2645:	
  7930  0788  1C03               	skipc
  7931  0789  2F92               	goto	L13
  7932  078A  0874               	movf	___lwdiv@divisor,w
  7933  078B  02F6               	subwf	___lwdiv@dividend,f
  7934  078C  0875               	movf	___lwdiv@divisor+1,w
  7935  078D  1C03               	skipc
  7936  078E  03F7               	decf	___lwdiv@dividend+1,f
  7937  078F  02F7               	subwf	___lwdiv@dividend+1,f
  7938  0790  1421               	bsf	___lwdiv@quotient,0
  7939  0791  1003               	clrc
  7940  0792                     L13:	
  7941  0792  0CF5               	rrf	___lwdiv@divisor+1,f
  7942  0793  0CF4               	rrf	___lwdiv@divisor,f
  7943  0794  0BA0               	decfsz	___lwdiv@counter,f
  7944  0795  2F7F               	goto	l8229
  7945  0796                     l8241:	
  7946  0796  0822               	movf	___lwdiv@quotient+1,w
  7947  0797  00F5               	movwf	?___lwdiv+1
  7948  0798  0821               	movf	___lwdiv@quotient,w
  7949  0799  00F4               	movwf	?___lwdiv
  7950  079A  0008               	return
  7951  079B                     __end_of___lwdiv:	
  7952  079B                     __ptext1146:	
  7953 ;; =============== function ___flpack ends ============
  7954                           
  7955                           
  7956 ;; *************** function ___lwmod *****************
  7957 ;; Defined at:
  7958 ;;		line 5 in file "C:\Program Files (x86)\HI-TECH Software\PICC\9.83\sources\lwmod.c"
  7959 ;; Parameters:    Size  Location     Type
  7960 ;;  divisor         2    3[COMMON] unsigned int 
  7961 ;;  dividend        2    5[COMMON] unsigned int 
  7962 ;; Auto vars:     Size  Location     Type
  7963 ;;  counter         1    0[BANK0 ] unsigned char 
  7964 ;; Return value:  Size  Location     Type
  7965 ;;                  2    3[COMMON] unsigned int 
  7966 ;; Registers used:
  7967 ;;		wreg, status,2, status,0
  7968 ;; Tracked objects:
  7969 ;;		On entry : 60/0
  7970 ;;		On exit  : 60/0
  7971 ;;		Unchanged: FFF9F/0
  7972 ;; Data sizes:     COMMON   BANK0   BANK1   BANK3   BANK2
  7973 ;;      Params:         4       0       0       0       0
  7974 ;;      Locals:         0       1       0       0       0
  7975 ;;      Temps:          0       0       0       0       0
  7976 ;;      Totals:         4       1       0       0       0
  7977 ;;Total ram usage:        5 bytes
  7978 ;; Hardware stack levels used:    1
  7979 ;; Hardware stack levels required when called:    1
  7980 ;; This function calls:
  7981 ;;		Nothing
  7982 ;; This function is called by:
  7983 ;;		_format_number
  7984 ;; This function uses a non-reentrant model
  7985 ;;
  7986  079B                     ___lwmod:	
  7987                           
  7988                           ; Regs used in ___lwmod: [wreg+status,2+status,0]
  7989  079B  0875               	movf	___lwmod@divisor+1,w
  7990  079C  0474               	iorwf	___lwmod@divisor,w
  7991  079D  1903               	skipnz
  7992  079E  2FBA               	goto	l8261
  7993  079F  01A0               	clrf	___lwmod@counter
  7994  07A0                     L10:	
  7995  07A0  0AA0               	incf	___lwmod@counter,f
  7996  07A1  1BF5               	btfsc	___lwmod@divisor+1,7
  7997  07A2  2FA7               	goto	l8253
  7998  07A3  1003               	clrc
  7999  07A4  0DF4               	rlf	___lwmod@divisor,f
  8000  07A5  0DF5               	rlf	___lwmod@divisor+1,f
  8001  07A6  2FA0               	goto	L10
  8002  07A7                     l8253:	
  8003  07A7  0875               	movf	___lwmod@divisor+1,w
  8004  07A8  0277               	subwf	___lwmod@dividend+1,w
  8005  07A9  1D03               	skipz
  8006  07AA  2FAD               	goto	u2685
  8007  07AB  0874               	movf	___lwmod@divisor,w
  8008  07AC  0276               	subwf	___lwmod@dividend,w
  8009  07AD                     u2685:	
  8010  07AD  1C03               	skipc
  8011  07AE  2FB6               	goto	L11
  8012  07AF  0874               	movf	___lwmod@divisor,w
  8013  07B0  02F6               	subwf	___lwmod@dividend,f
  8014  07B1  0875               	movf	___lwmod@divisor+1,w
  8015  07B2  1C03               	skipc
  8016  07B3  03F7               	decf	___lwmod@dividend+1,f
  8017  07B4  02F7               	subwf	___lwmod@dividend+1,f
  8018  07B5  1003               	clrc
  8019  07B6                     L11:	
  8020  07B6  0CF5               	rrf	___lwmod@divisor+1,f
  8021  07B7  0CF4               	rrf	___lwmod@divisor,f
  8022  07B8  0BA0               	decfsz	___lwmod@counter,f
  8023  07B9  2FA7               	goto	l8253
  8024  07BA                     l8261:	
  8025  07BA  0877               	movf	___lwmod@dividend+1,w
  8026  07BB  00F5               	movwf	?___lwmod+1
  8027  07BC  0876               	movf	___lwmod@dividend,w
  8028  07BD  00F4               	movwf	?___lwmod
  8029  07BE  0008               	return
  8030  07BF                     __end_of___lwmod:	
  8031                           
  8032                           	psect	text1138
  8033  07F7                     __ptext1138:	
  8034 ;; =============== function _delay10ms ends ============
  8035                           
  8036                           
  8037 ;; *************** function _format_putchar *****************
  8038 ;; Defined at:
  8039 ;;		line 6 in file "../../../lib/format.c"
  8040 ;; Parameters:    Size  Location     Type
  8041 ;;  c               1    5[COMMON] unsigned char 
  8042 ;; Auto vars:     Size  Location     Type
  8043 ;;		None
  8044 ;; Return value:  Size  Location     Type
  8045 ;;		None               void
  8046 ;; Registers used:
  8047 ;;		None
  8048 ;; Tracked objects:
  8049 ;;		On entry : 60/0
  8050 ;;		On exit  : 60/0
  8051 ;;		Unchanged: FFFFFF9F/0
  8052 ;; Data sizes:     COMMON   BANK0   BANK1   BANK3   BANK2
  8053 ;;      Params:         1       0       0       0       0
  8054 ;;      Locals:         0       0       0       0       0
  8055 ;;      Temps:          0       0       0       0       0
  8056 ;;      Totals:         1       0       0       0       0
  8057 ;;Total ram usage:        1 bytes
  8058 ;; Hardware stack levels used:    1
  8059 ;; Hardware stack levels required when called:    1
  8060 ;; This function calls:
  8061 ;;		Nothing
  8062 ;; This function is called by:
  8063 ;;		_format_number
  8064 ;;		_format_xint32
  8065 ;;		_format_double
  8066 ;; This function uses a non-reentrant model
  8067 ;;
  8068  07F7                     _format_putchar:	
  8069                           
  8070                           ;format.c: 7: return;
  8071                           
  8072                           ; Regs used in _format_putchar: []
  8073  07F7  0008               	return
  8074  07F8                     __end_of_format_putchar:	
  8075                           
  8076                           	psect	text1140
  8077  090F                     __ptext1140:	
  8078 ;; =============== function _ser_putch ends ============
  8079                           
  8080                           
  8081 ;; *************** function _output_putch *****************
  8082 ;; Defined at:
  8083 ;;		line 48 in file "../../../src/LC-meter.c"
  8084 ;; Parameters:    Size  Location     Type
  8085 ;;  c               1    5[COMMON] unsigned char 
  8086 ;; Auto vars:     Size  Location     Type
  8087 ;;		None
  8088 ;; Return value:  Size  Location     Type
  8089 ;;		None               void
  8090 ;; Registers used:
  8091 ;;		wreg, fsr0l, fsr0h, status,2, status,0, pclath, cstack
  8092 ;; Tracked objects:
  8093 ;;		On entry : 60/0
  8094 ;;		On exit  : 160/120
  8095 ;;		Unchanged: FFE9F/0
  8096 ;; Data sizes:     COMMON   BANK0   BANK1   BANK3   BANK2
  8097 ;;      Params:         1       0       0       0       0
  8098 ;;      Locals:         0       0       0       0       0
  8099 ;;      Temps:          0       0       0       0       0
  8100 ;;      Totals:         1       0       0       0       0
  8101 ;;Total ram usage:        1 bytes
  8102 ;; Hardware stack levels used:    1
  8103 ;; Hardware stack levels required when called:    2
  8104 ;; This function calls:
  8105 ;;		_ser_putch
  8106 ;; This function is called by:
  8107 ;;		_measure_capacitance
  8108 ;;		_format_number
  8109 ;;		_format_xint32
  8110 ;;		_format_double
  8111 ;; This function uses a non-reentrant model
  8112 ;;
  8113  090F                     _output_putch:	
  8114                           
  8115                           ;LC-meter.c: 54: ser_putch(c);
  8116                           
  8117                           ; Regs used in _output_putch: [wreg-fsr0h+status,2+status,0+pclath+cstack]
  8118  090F  0876               	movf	output_putch@c,w
  8119  0910  00F6               	movwf	?_ser_putch
  8120  0911  2DCB               	ljmp	l6973
  8121  0912                     __end_of_output_putch:	
  8122  0912                     __ptext1115:	
  8123 ;; =============== function _main ends ============
  8124                           
  8125                           
  8126 ;; *************** function _measure_capacitance *****************
  8127 ;; Defined at:
  8128 ;;		line 391 in file "../../../src/LC-meter.c"
  8129 ;; Parameters:    Size  Location     Type
  8130 ;;		None
  8131 ;; Auto vars:     Size  Location     Type
  8132 ;;  Cin             4   15[BANK3 ] PTR const unsigned char 
  8133 ;;  var             2   13[BANK3 ] unsigned int 
  8134 ;;  unit            1   12[BANK3 ] unsigned char 
  8135 ;; Return value:  Size  Location     Type
  8136 ;;		None               void
  8137 ;; Registers used:
  8138 ;;		wreg, fsr0l, fsr0h, status,2, status,0, btemp+1, pclath, cstack
  8139 ;; Tracked objects:
  8140 ;;		On entry : 60/0
  8141 ;;		On exit  : 60/60
  8142 ;;		Unchanged: 0/0
  8143 ;; Data sizes:     COMMON   BANK0   BANK1   BANK3   BANK2
  8144 ;;      Params:         0       0       0       0       0
  8145 ;;      Locals:         0       0       0      19       0
  8146 ;;      Temps:          0       0       0       0       0
  8147 ;;      Totals:         0       0       0      19       0
  8148 ;;Total ram usage:       19 bytes
  8149 ;; Hardware stack levels used:    1
  8150 ;; Hardware stack levels required when called:    7
  8151 ;; This function calls:
  8152 ;;		_measure_freq
  8153 ;;		___lwtofl
  8154 ;;		_ser_puts
  8155 ;;		_format_xint32
  8156 ;;		_format_double
  8157 ;;		_ser_putch
  8158 ;;		___flge
  8159 ;;		___flmul
  8160 ;;		___flsub
  8161 ;;		___fldiv
  8162 ;;		___fltol
  8163 ;;		_print_reading
  8164 ;;		_print_unit
  8165 ;; This function is called by:
  8166 ;;		_main
  8167 ;; This function uses a non-reentrant model
  8168 ;;
  8169  0912                     _measure_capacitance:	
  8170                           
  8171                           ;LC-meter.c: 392: uint8_t unit;
  8172                           ;LC-meter.c: 393: uint16_t var;
  8173                           ;LC-meter.c: 395: double Cin;
  8174                           ;LC-meter.c: 402: var = measure_freq();
  8175                           
  8176                           ; Regs used in _measure_capacitance: [wreg-fsr0h+status,2+status,0+btemp+1+pclath+cstack]
  8177  0912  160A  118A  20D5   	fcall	_measure_freq
      +       120A  158A         
  8178  0917  0875               	movf	?_measure_freq+1,w
  8179  0918  1683               	bsf	3,5	;RP0=1, select bank3
  8180  0919  1703               	bsf	3,6	;RP1=1, select bank3
  8181  091A  00D2               	movwf	(measure_capacitance@var+1)^(0+384)
  8182  091B  0874               	movf	?_measure_freq,w
  8183  091C  00D1               	movwf	measure_capacitance@var^(0+384)
  8184                           
  8185                           ;LC-meter.c: 404: F3 = (double)var;
  8186  091D  0852               	movf	(measure_capacitance@var+1)^(0+384),w
  8187  091E  1283               	bcf	3,5	;RP0=0, select bank0
  8188  091F  1303               	bcf	3,6	;RP1=0, select bank0
  8189  0920  00A9               	movwf	?___lwtofl+1
  8190  0921  1683               	bsf	3,5	;RP0=1, select bank3
  8191  0922  1703               	bsf	3,6	;RP1=1, select bank3
  8192  0923  0851               	movf	measure_capacitance@var^(0+384),w
  8193  0924  1283               	bcf	3,5	;RP0=0, select bank0
  8194  0925  1303               	bcf	3,6	;RP1=0, select bank0
  8195  0926  00A8               	movwf	?___lwtofl
  8196  0927  160A  118A  2130   	fcall	___lwtofl
      +       120A  158A         
  8197  092C  082B               	movf	?___lwtofl+3,w
  8198  092D  1683               	bsf	3,5	;RP0=1, select bank3
  8199  092E  1703               	bsf	3,6	;RP1=1, select bank3
  8200  092F  00B7               	movwf	(_F3+3)^(0+384)
  8201  0930  1283               	bcf	3,5	;RP0=0, select bank0
  8202  0931  1303               	bcf	3,6	;RP1=0, select bank0
  8203  0932  082A               	movf	?___lwtofl+2,w
  8204  0933  1683               	bsf	3,5	;RP0=1, select bank3
  8205  0934  1703               	bsf	3,6	;RP1=1, select bank3
  8206  0935  00B6               	movwf	(_F3+2)^(0+384)
  8207  0936  1283               	bcf	3,5	;RP0=0, select bank0
  8208  0937  1303               	bcf	3,6	;RP1=0, select bank0
  8209  0938  0829               	movf	?___lwtofl+1,w
  8210  0939  1683               	bsf	3,5	;RP0=1, select bank3
  8211  093A  1703               	bsf	3,6	;RP1=1, select bank3
  8212  093B  00B5               	movwf	(_F3+1)^(0+384)
  8213  093C  1283               	bcf	3,5	;RP0=0, select bank0
  8214  093D  1303               	bcf	3,6	;RP1=0, select bank0
  8215  093E  0828               	movf	?___lwtofl,w
  8216  093F  1683               	bsf	3,5	;RP0=1, select bank3
  8217  0940  1703               	bsf	3,6	;RP1=1, select bank3
  8218  0941  00B4               	movwf	_F3^(0+384)
  8219                           
  8220                           ;LC-meter.c: 406: putchar_ptr = &ser_putch;
  8221  0942  3004               	movlw	(fp__ser_putch-fpbase)& (0+255)
  8222  0943  1283               	bcf	3,5	;RP0=0, select bank0
  8223  0944  1303               	bcf	3,6	;RP1=0, select bank0
  8224  0945  00EF               	movwf	_putchar_ptr
  8225                           
  8226                           ;LC-meter.c: 407: ser_puts("var=");
  8227  0946  3072               	movlw	(STR_4-__stringbase)& (0+255)
  8228  0947  25B3  120A  158A   	fcall	_ser_puts
  8229                           
  8230                           ;LC-meter.c: 408: format_xint32( var);
  8231  094A  1683               	bsf	3,5	;RP0=1, select bank3
  8232  094B  1703               	bsf	3,6	;RP1=1, select bank3
  8233  094C  0851               	movf	measure_capacitance@var^(0+384),w
  8234  094D  1283               	bcf	3,5	;RP0=0, select bank0
  8235  094E  1303               	bcf	3,6	;RP1=0, select bank0
  8236  094F  00CD               	movwf	?_format_xint32
  8237  0950  1683               	bsf	3,5	;RP0=1, select bank3
  8238  0951  1703               	bsf	3,6	;RP1=1, select bank3
  8239  0952  0852               	movf	(measure_capacitance@var+1)^(0+384),w
  8240  0953  1283               	bcf	3,5	;RP0=0, select bank0
  8241  0954  1303               	bcf	3,6	;RP1=0, select bank0
  8242  0955  00CE               	movwf	?_format_xint32+1
  8243  0956  01CF               	clrf	?_format_xint32+2
  8244  0957  01D0               	clrf	?_format_xint32+3
  8245  0958  25DF  120A  158A   	fcall	_format_xint32
  8246                           
  8247                           ;LC-meter.c: 409: ser_puts("\r\nF1=");
  8248  095B  305B               	movlw	(STR_5-__stringbase)& (0+255)
  8249  095C  25B3  120A  158A   	fcall	_ser_puts
  8250                           
  8251                           ;LC-meter.c: 410: format_double( F1);
  8252  095F  1683               	bsf	3,5	;RP0=1, select bank3
  8253  0960  1703               	bsf	3,6	;RP1=1, select bank3
  8254  0961  0843               	movf	(_F1+3)^(0+384),w
  8255  0962  1303               	bcf	3,6	;RP1=0, select bank1
  8256  0963  00D9               	movwf	(?_format_double+3)^(0+128)
  8257  0964  1703               	bsf	3,6	;RP1=1, select bank3
  8258  0965  0842               	movf	(_F1+2)^(0+384),w
  8259  0966  1303               	bcf	3,6	;RP1=0, select bank1
  8260  0967  00D8               	movwf	(?_format_double+2)^(0+128)
  8261  0968  1703               	bsf	3,6	;RP1=1, select bank3
  8262  0969  0841               	movf	(_F1+1)^(0+384),w
  8263  096A  1303               	bcf	3,6	;RP1=0, select bank1
  8264  096B  00D7               	movwf	(?_format_double+1)^(0+128)
  8265  096C  1703               	bsf	3,6	;RP1=1, select bank3
  8266  096D  0840               	movf	_F1^(0+384),w
  8267  096E  1303               	bcf	3,6	;RP1=0, select bank1
  8268  096F  00D6               	movwf	?_format_double^(0+128)
  8269  0970  2609  120A  158A   	fcall	_format_double
  8270                           
  8271                           ;LC-meter.c: 411: ser_putch(' ');
  8272  0973  3020               	movlw	32
  8273  0974  00F6               	movwf	?_ser_putch
  8274  0975  25CB  120A  158A   	fcall	_ser_putch
  8275                           
  8276                           ;LC-meter.c: 412: format_xint32( *(uint32_t*)&F1);
  8277  0978  1703               	bsf	3,6	;RP1=1, select bank3
  8278  0979  0843               	movf	(_F1+3)^(0+384),w
  8279  097A  1283               	bcf	3,5	;RP0=0, select bank0
  8280  097B  1303               	bcf	3,6	;RP1=0, select bank0
  8281  097C  00D0               	movwf	?_format_xint32+3
  8282  097D  1683               	bsf	3,5	;RP0=1, select bank3
  8283  097E  1703               	bsf	3,6	;RP1=1, select bank3
  8284  097F  0842               	movf	(_F1+2)^(0+384),w
  8285  0980  1283               	bcf	3,5	;RP0=0, select bank0
  8286  0981  1303               	bcf	3,6	;RP1=0, select bank0
  8287  0982  00CF               	movwf	?_format_xint32+2
  8288  0983  1683               	bsf	3,5	;RP0=1, select bank3
  8289  0984  1703               	bsf	3,6	;RP1=1, select bank3
  8290  0985  0841               	movf	(_F1+1)^(0+384),w
  8291  0986  1283               	bcf	3,5	;RP0=0, select bank0
  8292  0987  1303               	bcf	3,6	;RP1=0, select bank0
  8293  0988  00CE               	movwf	?_format_xint32+1
  8294  0989  1683               	bsf	3,5	;RP0=1, select bank3
  8295  098A  1703               	bsf	3,6	;RP1=1, select bank3
  8296  098B  0840               	movf	_F1^(0+384),w
  8297  098C  1283               	bcf	3,5	;RP0=0, select bank0
  8298  098D  1303               	bcf	3,6	;RP1=0, select bank0
  8299  098E  00CD               	movwf	?_format_xint32
  8300  098F  25DF  120A  158A   	fcall	_format_xint32
  8301                           
  8302                           ;LC-meter.c: 413: ser_puts("\r\nF2=");
  8303  0992  3061               	movlw	(STR_6-__stringbase)& (0+255)
  8304  0993  25B3  120A  158A   	fcall	_ser_puts
  8305                           
  8306                           ;LC-meter.c: 414: format_double( F2);
  8307  0996  1683               	bsf	3,5	;RP0=1, select bank3
  8308  0997  1703               	bsf	3,6	;RP1=1, select bank3
  8309  0998  0833               	movf	(_F2+3)^(0+384),w
  8310  0999  1303               	bcf	3,6	;RP1=0, select bank1
  8311  099A  00D9               	movwf	(?_format_double+3)^(0+128)
  8312  099B  1703               	bsf	3,6	;RP1=1, select bank3
  8313  099C  0832               	movf	(_F2+2)^(0+384),w
  8314  099D  1303               	bcf	3,6	;RP1=0, select bank1
  8315  099E  00D8               	movwf	(?_format_double+2)^(0+128)
  8316  099F  1703               	bsf	3,6	;RP1=1, select bank3
  8317  09A0  0831               	movf	(_F2+1)^(0+384),w
  8318  09A1  1303               	bcf	3,6	;RP1=0, select bank1
  8319  09A2  00D7               	movwf	(?_format_double+1)^(0+128)
  8320  09A3  1703               	bsf	3,6	;RP1=1, select bank3
  8321  09A4  0830               	movf	_F2^(0+384),w
  8322  09A5  1303               	bcf	3,6	;RP1=0, select bank1
  8323  09A6  00D6               	movwf	?_format_double^(0+128)
  8324  09A7  2609  120A  158A   	fcall	_format_double
  8325                           
  8326                           ;LC-meter.c: 415: ser_putch(' ');
  8327  09AA  3020               	movlw	32
  8328  09AB  00F6               	movwf	?_ser_putch
  8329  09AC  25CB  120A  158A   	fcall	_ser_putch
  8330                           
  8331                           ;LC-meter.c: 416: format_xint32( *(uint32_t*)&F2);
  8332  09AF  1703               	bsf	3,6	;RP1=1, select bank3
  8333  09B0  0833               	movf	(_F2+3)^(0+384),w
  8334  09B1  1283               	bcf	3,5	;RP0=0, select bank0
  8335  09B2  1303               	bcf	3,6	;RP1=0, select bank0
  8336  09B3  00D0               	movwf	?_format_xint32+3
  8337  09B4  1683               	bsf	3,5	;RP0=1, select bank3
  8338  09B5  1703               	bsf	3,6	;RP1=1, select bank3
  8339  09B6  0832               	movf	(_F2+2)^(0+384),w
  8340  09B7  1283               	bcf	3,5	;RP0=0, select bank0
  8341  09B8  1303               	bcf	3,6	;RP1=0, select bank0
  8342  09B9  00CF               	movwf	?_format_xint32+2
  8343  09BA  1683               	bsf	3,5	;RP0=1, select bank3
  8344  09BB  1703               	bsf	3,6	;RP1=1, select bank3
  8345  09BC  0831               	movf	(_F2+1)^(0+384),w
  8346  09BD  1283               	bcf	3,5	;RP0=0, select bank0
  8347  09BE  1303               	bcf	3,6	;RP1=0, select bank0
  8348  09BF  00CE               	movwf	?_format_xint32+1
  8349  09C0  1683               	bsf	3,5	;RP0=1, select bank3
  8350  09C1  1703               	bsf	3,6	;RP1=1, select bank3
  8351  09C2  0830               	movf	_F2^(0+384),w
  8352  09C3  1283               	bcf	3,5	;RP0=0, select bank0
  8353  09C4  1303               	bcf	3,6	;RP1=0, select bank0
  8354  09C5  00CD               	movwf	?_format_xint32
  8355  09C6  25DF  120A  158A   	fcall	_format_xint32
  8356                           
  8357                           ;LC-meter.c: 417: ser_puts("\r\nF3=");
  8358  09C9  3067               	movlw	(STR_7-__stringbase)& (0+255)
  8359  09CA  25B3  120A  158A   	fcall	_ser_puts
  8360                           
  8361                           ;LC-meter.c: 418: format_double( F3);
  8362  09CD  1683               	bsf	3,5	;RP0=1, select bank3
  8363  09CE  1703               	bsf	3,6	;RP1=1, select bank3
  8364  09CF  0837               	movf	(_F3+3)^(0+384),w
  8365  09D0  1303               	bcf	3,6	;RP1=0, select bank1
  8366  09D1  00D9               	movwf	(?_format_double+3)^(0+128)
  8367  09D2  1703               	bsf	3,6	;RP1=1, select bank3
  8368  09D3  0836               	movf	(_F3+2)^(0+384),w
  8369  09D4  1303               	bcf	3,6	;RP1=0, select bank1
  8370  09D5  00D8               	movwf	(?_format_double+2)^(0+128)
  8371  09D6  1703               	bsf	3,6	;RP1=1, select bank3
  8372  09D7  0835               	movf	(_F3+1)^(0+384),w
  8373  09D8  1303               	bcf	3,6	;RP1=0, select bank1
  8374  09D9  00D7               	movwf	(?_format_double+1)^(0+128)
  8375  09DA  1703               	bsf	3,6	;RP1=1, select bank3
  8376  09DB  0834               	movf	_F3^(0+384),w
  8377  09DC  1303               	bcf	3,6	;RP1=0, select bank1
  8378  09DD  00D6               	movwf	?_format_double^(0+128)
  8379  09DE  2609  120A  158A   	fcall	_format_double
  8380                           
  8381                           ;LC-meter.c: 419: ser_putch(' ');
  8382  09E1  3020               	movlw	32
  8383  09E2  00F6               	movwf	?_ser_putch
  8384  09E3  25CB  120A  158A   	fcall	_ser_putch
  8385                           
  8386                           ;LC-meter.c: 420: format_xint32( *(uint32_t*)&F3);
  8387  09E6  1703               	bsf	3,6	;RP1=1, select bank3
  8388  09E7  0837               	movf	(_F3+3)^(0+384),w
  8389  09E8  1283               	bcf	3,5	;RP0=0, select bank0
  8390  09E9  1303               	bcf	3,6	;RP1=0, select bank0
  8391  09EA  00D0               	movwf	?_format_xint32+3
  8392  09EB  1683               	bsf	3,5	;RP0=1, select bank3
  8393  09EC  1703               	bsf	3,6	;RP1=1, select bank3
  8394  09ED  0836               	movf	(_F3+2)^(0+384),w
  8395  09EE  1283               	bcf	3,5	;RP0=0, select bank0
  8396  09EF  1303               	bcf	3,6	;RP1=0, select bank0
  8397  09F0  00CF               	movwf	?_format_xint32+2
  8398  09F1  1683               	bsf	3,5	;RP0=1, select bank3
  8399  09F2  1703               	bsf	3,6	;RP1=1, select bank3
  8400  09F3  0835               	movf	(_F3+1)^(0+384),w
  8401  09F4  1283               	bcf	3,5	;RP0=0, select bank0
  8402  09F5  1303               	bcf	3,6	;RP1=0, select bank0
  8403  09F6  00CE               	movwf	?_format_xint32+1
  8404  09F7  1683               	bsf	3,5	;RP0=1, select bank3
  8405  09F8  1703               	bsf	3,6	;RP1=1, select bank3
  8406  09F9  0834               	movf	_F3^(0+384),w
  8407  09FA  1283               	bcf	3,5	;RP0=0, select bank0
  8408  09FB  1303               	bcf	3,6	;RP1=0, select bank0
  8409  09FC  00CD               	movwf	?_format_xint32
  8410  09FD  25DF  120A  158A   	fcall	_format_xint32
  8411                           
  8412                           ;LC-meter.c: 421: ser_puts("\r\nCCal=");
  8413  0A00  304D               	movlw	(STR_8-__stringbase)& (0+255)
  8414  0A01  25B3  120A  158A   	fcall	_ser_puts
  8415                           
  8416                           ;LC-meter.c: 422: format_double( CCal);
  8417  0A04  1683               	bsf	3,5	;RP0=1, select bank3
  8418  0A05  1703               	bsf	3,6	;RP1=1, select bank3
  8419  0A06  085A               	movf	(_CCal+3)^(0+384),w
  8420  0A07  1303               	bcf	3,6	;RP1=0, select bank1
  8421  0A08  00D9               	movwf	(?_format_double+3)^(0+128)
  8422  0A09  1703               	bsf	3,6	;RP1=1, select bank3
  8423  0A0A  0859               	movf	(_CCal+2)^(0+384),w
  8424  0A0B  1303               	bcf	3,6	;RP1=0, select bank1
  8425  0A0C  00D8               	movwf	(?_format_double+2)^(0+128)
  8426  0A0D  1703               	bsf	3,6	;RP1=1, select bank3
  8427  0A0E  0858               	movf	(_CCal+1)^(0+384),w
  8428  0A0F  1303               	bcf	3,6	;RP1=0, select bank1
  8429  0A10  00D7               	movwf	(?_format_double+1)^(0+128)
  8430  0A11  1703               	bsf	3,6	;RP1=1, select bank3
  8431  0A12  0857               	movf	_CCal^(0+384),w
  8432  0A13  1303               	bcf	3,6	;RP1=0, select bank1
  8433  0A14  00D6               	movwf	?_format_double^(0+128)
  8434  0A15  2609  120A  158A   	fcall	_format_double
  8435                           
  8436                           ;LC-meter.c: 423: ser_putch(' ');
  8437  0A18  3020               	movlw	32
  8438  0A19  00F6               	movwf	?_ser_putch
  8439  0A1A  25CB  120A  158A   	fcall	_ser_putch
  8440                           
  8441                           ;LC-meter.c: 424: format_xint32( *(uint32_t*)&CCal);
  8442  0A1D  1703               	bsf	3,6	;RP1=1, select bank3
  8443  0A1E  085A               	movf	(_CCal+3)^(0+384),w
  8444  0A1F  1283               	bcf	3,5	;RP0=0, select bank0
  8445  0A20  1303               	bcf	3,6	;RP1=0, select bank0
  8446  0A21  00D0               	movwf	?_format_xint32+3
  8447  0A22  1683               	bsf	3,5	;RP0=1, select bank3
  8448  0A23  1703               	bsf	3,6	;RP1=1, select bank3
  8449  0A24  0859               	movf	(_CCal+2)^(0+384),w
  8450  0A25  1283               	bcf	3,5	;RP0=0, select bank0
  8451  0A26  1303               	bcf	3,6	;RP1=0, select bank0
  8452  0A27  00CF               	movwf	?_format_xint32+2
  8453  0A28  1683               	bsf	3,5	;RP0=1, select bank3
  8454  0A29  1703               	bsf	3,6	;RP1=1, select bank3
  8455  0A2A  0858               	movf	(_CCal+1)^(0+384),w
  8456  0A2B  1283               	bcf	3,5	;RP0=0, select bank0
  8457  0A2C  1303               	bcf	3,6	;RP1=0, select bank0
  8458  0A2D  00CE               	movwf	?_format_xint32+1
  8459  0A2E  1683               	bsf	3,5	;RP0=1, select bank3
  8460  0A2F  1703               	bsf	3,6	;RP1=1, select bank3
  8461  0A30  0857               	movf	_CCal^(0+384),w
  8462  0A31  1283               	bcf	3,5	;RP0=0, select bank0
  8463  0A32  1303               	bcf	3,6	;RP1=0, select bank0
  8464  0A33  00CD               	movwf	?_format_xint32
  8465  0A34  25DF  120A  158A   	fcall	_format_xint32
  8466                           
  8467                           ;LC-meter.c: 425: ser_puts("\r\n");
  8468  0A37  3058               	movlw	((STR_1+3)-__stringbase)& (0+255)
  8469  0A38  25B3  120A  158A   	fcall	_ser_puts
  8470                           
  8471                           ;LC-meter.c: 427: putchar_ptr = &output_putch;
  8472  0A3B  3001               	movlw	(fp__output_putch-fpbase)& (0+255)
  8473  0A3C  1283               	bcf	3,5	;RP0=0, select bank0
  8474  0A3D  1303               	bcf	3,6	;RP1=0, select bank0
  8475  0A3E  00EF               	movwf	_putchar_ptr
  8476                           
  8477                           ;LC-meter.c: 429: if(F3 > F1)
  8478  0A3F  1683               	bsf	3,5	;RP0=1, select bank3
  8479  0A40  1703               	bsf	3,6	;RP1=1, select bank3
  8480  0A41  0843               	movf	(_F1+3)^(0+384),w
  8481  0A42  1283               	bcf	3,5	;RP0=0, select bank0
  8482  0A43  1303               	bcf	3,6	;RP1=0, select bank0
  8483  0A44  00A3               	movwf	?___flge+3
  8484  0A45  1683               	bsf	3,5	;RP0=1, select bank3
  8485  0A46  1703               	bsf	3,6	;RP1=1, select bank3
  8486  0A47  0842               	movf	(_F1+2)^(0+384),w
  8487  0A48  1283               	bcf	3,5	;RP0=0, select bank0
  8488  0A49  1303               	bcf	3,6	;RP1=0, select bank0
  8489  0A4A  00A2               	movwf	?___flge+2
  8490  0A4B  1683               	bsf	3,5	;RP0=1, select bank3
  8491  0A4C  1703               	bsf	3,6	;RP1=1, select bank3
  8492  0A4D  0841               	movf	(_F1+1)^(0+384),w
  8493  0A4E  1283               	bcf	3,5	;RP0=0, select bank0
  8494  0A4F  1303               	bcf	3,6	;RP1=0, select bank0
  8495  0A50  00A1               	movwf	?___flge+1
  8496  0A51  1683               	bsf	3,5	;RP0=1, select bank3
  8497  0A52  1703               	bsf	3,6	;RP1=1, select bank3
  8498  0A53  0840               	movf	_F1^(0+384),w
  8499  0A54  1283               	bcf	3,5	;RP0=0, select bank0
  8500  0A55  1303               	bcf	3,6	;RP1=0, select bank0
  8501  0A56  00A0               	movwf	?___flge
  8502  0A57  1683               	bsf	3,5	;RP0=1, select bank3
  8503  0A58  1703               	bsf	3,6	;RP1=1, select bank3
  8504  0A59  0837               	movf	(_F3+3)^(0+384),w
  8505  0A5A  1283               	bcf	3,5	;RP0=0, select bank0
  8506  0A5B  1303               	bcf	3,6	;RP1=0, select bank0
  8507  0A5C  00A7               	movwf	?___flge+7
  8508  0A5D  1683               	bsf	3,5	;RP0=1, select bank3
  8509  0A5E  1703               	bsf	3,6	;RP1=1, select bank3
  8510  0A5F  0836               	movf	(_F3+2)^(0+384),w
  8511  0A60  1283               	bcf	3,5	;RP0=0, select bank0
  8512  0A61  1303               	bcf	3,6	;RP1=0, select bank0
  8513  0A62  00A6               	movwf	?___flge+6
  8514  0A63  1683               	bsf	3,5	;RP0=1, select bank3
  8515  0A64  1703               	bsf	3,6	;RP1=1, select bank3
  8516  0A65  0835               	movf	(_F3+1)^(0+384),w
  8517  0A66  1283               	bcf	3,5	;RP0=0, select bank0
  8518  0A67  1303               	bcf	3,6	;RP1=0, select bank0
  8519  0A68  00A5               	movwf	?___flge+5
  8520  0A69  1683               	bsf	3,5	;RP0=1, select bank3
  8521  0A6A  1703               	bsf	3,6	;RP1=1, select bank3
  8522  0A6B  0834               	movf	_F3^(0+384),w
  8523  0A6C  1283               	bcf	3,5	;RP0=0, select bank0
  8524  0A6D  1303               	bcf	3,6	;RP1=0, select bank0
  8525  0A6E  00A4               	movwf	?___flge+4
  8526  0A6F  2739  120A  158A   	fcall	___flge
  8527  0A72  1803               	btfsc	3,0
  8528  0A73  2A7E               	goto	l8883
  8529                           
  8530                           ;LC-meter.c: 430: F3 = F1;
  8531  0A74  1683               	bsf	3,5	;RP0=1, select bank3
  8532  0A75  1703               	bsf	3,6	;RP1=1, select bank3
  8533  0A76  0843               	movf	(_F1+3)^(0+384),w
  8534  0A77  00B7               	movwf	(_F3+3)^(0+384)
  8535  0A78  0842               	movf	(_F1+2)^(0+384),w
  8536  0A79  00B6               	movwf	(_F3+2)^(0+384)
  8537  0A7A  0841               	movf	(_F1+1)^(0+384),w
  8538  0A7B  00B5               	movwf	(_F3+1)^(0+384)
  8539  0A7C  0840               	movf	_F1^(0+384),w
  8540  0A7D  00B4               	movwf	_F3^(0+384)
  8541  0A7E                     l8883:	
  8542                           
  8543                           ;LC-meter.c: 432: Cin = F2 * F2 * (F1 * F1 - F3 * F3) * CCal;
  8544  0A7E  1683               	bsf	3,5	;RP0=1, select bank3
  8545  0A7F  1703               	bsf	3,6	;RP1=1, select bank3
  8546  0A80  0837               	movf	(_F3+3)^(0+384),w
  8547  0A81  1283               	bcf	3,5	;RP0=0, select bank0
  8548  0A82  1303               	bcf	3,6	;RP1=0, select bank0
  8549  0A83  00C8               	movwf	?___flmul+3
  8550  0A84  1683               	bsf	3,5	;RP0=1, select bank3
  8551  0A85  1703               	bsf	3,6	;RP1=1, select bank3
  8552  0A86  0836               	movf	(_F3+2)^(0+384),w
  8553  0A87  1283               	bcf	3,5	;RP0=0, select bank0
  8554  0A88  1303               	bcf	3,6	;RP1=0, select bank0
  8555  0A89  00C7               	movwf	?___flmul+2
  8556  0A8A  1683               	bsf	3,5	;RP0=1, select bank3
  8557  0A8B  1703               	bsf	3,6	;RP1=1, select bank3
  8558  0A8C  0835               	movf	(_F3+1)^(0+384),w
  8559  0A8D  1283               	bcf	3,5	;RP0=0, select bank0
  8560  0A8E  1303               	bcf	3,6	;RP1=0, select bank0
  8561  0A8F  00C6               	movwf	?___flmul+1
  8562  0A90  1683               	bsf	3,5	;RP0=1, select bank3
  8563  0A91  1703               	bsf	3,6	;RP1=1, select bank3
  8564  0A92  0834               	movf	_F3^(0+384),w
  8565  0A93  1283               	bcf	3,5	;RP0=0, select bank0
  8566  0A94  1303               	bcf	3,6	;RP1=0, select bank0
  8567  0A95  00C5               	movwf	?___flmul
  8568  0A96  1683               	bsf	3,5	;RP0=1, select bank3
  8569  0A97  1703               	bsf	3,6	;RP1=1, select bank3
  8570  0A98  0837               	movf	(_F3+3)^(0+384),w
  8571  0A99  1283               	bcf	3,5	;RP0=0, select bank0
  8572  0A9A  1303               	bcf	3,6	;RP1=0, select bank0
  8573  0A9B  00CC               	movwf	?___flmul+7
  8574  0A9C  1683               	bsf	3,5	;RP0=1, select bank3
  8575  0A9D  1703               	bsf	3,6	;RP1=1, select bank3
  8576  0A9E  0836               	movf	(_F3+2)^(0+384),w
  8577  0A9F  1283               	bcf	3,5	;RP0=0, select bank0
  8578  0AA0  1303               	bcf	3,6	;RP1=0, select bank0
  8579  0AA1  00CB               	movwf	?___flmul+6
  8580  0AA2  1683               	bsf	3,5	;RP0=1, select bank3
  8581  0AA3  1703               	bsf	3,6	;RP1=1, select bank3
  8582  0AA4  0835               	movf	(_F3+1)^(0+384),w
  8583  0AA5  1283               	bcf	3,5	;RP0=0, select bank0
  8584  0AA6  1303               	bcf	3,6	;RP1=0, select bank0
  8585  0AA7  00CA               	movwf	?___flmul+5
  8586  0AA8  1683               	bsf	3,5	;RP0=1, select bank3
  8587  0AA9  1703               	bsf	3,6	;RP1=1, select bank3
  8588  0AAA  0834               	movf	_F3^(0+384),w
  8589  0AAB  1283               	bcf	3,5	;RP0=0, select bank0
  8590  0AAC  1303               	bcf	3,6	;RP1=0, select bank0
  8591  0AAD  00C9               	movwf	?___flmul+4
  8592  0AAE  120A  118A  264B   	fcall	___flmul
      +       120A  158A         
  8593  0AB3  0848               	movf	?___flmul+3,w
  8594  0AB4  00EA               	movwf	?___flsub+3
  8595  0AB5  0847               	movf	?___flmul+2,w
  8596  0AB6  00E9               	movwf	?___flsub+2
  8597  0AB7  0846               	movf	?___flmul+1,w
  8598  0AB8  00E8               	movwf	?___flsub+1
  8599  0AB9  0845               	movf	?___flmul,w
  8600  0ABA  00E7               	movwf	?___flsub
  8601  0ABB  1683               	bsf	3,5	;RP0=1, select bank3
  8602  0ABC  1703               	bsf	3,6	;RP1=1, select bank3
  8603  0ABD  0843               	movf	(_F1+3)^(0+384),w
  8604  0ABE  1283               	bcf	3,5	;RP0=0, select bank0
  8605  0ABF  1303               	bcf	3,6	;RP1=0, select bank0
  8606  0AC0  00C8               	movwf	?___flmul+3
  8607  0AC1  1683               	bsf	3,5	;RP0=1, select bank3
  8608  0AC2  1703               	bsf	3,6	;RP1=1, select bank3
  8609  0AC3  0842               	movf	(_F1+2)^(0+384),w
  8610  0AC4  1283               	bcf	3,5	;RP0=0, select bank0
  8611  0AC5  1303               	bcf	3,6	;RP1=0, select bank0
  8612  0AC6  00C7               	movwf	?___flmul+2
  8613  0AC7  1683               	bsf	3,5	;RP0=1, select bank3
  8614  0AC8  1703               	bsf	3,6	;RP1=1, select bank3
  8615  0AC9  0841               	movf	(_F1+1)^(0+384),w
  8616  0ACA  1283               	bcf	3,5	;RP0=0, select bank0
  8617  0ACB  1303               	bcf	3,6	;RP1=0, select bank0
  8618  0ACC  00C6               	movwf	?___flmul+1
  8619  0ACD  1683               	bsf	3,5	;RP0=1, select bank3
  8620  0ACE  1703               	bsf	3,6	;RP1=1, select bank3
  8621  0ACF  0840               	movf	_F1^(0+384),w
  8622  0AD0  1283               	bcf	3,5	;RP0=0, select bank0
  8623  0AD1  1303               	bcf	3,6	;RP1=0, select bank0
  8624  0AD2  00C5               	movwf	?___flmul
  8625  0AD3  1683               	bsf	3,5	;RP0=1, select bank3
  8626  0AD4  1703               	bsf	3,6	;RP1=1, select bank3
  8627  0AD5  0843               	movf	(_F1+3)^(0+384),w
  8628  0AD6  1283               	bcf	3,5	;RP0=0, select bank0
  8629  0AD7  1303               	bcf	3,6	;RP1=0, select bank0
  8630  0AD8  00CC               	movwf	?___flmul+7
  8631  0AD9  1683               	bsf	3,5	;RP0=1, select bank3
  8632  0ADA  1703               	bsf	3,6	;RP1=1, select bank3
  8633  0ADB  0842               	movf	(_F1+2)^(0+384),w
  8634  0ADC  1283               	bcf	3,5	;RP0=0, select bank0
  8635  0ADD  1303               	bcf	3,6	;RP1=0, select bank0
  8636  0ADE  00CB               	movwf	?___flmul+6
  8637  0ADF  1683               	bsf	3,5	;RP0=1, select bank3
  8638  0AE0  1703               	bsf	3,6	;RP1=1, select bank3
  8639  0AE1  0841               	movf	(_F1+1)^(0+384),w
  8640  0AE2  1283               	bcf	3,5	;RP0=0, select bank0
  8641  0AE3  1303               	bcf	3,6	;RP1=0, select bank0
  8642  0AE4  00CA               	movwf	?___flmul+5
  8643  0AE5  1683               	bsf	3,5	;RP0=1, select bank3
  8644  0AE6  1703               	bsf	3,6	;RP1=1, select bank3
  8645  0AE7  0840               	movf	_F1^(0+384),w
  8646  0AE8  1283               	bcf	3,5	;RP0=0, select bank0
  8647  0AE9  1303               	bcf	3,6	;RP1=0, select bank0
  8648  0AEA  00C9               	movwf	?___flmul+4
  8649  0AEB  120A  118A  264B   	fcall	___flmul
      +       120A  158A         
  8650  0AF0  0848               	movf	?___flmul+3,w
  8651  0AF1  00EE               	movwf	?___flsub+7
  8652  0AF2  0847               	movf	?___flmul+2,w
  8653  0AF3  00ED               	movwf	?___flsub+6
  8654  0AF4  0846               	movf	?___flmul+1,w
  8655  0AF5  00EC               	movwf	?___flsub+5
  8656  0AF6  0845               	movf	?___flmul,w
  8657  0AF7  00EB               	movwf	?___flsub+4
  8658  0AF8  120A  118A  26E3   	fcall	___flsub
      +       120A  158A         
  8659  0AFD  086A               	movf	?___flsub+3,w
  8660  0AFE  1683               	bsf	3,5	;RP0=1, select bank3
  8661  0AFF  1703               	bsf	3,6	;RP1=1, select bank3
  8662  0B00  00C7               	movwf	(_measure_capacitance$5199+3)^(0+384)
  8663  0B01  1283               	bcf	3,5	;RP0=0, select bank0
  8664  0B02  1303               	bcf	3,6	;RP1=0, select bank0
  8665  0B03  0869               	movf	?___flsub+2,w
  8666  0B04  1683               	bsf	3,5	;RP0=1, select bank3
  8667  0B05  1703               	bsf	3,6	;RP1=1, select bank3
  8668  0B06  00C6               	movwf	(_measure_capacitance$5199+2)^(0+384)
  8669  0B07  1283               	bcf	3,5	;RP0=0, select bank0
  8670  0B08  1303               	bcf	3,6	;RP1=0, select bank0
  8671  0B09  0868               	movf	?___flsub+1,w
  8672  0B0A  1683               	bsf	3,5	;RP0=1, select bank3
  8673  0B0B  1703               	bsf	3,6	;RP1=1, select bank3
  8674  0B0C  00C5               	movwf	(_measure_capacitance$5199+1)^(0+384)
  8675  0B0D  1283               	bcf	3,5	;RP0=0, select bank0
  8676  0B0E  1303               	bcf	3,6	;RP1=0, select bank0
  8677  0B0F  0867               	movf	?___flsub,w
  8678  0B10  1683               	bsf	3,5	;RP0=1, select bank3
  8679  0B11  1703               	bsf	3,6	;RP1=1, select bank3
  8680  0B12  00C4               	movwf	_measure_capacitance$5199^(0+384)
  8681                           
  8682                           ;LC-meter.c: 432: Cin = F2 * F2 * (F1 * F1 - F3 * F3) * CCal;
  8683  0B13  0833               	movf	(_F2+3)^(0+384),w
  8684  0B14  1283               	bcf	3,5	;RP0=0, select bank0
  8685  0B15  1303               	bcf	3,6	;RP1=0, select bank0
  8686  0B16  00C8               	movwf	?___flmul+3
  8687  0B17  1683               	bsf	3,5	;RP0=1, select bank3
  8688  0B18  1703               	bsf	3,6	;RP1=1, select bank3
  8689  0B19  0832               	movf	(_F2+2)^(0+384),w
  8690  0B1A  1283               	bcf	3,5	;RP0=0, select bank0
  8691  0B1B  1303               	bcf	3,6	;RP1=0, select bank0
  8692  0B1C  00C7               	movwf	?___flmul+2
  8693  0B1D  1683               	bsf	3,5	;RP0=1, select bank3
  8694  0B1E  1703               	bsf	3,6	;RP1=1, select bank3
  8695  0B1F  0831               	movf	(_F2+1)^(0+384),w
  8696  0B20  1283               	bcf	3,5	;RP0=0, select bank0
  8697  0B21  1303               	bcf	3,6	;RP1=0, select bank0
  8698  0B22  00C6               	movwf	?___flmul+1
  8699  0B23  1683               	bsf	3,5	;RP0=1, select bank3
  8700  0B24  1703               	bsf	3,6	;RP1=1, select bank3
  8701  0B25  0830               	movf	_F2^(0+384),w
  8702  0B26  1283               	bcf	3,5	;RP0=0, select bank0
  8703  0B27  1303               	bcf	3,6	;RP1=0, select bank0
  8704  0B28  00C5               	movwf	?___flmul
  8705  0B29  1683               	bsf	3,5	;RP0=1, select bank3
  8706  0B2A  1703               	bsf	3,6	;RP1=1, select bank3
  8707  0B2B  0847               	movf	(_measure_capacitance$5199+3)^(0+384),w
  8708  0B2C  1283               	bcf	3,5	;RP0=0, select bank0
  8709  0B2D  1303               	bcf	3,6	;RP1=0, select bank0
  8710  0B2E  00CC               	movwf	?___flmul+7
  8711  0B2F  1683               	bsf	3,5	;RP0=1, select bank3
  8712  0B30  1703               	bsf	3,6	;RP1=1, select bank3
  8713  0B31  0846               	movf	(_measure_capacitance$5199+2)^(0+384),w
  8714  0B32  1283               	bcf	3,5	;RP0=0, select bank0
  8715  0B33  1303               	bcf	3,6	;RP1=0, select bank0
  8716  0B34  00CB               	movwf	?___flmul+6
  8717  0B35  1683               	bsf	3,5	;RP0=1, select bank3
  8718  0B36  1703               	bsf	3,6	;RP1=1, select bank3
  8719  0B37  0845               	movf	(_measure_capacitance$5199+1)^(0+384),w
  8720  0B38  1283               	bcf	3,5	;RP0=0, select bank0
  8721  0B39  1303               	bcf	3,6	;RP1=0, select bank0
  8722  0B3A  00CA               	movwf	?___flmul+5
  8723  0B3B  1683               	bsf	3,5	;RP0=1, select bank3
  8724  0B3C  1703               	bsf	3,6	;RP1=1, select bank3
  8725  0B3D  0844               	movf	_measure_capacitance$5199^(0+384),w
  8726  0B3E  1283               	bcf	3,5	;RP0=0, select bank0
  8727  0B3F  1303               	bcf	3,6	;RP1=0, select bank0
  8728  0B40  00C9               	movwf	?___flmul+4
  8729  0B41  120A  118A  264B   	fcall	___flmul
      +       120A  158A         
  8730  0B46  0848               	movf	?___flmul+3,w
  8731  0B47  1683               	bsf	3,5	;RP0=1, select bank3
  8732  0B48  1703               	bsf	3,6	;RP1=1, select bank3
  8733  0B49  00CB               	movwf	(_measure_capacitance$5200+3)^(0+384)
  8734  0B4A  1283               	bcf	3,5	;RP0=0, select bank0
  8735  0B4B  1303               	bcf	3,6	;RP1=0, select bank0
  8736  0B4C  0847               	movf	?___flmul+2,w
  8737  0B4D  1683               	bsf	3,5	;RP0=1, select bank3
  8738  0B4E  1703               	bsf	3,6	;RP1=1, select bank3
  8739  0B4F  00CA               	movwf	(_measure_capacitance$5200+2)^(0+384)
  8740  0B50  1283               	bcf	3,5	;RP0=0, select bank0
  8741  0B51  1303               	bcf	3,6	;RP1=0, select bank0
  8742  0B52  0846               	movf	?___flmul+1,w
  8743  0B53  1683               	bsf	3,5	;RP0=1, select bank3
  8744  0B54  1703               	bsf	3,6	;RP1=1, select bank3
  8745  0B55  00C9               	movwf	(_measure_capacitance$5200+1)^(0+384)
  8746  0B56  1283               	bcf	3,5	;RP0=0, select bank0
  8747  0B57  1303               	bcf	3,6	;RP1=0, select bank0
  8748  0B58  0845               	movf	?___flmul,w
  8749  0B59  1683               	bsf	3,5	;RP0=1, select bank3
  8750  0B5A  1703               	bsf	3,6	;RP1=1, select bank3
  8751  0B5B  00C8               	movwf	_measure_capacitance$5200^(0+384)
  8752                           
  8753                           ;LC-meter.c: 432: Cin = F2 * F2 * (F1 * F1 - F3 * F3) * CCal;
  8754  0B5C  0833               	movf	(_F2+3)^(0+384),w
  8755  0B5D  1283               	bcf	3,5	;RP0=0, select bank0
  8756  0B5E  1303               	bcf	3,6	;RP1=0, select bank0
  8757  0B5F  00C8               	movwf	?___flmul+3
  8758  0B60  1683               	bsf	3,5	;RP0=1, select bank3
  8759  0B61  1703               	bsf	3,6	;RP1=1, select bank3
  8760  0B62  0832               	movf	(_F2+2)^(0+384),w
  8761  0B63  1283               	bcf	3,5	;RP0=0, select bank0
  8762  0B64  1303               	bcf	3,6	;RP1=0, select bank0
  8763  0B65  00C7               	movwf	?___flmul+2
  8764  0B66  1683               	bsf	3,5	;RP0=1, select bank3
  8765  0B67  1703               	bsf	3,6	;RP1=1, select bank3
  8766  0B68  0831               	movf	(_F2+1)^(0+384),w
  8767  0B69  1283               	bcf	3,5	;RP0=0, select bank0
  8768  0B6A  1303               	bcf	3,6	;RP1=0, select bank0
  8769  0B6B  00C6               	movwf	?___flmul+1
  8770  0B6C  1683               	bsf	3,5	;RP0=1, select bank3
  8771  0B6D  1703               	bsf	3,6	;RP1=1, select bank3
  8772  0B6E  0830               	movf	_F2^(0+384),w
  8773  0B6F  1283               	bcf	3,5	;RP0=0, select bank0
  8774  0B70  1303               	bcf	3,6	;RP1=0, select bank0
  8775  0B71  00C5               	movwf	?___flmul
  8776  0B72  1683               	bsf	3,5	;RP0=1, select bank3
  8777  0B73  1703               	bsf	3,6	;RP1=1, select bank3
  8778  0B74  084B               	movf	(_measure_capacitance$5200+3)^(0+384),w
  8779  0B75  1283               	bcf	3,5	;RP0=0, select bank0
  8780  0B76  1303               	bcf	3,6	;RP1=0, select bank0
  8781  0B77  00CC               	movwf	?___flmul+7
  8782  0B78  1683               	bsf	3,5	;RP0=1, select bank3
  8783  0B79  1703               	bsf	3,6	;RP1=1, select bank3
  8784  0B7A  084A               	movf	(_measure_capacitance$5200+2)^(0+384),w
  8785  0B7B  1283               	bcf	3,5	;RP0=0, select bank0
  8786  0B7C  1303               	bcf	3,6	;RP1=0, select bank0
  8787  0B7D  00CB               	movwf	?___flmul+6
  8788  0B7E  1683               	bsf	3,5	;RP0=1, select bank3
  8789  0B7F  1703               	bsf	3,6	;RP1=1, select bank3
  8790  0B80  0849               	movf	(_measure_capacitance$5200+1)^(0+384),w
  8791  0B81  1283               	bcf	3,5	;RP0=0, select bank0
  8792  0B82  1303               	bcf	3,6	;RP1=0, select bank0
  8793  0B83  00CA               	movwf	?___flmul+5
  8794  0B84  1683               	bsf	3,5	;RP0=1, select bank3
  8795  0B85  1703               	bsf	3,6	;RP1=1, select bank3
  8796  0B86  0848               	movf	_measure_capacitance$5200^(0+384),w
  8797  0B87  1283               	bcf	3,5	;RP0=0, select bank0
  8798  0B88  1303               	bcf	3,6	;RP1=0, select bank0
  8799  0B89  00C9               	movwf	?___flmul+4
  8800  0B8A  120A  118A  264B   	fcall	___flmul
      +       120A  158A         
  8801  0B8F  0848               	movf	?___flmul+3,w
  8802  0B90  1683               	bsf	3,5	;RP0=1, select bank3
  8803  0B91  1703               	bsf	3,6	;RP1=1, select bank3
  8804  0B92  00CF               	movwf	(_measure_capacitance$5201+3)^(0+384)
  8805  0B93  1283               	bcf	3,5	;RP0=0, select bank0
  8806  0B94  1303               	bcf	3,6	;RP1=0, select bank0
  8807  0B95  0847               	movf	?___flmul+2,w
  8808  0B96  1683               	bsf	3,5	;RP0=1, select bank3
  8809  0B97  1703               	bsf	3,6	;RP1=1, select bank3
  8810  0B98  00CE               	movwf	(_measure_capacitance$5201+2)^(0+384)
  8811  0B99  1283               	bcf	3,5	;RP0=0, select bank0
  8812  0B9A  1303               	bcf	3,6	;RP1=0, select bank0
  8813  0B9B  0846               	movf	?___flmul+1,w
  8814  0B9C  1683               	bsf	3,5	;RP0=1, select bank3
  8815  0B9D  1703               	bsf	3,6	;RP1=1, select bank3
  8816  0B9E  00CD               	movwf	(_measure_capacitance$5201+1)^(0+384)
  8817  0B9F  1283               	bcf	3,5	;RP0=0, select bank0
  8818  0BA0  1303               	bcf	3,6	;RP1=0, select bank0
  8819  0BA1  0845               	movf	?___flmul,w
  8820  0BA2  1683               	bsf	3,5	;RP0=1, select bank3
  8821  0BA3  1703               	bsf	3,6	;RP1=1, select bank3
  8822  0BA4  00CC               	movwf	_measure_capacitance$5201^(0+384)
  8823                           
  8824                           ;LC-meter.c: 432: Cin = F2 * F2 * (F1 * F1 - F3 * F3) * CCal;
  8825  0BA5  085A               	movf	(_CCal+3)^(0+384),w
  8826  0BA6  1283               	bcf	3,5	;RP0=0, select bank0
  8827  0BA7  1303               	bcf	3,6	;RP1=0, select bank0
  8828  0BA8  00C8               	movwf	?___flmul+3
  8829  0BA9  1683               	bsf	3,5	;RP0=1, select bank3
  8830  0BAA  1703               	bsf	3,6	;RP1=1, select bank3
  8831  0BAB  0859               	movf	(_CCal+2)^(0+384),w
  8832  0BAC  1283               	bcf	3,5	;RP0=0, select bank0
  8833  0BAD  1303               	bcf	3,6	;RP1=0, select bank0
  8834  0BAE  00C7               	movwf	?___flmul+2
  8835  0BAF  1683               	bsf	3,5	;RP0=1, select bank3
  8836  0BB0  1703               	bsf	3,6	;RP1=1, select bank3
  8837  0BB1  0858               	movf	(_CCal+1)^(0+384),w
  8838  0BB2  1283               	bcf	3,5	;RP0=0, select bank0
  8839  0BB3  1303               	bcf	3,6	;RP1=0, select bank0
  8840  0BB4  00C6               	movwf	?___flmul+1
  8841  0BB5  1683               	bsf	3,5	;RP0=1, select bank3
  8842  0BB6  1703               	bsf	3,6	;RP1=1, select bank3
  8843  0BB7  0857               	movf	_CCal^(0+384),w
  8844  0BB8  1283               	bcf	3,5	;RP0=0, select bank0
  8845  0BB9  1303               	bcf	3,6	;RP1=0, select bank0
  8846  0BBA  00C5               	movwf	?___flmul
  8847  0BBB  1683               	bsf	3,5	;RP0=1, select bank3
  8848  0BBC  1703               	bsf	3,6	;RP1=1, select bank3
  8849  0BBD  084F               	movf	(_measure_capacitance$5201+3)^(0+384),w
  8850  0BBE  1283               	bcf	3,5	;RP0=0, select bank0
  8851  0BBF  1303               	bcf	3,6	;RP1=0, select bank0
  8852  0BC0  00CC               	movwf	?___flmul+7
  8853  0BC1  1683               	bsf	3,5	;RP0=1, select bank3
  8854  0BC2  1703               	bsf	3,6	;RP1=1, select bank3
  8855  0BC3  084E               	movf	(_measure_capacitance$5201+2)^(0+384),w
  8856  0BC4  1283               	bcf	3,5	;RP0=0, select bank0
  8857  0BC5  1303               	bcf	3,6	;RP1=0, select bank0
  8858  0BC6  00CB               	movwf	?___flmul+6
  8859  0BC7  1683               	bsf	3,5	;RP0=1, select bank3
  8860  0BC8  1703               	bsf	3,6	;RP1=1, select bank3
  8861  0BC9  084D               	movf	(_measure_capacitance$5201+1)^(0+384),w
  8862  0BCA  1283               	bcf	3,5	;RP0=0, select bank0
  8863  0BCB  1303               	bcf	3,6	;RP1=0, select bank0
  8864  0BCC  00CA               	movwf	?___flmul+5
  8865  0BCD  1683               	bsf	3,5	;RP0=1, select bank3
  8866  0BCE  1703               	bsf	3,6	;RP1=1, select bank3
  8867  0BCF  084C               	movf	_measure_capacitance$5201^(0+384),w
  8868  0BD0  1283               	bcf	3,5	;RP0=0, select bank0
  8869  0BD1  1303               	bcf	3,6	;RP1=0, select bank0
  8870  0BD2  00C9               	movwf	?___flmul+4
  8871  0BD3  120A  118A  264B   	fcall	___flmul
      +       120A  158A         
  8872  0BD8  0848               	movf	?___flmul+3,w
  8873  0BD9  1683               	bsf	3,5	;RP0=1, select bank3
  8874  0BDA  1703               	bsf	3,6	;RP1=1, select bank3
  8875  0BDB  00D6               	movwf	(measure_capacitance@Cin+3)^(0+384)
  8876  0BDC  1283               	bcf	3,5	;RP0=0, select bank0
  8877  0BDD  1303               	bcf	3,6	;RP1=0, select bank0
  8878  0BDE  0847               	movf	?___flmul+2,w
  8879  0BDF  1683               	bsf	3,5	;RP0=1, select bank3
  8880  0BE0  1703               	bsf	3,6	;RP1=1, select bank3
  8881  0BE1  00D5               	movwf	(measure_capacitance@Cin+2)^(0+384)
  8882  0BE2  1283               	bcf	3,5	;RP0=0, select bank0
  8883  0BE3  1303               	bcf	3,6	;RP1=0, select bank0
  8884  0BE4  0846               	movf	?___flmul+1,w
  8885  0BE5  1683               	bsf	3,5	;RP0=1, select bank3
  8886  0BE6  1703               	bsf	3,6	;RP1=1, select bank3
  8887  0BE7  00D4               	movwf	(measure_capacitance@Cin+1)^(0+384)
  8888  0BE8  1283               	bcf	3,5	;RP0=0, select bank0
  8889  0BE9  1303               	bcf	3,6	;RP1=0, select bank0
  8890  0BEA  0845               	movf	?___flmul,w
  8891  0BEB  1683               	bsf	3,5	;RP0=1, select bank3
  8892  0BEC  1703               	bsf	3,6	;RP1=1, select bank3
  8893  0BED  00D3               	movwf	measure_capacitance@Cin^(0+384)
  8894                           
  8895                           ;LC-meter.c: 436: ser_puts("Cin=");
  8896  0BEE  306D               	movlw	(STR_10-__stringbase)& (0+255)
  8897  0BEF  25B3  120A  158A   	fcall	_ser_puts
  8898                           
  8899                           ;LC-meter.c: 437: format_double( Cin);
  8900  0BF2  1683               	bsf	3,5	;RP0=1, select bank3
  8901  0BF3  1703               	bsf	3,6	;RP1=1, select bank3
  8902  0BF4  0856               	movf	(measure_capacitance@Cin+3)^(0+384),w
  8903  0BF5  1303               	bcf	3,6	;RP1=0, select bank1
  8904  0BF6  00D9               	movwf	(?_format_double+3)^(0+128)
  8905  0BF7  1703               	bsf	3,6	;RP1=1, select bank3
  8906  0BF8  0855               	movf	(measure_capacitance@Cin+2)^(0+384),w
  8907  0BF9  1303               	bcf	3,6	;RP1=0, select bank1
  8908  0BFA  00D8               	movwf	(?_format_double+2)^(0+128)
  8909  0BFB  1703               	bsf	3,6	;RP1=1, select bank3
  8910  0BFC  0854               	movf	(measure_capacitance@Cin+1)^(0+384),w
  8911  0BFD  1303               	bcf	3,6	;RP1=0, select bank1
  8912  0BFE  00D7               	movwf	(?_format_double+1)^(0+128)
  8913  0BFF  1703               	bsf	3,6	;RP1=1, select bank3
  8914  0C00  0853               	movf	measure_capacitance@Cin^(0+384),w
  8915  0C01  1303               	bcf	3,6	;RP1=0, select bank1
  8916  0C02  00D6               	movwf	?_format_double^(0+128)
  8917  0C03  2609  120A  158A   	fcall	_format_double
  8918                           
  8919                           ;LC-meter.c: 438: ser_putch(' ');
  8920  0C06  3020               	movlw	32
  8921  0C07  00F6               	movwf	?_ser_putch
  8922  0C08  25CB  120A  158A   	fcall	_ser_putch
  8923                           
  8924                           ;LC-meter.c: 439: format_xint32( *(uint32_t*)&Cin);
  8925  0C0B  1703               	bsf	3,6	;RP1=1, select bank3
  8926  0C0C  0856               	movf	(measure_capacitance@Cin+3)^(0+384),w
  8927  0C0D  1283               	bcf	3,5	;RP0=0, select bank0
  8928  0C0E  1303               	bcf	3,6	;RP1=0, select bank0
  8929  0C0F  00D0               	movwf	?_format_xint32+3
  8930  0C10  1683               	bsf	3,5	;RP0=1, select bank3
  8931  0C11  1703               	bsf	3,6	;RP1=1, select bank3
  8932  0C12  0855               	movf	(measure_capacitance@Cin+2)^(0+384),w
  8933  0C13  1283               	bcf	3,5	;RP0=0, select bank0
  8934  0C14  1303               	bcf	3,6	;RP1=0, select bank0
  8935  0C15  00CF               	movwf	?_format_xint32+2
  8936  0C16  1683               	bsf	3,5	;RP0=1, select bank3
  8937  0C17  1703               	bsf	3,6	;RP1=1, select bank3
  8938  0C18  0854               	movf	(measure_capacitance@Cin+1)^(0+384),w
  8939  0C19  1283               	bcf	3,5	;RP0=0, select bank0
  8940  0C1A  1303               	bcf	3,6	;RP1=0, select bank0
  8941  0C1B  00CE               	movwf	?_format_xint32+1
  8942  0C1C  1683               	bsf	3,5	;RP0=1, select bank3
  8943  0C1D  1703               	bsf	3,6	;RP1=1, select bank3
  8944  0C1E  0853               	movf	measure_capacitance@Cin^(0+384),w
  8945  0C1F  1283               	bcf	3,5	;RP0=0, select bank0
  8946  0C20  1303               	bcf	3,6	;RP1=0, select bank0
  8947  0C21  00CD               	movwf	?_format_xint32
  8948  0C22  25DF  120A  158A   	fcall	_format_xint32
  8949                           
  8950                           ;LC-meter.c: 440: ser_puts("\r\n");
  8951  0C25  3058               	movlw	((STR_1+3)-__stringbase)& (0+255)
  8952  0C26  25B3  120A  158A   	fcall	_ser_puts
  8953                           
  8954                           ;LC-meter.c: 442: if(Cin > 999) {
  8955  0C29  3044               	movlw	68
  8956  0C2A  1283               	bcf	3,5	;RP0=0, select bank0
  8957  0C2B  1303               	bcf	3,6	;RP1=0, select bank0
  8958  0C2C  00A3               	movwf	?___flge+3
  8959  0C2D  3079               	movlw	121
  8960  0C2E  00A2               	movwf	?___flge+2
  8961  0C2F  30C0               	movlw	192
  8962  0C30  00A1               	movwf	?___flge+1
  8963  0C31  01A0               	clrf	?___flge
  8964  0C32  1683               	bsf	3,5	;RP0=1, select bank3
  8965  0C33  1703               	bsf	3,6	;RP1=1, select bank3
  8966  0C34  0856               	movf	(measure_capacitance@Cin+3)^(0+384),w
  8967  0C35  1283               	bcf	3,5	;RP0=0, select bank0
  8968  0C36  1303               	bcf	3,6	;RP1=0, select bank0
  8969  0C37  00A7               	movwf	?___flge+7
  8970  0C38  1683               	bsf	3,5	;RP0=1, select bank3
  8971  0C39  1703               	bsf	3,6	;RP1=1, select bank3
  8972  0C3A  0855               	movf	(measure_capacitance@Cin+2)^(0+384),w
  8973  0C3B  1283               	bcf	3,5	;RP0=0, select bank0
  8974  0C3C  1303               	bcf	3,6	;RP1=0, select bank0
  8975  0C3D  00A6               	movwf	?___flge+6
  8976  0C3E  1683               	bsf	3,5	;RP0=1, select bank3
  8977  0C3F  1703               	bsf	3,6	;RP1=1, select bank3
  8978  0C40  0854               	movf	(measure_capacitance@Cin+1)^(0+384),w
  8979  0C41  1283               	bcf	3,5	;RP0=0, select bank0
  8980  0C42  1303               	bcf	3,6	;RP1=0, select bank0
  8981  0C43  00A5               	movwf	?___flge+5
  8982  0C44  1683               	bsf	3,5	;RP0=1, select bank3
  8983  0C45  1703               	bsf	3,6	;RP1=1, select bank3
  8984  0C46  0853               	movf	measure_capacitance@Cin^(0+384),w
  8985  0C47  1283               	bcf	3,5	;RP0=0, select bank0
  8986  0C48  1303               	bcf	3,6	;RP1=0, select bank0
  8987  0C49  00A4               	movwf	?___flge+4
  8988  0C4A  2739  120A  158A   	fcall	___flge
  8989  0C4D  1803               	btfsc	3,0
  8990  0C4E  2D47               	goto	l8919
  8991                           
  8992                           ;LC-meter.c: 443: if(Cin > (999e+03l)) {
  8993  0C4F  3049               	movlw	73
  8994  0C50  00A3               	movwf	?___flge+3
  8995  0C51  3073               	movlw	115
  8996  0C52  00A2               	movwf	?___flge+2
  8997  0C53  30E5               	movlw	229
  8998  0C54  00A1               	movwf	?___flge+1
  8999  0C55  3080               	movlw	128
  9000  0C56  00A0               	movwf	?___flge
  9001  0C57  1683               	bsf	3,5	;RP0=1, select bank3
  9002  0C58  1703               	bsf	3,6	;RP1=1, select bank3
  9003  0C59  0856               	movf	(measure_capacitance@Cin+3)^(0+384),w
  9004  0C5A  1283               	bcf	3,5	;RP0=0, select bank0
  9005  0C5B  1303               	bcf	3,6	;RP1=0, select bank0
  9006  0C5C  00A7               	movwf	?___flge+7
  9007  0C5D  1683               	bsf	3,5	;RP0=1, select bank3
  9008  0C5E  1703               	bsf	3,6	;RP1=1, select bank3
  9009  0C5F  0855               	movf	(measure_capacitance@Cin+2)^(0+384),w
  9010  0C60  1283               	bcf	3,5	;RP0=0, select bank0
  9011  0C61  1303               	bcf	3,6	;RP1=0, select bank0
  9012  0C62  00A6               	movwf	?___flge+6
  9013  0C63  1683               	bsf	3,5	;RP0=1, select bank3
  9014  0C64  1703               	bsf	3,6	;RP1=1, select bank3
  9015  0C65  0854               	movf	(measure_capacitance@Cin+1)^(0+384),w
  9016  0C66  1283               	bcf	3,5	;RP0=0, select bank0
  9017  0C67  1303               	bcf	3,6	;RP1=0, select bank0
  9018  0C68  00A5               	movwf	?___flge+5
  9019  0C69  1683               	bsf	3,5	;RP0=1, select bank3
  9020  0C6A  1703               	bsf	3,6	;RP1=1, select bank3
  9021  0C6B  0853               	movf	measure_capacitance@Cin^(0+384),w
  9022  0C6C  1283               	bcf	3,5	;RP0=0, select bank0
  9023  0C6D  1303               	bcf	3,6	;RP1=0, select bank0
  9024  0C6E  00A4               	movwf	?___flge+4
  9025  0C6F  2739  120A  158A   	fcall	___flge
  9026  0C72  1803               	btfsc	3,0
  9027  0C73  2D0E               	goto	l8915
  9028                           
  9029                           ;LC-meter.c: 444: if(Cin > (999e+06l)) {
  9030  0C74  304E               	movlw	78
  9031  0C75  00A3               	movwf	?___flge+3
  9032  0C76  306E               	movlw	110
  9033  0C77  00A2               	movwf	?___flge+2
  9034  0C78  302E               	movlw	46
  9035  0C79  00A1               	movwf	?___flge+1
  9036  0C7A  301F               	movlw	31
  9037  0C7B  00A0               	movwf	?___flge
  9038  0C7C  1683               	bsf	3,5	;RP0=1, select bank3
  9039  0C7D  1703               	bsf	3,6	;RP1=1, select bank3
  9040  0C7E  0856               	movf	(measure_capacitance@Cin+3)^(0+384),w
  9041  0C7F  1283               	bcf	3,5	;RP0=0, select bank0
  9042  0C80  1303               	bcf	3,6	;RP1=0, select bank0
  9043  0C81  00A7               	movwf	?___flge+7
  9044  0C82  1683               	bsf	3,5	;RP0=1, select bank3
  9045  0C83  1703               	bsf	3,6	;RP1=1, select bank3
  9046  0C84  0855               	movf	(measure_capacitance@Cin+2)^(0+384),w
  9047  0C85  1283               	bcf	3,5	;RP0=0, select bank0
  9048  0C86  1303               	bcf	3,6	;RP1=0, select bank0
  9049  0C87  00A6               	movwf	?___flge+6
  9050  0C88  1683               	bsf	3,5	;RP0=1, select bank3
  9051  0C89  1703               	bsf	3,6	;RP1=1, select bank3
  9052  0C8A  0854               	movf	(measure_capacitance@Cin+1)^(0+384),w
  9053  0C8B  1283               	bcf	3,5	;RP0=0, select bank0
  9054  0C8C  1303               	bcf	3,6	;RP1=0, select bank0
  9055  0C8D  00A5               	movwf	?___flge+5
  9056  0C8E  1683               	bsf	3,5	;RP0=1, select bank3
  9057  0C8F  1703               	bsf	3,6	;RP1=1, select bank3
  9058  0C90  0853               	movf	measure_capacitance@Cin^(0+384),w
  9059  0C91  1283               	bcf	3,5	;RP0=0, select bank0
  9060  0C92  1303               	bcf	3,6	;RP1=0, select bank0
  9061  0C93  00A4               	movwf	?___flge+4
  9062  0C94  2739  120A  158A   	fcall	___flge
  9063  0C97  1803               	btfsc	3,0
  9064  0C98  2CD4               	goto	l8911
  9065                           
  9066                           ;LC-meter.c: 445: Cin = Cin / (1e+09l);
  9067  0C99  304E               	movlw	78
  9068  0C9A  00B5               	movwf	?___fldiv+3
  9069  0C9B  306E               	movlw	110
  9070  0C9C  00B4               	movwf	?___fldiv+2
  9071  0C9D  306B               	movlw	107
  9072  0C9E  00B3               	movwf	?___fldiv+1
  9073  0C9F  3028               	movlw	40
  9074  0CA0  00B2               	movwf	?___fldiv
  9075  0CA1  1683               	bsf	3,5	;RP0=1, select bank3
  9076  0CA2  1703               	bsf	3,6	;RP1=1, select bank3
  9077  0CA3  0856               	movf	(measure_capacitance@Cin+3)^(0+384),w
  9078  0CA4  1283               	bcf	3,5	;RP0=0, select bank0
  9079  0CA5  1303               	bcf	3,6	;RP1=0, select bank0
  9080  0CA6  00B9               	movwf	?___fldiv+7
  9081  0CA7  1683               	bsf	3,5	;RP0=1, select bank3
  9082  0CA8  1703               	bsf	3,6	;RP1=1, select bank3
  9083  0CA9  0855               	movf	(measure_capacitance@Cin+2)^(0+384),w
  9084  0CAA  1283               	bcf	3,5	;RP0=0, select bank0
  9085  0CAB  1303               	bcf	3,6	;RP1=0, select bank0
  9086  0CAC  00B8               	movwf	?___fldiv+6
  9087  0CAD  1683               	bsf	3,5	;RP0=1, select bank3
  9088  0CAE  1703               	bsf	3,6	;RP1=1, select bank3
  9089  0CAF  0854               	movf	(measure_capacitance@Cin+1)^(0+384),w
  9090  0CB0  1283               	bcf	3,5	;RP0=0, select bank0
  9091  0CB1  1303               	bcf	3,6	;RP1=0, select bank0
  9092  0CB2  00B7               	movwf	?___fldiv+5
  9093  0CB3  1683               	bsf	3,5	;RP0=1, select bank3
  9094  0CB4  1703               	bsf	3,6	;RP1=1, select bank3
  9095  0CB5  0853               	movf	measure_capacitance@Cin^(0+384),w
  9096  0CB6  1283               	bcf	3,5	;RP0=0, select bank0
  9097  0CB7  1303               	bcf	3,6	;RP1=0, select bank0
  9098  0CB8  00B6               	movwf	?___fldiv+4
  9099  0CB9  2785  120A  158A   	fcall	___fldiv
  9100  0CBC  0835               	movf	?___fldiv+3,w
  9101  0CBD  1683               	bsf	3,5	;RP0=1, select bank3
  9102  0CBE  1703               	bsf	3,6	;RP1=1, select bank3
  9103  0CBF  00D6               	movwf	(measure_capacitance@Cin+3)^(0+384)
  9104  0CC0  1283               	bcf	3,5	;RP0=0, select bank0
  9105  0CC1  1303               	bcf	3,6	;RP1=0, select bank0
  9106  0CC2  0834               	movf	?___fldiv+2,w
  9107  0CC3  1683               	bsf	3,5	;RP0=1, select bank3
  9108  0CC4  1703               	bsf	3,6	;RP1=1, select bank3
  9109  0CC5  00D5               	movwf	(measure_capacitance@Cin+2)^(0+384)
  9110  0CC6  1283               	bcf	3,5	;RP0=0, select bank0
  9111  0CC7  1303               	bcf	3,6	;RP1=0, select bank0
  9112  0CC8  0833               	movf	?___fldiv+1,w
  9113  0CC9  1683               	bsf	3,5	;RP0=1, select bank3
  9114  0CCA  1703               	bsf	3,6	;RP1=1, select bank3
  9115  0CCB  00D4               	movwf	(measure_capacitance@Cin+1)^(0+384)
  9116  0CCC  1283               	bcf	3,5	;RP0=0, select bank0
  9117  0CCD  1303               	bcf	3,6	;RP1=0, select bank0
  9118  0CCE  0832               	movf	?___fldiv,w
  9119  0CCF  1683               	bsf	3,5	;RP0=1, select bank3
  9120  0CD0  1703               	bsf	3,6	;RP1=1, select bank3
  9121  0CD1  00D3               	movwf	measure_capacitance@Cin^(0+384)
  9122                           
  9123                           ;LC-meter.c: 446: unit = 4;
  9124  0CD2  3004               	movlw	4
  9125  0CD3  2D4A               	goto	L1
  9126  0CD4                     l8911:	
  9127                           ;LC-meter.c: 447: } else {
  9128                           
  9129                           
  9130                           ;LC-meter.c: 448: Cin = Cin / (1e+06l);
  9131  0CD4  3049               	movlw	73
  9132  0CD5  00B5               	movwf	?___fldiv+3
  9133  0CD6  3074               	movlw	116
  9134  0CD7  00B4               	movwf	?___fldiv+2
  9135  0CD8  3024               	movlw	36
  9136  0CD9  00B3               	movwf	?___fldiv+1
  9137  0CDA  01B2               	clrf	?___fldiv
  9138  0CDB  1683               	bsf	3,5	;RP0=1, select bank3
  9139  0CDC  1703               	bsf	3,6	;RP1=1, select bank3
  9140  0CDD  0856               	movf	(measure_capacitance@Cin+3)^(0+384),w
  9141  0CDE  1283               	bcf	3,5	;RP0=0, select bank0
  9142  0CDF  1303               	bcf	3,6	;RP1=0, select bank0
  9143  0CE0  00B9               	movwf	?___fldiv+7
  9144  0CE1  1683               	bsf	3,5	;RP0=1, select bank3
  9145  0CE2  1703               	bsf	3,6	;RP1=1, select bank3
  9146  0CE3  0855               	movf	(measure_capacitance@Cin+2)^(0+384),w
  9147  0CE4  1283               	bcf	3,5	;RP0=0, select bank0
  9148  0CE5  1303               	bcf	3,6	;RP1=0, select bank0
  9149  0CE6  00B8               	movwf	?___fldiv+6
  9150  0CE7  1683               	bsf	3,5	;RP0=1, select bank3
  9151  0CE8  1703               	bsf	3,6	;RP1=1, select bank3
  9152  0CE9  0854               	movf	(measure_capacitance@Cin+1)^(0+384),w
  9153  0CEA  1283               	bcf	3,5	;RP0=0, select bank0
  9154  0CEB  1303               	bcf	3,6	;RP1=0, select bank0
  9155  0CEC  00B7               	movwf	?___fldiv+5
  9156  0CED  1683               	bsf	3,5	;RP0=1, select bank3
  9157  0CEE  1703               	bsf	3,6	;RP1=1, select bank3
  9158  0CEF  0853               	movf	measure_capacitance@Cin^(0+384),w
  9159  0CF0  1283               	bcf	3,5	;RP0=0, select bank0
  9160  0CF1  1303               	bcf	3,6	;RP1=0, select bank0
  9161  0CF2  00B6               	movwf	?___fldiv+4
  9162  0CF3  2785  120A  158A   	fcall	___fldiv
  9163  0CF6  0835               	movf	?___fldiv+3,w
  9164  0CF7  1683               	bsf	3,5	;RP0=1, select bank3
  9165  0CF8  1703               	bsf	3,6	;RP1=1, select bank3
  9166  0CF9  00D6               	movwf	(measure_capacitance@Cin+3)^(0+384)
  9167  0CFA  1283               	bcf	3,5	;RP0=0, select bank0
  9168  0CFB  1303               	bcf	3,6	;RP1=0, select bank0
  9169  0CFC  0834               	movf	?___fldiv+2,w
  9170  0CFD  1683               	bsf	3,5	;RP0=1, select bank3
  9171  0CFE  1703               	bsf	3,6	;RP1=1, select bank3
  9172  0CFF  00D5               	movwf	(measure_capacitance@Cin+2)^(0+384)
  9173  0D00  1283               	bcf	3,5	;RP0=0, select bank0
  9174  0D01  1303               	bcf	3,6	;RP1=0, select bank0
  9175  0D02  0833               	movf	?___fldiv+1,w
  9176  0D03  1683               	bsf	3,5	;RP0=1, select bank3
  9177  0D04  1703               	bsf	3,6	;RP1=1, select bank3
  9178  0D05  00D4               	movwf	(measure_capacitance@Cin+1)^(0+384)
  9179  0D06  1283               	bcf	3,5	;RP0=0, select bank0
  9180  0D07  1303               	bcf	3,6	;RP1=0, select bank0
  9181  0D08  0832               	movf	?___fldiv,w
  9182  0D09  1683               	bsf	3,5	;RP0=1, select bank3
  9183  0D0A  1703               	bsf	3,6	;RP1=1, select bank3
  9184  0D0B  00D3               	movwf	measure_capacitance@Cin^(0+384)
  9185                           
  9186                           ;LC-meter.c: 449: unit = 5;
  9187  0D0C  3005               	movlw	5
  9188  0D0D  2D4A               	goto	L1
  9189  0D0E                     l8915:	
  9190                           
  9191                           ;LC-meter.c: 452: Cin = Cin / 1e+03l;
  9192  0D0E  3044               	movlw	68
  9193  0D0F  00B5               	movwf	?___fldiv+3
  9194  0D10  307A               	movlw	122
  9195  0D11  00B4               	movwf	?___fldiv+2
  9196  0D12  01B3               	clrf	?___fldiv+1
  9197  0D13  01B2               	clrf	?___fldiv
  9198  0D14  1683               	bsf	3,5	;RP0=1, select bank3
  9199  0D15  1703               	bsf	3,6	;RP1=1, select bank3
  9200  0D16  0856               	movf	(measure_capacitance@Cin+3)^(0+384),w
  9201  0D17  1283               	bcf	3,5	;RP0=0, select bank0
  9202  0D18  1303               	bcf	3,6	;RP1=0, select bank0
  9203  0D19  00B9               	movwf	?___fldiv+7
  9204  0D1A  1683               	bsf	3,5	;RP0=1, select bank3
  9205  0D1B  1703               	bsf	3,6	;RP1=1, select bank3
  9206  0D1C  0855               	movf	(measure_capacitance@Cin+2)^(0+384),w
  9207  0D1D  1283               	bcf	3,5	;RP0=0, select bank0
  9208  0D1E  1303               	bcf	3,6	;RP1=0, select bank0
  9209  0D1F  00B8               	movwf	?___fldiv+6
  9210  0D20  1683               	bsf	3,5	;RP0=1, select bank3
  9211  0D21  1703               	bsf	3,6	;RP1=1, select bank3
  9212  0D22  0854               	movf	(measure_capacitance@Cin+1)^(0+384),w
  9213  0D23  1283               	bcf	3,5	;RP0=0, select bank0
  9214  0D24  1303               	bcf	3,6	;RP1=0, select bank0
  9215  0D25  00B7               	movwf	?___fldiv+5
  9216  0D26  1683               	bsf	3,5	;RP0=1, select bank3
  9217  0D27  1703               	bsf	3,6	;RP1=1, select bank3
  9218  0D28  0853               	movf	measure_capacitance@Cin^(0+384),w
  9219  0D29  1283               	bcf	3,5	;RP0=0, select bank0
  9220  0D2A  1303               	bcf	3,6	;RP1=0, select bank0
  9221  0D2B  00B6               	movwf	?___fldiv+4
  9222  0D2C  2785  120A  158A   	fcall	___fldiv
  9223  0D2F  0835               	movf	?___fldiv+3,w
  9224  0D30  1683               	bsf	3,5	;RP0=1, select bank3
  9225  0D31  1703               	bsf	3,6	;RP1=1, select bank3
  9226  0D32  00D6               	movwf	(measure_capacitance@Cin+3)^(0+384)
  9227  0D33  1283               	bcf	3,5	;RP0=0, select bank0
  9228  0D34  1303               	bcf	3,6	;RP1=0, select bank0
  9229  0D35  0834               	movf	?___fldiv+2,w
  9230  0D36  1683               	bsf	3,5	;RP0=1, select bank3
  9231  0D37  1703               	bsf	3,6	;RP1=1, select bank3
  9232  0D38  00D5               	movwf	(measure_capacitance@Cin+2)^(0+384)
  9233  0D39  1283               	bcf	3,5	;RP0=0, select bank0
  9234  0D3A  1303               	bcf	3,6	;RP1=0, select bank0
  9235  0D3B  0833               	movf	?___fldiv+1,w
  9236  0D3C  1683               	bsf	3,5	;RP0=1, select bank3
  9237  0D3D  1703               	bsf	3,6	;RP1=1, select bank3
  9238  0D3E  00D4               	movwf	(measure_capacitance@Cin+1)^(0+384)
  9239  0D3F  1283               	bcf	3,5	;RP0=0, select bank0
  9240  0D40  1303               	bcf	3,6	;RP1=0, select bank0
  9241  0D41  0832               	movf	?___fldiv,w
  9242  0D42  1683               	bsf	3,5	;RP0=1, select bank3
  9243  0D43  1703               	bsf	3,6	;RP1=1, select bank3
  9244  0D44  00D3               	movwf	measure_capacitance@Cin^(0+384)
  9245                           
  9246                           ;LC-meter.c: 453: unit = 6;
  9247  0D45  3006               	movlw	6
  9248  0D46  2D4A               	goto	L1
  9249  0D47                     l8919:	
  9250                           
  9251                           ;LC-meter.c: 456: unit = 7;
  9252  0D47  3007               	movlw	7
  9253  0D48  1683               	bsf	3,5	;RP0=1, select bank3
  9254  0D49  1703               	bsf	3,6	;RP1=1, select bank3
  9255  0D4A                     L1:	
  9256  0D4A  00D0               	movwf	measure_capacitance@unit^(0+384)
  9257                           
  9258                           ;LC-meter.c: 458: Cin = Cin * 100;
  9259  0D4B  3042               	movlw	66
  9260  0D4C  1283               	bcf	3,5	;RP0=0, select bank0
  9261  0D4D  1303               	bcf	3,6	;RP1=0, select bank0
  9262  0D4E  00C8               	movwf	?___flmul+3
  9263  0D4F  30C8               	movlw	200
  9264  0D50  00C7               	movwf	?___flmul+2
  9265  0D51  01C6               	clrf	?___flmul+1
  9266  0D52  01C5               	clrf	?___flmul
  9267  0D53  1683               	bsf	3,5	;RP0=1, select bank3
  9268  0D54  1703               	bsf	3,6	;RP1=1, select bank3
  9269  0D55  0856               	movf	(measure_capacitance@Cin+3)^(0+384),w
  9270  0D56  1283               	bcf	3,5	;RP0=0, select bank0
  9271  0D57  1303               	bcf	3,6	;RP1=0, select bank0
  9272  0D58  00CC               	movwf	?___flmul+7
  9273  0D59  1683               	bsf	3,5	;RP0=1, select bank3
  9274  0D5A  1703               	bsf	3,6	;RP1=1, select bank3
  9275  0D5B  0855               	movf	(measure_capacitance@Cin+2)^(0+384),w
  9276  0D5C  1283               	bcf	3,5	;RP0=0, select bank0
  9277  0D5D  1303               	bcf	3,6	;RP1=0, select bank0
  9278  0D5E  00CB               	movwf	?___flmul+6
  9279  0D5F  1683               	bsf	3,5	;RP0=1, select bank3
  9280  0D60  1703               	bsf	3,6	;RP1=1, select bank3
  9281  0D61  0854               	movf	(measure_capacitance@Cin+1)^(0+384),w
  9282  0D62  1283               	bcf	3,5	;RP0=0, select bank0
  9283  0D63  1303               	bcf	3,6	;RP1=0, select bank0
  9284  0D64  00CA               	movwf	?___flmul+5
  9285  0D65  1683               	bsf	3,5	;RP0=1, select bank3
  9286  0D66  1703               	bsf	3,6	;RP1=1, select bank3
  9287  0D67  0853               	movf	measure_capacitance@Cin^(0+384),w
  9288  0D68  1283               	bcf	3,5	;RP0=0, select bank0
  9289  0D69  1303               	bcf	3,6	;RP1=0, select bank0
  9290  0D6A  00C9               	movwf	?___flmul+4
  9291  0D6B  120A  118A  264B   	fcall	___flmul
      +       120A  158A         
  9292  0D70  0848               	movf	?___flmul+3,w
  9293  0D71  1683               	bsf	3,5	;RP0=1, select bank3
  9294  0D72  1703               	bsf	3,6	;RP1=1, select bank3
  9295  0D73  00D6               	movwf	(measure_capacitance@Cin+3)^(0+384)
  9296  0D74  1283               	bcf	3,5	;RP0=0, select bank0
  9297  0D75  1303               	bcf	3,6	;RP1=0, select bank0
  9298  0D76  0847               	movf	?___flmul+2,w
  9299  0D77  1683               	bsf	3,5	;RP0=1, select bank3
  9300  0D78  1703               	bsf	3,6	;RP1=1, select bank3
  9301  0D79  00D5               	movwf	(measure_capacitance@Cin+2)^(0+384)
  9302  0D7A  1283               	bcf	3,5	;RP0=0, select bank0
  9303  0D7B  1303               	bcf	3,6	;RP1=0, select bank0
  9304  0D7C  0846               	movf	?___flmul+1,w
  9305  0D7D  1683               	bsf	3,5	;RP0=1, select bank3
  9306  0D7E  1703               	bsf	3,6	;RP1=1, select bank3
  9307  0D7F  00D4               	movwf	(measure_capacitance@Cin+1)^(0+384)
  9308  0D80  1283               	bcf	3,5	;RP0=0, select bank0
  9309  0D81  1303               	bcf	3,6	;RP1=0, select bank0
  9310  0D82  0845               	movf	?___flmul,w
  9311  0D83  1683               	bsf	3,5	;RP0=1, select bank3
  9312  0D84  1703               	bsf	3,6	;RP1=1, select bank3
  9313  0D85  00D3               	movwf	measure_capacitance@Cin^(0+384)
  9314                           
  9315                           ;LC-meter.c: 459: var = (uint16_t)Cin;
  9316  0D86  0856               	movf	(measure_capacitance@Cin+3)^(0+384),w
  9317  0D87  1283               	bcf	3,5	;RP0=0, select bank0
  9318  0D88  1303               	bcf	3,6	;RP1=0, select bank0
  9319  0D89  00AB               	movwf	?___fltol+3
  9320  0D8A  1683               	bsf	3,5	;RP0=1, select bank3
  9321  0D8B  1703               	bsf	3,6	;RP1=1, select bank3
  9322  0D8C  0855               	movf	(measure_capacitance@Cin+2)^(0+384),w
  9323  0D8D  1283               	bcf	3,5	;RP0=0, select bank0
  9324  0D8E  1303               	bcf	3,6	;RP1=0, select bank0
  9325  0D8F  00AA               	movwf	?___fltol+2
  9326  0D90  1683               	bsf	3,5	;RP0=1, select bank3
  9327  0D91  1703               	bsf	3,6	;RP1=1, select bank3
  9328  0D92  0854               	movf	(measure_capacitance@Cin+1)^(0+384),w
  9329  0D93  1283               	bcf	3,5	;RP0=0, select bank0
  9330  0D94  1303               	bcf	3,6	;RP1=0, select bank0
  9331  0D95  00A9               	movwf	?___fltol+1
  9332  0D96  1683               	bsf	3,5	;RP0=1, select bank3
  9333  0D97  1703               	bsf	3,6	;RP1=1, select bank3
  9334  0D98  0853               	movf	measure_capacitance@Cin^(0+384),w
  9335  0D99  1283               	bcf	3,5	;RP0=0, select bank0
  9336  0D9A  1303               	bcf	3,6	;RP1=0, select bank0
  9337  0D9B  00A8               	movwf	?___fltol
  9338  0D9C  160A  118A  23A3   	fcall	___fltol
      +       120A  158A         
  9339  0DA1  0829               	movf	?___fltol+1,w
  9340  0DA2  1683               	bsf	3,5	;RP0=1, select bank3
  9341  0DA3  1703               	bsf	3,6	;RP1=1, select bank3
  9342  0DA4  00D2               	movwf	(measure_capacitance@var+1)^(0+384)
  9343  0DA5  1283               	bcf	3,5	;RP0=0, select bank0
  9344  0DA6  1303               	bcf	3,6	;RP1=0, select bank0
  9345  0DA7  0828               	movf	?___fltol,w
  9346  0DA8  1683               	bsf	3,5	;RP0=1, select bank3
  9347  0DA9  1703               	bsf	3,6	;RP1=1, select bank3
  9348  0DAA  00D1               	movwf	measure_capacitance@var^(0+384)
  9349                           
  9350                           ;LC-meter.c: 461: print_reading(var);
  9351  0DAB  0852               	movf	(measure_capacitance@var+1)^(0+384),w
  9352  0DAC  00F5               	movwf	?_print_reading+1
  9353  0DAD  0851               	movf	measure_capacitance@var^(0+384),w
  9354  0DAE  00F4               	movwf	?_print_reading
  9355                           
  9356                           ;LC-meter.c: 462: print_unit(unit);
  9357  0DAF  0850               	movf	measure_capacitance@unit^(0+384),w
  9358  0DB0  120A  118A  2EFF   	ljmp	l630
  9359  0DB3                     __end_of_measure_capacitance:	
  9360  0DB3                     __ptext1141:	
  9361 ;; =============== function _output_putch ends ============
  9362                           
  9363                           
  9364 ;; *************** function _ser_puts *****************
  9365 ;; Defined at:
  9366 ;;		line 92 in file "../../../lib/ser.c"
  9367 ;; Parameters:    Size  Location     Type
  9368 ;;  s               1    wreg     PTR const unsigned char 
  9369 ;;		 -> STR_11(3), STR_10(5), STR_9(3), STR_8(8), 
  9370 ;;		 -> STR_7(6), STR_6(6), STR_5(6), STR_4(5), 
  9371 ;;		 -> STR_3(3), STR_2(3), STR_1(6), 
  9372 ;; Auto vars:     Size  Location     Type
  9373 ;;  s               1    4[COMMON] PTR const unsigned char 
  9374 ;;		 -> STR_11(3), STR_10(5), STR_9(3), STR_8(8), 
  9375 ;;		 -> STR_7(6), STR_6(6), STR_5(6), STR_4(5), 
  9376 ;;		 -> STR_3(3), STR_2(3), STR_1(6), 
  9377 ;; Return value:  Size  Location     Type
  9378 ;;		None               void
  9379 ;; Registers used:
  9380 ;;		wreg, fsr0l, fsr0h, status,2, status,0, pclath, cstack
  9381 ;; Tracked objects:
  9382 ;;		On entry : 0/0
  9383 ;;		On exit  : 0/0
  9384 ;;		Unchanged: FFE9F/0
  9385 ;; Data sizes:     COMMON   BANK0   BANK1   BANK3   BANK2
  9386 ;;      Params:         0       0       0       0       0
  9387 ;;      Locals:         1       0       0       0       0
  9388 ;;      Temps:          0       0       0       0       0
  9389 ;;      Totals:         1       0       0       0       0
  9390 ;;Total ram usage:        1 bytes
  9391 ;; Hardware stack levels used:    1
  9392 ;; Hardware stack levels required when called:    2
  9393 ;; This function calls:
  9394 ;;		_ser_putch
  9395 ;; This function is called by:
  9396 ;;		_main
  9397 ;;		_calibrate
  9398 ;;		_measure_capacitance
  9399 ;; This function uses a non-reentrant model
  9400 ;;
  9401  0DB3                     _ser_puts:	
  9402                           
  9403                           ; Regs used in _ser_puts: [wreg-fsr0h+status,2+status,0+pclath+cstack]
  9404                           ;ser_puts@s stored from wreg
  9405  0DB3  00F5               	movwf	ser_puts@s
  9406  0DB4                     l7251:	
  9407                           ;ser.c: 93: while(*s) ser_putch(*s++);
  9408                           
  9409  0DB4  0875               	movf	ser_puts@s,w
  9410  0DB5  0084               	movwf	4
  9411  0DB6  160A  158A  2000   	fcall	stringdir
      +       120A  158A         
  9412  0DBB  3800               	iorlw	0
  9413  0DBC  1903               	btfsc	3,2
  9414  0DBD  0008               	return
  9415  0DBE  0875               	movf	ser_puts@s,w
  9416  0DBF  0084               	movwf	4
  9417  0DC0  160A  158A  2000   	fcall	stringdir
      +       120A  158A         
  9418  0DC5  00F6               	movwf	?_ser_putch
  9419  0DC6  25CB  120A  158A   	fcall	_ser_putch
  9420  0DC9  0AF5               	incf	ser_puts@s,f
  9421  0DCA  2DB4               	goto	l7251
  9422  0DCB                     __end_of_ser_puts:	
  9423  0DCB                     __ptext1139:	
  9424 ;; =============== function _format_putchar ends ============
  9425                           
  9426                           
  9427 ;; *************** function _ser_putch *****************
  9428 ;; Defined at:
  9429 ;;		line 82 in file "../../../lib/ser.c"
  9430 ;; Parameters:    Size  Location     Type
  9431 ;;  c               1    5[COMMON] unsigned char 
  9432 ;; Auto vars:     Size  Location     Type
  9433 ;;		None
  9434 ;; Return value:  Size  Location     Type
  9435 ;;		None               void
  9436 ;; Registers used:
  9437 ;;		wreg, fsr0l, fsr0h, status,2, status,0
  9438 ;; Tracked objects:
  9439 ;;		On entry : 0/0
  9440 ;;		On exit  : 160/120
  9441 ;;		Unchanged: FFE9F/0
  9442 ;; Data sizes:     COMMON   BANK0   BANK1   BANK3   BANK2
  9443 ;;      Params:         1       0       0       0       0
  9444 ;;      Locals:         0       0       0       0       0
  9445 ;;      Temps:          0       0       0       0       0
  9446 ;;      Totals:         1       0       0       0       0
  9447 ;;Total ram usage:        1 bytes
  9448 ;; Hardware stack levels used:    1
  9449 ;; Hardware stack levels required when called:    1
  9450 ;; This function calls:
  9451 ;;		Nothing
  9452 ;; This function is called by:
  9453 ;;		_ser_puts
  9454 ;;		_output_putch
  9455 ;;		_measure_capacitance
  9456 ;;		_format_number
  9457 ;;		_format_xint32
  9458 ;;		_format_double
  9459 ;; This function uses a non-reentrant model
  9460 ;;
  9461  0DCB                     _ser_putch:	
  9462  0DCB                     l6973:	
  9463                           ;ser.c: 83: while(((txiptr + 1) & ((uint8_t)16 - 1)) == txoptr) continue;
  9464                           
  9465                           ; Regs used in _ser_putch: [wreg-fsr0h+status,2+status,0]
  9466                           
  9467  0DCB  0A79               	incf	_txiptr,w	;volatile
  9468  0DCC  390F               	andlw	15
  9469  0DCD  067A               	xorwf	_txoptr,w	;volatile
  9470  0DCE  1903               	skipnz
  9471  0DCF  2DCB               	goto	l6973
  9472                           
  9473                           ;ser.c: 84: GIE = 0;
  9474  0DD0  138B               	bcf	11,7
  9475                           
  9476                           ;ser.c: 85: txfifo[txiptr] = c;
  9477  0DD1  0879               	movf	_txiptr,w
  9478  0DD2  3EA0               	addlw	_txfifo& (0+255)
  9479  0DD3  0084               	movwf	4
  9480  0DD4  0876               	movf	ser_putch@c,w
  9481  0DD5  1783               	bsf	3,7	;select IRP bank3
  9482  0DD6  0080               	movwf	0
  9483                           
  9484                           ;ser.c: 86: txiptr = (txiptr + 1) & ((uint8_t)16 - 1);
  9485  0DD7  0AF9               	incf	_txiptr,f	;volatile
  9486  0DD8  300F               	movlw	15
  9487  0DD9  05F9               	andwf	_txiptr,f	;volatile
  9488                           
  9489                           ;ser.c: 87: TXIE = 1;
  9490  0DDA  1683               	bsf	3,5	;RP0=1, select bank1
  9491  0DDB  1303               	bcf	3,6	;RP1=0, select bank1
  9492  0DDC  160C               	bsf	12,4
  9493                           
  9494                           ;ser.c: 88: GIE = 1;
  9495  0DDD  178B               	bsf	11,7
  9496  0DDE  0008               	return
  9497  0DDF                     __end_of_ser_putch:	
  9498  0DDF                     __ptext1122:	
  9499 ;; =============== function _measure_inductance ends ============
  9500                           
  9501                           
  9502 ;; *************** function _format_xint32 *****************
  9503 ;; Defined at:
  9504 ;;		line 48 in file "../../../lib/format.c"
  9505 ;; Parameters:    Size  Location     Type
  9506 ;;  x               4   45[BANK0 ] unsigned long 
  9507 ;; Auto vars:     Size  Location     Type
  9508 ;;		None
  9509 ;; Return value:  Size  Location     Type
  9510 ;;		None               void
  9511 ;; Registers used:
  9512 ;;		wreg, fsr0l, fsr0h, status,2, status,0, pclath, cstack
  9513 ;; Tracked objects:
  9514 ;;		On entry : 60/0
  9515 ;;		On exit  : 60/0
  9516 ;;		Unchanged: FFE9F/0
  9517 ;; Data sizes:     COMMON   BANK0   BANK1   BANK3   BANK2
  9518 ;;      Params:         0       4       0       0       0
  9519 ;;      Locals:         0       0       0       0       0
  9520 ;;      Temps:          0       0       0       0       0
  9521 ;;      Totals:         0       4       0       0       0
  9522 ;;Total ram usage:        4 bytes
  9523 ;; Hardware stack levels used:    1
  9524 ;; Hardware stack levels required when called:    4
  9525 ;; This function calls:
  9526 ;;		_output_putch
  9527 ;;		_format_putchar
  9528 ;;		_ser_putch
  9529 ;;		_format_number
  9530 ;; This function is called by:
  9531 ;;		_measure_capacitance
  9532 ;; This function uses a non-reentrant model
  9533 ;;
  9534  0DDF                     _format_xint32:	
  9535                           
  9536                           ;format.c: 49: putchar_ptr('0');
  9537                           
  9538                           ; Regs used in _format_xint32: [wreg-fsr0h+status,2+status,0+pclath+cstack]
  9539  0DDF  3030               	movlw	48
  9540  0DE0  00F6               	movwf	?_output_putch
  9541  0DE1  086F               	movf	_putchar_ptr,w
  9542  0DE2  120A  118A  2700   	fcall	fptable
      +       120A  158A         
  9543                           
  9544                           ;format.c: 50: putchar_ptr('x');
  9545  0DE7  3078               	movlw	120
  9546  0DE8  00F6               	movwf	?_output_putch
  9547  0DE9  1283               	bcf	3,5	;RP0=0, select bank0
  9548  0DEA  086F               	movf	_putchar_ptr,w
  9549  0DEB  120A  118A  2700   	fcall	fptable
      +       120A  158A         
  9550                           
  9551                           ;format.c: 51: format_number((uint16_t)(x >> 16), 16, -4);
  9552  0DF0  1283               	bcf	3,5	;RP0=0, select bank0
  9553  0DF1  0850               	movf	format_xint32@x+3,w
  9554  0DF2  00A4               	movwf	?_format_number+1
  9555  0DF3  084F               	movf	format_xint32@x+2,w
  9556  0DF4  00A3               	movwf	?_format_number
  9557  0DF5  3010               	movlw	16
  9558  0DF6  00A5               	movwf	?_format_number+2
  9559  0DF7  30FC               	movlw	-4
  9560  0DF8  00A6               	movwf	?_format_number+3
  9561  0DF9  120A  118A  270F   	fcall	_format_number
      +       120A  158A         
  9562                           
  9563                           ;format.c: 52: format_number((uint16_t)(x & 0xffff), 16, -4);
  9564  0DFE  084E               	movf	format_xint32@x+1,w
  9565  0DFF  00A4               	movwf	?_format_number+1
  9566  0E00  084D               	movf	format_xint32@x,w
  9567  0E01  00A3               	movwf	?_format_number
  9568  0E02  3010               	movlw	16
  9569  0E03  00A5               	movwf	?_format_number+2
  9570  0E04  30FC               	movlw	-4
  9571  0E05  00A6               	movwf	?_format_number+3
  9572  0E06  120A  118A  2F0F   	ljmp	l8551
  9573  0E09                     __end_of_format_xint32:	
  9574  0E09                     __ptext1116:	
  9575 ;; =============== function _measure_capacitance ends ============
  9576                           
  9577                           
  9578 ;; *************** function _format_double *****************
  9579 ;; Defined at:
  9580 ;;		line 74 in file "../../../lib/format.c"
  9581 ;; Parameters:    Size  Location     Type
  9582 ;;  num             4   54[BANK1 ] unsigned char 
  9583 ;; Auto vars:     Size  Location     Type
  9584 ;;  weight          4   62[BANK1 ] unsigned char 
  9585 ;;  m               2   68[BANK1 ] short 
  9586 ;;  digit           2   66[BANK1 ] short 
  9587 ;; Return value:  Size  Location     Type
  9588 ;;		None               void
  9589 ;; Registers used:
  9590 ;;		wreg, fsr0l, fsr0h, status,2, status,0, btemp+1, pclath, cstack
  9591 ;; Tracked objects:
  9592 ;;		On entry : 60/20
  9593 ;;		On exit  : 60/0
  9594 ;;		Unchanged: FFE00/0
  9595 ;; Data sizes:     COMMON   BANK0   BANK1   BANK3   BANK2
  9596 ;;      Params:         0       0       4       0       0
  9597 ;;      Locals:         0       0      12       0       0
  9598 ;;      Temps:          0       0       0       0       0
  9599 ;;      Totals:         0       0      16       0       0
  9600 ;;Total ram usage:       16 bytes
  9601 ;; Hardware stack levels used:    1
  9602 ;; Hardware stack levels required when called:    6
  9603 ;; This function calls:
  9604 ;;		_log10
  9605 ;;		___fltol
  9606 ;;		___awtofl
  9607 ;;		_pow
  9608 ;;		___fldiv
  9609 ;;		_floor
  9610 ;;		___flmul
  9611 ;;		___flsub
  9612 ;;		_output_putch
  9613 ;;		_format_putchar
  9614 ;;		_ser_putch
  9615 ;;		___flge
  9616 ;; This function is called by:
  9617 ;;		_measure_capacitance
  9618 ;; This function uses a non-reentrant model
  9619 ;;
  9620  0E09                     _format_double:	
  9621                           
  9622                           ;format.c: 75: short m = (short)log10(num);
  9623                           
  9624                           ; Regs used in _format_double: [wreg-fsr0h+status,2+status,0+btemp+1+pclath+cstack]
  9625  0E09  0859               	movf	(format_double@num+3)^(0+128),w
  9626  0E0A  00BD               	movwf	(?_log10+3)^(0+128)
  9627  0E0B  0858               	movf	(format_double@num+2)^(0+128),w
  9628  0E0C  00BC               	movwf	(?_log10+2)^(0+128)
  9629  0E0D  0857               	movf	(format_double@num+1)^(0+128),w
  9630  0E0E  00BB               	movwf	(?_log10+1)^(0+128)
  9631  0E0F  0856               	movf	format_double@num^(0+128),w
  9632  0E10  00BA               	movwf	?_log10^(0+128)
  9633  0E11  160A  118A  21C7   	fcall	_log10
      +       120A  158A         
  9634  0E16  083D               	movf	(?_log10+3)^(0+128),w
  9635  0E17  1283               	bcf	3,5	;RP0=0, select bank0
  9636  0E18  00AB               	movwf	?___fltol+3
  9637  0E19  1683               	bsf	3,5	;RP0=1, select bank1
  9638  0E1A  083C               	movf	(?_log10+2)^(0+128),w
  9639  0E1B  1283               	bcf	3,5	;RP0=0, select bank0
  9640  0E1C  00AA               	movwf	?___fltol+2
  9641  0E1D  1683               	bsf	3,5	;RP0=1, select bank1
  9642  0E1E  083B               	movf	(?_log10+1)^(0+128),w
  9643  0E1F  1283               	bcf	3,5	;RP0=0, select bank0
  9644  0E20  00A9               	movwf	?___fltol+1
  9645  0E21  1683               	bsf	3,5	;RP0=1, select bank1
  9646  0E22  083A               	movf	?_log10^(0+128),w
  9647  0E23  1283               	bcf	3,5	;RP0=0, select bank0
  9648  0E24  00A8               	movwf	?___fltol
  9649  0E25  160A  118A  23A3   	fcall	___fltol
      +       120A  158A         
  9650  0E2A  0829               	movf	?___fltol+1,w
  9651  0E2B  1683               	bsf	3,5	;RP0=1, select bank1
  9652  0E2C  00E5               	movwf	(format_double@m+1)^(0+128)
  9653  0E2D  1283               	bcf	3,5	;RP0=0, select bank0
  9654  0E2E  0828               	movf	?___fltol,w
  9655  0E2F  1683               	bsf	3,5	;RP0=1, select bank1
  9656  0E30  00E4               	movwf	format_double@m^(0+128)
  9657  0E31                     l8831:	
  9658                           ;format.c: 76: short digit;
  9659                           ;format.c: 79: while(num > 0 + (sizeof(double) == sizeof(float) ? 3.05176e-05 : 1.192092
      +                          90e-07)) {
  9660                           
  9661  0E31  3038               	movlw	56
  9662  0E32  1283               	bcf	3,5	;RP0=0, select bank0
  9663  0E33  00A3               	movwf	?___flge+3
  9664  0E34  3006               	movlw	6
  9665  0E35  01A2               	clrf	?___flge+2
  9666  0E36  01A1               	clrf	?___flge+1
  9667  0E37  00A0               	movwf	?___flge
  9668  0E38  1683               	bsf	3,5	;RP0=1, select bank1
  9669  0E39  0859               	movf	(format_double@num+3)^(0+128),w
  9670  0E3A  1283               	bcf	3,5	;RP0=0, select bank0
  9671  0E3B  00A7               	movwf	?___flge+7
  9672  0E3C  1683               	bsf	3,5	;RP0=1, select bank1
  9673  0E3D  0858               	movf	(format_double@num+2)^(0+128),w
  9674  0E3E  1283               	bcf	3,5	;RP0=0, select bank0
  9675  0E3F  00A6               	movwf	?___flge+6
  9676  0E40  1683               	bsf	3,5	;RP0=1, select bank1
  9677  0E41  0857               	movf	(format_double@num+1)^(0+128),w
  9678  0E42  1283               	bcf	3,5	;RP0=0, select bank0
  9679  0E43  00A5               	movwf	?___flge+5
  9680  0E44  1683               	bsf	3,5	;RP0=1, select bank1
  9681  0E45  0856               	movf	format_double@num^(0+128),w
  9682  0E46  1283               	bcf	3,5	;RP0=0, select bank0
  9683  0E47  00A4               	movwf	?___flge+4
  9684  0E48  2739  120A  158A   	fcall	___flge
  9685  0E4B  1803               	btfsc	3,0
  9686  0E4C  0008               	return
  9687                           
  9688                           ;format.c: 80: double weight = pow(10.0l, m);
  9689  0E4D  1683               	bsf	3,5	;RP0=1, select bank1
  9690  0E4E  0865               	movf	(format_double@m+1)^(0+128),w
  9691  0E4F  1283               	bcf	3,5	;RP0=0, select bank0
  9692  0E50  00B3               	movwf	?___awtofl+1
  9693  0E51  1683               	bsf	3,5	;RP0=1, select bank1
  9694  0E52  0864               	movf	format_double@m^(0+128),w
  9695  0E53  1283               	bcf	3,5	;RP0=0, select bank0
  9696  0E54  00B2               	movwf	?___awtofl
  9697  0E55  160A  118A  2798   	fcall	___awtofl
      +       120A  158A         
  9698  0E5A  0835               	movf	?___awtofl+3,w
  9699  0E5B  1683               	bsf	3,5	;RP0=1, select bank1
  9700  0E5C  00DD               	movwf	(_format_double$5198+3)^(0+128)
  9701  0E5D  1283               	bcf	3,5	;RP0=0, select bank0
  9702  0E5E  0834               	movf	?___awtofl+2,w
  9703  0E5F  1683               	bsf	3,5	;RP0=1, select bank1
  9704  0E60  00DC               	movwf	(_format_double$5198+2)^(0+128)
  9705  0E61  1283               	bcf	3,5	;RP0=0, select bank0
  9706  0E62  0833               	movf	?___awtofl+1,w
  9707  0E63  1683               	bsf	3,5	;RP0=1, select bank1
  9708  0E64  00DB               	movwf	(_format_double$5198+1)^(0+128)
  9709  0E65  1283               	bcf	3,5	;RP0=0, select bank0
  9710  0E66  0832               	movf	?___awtofl,w
  9711  0E67  1683               	bsf	3,5	;RP0=1, select bank1
  9712  0E68  00DA               	movwf	_format_double$5198^(0+128)
  9713                           
  9714                           ;format.c: 80: double weight = pow(10.0l, m);
  9715  0E69  3041               	movlw	65
  9716  0E6A  00C8               	movwf	(?_pow+3)^(0+128)
  9717  0E6B  3020               	movlw	32
  9718  0E6C  00C7               	movwf	(?_pow+2)^(0+128)
  9719  0E6D  01C6               	clrf	(?_pow+1)^(0+128)
  9720  0E6E  01C5               	clrf	?_pow^(0+128)
  9721  0E6F  085D               	movf	(_format_double$5198+3)^(0+128),w
  9722  0E70  00CC               	movwf	((?_pow+3)^(0+128)+4)
  9723  0E71  085C               	movf	(_format_double$5198+2)^(0+128),w
  9724  0E72  00CB               	movwf	((?_pow+2)^(0+128)+4)
  9725  0E73  085B               	movf	(_format_double$5198+1)^(0+128),w
  9726  0E74  00CA               	movwf	((?_pow+1)^(0+128)+4)
  9727  0E75  085A               	movf	_format_double$5198^(0+128),w
  9728  0E76  00C9               	movwf	(?_pow^(0+128)+4)
  9729  0E77  160A  118A  254F   	fcall	_pow
      +       120A  158A         
  9730  0E7C  0848               	movf	(?_pow+3)^(0+128),w
  9731  0E7D  00E1               	movwf	(format_double@weight+3)^(0+128)
  9732  0E7E  0847               	movf	(?_pow+2)^(0+128),w
  9733  0E7F  00E0               	movwf	(format_double@weight+2)^(0+128)
  9734  0E80  0846               	movf	(?_pow+1)^(0+128),w
  9735  0E81  00DF               	movwf	(format_double@weight+1)^(0+128)
  9736  0E82  0845               	movf	?_pow^(0+128),w
  9737  0E83  00DE               	movwf	format_double@weight^(0+128)
  9738                           
  9739                           ;format.c: 81: digit = (short)floor(num / weight);
  9740  0E84  0859               	movf	(format_double@num+3)^(0+128),w
  9741  0E85  1283               	bcf	3,5	;RP0=0, select bank0
  9742  0E86  00B9               	movwf	?___fldiv+7
  9743  0E87  1683               	bsf	3,5	;RP0=1, select bank1
  9744  0E88  0858               	movf	(format_double@num+2)^(0+128),w
  9745  0E89  1283               	bcf	3,5	;RP0=0, select bank0
  9746  0E8A  00B8               	movwf	?___fldiv+6
  9747  0E8B  1683               	bsf	3,5	;RP0=1, select bank1
  9748  0E8C  0857               	movf	(format_double@num+1)^(0+128),w
  9749  0E8D  1283               	bcf	3,5	;RP0=0, select bank0
  9750  0E8E  00B7               	movwf	?___fldiv+5
  9751  0E8F  1683               	bsf	3,5	;RP0=1, select bank1
  9752  0E90  0856               	movf	format_double@num^(0+128),w
  9753  0E91  1283               	bcf	3,5	;RP0=0, select bank0
  9754  0E92  00B6               	movwf	?___fldiv+4
  9755  0E93  1683               	bsf	3,5	;RP0=1, select bank1
  9756  0E94  0861               	movf	(format_double@weight+3)^(0+128),w
  9757  0E95  1283               	bcf	3,5	;RP0=0, select bank0
  9758  0E96  00B5               	movwf	?___fldiv+3
  9759  0E97  1683               	bsf	3,5	;RP0=1, select bank1
  9760  0E98  0860               	movf	(format_double@weight+2)^(0+128),w
  9761  0E99  1283               	bcf	3,5	;RP0=0, select bank0
  9762  0E9A  00B4               	movwf	?___fldiv+2
  9763  0E9B  1683               	bsf	3,5	;RP0=1, select bank1
  9764  0E9C  085F               	movf	(format_double@weight+1)^(0+128),w
  9765  0E9D  1283               	bcf	3,5	;RP0=0, select bank0
  9766  0E9E  00B3               	movwf	?___fldiv+1
  9767  0E9F  1683               	bsf	3,5	;RP0=1, select bank1
  9768  0EA0  085E               	movf	format_double@weight^(0+128),w
  9769  0EA1  1283               	bcf	3,5	;RP0=0, select bank0
  9770  0EA2  00B2               	movwf	?___fldiv
  9771  0EA3  2785               	fcall	___fldiv
  9772  0EA4  0835               	movf	?___fldiv+3,w
  9773  0EA5  00EA               	movwf	?_floor+3
  9774  0EA6  0834               	movf	?___fldiv+2,w
  9775  0EA7  00E9               	movwf	?_floor+2
  9776  0EA8  0833               	movf	?___fldiv+1,w
  9777  0EA9  00E8               	movwf	?_floor+1
  9778  0EAA  0832               	movf	?___fldiv,w
  9779  0EAB  00E7               	movwf	?_floor
  9780  0EAC  160A  118A  247A   	fcall	_floor
      +       120A  158A         
  9781  0EB1  1283               	bcf	3,5	;RP0=0, select bank0
  9782  0EB2  086A               	movf	?_floor+3,w
  9783  0EB3  00AB               	movwf	?___fltol+3
  9784  0EB4  0869               	movf	?_floor+2,w
  9785  0EB5  00AA               	movwf	?___fltol+2
  9786  0EB6  0868               	movf	?_floor+1,w
  9787  0EB7  00A9               	movwf	?___fltol+1
  9788  0EB8  0867               	movf	?_floor,w
  9789  0EB9  00A8               	movwf	?___fltol
  9790  0EBA  160A  118A  23A3   	fcall	___fltol
      +       120A  158A         
  9791  0EBF  0829               	movf	?___fltol+1,w
  9792  0EC0  1683               	bsf	3,5	;RP0=1, select bank1
  9793  0EC1  00E3               	movwf	(format_double@digit+1)^(0+128)
  9794  0EC2  1283               	bcf	3,5	;RP0=0, select bank0
  9795  0EC3  0828               	movf	?___fltol,w
  9796  0EC4  1683               	bsf	3,5	;RP0=1, select bank1
  9797  0EC5  00E2               	movwf	format_double@digit^(0+128)
  9798                           
  9799                           ;format.c: 82: num -= (digit * weight);
  9800  0EC6  0863               	movf	(format_double@digit+1)^(0+128),w
  9801  0EC7  1283               	bcf	3,5	;RP0=0, select bank0
  9802  0EC8  00B3               	movwf	?___awtofl+1
  9803  0EC9  1683               	bsf	3,5	;RP0=1, select bank1
  9804  0ECA  0862               	movf	format_double@digit^(0+128),w
  9805  0ECB  1283               	bcf	3,5	;RP0=0, select bank0
  9806  0ECC  00B2               	movwf	?___awtofl
  9807  0ECD  160A  118A  2798   	fcall	___awtofl
      +       120A  158A         
  9808  0ED2  0835               	movf	?___awtofl+3,w
  9809  0ED3  00CC               	movwf	?___flmul+7
  9810  0ED4  0834               	movf	?___awtofl+2,w
  9811  0ED5  00CB               	movwf	?___flmul+6
  9812  0ED6  0833               	movf	?___awtofl+1,w
  9813  0ED7  00CA               	movwf	?___flmul+5
  9814  0ED8  0832               	movf	?___awtofl,w
  9815  0ED9  00C9               	movwf	?___flmul+4
  9816  0EDA  1683               	bsf	3,5	;RP0=1, select bank1
  9817  0EDB  0861               	movf	(format_double@weight+3)^(0+128),w
  9818  0EDC  1283               	bcf	3,5	;RP0=0, select bank0
  9819  0EDD  00C8               	movwf	?___flmul+3
  9820  0EDE  1683               	bsf	3,5	;RP0=1, select bank1
  9821  0EDF  0860               	movf	(format_double@weight+2)^(0+128),w
  9822  0EE0  1283               	bcf	3,5	;RP0=0, select bank0
  9823  0EE1  00C7               	movwf	?___flmul+2
  9824  0EE2  1683               	bsf	3,5	;RP0=1, select bank1
  9825  0EE3  085F               	movf	(format_double@weight+1)^(0+128),w
  9826  0EE4  1283               	bcf	3,5	;RP0=0, select bank0
  9827  0EE5  00C6               	movwf	?___flmul+1
  9828  0EE6  1683               	bsf	3,5	;RP0=1, select bank1
  9829  0EE7  085E               	movf	format_double@weight^(0+128),w
  9830  0EE8  1283               	bcf	3,5	;RP0=0, select bank0
  9831  0EE9  00C5               	movwf	?___flmul
  9832  0EEA  120A  118A  264B   	fcall	___flmul
      +       120A  158A         
  9833  0EEF  0848               	movf	?___flmul+3,w
  9834  0EF0  00EA               	movwf	?___flsub+3
  9835  0EF1  0847               	movf	?___flmul+2,w
  9836  0EF2  00E9               	movwf	?___flsub+2
  9837  0EF3  0846               	movf	?___flmul+1,w
  9838  0EF4  00E8               	movwf	?___flsub+1
  9839  0EF5  0845               	movf	?___flmul,w
  9840  0EF6  00E7               	movwf	?___flsub
  9841  0EF7  1683               	bsf	3,5	;RP0=1, select bank1
  9842  0EF8  0859               	movf	(format_double@num+3)^(0+128),w
  9843  0EF9  1283               	bcf	3,5	;RP0=0, select bank0
  9844  0EFA  00EE               	movwf	?___flsub+7
  9845  0EFB  1683               	bsf	3,5	;RP0=1, select bank1
  9846  0EFC  0858               	movf	(format_double@num+2)^(0+128),w
  9847  0EFD  1283               	bcf	3,5	;RP0=0, select bank0
  9848  0EFE  00ED               	movwf	?___flsub+6
  9849  0EFF  1683               	bsf	3,5	;RP0=1, select bank1
  9850  0F00  0857               	movf	(format_double@num+1)^(0+128),w
  9851  0F01  1283               	bcf	3,5	;RP0=0, select bank0
  9852  0F02  00EC               	movwf	?___flsub+5
  9853  0F03  1683               	bsf	3,5	;RP0=1, select bank1
  9854  0F04  0856               	movf	format_double@num^(0+128),w
  9855  0F05  1283               	bcf	3,5	;RP0=0, select bank0
  9856  0F06  00EB               	movwf	?___flsub+4
  9857  0F07  120A  118A  26E3   	fcall	___flsub
      +       120A  158A         
  9858  0F0C  086A               	movf	?___flsub+3,w
  9859  0F0D  1683               	bsf	3,5	;RP0=1, select bank1
  9860  0F0E  00D9               	movwf	(format_double@num+3)^(0+128)
  9861  0F0F  1283               	bcf	3,5	;RP0=0, select bank0
  9862  0F10  0869               	movf	?___flsub+2,w
  9863  0F11  1683               	bsf	3,5	;RP0=1, select bank1
  9864  0F12  00D8               	movwf	(format_double@num+2)^(0+128)
  9865  0F13  1283               	bcf	3,5	;RP0=0, select bank0
  9866  0F14  0868               	movf	?___flsub+1,w
  9867  0F15  1683               	bsf	3,5	;RP0=1, select bank1
  9868  0F16  00D7               	movwf	(format_double@num+1)^(0+128)
  9869  0F17  1283               	bcf	3,5	;RP0=0, select bank0
  9870  0F18  0867               	movf	?___flsub,w
  9871  0F19  1683               	bsf	3,5	;RP0=1, select bank1
  9872  0F1A  00D6               	movwf	format_double@num^(0+128)
  9873                           
  9874                           ;format.c: 83: putchar_ptr((char)('0' + digit));
  9875  0F1B  0862               	movf	format_double@digit^(0+128),w
  9876  0F1C  3E30               	addlw	48
  9877  0F1D  00F6               	movwf	?_output_putch
  9878  0F1E  1283               	bcf	3,5	;RP0=0, select bank0
  9879  0F1F  086F               	movf	_putchar_ptr,w
  9880  0F20  120A  118A  2700   	fcall	fptable
      +       120A  158A         
  9881                           
  9882                           ;format.c: 84: if(m == 0)
  9883  0F25  1683               	bsf	3,5	;RP0=1, select bank1
  9884  0F26  0865               	movf	(format_double@m+1)^(0+128),w
  9885  0F27  0464               	iorwf	format_double@m^(0+128),w
  9886  0F28  1D03               	skipz
  9887  0F29  2F33               	goto	l8829
  9888                           
  9889                           ;format.c: 85: putchar_ptr('.');
  9890  0F2A  302E               	movlw	46
  9891  0F2B  00F6               	movwf	?_output_putch
  9892  0F2C  1283               	bcf	3,5	;RP0=0, select bank0
  9893  0F2D  086F               	movf	_putchar_ptr,w
  9894  0F2E  120A  118A  2700   	fcall	fptable
      +       120A  158A         
  9895  0F33                     l8829:	
  9896                           
  9897                           ;format.c: 86: m--;
  9898  0F33  30FF               	movlw	-1
  9899  0F34  1683               	bsf	3,5	;RP0=1, select bank1
  9900  0F35  07E4               	addwf	format_double@m^(0+128),f
  9901  0F36  1C03               	skipc
  9902  0F37  03E5               	decf	(format_double@m+1)^(0+128),f
  9903  0F38  2E31               	goto	l8831
  9904  0F39                     __end_of_format_double:	
  9905  0F39                     __ptext1142:	
  9906 ;; =============== function _ser_puts ends ============
  9907                           
  9908                           
  9909 ;; *************** function ___flge *****************
  9910 ;; Defined at:
  9911 ;;		line 5 in file "C:\Program Files (x86)\HI-TECH Software\PICC\9.83\sources\flge.c"
  9912 ;; Parameters:    Size  Location     Type
  9913 ;;  ff1             4    0[BANK0 ] PTR const unsigned char 
  9914 ;;  ff2             4    4[BANK0 ] PTR const unsigned char 
  9915 ;; Auto vars:     Size  Location     Type
  9916 ;;		None
  9917 ;; Return value:  Size  Location     Type
  9918 ;;		None               void
  9919 ;; Registers used:
  9920 ;;		wreg, status,2, status,0
  9921 ;; Tracked objects:
  9922 ;;		On entry : 60/100
  9923 ;;		On exit  : 60/100
  9924 ;;		Unchanged: FFF9F/0
  9925 ;; Data sizes:     COMMON   BANK0   BANK1   BANK3   BANK2
  9926 ;;      Params:         0       8       0       0       0
  9927 ;;      Locals:         0       0       0       0       0
  9928 ;;      Temps:          4       0       0       0       0
  9929 ;;      Totals:         4       8       0       0       0
  9930 ;;Total ram usage:       12 bytes
  9931 ;; Hardware stack levels used:    1
  9932 ;; Hardware stack levels required when called:    1
  9933 ;; This function calls:
  9934 ;;		Nothing
  9935 ;; This function is called by:
  9936 ;;		_format_double
  9937 ;;		_measure_capacitance
  9938 ;;		_measure_inductance
  9939 ;;		_floor
  9940 ;;		_log
  9941 ;;		_pow
  9942 ;;		_ldexp
  9943 ;;		_exp
  9944 ;; This function uses a non-reentrant model
  9945 ;;
  9946  0F39                     ___flge:	
  9947                           
  9948                           ; Regs used in ___flge: [wreg+status,2+status,0]
  9949  0F39  1FA3               	btfss	___flge@ff1+3,7
  9950  0F3A  2F56               	goto	l7235
  9951  0F3B  3080               	movlw	128
  9952  0F3C  01F4               	clrf	??___flge
  9953  0F3D  01F5               	clrf	??___flge+1
  9954  0F3E  01F6               	clrf	??___flge+2
  9955  0F3F  00F7               	movwf	??___flge+3
  9956  0F40  0820               	movf	___flge@ff1,w
  9957  0F41  02F4               	subwf	??___flge,f
  9958  0F42  0821               	movf	___flge@ff1+1,w
  9959  0F43  1C03               	skipc
  9960  0F44  0F21               	incfsz	___flge@ff1+1,w
  9961  0F45  02F5               	subwf	??___flge+1,f
  9962  0F46  0822               	movf	___flge@ff1+2,w
  9963  0F47  1C03               	skipc
  9964  0F48  0F22               	incfsz	___flge@ff1+2,w
  9965  0F49  02F6               	subwf	??___flge+2,f
  9966  0F4A  0823               	movf	___flge@ff1+3,w
  9967  0F4B  1C03               	skipc
  9968  0F4C  0F23               	incfsz	___flge@ff1+3,w
  9969  0F4D  02F7               	subwf	??___flge+3,f
  9970  0F4E  0877               	movf	??___flge+3,w
  9971  0F4F  00A3               	movwf	___flge@ff1+3
  9972  0F50  0876               	movf	??___flge+2,w
  9973  0F51  00A2               	movwf	___flge@ff1+2
  9974  0F52  0875               	movf	??___flge+1,w
  9975  0F53  00A1               	movwf	___flge@ff1+1
  9976  0F54  0874               	movf	??___flge,w
  9977  0F55  00A0               	movwf	___flge@ff1
  9978  0F56                     l7235:	
  9979  0F56  1FA7               	btfss	___flge@ff2+3,7
  9980  0F57  2F73               	goto	l4170
  9981  0F58  3080               	movlw	128
  9982  0F59  01F4               	clrf	??___flge
  9983  0F5A  01F5               	clrf	??___flge+1
  9984  0F5B  01F6               	clrf	??___flge+2
  9985  0F5C  00F7               	movwf	??___flge+3
  9986  0F5D  0824               	movf	___flge@ff2,w
  9987  0F5E  02F4               	subwf	??___flge,f
  9988  0F5F  0825               	movf	___flge@ff2+1,w
  9989  0F60  1C03               	skipc
  9990  0F61  0F25               	incfsz	___flge@ff2+1,w
  9991  0F62  02F5               	subwf	??___flge+1,f
  9992  0F63  0826               	movf	___flge@ff2+2,w
  9993  0F64  1C03               	skipc
  9994  0F65  0F26               	incfsz	___flge@ff2+2,w
  9995  0F66  02F6               	subwf	??___flge+2,f
  9996  0F67  0827               	movf	___flge@ff2+3,w
  9997  0F68  1C03               	skipc
  9998  0F69  0F27               	incfsz	___flge@ff2+3,w
  9999  0F6A  02F7               	subwf	??___flge+3,f
 10000  0F6B  0877               	movf	??___flge+3,w
 10001  0F6C  00A7               	movwf	___flge@ff2+3
 10002  0F6D  0876               	movf	??___flge+2,w
 10003  0F6E  00A6               	movwf	___flge@ff2+2
 10004  0F6F  0875               	movf	??___flge+1,w
 10005  0F70  00A5               	movwf	___flge@ff2+1
 10006  0F71  0874               	movf	??___flge,w
 10007  0F72  00A4               	movwf	___flge@ff2
 10008  0F73                     l4170:	
 10009  0F73  3080               	movlw	128
 10010  0F74  06A3               	xorwf	___flge@ff1+3,f
 10011  0F75  06A7               	xorwf	___flge@ff2+3,f
 10012  0F76  0827               	movf	___flge@ff2+3,w
 10013  0F77  0223               	subwf	___flge@ff1+3,w
 10014  0F78  1D03               	skipz
 10015  0F79  0008               	return
 10016  0F7A  0826               	movf	___flge@ff2+2,w
 10017  0F7B  0222               	subwf	___flge@ff1+2,w
 10018  0F7C  1D03               	skipz
 10019  0F7D  0008               	return
 10020  0F7E  0825               	movf	___flge@ff2+1,w
 10021  0F7F  0221               	subwf	___flge@ff1+1,w
 10022  0F80  1D03               	skipz
 10023  0F81  0008               	return
 10024  0F82  0824               	movf	___flge@ff2,w
 10025  0F83  0220               	subwf	___flge@ff1,w
 10026  0F84  0008               	return
 10027  0F85                     __end_of___flge:	
 10028  0F85                     __ptext1133:	
 10029 ;; =============== function ___flmul ends ============
 10030                           
 10031                           
 10032 ;; *************** function ___fldiv *****************
 10033 ;; Defined at:
 10034 ;;		line 50 in file "C:\Program Files (x86)\HI-TECH Software\PICC\9.83\sources\fldiv.c"
 10035 ;; Parameters:    Size  Location     Type
 10036 ;;  f2              4   18[BANK0 ] unsigned char 
 10037 ;;  f1              4   22[BANK0 ] unsigned char 
 10038 ;; Auto vars:     Size  Location     Type
 10039 ;;  f3              4   30[BANK0 ] unsigned char 
 10040 ;;  sign            1   36[BANK0 ] unsigned char 
 10041 ;;  exp             1   35[BANK0 ] unsigned char 
 10042 ;;  cntr            1   34[BANK0 ] unsigned char 
 10043 ;; Return value:  Size  Location     Type
 10044 ;;                  4   18[BANK0 ] unsigned char 
 10045 ;; Registers used:
 10046 ;;		wreg, status,2, status,0, pclath, cstack
 10047 ;; Tracked objects:
 10048 ;;		On entry : 60/100
 10049 ;;		On exit  : 60/100
 10050 ;;		Unchanged: FFF9F/0
 10051 ;; Data sizes:     COMMON   BANK0   BANK1   BANK3   BANK2
 10052 ;;      Params:         0       8       0       0       0
 10053 ;;      Locals:         0       7       0       0       0
 10054 ;;      Temps:          0       4       0       0       0
 10055 ;;      Totals:         0      19       0       0       0
 10056 ;;Total ram usage:       19 bytes
 10057 ;; Hardware stack levels used:    1
 10058 ;; Hardware stack levels required when called:    2
 10059 ;; This function calls:
 10060 ;;		___flpack
 10061 ;; This function is called by:
 10062 ;;		_format_double
 10063 ;;		_measure_capacitance
 10064 ;;		_measure_inductance
 10065 ;;		_exp
 10066 ;; This function uses a non-reentrant model
 10067 ;;
 10068  0F85                     ___fldiv:	
 10069                           
 10070                           ; Regs used in ___fldiv: [wreg+status,2+status,0+pclath+cstack]
 10071  0F85  0836               	movf	___fldiv@f1,w
 10072  0F86  00BA               	movwf	??___fldiv
 10073  0F87  0837               	movf	___fldiv@f1+1,w
 10074  0F88  00BB               	movwf	??___fldiv+1
 10075  0F89  0838               	movf	___fldiv@f1+2,w
 10076  0F8A  00BC               	movwf	??___fldiv+2
 10077  0F8B  0839               	movf	___fldiv@f1+3,w
 10078  0F8C  00BD               	movwf	??___fldiv+3
 10079  0F8D  1003               	clrc
 10080  0F8E  0D3C               	rlf	??___fldiv+2,w
 10081  0F8F  0D3D               	rlf	??___fldiv+3,w
 10082  0F90  00C3               	movwf	___fldiv@exp
 10083  0F91  08C3               	movf	___fldiv@exp,f
 10084  0F92  1D03               	skipz
 10085  0F93  2F99               	goto	l8435
 10086  0F94  01B2               	clrf	?___fldiv
 10087  0F95  01B3               	clrf	?___fldiv+1
 10088  0F96  01B4               	clrf	?___fldiv+2
 10089  0F97  01B5               	clrf	?___fldiv+3
 10090  0F98  0008               	return
 10091  0F99                     l8435:	
 10092  0F99  0832               	movf	___fldiv@f2,w
 10093  0F9A  00BA               	movwf	??___fldiv
 10094  0F9B  0833               	movf	___fldiv@f2+1,w
 10095  0F9C  00BB               	movwf	??___fldiv+1
 10096  0F9D  0834               	movf	___fldiv@f2+2,w
 10097  0F9E  00BC               	movwf	??___fldiv+2
 10098  0F9F  0835               	movf	___fldiv@f2+3,w
 10099  0FA0  00BD               	movwf	??___fldiv+3
 10100  0FA1  1003               	clrc
 10101  0FA2  0D3C               	rlf	??___fldiv+2,w
 10102  0FA3  0D3D               	rlf	??___fldiv+3,w
 10103  0FA4  00C4               	movwf	___fldiv@sign
 10104  0FA5  08C4               	movf	___fldiv@sign,f
 10105  0FA6  1D03               	skipz
 10106  0FA7  2FAD               	goto	l8439
 10107  0FA8  01B2               	clrf	?___fldiv
 10108  0FA9  01B3               	clrf	?___fldiv+1
 10109  0FAA  01B4               	clrf	?___fldiv+2
 10110  0FAB  01B5               	clrf	?___fldiv+3
 10111  0FAC  0008               	return
 10112  0FAD                     l8439:	
 10113  0FAD  3089               	movlw	137
 10114  0FAE  0744               	addwf	___fldiv@sign,w
 10115  0FAF  00BA               	movwf	??___fldiv
 10116  0FB0  02C3               	subwf	___fldiv@exp,f
 10117  0FB1  0839               	movf	___fldiv@f1+3,w
 10118  0FB2  00C4               	movwf	___fldiv@sign
 10119  0FB3  0835               	movf	___fldiv@f2+3,w
 10120  0FB4  06C4               	xorwf	___fldiv@sign,f
 10121  0FB5  3080               	movlw	128
 10122  0FB6  05C4               	andwf	___fldiv@sign,f
 10123  0FB7  3020               	movlw	32
 10124  0FB8  17B8               	bsf	___fldiv@f1+2,7
 10125  0FB9  01B9               	clrf	___fldiv@f1+3
 10126  0FBA  17B4               	bsf	___fldiv@f2+2,7
 10127  0FBB  01B5               	clrf	___fldiv@f2+3
 10128  0FBC  00C2               	movwf	___fldiv@cntr
 10129  0FBD                     l8457:	
 10130  0FBD  1003               	clrc
 10131  0FBE  0DBE               	rlf	___fldiv@f3,f
 10132  0FBF  0DBF               	rlf	___fldiv@f3+1,f
 10133  0FC0  0DC0               	rlf	___fldiv@f3+2,f
 10134  0FC1  0DC1               	rlf	___fldiv@f3+3,f
 10135  0FC2  0835               	movf	___fldiv@f2+3,w
 10136  0FC3  0239               	subwf	___fldiv@f1+3,w
 10137  0FC4  1D03               	skipz
 10138  0FC5  2FD0               	goto	u3055
 10139  0FC6  0834               	movf	___fldiv@f2+2,w
 10140  0FC7  0238               	subwf	___fldiv@f1+2,w
 10141  0FC8  1D03               	skipz
 10142  0FC9  2FD0               	goto	u3055
 10143  0FCA  0833               	movf	___fldiv@f2+1,w
 10144  0FCB  0237               	subwf	___fldiv@f1+1,w
 10145  0FCC  1D03               	skipz
 10146  0FCD  2FD0               	goto	u3055
 10147  0FCE  0832               	movf	___fldiv@f2,w
 10148  0FCF  0236               	subwf	___fldiv@f1,w
 10149  0FD0                     u3055:	
 10150  0FD0  1C03               	skipc
 10151  0FD1  2FE2               	goto	L6
 10152  0FD2  0832               	movf	___fldiv@f2,w
 10153  0FD3  02B6               	subwf	___fldiv@f1,f
 10154  0FD4  0833               	movf	___fldiv@f2+1,w
 10155  0FD5  1C03               	skipc
 10156  0FD6  0F33               	incfsz	___fldiv@f2+1,w
 10157  0FD7  02B7               	subwf	___fldiv@f1+1,f
 10158  0FD8  0834               	movf	___fldiv@f2+2,w
 10159  0FD9  1C03               	skipc
 10160  0FDA  0F34               	incfsz	___fldiv@f2+2,w
 10161  0FDB  02B8               	subwf	___fldiv@f1+2,f
 10162  0FDC  0835               	movf	___fldiv@f2+3,w
 10163  0FDD  1C03               	skipc
 10164  0FDE  0F35               	incfsz	___fldiv@f2+3,w
 10165  0FDF  02B9               	subwf	___fldiv@f1+3,f
 10166  0FE0  143E               	bsf	___fldiv@f3,0
 10167  0FE1  1003               	clrc
 10168  0FE2                     L6:	
 10169  0FE2  0DB6               	rlf	___fldiv@f1,f
 10170  0FE3  0DB7               	rlf	___fldiv@f1+1,f
 10171  0FE4  0DB8               	rlf	___fldiv@f1+2,f
 10172  0FE5  0DB9               	rlf	___fldiv@f1+3,f
 10173  0FE6  0BC2               	decfsz	___fldiv@cntr,f
 10174  0FE7  2FBD               	goto	l8457
 10175  0FE8  0841               	movf	___fldiv@f3+3,w
 10176  0FE9  00A3               	movwf	?___flpack+3
 10177  0FEA  0840               	movf	___fldiv@f3+2,w
 10178  0FEB  00A2               	movwf	?___flpack+2
 10179  0FEC  083F               	movf	___fldiv@f3+1,w
 10180  0FED  00A1               	movwf	?___flpack+1
 10181  0FEE  083E               	movf	___fldiv@f3,w
 10182  0FEF  00A0               	movwf	?___flpack
 10183  0FF0  0843               	movf	___fldiv@exp,w
 10184  0FF1  00A4               	movwf	?___flpack+4
 10185  0FF2  0844               	movf	___fldiv@sign,w
 10186  0FF3  00A5               	movwf	?___flpack+5
 10187  0FF4  160A  118A  27B5   	fcall	___flpack
 10188  0FF7  0823               	movf	?___flpack+3,w
 10189  0FF8  00B5               	movwf	?___fldiv+3
 10190  0FF9  0822               	movf	?___flpack+2,w
 10191  0FFA  00B4               	movwf	?___fldiv+2
 10192  0FFB  0821               	movf	?___flpack+1,w
 10193  0FFC  00B3               	movwf	?___fldiv+1
 10194  0FFD  0820               	movf	?___flpack,w
 10195  0FFE  00B2               	movwf	?___fldiv
 10196  0FFF  0008               	return
 10197  1000                     __end_of___fldiv:	
 10198                           
 10199                           	psect	text1150
 10200  07BF                     __ptext1150:	
 10201 ;; =============== function _frexp ends ============
 10202                           
 10203                           
 10204 ;; *************** function _timer2_init *****************
 10205 ;; Defined at:
 10206 ;;		line 81 in file "../../../lib/timer.c"
 10207 ;; Parameters:    Size  Location     Type
 10208 ;;  ps_mode         1    wreg     unsigned char 
 10209 ;; Auto vars:     Size  Location     Type
 10210 ;;  ps_mode         1    4[COMMON] unsigned char 
 10211 ;;  postscaler      1    0        unsigned char 
 10212 ;;  ps              1    5[COMMON] unsigned char 
 10213 ;; Return value:  Size  Location     Type
 10214 ;;		None               void
 10215 ;; Registers used:
 10216 ;;		wreg, status,2, status,0
 10217 ;; Tracked objects:
 10218 ;;		On entry : 17F/0
 10219 ;;		On exit  : 60/20
 10220 ;;		Unchanged: FFE00/0
 10221 ;; Data sizes:     COMMON   BANK0   BANK1   BANK3   BANK2
 10222 ;;      Params:         0       0       0       0       0
 10223 ;;      Locals:         3       0       0       0       0
 10224 ;;      Temps:          1       0       0       0       0
 10225 ;;      Totals:         4       0       0       0       0
 10226 ;;Total ram usage:        4 bytes
 10227 ;; Hardware stack levels used:    1
 10228 ;; Hardware stack levels required when called:    1
 10229 ;; This function calls:
 10230 ;;		Nothing
 10231 ;; This function is called by:
 10232 ;;		_main
 10233 ;; This function uses a non-reentrant model
 10234 ;;
 10235  07BF                     _timer2_init:	
 10236                           
 10237                           ; Regs used in _timer2_init: [wreg+status,2+status,0]
 10238                           ;timer2_init@ps_mode stored from wreg
 10239  07BF  00F5               	movwf	timer2_init@ps_mode
 10240                           
 10241                           ;timer.c: 82: uint8_t ps = ps_mode & 0b1111;
 10242  07C0  00F6               	movwf	timer2_init@ps
 10243  07C1  300F               	movlw	15
 10244  07C2  05F6               	andwf	timer2_init@ps,f
 10245                           
 10246                           ;timer.c: 86: TOUTPS0 = postscaler & 1;
 10247  07C3  1192               	bcf	18,3
 10248                           
 10249                           ;timer.c: 87: TOUTPS1 = (postscaler >> 1) & 1;
 10250  07C4  1212               	bcf	18,4
 10251                           
 10252                           ;timer.c: 88: TOUTPS2 = (postscaler >> 2) & 1;
 10253  07C5  1292               	bcf	18,5
 10254                           
 10255                           ;timer.c: 90: T2CKPS0 = (ps >> 1) & 1;
 10256  07C6  0876               	movf	timer2_init@ps,w
 10257  07C7  00F4               	movwf	??_timer2_init
 10258  07C8  1003               	clrc
 10259  07C9  0CF4               	rrf	??_timer2_init,f
 10260  07CA  1C74               	btfss	??_timer2_init,0
 10261  07CB  2FD0               	goto	u1310
 10262  07CC  1283               	bcf	3,5	;RP0=0, select bank0
 10263  07CD  1303               	bcf	3,6	;RP1=0, select bank0
 10264  07CE  1412               	bsf	18,0
 10265  07CF  2FD3               	goto	l7021
 10266  07D0                     u1310:	
 10267  07D0  1283               	bcf	3,5	;RP0=0, select bank0
 10268  07D1  1303               	bcf	3,6	;RP1=0, select bank0
 10269  07D2  1012               	bcf	18,0
 10270  07D3                     l7021:	
 10271                           
 10272                           ;timer.c: 91: T2CKPS1 = (ps >> 2) & 1;
 10273  07D3  0876               	movf	timer2_init@ps,w
 10274  07D4  00F4               	movwf	??_timer2_init
 10275  07D5  1003               	clrc
 10276  07D6  0CF4               	rrf	??_timer2_init,f
 10277  07D7  1003               	clrc
 10278  07D8  0CF4               	rrf	??_timer2_init,f
 10279  07D9  1C74               	btfss	??_timer2_init,0
 10280  07DA  2FDF               	goto	u1330
 10281  07DB  1283               	bcf	3,5	;RP0=0, select bank0
 10282  07DC  1303               	bcf	3,6	;RP1=0, select bank0
 10283  07DD  1492               	bsf	18,1
 10284  07DE  2FE2               	goto	l7023
 10285  07DF                     u1330:	
 10286  07DF  1283               	bcf	3,5	;RP0=0, select bank0
 10287  07E0  1303               	bcf	3,6	;RP1=0, select bank0
 10288  07E1  1092               	bcf	18,1
 10289  07E2                     l7023:	
 10290                           
 10291                           ;timer.c: 93: TMR2 = 0;
 10292  07E2  0191               	clrf	17	;volatile
 10293                           
 10294                           ;timer.c: 95: TMR2ON = 1;
 10295  07E3  1512               	bsf	18,2
 10296                           
 10297                           ;timer.c: 97: TMR2IF = 0;
 10298  07E4  108C               	bcf	12,1
 10299                           
 10300                           ;timer.c: 98: TMR2IE = !!(ps_mode & 0x80);
 10301  07E5  1FF5               	btfss	timer2_init@ps_mode,7
 10302  07E6  2FEB               	goto	u1350
 10303  07E7  1683               	bsf	3,5	;RP0=1, select bank1
 10304  07E8  1303               	bcf	3,6	;RP1=0, select bank1
 10305  07E9  148C               	bsf	12,1
 10306  07EA  0008               	return
 10307  07EB                     u1350:	
 10308  07EB  1683               	bsf	3,5	;RP0=1, select bank1
 10309  07EC  1303               	bcf	3,6	;RP1=0, select bank1
 10310  07ED  108C               	bcf	12,1
 10311  07EE  0008               	return
 10312  07EF                     __end_of_timer2_init:	
 10313                           
 10314                           	psect	text1151
 10315  0845                     __ptext1151:	
 10316 ;; =============== function _timer2_init ends ============
 10317                           
 10318                           
 10319 ;; *************** function _ser_init *****************
 10320 ;; Defined at:
 10321 ;;		line 125 in file "../../../lib/ser.c"
 10322 ;; Parameters:    Size  Location     Type
 10323 ;;		None
 10324 ;; Auto vars:     Size  Location     Type
 10325 ;;		None
 10326 ;; Return value:  Size  Location     Type
 10327 ;;		None               void
 10328 ;; Registers used:
 10329 ;;		wreg, status,2
 10330 ;; Tracked objects:
 10331 ;;		On entry : 60/0
 10332 ;;		On exit  : 60/20
 10333 ;;		Unchanged: FFF9F/0
 10334 ;; Data sizes:     COMMON   BANK0   BANK1   BANK3   BANK2
 10335 ;;      Params:         0       0       0       0       0
 10336 ;;      Locals:         0       0       0       0       0
 10337 ;;      Temps:          0       0       0       0       0
 10338 ;;      Totals:         0       0       0       0       0
 10339 ;;Total ram usage:        0 bytes
 10340 ;; Hardware stack levels used:    1
 10341 ;; Hardware stack levels required when called:    1
 10342 ;; This function calls:
 10343 ;;		Nothing
 10344 ;; This function is called by:
 10345 ;;		_main
 10346 ;; This function uses a non-reentrant model
 10347 ;;
 10348  0845                     _ser_init:	
 10349                           
 10350                           ;ser.c: 128: TRISC6 = 1;
 10351                           
 10352                           ; Regs used in _ser_init: [wreg+status,2]
 10353  0845  1683               	bsf	3,5	;RP0=1, select bank1
 10354  0846  1707               	bsf	7,6
 10355                           
 10356                           ;ser.c: 129: RC7 = 1;
 10357  0847  1283               	bcf	3,5	;RP0=0, select bank0
 10358  0848  1787               	bsf	7,7
 10359                           
 10360                           ;ser.c: 131: BRGH = 1;
 10361  0849  1683               	bsf	3,5	;RP0=1, select bank1
 10362  084A  301F               	movlw	31
 10363  084B  1518               	bsf	24,2
 10364                           
 10365                           ;ser.c: 136: SPBRG = ser_brg;
 10366  084C  0099               	movwf	25	;volatile
 10367                           
 10368                           ;ser.c: 139: TX9 = 0;
 10369  084D  1318               	bcf	24,6
 10370                           
 10371                           ;ser.c: 140: RX9 = 0;
 10372  084E  1283               	bcf	3,5	;RP0=0, select bank0
 10373  084F  1318               	bcf	24,6
 10374                           
 10375                           ;ser.c: 142: SYNC = 0;
 10376  0850  1683               	bsf	3,5	;RP0=1, select bank1
 10377  0851  1218               	bcf	24,4
 10378                           
 10379                           ;ser.c: 143: SPEN = 1;
 10380  0852  1283               	bcf	3,5	;RP0=0, select bank0
 10381  0853  1798               	bsf	24,7
 10382                           
 10383                           ;ser.c: 144: CREN = 1;
 10384  0854  1618               	bsf	24,4
 10385                           
 10386                           ;ser.c: 145: TXIE = 0;
 10387  0855  1683               	bsf	3,5	;RP0=1, select bank1
 10388  0856  120C               	bcf	12,4
 10389                           
 10390                           ;ser.c: 147: TXEN = 1;
 10391  0857  1698               	bsf	24,5
 10392                           
 10393                           ;ser.c: 148: PEIE = 1;
 10394  0858  170B               	bsf	11,6
 10395                           
 10396                           ;ser.c: 150: rxiptr = rxoptr = txiptr = txoptr = 0;
 10397  0859  01FA               	clrf	_txoptr	;volatile
 10398  085A  01F9               	clrf	_txiptr	;volatile
 10399  085B  01EC               	clrf	_rxoptr^(0+128)	;volatile
 10400  085C  01F8               	clrf	_rxiptr	;volatile
 10401  085D  0008               	return
 10402  085E                     __end_of_ser_init:	
 10403                           
 10404                           	psect	text1152
 10405  07F8                     __ptext1152:	
 10406 ;; =============== function _ser_init ends ============
 10407                           
 10408                           
 10409 ;; *************** function _indicator *****************
 10410 ;; Defined at:
 10411 ;;		line 469 in file "../../../src/print.c"
 10412 ;; Parameters:    Size  Location     Type
 10413 ;;  indicate        1    wreg     unsigned char 
 10414 ;; Auto vars:     Size  Location     Type
 10415 ;;		None
 10416 ;; Return value:  Size  Location     Type
 10417 ;;		None               void
 10418 ;; Registers used:
 10419 ;;		wreg
 10420 ;; Tracked objects:
 10421 ;;		On entry : 0/60
 10422 ;;		On exit  : 0/60
 10423 ;;		Unchanged: FFFFFFFF/0
 10424 ;; Data sizes:     COMMON   BANK0   BANK1   BANK3   BANK2
 10425 ;;      Params:         0       0       0       0       0
 10426 ;;      Locals:         0       0       0       0       0
 10427 ;;      Temps:          0       0       0       0       0
 10428 ;;      Totals:         0       0       0       0       0
 10429 ;;Total ram usage:        0 bytes
 10430 ;; Hardware stack levels used:    1
 10431 ;; Hardware stack levels required when called:    1
 10432 ;; This function calls:
 10433 ;;		Nothing
 10434 ;; This function is called by:
 10435 ;;		_main
 10436 ;; This function uses a non-reentrant model
 10437 ;;
 10438  07F8                     _indicator:	
 10439                           
 10440                           ; Regs used in _indicator: [wreg]
 10441  07F8  0008               	return
 10442  07F9                     __end_of_indicator:	
 10443                           
 10444                           	psect	text1153
 10445  07F9                     __ptext1153:	
 10446 ;; =============== function _indicator ends ============
 10447                           
 10448                           
 10449 ;; *************** function _print_reading *****************
 10450 ;; Defined at:
 10451 ;;		line 429 in file "../../../src/print.c"
 10452 ;; Parameters:    Size  Location     Type
 10453 ;;  measurement     2    3[COMMON] unsigned int 
 10454 ;; Auto vars:     Size  Location     Type
 10455 ;;		None
 10456 ;; Return value:  Size  Location     Type
 10457 ;;		None               void
 10458 ;; Registers used:
 10459 ;;		None
 10460 ;; Tracked objects:
 10461 ;;		On entry : 20/160
 10462 ;;		On exit  : 20/160
 10463 ;;		Unchanged: FFFFFFDF/0
 10464 ;; Data sizes:     COMMON   BANK0   BANK1   BANK3   BANK2
 10465 ;;      Params:         2       0       0       0       0
 10466 ;;      Locals:         0       0       0       0       0
 10467 ;;      Temps:          0       0       0       0       0
 10468 ;;      Totals:         2       0       0       0       0
 10469 ;;Total ram usage:        2 bytes
 10470 ;; Hardware stack levels used:    1
 10471 ;; Hardware stack levels required when called:    1
 10472 ;; This function calls:
 10473 ;;		Nothing
 10474 ;; This function is called by:
 10475 ;;		_measure_capacitance
 10476 ;;		_measure_inductance
 10477 ;; This function uses a non-reentrant model
 10478 ;;
 10479  07F9                     _print_reading:	
 10480                           
 10481                           ; Regs used in _print_reading: []
 10482  07F9  0008               	return
 10483  07FA                     __end_of_print_reading:	
 10484                           
 10485                           	psect	text1155
 10486  1E76                     __ptext1155:	
 10487 ;; =============== function _print_unit ends ============
 10488                           
 10489                           
 10490 ;; *************** function _isr *****************
 10491 ;; Defined at:
 10492 ;;		line 79 in file "../../../src/LC-meter.c"
 10493 ;; Parameters:    Size  Location     Type
 10494 ;;		None
 10495 ;; Auto vars:     Size  Location     Type
 10496 ;;		None
 10497 ;; Return value:  Size  Location     Type
 10498 ;;                  2  3255[COMMON] int 
 10499 ;; Registers used:
 10500 ;;		wreg, fsr0l, fsr0h, status,2, status,0
 10501 ;; Tracked objects:
 10502 ;;		On entry : 0/0
 10503 ;;		On exit  : 40/0
 10504 ;;		Unchanged: FFE00/0
 10505 ;; Data sizes:     COMMON   BANK0   BANK1   BANK3   BANK2
 10506 ;;      Params:         0       0       0       0       0
 10507 ;;      Locals:         0       0       0       0       0
 10508 ;;      Temps:          3       0       0       0       0
 10509 ;;      Totals:         3       0       0       0       0
 10510 ;;Total ram usage:        3 bytes
 10511 ;; Hardware stack levels used:    1
 10512 ;; This function calls:
 10513 ;;		Nothing
 10514 ;; This function is called by:
 10515 ;;		Interrupt level 1
 10516 ;; This function uses a non-reentrant model
 10517 ;;
 10518  1E76                     _isr:	
 10519                           
 10520                           ;LC-meter.c: 81: if(TMR2IF) {
 10521  1E76  1283               	bcf	3,5	;RP0=0, select bank0
 10522  1E77  1303               	bcf	3,6	;RP1=0, select bank0
 10523  1E78  1C8C               	btfss	12,1
 10524  1E79  2ECD               	goto	i1l7057
 10525                           
 10526                           ;LC-meter.c: 83: bres += 256;
 10527  1E7A  3001               	movlw	1
 10528  1E7B  1683               	bsf	3,5	;RP0=1, select bank3
 10529  1E7C  1703               	bsf	3,6	;RP1=1, select bank3
 10530  1E7D  07DC               	addwf	(_bres+1)^(0+384),f	;volatile
 10531                           
 10532                           ;LC-meter.c: 85: if(bres >= 5000) {
 10533  1E7E  3013               	movlw	19
 10534  1E7F  025C               	subwf	(_bres+1)^(0+384),w	;volatile
 10535  1E80  3088               	movlw	136
 10536  1E81  1903               	skipnz
 10537  1E82  025B               	subwf	_bres^(0+384),w	;volatile
 10538  1E83  1C03               	skipc
 10539  1E84  2ECA               	goto	i1l7055
 10540                           
 10541                           ;LC-meter.c: 86: bres -= 5000;
 10542  1E85  3088               	movlw	136
 10543  1E86  02DB               	subwf	_bres^(0+384),f	;volatile
 10544  1E87  3013               	movlw	19
 10545  1E88  1C03               	skipc
 10546  1E89  03DC               	decf	(_bres+1)^(0+384),f	;volatile
 10547  1E8A  02DC               	subwf	(_bres+1)^(0+384),f	;volatile
 10548                           
 10549                           ;LC-meter.c: 87: msecpart++;
 10550  1E8B  0ADD               	incf	_msecpart^(0+384),f	;volatile
 10551  1E8C  1903               	skipnz
 10552  1E8D  0ADE               	incf	(_msecpart+1)^(0+384),f	;volatile
 10553                           
 10554                           ;LC-meter.c: 88: msecs++;
 10555  1E8E  0AB8               	incf	_msecs^(0+384),f	;volatile
 10556  1E8F  1903               	skipnz
 10557  1E90  0AB9               	incf	(_msecs+1)^(0+384),f	;volatile
 10558  1E91  1903               	skipnz
 10559  1E92  0ABA               	incf	(_msecs+2)^(0+384),f	;volatile
 10560  1E93  1903               	skipnz
 10561  1E94  0ABB               	incf	(_msecs+3)^(0+384),f	;volatile
 10562                           
 10563                           ;LC-meter.c: 90: RC3 = (((blink > 200)) == 0);
 10564  1E95  3000               	movlw	0
 10565  1E96  1303               	bcf	3,6	;RP1=0, select bank1
 10566  1E97  026B               	subwf	(_blink+1)^(0+128),w
 10567  1E98  30C9               	movlw	201
 10568  1E99  1903               	skipnz
 10569  1E9A  026A               	subwf	_blink^(0+128),w
 10570  1E9B  1803               	btfsc	3,0
 10571  1E9C  2EA1               	goto	u139_20
 10572  1E9D  1283               	bcf	3,5	;RP0=0, select bank0
 10573  1E9E  1303               	bcf	3,6	;RP1=0, select bank0
 10574  1E9F  1587               	bsf	7,3
 10575  1EA0  2EA4               	goto	i1l7043
 10576  1EA1                     u139_20:	
 10577  1EA1  1283               	bcf	3,5	;RP0=0, select bank0
 10578  1EA2  1303               	bcf	3,6	;RP1=0, select bank0
 10579  1EA3  1187               	bcf	7,3
 10580  1EA4                     i1l7043:	
 10581                           
 10582                           ;LC-meter.c: 91: if(blink >= 400)
 10583  1EA4  3001               	movlw	1
 10584  1EA5  1683               	bsf	3,5	;RP0=1, select bank1
 10585  1EA6  026B               	subwf	(_blink+1)^(0+128),w
 10586  1EA7  3090               	movlw	144
 10587  1EA8  1903               	skipnz
 10588  1EA9  026A               	subwf	_blink^(0+128),w
 10589  1EAA  1C03               	skipc
 10590  1EAB  2EB2               	goto	i1l7047
 10591                           
 10592                           ;LC-meter.c: 92: blink -= 400;
 10593  1EAC  3090               	movlw	144
 10594  1EAD  02EA               	subwf	_blink^(0+128),f
 10595  1EAE  3001               	movlw	1
 10596  1EAF  1C03               	skipc
 10597  1EB0  03EB               	decf	(_blink+1)^(0+128),f
 10598  1EB1  02EB               	subwf	(_blink+1)^(0+128),f
 10599  1EB2                     i1l7047:	
 10600                           
 10601                           ;LC-meter.c: 93: ++blink;
 10602  1EB2  0AEA               	incf	_blink^(0+128),f
 10603  1EB3  1903               	skipnz
 10604  1EB4  0AEB               	incf	(_blink+1)^(0+128),f
 10605                           
 10606                           ;LC-meter.c: 96: if(msecpart >= 1000) {
 10607  1EB5  3003               	movlw	3
 10608  1EB6  1703               	bsf	3,6	;RP1=1, select bank3
 10609  1EB7  025E               	subwf	(_msecpart+1)^(0+384),w	;volatile
 10610  1EB8  30E8               	movlw	232
 10611  1EB9  1903               	skipnz
 10612  1EBA  025D               	subwf	_msecpart^(0+384),w	;volatile
 10613  1EBB  1C03               	skipc
 10614  1EBC  2ECA               	goto	i1l7055
 10615                           
 10616                           ;LC-meter.c: 98: seconds++;
 10617  1EBD  0ABC               	incf	_seconds^(0+384),f	;volatile
 10618  1EBE  1903               	skipnz
 10619  1EBF  0ABD               	incf	(_seconds+1)^(0+384),f	;volatile
 10620  1EC0  1903               	skipnz
 10621  1EC1  0ABE               	incf	(_seconds+2)^(0+384),f	;volatile
 10622  1EC2  1903               	skipnz
 10623  1EC3  0ABF               	incf	(_seconds+3)^(0+384),f	;volatile
 10624                           
 10625                           ;LC-meter.c: 99: msecpart -= 1000;
 10626  1EC4  30E8               	movlw	232
 10627  1EC5  02DD               	subwf	_msecpart^(0+384),f	;volatile
 10628  1EC6  3003               	movlw	3
 10629  1EC7  1C03               	skipc
 10630  1EC8  03DE               	decf	(_msecpart+1)^(0+384),f	;volatile
 10631  1EC9  02DE               	subwf	(_msecpart+1)^(0+384),f	;volatile
 10632  1ECA                     i1l7055:	
 10633                           
 10634                           ;LC-meter.c: 100: }
 10635                           ;LC-meter.c: 101: }
 10636                           ;LC-meter.c: 103: TMR2IF = 0;
 10637  1ECA  1283               	bcf	3,5	;RP0=0, select bank0
 10638  1ECB  1303               	bcf	3,6	;RP1=0, select bank0
 10639  1ECC  108C               	bcf	12,1
 10640  1ECD                     i1l7057:	
 10641                           
 10642                           ;LC-meter.c: 104: }
 10643                           ;LC-meter.c: 106: if(RCIF) { rxfifo[rxiptr] = RCREG; ser_tmp = (rxiptr + 1) & ((uint8_t)
      +                          16 - 1); if(ser_tmp != rxoptr) rxiptr = ser_tmp; }; if(TXIF && TXIE) { TXREG = txfifo[tx
      +                          optr]; ++txoptr; txoptr &= ((uint8_t)16 - 1); if(txoptr == txiptr) { TXIE = 0; }; TXIF =
      +                           0; 
 10644  1ECD  1E8C               	btfss	12,5
 10645  1ECE  2EE0               	goto	i1l7069
 10646  1ECF  0878               	movf	_rxiptr,w
 10647  1ED0  3E90               	addlw	_rxfifo& (0+255)
 10648  1ED1  0084               	movwf	4
 10649  1ED2  081A               	movf	26,w	;volatile
 10650  1ED3  1783               	bsf	3,7	;select IRP bank3
 10651  1ED4  0080               	movwf	0
 10652  1ED5  0A78               	incf	_rxiptr,w	;volatile
 10653  1ED6  1683               	bsf	3,5	;RP0=1, select bank1
 10654  1ED7  00ED               	movwf	_ser_tmp^(0+128)
 10655  1ED8  300F               	movlw	15
 10656  1ED9  05ED               	andwf	_ser_tmp^(0+128),f
 10657  1EDA  086D               	movf	_ser_tmp^(0+128),w
 10658  1EDB  066C               	xorwf	_rxoptr^(0+128),w	;volatile
 10659  1EDC  1903               	skipnz
 10660  1EDD  2EE0               	goto	i1l7069
 10661  1EDE  086D               	movf	_ser_tmp^(0+128),w
 10662  1EDF  00F8               	movwf	_rxiptr	;volatile
 10663  1EE0                     i1l7069:	
 10664  1EE0  1283               	bcf	3,5	;RP0=0, select bank0
 10665  1EE1  1E0C               	btfss	12,4
 10666  1EE2  2EF7               	goto	i1l3264
 10667  1EE3  1683               	bsf	3,5	;RP0=1, select bank1
 10668  1EE4  1E0C               	btfss	12,4
 10669  1EE5  2EF7               	goto	i1l3264
 10670  1EE6  087A               	movf	_txoptr,w
 10671  1EE7  3EA0               	addlw	_txfifo& (0+255)
 10672  1EE8  0084               	movwf	4
 10673  1EE9  1783               	bsf	3,7	;select IRP bank3
 10674  1EEA  0800               	movf	0,w
 10675  1EEB  1283               	bcf	3,5	;RP0=0, select bank0
 10676  1EEC  0099               	movwf	25	;volatile
 10677  1EED  0AFA               	incf	_txoptr,f	;volatile
 10678  1EEE  300F               	movlw	15
 10679  1EEF  05FA               	andwf	_txoptr,f	;volatile
 10680  1EF0  087A               	movf	_txoptr,w	;volatile
 10681  1EF1  0679               	xorwf	_txiptr,w	;volatile
 10682  1EF2  1683               	bsf	3,5	;RP0=1, select bank1
 10683  1EF3  1903               	btfsc	3,2
 10684  1EF4  120C               	bcf	12,4
 10685  1EF5  1283               	bcf	3,5	;RP0=0, select bank0
 10686  1EF6  120C               	bcf	12,4
 10687  1EF7                     i1l3264:	
 10688  1EF7  0873               	movf	??_isr+2,w
 10689  1EF8  008A               	movwf	10
 10690  1EF9  0872               	movf	??_isr+1,w
 10691  1EFA  0084               	movwf	4
 10692  1EFB  0E71               	swapf	??_isr^(0+-128),w
 10693  1EFC  0083               	movwf	3
 10694  1EFD  0EFE               	swapf	126,f
 10695  1EFE  0E7E               	swapf	126,w
 10696  1EFF  0009               	retfie
 10697  1F00                     __end_of_isr:	
 10698                           
 10699 ;; =============== function _isr ends ============
 10700  0006                     
 10701                           	psect	intentry
 10702  0004                     __pintentry:	
 10703                           ; Regs used in _isr: [wreg-fsr0h+status,2+status,0]
 10704                           
 10705  0004                     interrupt_function:	
 10706  007E                     saved_w	set	btemp
 10707  0004  00FE               	movwf	btemp
 10708  0005  0E03               	swapf	3,w
 10709  0006  00F1               	movwf	??_isr
 10710  0007  0804               	movf	4,w
 10711  0008  00F2               	movwf	??_isr+1
 10712  0009  080A               	movf	10,w
 10713  000A  00F3               	movwf	??_isr+2
 10714  000B  160A  158A  2E76   	ljmp	_isr
 10715                           
 10716                           	psect	functab
 10717  0700                     __pfunctab:	
 10718  0700                     fptable:	
 10719  0700  00FF               	movwf	(btemp+1)& (0+127)
 10720  0701  3007               	movlw	high fptable
 10721  0702  008A               	movwf	10
 10722  0703  087F               	movf	(btemp+1)& (0+127),w
 10723  0704  0782               	addwf	2,f
 10724  0705                     fpbase:	
 10725  0705  2F05               	goto	fpbase	; Call via a null pointer and you will get stuck here.
 10726  0706                     fp__output_putch:	
 10727  0706                     entry__output_putch:	
 10728  0706  120A  158A  290F   	ljmp	_output_putch
 10729  0709                     fp__ser_putch:	
 10730  0709                     entry__ser_putch:	
 10731  0709  120A  158A  2DCB   	ljmp	_ser_putch
 10732  070C                     fp__format_putchar:	
 10733  070C  120A  118A  2FF7   	ljmp	_format_putchar
 10734  007E                     btemp	set	126	;btemp
 10735  007E                     wtemp0	set	126


HI-TECH Software PICC Macro Assembler V9.83 build 10920 
Symbol Table                                                                                   Fri Aug 30 16:43:54 2019

                ___altofl@sign 0036                   ___fldiv@cntr 0042                              pc 0002  
                 ___fldiv@sign 0044                             _F1 01C0                             _F2 01B0  
                           _F3 01B4                             fsr 0004            ___wmul@multiplicand 0076  
                 ___flpack@arg 0020                   ___flpack@exp 0024                    _putchar_ptr 006F  
                          l630 06FF                            l633 0000                            l636 0000  
                          _GIE 005F                            _RC3 003B                            _RC4 003C  
                          _RC5 003D                            _RC7 003F                            _RX9 00C6  
                          _TX9 04C6                            _exp 1204                            _log 1680  
                          _isr 1E76                            _pow 154F                            fsr0 0004  
                          indf 0000                   ___flmul@cntr 0056                   ___flmul@sign 0057  
                ___flpack@sign 0025                   fp__ser_putch 0709                   ___fltol@exp1 0031  
                         l1306 0000                           l4011 0000                           l1284 0000  
                         l4021 0000                           l3301 0000                           l1278 0000  
                         l4031 0000                           l3311 0000                           l2540 0000  
                         l4141 0000                           l3253 0000                           l3317 0000  
                         l4152 13E1                           l4225 0000                           l4170 0F73  
                         l4075 013C                           l3291 0000                           l4091 0000  
                         l2572 0000                           l4166 0000                           l4262 0000  
                         l2558 0000                           l1919 0000                           l3288 0000  
                         l7001 0000                           l4257 0000                           l4337 0000  
                         l7003 0000                           l7011 0000                           l4364 0000  
                         l7005 0000                           l7021 07D3                           l7013 0000  
                         l7023 07E2                           l7015 0000                           l7007 0000  
                         l7031 0000                           l7025 0000                           l7017 0000  
                         l7009 0000                           l4369 17BE                           l7201 13B2  
                         l7027 0000                           l7019 0000                           l7211 0000  
                         l7203 13B7                           l7029 0000                           l7221 13DD  
                         l7205 0000                           l7207 0000                           l7231 0000  
                         l7217 13D5                           l7209 0000                           l7321 1405  
                         l9001 0000                           l8211 0000                           l8203 0000  
                         l7227 13EB                           l7219 0000                           l7235 0F56  
                         l7251 0DB4                           l7323 0000                           l3939 14A6  
                         ?_exp 00BA                           l8213 0000                           l8205 11B0  
                         l8221 0000                           l7229 0000                           l7245 0000  
                         l7253 0000                           l8301 0000                           l7317 0000  
                         ?_log 00B4                           l3958 0000                           l8231 0000  
                         l7191 0000                           l8311 0000                           l7351 1461  
                         l3968 0000                           l8209 11B8                           l8241 0796  
                         l7249 0000                           l8305 11A7                           l8321 0000  
                         l8313 0000                           l7353 0000                           l7329 141F  
                         l8401 0132                           l8235 0000                           l8219 0000  
                         l8307 0000                           l8331 0000                           l8323 0000  
                         l8315 0000                           l7339 0000                           l8403 0138  
                         ?_isr 0071                           l8229 077F                           l8253 07A7  
                         l8261 07BA                           l8245 0000                           l8341 0000  
                         l8333 0000                           l8325 0000                           l8309 0000  
                         l8413 0000                           l8501 069B                           l8191 176B  
                         l8183 0000                           l8239 0000                           l8271 17C9  
                         l7199 0000                           l8343 0000                           l8335 0000  
                         l8327 0000                           l8319 10E6                           l8423 0000  
                         l8415 0158                           l8407 0000                           l8431 0000  
                         l8503 0000                           l8193 0000                           l8281 17E0  
                         l8273 17CE                           l8265 0000                           l8345 10FE  
                         l8337 0000                           l8329 1105                           l8425 0000  
                         l8417 0000                           l8409 014A                           l8361 00DD  
                         l8353 0000                           l8441 0000                           l8513 06BF  
                         l8505 0000                           l8601 14AB                           l8195 0000  
                         l8187 0000                           l8259 0000                           l8283 17E6  
                         l8275 0000                           l8267 0000                           l8291 0000  
                         l8347 1117                           l8339 0000                           l8427 017D  
                         l8419 0000                           l8371 00F5                           l8355 0000  
                         l8451 0000                           l8443 0000                           l8435 0F99  
                         l8515 0000                           l8507 0000                           l8523 0000  
                         l8611 1518                           l8603 0000                           l8197 0000  
                         l8277 0000                           l8269 17C3                           l8293 0000  
                         l8349 0000                           l8381 0000                           l8373 0000  
                         l8365 00E6                           l8357 0000                           l8461 0000  
                         l8453 0000                           l8445 0000                           l8517 0000  
                         l8509 06A9                           l8525 0000                           l8533 0000  
                         l8621 0000                           l8701 0603                           l8199 0000  
                         l8287 17ED                           l8279 17DB                           l8295 0000  
                         l8391 0119                           l8383 0103                           l8367 0000  
                         l8455 0000                           l8447 0000                           l8439 0FAD  
                         l8519 0000                           l8471 0000                           l8543 1539  
                         l8551 070F                           l8631 0000                           l8623 0000  
                         l8615 0000                           l8703 0000                           l8289 0000  
                         l8297 0000                           l8385 0000                           l8393 011E  
                         l8465 0000                           l8457 0FBD                           l8449 0000  
                         l8481 0000                           l8529 17A1                           l8537 0000  
                         l8561 0718                           l8553 0000                           l8625 0000  
                         l8617 0000                           l8633 0000                           l8705 0000  
                         l8721 0000                           l8713 16A0                           l8801 0000  
                         l6971 0000                           l8299 1185                           l8395 0122  
                         l8379 0000                           l8467 0000                           l8491 0000  
                         l8483 0000                           l8475 065F                           l8539 0000  
                         l8547 0000                           l8571 0000                           l8563 0000  
                         l8555 0000                           l8627 0000                           l8619 0000  
                         l8643 0000                           l8707 0000                           l8651 0000  
                         l8723 0000                           l8811 0000                           l8803 0000  
                         l6981 0000                           l6973 0DCB                           l8397 0000  
                         l8389 0113                           l8493 0000                           l8485 0000  
                         l8581 075C                           l8573 0000                           l8629 0000  
                         l8645 0000                           l8661 0000                           l8653 0000  
                         l8717 16AC                           l8709 0000                           l8733 1212  
                         l8805 1606                           l8821 0000                           l8901 0000  
                         l6991 0000                           l6983 0000                           l6975 0000  
                         l8495 0000                           l8487 0000                           l8479 0673  
                         l8575 0000                           l8559 0000                           l8591 0000  
                         l8639 00AD                           l8671 0000                           l8663 0000  
                         l8655 0000                           l8719 0000                           l8751 0000  
                         l8743 123B                           l8727 0000                           l8807 0000  
                         l8823 0000                           l8831 0E31                           l8815 0000  
                         l8911 0CD4                           l6993 0000                           l6985 0000  
                         l6977 0000                           l8497 0685                           l8489 0000  
                         l8577 074A                           l8593 0000                           l8649 0000  
                         l8681 0000                           l8673 0000                           l8665 0000  
                         l8761 0000                           l8753 1292                           l8809 0000  
                         l8825 0000                           l8913 0000                           l8841 0000  
                         l8833 0000                           l6995 0000                           l6987 0000  
                         l6979 0000                           l8587 0000                           l8579 0752  
                         l8691 05A6                           l8675 0000                           l8667 0000  
                         l8659 0200                           l8771 1372                           l8755 0000  
                         l8747 1260                           l8819 0000                           l8923 0000  
                         l8915 0D0E                           l8851 0000                           l8843 0000  
                         l8835 0000                           l8931 0000                           l6997 0000  
                         l6989 0000                           l8693 0000                           l8677 0000  
                         l8669 0000                           l8757 0000                           l8749 0000  
                         l8781 0000                           l8829 0F33                           l8925 0000  
                         l8917 0000                           l8909 0000                           l8861 0000  
                         l8853 0000                           l8845 0000                           l8837 0000  
                         l8941 0000                           l8933 0000                           ?_pow 00C5  
                         l6999 0000                           l8695 05D4                           l8679 0000  
                         l8767 0000                           l8759 0000                           l8775 0000  
                         l8783 0000                           l8927 0000                           l8919 0D47  
                         l8871 0000                           l8863 0000                           l8855 0000  
                         l8847 0000                           l8839 0000                           l8951 0000  
                         l8943 0000                           l8935 0000                           l8697 0000  
                         l8689 0000                           l8777 0000                           l8793 1582  
                         l8873 0000                           l8865 0000                           l8857 0000  
                         l8849 0000                           l8961 0000                           l8953 0000  
                         l8945 0000                           l8937 0000                           l8929 0000  
                         l8699 0600                           l8787 1574                           l8891 0000  
                         l8883 0A7E                           l8875 0000                           l8867 0000  
                         l8859 0000                           l8971 0000                           l8963 0000  
                         l8955 0000                           l8947 0000                           l8939 0000  
                         l8893 0000                           l8885 0000                           l8877 0000  
                         l8869 0000                           l8981 0000                           l8973 0000  
                         l8965 0000                           l8957 0000                           l8949 0000  
                         l8799 15EE                           l8895 0000                           l8887 0000  
                         l8879 0000                           l8983 0000                           l8975 0000  
                         l8967 0000                           l8959 0000                           STR_1 185A  
                         l8897 0000                           l8889 0000                           l8993 08F7  
                         l8985 0000                           l8977 0000                           l8969 0000  
                         STR_3 185D                           STR_4 1877                           l8899 0000  
                         l8995 08FC                           l8987 08E7                           l8979 0000  
                         STR_5 1860                           STR_6 1866                           l8997 0000  
                         l8989 0000                           STR_7 186C                           STR_8 1852  
                         l8999 0000                           STR_9 185D                           _BRGH 04C2  
                         _CREN 00C4                           _T0CS 040D                           u1310 07D0  
                         u1330 07DF                           _T0SE 040C                           u1350 07EB  
                         _CCal 01D7                           u3055 0FD0                           u1680 0000  
                         u3425 15E6                           u2645 0788                           u1685 13C0  
                         u3517 10DD                           u3527 10EA                           u3385 136B  
                         _PEIE 005E                           u2685 07AD                           u1895 1428  
                         u2785 11A2                           _RCIF 0065                           _TMR0 0001  
                         _TMR2 0011                           _SPEN 00C7                           _TXIE 0464  
                         _TXEN 04C5                           _TXIF 0064                           _SYNC 04C4  
                         _bres 01DB                           _main 0877                           btemp 007E  
                         exp@x 00BA                           log@x 00B4          __size_of_output_putch 0003  
                         pow@x 00C5                           pow@y 00C9     __end_of_measure_inductance 064B  
                         start 000E                          ??_exp 0078                          ??_log 0078  
                        ??_isr 0071                          ??_pow 0078                  ___fltol@sign1 0030  
              __end_of___fladd 0195                          ?_main 0071                __end_of___fldiv 1000  
              __end_of___flneg 13A3                          STR_10 1872                          STR_11 185D  
              __end_of___flmul 06E3                __end_of___flsub 06FF                __end_of___fltol 13FA  
                        _CMCON 009C                __end_of___lwdiv 079B                __end_of___lwmod 07BF  
                        _RCREG 001A                          _SPBRG 0099                          _TRISA 0085  
                        _TRISC 0087                          _SSPEN 00A5                          _TXREG 0019  
                ___awtofl@sign 0036                          _nRBPU 040F                          _log10 11C7  
                        _blink 00EA                          _floor 147A                          _ldexp 13FA  
                        _frexp 175A                   _output_putch 090F                          _msecs 01B8  
                        fpbase 0705                          pclath 000A                          pow@yi 00D2  
              format_number@di 004B                          status 0003                          wtemp0 007E  
              ??_print_reading 0076             _format_number$3434 0049                    ldexp@newexp 006B  
              format_putchar@c 0076                   __end_of_main 090F               format_double@num 00D6  
                ?_measure_freq 0074         __size_of_format_double 0130                         ??_main 0078  
          format_double@weight 00DE         __size_of_format_number 0062         __size_of_format_xint32 002A  
                       ?_log10 00BA                         ?_floor 0067                         ?_ldexp 0067  
                       ?_frexp 0020               __end_of___altofl 154F               __end_of___flpack 1800  
             __end_of___awtofl 17B5               __end_of___lltofl 1680                         i1l3264 1EF7  
                       i1l7041 0000                         i1l7033 0000                         i1l7043 1EA4  
                       i1l7061 0000                         i1l7053 0000                         i1l7063 0000  
                       i1l7047 1EB2                         i1l7039 0000                         i1l7055 1ECA  
                       i1l7065 0000                         i1l7049 0000                         i1l7057 1ECD  
                       i1l7075 0000                         i1l7077 0000                         i1l7069 1EE0  
                       i1l7079 0000                         u139_20 1EA1               __end_of___lwtofl 1145  
                       _TMR0IF 005A                         _TMR2IE 0461                         _TMR2IF 0061  
                       _TMR2ON 0092             entry__output_putch 0706                         _TRISC0 0438  
                       _TRISC1 0439                         _TRISC2 043A                         _TRISC3 043B  
                       _TRISC4 043C                         _TRISC5 043D                         _TRISC6 043E  
                       ___flge 0F39                      ??___fladd 0060                         ___wmul 11AE  
                    ??___fldiv 003A                      ??___flneg 0078                      ??___flmul 004D  
                    ??___flsub 0078                      ??___fltol 002C                 ??_measure_freq 0020  
                    ??___lwdiv 0078                   ?_timer2_init 0071                      ??___lwmod 0078  
                       log10@x 00BA                         _rxfifo 0190                         clrloop 07F0  
                       _txfifo 01A0                         _rxiptr 0078                         _rxoptr 00EC  
                       floor@i 00A0                         _txiptr 0079                         floor@x 0067  
                       exp@exp 00C2                         log@exp 00B8                         _txoptr 007A  
                       fptable 0700               __end_of_ser_init 085E                         fptotal 0006  
             __end_of_ser_puts 0DCB             timer2_init@ps_mode 0075                         saved_w 007E  
             format_number@buf 0028               format_number@pad 0026        _measure_inductance$5202 00B9  
      _measure_inductance$5203 00BD        _measure_inductance$5204 00A8        _measure_inductance$5205 00AC  
      _measure_inductance$5206 00B0        _measure_inductance$5207 00B4                     ___fladd@f1 0058  
                   ___fladd@f2 005C                     ___flge@ff1 0020                     ___flge@ff2 0024  
                _format_double 0E09                     ___altofl@c 0032                     ___fldiv@f1 0036  
                   ___fldiv@f2 0032                     ___fldiv@f3 003E                     ___flneg@f1 0074  
                _format_number 070F                  _format_xint32 0DDF                     ___flmul@f1 0045  
                   ___flmul@f2 0049                   eval_poly@res 00B0                     ___flsub@f1 006B  
                   ___flsub@f2 0067                     ___fltol@f1 0028                     ___awtofl@c 0032  
       measure_capacitance@Cin 01D3   __size_of_measure_capacitance 04A1         measure_capacitance@var 01D1  
               __pcstackCOMMON 0071             __size_of_calibrate 0099                   __pidataBANK0 0000  
                   ___lltofl@c 0026             __size_of_delay10ms 0069                  __end_of_log10 1204  
                __end_of_floor 1529                  __end_of_ldexp 147A                  __end_of_frexp 1798  
                   ___lwtofl@c 0028                        ??_log10 0078                        ??_floor 0078  
                      ??_ldexp 006D                        ??_frexp 0074                     _log10$5208 00BE  
                   __pbssBANK1 00E6                 ?_format_double 00D6                     __pbssBANK3 0190  
           __size_of_eval_poly 00A5             __size_of_indicator 0001        __size_of_format_putchar 0001  
            fp__format_putchar 070C                 ?_format_number 0023                 ?_format_xint32 004D  
                   __pmaintext 0877                        ?___flge 0020                        ?___wmul 0074  
                   __pintentry 0004                      ?___altofl 0032                     __ptext1120 1680  
                   __ptext1121 0195                     __ptext1130 1130                     __ptext1122 0DDF  
                   __ptext1131 1798                     __ptext1123 06E3                     __ptext1115 0912  
                   __ptext1140 090F                     __ptext1132 064B                     __ptext1124 0011  
                   __ptext1116 0E09                     __ptext1141 0DB3                     __ptext1133 0F85  
                   __ptext1125 103C                     __ptext1117 154F                     __ptext1150 07BF  
                   __ptext1142 0F39                     __ptext1134 00B6                     __ptext1126 147A  
                   __ptext1118 11C7                     __ptext1151 0845                     __ptext1143 13A3  
                   __ptext1135 13FA                     __ptext1127 070F                     __ptext1119 1204  
                   __ptext1152 07F8                     __ptext1144 139A                     __ptext1136 10D5  
                   __ptext1128 166B                     __ptext1153 07F9                     __ptext1145 17B5  
                   __ptext1137 1145                     __ptext1129 1529                     __ptext1154 06FF  
                   __ptext1146 079B                     __ptext1138 07F7                     __ptext1155 1E76  
                   __ptext1147 0771                     __ptext1139 0DCB                     __ptext1148 11AE  
                   __ptext1149 175A                      ?___flpack 0020                      ?___awtofl 0032  
                    ?___lltofl 0026             _measure_inductance 0195             __size_of_ser_putch 0014  
                      _T2CKPS0 0090                        _T2CKPS1 0091                      ?___lwtofl 0028  
          ?_measure_inductance 0071                entry__ser_putch 0709                     _ldexp$4679 00A0  
            __end_of_calibrate 10D5                        _TOUTPS0 0093                        _TOUTPS1 0094  
                      _TOUTPS2 0095              __end_of_delay10ms 11AE           __end_of_measure_freq 1130  
                    ?_ser_init 0071           ??_measure_inductance 0078                      ?_ser_puts 0071  
              __size_of___flge 004C                        ___fladd 00B6                        ___fldiv 0F85  
                      ___flneg 139A                        ___flmul 064B                        ___flsub 06E3  
                      ___fltol 13A3                __size_of___wmul 0019                        ___lwdiv 0771  
                      ___lwmod 079B                     ??___altofl 0078                     ??___flpack 0074  
                   ??___awtofl 0078              __end_of_eval_poly 00B6              __end_of_indicator 07F9  
                   ??___lltofl 0078           __size_of_timer2_init 0030                     ??___lwtofl 0078  
                 __size_of_exp 0196                   __size_of_log 00DA                   __size_of_isr 008A  
                 __size_of_pow 011C                        _seconds 01BC                        _ser_tmp 00ED  
              ??_format_double 0078           end_of_initialization 0873                ??_format_number 0027  
              ??_format_xint32 0078                        exp@sign 00C4              __end_of_ser_putch 0DDF  
                      pow@sign 00D1  measure_inductance@denominator 00A4          __end_of_print_reading 07FA  
                   ??_ser_init 0074                     ??_ser_puts 0075              format_number@base 0025  
                   _print_unit 06FF            _measure_capacitance 0912                    ___fldiv@exp 0043  
               _format_putchar 07F7                    ___flmul@exp 0051           ?_measure_capacitance 0071  
      measure_capacitance@unit 01D0                 format_double@m 00E4         measure_inductance@unit 00B8  
               __end_of___flge 0F85                 __end_of___wmul 11C7                     floor@expon 00A4  
              fp__output_putch 0706                 format_number@i 004C                 format_number@n 0023  
               format_xint32@x 004D            start_initialization 085E                     eval_poly@d 00A8  
                   eval_poly@n 00A9                     eval_poly@x 00A4          __size_of_measure_freq 005B  
                   ldexp@value 0067                    __end_of_exp 139A                    __end_of_log 175A  
                  __end_of_isr 1F00                    __end_of_pow 166B         __end_of_format_putchar 07F8  
           format_double@digit 00E2                     frexp@value 0020          ??_measure_capacitance 0078  
                     ??___flge 0074                       ??___wmul 0078                    __pdataBANK0 006F  
                 _measure_freq 10D5                   delay10ms@run 002C       print_reading@measurement 0074  
            __size_of___altofl 0026              __size_of___flpack 004B              __size_of___awtofl 001D  
                  ?_print_unit 0071              __size_of___lltofl 0015                    __pbssCOMMON 0078  
            __size_of___lwtofl 0015                  __pcstackBANK0 0020                  __pcstackBANK1 00A0  
                __pcstackBANK3 01C4                  ?_output_putch 0076                ?_format_putchar 0076  
            measure_freq@count 0026                      _calibrate 103C                      _delay10ms 1145  
                    __pnvBANK3 01D7               ___lwdiv@dividend 0076                      __pfunctab 0700  
                     ?___fladd 0058                       ?___fldiv 0032                       ?___flneg 0074  
                     ?___flmul 0045                       ?___flsub 0067                       ?___fltol 0028  
            __size_of_ser_init 0019                       ?___lwdiv 0074                       ?___lwmod 0074  
            __size_of_ser_puts 0018                      __pstrings 1800                      _eval_poly 0011  
                output_putch@c 0076                      _indicator 07F8                 ??_output_putch 0077  
             ___lwdiv@quotient 0021                 __size_of_log10 003D                 __size_of_floor 00AF  
               __size_of_ldexp 0080                 __size_of_frexp 003E              interrupt_function 0004  
                   ?_calibrate 0071                 ___wmul@product 0020                     ser_putch@c 0076  
                   ?_delay10ms 0022                  measure_freq@i 0025            __size_of_print_unit 0001  
                    _ser_putch 0DCB    __size_of_measure_inductance 04B6                  ??_timer2_init 0074  
                  __stringbase 1805              ___wmul@multiplier 0074                     ?_eval_poly 00A4  
                   ?_indicator 0071          measure_inductance@Lin 00C3          measure_inductance@var 00C1  
        __end_of_format_double 0F39           format_number@padchar 0048          __end_of_format_number 0771  
        __end_of_format_xint32 0E09                      frexp@eptr 0024                     ?_ser_putch 0076  
                  delay10ms@ms 0028               __size_of___fladd 00DF               __size_of___fldiv 007B  
             __size_of___flneg 0009               __size_of___flmul 0098               __size_of___flsub 001C  
             __size_of___fltol 0057                       ___altofl 1529                       ___flpack 17B5  
             __size_of___lwdiv 002A               __size_of___lwmod 0024                       ___awtofl 1798  
                     ___lltofl 166B                  timer2_init@ps 0076                       ___lwtofl 1130  
             measure_freq@prev 0024            __end_of_timer2_init 07EF                       _exp$4863 00BE  
              ___lwdiv@divisor 0074                ___lwdiv@counter 0020         __size_of_print_reading 0001  
                     _pow$5209 00CD                    ??_calibrate 0078                  __size_of_main 0098  
                  ??_delay10ms 0024                      ser_puts@s 0075                       _msecpart 01DD  
                     clear_ram 07EF                       _ser_init 0845                       _ser_puts 0DB3  
                     _timer1of 00E6           __end_of_output_putch 0912                       exp@coeff 1806  
        ___flmul@f3_as_product 0052                       log@coeff 182E    measure_inductance@numerator 00A0  
             ??_format_putchar 0076                   ??_print_unit 0074                    ??_eval_poly 00AB  
                  ??_indicator 0074                       intlevel1 0700    __end_of_measure_capacitance 0DB3  
             ___lwmod@dividend 0076                      stringcode 1800                    ??_ser_putch 0075  
           __end_of_print_unit 0700                  _print_reading 07F9           delay10ms@period_10ms 0022  
                  _timer2_init 07BF             _format_double$5198 00DA       _measure_capacitance$5200 01C8  
     _measure_capacitance$5201 01CC       _measure_capacitance$5199 01C4                ___lwmod@divisor 0074  
              ___lwmod@counter 0020                       stringdir 1800                       stringtab 1800  
                 ___fladd@exp1 0066                   ___fladd@exp2 0065                   ___fladd@sign 0064  
               ?_print_reading 0074  
