gpasm-1.5.2 #1319 (Sep 16 2019) build/default   27.11.2019  16:57:28        PAGE  1


LOC    OBJECT CODE    LINE  SOURCE TEXT
  VALUE

                      00001 ;--------------------------------------------------------
                      00002 ; File Created by SDCC : free open source ANSI-C Compiler
                      00003 ; Version 3.9.0 #11195 (Linux)
                      00004 ;--------------------------------------------------------
                      00005 ; PIC16 port for the Microchip 16-bit core micros
                      00006 ;--------------------------------------------------------
                      00007         list    p=18f2550
                      00008         radix   dec
                      00009 
                      00010 
                      00011 ;--------------------------------------------------------
                      00012 ; public variables in this module
                      00013 ;--------------------------------------------------------
  0000                00014         global  _format_number
  0000                00015         global  _format_xint32
  0000                00016         global  _format_double
  0000                00017         global  _format_float
                      00018 
                      00019 ;--------------------------------------------------------
                      00020 ; extern variables in this module
                      00021 ;--------------------------------------------------------
  0000                00022         extern  _UFRMLbits
  0000                00023         extern  _UFRMHbits
  0000                00024         extern  _UIRbits
  0000                00025         extern  _UIEbits
  0000                00026         extern  _UEIRbits
  0000                00027         extern  _UEIEbits
  0000                00028         extern  _USTATbits
  0000                00029         extern  _UCONbits
  0000                00030         extern  _UADDRbits
  0000                00031         extern  _UCFGbits
  0000                00032         extern  _UEP0bits
  0000                00033         extern  _UEP1bits
  0000                00034         extern  _UEP2bits
  0000                00035         extern  _UEP3bits
  0000                00036         extern  _UEP4bits
  0000                00037         extern  _UEP5bits
  0000                00038         extern  _UEP6bits
  0000                00039         extern  _UEP7bits
  0000                00040         extern  _UEP8bits
  0000                00041         extern  _UEP9bits
  0000                00042         extern  _UEP10bits
  0000                00043         extern  _UEP11bits
  0000                00044         extern  _UEP12bits
  0000                00045         extern  _UEP13bits
  0000                00046         extern  _UEP14bits
  0000                00047         extern  _UEP15bits
  0000                00048         extern  _PORTAbits
  0000                00049         extern  _PORTBbits
  0000                00050         extern  _PORTCbits
  0000                00051         extern  _PORTEbits
  0000                00052         extern  _LATAbits
  0000                00053         extern  _LATBbits
gpasm-1.5.2 #1319 (Sep 16 2019) build/default   27.11.2019  16:57:28        PAGE  2


LOC    OBJECT CODE    LINE  SOURCE TEXT
  VALUE

  0000                00054         extern  _LATCbits
  0000                00055         extern  _DDRAbits
  0000                00056         extern  _TRISAbits
  0000                00057         extern  _DDRBbits
  0000                00058         extern  _TRISBbits
  0000                00059         extern  _DDRCbits
  0000                00060         extern  _TRISCbits
  0000                00061         extern  _OSCTUNEbits
  0000                00062         extern  _PIE1bits
  0000                00063         extern  _PIR1bits
  0000                00064         extern  _IPR1bits
  0000                00065         extern  _PIE2bits
  0000                00066         extern  _PIR2bits
  0000                00067         extern  _IPR2bits
  0000                00068         extern  _EECON1bits
  0000                00069         extern  _RCSTAbits
  0000                00070         extern  _TXSTAbits
  0000                00071         extern  _T3CONbits
  0000                00072         extern  _CMCONbits
  0000                00073         extern  _CVRCONbits
  0000                00074         extern  _CCP1ASbits
  0000                00075         extern  _ECCP1ASbits
  0000                00076         extern  _CCP1DELbits
  0000                00077         extern  _ECCP1DELbits
  0000                00078         extern  _BAUDCONbits
  0000                00079         extern  _BAUDCTLbits
  0000                00080         extern  _CCP2CONbits
  0000                00081         extern  _CCP1CONbits
  0000                00082         extern  _ADCON2bits
  0000                00083         extern  _ADCON1bits
  0000                00084         extern  _ADCON0bits
  0000                00085         extern  _SSPCON2bits
  0000                00086         extern  _SSPCON1bits
  0000                00087         extern  _SSPSTATbits
  0000                00088         extern  _T2CONbits
  0000                00089         extern  _T1CONbits
  0000                00090         extern  _RCONbits
  0000                00091         extern  _WDTCONbits
  0000                00092         extern  _HLVDCONbits
  0000                00093         extern  _LVDCONbits
  0000                00094         extern  _OSCCONbits
  0000                00095         extern  _T0CONbits
  0000                00096         extern  _STATUSbits
  0000                00097         extern  _INTCON3bits
  0000                00098         extern  _INTCON2bits
  0000                00099         extern  _INTCONbits
  0000                00100         extern  _STKPTRbits
  0000                00101         extern  _buffer
  0000                00102         extern  _UFRM
  0000                00103         extern  _UFRML
  0000                00104         extern  _UFRMH
  0000                00105         extern  _UIR
  0000                00106         extern  _UIE
gpasm-1.5.2 #1319 (Sep 16 2019) build/default   27.11.2019  16:57:28        PAGE  3


LOC    OBJECT CODE    LINE  SOURCE TEXT
  VALUE

  0000                00107         extern  _UEIR
  0000                00108         extern  _UEIE
  0000                00109         extern  _USTAT
  0000                00110         extern  _UCON
  0000                00111         extern  _UADDR
  0000                00112         extern  _UCFG
  0000                00113         extern  _UEP0
  0000                00114         extern  _UEP1
  0000                00115         extern  _UEP2
  0000                00116         extern  _UEP3
  0000                00117         extern  _UEP4
  0000                00118         extern  _UEP5
  0000                00119         extern  _UEP6
  0000                00120         extern  _UEP7
  0000                00121         extern  _UEP8
  0000                00122         extern  _UEP9
  0000                00123         extern  _UEP10
  0000                00124         extern  _UEP11
  0000                00125         extern  _UEP12
  0000                00126         extern  _UEP13
  0000                00127         extern  _UEP14
  0000                00128         extern  _UEP15
  0000                00129         extern  _PORTA
  0000                00130         extern  _PORTB
  0000                00131         extern  _PORTC
  0000                00132         extern  _PORTE
  0000                00133         extern  _LATA
  0000                00134         extern  _LATB
  0000                00135         extern  _LATC
  0000                00136         extern  _DDRA
  0000                00137         extern  _TRISA
  0000                00138         extern  _DDRB
  0000                00139         extern  _TRISB
  0000                00140         extern  _DDRC
  0000                00141         extern  _TRISC
  0000                00142         extern  _OSCTUNE
  0000                00143         extern  _PIE1
  0000                00144         extern  _PIR1
  0000                00145         extern  _IPR1
  0000                00146         extern  _PIE2
  0000                00147         extern  _PIR2
  0000                00148         extern  _IPR2
  0000                00149         extern  _EECON1
  0000                00150         extern  _EECON2
  0000                00151         extern  _EEDATA
  0000                00152         extern  _EEADR
  0000                00153         extern  _RCSTA
  0000                00154         extern  _TXSTA
  0000                00155         extern  _TXREG
  0000                00156         extern  _RCREG
  0000                00157         extern  _SPBRG
  0000                00158         extern  _SPBRGH
  0000                00159         extern  _T3CON
gpasm-1.5.2 #1319 (Sep 16 2019) build/default   27.11.2019  16:57:28        PAGE  4


LOC    OBJECT CODE    LINE  SOURCE TEXT
  VALUE

  0000                00160         extern  _TMR3
  0000                00161         extern  _TMR3L
  0000                00162         extern  _TMR3H
  0000                00163         extern  _CMCON
  0000                00164         extern  _CVRCON
  0000                00165         extern  _CCP1AS
  0000                00166         extern  _ECCP1AS
  0000                00167         extern  _CCP1DEL
  0000                00168         extern  _ECCP1DEL
  0000                00169         extern  _BAUDCON
  0000                00170         extern  _BAUDCTL
  0000                00171         extern  _CCP2CON
  0000                00172         extern  _CCPR2
  0000                00173         extern  _CCPR2L
  0000                00174         extern  _CCPR2H
  0000                00175         extern  _CCP1CON
  0000                00176         extern  _CCPR1
  0000                00177         extern  _CCPR1L
  0000                00178         extern  _CCPR1H
  0000                00179         extern  _ADCON2
  0000                00180         extern  _ADCON1
  0000                00181         extern  _ADCON0
  0000                00182         extern  _ADRES
  0000                00183         extern  _ADRESL
  0000                00184         extern  _ADRESH
  0000                00185         extern  _SSPCON2
  0000                00186         extern  _SSPCON1
  0000                00187         extern  _SSPSTAT
  0000                00188         extern  _SSPADD
  0000                00189         extern  _SSPBUF
  0000                00190         extern  _T2CON
  0000                00191         extern  _PR2
  0000                00192         extern  _TMR2
  0000                00193         extern  _T1CON
  0000                00194         extern  _TMR1
  0000                00195         extern  _TMR1L
  0000                00196         extern  _TMR1H
  0000                00197         extern  _RCON
  0000                00198         extern  _WDTCON
  0000                00199         extern  _HLVDCON
  0000                00200         extern  _LVDCON
  0000                00201         extern  _OSCCON
  0000                00202         extern  _T0CON
  0000                00203         extern  _TMR0
  0000                00204         extern  _TMR0L
  0000                00205         extern  _TMR0H
  0000                00206         extern  _STATUS
  0000                00207         extern  _FSR2L
  0000                00208         extern  _FSR2H
  0000                00209         extern  _PLUSW2
  0000                00210         extern  _PREINC2
  0000                00211         extern  _POSTDEC2
  0000                00212         extern  _POSTINC2
gpasm-1.5.2 #1319 (Sep 16 2019) build/default   27.11.2019  16:57:28        PAGE  5


LOC    OBJECT CODE    LINE  SOURCE TEXT
  VALUE

  0000                00213         extern  _INDF2
  0000                00214         extern  _BSR
  0000                00215         extern  _FSR1L
  0000                00216         extern  _FSR1H
  0000                00217         extern  _PLUSW1
  0000                00218         extern  _PREINC1
  0000                00219         extern  _POSTDEC1
  0000                00220         extern  _POSTINC1
  0000                00221         extern  _INDF1
  0000                00222         extern  _WREG
  0000                00223         extern  _FSR0L
  0000                00224         extern  _FSR0H
  0000                00225         extern  _PLUSW0
  0000                00226         extern  _PREINC0
  0000                00227         extern  _POSTDEC0
  0000                00228         extern  _POSTINC0
  0000                00229         extern  _INDF0
  0000                00230         extern  _INTCON3
  0000                00231         extern  _INTCON2
  0000                00232         extern  _INTCON
  0000                00233         extern  _PROD
  0000                00234         extern  _PRODL
  0000                00235         extern  _PRODH
  0000                00236         extern  _TABLAT
  0000                00237         extern  _TBLPTR
  0000                00238         extern  _TBLPTRL
  0000                00239         extern  _TBLPTRH
  0000                00240         extern  _TBLPTRU
  0000                00241         extern  _PC
  0000                00242         extern  _PCL
  0000                00243         extern  _PCLATH
  0000                00244         extern  _PCLATU
  0000                00245         extern  _STKPTR
  0000                00246         extern  _TOS
  0000                00247         extern  _TOSL
  0000                00248         extern  _TOSH
  0000                00249         extern  _TOSU
  0000                00250         extern  _buffer_putch
  0000                00251         extern  _log10f
  0000                00252         extern  _powf
  0000                00253         extern  _floorf
  0000                00254         extern  __moduint
  0000                00255         extern  __divuint
  0000                00256         extern  ___fs2sint
  0000                00257         extern  ___fslt
  0000                00258         extern  ___sint2fs
  0000                00259         extern  ___fsdiv
  0000                00260         extern  ___fs2uchar
  0000                00261         extern  ___uchar2fs
  0000                00262         extern  ___fsmul
  0000                00263         extern  ___fssub
                      00264 
                      00265 ;--------------------------------------------------------
gpasm-1.5.2 #1319 (Sep 16 2019) build/default   27.11.2019  16:57:28        PAGE  6


LOC    OBJECT CODE    LINE  SOURCE TEXT
  VALUE

                      00266 ;       Equates to used internal registers
                      00267 ;--------------------------------------------------------
  00000FD8            00268 STATUS  equ     0xfd8
  00000FE9            00269 FSR0L   equ     0xfe9
  00000FEA            00270 FSR0H   equ     0xfea
  00000FE1            00271 FSR1L   equ     0xfe1
  00000FD9            00272 FSR2L   equ     0xfd9
  00000FEF            00273 INDF0   equ     0xfef
  00000FE6            00274 POSTINC1        equ     0xfe6
  00000FE5            00275 POSTDEC1        equ     0xfe5
  00000FE4            00276 PREINC1 equ     0xfe4
  00000FDB            00277 PLUSW2  equ     0xfdb
  00000FF3            00278 PRODL   equ     0xff3
  00000FF4            00279 PRODH   equ     0xff4
                      00280 
                      00281 
                      00282 ; Internal registers
                      00283 .registers      udata_ovr       0x0000
000000                00284 r0x00   res     1
000001                00285 r0x01   res     1
000002                00286 r0x02   res     1
000003                00287 r0x03   res     1
000004                00288 r0x04   res     1
000005                00289 r0x05   res     1
000006                00290 r0x06   res     1
000007                00291 r0x07   res     1
000008                00292 r0x08   res     1
000009                00293 r0x09   res     1
00000A                00294 r0x0a   res     1
00000B                00295 r0x0b   res     1
00000C                00296 r0x0c   res     1
00000D                00297 r0x0d   res     1
00000E                00298 r0x0e   res     1
00000F                00299 r0x0f   res     1
                      00300 
                      00301 udata_format_0  udata
000000                00302 _format_number_buf_65536_56     res     32
                      00303 
                      00304 ;--------------------------------------------------------
                      00305 ; global & static initialisations
                      00306 ;--------------------------------------------------------
                      00307 ; I code from now on!
                      00308 ; ; Starting pCode block
                      00309 S_format__format_double code
000000                00310 _format_double:
                      00311 ;       .line   77; ../../../lib/format.c       format_double(double num) {
000000 CFD9 FFE5      00312         MOVFF   FSR2L, POSTDEC1
000004 CFE1 FFD9      00313         MOVFF   FSR1L, FSR2L
000008 C??? F???      00314         MOVFF   r0x00, POSTDEC1
00000C C??? F???      00315         MOVFF   r0x01, POSTDEC1
000010 C??? F???      00316         MOVFF   r0x02, POSTDEC1
000014 C??? F???      00317         MOVFF   r0x03, POSTDEC1
000018 C??? F???      00318         MOVFF   r0x04, POSTDEC1
gpasm-1.5.2 #1319 (Sep 16 2019) build/default   27.11.2019  16:57:28        PAGE  7


LOC    OBJECT CODE    LINE  SOURCE TEXT
  VALUE

00001C C??? F???      00319         MOVFF   r0x05, POSTDEC1
000020 C??? F???      00320         MOVFF   r0x06, POSTDEC1
000024 C??? F???      00321         MOVFF   r0x07, POSTDEC1
000028 C??? F???      00322         MOVFF   r0x08, POSTDEC1
00002C C??? F???      00323         MOVFF   r0x09, POSTDEC1
000030 C??? F???      00324         MOVFF   r0x0a, POSTDEC1
000034 C??? F???      00325         MOVFF   r0x0b, POSTDEC1
000038 C??? F???      00326         MOVFF   r0x0c, POSTDEC1
00003C C??? F???      00327         MOVFF   r0x0d, POSTDEC1
000040 C??? F???      00328         MOVFF   r0x0e, POSTDEC1
000044 C??? F???      00329         MOVFF   r0x0f, POSTDEC1
000048 0E02           00330         MOVLW   0x02
00004A CFDB F000      00331         MOVFF   PLUSW2, r0x00
00004E 0E03           00332         MOVLW   0x03
000050 CFDB F000      00333         MOVFF   PLUSW2, r0x01
000054 0E04           00334         MOVLW   0x04
000056 CFDB F000      00335         MOVFF   PLUSW2, r0x02
00005A 0E05           00336         MOVLW   0x05
00005C CFDB F000      00337         MOVFF   PLUSW2, r0x03
                      00338 ;       .line   78; ../../../lib/format.c       short m = (short)log10(num);
000060 50??           00339         MOVF    r0x03, W
000062 6EE5           00340         MOVWF   POSTDEC1
000064 50??           00341         MOVF    r0x02, W
000066 6EE5           00342         MOVWF   POSTDEC1
000068 50??           00343         MOVF    r0x01, W
00006A 6EE5           00344         MOVWF   POSTDEC1
00006C 50??           00345         MOVF    r0x00, W
00006E 6EE5           00346         MOVWF   POSTDEC1
000070 EC?? F0??      00347         CALL    _log10f
000074 6E??           00348         MOVWF   r0x04
000076 CFF3 F000      00349         MOVFF   PRODL, r0x05
00007A CFF4 F000      00350         MOVFF   PRODH, r0x06
00007E CFE9 F000      00351         MOVFF   FSR0L, r0x07
000082 0E04           00352         MOVLW   0x04
000084 26E1           00353         ADDWF   FSR1L, F
000086 50??           00354         MOVF    r0x07, W
000088 6EE5           00355         MOVWF   POSTDEC1
00008A 50??           00356         MOVF    r0x06, W
00008C 6EE5           00357         MOVWF   POSTDEC1
00008E 50??           00358         MOVF    r0x05, W
000090 6EE5           00359         MOVWF   POSTDEC1
000092 50??           00360         MOVF    r0x04, W
000094 6EE5           00361         MOVWF   POSTDEC1
000096 EC?? F0??      00362         CALL    ___fs2sint
00009A 6E??           00363         MOVWF   r0x04
00009C CFF3 F000      00364         MOVFF   PRODL, r0x05
0000A0 0E04           00365         MOVLW   0x04
0000A2 26E1           00366         ADDWF   FSR1L, F
0000A4                00367 _00184_DS_:
                      00368 ;       .line   82; ../../../lib/format.c       while(num > 0 + DBL_EPSILON) {
0000A4 50??           00369         MOVF    r0x03, W
0000A6 6EE5           00370         MOVWF   POSTDEC1
0000A8 50??           00371         MOVF    r0x02, W
gpasm-1.5.2 #1319 (Sep 16 2019) build/default   27.11.2019  16:57:28        PAGE  8


LOC    OBJECT CODE    LINE  SOURCE TEXT
  VALUE

0000AA 6EE5           00372         MOVWF   POSTDEC1
0000AC 50??           00373         MOVF    r0x01, W
0000AE 6EE5           00374         MOVWF   POSTDEC1
0000B0 50??           00375         MOVF    r0x00, W
0000B2 6EE5           00376         MOVWF   POSTDEC1
0000B4 0E34           00377         MOVLW   0x34
0000B6 6EE5           00378         MOVWF   POSTDEC1
0000B8 0E00           00379         MOVLW   0x00
0000BA 6EE5           00380         MOVWF   POSTDEC1
0000BC 0E00           00381         MOVLW   0x00
0000BE 6EE5           00382         MOVWF   POSTDEC1
0000C0 0E00           00383         MOVLW   0x00
0000C2 6EE5           00384         MOVWF   POSTDEC1
0000C4 EC?? F0??      00385         CALL    ___fslt
0000C8 6E??           00386         MOVWF   r0x06
0000CA 0E08           00387         MOVLW   0x08
0000CC 26E1           00388         ADDWF   FSR1L, F
0000CE 50??           00389         MOVF    r0x06, W
0000D0 B4D8           00390         BTFSC   STATUS, 2
0000D2 D???           00391         BRA     _00187_DS_
                      00392 ;       .line   83; ../../../lib/format.c       double weight = pow(10.0l, m);
0000D4 50??           00393         MOVF    r0x05, W
0000D6 6EE5           00394         MOVWF   POSTDEC1
0000D8 50??           00395         MOVF    r0x04, W
0000DA 6EE5           00396         MOVWF   POSTDEC1
0000DC EC?? F0??      00397         CALL    ___sint2fs
0000E0 6E??           00398         MOVWF   r0x06
0000E2 CFF3 F000      00399         MOVFF   PRODL, r0x07
0000E6 CFF4 F000      00400         MOVFF   PRODH, r0x08
0000EA CFE9 F000      00401         MOVFF   FSR0L, r0x09
0000EE 52E6           00402         MOVF    POSTINC1, F
0000F0 52E6           00403         MOVF    POSTINC1, F
0000F2 50??           00404         MOVF    r0x09, W
0000F4 6EE5           00405         MOVWF   POSTDEC1
0000F6 50??           00406         MOVF    r0x08, W
0000F8 6EE5           00407         MOVWF   POSTDEC1
0000FA 50??           00408         MOVF    r0x07, W
0000FC 6EE5           00409         MOVWF   POSTDEC1
0000FE 50??           00410         MOVF    r0x06, W
000100 6EE5           00411         MOVWF   POSTDEC1
000102 0E41           00412         MOVLW   0x41
000104 6EE5           00413         MOVWF   POSTDEC1
000106 0E20           00414         MOVLW   0x20
000108 6EE5           00415         MOVWF   POSTDEC1
00010A 0E00           00416         MOVLW   0x00
00010C 6EE5           00417         MOVWF   POSTDEC1
00010E 0E00           00418         MOVLW   0x00
000110 6EE5           00419         MOVWF   POSTDEC1
000112 EC?? F0??      00420         CALL    _powf
000116 6E??           00421         MOVWF   r0x06
000118 CFF3 F000      00422         MOVFF   PRODL, r0x07
00011C CFF4 F000      00423         MOVFF   PRODH, r0x08
000120 CFE9 F000      00424         MOVFF   FSR0L, r0x09
gpasm-1.5.2 #1319 (Sep 16 2019) build/default   27.11.2019  16:57:28        PAGE  9


LOC    OBJECT CODE    LINE  SOURCE TEXT
  VALUE

000124 0E08           00425         MOVLW   0x08
000126 26E1           00426         ADDWF   FSR1L, F
                      00427 ;       .line   84; ../../../lib/format.c       digit = (short)floor(num / weight);
000128 50??           00428         MOVF    r0x09, W
00012A 6EE5           00429         MOVWF   POSTDEC1
00012C 50??           00430         MOVF    r0x08, W
00012E 6EE5           00431         MOVWF   POSTDEC1
000130 50??           00432         MOVF    r0x07, W
000132 6EE5           00433         MOVWF   POSTDEC1
000134 50??           00434         MOVF    r0x06, W
000136 6EE5           00435         MOVWF   POSTDEC1
000138 50??           00436         MOVF    r0x03, W
00013A 6EE5           00437         MOVWF   POSTDEC1
00013C 50??           00438         MOVF    r0x02, W
00013E 6EE5           00439         MOVWF   POSTDEC1
000140 50??           00440         MOVF    r0x01, W
000142 6EE5           00441         MOVWF   POSTDEC1
000144 50??           00442         MOVF    r0x00, W
000146 6EE5           00443         MOVWF   POSTDEC1
000148 EC?? F0??      00444         CALL    ___fsdiv
00014C 6E??           00445         MOVWF   r0x0a
00014E CFF3 F000      00446         MOVFF   PRODL, r0x0b
000152 CFF4 F000      00447         MOVFF   PRODH, r0x0c
000156 CFE9 F000      00448         MOVFF   FSR0L, r0x0d
00015A 0E08           00449         MOVLW   0x08
00015C 26E1           00450         ADDWF   FSR1L, F
00015E 50??           00451         MOVF    r0x0d, W
000160 6EE5           00452         MOVWF   POSTDEC1
000162 50??           00453         MOVF    r0x0c, W
000164 6EE5           00454         MOVWF   POSTDEC1
000166 50??           00455         MOVF    r0x0b, W
000168 6EE5           00456         MOVWF   POSTDEC1
00016A 50??           00457         MOVF    r0x0a, W
00016C 6EE5           00458         MOVWF   POSTDEC1
00016E EC?? F0??      00459         CALL    _floorf
000172 6E??           00460         MOVWF   r0x0a
000174 CFF3 F000      00461         MOVFF   PRODL, r0x0b
000178 CFF4 F000      00462         MOVFF   PRODH, r0x0c
00017C CFE9 F000      00463         MOVFF   FSR0L, r0x0d
000180 0E04           00464         MOVLW   0x04
000182 26E1           00465         ADDWF   FSR1L, F
000184 50??           00466         MOVF    r0x0d, W
000186 6EE5           00467         MOVWF   POSTDEC1
000188 50??           00468         MOVF    r0x0c, W
00018A 6EE5           00469         MOVWF   POSTDEC1
00018C 50??           00470         MOVF    r0x0b, W
00018E 6EE5           00471         MOVWF   POSTDEC1
000190 50??           00472         MOVF    r0x0a, W
000192 6EE5           00473         MOVWF   POSTDEC1
000194 EC?? F0??      00474         CALL    ___fs2sint
000198 6E??           00475         MOVWF   r0x0a
00019A CFF3 F000      00476         MOVFF   PRODL, r0x0b
00019E 0E04           00477         MOVLW   0x04
gpasm-1.5.2 #1319 (Sep 16 2019) build/default   27.11.2019  16:57:28        PAGE 10


LOC    OBJECT CODE    LINE  SOURCE TEXT
  VALUE

0001A0 26E1           00478         ADDWF   FSR1L, F
                      00479 ;       .line   85; ../../../lib/format.c       num -= (digit * weight);
0001A2 50??           00480         MOVF    r0x0b, W
0001A4 6EE5           00481         MOVWF   POSTDEC1
0001A6 50??           00482         MOVF    r0x0a, W
0001A8 6EE5           00483         MOVWF   POSTDEC1
0001AA EC?? F0??      00484         CALL    ___sint2fs
0001AE 6E??           00485         MOVWF   r0x0c
0001B0 CFF3 F000      00486         MOVFF   PRODL, r0x0d
0001B4 CFF4 F000      00487         MOVFF   PRODH, r0x0e
0001B8 CFE9 F000      00488         MOVFF   FSR0L, r0x0f
0001BC 52E6           00489         MOVF    POSTINC1, F
0001BE 52E6           00490         MOVF    POSTINC1, F
0001C0 50??           00491         MOVF    r0x09, W
0001C2 6EE5           00492         MOVWF   POSTDEC1
0001C4 50??           00493         MOVF    r0x08, W
0001C6 6EE5           00494         MOVWF   POSTDEC1
0001C8 50??           00495         MOVF    r0x07, W
0001CA 6EE5           00496         MOVWF   POSTDEC1
0001CC 50??           00497         MOVF    r0x06, W
0001CE 6EE5           00498         MOVWF   POSTDEC1
0001D0 50??           00499         MOVF    r0x0f, W
0001D2 6EE5           00500         MOVWF   POSTDEC1
0001D4 50??           00501         MOVF    r0x0e, W
0001D6 6EE5           00502         MOVWF   POSTDEC1
0001D8 50??           00503         MOVF    r0x0d, W
0001DA 6EE5           00504         MOVWF   POSTDEC1
0001DC 50??           00505         MOVF    r0x0c, W
0001DE 6EE5           00506         MOVWF   POSTDEC1
0001E0 EC?? F0??      00507         CALL    ___fsmul
0001E4 6E??           00508         MOVWF   r0x06
0001E6 CFF3 F000      00509         MOVFF   PRODL, r0x07
0001EA CFF4 F000      00510         MOVFF   PRODH, r0x08
0001EE CFE9 F000      00511         MOVFF   FSR0L, r0x09
0001F2 0E08           00512         MOVLW   0x08
0001F4 26E1           00513         ADDWF   FSR1L, F
0001F6 50??           00514         MOVF    r0x09, W
0001F8 6EE5           00515         MOVWF   POSTDEC1
0001FA 50??           00516         MOVF    r0x08, W
0001FC 6EE5           00517         MOVWF   POSTDEC1
0001FE 50??           00518         MOVF    r0x07, W
000200 6EE5           00519         MOVWF   POSTDEC1
000202 50??           00520         MOVF    r0x06, W
000204 6EE5           00521         MOVWF   POSTDEC1
000206 50??           00522         MOVF    r0x03, W
000208 6EE5           00523         MOVWF   POSTDEC1
00020A 50??           00524         MOVF    r0x02, W
00020C 6EE5           00525         MOVWF   POSTDEC1
00020E 50??           00526         MOVF    r0x01, W
000210 6EE5           00527         MOVWF   POSTDEC1
000212 50??           00528         MOVF    r0x00, W
000214 6EE5           00529         MOVWF   POSTDEC1
000216 EC?? F0??      00530         CALL    ___fssub
gpasm-1.5.2 #1319 (Sep 16 2019) build/default   27.11.2019  16:57:28        PAGE 11


LOC    OBJECT CODE    LINE  SOURCE TEXT
  VALUE

00021A 6E??           00531         MOVWF   r0x00
00021C CFF3 F000      00532         MOVFF   PRODL, r0x01
000220 CFF4 F000      00533         MOVFF   PRODH, r0x02
000224 CFE9 F000      00534         MOVFF   FSR0L, r0x03
000228 0E08           00535         MOVLW   0x08
00022A 26E1           00536         ADDWF   FSR1L, F
                      00537 ;       .line   86; ../../../lib/format.c       buffer_putch((char)('0' + digit));
00022C 0E30           00538         MOVLW   0x30
00022E 26??           00539         ADDWF   r0x0a, F
000230 50??           00540         MOVF    r0x0a, W
000232 6EE5           00541         MOVWF   POSTDEC1
000234 EC?? F0??      00542         CALL    _buffer_putch
000238 52E6           00543         MOVF    POSTINC1, F
                      00544 ;       .line   87; ../../../lib/format.c       if(m == 0)
00023A 50??           00545         MOVF    r0x04, W
00023C 10??           00546         IORWF   r0x05, W
00023E E1??           00547         BNZ     _00183_DS_
                      00548 ;       .line   88; ../../../lib/format.c       buffer_putch('.');
000240 0E2E           00549         MOVLW   0x2e
000242 6EE5           00550         MOVWF   POSTDEC1
000244 EC?? F0??      00551         CALL    _buffer_putch
000248 52E6           00552         MOVF    POSTINC1, F
00024A                00553 _00183_DS_:
                      00554 ;       .line   89; ../../../lib/format.c       m--;
00024A 0EFF           00555         MOVLW   0xff
00024C 26??           00556         ADDWF   r0x04, F
00024E 22??           00557         ADDWFC  r0x05, F
000250 D???           00558         BRA     _00184_DS_
000252                00559 _00187_DS_:
                      00560 ;       .line   91; ../../../lib/format.c       }
000252 CFE4 F000      00561         MOVFF   PREINC1, r0x0f
000256 CFE4 F000      00562         MOVFF   PREINC1, r0x0e
00025A CFE4 F000      00563         MOVFF   PREINC1, r0x0d
00025E CFE4 F000      00564         MOVFF   PREINC1, r0x0c
000262 CFE4 F000      00565         MOVFF   PREINC1, r0x0b
000266 CFE4 F000      00566         MOVFF   PREINC1, r0x0a
00026A CFE4 F000      00567         MOVFF   PREINC1, r0x09
00026E CFE4 F000      00568         MOVFF   PREINC1, r0x08
000272 CFE4 F000      00569         MOVFF   PREINC1, r0x07
000276 CFE4 F000      00570         MOVFF   PREINC1, r0x06
00027A CFE4 F000      00571         MOVFF   PREINC1, r0x05
00027E CFE4 F000      00572         MOVFF   PREINC1, r0x04
000282 CFE4 F000      00573         MOVFF   PREINC1, r0x03
000286 CFE4 F000      00574         MOVFF   PREINC1, r0x02
00028A CFE4 F000      00575         MOVFF   PREINC1, r0x01
00028E CFE4 F000      00576         MOVFF   PREINC1, r0x00
000292 CFE4 FFD9      00577         MOVFF   PREINC1, FSR2L
000296 0012           00578         RETURN  
                      00579 
                      00580 ; ; Starting pCode block
                      00581 S_format__format_float  code
000000                00582 _format_float:
                      00583 ;       .line   59; ../../../lib/format.c       format_float(/*putchar_fn* putchar_ptr,*/ float num) {
gpasm-1.5.2 #1319 (Sep 16 2019) build/default   27.11.2019  16:57:28        PAGE 12


LOC    OBJECT CODE    LINE  SOURCE TEXT
  VALUE

000000 CFD9 FFE5      00584         MOVFF   FSR2L, POSTDEC1
000004 CFE1 FFD9      00585         MOVFF   FSR1L, FSR2L
000008 C??? F???      00586         MOVFF   r0x00, POSTDEC1
00000C C??? F???      00587         MOVFF   r0x01, POSTDEC1
000010 C??? F???      00588         MOVFF   r0x02, POSTDEC1
000014 C??? F???      00589         MOVFF   r0x03, POSTDEC1
000018 C??? F???      00590         MOVFF   r0x04, POSTDEC1
00001C C??? F???      00591         MOVFF   r0x05, POSTDEC1
000020 C??? F???      00592         MOVFF   r0x06, POSTDEC1
000024 C??? F???      00593         MOVFF   r0x07, POSTDEC1
000028 C??? F???      00594         MOVFF   r0x08, POSTDEC1
00002C C??? F???      00595         MOVFF   r0x09, POSTDEC1
000030 C??? F???      00596         MOVFF   r0x0a, POSTDEC1
000034 C??? F???      00597         MOVFF   r0x0b, POSTDEC1
000038 C??? F???      00598         MOVFF   r0x0c, POSTDEC1
00003C C??? F???      00599         MOVFF   r0x0d, POSTDEC1
000040 C??? F???      00600         MOVFF   r0x0e, POSTDEC1
000044 0E02           00601         MOVLW   0x02
000046 CFDB F000      00602         MOVFF   PLUSW2, r0x00
00004A 0E03           00603         MOVLW   0x03
00004C CFDB F000      00604         MOVFF   PLUSW2, r0x01
000050 0E04           00605         MOVLW   0x04
000052 CFDB F000      00606         MOVFF   PLUSW2, r0x02
000056 0E05           00607         MOVLW   0x05
000058 CFDB F000      00608         MOVFF   PLUSW2, r0x03
                      00609 ;       .line   60; ../../../lib/format.c       short m = (int)log10(num);
00005C 50??           00610         MOVF    r0x03, W
00005E 6EE5           00611         MOVWF   POSTDEC1
000060 50??           00612         MOVF    r0x02, W
000062 6EE5           00613         MOVWF   POSTDEC1
000064 50??           00614         MOVF    r0x01, W
000066 6EE5           00615         MOVWF   POSTDEC1
000068 50??           00616         MOVF    r0x00, W
00006A 6EE5           00617         MOVWF   POSTDEC1
00006C EC?? F0??      00618         CALL    _log10f
000070 6E??           00619         MOVWF   r0x04
000072 CFF3 F000      00620         MOVFF   PRODL, r0x05
000076 CFF4 F000      00621         MOVFF   PRODH, r0x06
00007A CFE9 F000      00622         MOVFF   FSR0L, r0x07
00007E 0E04           00623         MOVLW   0x04
000080 26E1           00624         ADDWF   FSR1L, F
000082 50??           00625         MOVF    r0x07, W
000084 6EE5           00626         MOVWF   POSTDEC1
000086 50??           00627         MOVF    r0x06, W
000088 6EE5           00628         MOVWF   POSTDEC1
00008A 50??           00629         MOVF    r0x05, W
00008C 6EE5           00630         MOVWF   POSTDEC1
00008E 50??           00631         MOVF    r0x04, W
000090 6EE5           00632         MOVWF   POSTDEC1
000092 EC?? F0??      00633         CALL    ___fs2sint
000096 6E??           00634         MOVWF   r0x04
000098 CFF3 F000      00635         MOVFF   PRODL, r0x05
00009C 0E04           00636         MOVLW   0x04
gpasm-1.5.2 #1319 (Sep 16 2019) build/default   27.11.2019  16:57:28        PAGE 13


LOC    OBJECT CODE    LINE  SOURCE TEXT
  VALUE

00009E 26E1           00637         ADDWF   FSR1L, F
0000A0                00638 _00174_DS_:
                      00639 ;       .line   64; ../../../lib/format.c       while(num > 0 + FLT_EPSILON) {
0000A0 50??           00640         MOVF    r0x03, W
0000A2 6EE5           00641         MOVWF   POSTDEC1
0000A4 50??           00642         MOVF    r0x02, W
0000A6 6EE5           00643         MOVWF   POSTDEC1
0000A8 50??           00644         MOVF    r0x01, W
0000AA 6EE5           00645         MOVWF   POSTDEC1
0000AC 50??           00646         MOVF    r0x00, W
0000AE 6EE5           00647         MOVWF   POSTDEC1
0000B0 0E34           00648         MOVLW   0x34
0000B2 6EE5           00649         MOVWF   POSTDEC1
0000B4 0E00           00650         MOVLW   0x00
0000B6 6EE5           00651         MOVWF   POSTDEC1
0000B8 0E00           00652         MOVLW   0x00
0000BA 6EE5           00653         MOVWF   POSTDEC1
0000BC 0E00           00654         MOVLW   0x00
0000BE 6EE5           00655         MOVWF   POSTDEC1
0000C0 EC?? F0??      00656         CALL    ___fslt
0000C4 6E??           00657         MOVWF   r0x06
0000C6 0E08           00658         MOVLW   0x08
0000C8 26E1           00659         ADDWF   FSR1L, F
0000CA 50??           00660         MOVF    r0x06, W
0000CC B4D8           00661         BTFSC   STATUS, 2
0000CE D???           00662         BRA     _00177_DS_
                      00663 ;       .line   65; ../../../lib/format.c       float weight = pow(10.0l, m);
0000D0 50??           00664         MOVF    r0x05, W
0000D2 6EE5           00665         MOVWF   POSTDEC1
0000D4 50??           00666         MOVF    r0x04, W
0000D6 6EE5           00667         MOVWF   POSTDEC1
0000D8 EC?? F0??      00668         CALL    ___sint2fs
0000DC 6E??           00669         MOVWF   r0x06
0000DE CFF3 F000      00670         MOVFF   PRODL, r0x07
0000E2 CFF4 F000      00671         MOVFF   PRODH, r0x08
0000E6 CFE9 F000      00672         MOVFF   FSR0L, r0x09
0000EA 52E6           00673         MOVF    POSTINC1, F
0000EC 52E6           00674         MOVF    POSTINC1, F
0000EE 50??           00675         MOVF    r0x09, W
0000F0 6EE5           00676         MOVWF   POSTDEC1
0000F2 50??           00677         MOVF    r0x08, W
0000F4 6EE5           00678         MOVWF   POSTDEC1
0000F6 50??           00679         MOVF    r0x07, W
0000F8 6EE5           00680         MOVWF   POSTDEC1
0000FA 50??           00681         MOVF    r0x06, W
0000FC 6EE5           00682         MOVWF   POSTDEC1
0000FE 0E41           00683         MOVLW   0x41
000100 6EE5           00684         MOVWF   POSTDEC1
000102 0E20           00685         MOVLW   0x20
000104 6EE5           00686         MOVWF   POSTDEC1
000106 0E00           00687         MOVLW   0x00
000108 6EE5           00688         MOVWF   POSTDEC1
00010A 0E00           00689         MOVLW   0x00
gpasm-1.5.2 #1319 (Sep 16 2019) build/default   27.11.2019  16:57:28        PAGE 14


LOC    OBJECT CODE    LINE  SOURCE TEXT
  VALUE

00010C 6EE5           00690         MOVWF   POSTDEC1
00010E EC?? F0??      00691         CALL    _powf
000112 6E??           00692         MOVWF   r0x06
000114 CFF3 F000      00693         MOVFF   PRODL, r0x07
000118 CFF4 F000      00694         MOVFF   PRODH, r0x08
00011C CFE9 F000      00695         MOVFF   FSR0L, r0x09
000120 0E08           00696         MOVLW   0x08
000122 26E1           00697         ADDWF   FSR1L, F
                      00698 ;       .line   66; ../../../lib/format.c       digit = (char)floor(num / weight);
000124 50??           00699         MOVF    r0x09, W
000126 6EE5           00700         MOVWF   POSTDEC1
000128 50??           00701         MOVF    r0x08, W
00012A 6EE5           00702         MOVWF   POSTDEC1
00012C 50??           00703         MOVF    r0x07, W
00012E 6EE5           00704         MOVWF   POSTDEC1
000130 50??           00705         MOVF    r0x06, W
000132 6EE5           00706         MOVWF   POSTDEC1
000134 50??           00707         MOVF    r0x03, W
000136 6EE5           00708         MOVWF   POSTDEC1
000138 50??           00709         MOVF    r0x02, W
00013A 6EE5           00710         MOVWF   POSTDEC1
00013C 50??           00711         MOVF    r0x01, W
00013E 6EE5           00712         MOVWF   POSTDEC1
000140 50??           00713         MOVF    r0x00, W
000142 6EE5           00714         MOVWF   POSTDEC1
000144 EC?? F0??      00715         CALL    ___fsdiv
000148 6E??           00716         MOVWF   r0x0a
00014A CFF3 F000      00717         MOVFF   PRODL, r0x0b
00014E CFF4 F000      00718         MOVFF   PRODH, r0x0c
000152 CFE9 F000      00719         MOVFF   FSR0L, r0x0d
000156 0E08           00720         MOVLW   0x08
000158 26E1           00721         ADDWF   FSR1L, F
00015A 50??           00722         MOVF    r0x0d, W
00015C 6EE5           00723         MOVWF   POSTDEC1
00015E 50??           00724         MOVF    r0x0c, W
000160 6EE5           00725         MOVWF   POSTDEC1
000162 50??           00726         MOVF    r0x0b, W
000164 6EE5           00727         MOVWF   POSTDEC1
000166 50??           00728         MOVF    r0x0a, W
000168 6EE5           00729         MOVWF   POSTDEC1
00016A EC?? F0??      00730         CALL    _floorf
00016E 6E??           00731         MOVWF   r0x0a
000170 CFF3 F000      00732         MOVFF   PRODL, r0x0b
000174 CFF4 F000      00733         MOVFF   PRODH, r0x0c
000178 CFE9 F000      00734         MOVFF   FSR0L, r0x0d
00017C 0E04           00735         MOVLW   0x04
00017E 26E1           00736         ADDWF   FSR1L, F
000180 50??           00737         MOVF    r0x0d, W
000182 6EE5           00738         MOVWF   POSTDEC1
000184 50??           00739         MOVF    r0x0c, W
000186 6EE5           00740         MOVWF   POSTDEC1
000188 50??           00741         MOVF    r0x0b, W
00018A 6EE5           00742         MOVWF   POSTDEC1
gpasm-1.5.2 #1319 (Sep 16 2019) build/default   27.11.2019  16:57:28        PAGE 15


LOC    OBJECT CODE    LINE  SOURCE TEXT
  VALUE

00018C 50??           00743         MOVF    r0x0a, W
00018E 6EE5           00744         MOVWF   POSTDEC1
000190 EC?? F0??      00745         CALL    ___fs2uchar
000194 6E??           00746         MOVWF   r0x0a
000196 0E04           00747         MOVLW   0x04
000198 26E1           00748         ADDWF   FSR1L, F
                      00749 ;       .line   67; ../../../lib/format.c       num -= (digit * weight);
00019A 50??           00750         MOVF    r0x0a, W
00019C 6EE5           00751         MOVWF   POSTDEC1
00019E EC?? F0??      00752         CALL    ___uchar2fs
0001A2 6E??           00753         MOVWF   r0x0b
0001A4 CFF3 F000      00754         MOVFF   PRODL, r0x0c
0001A8 CFF4 F000      00755         MOVFF   PRODH, r0x0d
0001AC CFE9 F000      00756         MOVFF   FSR0L, r0x0e
0001B0 52E6           00757         MOVF    POSTINC1, F
0001B2 50??           00758         MOVF    r0x09, W
0001B4 6EE5           00759         MOVWF   POSTDEC1
0001B6 50??           00760         MOVF    r0x08, W
0001B8 6EE5           00761         MOVWF   POSTDEC1
0001BA 50??           00762         MOVF    r0x07, W
0001BC 6EE5           00763         MOVWF   POSTDEC1
0001BE 50??           00764         MOVF    r0x06, W
0001C0 6EE5           00765         MOVWF   POSTDEC1
0001C2 50??           00766         MOVF    r0x0e, W
0001C4 6EE5           00767         MOVWF   POSTDEC1
0001C6 50??           00768         MOVF    r0x0d, W
0001C8 6EE5           00769         MOVWF   POSTDEC1
0001CA 50??           00770         MOVF    r0x0c, W
0001CC 6EE5           00771         MOVWF   POSTDEC1
0001CE 50??           00772         MOVF    r0x0b, W
0001D0 6EE5           00773         MOVWF   POSTDEC1
0001D2 EC?? F0??      00774         CALL    ___fsmul
0001D6 6E??           00775         MOVWF   r0x06
0001D8 CFF3 F000      00776         MOVFF   PRODL, r0x07
0001DC CFF4 F000      00777         MOVFF   PRODH, r0x08
0001E0 CFE9 F000      00778         MOVFF   FSR0L, r0x09
0001E4 0E08           00779         MOVLW   0x08
0001E6 26E1           00780         ADDWF   FSR1L, F
0001E8 50??           00781         MOVF    r0x09, W
0001EA 6EE5           00782         MOVWF   POSTDEC1
0001EC 50??           00783         MOVF    r0x08, W
0001EE 6EE5           00784         MOVWF   POSTDEC1
0001F0 50??           00785         MOVF    r0x07, W
0001F2 6EE5           00786         MOVWF   POSTDEC1
0001F4 50??           00787         MOVF    r0x06, W
0001F6 6EE5           00788         MOVWF   POSTDEC1
0001F8 50??           00789         MOVF    r0x03, W
0001FA 6EE5           00790         MOVWF   POSTDEC1
0001FC 50??           00791         MOVF    r0x02, W
0001FE 6EE5           00792         MOVWF   POSTDEC1
000200 50??           00793         MOVF    r0x01, W
000202 6EE5           00794         MOVWF   POSTDEC1
000204 50??           00795         MOVF    r0x00, W
gpasm-1.5.2 #1319 (Sep 16 2019) build/default   27.11.2019  16:57:28        PAGE 16


LOC    OBJECT CODE    LINE  SOURCE TEXT
  VALUE

000206 6EE5           00796         MOVWF   POSTDEC1
000208 EC?? F0??      00797         CALL    ___fssub
00020C 6E??           00798         MOVWF   r0x00
00020E CFF3 F000      00799         MOVFF   PRODL, r0x01
000212 CFF4 F000      00800         MOVFF   PRODH, r0x02
000216 CFE9 F000      00801         MOVFF   FSR0L, r0x03
00021A 0E08           00802         MOVLW   0x08
00021C 26E1           00803         ADDWF   FSR1L, F
                      00804 ;       .line   68; ../../../lib/format.c       buffer_putch('0' + digit);
00021E 0E30           00805         MOVLW   0x30
000220 26??           00806         ADDWF   r0x0a, F
000222 50??           00807         MOVF    r0x0a, W
000224 6EE5           00808         MOVWF   POSTDEC1
000226 EC?? F0??      00809         CALL    _buffer_putch
00022A 52E6           00810         MOVF    POSTINC1, F
                      00811 ;       .line   69; ../../../lib/format.c       if(m == 0)
00022C 50??           00812         MOVF    r0x04, W
00022E 10??           00813         IORWF   r0x05, W
000230 E1??           00814         BNZ     _00173_DS_
                      00815 ;       .line   70; ../../../lib/format.c       buffer_putch('.');
000232 0E2E           00816         MOVLW   0x2e
000234 6EE5           00817         MOVWF   POSTDEC1
000236 EC?? F0??      00818         CALL    _buffer_putch
00023A 52E6           00819         MOVF    POSTINC1, F
00023C                00820 _00173_DS_:
                      00821 ;       .line   71; ../../../lib/format.c       m--;
00023C 0EFF           00822         MOVLW   0xff
00023E 26??           00823         ADDWF   r0x04, F
000240 22??           00824         ADDWFC  r0x05, F
000242 D???           00825         BRA     _00174_DS_
000244                00826 _00177_DS_:
                      00827 ;       .line   73; ../../../lib/format.c       }
000244 CFE4 F000      00828         MOVFF   PREINC1, r0x0e
000248 CFE4 F000      00829         MOVFF   PREINC1, r0x0d
00024C CFE4 F000      00830         MOVFF   PREINC1, r0x0c
000250 CFE4 F000      00831         MOVFF   PREINC1, r0x0b
000254 CFE4 F000      00832         MOVFF   PREINC1, r0x0a
000258 CFE4 F000      00833         MOVFF   PREINC1, r0x09
00025C CFE4 F000      00834         MOVFF   PREINC1, r0x08
000260 CFE4 F000      00835         MOVFF   PREINC1, r0x07
000264 CFE4 F000      00836         MOVFF   PREINC1, r0x06
000268 CFE4 F000      00837         MOVFF   PREINC1, r0x05
00026C CFE4 F000      00838         MOVFF   PREINC1, r0x04
000270 CFE4 F000      00839         MOVFF   PREINC1, r0x03
000274 CFE4 F000      00840         MOVFF   PREINC1, r0x02
000278 CFE4 F000      00841         MOVFF   PREINC1, r0x01
00027C CFE4 F000      00842         MOVFF   PREINC1, r0x00
000280 CFE4 FFD9      00843         MOVFF   PREINC1, FSR2L
000284 0012           00844         RETURN  
                      00845 
                      00846 ; ; Starting pCode block
                      00847 S_format__format_xint32 code
000000                00848 _format_xint32:
gpasm-1.5.2 #1319 (Sep 16 2019) build/default   27.11.2019  16:57:28        PAGE 17


LOC    OBJECT CODE    LINE  SOURCE TEXT
  VALUE

                      00849 ;       .line   51; ../../../lib/format.c       format_xint32(/*putchar_fn* putchar,*/ uint32_t x) {
000000 CFD9 FFE5      00850         MOVFF   FSR2L, POSTDEC1
000004 CFE1 FFD9      00851         MOVFF   FSR1L, FSR2L
000008 C??? F???      00852         MOVFF   r0x00, POSTDEC1
00000C C??? F???      00853         MOVFF   r0x01, POSTDEC1
000010 C??? F???      00854         MOVFF   r0x02, POSTDEC1
000014 C??? F???      00855         MOVFF   r0x03, POSTDEC1
000018 C??? F???      00856         MOVFF   r0x04, POSTDEC1
00001C C??? F???      00857         MOVFF   r0x05, POSTDEC1
000020 C??? F???      00858         MOVFF   r0x06, POSTDEC1
000024 C??? F???      00859         MOVFF   r0x07, POSTDEC1
000028 0E02           00860         MOVLW   0x02
00002A CFDB F000      00861         MOVFF   PLUSW2, r0x00
00002E 0E03           00862         MOVLW   0x03
000030 CFDB F000      00863         MOVFF   PLUSW2, r0x01
000034 0E04           00864         MOVLW   0x04
000036 CFDB F000      00865         MOVFF   PLUSW2, r0x02
00003A 0E05           00866         MOVLW   0x05
00003C CFDB F000      00867         MOVFF   PLUSW2, r0x03
                      00868 ;       .line   52; ../../../lib/format.c       buffer_putch('0');
000040 0E30           00869         MOVLW   0x30
000042 6EE5           00870         MOVWF   POSTDEC1
000044 EC?? F0??      00871         CALL    _buffer_putch
000048 52E6           00872         MOVF    POSTINC1, F
                      00873 ;       .line   53; ../../../lib/format.c       buffer_putch('x');
00004A 0E78           00874         MOVLW   0x78
00004C 6EE5           00875         MOVWF   POSTDEC1
00004E EC?? F0??      00876         CALL    _buffer_putch
000052 52E6           00877         MOVF    POSTINC1, F
                      00878 ;       .line   54; ../../../lib/format.c       format_number((uint16_t)(x >> 16), 16, -4);
000054 50??           00879         MOVF    r0x02, W
000056 6E??           00880         MOVWF   r0x04
000058 50??           00881         MOVF    r0x03, W
00005A 6E??           00882         MOVWF   r0x05
00005C 6A??           00883         CLRF    r0x06
00005E 6A??           00884         CLRF    r0x07
000060 0EFC           00885         MOVLW   0xfc
000062 6EE5           00886         MOVWF   POSTDEC1
000064 0E10           00887         MOVLW   0x10
000066 6EE5           00888         MOVWF   POSTDEC1
000068 50??           00889         MOVF    r0x05, W
00006A 6EE5           00890         MOVWF   POSTDEC1
00006C 50??           00891         MOVF    r0x04, W
00006E 6EE5           00892         MOVWF   POSTDEC1
000070 EC?? F0??      00893         CALL    _format_number
000074 0E04           00894         MOVLW   0x04
000076 26E1           00895         ADDWF   FSR1L, F
                      00896 ;       .line   55; ../../../lib/format.c       format_number((uint16_t)(x & 0xffff), 16, -4);
000078 0EFC           00897         MOVLW   0xfc
00007A 6EE5           00898         MOVWF   POSTDEC1
00007C 0E10           00899         MOVLW   0x10
00007E 6EE5           00900         MOVWF   POSTDEC1
000080 50??           00901         MOVF    r0x01, W
gpasm-1.5.2 #1319 (Sep 16 2019) build/default   27.11.2019  16:57:28        PAGE 18


LOC    OBJECT CODE    LINE  SOURCE TEXT
  VALUE

000082 6EE5           00902         MOVWF   POSTDEC1
000084 50??           00903         MOVF    r0x00, W
000086 6EE5           00904         MOVWF   POSTDEC1
000088 EC?? F0??      00905         CALL    _format_number
00008C 0E04           00906         MOVLW   0x04
00008E 26E1           00907         ADDWF   FSR1L, F
                      00908 ;       .line   56; ../../../lib/format.c       }
000090 CFE4 F000      00909         MOVFF   PREINC1, r0x07
000094 CFE4 F000      00910         MOVFF   PREINC1, r0x06
000098 CFE4 F000      00911         MOVFF   PREINC1, r0x05
00009C CFE4 F000      00912         MOVFF   PREINC1, r0x04
0000A0 CFE4 F000      00913         MOVFF   PREINC1, r0x03
0000A4 CFE4 F000      00914         MOVFF   PREINC1, r0x02
0000A8 CFE4 F000      00915         MOVFF   PREINC1, r0x01
0000AC CFE4 F000      00916         MOVFF   PREINC1, r0x00
0000B0 CFE4 FFD9      00917         MOVFF   PREINC1, FSR2L
0000B4 0012           00918         RETURN  
                      00919 
                      00920 ; ; Starting pCode block
                      00921 S_format__format_number code
000000                00922 _format_number:
                      00923 ;       .line   15; ../../../lib/format.c       format_number(uint16_t n, uint8_t base, int8_t pad /*, i
                            nt8_t pointpos*/) {
000000 CFD9 FFE5      00924         MOVFF   FSR2L, POSTDEC1
000004 CFE1 FFD9      00925         MOVFF   FSR1L, FSR2L
000008 C??? F???      00926         MOVFF   r0x00, POSTDEC1
00000C C??? F???      00927         MOVFF   r0x01, POSTDEC1
000010 C??? F???      00928         MOVFF   r0x02, POSTDEC1
000014 C??? F???      00929         MOVFF   r0x03, POSTDEC1
000018 C??? F???      00930         MOVFF   r0x04, POSTDEC1
00001C C??? F???      00931         MOVFF   r0x05, POSTDEC1
000020 C??? F???      00932         MOVFF   r0x06, POSTDEC1
000024 C??? F???      00933         MOVFF   r0x07, POSTDEC1
000028 C??? F???      00934         MOVFF   r0x08, POSTDEC1
00002C C??? F???      00935         MOVFF   r0x09, POSTDEC1
000030 C??? F???      00936         MOVFF   r0x0a, POSTDEC1
000034 C??? F???      00937         MOVFF   r0x0b, POSTDEC1
000038 0E02           00938         MOVLW   0x02
00003A CFDB F000      00939         MOVFF   PLUSW2, r0x00
00003E 0E03           00940         MOVLW   0x03
000040 CFDB F000      00941         MOVFF   PLUSW2, r0x01
000044 0E04           00942         MOVLW   0x04
000046 CFDB F000      00943         MOVFF   PLUSW2, r0x02
00004A 0E05           00944         MOVLW   0x05
00004C CFDB F000      00945         MOVFF   PLUSW2, r0x03
                      00946 ;       .line   19; ../../../lib/format.c       char padchar = ' ';
000050 0E20           00947         MOVLW   0x20
000052 6E??           00948         MOVWF   r0x04
                      00949 ;       .line   21; ../../../lib/format.c       if(pad < 0) {
000054 80D8           00950         BSF     STATUS, 0
000056 AE??           00951         BTFSS   r0x03, 7
000058 90D8           00952         BCF     STATUS, 0
00005A E3??           00953         BNC     _00128_DS_
gpasm-1.5.2 #1319 (Sep 16 2019) build/default   27.11.2019  16:57:28        PAGE 19


LOC    OBJECT CODE    LINE  SOURCE TEXT
  VALUE

                      00954 ;       .line   22; ../../../lib/format.c       pad = -pad;
00005C 6C??           00955         NEGF    r0x03
                      00956 ;       .line   23; ../../../lib/format.c       padchar = '0';
00005E 0E30           00957         MOVLW   0x30
000060 6E??           00958         MOVWF   r0x04
000062                00959 _00128_DS_:
                      00960 ;       .line   31; ../../../lib/format.c       do {
000062 6A??           00961         CLRF    r0x05
000064                00962 _00112_DS_:
                      00963 ;       .line   35; ../../../lib/format.c       di = n % base;
000064 C??? F???      00964         MOVFF   r0x02, r0x06
000068 6A??           00965         CLRF    r0x07
00006A 50??           00966         MOVF    r0x07, W
00006C 6EE5           00967         MOVWF   POSTDEC1
00006E 50??           00968         MOVF    r0x06, W
000070 6EE5           00969         MOVWF   POSTDEC1
000072 50??           00970         MOVF    r0x01, W
000074 6EE5           00971         MOVWF   POSTDEC1
000076 50??           00972         MOVF    r0x00, W
000078 6EE5           00973         MOVWF   POSTDEC1
00007A EC?? F0??      00974         CALL    __moduint
00007E 6E??           00975         MOVWF   r0x08
000080 CFF3 F000      00976         MOVFF   PRODL, r0x09
000084 0E04           00977         MOVLW   0x04
000086 26E1           00978         ADDWF   FSR1L, F
                      00979 ;       .line   36; ../../../lib/format.c       buf[i++] = (di < 10 ? (uint8_t)'0' + di : (uint8_t)'A' +
                             di - 10);
000088 C??? F???      00980         MOVFF   r0x05, r0x09
00008C 2A??           00981         INCF    r0x05, F
00008E 6A??           00982         CLRF    r0x0a
000090 BE??           00983         BTFSC   r0x09, 7
000092 68??           00984         SETF    r0x0a
000094 0E??           00985         MOVLW   LOW(_format_number_buf_65536_56)
000096 26??           00986         ADDWF   r0x09, F
000098 0E??           00987         MOVLW   HIGH(_format_number_buf_65536_56)
00009A 22??           00988         ADDWFC  r0x0a, F
00009C 0E0A           00989         MOVLW   0x0a
00009E 5C??           00990         SUBWF   r0x08, W
0000A0 E2??           00991         BC      _00124_DS_
0000A2 0E30           00992         MOVLW   0x30
0000A4 24??           00993         ADDWF   r0x08, W
0000A6 6E??           00994         MOVWF   r0x0b
0000A8 D???           00995         BRA     _00125_DS_
0000AA                00996 _00124_DS_:
0000AA 0E37           00997         MOVLW   0x37
0000AC 24??           00998         ADDWF   r0x08, W
0000AE 6E??           00999         MOVWF   r0x0b
0000B0                01000 _00125_DS_:
0000B0 C??? F???      01001         MOVFF   r0x09, FSR0L
0000B4 C??? F???      01002         MOVFF   r0x0a, FSR0H
0000B8 C??? F???      01003         MOVFF   r0x0b, INDF0
                      01004 ;       .line   38; ../../../lib/format.c       n /= base;
0000BC 50??           01005         MOVF    r0x07, W
gpasm-1.5.2 #1319 (Sep 16 2019) build/default   27.11.2019  16:57:28        PAGE 20


LOC    OBJECT CODE    LINE  SOURCE TEXT
  VALUE

0000BE 6EE5           01006         MOVWF   POSTDEC1
0000C0 50??           01007         MOVF    r0x06, W
0000C2 6EE5           01008         MOVWF   POSTDEC1
0000C4 50??           01009         MOVF    r0x01, W
0000C6 6EE5           01010         MOVWF   POSTDEC1
0000C8 50??           01011         MOVF    r0x00, W
0000CA 6EE5           01012         MOVWF   POSTDEC1
0000CC EC?? F0??      01013         CALL    __divuint
0000D0 6E??           01014         MOVWF   r0x00
0000D2 CFF3 F000      01015         MOVFF   PRODL, r0x01
0000D6 0E04           01016         MOVLW   0x04
0000D8 26E1           01017         ADDWF   FSR1L, F
                      01018 ;       .line   39; ../../../lib/format.c       } while(n > 0);
0000DA 50??           01019         MOVF    r0x00, W
0000DC 10??           01020         IORWF   r0x01, W
0000DE A4D8           01021         BTFSS   STATUS, 2
0000E0 D???           01022         BRA     _00112_DS_
                      01023 ;       .line   41; ../../../lib/format.c       while(pad-- > i) buffer_putch(padchar);
0000E2 C??? F???      01024         MOVFF   r0x05, r0x00
0000E6 C??? F???      01025         MOVFF   r0x03, r0x01
0000EA                01026 _00115_DS_:
0000EA 50??           01027         MOVF    r0x00, W
0000EC 0F80           01028         ADDLW   0x80
0000EE 6EF3           01029         MOVWF   PRODL
0000F0 50??           01030         MOVF    r0x01, W
0000F2 0F80           01031         ADDLW   0x80
0000F4 5CF3           01032         SUBWF   PRODL, W
0000F6 E2??           01033         BC      _00120_DS_
0000F8 06??           01034         DECF    r0x01, F
0000FA 50??           01035         MOVF    r0x04, W
0000FC 6EE5           01036         MOVWF   POSTDEC1
0000FE EC?? F0??      01037         CALL    _buffer_putch
000102 52E6           01038         MOVF    POSTINC1, F
000104 D???           01039         BRA     _00115_DS_
000106                01040 _00120_DS_:
                      01041 ;       .line   43; ../../../lib/format.c       for(; i > 0; i--) {
000106 50??           01042         MOVF    r0x00, W
000108 0F80           01043         ADDLW   0x80
00010A 0F7F           01044         ADDLW   0x7f
00010C E3??           01045         BNC     _00122_DS_
                      01046 ;       .line   44; ../../../lib/format.c       buffer_putch((char)buf[(int16_t)i - 1]);
00010E 04??           01047         DECF    r0x00, W
000110 6E??           01048         MOVWF   r0x01
000112 C??? F???      01049         MOVFF   r0x01, r0x02
000116 6A??           01050         CLRF    r0x03
000118 BE??           01051         BTFSC   r0x01, 7
00011A 68??           01052         SETF    r0x03
00011C 0E??           01053         MOVLW   LOW(_format_number_buf_65536_56)
00011E 26??           01054         ADDWF   r0x02, F
000120 0E??           01055         MOVLW   HIGH(_format_number_buf_65536_56)
000122 22??           01056         ADDWFC  r0x03, F
000124 C??? F???      01057         MOVFF   r0x02, FSR0L
000128 C??? F???      01058         MOVFF   r0x03, FSR0H
gpasm-1.5.2 #1319 (Sep 16 2019) build/default   27.11.2019  16:57:28        PAGE 21


LOC    OBJECT CODE    LINE  SOURCE TEXT
  VALUE

00012C CFEF F000      01059         MOVFF   INDF0, r0x02
000130 50??           01060         MOVF    r0x02, W
000132 6EE5           01061         MOVWF   POSTDEC1
000134 EC?? F0??      01062         CALL    _buffer_putch
000138 52E6           01063         MOVF    POSTINC1, F
                      01064 ;       .line   43; ../../../lib/format.c       for(; i > 0; i--) {
00013A C??? F???      01065         MOVFF   r0x01, r0x00
00013E D???           01066         BRA     _00120_DS_
000140                01067 _00122_DS_:
                      01068 ;       .line   47; ../../../lib/format.c       }
000140 CFE4 F000      01069         MOVFF   PREINC1, r0x0b
000144 CFE4 F000      01070         MOVFF   PREINC1, r0x0a
000148 CFE4 F000      01071         MOVFF   PREINC1, r0x09
00014C CFE4 F000      01072         MOVFF   PREINC1, r0x08
000150 CFE4 F000      01073         MOVFF   PREINC1, r0x07
000154 CFE4 F000      01074         MOVFF   PREINC1, r0x06
000158 CFE4 F000      01075         MOVFF   PREINC1, r0x05
00015C CFE4 F000      01076         MOVFF   PREINC1, r0x04
000160 CFE4 F000      01077         MOVFF   PREINC1, r0x03
000164 CFE4 F000      01078         MOVFF   PREINC1, r0x02
000168 CFE4 F000      01079         MOVFF   PREINC1, r0x01
00016C CFE4 F000      01080         MOVFF   PREINC1, r0x00
000170 CFE4 FFD9      01081         MOVFF   PREINC1, FSR2L
000174 0012           01082         RETURN  
                      01083 
                      01084 ; ; Starting pCode block
                      01085 S_format__format_putchar        code
000000                01086 _format_putchar:
                      01087 ;       .line   7; ../../../lib/format.c        format_putchar(char c) {
000000 CFD9 FFE5      01088         MOVFF   FSR2L, POSTDEC1
000004 CFE1 FFD9      01089         MOVFF   FSR1L, FSR2L
                      01090 ;       .line   9; ../../../lib/format.c        }
000008 CFE4 FFD9      01091         MOVFF   PREINC1, FSR2L
00000C 0012           01092         RETURN  
                      01093 
                      01094 
                      01095 
                      01096 ; Statistics:
                      01097 ; code size:     1880 (0x0758) bytes ( 1.43%)
                      01098 ;                 940 (0x03ac) words
                      01099 ; udata size:      32 (0x0020) bytes ( 1.79%)
                      01100 ; access size:     16 (0x0010) bytes
                      01101 
                      01102 
                      01103         end
gpasm-1.5.2 #1319 (Sep 16 2019) build/default   27.11.2019  16:57:28        PAGE 22


SYMBOL TABLE
  LABEL                              TYPE        VALUE         VALUE          VALUE
                                                 (hex)         (dec)          (text)

FSR0H                             CONSTANT      00000FEA           4074
FSR0L                             CONSTANT      00000FE9           4073
FSR1L                             CONSTANT      00000FE1           4065
FSR2L                             CONSTANT      00000FD9           4057
INDF0                             CONSTANT      00000FEF           4079
PLUSW2                            CONSTANT      00000FDB           4059
POSTDEC1                          CONSTANT      00000FE5           4069
POSTINC1                          CONSTANT      00000FE6           4070
PREINC1                           CONSTANT      00000FE4           4068
PRODH                             CONSTANT      00000FF4           4084
PRODL                             CONSTANT      00000FF3           4083
STATUS                            CONSTANT      00000FD8           4056
_00112_DS_                        ADDRESS       00000064            100
_00115_DS_                        ADDRESS       000000EA            234
_00120_DS_                        ADDRESS       00000106            262
_00122_DS_                        ADDRESS       00000140            320
_00124_DS_                        ADDRESS       000000AA            170
_00125_DS_                        ADDRESS       000000B0            176
_00128_DS_                        ADDRESS       00000062             98
_00173_DS_                        ADDRESS       0000023C            572
_00174_DS_                        ADDRESS       000000A0            160
_00177_DS_                        ADDRESS       00000244            580
_00183_DS_                        ADDRESS       0000024A            586
_00184_DS_                        ADDRESS       000000A4            164
_00187_DS_                        ADDRESS       00000252            594
_ADCON0                           EXTERNAL      00000000              0
_ADCON0bits                       EXTERNAL      00000000              0
_ADCON1                           EXTERNAL      00000000              0
_ADCON1bits                       EXTERNAL      00000000              0
_ADCON2                           EXTERNAL      00000000              0
_ADCON2bits                       EXTERNAL      00000000              0
_ADRES                            EXTERNAL      00000000              0
_ADRESH                           EXTERNAL      00000000              0
_ADRESL                           EXTERNAL      00000000              0
_BAUDCON                          EXTERNAL      00000000              0
_BAUDCONbits                      EXTERNAL      00000000              0
_BAUDCTL                          EXTERNAL      00000000              0
_BAUDCTLbits                      EXTERNAL      00000000              0
_BSR                              EXTERNAL      00000000              0
_CCP1AS                           EXTERNAL      00000000              0
_CCP1ASbits                       EXTERNAL      00000000              0
_CCP1CON                          EXTERNAL      00000000              0
_CCP1CONbits                      EXTERNAL      00000000              0
_CCP1DEL                          EXTERNAL      00000000              0
_CCP1DELbits                      EXTERNAL      00000000              0
_CCP2CON                          EXTERNAL      00000000              0
_CCP2CONbits                      EXTERNAL      00000000              0
_CCPR1                            EXTERNAL      00000000              0
_CCPR1H                           EXTERNAL      00000000              0
_CCPR1L                           EXTERNAL      00000000              0
_CCPR2                            EXTERNAL      00000000              0
_CCPR2H                           EXTERNAL      00000000              0
gpasm-1.5.2 #1319 (Sep 16 2019) build/default   27.11.2019  16:57:28        PAGE 23


SYMBOL TABLE
  LABEL                              TYPE        VALUE         VALUE          VALUE
                                                 (hex)         (dec)          (text)

_CCPR2L                           EXTERNAL      00000000              0
_CMCON                            EXTERNAL      00000000              0
_CMCONbits                        EXTERNAL      00000000              0
_CVRCON                           EXTERNAL      00000000              0
_CVRCONbits                       EXTERNAL      00000000              0
_DDRA                             EXTERNAL      00000000              0
_DDRAbits                         EXTERNAL      00000000              0
_DDRB                             EXTERNAL      00000000              0
_DDRBbits                         EXTERNAL      00000000              0
_DDRC                             EXTERNAL      00000000              0
_DDRCbits                         EXTERNAL      00000000              0
_ECCP1AS                          EXTERNAL      00000000              0
_ECCP1ASbits                      EXTERNAL      00000000              0
_ECCP1DEL                         EXTERNAL      00000000              0
_ECCP1DELbits                     EXTERNAL      00000000              0
_EEADR                            EXTERNAL      00000000              0
_EECON1                           EXTERNAL      00000000              0
_EECON1bits                       EXTERNAL      00000000              0
_EECON2                           EXTERNAL      00000000              0
_EEDATA                           EXTERNAL      00000000              0
_FSR0H                            EXTERNAL      00000000              0
_FSR0L                            EXTERNAL      00000000              0
_FSR1H                            EXTERNAL      00000000              0
_FSR1L                            EXTERNAL      00000000              0
_FSR2H                            EXTERNAL      00000000              0
_FSR2L                            EXTERNAL      00000000              0
_HLVDCON                          EXTERNAL      00000000              0
_HLVDCONbits                      EXTERNAL      00000000              0
_INDF0                            EXTERNAL      00000000              0
_INDF1                            EXTERNAL      00000000              0
_INDF2                            EXTERNAL      00000000              0
_INTCON                           EXTERNAL      00000000              0
_INTCON2                          EXTERNAL      00000000              0
_INTCON2bits                      EXTERNAL      00000000              0
_INTCON3                          EXTERNAL      00000000              0
_INTCON3bits                      EXTERNAL      00000000              0
_INTCONbits                       EXTERNAL      00000000              0
_IPR1                             EXTERNAL      00000000              0
_IPR1bits                         EXTERNAL      00000000              0
_IPR2                             EXTERNAL      00000000              0
_IPR2bits                         EXTERNAL      00000000              0
_LATA                             EXTERNAL      00000000              0
_LATAbits                         EXTERNAL      00000000              0
_LATB                             EXTERNAL      00000000              0
_LATBbits                         EXTERNAL      00000000              0
_LATC                             EXTERNAL      00000000              0
_LATCbits                         EXTERNAL      00000000              0
_LVDCON                           EXTERNAL      00000000              0
_LVDCONbits                       EXTERNAL      00000000              0
_OSCCON                           EXTERNAL      00000000              0
_OSCCONbits                       EXTERNAL      00000000              0
_OSCTUNE                          EXTERNAL      00000000              0
gpasm-1.5.2 #1319 (Sep 16 2019) build/default   27.11.2019  16:57:28        PAGE 24


SYMBOL TABLE
  LABEL                              TYPE        VALUE         VALUE          VALUE
                                                 (hex)         (dec)          (text)

_OSCTUNEbits                      EXTERNAL      00000000              0
_PC                               EXTERNAL      00000000              0
_PCL                              EXTERNAL      00000000              0
_PCLATH                           EXTERNAL      00000000              0
_PCLATU                           EXTERNAL      00000000              0
_PIE1                             EXTERNAL      00000000              0
_PIE1bits                         EXTERNAL      00000000              0
_PIE2                             EXTERNAL      00000000              0
_PIE2bits                         EXTERNAL      00000000              0
_PIR1                             EXTERNAL      00000000              0
_PIR1bits                         EXTERNAL      00000000              0
_PIR2                             EXTERNAL      00000000              0
_PIR2bits                         EXTERNAL      00000000              0
_PLUSW0                           EXTERNAL      00000000              0
_PLUSW1                           EXTERNAL      00000000              0
_PLUSW2                           EXTERNAL      00000000              0
_PORTA                            EXTERNAL      00000000              0
_PORTAbits                        EXTERNAL      00000000              0
_PORTB                            EXTERNAL      00000000              0
_PORTBbits                        EXTERNAL      00000000              0
_PORTC                            EXTERNAL      00000000              0
_PORTCbits                        EXTERNAL      00000000              0
_PORTE                            EXTERNAL      00000000              0
_PORTEbits                        EXTERNAL      00000000              0
_POSTDEC0                         EXTERNAL      00000000              0
_POSTDEC1                         EXTERNAL      00000000              0
_POSTDEC2                         EXTERNAL      00000000              0
_POSTINC0                         EXTERNAL      00000000              0
_POSTINC1                         EXTERNAL      00000000              0
_POSTINC2                         EXTERNAL      00000000              0
_PR2                              EXTERNAL      00000000              0
_PREINC0                          EXTERNAL      00000000              0
_PREINC1                          EXTERNAL      00000000              0
_PREINC2                          EXTERNAL      00000000              0
_PROD                             EXTERNAL      00000000              0
_PRODH                            EXTERNAL      00000000              0
_PRODL                            EXTERNAL      00000000              0
_RCON                             EXTERNAL      00000000              0
_RCONbits                         EXTERNAL      00000000              0
_RCREG                            EXTERNAL      00000000              0
_RCSTA                            EXTERNAL      00000000              0
_RCSTAbits                        EXTERNAL      00000000              0
_SPBRG                            EXTERNAL      00000000              0
_SPBRGH                           EXTERNAL      00000000              0
_SSPADD                           EXTERNAL      00000000              0
_SSPBUF                           EXTERNAL      00000000              0
_SSPCON1                          EXTERNAL      00000000              0
_SSPCON1bits                      EXTERNAL      00000000              0
_SSPCON2                          EXTERNAL      00000000              0
_SSPCON2bits                      EXTERNAL      00000000              0
_SSPSTAT                          EXTERNAL      00000000              0
_SSPSTATbits                      EXTERNAL      00000000              0
gpasm-1.5.2 #1319 (Sep 16 2019) build/default   27.11.2019  16:57:28        PAGE 25


SYMBOL TABLE
  LABEL                              TYPE        VALUE         VALUE          VALUE
                                                 (hex)         (dec)          (text)

_STATUS                           EXTERNAL      00000000              0
_STATUSbits                       EXTERNAL      00000000              0
_STKPTR                           EXTERNAL      00000000              0
_STKPTRbits                       EXTERNAL      00000000              0
_T0CON                            EXTERNAL      00000000              0
_T0CONbits                        EXTERNAL      00000000              0
_T1CON                            EXTERNAL      00000000              0
_T1CONbits                        EXTERNAL      00000000              0
_T2CON                            EXTERNAL      00000000              0
_T2CONbits                        EXTERNAL      00000000              0
_T3CON                            EXTERNAL      00000000              0
_T3CONbits                        EXTERNAL      00000000              0
_TABLAT                           EXTERNAL      00000000              0
_TBLPTR                           EXTERNAL      00000000              0
_TBLPTRH                          EXTERNAL      00000000              0
_TBLPTRL                          EXTERNAL      00000000              0
_TBLPTRU                          EXTERNAL      00000000              0
_TMR0                             EXTERNAL      00000000              0
_TMR0H                            EXTERNAL      00000000              0
_TMR0L                            EXTERNAL      00000000              0
_TMR1                             EXTERNAL      00000000              0
_TMR1H                            EXTERNAL      00000000              0
_TMR1L                            EXTERNAL      00000000              0
_TMR2                             EXTERNAL      00000000              0
_TMR3                             EXTERNAL      00000000              0
_TMR3H                            EXTERNAL      00000000              0
_TMR3L                            EXTERNAL      00000000              0
_TOS                              EXTERNAL      00000000              0
_TOSH                             EXTERNAL      00000000              0
_TOSL                             EXTERNAL      00000000              0
_TOSU                             EXTERNAL      00000000              0
_TRISA                            EXTERNAL      00000000              0
_TRISAbits                        EXTERNAL      00000000              0
_TRISB                            EXTERNAL      00000000              0
_TRISBbits                        EXTERNAL      00000000              0
_TRISC                            EXTERNAL      00000000              0
_TRISCbits                        EXTERNAL      00000000              0
_TXREG                            EXTERNAL      00000000              0
_TXSTA                            EXTERNAL      00000000              0
_TXSTAbits                        EXTERNAL      00000000              0
_UADDR                            EXTERNAL      00000000              0
_UADDRbits                        EXTERNAL      00000000              0
_UCFG                             EXTERNAL      00000000              0
_UCFGbits                         EXTERNAL      00000000              0
_UCON                             EXTERNAL      00000000              0
_UCONbits                         EXTERNAL      00000000              0
_UEIE                             EXTERNAL      00000000              0
_UEIEbits                         EXTERNAL      00000000              0
_UEIR                             EXTERNAL      00000000              0
_UEIRbits                         EXTERNAL      00000000              0
_UEP0                             EXTERNAL      00000000              0
_UEP0bits                         EXTERNAL      00000000              0
gpasm-1.5.2 #1319 (Sep 16 2019) build/default   27.11.2019  16:57:28        PAGE 26


SYMBOL TABLE
  LABEL                              TYPE        VALUE         VALUE          VALUE
                                                 (hex)         (dec)          (text)

_UEP1                             EXTERNAL      00000000              0
_UEP1bits                         EXTERNAL      00000000              0
_UEP2                             EXTERNAL      00000000              0
_UEP2bits                         EXTERNAL      00000000              0
_UEP3                             EXTERNAL      00000000              0
_UEP3bits                         EXTERNAL      00000000              0
_UEP4                             EXTERNAL      00000000              0
_UEP4bits                         EXTERNAL      00000000              0
_UEP5                             EXTERNAL      00000000              0
_UEP5bits                         EXTERNAL      00000000              0
_UEP6                             EXTERNAL      00000000              0
_UEP6bits                         EXTERNAL      00000000              0
_UEP7                             EXTERNAL      00000000              0
_UEP7bits                         EXTERNAL      00000000              0
_UEP8                             EXTERNAL      00000000              0
_UEP8bits                         EXTERNAL      00000000              0
_UEP9                             EXTERNAL      00000000              0
_UEP9bits                         EXTERNAL      00000000              0
_UEP10                            EXTERNAL      00000000              0
_UEP10bits                        EXTERNAL      00000000              0
_UEP11                            EXTERNAL      00000000              0
_UEP11bits                        EXTERNAL      00000000              0
_UEP12                            EXTERNAL      00000000              0
_UEP12bits                        EXTERNAL      00000000              0
_UEP13                            EXTERNAL      00000000              0
_UEP13bits                        EXTERNAL      00000000              0
_UEP14                            EXTERNAL      00000000              0
_UEP14bits                        EXTERNAL      00000000              0
_UEP15                            EXTERNAL      00000000              0
_UEP15bits                        EXTERNAL      00000000              0
_UFRM                             EXTERNAL      00000000              0
_UFRMH                            EXTERNAL      00000000              0
_UFRMHbits                        EXTERNAL      00000000              0
_UFRML                            EXTERNAL      00000000              0
_UFRMLbits                        EXTERNAL      00000000              0
_UIE                              EXTERNAL      00000000              0
_UIEbits                          EXTERNAL      00000000              0
_UIR                              EXTERNAL      00000000              0
_UIRbits                          EXTERNAL      00000000              0
_USTAT                            EXTERNAL      00000000              0
_USTATbits                        EXTERNAL      00000000              0
_WDTCON                           EXTERNAL      00000000              0
_WDTCONbits                       EXTERNAL      00000000              0
_WREG                             EXTERNAL      00000000              0
__16_BIT                          CONSTANT      00000001              1
__18F2550                         CONSTANT      00000001              1
__ACC_RAM_LOW_END                 CONSTANT      0000005F             95
__ACC_RAM_LOW_START               CONSTANT      00000000              0
__ACTIVE_BANK_ADDR                VARIABLE      FFFFFFFF             -1
__ASSUMED_BANK_ADDR               VARIABLE      FFFFFFFF             -1
__BANK_0                          CONSTANT      00000000              0
__BANK_1                          CONSTANT      00000100            256
gpasm-1.5.2 #1319 (Sep 16 2019) build/default   27.11.2019  16:57:28        PAGE 27


SYMBOL TABLE
  LABEL                              TYPE        VALUE         VALUE          VALUE
                                                 (hex)         (dec)          (text)

__BANK_2                          CONSTANT      00000200            512
__BANK_3                          CONSTANT      00000300            768
__BANK_4                          CONSTANT      00000400           1024
__BANK_5                          CONSTANT      00000500           1280
__BANK_6                          CONSTANT      00000600           1536
__BANK_7                          CONSTANT      00000700           1792
__BANK_8                          CONSTANT      00000800           2048
__BANK_9                          CONSTANT      00000900           2304
__BANK_10                         CONSTANT      00000A00           2560
__BANK_11                         CONSTANT      00000B00           2816
__BANK_12                         CONSTANT      00000C00           3072
__BANK_13                         CONSTANT      00000D00           3328
__BANK_14                         CONSTANT      00000E00           3584
__BANK_15                         CONSTANT      00000F00           3840
__BANK_BITS                       CONSTANT      00000F00           3840
__BANK_FIRST                      CONSTANT      00000000              0
__BANK_INV                        CONSTANT      FFFFFFFF             -1
__BANK_LAST                       CONSTANT      00000F00           3840
__BANK_MASK                       CONSTANT      000000FF            255
__BANK_SHIFT                      CONSTANT      00000008              8
__BANK_SIZE                       CONSTANT      00000100            256
__CODE_END                        CONSTANT      00007FFF          32767
__CODE_START                      CONSTANT      00000000              0
__COMMON_RAM_END                  CONSTANT      0000005F             95
__COMMON_RAM_START                CONSTANT      00000000              0
__CONFIG_END                      CONSTANT      0030000D        3145741
__CONFIG_START                    CONSTANT      00300000        3145728
__EEPROM_END                      CONSTANT      00F000FF       15728895
__EEPROM_START                    CONSTANT      00F00000       15728640
__EXTENDED                        CONSTANT      00000001              1
__GPUTILS_SVN_VERSION             CONSTANT      00000527           1319
__GPUTILS_VERSION_MAJOR           CONSTANT      00000001              1
__GPUTILS_VERSION_MICRO           CONSTANT      00000002              2
__GPUTILS_VERSION_MINOR           CONSTANT      00000005              5
__IDLOCS_END                      CONSTANT      00200007        2097159
__IDLOCS_START                    CONSTANT      00200000        2097152
__NUM_BANKS                       CONSTANT      00000010             16
__VECTOR_INT_HIGH                 CONSTANT      00000008              8
__VECTOR_INT_LOW                  CONSTANT      00000018             24
__VECTOR_RESET                    CONSTANT      00000000              0
__WHILE_LOOP_COUNT_MAX            CONSTANT      000000FF            255
___fs2sint                        EXTERNAL      00000000              0
___fs2uchar                       EXTERNAL      00000000              0
___fsdiv                          EXTERNAL      00000000              0
___fslt                           EXTERNAL      00000000              0
___fsmul                          EXTERNAL      00000000              0
___fssub                          EXTERNAL      00000000              0
___sint2fs                        EXTERNAL      00000000              0
___uchar2fs                       EXTERNAL      00000000              0
__divuint                         EXTERNAL      00000000              0
__moduint                         EXTERNAL      00000000              0
_buffer                           EXTERNAL      00000000              0
gpasm-1.5.2 #1319 (Sep 16 2019) build/default   27.11.2019  16:57:28        PAGE 28


SYMBOL TABLE
  LABEL                              TYPE        VALUE         VALUE          VALUE
                                                 (hex)         (dec)          (text)

_buffer_putch                     EXTERNAL      00000000              0
_floorf                           EXTERNAL      00000000              0
_format_double                    GLOBAL        00000000              0
_format_float                     GLOBAL        00000000              0
_format_number                    GLOBAL        00000000              0
_format_number_buf_65536_56       STATIC        00000000              0
_format_putchar                   ADDRESS       00000000              0
_format_xint32                    GLOBAL        00000000              0
_log10f                           EXTERNAL      00000000              0
_powf                             EXTERNAL      00000000              0
r0x00                             STATIC        00000000              0
r0x01                             STATIC        00000001              1
r0x02                             STATIC        00000002              2
r0x03                             STATIC        00000003              3
r0x04                             STATIC        00000004              4
r0x05                             STATIC        00000005              5
r0x06                             STATIC        00000006              6
r0x07                             STATIC        00000007              7
r0x08                             STATIC        00000008              8
r0x09                             STATIC        00000009              9
r0x0a                             STATIC        0000000A             10
r0x0b                             STATIC        0000000B             11
r0x0c                             STATIC        0000000C             12
r0x0d                             STATIC        0000000D             13
r0x0e                             STATIC        0000000E             14
r0x0f                             STATIC        0000000F             15

Errors   :     0
Warnings :     0 reported,     0 suppressed
Messages :     0 reported,     0 suppressed

