

Microchip Technology PIC LITE Macro Assembler V1.34 build -361300703 
                                                                                               Tue Jul 12 08:03:24 2016

Microchip Technology Omniscient Code Generator (Lite mode) build 201502162209
     1                           	processor	16F876A
     2                           	opt	pw 120
     3                           	opt	lm
     4                           	psect	stringtext,global,reloc=256,class=STRCODE,delta=2
     5                           	psect	cinit,global,class=CODE,merge=1,delta=2
     6                           	psect	bssBANK0,global,class=BANK0,space=1,delta=1
     7                           	psect	bssBANK1,global,class=BANK1,space=1,delta=1
     8                           	psect	cstackCOMMON,global,class=COMMON,space=1,delta=1
     9                           	psect	cstackBANK0,global,class=BANK0,space=1,delta=1
    10                           	psect	maintext,global,class=CODE,split=1,delta=2
    11                           	psect	text1,local,class=CODE,merge=1,delta=2
    12                           	psect	text2,local,class=CODE,merge=1,delta=2
    13                           	psect	text3,local,class=CODE,merge=1,delta=2
    14                           	psect	text4,local,class=CODE,merge=1,delta=2
    15                           	psect	text5,local,class=CODE,merge=1,delta=2
    16                           	psect	text6,local,class=CODE,merge=1,delta=2
    17                           	psect	text7,local,class=CODE,merge=1,delta=2
    18                           	psect	text8,local,class=CODE,merge=1,delta=2
    19                           	psect	text9,local,class=CODE,merge=1,delta=2
    20                           	psect	text10,local,class=CODE,merge=1,delta=2
    21                           	psect	text11,local,class=CODE,merge=1,delta=2
    22                           	psect	text12,local,class=CODE,merge=1,delta=2
    23                           	psect	text13,local,class=CODE,merge=1,delta=2
    24                           	psect	text14,local,class=CODE,merge=1,delta=2
    25                           	psect	text15,local,class=CODE,merge=1,delta=2
    26                           	psect	text16,local,class=CODE,merge=1,delta=2
    27                           	psect	text17,local,class=CODE,merge=1,delta=2
    28                           	psect	text18,local,class=CODE,merge=1,delta=2
    29                           	psect	text19,local,class=CODE,merge=1,delta=2
    30                           	psect	text20,local,class=CODE,merge=1,delta=2
    31                           	psect	text21,local,class=CODE,merge=1,delta=2
    32                           	psect	text22,local,class=CODE,merge=1,delta=2
    33                           	psect	text23,local,class=CODE,merge=1,delta=2
    34                           	psect	text24,local,class=CODE,merge=1,delta=2
    35                           	psect	text25,local,class=CODE,merge=1,delta=2
    36                           	psect	text26,local,class=CODE,merge=1,delta=2
    37                           	psect	text27,local,class=CODE,merge=1,delta=2
    38                           	dabs	1,0x7E,2
    39  0000                     	;# 
    40  0001                     	;# 
    41  0002                     	;# 
    42  0003                     	;# 
    43  0004                     	;# 
    44  0005                     	;# 
    45  0006                     	;# 
    46  0007                     	;# 
    47  000A                     	;# 
    48  000B                     	;# 
    49  000C                     	;# 
    50  000D                     	;# 
    51  000E                     	;# 
    52  000E                     	;# 
    53  000F                     	;# 
    54  0010                     	;# 
    55  0011                     	;# 
    56  0012                     	;# 
    57  0013                     	;# 
    58  0014                     	;# 
    59  0015                     	;# 
    60  0015                     	;# 
    61  0016                     	;# 
    62  0017                     	;# 
    63  0018                     	;# 
    64  0019                     	;# 
    65  001A                     	;# 
    66  001B                     	;# 
    67  001B                     	;# 
    68  001C                     	;# 
    69  001D                     	;# 
    70  001E                     	;# 
    71  001F                     	;# 
    72  0081                     	;# 
    73  0085                     	;# 
    74  0086                     	;# 
    75  0087                     	;# 
    76  008C                     	;# 
    77  008D                     	;# 
    78  008E                     	;# 
    79  0091                     	;# 
    80  0092                     	;# 
    81  0093                     	;# 
    82  0094                     	;# 
    83  0098                     	;# 
    84  0099                     	;# 
    85  009C                     	;# 
    86  009D                     	;# 
    87  009E                     	;# 
    88  009F                     	;# 
    89  010C                     	;# 
    90  010D                     	;# 
    91  010E                     	;# 
    92  010F                     	;# 
    93  018C                     	;# 
    94  018D                     	;# 
    95  0000                     	;# 
    96  0001                     	;# 
    97  0002                     	;# 
    98  0003                     	;# 
    99  0004                     	;# 
   100  0005                     	;# 
   101  0006                     	;# 
   102  0007                     	;# 
   103  000A                     	;# 
   104  000B                     	;# 
   105  000C                     	;# 
   106  000D                     	;# 
   107  000E                     	;# 
   108  000E                     	;# 
   109  000F                     	;# 
   110  0010                     	;# 
   111  0011                     	;# 
   112  0012                     	;# 
   113  0013                     	;# 
   114  0014                     	;# 
   115  0015                     	;# 
   116  0015                     	;# 
   117  0016                     	;# 
   118  0017                     	;# 
   119  0018                     	;# 
   120  0019                     	;# 
   121  001A                     	;# 
   122  001B                     	;# 
   123  001B                     	;# 
   124  001C                     	;# 
   125  001D                     	;# 
   126  001E                     	;# 
   127  001F                     	;# 
   128  0081                     	;# 
   129  0085                     	;# 
   130  0086                     	;# 
   131  0087                     	;# 
   132  008C                     	;# 
   133  008D                     	;# 
   134  008E                     	;# 
   135  0091                     	;# 
   136  0092                     	;# 
   137  0093                     	;# 
   138  0094                     	;# 
   139  0098                     	;# 
   140  0099                     	;# 
   141  009C                     	;# 
   142  009D                     	;# 
   143  009E                     	;# 
   144  009F                     	;# 
   145  010C                     	;# 
   146  010D                     	;# 
   147  010E                     	;# 
   148  010F                     	;# 
   149  018C                     	;# 
   150  018D                     	;# 
   151                           
   152                           	psect	stringtext
   153  0800                     __pstringtext:	
   154  0800                     stringtab:	
   155  0800                     __stringtab:	
   156                           
   157                           ;	String table - string pointers are 2 bytes each
   158  0800  1BFF               	btfsc	btemp+1,7
   159  0801  280A               	ljmp	stringcode
   160  0802  1383               	bcf	3,7
   161  0803  187F               	btfsc	btemp+1,0
   162  0804  1783               	bsf	3,7
   163  0805  0800               	movf	0,w
   164  0806  0A84               	incf	4,f
   165  0807  1903               	skipnz
   166  0808  0AFF               	incf	btemp+1,f
   167  0809  0008               	return
   168  080A                     stringcode:	
   169  080A  087F               	movf	btemp+1,w
   170  080B  397F               	andlw	127
   171  080C  008A               	movwf	10
   172  080D  0804               	movf	4,w
   173  080E  0A84               	incf	4,f
   174  080F  1903               	skipnz
   175  0810  0AFF               	incf	btemp+1,f
   176  0811  0082               	movwf	2
   177  0812                     __stringbase:	
   178  0812                     __end_of__stringtab:	
   179  0812                     _logo_image:	
   180  0812  3400               	retlw	0
   181  0813  3440               	retlw	64
   182  0814  34C0               	retlw	192
   183  0815  34C0               	retlw	192
   184  0816  3480               	retlw	128
   185  0817  3480               	retlw	128
   186  0818  3400               	retlw	0
   187  0819  3400               	retlw	0
   188  081A  3400               	retlw	0
   189  081B  3400               	retlw	0
   190  081C  3400               	retlw	0
   191  081D  3400               	retlw	0
   192  081E  3400               	retlw	0
   193  081F  3400               	retlw	0
   194  0820  3400               	retlw	0
   195  0821  3400               	retlw	0
   196  0822  3400               	retlw	0
   197  0823  3400               	retlw	0
   198  0824  3400               	retlw	0
   199  0825  3400               	retlw	0
   200  0826  3400               	retlw	0
   201  0827  3400               	retlw	0
   202  0828  3400               	retlw	0
   203  0829  3400               	retlw	0
   204  082A  3400               	retlw	0
   205  082B  3400               	retlw	0
   206  082C  3400               	retlw	0
   207  082D  3400               	retlw	0
   208  082E  3400               	retlw	0
   209  082F  3400               	retlw	0
   210  0830  3400               	retlw	0
   211  0831  3400               	retlw	0
   212  0832  3400               	retlw	0
   213  0833  3400               	retlw	0
   214  0834  3400               	retlw	0
   215  0835  3400               	retlw	0
   216  0836  3400               	retlw	0
   217  0837  3400               	retlw	0
   218  0838  3400               	retlw	0
   219  0839  3400               	retlw	0
   220  083A  3400               	retlw	0
   221  083B  3400               	retlw	0
   222  083C  3400               	retlw	0
   223  083D  3400               	retlw	0
   224  083E  3400               	retlw	0
   225  083F  3400               	retlw	0
   226  0840  3400               	retlw	0
   227  0841  3400               	retlw	0
   228  0842  3400               	retlw	0
   229  0843  3400               	retlw	0
   230  0844  3400               	retlw	0
   231  0845  3400               	retlw	0
   232  0846  3400               	retlw	0
   233  0847  34E0               	retlw	224
   234  0848  34F8               	retlw	248
   235  0849  34F0               	retlw	240
   236  084A  34E0               	retlw	224
   237  084B  3400               	retlw	0
   238  084C  3400               	retlw	0
   239  084D  3400               	retlw	0
   240  084E  3400               	retlw	0
   241  084F  34E0               	retlw	224
   242  0850  34E0               	retlw	224
   243  0851  34E0               	retlw	224
   244  0852  34C0               	retlw	192
   245  0853  3480               	retlw	128
   246  0854  3410               	retlw	16
   247  0855  347C               	retlw	124
   248  0856  34FC               	retlw	252
   249  0857  34FE               	retlw	254
   250  0858  34FC               	retlw	252
   251  0859  34F8               	retlw	248
   252  085A  34E0               	retlw	224
   253  085B  34C0               	retlw	192
   254  085C  3400               	retlw	0
   255  085D  3400               	retlw	0
   256  085E  3400               	retlw	0
   257  085F  3400               	retlw	0
   258  0860  3400               	retlw	0
   259  0861  3400               	retlw	0
   260  0862  3400               	retlw	0
   261  0863  3400               	retlw	0
   262  0864  3400               	retlw	0
   263  0865  3400               	retlw	0
   264  0866  3400               	retlw	0
   265  0867  3400               	retlw	0
   266  0868  3401               	retlw	1
   267  0869  3407               	retlw	7
   268  086A  341F               	retlw	31
   269  086B  347F               	retlw	127
   270  086C  34FC               	retlw	252
   271  086D  34F8               	retlw	248
   272  086E  34E0               	retlw	224
   273  086F  3480               	retlw	128
   274  0870  3400               	retlw	0
   275  0871  3400               	retlw	0
   276  0872  3400               	retlw	0
   277  0873  3400               	retlw	0
   278  0874  34FC               	retlw	252
   279  0875  34FE               	retlw	254
   280  0876  34FC               	retlw	252
   281  0877  34DC               	retlw	220
   282  0878  3418               	retlw	24
   283  0879  3438               	retlw	56
   284  087A  3470               	retlw	112
   285  087B  34E0               	retlw	224
   286  087C  3480               	retlw	128
   287  087D  3400               	retlw	0
   288  087E  3400               	retlw	0
   289  087F  3400               	retlw	0
   290  0880  3400               	retlw	0
   291  0881  3400               	retlw	0
   292  0882  3400               	retlw	0
   293  0883  3400               	retlw	0
   294  0884  3400               	retlw	0
   295  0885  3400               	retlw	0
   296  0886  3400               	retlw	0
   297  0887  3480               	retlw	128
   298  0888  3400               	retlw	0
   299  0889  3400               	retlw	0
   300  088A  3480               	retlw	128
   301  088B  3480               	retlw	128
   302  088C  3480               	retlw	128
   303  088D  3400               	retlw	0
   304  088E  3480               	retlw	128
   305  088F  34C0               	retlw	192
   306  0890  34C0               	retlw	192
   307  0891  34C0               	retlw	192
   308  0892  3480               	retlw	128
   309  0893  3480               	retlw	128
   310  0894  3400               	retlw	0
   311  0895  3400               	retlw	0
   312  0896  34F0               	retlw	240
   313  0897  34F8               	retlw	248
   314  0898  34F8               	retlw	248
   315  0899  3478               	retlw	120
   316  089A  3470               	retlw	112
   317  089B  34F0               	retlw	240
   318  089C  34CF               	retlw	207
   319  089D  349F               	retlw	159
   320  089E  343F               	retlw	63
   321  089F  347F               	retlw	127
   322  08A0  34FF               	retlw	255
   323  08A1  34F6               	retlw	246
   324  08A2  34C0               	retlw	192
   325  08A3  3487               	retlw	135
   326  08A4  347F               	retlw	127
   327  08A5  34FF               	retlw	255
   328  08A6  34FF               	retlw	255
   329  08A7  34E7               	retlw	231
   330  08A8  349F               	retlw	159
   331  08A9  34FC               	retlw	252
   332  08AA  34FB               	retlw	251
   333  08AB  34FF               	retlw	255
   334  08AC  34FF               	retlw	255
   335  08AD  34FF               	retlw	255
   336  08AE  34FF               	retlw	255
   337  08AF  34FF               	retlw	255
   338  08B0  34DF               	retlw	223
   339  08B1  3418               	retlw	24
   340  08B2  3400               	retlw	0
   341  08B3  3400               	retlw	0
   342  08B4  3400               	retlw	0
   343  08B5  3400               	retlw	0
   344  08B6  3400               	retlw	0
   345  08B7  3400               	retlw	0
   346  08B8  3400               	retlw	0
   347  08B9  3400               	retlw	0
   348  08BA  3400               	retlw	0
   349  08BB  3400               	retlw	0
   350  08BC  3400               	retlw	0
   351  08BD  3400               	retlw	0
   352  08BE  3400               	retlw	0
   353  08BF  3400               	retlw	0
   354  08C0  3401               	retlw	1
   355  08C1  3403               	retlw	3
   356  08C2  340F               	retlw	15
   357  08C3  347F               	retlw	127
   358  08C4  34FE               	retlw	254
   359  08C5  34F8               	retlw	248
   360  08C6  34E0               	retlw	224
   361  08C7  3480               	retlw	128
   362  08C8  3400               	retlw	0
   363  08C9  3407               	retlw	7
   364  08CA  343F               	retlw	63
   365  08CB  34FF               	retlw	255
   366  08CC  34FE               	retlw	254
   367  08CD  34FC               	retlw	252
   368  08CE  34E0               	retlw	224
   369  08CF  3401               	retlw	1
   370  08D0  3403               	retlw	3
   371  08D1  340F               	retlw	15
   372  08D2  3404               	retlw	4
   373  08D3  3400               	retlw	0
   374  08D4  3400               	retlw	0
   375  08D5  3400               	retlw	0
   376  08D6  3400               	retlw	0
   377  08D7  3400               	retlw	0
   378  08D8  3400               	retlw	0
   379  08D9  3403               	retlw	3
   380  08DA  340F               	retlw	15
   381  08DB  343F               	retlw	63
   382  08DC  34FF               	retlw	255
   383  08DD  34FF               	retlw	255
   384  08DE  34FF               	retlw	255
   385  08DF  34E7               	retlw	231
   386  08E0  341F               	retlw	31
   387  08E1  347F               	retlw	127
   388  08E2  34FF               	retlw	255
   389  08E3  34FF               	retlw	255
   390  08E4  34F3               	retlw	243
   391  08E5  34CF               	retlw	207
   392  08E6  343F               	retlw	63
   393  08E7  34FF               	retlw	255
   394  08E8  34FE               	retlw	254
   395  08E9  34F8               	retlw	248
   396  08EA  34E3               	retlw	227
   397  08EB  349F               	retlw	159
   398  08EC  347F               	retlw	127
   399  08ED  34FF               	retlw	255
   400  08EE  34FC               	retlw	252
   401  08EF  34FF               	retlw	255
   402  08F0  34DF               	retlw	223
   403  08F1  341F               	retlw	31
   404  08F2  340F               	retlw	15
   405  08F3  340E               	retlw	14
   406  08F4  34C3               	retlw	195
   407  08F5  34CF               	retlw	207
   408  08F6  343F               	retlw	63
   409  08F7  34FF               	retlw	255
   410  08F8  34FE               	retlw	254
   411  08F9  34F9               	retlw	249
   412  08FA  34C7               	retlw	199
   413  08FB  341F               	retlw	31
   414  08FC  347F               	retlw	127
   415  08FD  34FF               	retlw	255
   416  08FE  34FF               	retlw	255
   417  08FF  34F3               	retlw	243
   418  0900  3483               	retlw	131
   419  0901  3403               	retlw	3
   420  0902  3421               	retlw	33
   421  0903  34E7               	retlw	231
   422  0904  34DF               	retlw	223
   423  0905  34FF               	retlw	255
   424  0906  34FC               	retlw	252
   425  0907  34F0               	retlw	240
   426  0908  34C0               	retlw	192
   427  0909  3400               	retlw	0
   428  090A  3400               	retlw	0
   429  090B  3400               	retlw	0
   430  090C  3400               	retlw	0
   431  090D  3400               	retlw	0
   432  090E  3400               	retlw	0
   433  090F  3400               	retlw	0
   434  0910  3400               	retlw	0
   435  0911  3400               	retlw	0
   436  0912  3400               	retlw	0
   437  0913  3400               	retlw	0
   438  0914  3400               	retlw	0
   439  0915  3400               	retlw	0
   440  0916  3400               	retlw	0
   441  0917  3400               	retlw	0
   442  0918  3401               	retlw	1
   443  0919  3403               	retlw	3
   444  091A  340F               	retlw	15
   445  091B  343F               	retlw	63
   446  091C  34FE               	retlw	254
   447  091D  34F8               	retlw	248
   448  091E  34E0               	retlw	224
   449  091F  3480               	retlw	128
   450  0920  3401               	retlw	1
   451  0921  3407               	retlw	7
   452  0922  341F               	retlw	31
   453  0923  34FF               	retlw	255
   454  0924  34FE               	retlw	254
   455  0925  34F8               	retlw	248
   456  0926  34E0               	retlw	224
   457  0927  3480               	retlw	128
   458  0928  3400               	retlw	0
   459  0929  3404               	retlw	4
   460  092A  341C               	retlw	28
   461  092B  34F8               	retlw	248
   462  092C  34F0               	retlw	240
   463  092D  3480               	retlw	128
   464  092E  3400               	retlw	0
   465  092F  3400               	retlw	0
   466  0930  3401               	retlw	1
   467  0931  3403               	retlw	3
   468  0932  340F               	retlw	15
   469  0933  343F               	retlw	63
   470  0934  34FF               	retlw	255
   471  0935  34FE               	retlw	254
   472  0936  34F9               	retlw	249
   473  0937  34E7               	retlw	231
   474  0938  349F               	retlw	159
   475  0939  347F               	retlw	127
   476  093A  347F               	retlw	127
   477  093B  347C               	retlw	124
   478  093C  3471               	retlw	113
   479  093D  3407               	retlw	7
   480  093E  343F               	retlw	63
   481  093F  343F               	retlw	63
   482  0940  341E               	retlw	30
   483  0941  341D               	retlw	29
   484  0942  3401               	retlw	1
   485  0943  3403               	retlw	3
   486  0944  3407               	retlw	7
   487  0945  340F               	retlw	15
   488  0946  340E               	retlw	14
   489  0947  340E               	retlw	14
   490  0948  340C               	retlw	12
   491  0949  340F               	retlw	15
   492  094A  340F               	retlw	15
   493  094B  3400               	retlw	0
   494  094C  3401               	retlw	1
   495  094D  3403               	retlw	3
   496  094E  3407               	retlw	7
   497  094F  340F               	retlw	15
   498  0950  340E               	retlw	14
   499  0951  340F               	retlw	15
   500  0952  3407               	retlw	7
   501  0953  3403               	retlw	3
   502  0954  3407               	retlw	7
   503  0955  340E               	retlw	14
   504  0956  341E               	retlw	30
   505  0957  343D               	retlw	61
   506  0958  343F               	retlw	63
   507  0959  343F               	retlw	63
   508  095A  3419               	retlw	25
   509  095B  3407               	retlw	7
   510  095C  341F               	retlw	31
   511  095D  347F               	retlw	127
   512  095E  347E               	retlw	126
   513  095F  3478               	retlw	120
   514  0960  34C0               	retlw	192
   515  0961  3400               	retlw	0
   516  0962  3400               	retlw	0
   517  0963  3400               	retlw	0
   518  0964  3400               	retlw	0
   519  0965  3400               	retlw	0
   520  0966  3400               	retlw	0
   521  0967  3400               	retlw	0
   522  0968  3400               	retlw	0
   523  0969  3400               	retlw	0
   524  096A  3400               	retlw	0
   525  096B  3400               	retlw	0
   526  096C  3400               	retlw	0
   527  096D  3400               	retlw	0
   528  096E  3400               	retlw	0
   529  096F  3400               	retlw	0
   530  0970  3400               	retlw	0
   531  0971  3403               	retlw	3
   532  0972  340F               	retlw	15
   533  0973  343F               	retlw	63
   534  0974  34FE               	retlw	254
   535  0975  34F8               	retlw	248
   536  0976  34F0               	retlw	240
   537  0977  3480               	retlw	128
   538  0978  3401               	retlw	1
   539  0979  3407               	retlw	7
   540  097A  340F               	retlw	15
   541  097B  349F               	retlw	159
   542  097C  34FF               	retlw	255
   543  097D  347C               	retlw	124
   544  097E  34F8               	retlw	248
   545  097F  34F0               	retlw	240
   546  0980  34F7               	retlw	247
   547  0981  34FF               	retlw	255
   548  0982  347E               	retlw	126
   549  0983  3400               	retlw	0
   550  0984  3400               	retlw	0
   551  0985  3400               	retlw	0
   552  0986  3400               	retlw	0
   553  0987  3400               	retlw	0
   554  0988  3400               	retlw	0
   555  0989  3401               	retlw	1
   556  098A  3401               	retlw	1
   557  098B  3400               	retlw	0
   558  098C  3400               	retlw	0
   559  098D  3400               	retlw	0
   560  098E  3400               	retlw	0
   561  098F  3400               	retlw	0
   562  0990  3400               	retlw	0
   563  0991  3400               	retlw	0
   564  0992  3400               	retlw	0
   565  0993  3400               	retlw	0
   566  0994  3400               	retlw	0
   567  0995  3400               	retlw	0
   568  0996  3400               	retlw	0
   569  0997  3400               	retlw	0
   570  0998  3400               	retlw	0
   571  0999  3400               	retlw	0
   572  099A  3400               	retlw	0
   573  099B  3400               	retlw	0
   574  099C  3400               	retlw	0
   575  099D  3400               	retlw	0
   576  099E  3400               	retlw	0
   577  099F  3400               	retlw	0
   578  09A0  3400               	retlw	0
   579  09A1  3400               	retlw	0
   580  09A2  3400               	retlw	0
   581  09A3  3400               	retlw	0
   582  09A4  3400               	retlw	0
   583  09A5  3400               	retlw	0
   584  09A6  3400               	retlw	0
   585  09A7  3400               	retlw	0
   586  09A8  3400               	retlw	0
   587  09A9  3400               	retlw	0
   588  09AA  3400               	retlw	0
   589  09AB  3400               	retlw	0
   590  09AC  3400               	retlw	0
   591  09AD  3400               	retlw	0
   592  09AE  3400               	retlw	0
   593  09AF  3400               	retlw	0
   594  09B0  3400               	retlw	0
   595  09B1  3400               	retlw	0
   596  09B2  3400               	retlw	0
   597  09B3  3400               	retlw	0
   598  09B4  3400               	retlw	0
   599  09B5  3400               	retlw	0
   600  09B6  3400               	retlw	0
   601  09B7  3400               	retlw	0
   602  09B8  3400               	retlw	0
   603  09B9  3400               	retlw	0
   604  09BA  3400               	retlw	0
   605  09BB  3400               	retlw	0
   606  09BC  3400               	retlw	0
   607  09BD  3400               	retlw	0
   608  09BE  3400               	retlw	0
   609  09BF  3400               	retlw	0
   610  09C0  3400               	retlw	0
   611  09C1  3400               	retlw	0
   612  09C2  3400               	retlw	0
   613  09C3  3400               	retlw	0
   614  09C4  3400               	retlw	0
   615  09C5  3400               	retlw	0
   616  09C6  3400               	retlw	0
   617  09C7  3400               	retlw	0
   618  09C8  3400               	retlw	0
   619  09C9  3403               	retlw	3
   620  09CA  340F               	retlw	15
   621  09CB  343F               	retlw	63
   622  09CC  34FE               	retlw	254
   623  09CD  34FE               	retlw	254
   624  09CE  347F               	retlw	127
   625  09CF  343F               	retlw	63
   626  09D0  341F               	retlw	31
   627  09D1  340C               	retlw	12
   628  09D2  3400               	retlw	0
   629  09D3  3400               	retlw	0
   630  09D4  3400               	retlw	0
   631  09D5  3400               	retlw	0
   632  09D6  3400               	retlw	0
   633  09D7  3400               	retlw	0
   634  09D8  3400               	retlw	0
   635  09D9  3400               	retlw	0
   636  09DA  3400               	retlw	0
   637  09DB  3400               	retlw	0
   638  09DC  3400               	retlw	0
   639  09DD  3400               	retlw	0
   640  09DE  3400               	retlw	0
   641  09DF  3400               	retlw	0
   642  09E0  3400               	retlw	0
   643  09E1  3400               	retlw	0
   644  09E2  3400               	retlw	0
   645  09E3  3400               	retlw	0
   646  09E4  3400               	retlw	0
   647  09E5  3400               	retlw	0
   648  09E6  3400               	retlw	0
   649  09E7  3400               	retlw	0
   650  09E8  3400               	retlw	0
   651  09E9  3400               	retlw	0
   652  09EA  3400               	retlw	0
   653  09EB  3400               	retlw	0
   654  09EC  3400               	retlw	0
   655  09ED  3400               	retlw	0
   656  09EE  3400               	retlw	0
   657  09EF  3400               	retlw	0
   658  09F0  3400               	retlw	0
   659  09F1  3400               	retlw	0
   660  09F2  3400               	retlw	0
   661  09F3  3400               	retlw	0
   662  09F4  3400               	retlw	0
   663  09F5  3400               	retlw	0
   664  09F6  3400               	retlw	0
   665  09F7  3400               	retlw	0
   666  09F8  3400               	retlw	0
   667  09F9  3400               	retlw	0
   668  09FA  3400               	retlw	0
   669  09FB  3400               	retlw	0
   670  09FC  3400               	retlw	0
   671  09FD  3400               	retlw	0
   672  09FE  3400               	retlw	0
   673  09FF  3400               	retlw	0
   674  0A00  3400               	retlw	0
   675  0A01  3400               	retlw	0
   676  0A02  3400               	retlw	0
   677  0A03  3400               	retlw	0
   678  0A04  3400               	retlw	0
   679  0A05  3400               	retlw	0
   680  0A06  3400               	retlw	0
   681  0A07  3400               	retlw	0
   682  0A08  3400               	retlw	0
   683  0A09  3400               	retlw	0
   684  0A0A                     __end_of_logo_image:	
   685  0A0A                     display@logo_image:	
   686  0A0A  3400               	retlw	0
   687  0A0B  3440               	retlw	64
   688  0A0C  34C0               	retlw	192
   689  0A0D  34C0               	retlw	192
   690  0A0E  3480               	retlw	128
   691  0A0F  3480               	retlw	128
   692  0A10  3400               	retlw	0
   693  0A11  3400               	retlw	0
   694  0A12  3400               	retlw	0
   695  0A13  3400               	retlw	0
   696  0A14  3400               	retlw	0
   697  0A15  3400               	retlw	0
   698  0A16  3400               	retlw	0
   699  0A17  3400               	retlw	0
   700  0A18  3400               	retlw	0
   701  0A19  3400               	retlw	0
   702  0A1A  3400               	retlw	0
   703  0A1B  3400               	retlw	0
   704  0A1C  3400               	retlw	0
   705  0A1D  3400               	retlw	0
   706  0A1E  3400               	retlw	0
   707  0A1F  3400               	retlw	0
   708  0A20  3400               	retlw	0
   709  0A21  3400               	retlw	0
   710  0A22  3400               	retlw	0
   711  0A23  3400               	retlw	0
   712  0A24  3400               	retlw	0
   713  0A25  3400               	retlw	0
   714  0A26  3400               	retlw	0
   715  0A27  3400               	retlw	0
   716  0A28  3400               	retlw	0
   717  0A29  3400               	retlw	0
   718  0A2A  3400               	retlw	0
   719  0A2B  3400               	retlw	0
   720  0A2C  3400               	retlw	0
   721  0A2D  3400               	retlw	0
   722  0A2E  3400               	retlw	0
   723  0A2F  3400               	retlw	0
   724  0A30  3400               	retlw	0
   725  0A31  3400               	retlw	0
   726  0A32  3400               	retlw	0
   727  0A33  3400               	retlw	0
   728  0A34  3400               	retlw	0
   729  0A35  3400               	retlw	0
   730  0A36  3400               	retlw	0
   731  0A37  3400               	retlw	0
   732  0A38  3400               	retlw	0
   733  0A39  3400               	retlw	0
   734  0A3A  3400               	retlw	0
   735  0A3B  3400               	retlw	0
   736  0A3C  3400               	retlw	0
   737  0A3D  3400               	retlw	0
   738  0A3E  3400               	retlw	0
   739  0A3F  34E0               	retlw	224
   740  0A40  34F8               	retlw	248
   741  0A41  34F0               	retlw	240
   742  0A42  34E0               	retlw	224
   743  0A43  3400               	retlw	0
   744  0A44  3400               	retlw	0
   745  0A45  3400               	retlw	0
   746  0A46  3400               	retlw	0
   747  0A47  34E0               	retlw	224
   748  0A48  34E0               	retlw	224
   749  0A49  34E0               	retlw	224
   750  0A4A  34C0               	retlw	192
   751  0A4B  3480               	retlw	128
   752  0A4C  3410               	retlw	16
   753  0A4D  347C               	retlw	124
   754  0A4E  34FC               	retlw	252
   755  0A4F  34FE               	retlw	254
   756  0A50  34FC               	retlw	252
   757  0A51  34F8               	retlw	248
   758  0A52  34E0               	retlw	224
   759  0A53  34C0               	retlw	192
   760  0A54  3400               	retlw	0
   761  0A55  3400               	retlw	0
   762  0A56  3400               	retlw	0
   763  0A57  3400               	retlw	0
   764  0A58  3400               	retlw	0
   765  0A59  3400               	retlw	0
   766  0A5A  3400               	retlw	0
   767  0A5B  3400               	retlw	0
   768  0A5C  3400               	retlw	0
   769  0A5D  3400               	retlw	0
   770  0A5E  3400               	retlw	0
   771  0A5F  3400               	retlw	0
   772  0A60  3401               	retlw	1
   773  0A61  3407               	retlw	7
   774  0A62  341F               	retlw	31
   775  0A63  347F               	retlw	127
   776  0A64  34FC               	retlw	252
   777  0A65  34F8               	retlw	248
   778  0A66  34E0               	retlw	224
   779  0A67  3480               	retlw	128
   780  0A68  3400               	retlw	0
   781  0A69  3400               	retlw	0
   782  0A6A  3400               	retlw	0
   783  0A6B  3400               	retlw	0
   784  0A6C  34FC               	retlw	252
   785  0A6D  34FE               	retlw	254
   786  0A6E  34FC               	retlw	252
   787  0A6F  34DC               	retlw	220
   788  0A70  3418               	retlw	24
   789  0A71  3438               	retlw	56
   790  0A72  3470               	retlw	112
   791  0A73  34E0               	retlw	224
   792  0A74  3480               	retlw	128
   793  0A75  3400               	retlw	0
   794  0A76  3400               	retlw	0
   795  0A77  3400               	retlw	0
   796  0A78  3400               	retlw	0
   797  0A79  3400               	retlw	0
   798  0A7A  3400               	retlw	0
   799  0A7B  3400               	retlw	0
   800  0A7C  3400               	retlw	0
   801  0A7D  3400               	retlw	0
   802  0A7E  3400               	retlw	0
   803  0A7F  3480               	retlw	128
   804  0A80  3400               	retlw	0
   805  0A81  3400               	retlw	0
   806  0A82  3480               	retlw	128
   807  0A83  3480               	retlw	128
   808  0A84  3480               	retlw	128
   809  0A85  3400               	retlw	0
   810  0A86  3480               	retlw	128
   811  0A87  34C0               	retlw	192
   812  0A88  34C0               	retlw	192
   813  0A89  34C0               	retlw	192
   814  0A8A  3480               	retlw	128
   815  0A8B  3480               	retlw	128
   816  0A8C  3400               	retlw	0
   817  0A8D  3400               	retlw	0
   818  0A8E  34F0               	retlw	240
   819  0A8F  34F8               	retlw	248
   820  0A90  34F8               	retlw	248
   821  0A91  3478               	retlw	120
   822  0A92  3470               	retlw	112
   823  0A93  34F0               	retlw	240
   824  0A94  34CF               	retlw	207
   825  0A95  349F               	retlw	159
   826  0A96  343F               	retlw	63
   827  0A97  347F               	retlw	127
   828  0A98  34FF               	retlw	255
   829  0A99  34F6               	retlw	246
   830  0A9A  34C0               	retlw	192
   831  0A9B  3487               	retlw	135
   832  0A9C  347F               	retlw	127
   833  0A9D  34FF               	retlw	255
   834  0A9E  34FF               	retlw	255
   835  0A9F  34E7               	retlw	231
   836  0AA0  349F               	retlw	159
   837  0AA1  34FC               	retlw	252
   838  0AA2  34FB               	retlw	251
   839  0AA3  34FF               	retlw	255
   840  0AA4  34FF               	retlw	255
   841  0AA5  34FF               	retlw	255
   842  0AA6  34FF               	retlw	255
   843  0AA7  34FF               	retlw	255
   844  0AA8  34DF               	retlw	223
   845  0AA9  3418               	retlw	24
   846  0AAA  3400               	retlw	0
   847  0AAB  3400               	retlw	0
   848  0AAC  3400               	retlw	0
   849  0AAD  3400               	retlw	0
   850  0AAE  3400               	retlw	0
   851  0AAF  3400               	retlw	0
   852  0AB0  3400               	retlw	0
   853  0AB1  3400               	retlw	0
   854  0AB2  3400               	retlw	0
   855  0AB3  3400               	retlw	0
   856  0AB4  3400               	retlw	0
   857  0AB5  3400               	retlw	0
   858  0AB6  3400               	retlw	0
   859  0AB7  3400               	retlw	0
   860  0AB8  3401               	retlw	1
   861  0AB9  3403               	retlw	3
   862  0ABA  340F               	retlw	15
   863  0ABB  347F               	retlw	127
   864  0ABC  34FE               	retlw	254
   865  0ABD  34F8               	retlw	248
   866  0ABE  34E0               	retlw	224
   867  0ABF  3480               	retlw	128
   868  0AC0  3400               	retlw	0
   869  0AC1  3407               	retlw	7
   870  0AC2  343F               	retlw	63
   871  0AC3  34FF               	retlw	255
   872  0AC4  34FE               	retlw	254
   873  0AC5  34FC               	retlw	252
   874  0AC6  34E0               	retlw	224
   875  0AC7  3401               	retlw	1
   876  0AC8  3403               	retlw	3
   877  0AC9  340F               	retlw	15
   878  0ACA  3404               	retlw	4
   879  0ACB  3400               	retlw	0
   880  0ACC  3400               	retlw	0
   881  0ACD  3400               	retlw	0
   882  0ACE  3400               	retlw	0
   883  0ACF  3400               	retlw	0
   884  0AD0  3400               	retlw	0
   885  0AD1  3403               	retlw	3
   886  0AD2  340F               	retlw	15
   887  0AD3  343F               	retlw	63
   888  0AD4  34FF               	retlw	255
   889  0AD5  34FF               	retlw	255
   890  0AD6  34FF               	retlw	255
   891  0AD7  34E7               	retlw	231
   892  0AD8  341F               	retlw	31
   893  0AD9  347F               	retlw	127
   894  0ADA  34FF               	retlw	255
   895  0ADB  34FF               	retlw	255
   896  0ADC  34F3               	retlw	243
   897  0ADD  34CF               	retlw	207
   898  0ADE  343F               	retlw	63
   899  0ADF  34FF               	retlw	255
   900  0AE0  34FE               	retlw	254
   901  0AE1  34F8               	retlw	248
   902  0AE2  34E3               	retlw	227
   903  0AE3  349F               	retlw	159
   904  0AE4  347F               	retlw	127
   905  0AE5  34FF               	retlw	255
   906  0AE6  34FC               	retlw	252
   907  0AE7  34FF               	retlw	255
   908  0AE8  34DF               	retlw	223
   909  0AE9  341F               	retlw	31
   910  0AEA  340F               	retlw	15
   911  0AEB  340E               	retlw	14
   912  0AEC  34C3               	retlw	195
   913  0AED  34CF               	retlw	207
   914  0AEE  343F               	retlw	63
   915  0AEF  34FF               	retlw	255
   916  0AF0  34FE               	retlw	254
   917  0AF1  34F9               	retlw	249
   918  0AF2  34C7               	retlw	199
   919  0AF3  341F               	retlw	31
   920  0AF4  347F               	retlw	127
   921  0AF5  34FF               	retlw	255
   922  0AF6  34FF               	retlw	255
   923  0AF7  34F3               	retlw	243
   924  0AF8  3483               	retlw	131
   925  0AF9  3403               	retlw	3
   926  0AFA  3421               	retlw	33
   927  0AFB  34E7               	retlw	231
   928  0AFC  34DF               	retlw	223
   929  0AFD  34FF               	retlw	255
   930  0AFE  34FC               	retlw	252
   931  0AFF  34F0               	retlw	240
   932  0B00  34C0               	retlw	192
   933  0B01  3400               	retlw	0
   934  0B02  3400               	retlw	0
   935  0B03  3400               	retlw	0
   936  0B04  3400               	retlw	0
   937  0B05  3400               	retlw	0
   938  0B06  3400               	retlw	0
   939  0B07  3400               	retlw	0
   940  0B08  3400               	retlw	0
   941  0B09  3400               	retlw	0
   942  0B0A  3400               	retlw	0
   943  0B0B  3400               	retlw	0
   944  0B0C  3400               	retlw	0
   945  0B0D  3400               	retlw	0
   946  0B0E  3400               	retlw	0
   947  0B0F  3400               	retlw	0
   948  0B10  3401               	retlw	1
   949  0B11  3403               	retlw	3
   950  0B12  340F               	retlw	15
   951  0B13  343F               	retlw	63
   952  0B14  34FE               	retlw	254
   953  0B15  34F8               	retlw	248
   954  0B16  34E0               	retlw	224
   955  0B17  3480               	retlw	128
   956  0B18  3401               	retlw	1
   957  0B19  3407               	retlw	7
   958  0B1A  341F               	retlw	31
   959  0B1B  34FF               	retlw	255
   960  0B1C  34FE               	retlw	254
   961  0B1D  34F8               	retlw	248
   962  0B1E  34E0               	retlw	224
   963  0B1F  3480               	retlw	128
   964  0B20  3400               	retlw	0
   965  0B21  3404               	retlw	4
   966  0B22  341C               	retlw	28
   967  0B23  34F8               	retlw	248
   968  0B24  34F0               	retlw	240
   969  0B25  3480               	retlw	128
   970  0B26  3400               	retlw	0
   971  0B27  3400               	retlw	0
   972  0B28  3401               	retlw	1
   973  0B29  3403               	retlw	3
   974  0B2A  340F               	retlw	15
   975  0B2B  343F               	retlw	63
   976  0B2C  34FF               	retlw	255
   977  0B2D  34FE               	retlw	254
   978  0B2E  34F9               	retlw	249
   979  0B2F  34E7               	retlw	231
   980  0B30  349F               	retlw	159
   981  0B31  347F               	retlw	127
   982  0B32  347F               	retlw	127
   983  0B33  347C               	retlw	124
   984  0B34  3471               	retlw	113
   985  0B35  3407               	retlw	7
   986  0B36  343F               	retlw	63
   987  0B37  343F               	retlw	63
   988  0B38  341E               	retlw	30
   989  0B39  341D               	retlw	29
   990  0B3A  3401               	retlw	1
   991  0B3B  3403               	retlw	3
   992  0B3C  3407               	retlw	7
   993  0B3D  340F               	retlw	15
   994  0B3E  340E               	retlw	14
   995  0B3F  340E               	retlw	14
   996  0B40  340C               	retlw	12
   997  0B41  340F               	retlw	15
   998  0B42  340F               	retlw	15
   999  0B43  3400               	retlw	0
  1000  0B44  3401               	retlw	1
  1001  0B45  3403               	retlw	3
  1002  0B46  3407               	retlw	7
  1003  0B47  340F               	retlw	15
  1004  0B48  340E               	retlw	14
  1005  0B49  340F               	retlw	15
  1006  0B4A  3407               	retlw	7
  1007  0B4B  3403               	retlw	3
  1008  0B4C  3407               	retlw	7
  1009  0B4D  340E               	retlw	14
  1010  0B4E  341E               	retlw	30
  1011  0B4F  343D               	retlw	61
  1012  0B50  343F               	retlw	63
  1013  0B51  343F               	retlw	63
  1014  0B52  3419               	retlw	25
  1015  0B53  3407               	retlw	7
  1016  0B54  341F               	retlw	31
  1017  0B55  347F               	retlw	127
  1018  0B56  347E               	retlw	126
  1019  0B57  3478               	retlw	120
  1020  0B58  34C0               	retlw	192
  1021  0B59  3400               	retlw	0
  1022  0B5A  3400               	retlw	0
  1023  0B5B  3400               	retlw	0
  1024  0B5C  3400               	retlw	0
  1025  0B5D  3400               	retlw	0
  1026  0B5E  3400               	retlw	0
  1027  0B5F  3400               	retlw	0
  1028  0B60  3400               	retlw	0
  1029  0B61  3400               	retlw	0
  1030  0B62  3400               	retlw	0
  1031  0B63  3400               	retlw	0
  1032  0B64  3400               	retlw	0
  1033  0B65  3400               	retlw	0
  1034  0B66  3400               	retlw	0
  1035  0B67  3400               	retlw	0
  1036  0B68  3400               	retlw	0
  1037  0B69  3403               	retlw	3
  1038  0B6A  340F               	retlw	15
  1039  0B6B  343F               	retlw	63
  1040  0B6C  34FE               	retlw	254
  1041  0B6D  34F8               	retlw	248
  1042  0B6E  34F0               	retlw	240
  1043  0B6F  3480               	retlw	128
  1044  0B70  3401               	retlw	1
  1045  0B71  3407               	retlw	7
  1046  0B72  340F               	retlw	15
  1047  0B73  349F               	retlw	159
  1048  0B74  34FF               	retlw	255
  1049  0B75  347C               	retlw	124
  1050  0B76  34F8               	retlw	248
  1051  0B77  34F0               	retlw	240
  1052  0B78  34F7               	retlw	247
  1053  0B79  34FF               	retlw	255
  1054  0B7A  347E               	retlw	126
  1055  0B7B  3400               	retlw	0
  1056  0B7C  3400               	retlw	0
  1057  0B7D  3400               	retlw	0
  1058  0B7E  3400               	retlw	0
  1059  0B7F  3400               	retlw	0
  1060  0B80  3400               	retlw	0
  1061  0B81  3401               	retlw	1
  1062  0B82  3401               	retlw	1
  1063  0B83  3400               	retlw	0
  1064  0B84  3400               	retlw	0
  1065  0B85  3400               	retlw	0
  1066  0B86  3400               	retlw	0
  1067  0B87  3400               	retlw	0
  1068  0B88  3400               	retlw	0
  1069  0B89  3400               	retlw	0
  1070  0B8A  3400               	retlw	0
  1071  0B8B  3400               	retlw	0
  1072  0B8C  3400               	retlw	0
  1073  0B8D  3400               	retlw	0
  1074  0B8E  3400               	retlw	0
  1075  0B8F  3400               	retlw	0
  1076  0B90  3400               	retlw	0
  1077  0B91  3400               	retlw	0
  1078  0B92  3400               	retlw	0
  1079  0B93  3400               	retlw	0
  1080  0B94  3400               	retlw	0
  1081  0B95  3400               	retlw	0
  1082  0B96  3400               	retlw	0
  1083  0B97  3400               	retlw	0
  1084  0B98  3400               	retlw	0
  1085  0B99  3400               	retlw	0
  1086  0B9A  3400               	retlw	0
  1087  0B9B  3400               	retlw	0
  1088  0B9C  3400               	retlw	0
  1089  0B9D  3400               	retlw	0
  1090  0B9E  3400               	retlw	0
  1091  0B9F  3400               	retlw	0
  1092  0BA0  3400               	retlw	0
  1093  0BA1  3400               	retlw	0
  1094  0BA2  3400               	retlw	0
  1095  0BA3  3400               	retlw	0
  1096  0BA4  3400               	retlw	0
  1097  0BA5  3400               	retlw	0
  1098  0BA6  3400               	retlw	0
  1099  0BA7  3400               	retlw	0
  1100  0BA8  3400               	retlw	0
  1101  0BA9  3400               	retlw	0
  1102  0BAA  3400               	retlw	0
  1103  0BAB  3400               	retlw	0
  1104  0BAC  3400               	retlw	0
  1105  0BAD  3400               	retlw	0
  1106  0BAE  3400               	retlw	0
  1107  0BAF  3400               	retlw	0
  1108  0BB0  3400               	retlw	0
  1109  0BB1  3400               	retlw	0
  1110  0BB2  3400               	retlw	0
  1111  0BB3  3400               	retlw	0
  1112  0BB4  3400               	retlw	0
  1113  0BB5  3400               	retlw	0
  1114  0BB6  3400               	retlw	0
  1115  0BB7  3400               	retlw	0
  1116  0BB8  3400               	retlw	0
  1117  0BB9  3400               	retlw	0
  1118  0BBA  3400               	retlw	0
  1119  0BBB  3400               	retlw	0
  1120  0BBC  3400               	retlw	0
  1121  0BBD  3400               	retlw	0
  1122  0BBE  3400               	retlw	0
  1123  0BBF  3400               	retlw	0
  1124  0BC0  3400               	retlw	0
  1125  0BC1  3403               	retlw	3
  1126  0BC2  340F               	retlw	15
  1127  0BC3  343F               	retlw	63
  1128  0BC4  34FE               	retlw	254
  1129  0BC5  34FE               	retlw	254
  1130  0BC6  347F               	retlw	127
  1131  0BC7  343F               	retlw	63
  1132  0BC8  341F               	retlw	31
  1133  0BC9  340C               	retlw	12
  1134  0BCA  3400               	retlw	0
  1135  0BCB  3400               	retlw	0
  1136  0BCC  3400               	retlw	0
  1137  0BCD  3400               	retlw	0
  1138  0BCE  3400               	retlw	0
  1139  0BCF  3400               	retlw	0
  1140  0BD0  3400               	retlw	0
  1141  0BD1  3400               	retlw	0
  1142  0BD2  3400               	retlw	0
  1143  0BD3  3400               	retlw	0
  1144  0BD4  3400               	retlw	0
  1145  0BD5  3400               	retlw	0
  1146  0BD6  3400               	retlw	0
  1147  0BD7  3400               	retlw	0
  1148  0BD8  3400               	retlw	0
  1149  0BD9  3400               	retlw	0
  1150  0BDA  3400               	retlw	0
  1151  0BDB  3400               	retlw	0
  1152  0BDC  3400               	retlw	0
  1153  0BDD  3400               	retlw	0
  1154  0BDE  3400               	retlw	0
  1155  0BDF  3400               	retlw	0
  1156  0BE0  3400               	retlw	0
  1157  0BE1  3400               	retlw	0
  1158  0BE2  3400               	retlw	0
  1159  0BE3  3400               	retlw	0
  1160  0BE4  3400               	retlw	0
  1161  0BE5  3400               	retlw	0
  1162  0BE6  3400               	retlw	0
  1163  0BE7  3400               	retlw	0
  1164  0BE8  3400               	retlw	0
  1165  0BE9  3400               	retlw	0
  1166  0BEA  3400               	retlw	0
  1167  0BEB  3400               	retlw	0
  1168  0BEC  3400               	retlw	0
  1169  0BED  3400               	retlw	0
  1170  0BEE  3400               	retlw	0
  1171  0BEF  3400               	retlw	0
  1172  0BF0  3400               	retlw	0
  1173  0BF1  3400               	retlw	0
  1174  0BF2  3400               	retlw	0
  1175  0BF3  3400               	retlw	0
  1176  0BF4  3400               	retlw	0
  1177  0BF5  3400               	retlw	0
  1178  0BF6  3400               	retlw	0
  1179  0BF7  3400               	retlw	0
  1180  0BF8  3400               	retlw	0
  1181  0BF9  3400               	retlw	0
  1182  0BFA  3400               	retlw	0
  1183  0BFB  3400               	retlw	0
  1184  0BFC  3400               	retlw	0
  1185  0BFD  3400               	retlw	0
  1186  0BFE  3400               	retlw	0
  1187  0BFF  3400               	retlw	0
  1188  0C00  3400               	retlw	0
  1189  0C01  3400               	retlw	0
  1190  0C02                     __end_ofdisplay@logo_image:	
  1191  0C02                     _lcd_font:	
  1192  0C02  3400               	retlw	0
  1193  0C03  3400               	retlw	0
  1194  0C04  3400               	retlw	0
  1195  0C05  3400               	retlw	0
  1196  0C06  3400               	retlw	0
  1197  0C07  3400               	retlw	0
  1198  0C08  3400               	retlw	0
  1199  0C09  342F               	retlw	47
  1200  0C0A  3400               	retlw	0
  1201  0C0B  3400               	retlw	0
  1202  0C0C  3400               	retlw	0
  1203  0C0D  3407               	retlw	7
  1204  0C0E  3400               	retlw	0
  1205  0C0F  3407               	retlw	7
  1206  0C10  3400               	retlw	0
  1207  0C11  3414               	retlw	20
  1208  0C12  347F               	retlw	127
  1209  0C13  3414               	retlw	20
  1210  0C14  347F               	retlw	127
  1211  0C15  3414               	retlw	20
  1212  0C16  3424               	retlw	36
  1213  0C17  342A               	retlw	42
  1214  0C18  347F               	retlw	127
  1215  0C19  342A               	retlw	42
  1216  0C1A  3412               	retlw	18
  1217  0C1B  3423               	retlw	35
  1218  0C1C  3413               	retlw	19
  1219  0C1D  3408               	retlw	8
  1220  0C1E  3464               	retlw	100
  1221  0C1F  3462               	retlw	98
  1222  0C20  3436               	retlw	54
  1223  0C21  3449               	retlw	73
  1224  0C22  3455               	retlw	85
  1225  0C23  3422               	retlw	34
  1226  0C24  3450               	retlw	80
  1227  0C25  3400               	retlw	0
  1228  0C26  3405               	retlw	5
  1229  0C27  3403               	retlw	3
  1230  0C28  3400               	retlw	0
  1231  0C29  3400               	retlw	0
  1232  0C2A  3400               	retlw	0
  1233  0C2B  341C               	retlw	28
  1234  0C2C  3422               	retlw	34
  1235  0C2D  3441               	retlw	65
  1236  0C2E  3400               	retlw	0
  1237  0C2F  3400               	retlw	0
  1238  0C30  3441               	retlw	65
  1239  0C31  3422               	retlw	34
  1240  0C32  341C               	retlw	28
  1241  0C33  3400               	retlw	0
  1242  0C34  3414               	retlw	20
  1243  0C35  3408               	retlw	8
  1244  0C36  343E               	retlw	62
  1245  0C37  3408               	retlw	8
  1246  0C38  3414               	retlw	20
  1247  0C39  3408               	retlw	8
  1248  0C3A  3408               	retlw	8
  1249  0C3B  343E               	retlw	62
  1250  0C3C  3408               	retlw	8
  1251  0C3D  3408               	retlw	8
  1252  0C3E  3400               	retlw	0
  1253  0C3F  3400               	retlw	0
  1254  0C40  3450               	retlw	80
  1255  0C41  3430               	retlw	48
  1256  0C42  3400               	retlw	0
  1257  0C43  3410               	retlw	16
  1258  0C44  3410               	retlw	16
  1259  0C45  3410               	retlw	16
  1260  0C46  3410               	retlw	16
  1261  0C47  3410               	retlw	16
  1262  0C48  3400               	retlw	0
  1263  0C49  3460               	retlw	96
  1264  0C4A  3460               	retlw	96
  1265  0C4B  3400               	retlw	0
  1266  0C4C  3400               	retlw	0
  1267  0C4D  3420               	retlw	32
  1268  0C4E  3410               	retlw	16
  1269  0C4F  3408               	retlw	8
  1270  0C50  3404               	retlw	4
  1271  0C51  3402               	retlw	2
  1272  0C52  343E               	retlw	62
  1273  0C53  3451               	retlw	81
  1274  0C54  3449               	retlw	73
  1275  0C55  3445               	retlw	69
  1276  0C56  343E               	retlw	62
  1277  0C57  3400               	retlw	0
  1278  0C58  3442               	retlw	66
  1279  0C59  347F               	retlw	127
  1280  0C5A  3440               	retlw	64
  1281  0C5B  3400               	retlw	0
  1282  0C5C  3442               	retlw	66
  1283  0C5D  3461               	retlw	97
  1284  0C5E  3451               	retlw	81
  1285  0C5F  3449               	retlw	73
  1286  0C60  3446               	retlw	70
  1287  0C61  3421               	retlw	33
  1288  0C62  3441               	retlw	65
  1289  0C63  3445               	retlw	69
  1290  0C64  344B               	retlw	75
  1291  0C65  3431               	retlw	49
  1292  0C66  3418               	retlw	24
  1293  0C67  3414               	retlw	20
  1294  0C68  3412               	retlw	18
  1295  0C69  347F               	retlw	127
  1296  0C6A  3410               	retlw	16
  1297  0C6B  3427               	retlw	39
  1298  0C6C  3445               	retlw	69
  1299  0C6D  3445               	retlw	69
  1300  0C6E  3445               	retlw	69
  1301  0C6F  3439               	retlw	57
  1302  0C70  343C               	retlw	60
  1303  0C71  344A               	retlw	74
  1304  0C72  3449               	retlw	73
  1305  0C73  3449               	retlw	73
  1306  0C74  3430               	retlw	48
  1307  0C75  3401               	retlw	1
  1308  0C76  3471               	retlw	113
  1309  0C77  3409               	retlw	9
  1310  0C78  3405               	retlw	5
  1311  0C79  3403               	retlw	3
  1312  0C7A  3436               	retlw	54
  1313  0C7B  3449               	retlw	73
  1314  0C7C  3449               	retlw	73
  1315  0C7D  3449               	retlw	73
  1316  0C7E  3436               	retlw	54
  1317  0C7F  3406               	retlw	6
  1318  0C80  3449               	retlw	73
  1319  0C81  3449               	retlw	73
  1320  0C82  3429               	retlw	41
  1321  0C83  341E               	retlw	30
  1322  0C84  3400               	retlw	0
  1323  0C85  3436               	retlw	54
  1324  0C86  3436               	retlw	54
  1325  0C87  3400               	retlw	0
  1326  0C88  3400               	retlw	0
  1327  0C89  3400               	retlw	0
  1328  0C8A  3456               	retlw	86
  1329  0C8B  3436               	retlw	54
  1330  0C8C  3400               	retlw	0
  1331  0C8D  3400               	retlw	0
  1332  0C8E  3408               	retlw	8
  1333  0C8F  3414               	retlw	20
  1334  0C90  3422               	retlw	34
  1335  0C91  3441               	retlw	65
  1336  0C92  3400               	retlw	0
  1337  0C93  3414               	retlw	20
  1338  0C94  3414               	retlw	20
  1339  0C95  3414               	retlw	20
  1340  0C96  3414               	retlw	20
  1341  0C97  3414               	retlw	20
  1342  0C98  3400               	retlw	0
  1343  0C99  3441               	retlw	65
  1344  0C9A  3422               	retlw	34
  1345  0C9B  3414               	retlw	20
  1346  0C9C  3408               	retlw	8
  1347  0C9D  3402               	retlw	2
  1348  0C9E  3401               	retlw	1
  1349  0C9F  3451               	retlw	81
  1350  0CA0  3409               	retlw	9
  1351  0CA1  3406               	retlw	6
  1352  0CA2  3432               	retlw	50
  1353  0CA3  3449               	retlw	73
  1354  0CA4  3459               	retlw	89
  1355  0CA5  3451               	retlw	81
  1356  0CA6  343E               	retlw	62
  1357  0CA7  347E               	retlw	126
  1358  0CA8  3411               	retlw	17
  1359  0CA9  3411               	retlw	17
  1360  0CAA  3411               	retlw	17
  1361  0CAB  347E               	retlw	126
  1362  0CAC  347F               	retlw	127
  1363  0CAD  3449               	retlw	73
  1364  0CAE  3449               	retlw	73
  1365  0CAF  3449               	retlw	73
  1366  0CB0  3436               	retlw	54
  1367  0CB1  343E               	retlw	62
  1368  0CB2  3441               	retlw	65
  1369  0CB3  3441               	retlw	65
  1370  0CB4  3441               	retlw	65
  1371  0CB5  3422               	retlw	34
  1372  0CB6  347F               	retlw	127
  1373  0CB7  3441               	retlw	65
  1374  0CB8  3441               	retlw	65
  1375  0CB9  3422               	retlw	34
  1376  0CBA  341C               	retlw	28
  1377  0CBB  347F               	retlw	127
  1378  0CBC  3449               	retlw	73
  1379  0CBD  3449               	retlw	73
  1380  0CBE  3449               	retlw	73
  1381  0CBF  3441               	retlw	65
  1382  0CC0  347F               	retlw	127
  1383  0CC1  3409               	retlw	9
  1384  0CC2  3409               	retlw	9
  1385  0CC3  3409               	retlw	9
  1386  0CC4  3401               	retlw	1
  1387  0CC5  343E               	retlw	62
  1388  0CC6  3441               	retlw	65
  1389  0CC7  3449               	retlw	73
  1390  0CC8  3449               	retlw	73
  1391  0CC9  347A               	retlw	122
  1392  0CCA  347F               	retlw	127
  1393  0CCB  3408               	retlw	8
  1394  0CCC  3408               	retlw	8
  1395  0CCD  3408               	retlw	8
  1396  0CCE  347F               	retlw	127
  1397  0CCF  3400               	retlw	0
  1398  0CD0  3441               	retlw	65
  1399  0CD1  347F               	retlw	127
  1400  0CD2  3441               	retlw	65
  1401  0CD3  3400               	retlw	0
  1402  0CD4  3420               	retlw	32
  1403  0CD5  3440               	retlw	64
  1404  0CD6  3441               	retlw	65
  1405  0CD7  343F               	retlw	63
  1406  0CD8  3401               	retlw	1
  1407  0CD9  347F               	retlw	127
  1408  0CDA  3408               	retlw	8
  1409  0CDB  3414               	retlw	20
  1410  0CDC  3422               	retlw	34
  1411  0CDD  3441               	retlw	65
  1412  0CDE  347F               	retlw	127
  1413  0CDF  3440               	retlw	64
  1414  0CE0  3440               	retlw	64
  1415  0CE1  3440               	retlw	64
  1416  0CE2  3440               	retlw	64
  1417  0CE3  347F               	retlw	127
  1418  0CE4  3402               	retlw	2
  1419  0CE5  340C               	retlw	12
  1420  0CE6  3402               	retlw	2
  1421  0CE7  347F               	retlw	127
  1422  0CE8  347F               	retlw	127
  1423  0CE9  3404               	retlw	4
  1424  0CEA  3408               	retlw	8
  1425  0CEB  3410               	retlw	16
  1426  0CEC  347F               	retlw	127
  1427  0CED  343E               	retlw	62
  1428  0CEE  3441               	retlw	65
  1429  0CEF  3441               	retlw	65
  1430  0CF0  3441               	retlw	65
  1431  0CF1  343E               	retlw	62
  1432  0CF2  347F               	retlw	127
  1433  0CF3  3409               	retlw	9
  1434  0CF4  3409               	retlw	9
  1435  0CF5  3409               	retlw	9
  1436  0CF6  3406               	retlw	6
  1437  0CF7  343E               	retlw	62
  1438  0CF8  3441               	retlw	65
  1439  0CF9  3451               	retlw	81
  1440  0CFA  3421               	retlw	33
  1441  0CFB  345E               	retlw	94
  1442  0CFC  347F               	retlw	127
  1443  0CFD  3409               	retlw	9
  1444  0CFE  3419               	retlw	25
  1445  0CFF  3429               	retlw	41
  1446  0D00  3446               	retlw	70
  1447  0D01  3446               	retlw	70
  1448  0D02  3449               	retlw	73
  1449  0D03  3449               	retlw	73
  1450  0D04  3449               	retlw	73
  1451  0D05  3431               	retlw	49
  1452  0D06  3401               	retlw	1
  1453  0D07  3401               	retlw	1
  1454  0D08  347F               	retlw	127
  1455  0D09  3401               	retlw	1
  1456  0D0A  3401               	retlw	1
  1457  0D0B  343F               	retlw	63
  1458  0D0C  3440               	retlw	64
  1459  0D0D  3440               	retlw	64
  1460  0D0E  3440               	retlw	64
  1461  0D0F  343F               	retlw	63
  1462  0D10  341F               	retlw	31
  1463  0D11  3420               	retlw	32
  1464  0D12  3440               	retlw	64
  1465  0D13  3420               	retlw	32
  1466  0D14  341F               	retlw	31
  1467  0D15  343F               	retlw	63
  1468  0D16  3440               	retlw	64
  1469  0D17  3438               	retlw	56
  1470  0D18  3440               	retlw	64
  1471  0D19  343F               	retlw	63
  1472  0D1A  3463               	retlw	99
  1473  0D1B  3414               	retlw	20
  1474  0D1C  3408               	retlw	8
  1475  0D1D  3414               	retlw	20
  1476  0D1E  3463               	retlw	99
  1477  0D1F  3407               	retlw	7
  1478  0D20  3408               	retlw	8
  1479  0D21  3470               	retlw	112
  1480  0D22  3408               	retlw	8
  1481  0D23  3407               	retlw	7
  1482  0D24  3461               	retlw	97
  1483  0D25  3451               	retlw	81
  1484  0D26  3449               	retlw	73
  1485  0D27  3445               	retlw	69
  1486  0D28  3443               	retlw	67
  1487  0D29  3400               	retlw	0
  1488  0D2A  347F               	retlw	127
  1489  0D2B  3441               	retlw	65
  1490  0D2C  3441               	retlw	65
  1491  0D2D  3400               	retlw	0
  1492  0D2E  3455               	retlw	85
  1493  0D2F  342A               	retlw	42
  1494  0D30  3455               	retlw	85
  1495  0D31  342A               	retlw	42
  1496  0D32  3455               	retlw	85
  1497  0D33  3400               	retlw	0
  1498  0D34  3441               	retlw	65
  1499  0D35  3441               	retlw	65
  1500  0D36  347F               	retlw	127
  1501  0D37  3400               	retlw	0
  1502  0D38  3404               	retlw	4
  1503  0D39  3402               	retlw	2
  1504  0D3A  3401               	retlw	1
  1505  0D3B  3402               	retlw	2
  1506  0D3C  3404               	retlw	4
  1507  0D3D  3440               	retlw	64
  1508  0D3E  3440               	retlw	64
  1509  0D3F  3440               	retlw	64
  1510  0D40  3440               	retlw	64
  1511  0D41  3440               	retlw	64
  1512  0D42  3400               	retlw	0
  1513  0D43  3401               	retlw	1
  1514  0D44  3402               	retlw	2
  1515  0D45  3404               	retlw	4
  1516  0D46  3400               	retlw	0
  1517  0D47  3420               	retlw	32
  1518  0D48  3454               	retlw	84
  1519  0D49  3454               	retlw	84
  1520  0D4A  3454               	retlw	84
  1521  0D4B  3478               	retlw	120
  1522  0D4C  347F               	retlw	127
  1523  0D4D  3448               	retlw	72
  1524  0D4E  3444               	retlw	68
  1525  0D4F  3444               	retlw	68
  1526  0D50  3438               	retlw	56
  1527  0D51  3438               	retlw	56
  1528  0D52  3444               	retlw	68
  1529  0D53  3444               	retlw	68
  1530  0D54  3444               	retlw	68
  1531  0D55  3420               	retlw	32
  1532  0D56  3438               	retlw	56
  1533  0D57  3444               	retlw	68
  1534  0D58  3444               	retlw	68
  1535  0D59  3448               	retlw	72
  1536  0D5A  347F               	retlw	127
  1537  0D5B  3438               	retlw	56
  1538  0D5C  3454               	retlw	84
  1539  0D5D  3454               	retlw	84
  1540  0D5E  3454               	retlw	84
  1541  0D5F  3418               	retlw	24
  1542  0D60  3408               	retlw	8
  1543  0D61  347E               	retlw	126
  1544  0D62  3409               	retlw	9
  1545  0D63  3401               	retlw	1
  1546  0D64  3402               	retlw	2
  1547  0D65  340C               	retlw	12
  1548  0D66  3452               	retlw	82
  1549  0D67  3452               	retlw	82
  1550  0D68  3452               	retlw	82
  1551  0D69  343E               	retlw	62
  1552  0D6A  347F               	retlw	127
  1553  0D6B  3408               	retlw	8
  1554  0D6C  3404               	retlw	4
  1555  0D6D  3404               	retlw	4
  1556  0D6E  3478               	retlw	120
  1557  0D6F  3400               	retlw	0
  1558  0D70  3444               	retlw	68
  1559  0D71  347D               	retlw	125
  1560  0D72  3440               	retlw	64
  1561  0D73  3400               	retlw	0
  1562  0D74  3420               	retlw	32
  1563  0D75  3440               	retlw	64
  1564  0D76  3444               	retlw	68
  1565  0D77  343D               	retlw	61
  1566  0D78  3400               	retlw	0
  1567  0D79  347F               	retlw	127
  1568  0D7A  3410               	retlw	16
  1569  0D7B  3428               	retlw	40
  1570  0D7C  3444               	retlw	68
  1571  0D7D  3400               	retlw	0
  1572  0D7E  3400               	retlw	0
  1573  0D7F  3441               	retlw	65
  1574  0D80  347F               	retlw	127
  1575  0D81  3440               	retlw	64
  1576  0D82  3400               	retlw	0
  1577  0D83  347C               	retlw	124
  1578  0D84  3404               	retlw	4
  1579  0D85  3418               	retlw	24
  1580  0D86  3404               	retlw	4
  1581  0D87  3478               	retlw	120
  1582  0D88  347C               	retlw	124
  1583  0D89  3408               	retlw	8
  1584  0D8A  3404               	retlw	4
  1585  0D8B  3404               	retlw	4
  1586  0D8C  3478               	retlw	120
  1587  0D8D  3438               	retlw	56
  1588  0D8E  3444               	retlw	68
  1589  0D8F  3444               	retlw	68
  1590  0D90  3444               	retlw	68
  1591  0D91  3438               	retlw	56
  1592  0D92  347C               	retlw	124
  1593  0D93  3414               	retlw	20
  1594  0D94  3414               	retlw	20
  1595  0D95  3414               	retlw	20
  1596  0D96  3408               	retlw	8
  1597  0D97  3408               	retlw	8
  1598  0D98  3414               	retlw	20
  1599  0D99  3414               	retlw	20
  1600  0D9A  3418               	retlw	24
  1601  0D9B  347C               	retlw	124
  1602  0D9C  347C               	retlw	124
  1603  0D9D  3408               	retlw	8
  1604  0D9E  3404               	retlw	4
  1605  0D9F  3404               	retlw	4
  1606  0DA0  3408               	retlw	8
  1607  0DA1  3448               	retlw	72
  1608  0DA2  3454               	retlw	84
  1609  0DA3  3454               	retlw	84
  1610  0DA4  3454               	retlw	84
  1611  0DA5  3420               	retlw	32
  1612  0DA6  3404               	retlw	4
  1613  0DA7  343F               	retlw	63
  1614  0DA8  3444               	retlw	68
  1615  0DA9  3440               	retlw	64
  1616  0DAA  3420               	retlw	32
  1617  0DAB  343C               	retlw	60
  1618  0DAC  3440               	retlw	64
  1619  0DAD  3440               	retlw	64
  1620  0DAE  3420               	retlw	32
  1621  0DAF  347C               	retlw	124
  1622  0DB0  341C               	retlw	28
  1623  0DB1  3420               	retlw	32
  1624  0DB2  3440               	retlw	64
  1625  0DB3  3420               	retlw	32
  1626  0DB4  341C               	retlw	28
  1627  0DB5  343C               	retlw	60
  1628  0DB6  3440               	retlw	64
  1629  0DB7  3430               	retlw	48
  1630  0DB8  3440               	retlw	64
  1631  0DB9  343C               	retlw	60
  1632  0DBA  3444               	retlw	68
  1633  0DBB  3428               	retlw	40
  1634  0DBC  3410               	retlw	16
  1635  0DBD  3428               	retlw	40
  1636  0DBE  3444               	retlw	68
  1637  0DBF  340C               	retlw	12
  1638  0DC0  3450               	retlw	80
  1639  0DC1  3450               	retlw	80
  1640  0DC2  3450               	retlw	80
  1641  0DC3  343C               	retlw	60
  1642  0DC4  3444               	retlw	68
  1643  0DC5  3464               	retlw	100
  1644  0DC6  3454               	retlw	84
  1645  0DC7  344C               	retlw	76
  1646  0DC8  3444               	retlw	68
  1647  0DC9                     __end_of_lcd_font:	
  1648  0DC9                     _units:	
  1649  0DC9  3400               	retlw	0
  1650  0DCA  3400               	retlw	0
  1651  0DCB  3400               	retlw	0
  1652  0DCC  3400               	retlw	0
  1653  0DCD  3400               	retlw	0
  1654  0DCE  3400               	retlw	0
  1655  0DCF  3400               	retlw	0
  1656  0DD0  3400               	retlw	0
  1657  0DD1  3400               	retlw	0
  1658  0DD2  3400               	retlw	0
  1659  0DD3  3400               	retlw	0
  1660  0DD4  34FC               	retlw	252
  1661  0DD5  34FC               	retlw	252
  1662  0DD6  34C0               	retlw	192
  1663  0DD7  34C0               	retlw	192
  1664  0DD8  34C0               	retlw	192
  1665  0DD9  34FC               	retlw	252
  1666  0DDA  34FC               	retlw	252
  1667  0DDB  3400               	retlw	0
  1668  0DDC  3400               	retlw	0
  1669  0DDD  3400               	retlw	0
  1670  0DDE  3400               	retlw	0
  1671  0DDF  3400               	retlw	0
  1672  0DE0  3400               	retlw	0
  1673  0DE1  3400               	retlw	0
  1674  0DE2  3400               	retlw	0
  1675  0DE3  3400               	retlw	0
  1676  0DE4  3400               	retlw	0
  1677  0DE5  3400               	retlw	0
  1678  0DE6  341F               	retlw	31
  1679  0DE7  341F               	retlw	31
  1680  0DE8  3400               	retlw	0
  1681  0DE9  3400               	retlw	0
  1682  0DEA  3400               	retlw	0
  1683  0DEB  341F               	retlw	31
  1684  0DEC  341F               	retlw	31
  1685  0DED  34E0               	retlw	224
  1686  0DEE  34E0               	retlw	224
  1687  0DEF  34C0               	retlw	192
  1688  0DF0  3460               	retlw	96
  1689  0DF1  34E0               	retlw	224
  1690  0DF2  34E0               	retlw	224
  1691  0DF3  34C0               	retlw	192
  1692  0DF4  3460               	retlw	96
  1693  0DF5  34E0               	retlw	224
  1694  0DF6  34C0               	retlw	192
  1695  0DF7  3400               	retlw	0
  1696  0DF8  34FC               	retlw	252
  1697  0DF9  34FC               	retlw	252
  1698  0DFA  34C0               	retlw	192
  1699  0DFB  34C0               	retlw	192
  1700  0DFC  34C0               	retlw	192
  1701  0DFD  34FC               	retlw	252
  1702  0DFE  34FC               	retlw	252
  1703  0DFF  341F               	retlw	31
  1704  0E00  341F               	retlw	31
  1705  0E01  3400               	retlw	0
  1706  0E02  3400               	retlw	0
  1707  0E03  341F               	retlw	31
  1708  0E04  341F               	retlw	31
  1709  0E05  3400               	retlw	0
  1710  0E06  3400               	retlw	0
  1711  0E07  341F               	retlw	31
  1712  0E08  341F               	retlw	31
  1713  0E09  3400               	retlw	0
  1714  0E0A  341F               	retlw	31
  1715  0E0B  341F               	retlw	31
  1716  0E0C  3400               	retlw	0
  1717  0E0D  3400               	retlw	0
  1718  0E0E  3400               	retlw	0
  1719  0E0F  341F               	retlw	31
  1720  0E10  341F               	retlw	31
  1721  0E11  3400               	retlw	0
  1722  0E12  3400               	retlw	0
  1723  0E13  3400               	retlw	0
  1724  0E14  34E0               	retlw	224
  1725  0E15  34E0               	retlw	224
  1726  0E16  3400               	retlw	0
  1727  0E17  3400               	retlw	0
  1728  0E18  34E0               	retlw	224
  1729  0E19  34E0               	retlw	224
  1730  0E1A  3400               	retlw	0
  1731  0E1B  3400               	retlw	0
  1732  0E1C  34FC               	retlw	252
  1733  0E1D  34FC               	retlw	252
  1734  0E1E  34C0               	retlw	192
  1735  0E1F  34C0               	retlw	192
  1736  0E20  34C0               	retlw	192
  1737  0E21  34FC               	retlw	252
  1738  0E22  34FC               	retlw	252
  1739  0E23  3400               	retlw	0
  1740  0E24  3400               	retlw	0
  1741  0E25  3400               	retlw	0
  1742  0E26  34FF               	retlw	255
  1743  0E27  34FF               	retlw	255
  1744  0E28  3418               	retlw	24
  1745  0E29  3408               	retlw	8
  1746  0E2A  341F               	retlw	31
  1747  0E2B  341F               	retlw	31
  1748  0E2C  3400               	retlw	0
  1749  0E2D  3400               	retlw	0
  1750  0E2E  341F               	retlw	31
  1751  0E2F  341F               	retlw	31
  1752  0E30  3400               	retlw	0
  1753  0E31  3400               	retlw	0
  1754  0E32  3400               	retlw	0
  1755  0E33  341F               	retlw	31
  1756  0E34  341F               	retlw	31
  1757  0E35  3400               	retlw	0
  1758  0E36  3400               	retlw	0
  1759  0E37  3400               	retlw	0
  1760  0E38  34E0               	retlw	224
  1761  0E39  34E0               	retlw	224
  1762  0E3A  34C0               	retlw	192
  1763  0E3B  3460               	retlw	96
  1764  0E3C  34E0               	retlw	224
  1765  0E3D  34C0               	retlw	192
  1766  0E3E  3400               	retlw	0
  1767  0E3F  3400               	retlw	0
  1768  0E40  34FC               	retlw	252
  1769  0E41  34FC               	retlw	252
  1770  0E42  34C0               	retlw	192
  1771  0E43  34C0               	retlw	192
  1772  0E44  34C0               	retlw	192
  1773  0E45  34FC               	retlw	252
  1774  0E46  34FC               	retlw	252
  1775  0E47  3400               	retlw	0
  1776  0E48  3400               	retlw	0
  1777  0E49  3400               	retlw	0
  1778  0E4A  341F               	retlw	31
  1779  0E4B  341F               	retlw	31
  1780  0E4C  3400               	retlw	0
  1781  0E4D  3400               	retlw	0
  1782  0E4E  341F               	retlw	31
  1783  0E4F  341F               	retlw	31
  1784  0E50  3400               	retlw	0
  1785  0E51  3400               	retlw	0
  1786  0E52  341F               	retlw	31
  1787  0E53  341F               	retlw	31
  1788  0E54  3400               	retlw	0
  1789  0E55  3400               	retlw	0
  1790  0E56  3400               	retlw	0
  1791  0E57  341F               	retlw	31
  1792  0E58  341F               	retlw	31
  1793  0E59  34E0               	retlw	224
  1794  0E5A  34E0               	retlw	224
  1795  0E5B  34C0               	retlw	192
  1796  0E5C  3460               	retlw	96
  1797  0E5D  34E0               	retlw	224
  1798  0E5E  34E0               	retlw	224
  1799  0E5F  34C0               	retlw	192
  1800  0E60  3460               	retlw	96
  1801  0E61  34E0               	retlw	224
  1802  0E62  34C0               	retlw	192
  1803  0E63  3400               	retlw	0
  1804  0E64  3400               	retlw	0
  1805  0E65  34FC               	retlw	252
  1806  0E66  34FC               	retlw	252
  1807  0E67  34CC               	retlw	204
  1808  0E68  34CC               	retlw	204
  1809  0E69  34CC               	retlw	204
  1810  0E6A  340C               	retlw	12
  1811  0E6B  341F               	retlw	31
  1812  0E6C  341F               	retlw	31
  1813  0E6D  3400               	retlw	0
  1814  0E6E  3400               	retlw	0
  1815  0E6F  341F               	retlw	31
  1816  0E70  341F               	retlw	31
  1817  0E71  3400               	retlw	0
  1818  0E72  3400               	retlw	0
  1819  0E73  341F               	retlw	31
  1820  0E74  341F               	retlw	31
  1821  0E75  3400               	retlw	0
  1822  0E76  3400               	retlw	0
  1823  0E77  341F               	retlw	31
  1824  0E78  341F               	retlw	31
  1825  0E79  3400               	retlw	0
  1826  0E7A  3400               	retlw	0
  1827  0E7B  3400               	retlw	0
  1828  0E7C  3400               	retlw	0
  1829  0E7D  3400               	retlw	0
  1830  0E7E  3400               	retlw	0
  1831  0E7F  3400               	retlw	0
  1832  0E80  3400               	retlw	0
  1833  0E81  34E0               	retlw	224
  1834  0E82  34E0               	retlw	224
  1835  0E83  3400               	retlw	0
  1836  0E84  3400               	retlw	0
  1837  0E85  34E0               	retlw	224
  1838  0E86  34E0               	retlw	224
  1839  0E87  3400               	retlw	0
  1840  0E88  3400               	retlw	0
  1841  0E89  34FC               	retlw	252
  1842  0E8A  34FC               	retlw	252
  1843  0E8B  34CC               	retlw	204
  1844  0E8C  34CC               	retlw	204
  1845  0E8D  34CC               	retlw	204
  1846  0E8E  340C               	retlw	12
  1847  0E8F  3400               	retlw	0
  1848  0E90  3400               	retlw	0
  1849  0E91  3400               	retlw	0
  1850  0E92  3400               	retlw	0
  1851  0E93  34FF               	retlw	255
  1852  0E94  34FF               	retlw	255
  1853  0E95  3418               	retlw	24
  1854  0E96  3408               	retlw	8
  1855  0E97  341F               	retlw	31
  1856  0E98  341F               	retlw	31
  1857  0E99  3400               	retlw	0
  1858  0E9A  3400               	retlw	0
  1859  0E9B  341F               	retlw	31
  1860  0E9C  341F               	retlw	31
  1861  0E9D  3400               	retlw	0
  1862  0E9E  3400               	retlw	0
  1863  0E9F  3400               	retlw	0
  1864  0EA0  3400               	retlw	0
  1865  0EA1  3400               	retlw	0
  1866  0EA2  3400               	retlw	0
  1867  0EA3  3400               	retlw	0
  1868  0EA4  3400               	retlw	0
  1869  0EA5  34E0               	retlw	224
  1870  0EA6  34E0               	retlw	224
  1871  0EA7  34C0               	retlw	192
  1872  0EA8  3460               	retlw	96
  1873  0EA9  34E0               	retlw	224
  1874  0EAA  34C0               	retlw	192
  1875  0EAB  3400               	retlw	0
  1876  0EAC  3400               	retlw	0
  1877  0EAD  34FC               	retlw	252
  1878  0EAE  34FC               	retlw	252
  1879  0EAF  34CC               	retlw	204
  1880  0EB0  34CC               	retlw	204
  1881  0EB1  34CC               	retlw	204
  1882  0EB2  340C               	retlw	12
  1883  0EB3  3400               	retlw	0
  1884  0EB4  3400               	retlw	0
  1885  0EB5  3400               	retlw	0
  1886  0EB6  3400               	retlw	0
  1887  0EB7  341F               	retlw	31
  1888  0EB8  341F               	retlw	31
  1889  0EB9  3400               	retlw	0
  1890  0EBA  3400               	retlw	0
  1891  0EBB  341F               	retlw	31
  1892  0EBC  341F               	retlw	31
  1893  0EBD  3400               	retlw	0
  1894  0EBE  3400               	retlw	0
  1895  0EBF  341F               	retlw	31
  1896  0EC0  341F               	retlw	31
  1897  0EC1  3400               	retlw	0
  1898  0EC2  3400               	retlw	0
  1899  0EC3  3400               	retlw	0
  1900  0EC4  3400               	retlw	0
  1901  0EC5  3400               	retlw	0
  1902  0EC6  3400               	retlw	0
  1903  0EC7  3400               	retlw	0
  1904  0EC8  3400               	retlw	0
  1905  0EC9  34E0               	retlw	224
  1906  0ECA  34E0               	retlw	224
  1907  0ECB  3460               	retlw	96
  1908  0ECC  3460               	retlw	96
  1909  0ECD  34E0               	retlw	224
  1910  0ECE  34C0               	retlw	192
  1911  0ECF  3400               	retlw	0
  1912  0ED0  3400               	retlw	0
  1913  0ED1  34FC               	retlw	252
  1914  0ED2  34FC               	retlw	252
  1915  0ED3  34CC               	retlw	204
  1916  0ED4  34CC               	retlw	204
  1917  0ED5  34CC               	retlw	204
  1918  0ED6  340C               	retlw	12
  1919  0ED7  3400               	retlw	0
  1920  0ED8  3400               	retlw	0
  1921  0ED9  3400               	retlw	0
  1922  0EDA  3400               	retlw	0
  1923  0EDB  34FF               	retlw	255
  1924  0EDC  34FF               	retlw	255
  1925  0EDD  3418               	retlw	24
  1926  0EDE  3418               	retlw	24
  1927  0EDF  341F               	retlw	31
  1928  0EE0  3407               	retlw	7
  1929  0EE1  3400               	retlw	0
  1930  0EE2  3400               	retlw	0
  1931  0EE3  341F               	retlw	31
  1932  0EE4  341F               	retlw	31
  1933  0EE5  3400               	retlw	0
  1934  0EE6  3400               	retlw	0
  1935  0EE7  3400               	retlw	0
  1936  0EE8  3400               	retlw	0
  1937  0EE9                     __end_of_units:	
  1938  0EE9                     display@units:	
  1939  0EE9  3400               	retlw	0
  1940  0EEA  3400               	retlw	0
  1941  0EEB  3400               	retlw	0
  1942  0EEC  3400               	retlw	0
  1943  0EED  3400               	retlw	0
  1944  0EEE  3400               	retlw	0
  1945  0EEF  3400               	retlw	0
  1946  0EF0  3400               	retlw	0
  1947  0EF1  3400               	retlw	0
  1948  0EF2  3400               	retlw	0
  1949  0EF3  3400               	retlw	0
  1950  0EF4  34FC               	retlw	252
  1951  0EF5  34FC               	retlw	252
  1952  0EF6  34C0               	retlw	192
  1953  0EF7  34C0               	retlw	192
  1954  0EF8  34C0               	retlw	192
  1955  0EF9  34FC               	retlw	252
  1956  0EFA  34FC               	retlw	252
  1957  0EFB  3400               	retlw	0
  1958  0EFC  3400               	retlw	0
  1959  0EFD  3400               	retlw	0
  1960  0EFE  3400               	retlw	0
  1961  0EFF  3400               	retlw	0
  1962  0F00  3400               	retlw	0
  1963  0F01  3400               	retlw	0
  1964  0F02  3400               	retlw	0
  1965  0F03  3400               	retlw	0
  1966  0F04  3400               	retlw	0
  1967  0F05  3400               	retlw	0
  1968  0F06  341F               	retlw	31
  1969  0F07  341F               	retlw	31
  1970  0F08  3400               	retlw	0
  1971  0F09  3400               	retlw	0
  1972  0F0A  3400               	retlw	0
  1973  0F0B  341F               	retlw	31
  1974  0F0C  341F               	retlw	31
  1975  0F0D  34E0               	retlw	224
  1976  0F0E  34E0               	retlw	224
  1977  0F0F  34C0               	retlw	192
  1978  0F10  3460               	retlw	96
  1979  0F11  34E0               	retlw	224
  1980  0F12  34E0               	retlw	224
  1981  0F13  34C0               	retlw	192
  1982  0F14  3460               	retlw	96
  1983  0F15  34E0               	retlw	224
  1984  0F16  34C0               	retlw	192
  1985  0F17  3400               	retlw	0
  1986  0F18  34FC               	retlw	252
  1987  0F19  34FC               	retlw	252
  1988  0F1A  34C0               	retlw	192
  1989  0F1B  34C0               	retlw	192
  1990  0F1C  34C0               	retlw	192
  1991  0F1D  34FC               	retlw	252
  1992  0F1E  34FC               	retlw	252
  1993  0F1F  341F               	retlw	31
  1994  0F20  341F               	retlw	31
  1995  0F21  3400               	retlw	0
  1996  0F22  3400               	retlw	0
  1997  0F23  341F               	retlw	31
  1998  0F24  341F               	retlw	31
  1999  0F25  3400               	retlw	0
  2000  0F26  3400               	retlw	0
  2001  0F27  341F               	retlw	31
  2002  0F28  341F               	retlw	31
  2003  0F29  3400               	retlw	0
  2004  0F2A  341F               	retlw	31
  2005  0F2B  341F               	retlw	31
  2006  0F2C  3400               	retlw	0
  2007  0F2D  3400               	retlw	0
  2008  0F2E  3400               	retlw	0
  2009  0F2F  341F               	retlw	31
  2010  0F30  341F               	retlw	31
  2011  0F31  3400               	retlw	0
  2012  0F32  3400               	retlw	0
  2013  0F33  3400               	retlw	0
  2014  0F34  34E0               	retlw	224
  2015  0F35  34E0               	retlw	224
  2016  0F36  3400               	retlw	0
  2017  0F37  3400               	retlw	0
  2018  0F38  34E0               	retlw	224
  2019  0F39  34E0               	retlw	224
  2020  0F3A  3400               	retlw	0
  2021  0F3B  3400               	retlw	0
  2022  0F3C  34FC               	retlw	252
  2023  0F3D  34FC               	retlw	252
  2024  0F3E  34C0               	retlw	192
  2025  0F3F  34C0               	retlw	192
  2026  0F40  34C0               	retlw	192
  2027  0F41  34FC               	retlw	252
  2028  0F42  34FC               	retlw	252
  2029  0F43  3400               	retlw	0
  2030  0F44  3400               	retlw	0
  2031  0F45  3400               	retlw	0
  2032  0F46  34FF               	retlw	255
  2033  0F47  34FF               	retlw	255
  2034  0F48  3418               	retlw	24
  2035  0F49  3408               	retlw	8
  2036  0F4A  341F               	retlw	31
  2037  0F4B  341F               	retlw	31
  2038  0F4C  3400               	retlw	0
  2039  0F4D  3400               	retlw	0
  2040  0F4E  341F               	retlw	31
  2041  0F4F  341F               	retlw	31
  2042  0F50  3400               	retlw	0
  2043  0F51  3400               	retlw	0
  2044  0F52  3400               	retlw	0
  2045  0F53  341F               	retlw	31
  2046  0F54  341F               	retlw	31
  2047  0F55  3400               	retlw	0
  2048  0F56  3400               	retlw	0
  2049  0F57  3400               	retlw	0
  2050  0F58  34E0               	retlw	224
  2051  0F59  34E0               	retlw	224
  2052  0F5A  34C0               	retlw	192
  2053  0F5B  3460               	retlw	96
  2054  0F5C  34E0               	retlw	224
  2055  0F5D  34C0               	retlw	192
  2056  0F5E  3400               	retlw	0
  2057  0F5F  3400               	retlw	0
  2058  0F60  34FC               	retlw	252
  2059  0F61  34FC               	retlw	252
  2060  0F62  34C0               	retlw	192
  2061  0F63  34C0               	retlw	192
  2062  0F64  34C0               	retlw	192
  2063  0F65  34FC               	retlw	252
  2064  0F66  34FC               	retlw	252
  2065  0F67  3400               	retlw	0
  2066  0F68  3400               	retlw	0
  2067  0F69  3400               	retlw	0
  2068  0F6A  341F               	retlw	31
  2069  0F6B  341F               	retlw	31
  2070  0F6C  3400               	retlw	0
  2071  0F6D  3400               	retlw	0
  2072  0F6E  341F               	retlw	31
  2073  0F6F  341F               	retlw	31
  2074  0F70  3400               	retlw	0
  2075  0F71  3400               	retlw	0
  2076  0F72  341F               	retlw	31
  2077  0F73  341F               	retlw	31
  2078  0F74  3400               	retlw	0
  2079  0F75  3400               	retlw	0
  2080  0F76  3400               	retlw	0
  2081  0F77  341F               	retlw	31
  2082  0F78  341F               	retlw	31
  2083  0F79  34E0               	retlw	224
  2084  0F7A  34E0               	retlw	224
  2085  0F7B  34C0               	retlw	192
  2086  0F7C  3460               	retlw	96
  2087  0F7D  34E0               	retlw	224
  2088  0F7E  34E0               	retlw	224
  2089  0F7F  34C0               	retlw	192
  2090  0F80  3460               	retlw	96
  2091  0F81  34E0               	retlw	224
  2092  0F82  34C0               	retlw	192
  2093  0F83  3400               	retlw	0
  2094  0F84  3400               	retlw	0
  2095  0F85  34FC               	retlw	252
  2096  0F86  34FC               	retlw	252
  2097  0F87  34CC               	retlw	204
  2098  0F88  34CC               	retlw	204
  2099  0F89  34CC               	retlw	204
  2100  0F8A  340C               	retlw	12
  2101  0F8B  341F               	retlw	31
  2102  0F8C  341F               	retlw	31
  2103  0F8D  3400               	retlw	0
  2104  0F8E  3400               	retlw	0
  2105  0F8F  341F               	retlw	31
  2106  0F90  341F               	retlw	31
  2107  0F91  3400               	retlw	0
  2108  0F92  3400               	retlw	0
  2109  0F93  341F               	retlw	31
  2110  0F94  341F               	retlw	31
  2111  0F95  3400               	retlw	0
  2112  0F96  3400               	retlw	0
  2113  0F97  341F               	retlw	31
  2114  0F98  341F               	retlw	31
  2115  0F99  3400               	retlw	0
  2116  0F9A  3400               	retlw	0
  2117  0F9B  3400               	retlw	0
  2118  0F9C  3400               	retlw	0
  2119  0F9D  3400               	retlw	0
  2120  0F9E  3400               	retlw	0
  2121  0F9F  3400               	retlw	0
  2122  0FA0  3400               	retlw	0
  2123  0FA1  34E0               	retlw	224
  2124  0FA2  34E0               	retlw	224
  2125  0FA3  3400               	retlw	0
  2126  0FA4  3400               	retlw	0
  2127  0FA5  34E0               	retlw	224
  2128  0FA6  34E0               	retlw	224
  2129  0FA7  3400               	retlw	0
  2130  0FA8  3400               	retlw	0
  2131  0FA9  34FC               	retlw	252
  2132  0FAA  34FC               	retlw	252
  2133  0FAB  34CC               	retlw	204
  2134  0FAC  34CC               	retlw	204
  2135  0FAD  34CC               	retlw	204
  2136  0FAE  340C               	retlw	12
  2137  0FAF  3400               	retlw	0
  2138  0FB0  3400               	retlw	0
  2139  0FB1  3400               	retlw	0
  2140  0FB2  3400               	retlw	0
  2141  0FB3  34FF               	retlw	255
  2142  0FB4  34FF               	retlw	255
  2143  0FB5  3418               	retlw	24
  2144  0FB6  3408               	retlw	8
  2145  0FB7  341F               	retlw	31
  2146  0FB8  341F               	retlw	31
  2147  0FB9  3400               	retlw	0
  2148  0FBA  3400               	retlw	0
  2149  0FBB  341F               	retlw	31
  2150  0FBC  341F               	retlw	31
  2151  0FBD  3400               	retlw	0
  2152  0FBE  3400               	retlw	0
  2153  0FBF  3400               	retlw	0
  2154  0FC0  3400               	retlw	0
  2155  0FC1  3400               	retlw	0
  2156  0FC2  3400               	retlw	0
  2157  0FC3  3400               	retlw	0
  2158  0FC4  3400               	retlw	0
  2159  0FC5  34E0               	retlw	224
  2160  0FC6  34E0               	retlw	224
  2161  0FC7  34C0               	retlw	192
  2162  0FC8  3460               	retlw	96
  2163  0FC9  34E0               	retlw	224
  2164  0FCA  34C0               	retlw	192
  2165  0FCB  3400               	retlw	0
  2166  0FCC  3400               	retlw	0
  2167  0FCD  34FC               	retlw	252
  2168  0FCE  34FC               	retlw	252
  2169  0FCF  34CC               	retlw	204
  2170  0FD0  34CC               	retlw	204
  2171  0FD1  34CC               	retlw	204
  2172  0FD2  340C               	retlw	12
  2173  0FD3  3400               	retlw	0
  2174  0FD4  3400               	retlw	0
  2175  0FD5  3400               	retlw	0
  2176  0FD6  3400               	retlw	0
  2177  0FD7  341F               	retlw	31
  2178  0FD8  341F               	retlw	31
  2179  0FD9  3400               	retlw	0
  2180  0FDA  3400               	retlw	0
  2181  0FDB  341F               	retlw	31
  2182  0FDC  341F               	retlw	31
  2183  0FDD  3400               	retlw	0
  2184  0FDE  3400               	retlw	0
  2185  0FDF  341F               	retlw	31
  2186  0FE0  341F               	retlw	31
  2187  0FE1  3400               	retlw	0
  2188  0FE2  3400               	retlw	0
  2189  0FE3  3400               	retlw	0
  2190  0FE4  3400               	retlw	0
  2191  0FE5  3400               	retlw	0
  2192  0FE6  3400               	retlw	0
  2193  0FE7  3400               	retlw	0
  2194  0FE8  3400               	retlw	0
  2195  0FE9  34E0               	retlw	224
  2196  0FEA  34E0               	retlw	224
  2197  0FEB  3460               	retlw	96
  2198  0FEC  3460               	retlw	96
  2199  0FED  34E0               	retlw	224
  2200  0FEE  34C0               	retlw	192
  2201  0FEF  3400               	retlw	0
  2202  0FF0  3400               	retlw	0
  2203  0FF1  34FC               	retlw	252
  2204  0FF2  34FC               	retlw	252
  2205  0FF3  34CC               	retlw	204
  2206  0FF4  34CC               	retlw	204
  2207  0FF5  34CC               	retlw	204
  2208  0FF6  340C               	retlw	12
  2209  0FF7  3400               	retlw	0
  2210  0FF8  3400               	retlw	0
  2211  0FF9  3400               	retlw	0
  2212  0FFA  3400               	retlw	0
  2213  0FFB  34FF               	retlw	255
  2214  0FFC  34FF               	retlw	255
  2215  0FFD  3418               	retlw	24
  2216  0FFE  3418               	retlw	24
  2217  0FFF  341F               	retlw	31
  2218  1000  3407               	retlw	7
  2219  1001  3400               	retlw	0
  2220  1002  3400               	retlw	0
  2221  1003  341F               	retlw	31
  2222  1004  341F               	retlw	31
  2223  1005  3400               	retlw	0
  2224  1006  3400               	retlw	0
  2225  1007  3400               	retlw	0
  2226  1008  3400               	retlw	0
  2227  1009                     __end_ofdisplay@units:	
  2228  1009                     _digits_8x16:	
  2229  1009  34FC               	retlw	252
  2230  100A  34FE               	retlw	254
  2231  100B  34FE               	retlw	254
  2232  100C  3406               	retlw	6
  2233  100D  3406               	retlw	6
  2234  100E  34FE               	retlw	254
  2235  100F  34FE               	retlw	254
  2236  1010  34FC               	retlw	252
  2237  1011  347F               	retlw	127
  2238  1012  34FF               	retlw	255
  2239  1013  34FF               	retlw	255
  2240  1014  34C0               	retlw	192
  2241  1015  34C0               	retlw	192
  2242  1016  34FF               	retlw	255
  2243  1017  34FF               	retlw	255
  2244  1018  347F               	retlw	127
  2245  1019  3400               	retlw	0
  2246  101A  3418               	retlw	24
  2247  101B  341C               	retlw	28
  2248  101C  34FE               	retlw	254
  2249  101D  34FE               	retlw	254
  2250  101E  34FE               	retlw	254
  2251  101F  3400               	retlw	0
  2252  1020  3400               	retlw	0
  2253  1021  3400               	retlw	0
  2254  1022  3400               	retlw	0
  2255  1023  34C0               	retlw	192
  2256  1024  34FF               	retlw	255
  2257  1025  34FF               	retlw	255
  2258  1026  34FF               	retlw	255
  2259  1027  34C0               	retlw	192
  2260  1028  3400               	retlw	0
  2261  1029  343C               	retlw	60
  2262  102A  343E               	retlw	62
  2263  102B  343E               	retlw	62
  2264  102C  3406               	retlw	6
  2265  102D  3486               	retlw	134
  2266  102E  34FE               	retlw	254
  2267  102F  34FE               	retlw	254
  2268  1030  347C               	retlw	124
  2269  1031  34E0               	retlw	224
  2270  1032  34F0               	retlw	240
  2271  1033  34FC               	retlw	252
  2272  1034  34FF               	retlw	255
  2273  1035  34CF               	retlw	207
  2274  1036  34C7               	retlw	199
  2275  1037  34C1               	retlw	193
  2276  1038  34C0               	retlw	192
  2277  1039  341C               	retlw	28
  2278  103A  341E               	retlw	30
  2279  103B  349E               	retlw	158
  2280  103C  3486               	retlw	134
  2281  103D  3486               	retlw	134
  2282  103E  34FE               	retlw	254
  2283  103F  34FE               	retlw	254
  2284  1040  34FC               	retlw	252
  2285  1041  3478               	retlw	120
  2286  1042  34F8               	retlw	248
  2287  1043  34F9               	retlw	249
  2288  1044  34C1               	retlw	193
  2289  1045  34C1               	retlw	193
  2290  1046  34FF               	retlw	255
  2291  1047  34FF               	retlw	255
  2292  1048  347E               	retlw	126
  2293  1049  3400               	retlw	0
  2294  104A  34F0               	retlw	240
  2295  104B  34FE               	retlw	254
  2296  104C  347E               	retlw	126
  2297  104D  34FE               	retlw	254
  2298  104E  34FE               	retlw	254
  2299  104F  34FE               	retlw	254
  2300  1050  3400               	retlw	0
  2301  1051  343F               	retlw	63
  2302  1052  343F               	retlw	63
  2303  1053  3437               	retlw	55
  2304  1054  3430               	retlw	48
  2305  1055  34FF               	retlw	255
  2306  1056  34FF               	retlw	255
  2307  1057  34FF               	retlw	255
  2308  1058  3430               	retlw	48
  2309  1059  34FE               	retlw	254
  2310  105A  34FE               	retlw	254
  2311  105B  34FE               	retlw	254
  2312  105C  34C6               	retlw	198
  2313  105D  34C6               	retlw	198
  2314  105E  34C6               	retlw	198
  2315  105F  34C6               	retlw	198
  2316  1060  3486               	retlw	134
  2317  1061  3471               	retlw	113
  2318  1062  34F1               	retlw	241
  2319  1063  34F1               	retlw	241
  2320  1064  34C0               	retlw	192
  2321  1065  34C0               	retlw	192
  2322  1066  34FF               	retlw	255
  2323  1067  34FF               	retlw	255
  2324  1068  347F               	retlw	127
  2325  1069  34FC               	retlw	252
  2326  106A  34FE               	retlw	254
  2327  106B  34FE               	retlw	254
  2328  106C  34C6               	retlw	198
  2329  106D  34C6               	retlw	198
  2330  106E  34DE               	retlw	222
  2331  106F  34DE               	retlw	222
  2332  1070  349C               	retlw	156
  2333  1071  347F               	retlw	127
  2334  1072  34FF               	retlw	255
  2335  1073  34FF               	retlw	255
  2336  1074  34C0               	retlw	192
  2337  1075  34C0               	retlw	192
  2338  1076  34FF               	retlw	255
  2339  1077  34FF               	retlw	255
  2340  1078  347F               	retlw	127
  2341  1079  3406               	retlw	6
  2342  107A  3406               	retlw	6
  2343  107B  3406               	retlw	6
  2344  107C  3486               	retlw	134
  2345  107D  34E6               	retlw	230
  2346  107E  34FE               	retlw	254
  2347  107F  347E               	retlw	126
  2348  1080  341E               	retlw	30
  2349  1081  3480               	retlw	128
  2350  1082  34F0               	retlw	240
  2351  1083  34FE               	retlw	254
  2352  1084  343F               	retlw	63
  2353  1085  3407               	retlw	7
  2354  1086  3401               	retlw	1
  2355  1087  3400               	retlw	0
  2356  1088  3400               	retlw	0
  2357  1089  347C               	retlw	124
  2358  108A  34FE               	retlw	254
  2359  108B  34FE               	retlw	254
  2360  108C  3486               	retlw	134
  2361  108D  3486               	retlw	134
  2362  108E  34FE               	retlw	254
  2363  108F  34FE               	retlw	254
  2364  1090  347C               	retlw	124
  2365  1091  347E               	retlw	126
  2366  1092  34FF               	retlw	255
  2367  1093  34FF               	retlw	255
  2368  1094  34C1               	retlw	193
  2369  1095  34C1               	retlw	193
  2370  1096  34FF               	retlw	255
  2371  1097  34FF               	retlw	255
  2372  1098  347E               	retlw	126
  2373  1099  34FC               	retlw	252
  2374  109A  34FE               	retlw	254
  2375  109B  34FE               	retlw	254
  2376  109C  3486               	retlw	134
  2377  109D  3486               	retlw	134
  2378  109E  34FE               	retlw	254
  2379  109F  34FE               	retlw	254
  2380  10A0  34FC               	retlw	252
  2381  10A1  3478               	retlw	120
  2382  10A2  34F9               	retlw	249
  2383  10A3  34F9               	retlw	249
  2384  10A4  34C1               	retlw	193
  2385  10A5  34C1               	retlw	193
  2386  10A6  34FF               	retlw	255
  2387  10A7  34FF               	retlw	255
  2388  10A8  347F               	retlw	127
  2389  10A9                     __end_of_digits_8x16:	
  2390  10A9                     display@digits_8x16:	
  2391  10A9  34FC               	retlw	252
  2392  10AA  34FE               	retlw	254
  2393  10AB  34FE               	retlw	254
  2394  10AC  3406               	retlw	6
  2395  10AD  3406               	retlw	6
  2396  10AE  34FE               	retlw	254
  2397  10AF  34FE               	retlw	254
  2398  10B0  34FC               	retlw	252
  2399  10B1  347F               	retlw	127
  2400  10B2  34FF               	retlw	255
  2401  10B3  34FF               	retlw	255
  2402  10B4  34C0               	retlw	192
  2403  10B5  34C0               	retlw	192
  2404  10B6  34FF               	retlw	255
  2405  10B7  34FF               	retlw	255
  2406  10B8  347F               	retlw	127
  2407  10B9  3400               	retlw	0
  2408  10BA  3418               	retlw	24
  2409  10BB  341C               	retlw	28
  2410  10BC  34FE               	retlw	254
  2411  10BD  34FE               	retlw	254
  2412  10BE  34FE               	retlw	254
  2413  10BF  3400               	retlw	0
  2414  10C0  3400               	retlw	0
  2415  10C1  3400               	retlw	0
  2416  10C2  3400               	retlw	0
  2417  10C3  34C0               	retlw	192
  2418  10C4  34FF               	retlw	255
  2419  10C5  34FF               	retlw	255
  2420  10C6  34FF               	retlw	255
  2421  10C7  34C0               	retlw	192
  2422  10C8  3400               	retlw	0
  2423  10C9  343C               	retlw	60
  2424  10CA  343E               	retlw	62
  2425  10CB  343E               	retlw	62
  2426  10CC  3406               	retlw	6
  2427  10CD  3486               	retlw	134
  2428  10CE  34FE               	retlw	254
  2429  10CF  34FE               	retlw	254
  2430  10D0  347C               	retlw	124
  2431  10D1  34E0               	retlw	224
  2432  10D2  34F0               	retlw	240
  2433  10D3  34FC               	retlw	252
  2434  10D4  34FF               	retlw	255
  2435  10D5  34CF               	retlw	207
  2436  10D6  34C7               	retlw	199
  2437  10D7  34C1               	retlw	193
  2438  10D8  34C0               	retlw	192
  2439  10D9  341C               	retlw	28
  2440  10DA  341E               	retlw	30
  2441  10DB  349E               	retlw	158
  2442  10DC  3486               	retlw	134
  2443  10DD  3486               	retlw	134
  2444  10DE  34FE               	retlw	254
  2445  10DF  34FE               	retlw	254
  2446  10E0  34FC               	retlw	252
  2447  10E1  3478               	retlw	120
  2448  10E2  34F8               	retlw	248
  2449  10E3  34F9               	retlw	249
  2450  10E4  34C1               	retlw	193
  2451  10E5  34C1               	retlw	193
  2452  10E6  34FF               	retlw	255
  2453  10E7  34FF               	retlw	255
  2454  10E8  347E               	retlw	126
  2455  10E9  3400               	retlw	0
  2456  10EA  34F0               	retlw	240
  2457  10EB  34FE               	retlw	254
  2458  10EC  347E               	retlw	126
  2459  10ED  34FE               	retlw	254
  2460  10EE  34FE               	retlw	254
  2461  10EF  34FE               	retlw	254
  2462  10F0  3400               	retlw	0
  2463  10F1  343F               	retlw	63
  2464  10F2  343F               	retlw	63
  2465  10F3  3437               	retlw	55
  2466  10F4  3430               	retlw	48
  2467  10F5  34FF               	retlw	255
  2468  10F6  34FF               	retlw	255
  2469  10F7  34FF               	retlw	255
  2470  10F8  3430               	retlw	48
  2471  10F9  34FE               	retlw	254
  2472  10FA  34FE               	retlw	254
  2473  10FB  34FE               	retlw	254
  2474  10FC  34C6               	retlw	198
  2475  10FD  34C6               	retlw	198
  2476  10FE  34C6               	retlw	198
  2477  10FF  34C6               	retlw	198
  2478  1100  3486               	retlw	134
  2479  1101  3471               	retlw	113
  2480  1102  34F1               	retlw	241
  2481  1103  34F1               	retlw	241
  2482  1104  34C0               	retlw	192
  2483  1105  34C0               	retlw	192
  2484  1106  34FF               	retlw	255
  2485  1107  34FF               	retlw	255
  2486  1108  347F               	retlw	127
  2487  1109  34FC               	retlw	252
  2488  110A  34FE               	retlw	254
  2489  110B  34FE               	retlw	254
  2490  110C  34C6               	retlw	198
  2491  110D  34C6               	retlw	198
  2492  110E  34DE               	retlw	222
  2493  110F  34DE               	retlw	222
  2494  1110  349C               	retlw	156
  2495  1111  347F               	retlw	127
  2496  1112  34FF               	retlw	255
  2497  1113  34FF               	retlw	255
  2498  1114  34C0               	retlw	192
  2499  1115  34C0               	retlw	192
  2500  1116  34FF               	retlw	255
  2501  1117  34FF               	retlw	255
  2502  1118  347F               	retlw	127
  2503  1119  3406               	retlw	6
  2504  111A  3406               	retlw	6
  2505  111B  3406               	retlw	6
  2506  111C  3486               	retlw	134
  2507  111D  34E6               	retlw	230
  2508  111E  34FE               	retlw	254
  2509  111F  347E               	retlw	126
  2510  1120  341E               	retlw	30
  2511  1121  3480               	retlw	128
  2512  1122  34F0               	retlw	240
  2513  1123  34FE               	retlw	254
  2514  1124  343F               	retlw	63
  2515  1125  3407               	retlw	7
  2516  1126  3401               	retlw	1
  2517  1127  3400               	retlw	0
  2518  1128  3400               	retlw	0
  2519  1129  347C               	retlw	124
  2520  112A  34FE               	retlw	254
  2521  112B  34FE               	retlw	254
  2522  112C  3486               	retlw	134
  2523  112D  3486               	retlw	134
  2524  112E  34FE               	retlw	254
  2525  112F  34FE               	retlw	254
  2526  1130  347C               	retlw	124
  2527  1131  347E               	retlw	126
  2528  1132  34FF               	retlw	255
  2529  1133  34FF               	retlw	255
  2530  1134  34C1               	retlw	193
  2531  1135  34C1               	retlw	193
  2532  1136  34FF               	retlw	255
  2533  1137  34FF               	retlw	255
  2534  1138  347E               	retlw	126
  2535  1139  34FC               	retlw	252
  2536  113A  34FE               	retlw	254
  2537  113B  34FE               	retlw	254
  2538  113C  3486               	retlw	134
  2539  113D  3486               	retlw	134
  2540  113E  34FE               	retlw	254
  2541  113F  34FE               	retlw	254
  2542  1140  34FC               	retlw	252
  2543  1141  3478               	retlw	120
  2544  1142  34F9               	retlw	249
  2545  1143  34F9               	retlw	249
  2546  1144  34C1               	retlw	193
  2547  1145  34C1               	retlw	193
  2548  1146  34FF               	retlw	255
  2549  1147  34FF               	retlw	255
  2550  1148  347F               	retlw	127
  2551  1149                     __end_ofdisplay@digits_8x16:	
  2552  1149                     _bat_symbol:	
  2553  1149  3438               	retlw	56
  2554  114A  34FE               	retlw	254
  2555  114B  3482               	retlw	130
  2556  114C  3482               	retlw	130
  2557  114D  3482               	retlw	130
  2558  114E  3482               	retlw	130
  2559  114F  3482               	retlw	130
  2560  1150  3482               	retlw	130
  2561  1151  3482               	retlw	130
  2562  1152  3482               	retlw	130
  2563  1153  3482               	retlw	130
  2564  1154  3482               	retlw	130
  2565  1155  34FE               	retlw	254
  2566  1156                     __end_of_bat_symbol:	
  2567  0001                     _TMR0	set	1
  2568  0030                     _RB0	set	48
  2569  0038                     _RC0	set	56
  2570  0039                     _RC1	set	57
  2571  003A                     _RC2	set	58
  2572  003B                     _RC3	set	59
  2573  003C                     _RC4	set	60
  2574  003D                     _RC5	set	61
  2575  005A                     _TMR0IF	set	90
  2576  009C                     _CMCON	set	156
  2577  0085                     _TRISA	set	133
  2578  0087                     _TRISC	set	135
  2579  0408                     _PS0	set	1032
  2580  0409                     _PS1	set	1033
  2581  040A                     _PS2	set	1034
  2582  040B                     _PSA	set	1035
  2583  040D                     _T0CS	set	1037
  2584  040C                     _T0SE	set	1036
  2585  042C                     _TRISA4	set	1068
  2586  0430                     _TRISB0	set	1072
  2587  0438                     _TRISC0	set	1080
  2588  040F                     _nRBPU	set	1039
  2589  1156                     STR_3:	
  2590  1156  3470               	retlw	112	;'p'
  2591  1157  346C               	retlw	108	;'l'
  2592  1158  3465               	retlw	101	;'e'
  2593  1159  3461               	retlw	97	;'a'
  2594  115A  3473               	retlw	115	;'s'
  2595  115B  3465               	retlw	101	;'e'
  2596  115C  3420               	retlw	32	;' '
  2597  115D  3477               	retlw	119	;'w'
  2598  115E  3461               	retlw	97	;'a'
  2599  115F  3469               	retlw	105	;'i'
  2600  1160  3474               	retlw	116	;'t'
  2601  1161  342E               	retlw	46	;'.'
  2602  1162  342E               	retlw	46	;'.'
  2603  1163  3400               	retlw	0
  2604  1164                     STR_5:	
  2605  1164  3420               	retlw	32	;' '
  2606  1165  3469               	retlw	105	;'i'
  2607  1166  346E               	retlw	110	;'n'
  2608  1167  3464               	retlw	100	;'d'
  2609  1168  3475               	retlw	117	;'u'
  2610  1169  3463               	retlw	99	;'c'
  2611  116A  3474               	retlw	116	;'t'
  2612  116B  3461               	retlw	97	;'a'
  2613  116C  346E               	retlw	110	;'n'
  2614  116D  3463               	retlw	99	;'c'
  2615  116E  3465               	retlw	101	;'e'
  2616  116F  3420               	retlw	32	;' '
  2617  1170  3400               	retlw	0
  2618  1171                     STR_2:	
  2619  1171  3443               	retlw	67	;'C'
  2620  1172  3461               	retlw	97	;'a'
  2621  1173  346C               	retlw	108	;'l'
  2622  1174  3469               	retlw	105	;'i'
  2623  1175  3462               	retlw	98	;'b'
  2624  1176  3472               	retlw	114	;'r'
  2625  1177  3461               	retlw	97	;'a'
  2626  1178  3474               	retlw	116	;'t'
  2627  1179  3469               	retlw	105	;'i'
  2628  117A  346E               	retlw	110	;'n'
  2629  117B  3467               	retlw	103	;'g'
  2630  117C  342E               	retlw	46	;'.'
  2631  117D  3400               	retlw	0
  2632  117E                     STR_4:	
  2633  117E  3420               	retlw	32	;' '
  2634  117F  3463               	retlw	99	;'c'
  2635  1180  3461               	retlw	97	;'a'
  2636  1181  3470               	retlw	112	;'p'
  2637  1182  3461               	retlw	97	;'a'
  2638  1183  3463               	retlw	99	;'c'
  2639  1184  3469               	retlw	105	;'i'
  2640  1185  3474               	retlw	116	;'t'
  2641  1186  3461               	retlw	97	;'a'
  2642  1187  346E               	retlw	110	;'n'
  2643  1188  3463               	retlw	99	;'c'
  2644  1189  3465               	retlw	101	;'e'
  2645  118A  3400               	retlw	0
  2646  118B                     STR_6:	
  2647  118B  3420               	retlw	32	;' '
  2648  118C  3420               	retlw	32	;' '
  2649  118D  3420               	retlw	32	;' '
  2650  118E  3420               	retlw	32	;' '
  2651  118F  3420               	retlw	32	;' '
  2652  1190  3420               	retlw	32	;' '
  2653  1191  3420               	retlw	32	;' '
  2654  1192  3420               	retlw	32	;' '
  2655  1193  3420               	retlw	32	;' '
  2656  1194  3400               	retlw	0
  2657  1195                     STR_1:	
  2658  1195  3459               	retlw	89	;'Y'
  2659  1196  3455               	retlw	85	;'U'
  2660  1197  3453               	retlw	83	;'S'
  2661  1198  3427               	retlw	39	;'''
  2662  1199  3430               	retlw	48	;'0'
  2663  119A  3439               	retlw	57	;'9'
  2664  119B  3400               	retlw	0
  2665  1193                     
  2666                           ; #config settings
  2667  0000                     
  2668                           	psect	cinit
  2669  07F1                     start_initialization:	
  2670  07F1                     __initialization:	
  2671                           
  2672                           ; Clear objects allocated to BANK0
  2673  07F1  01E9               	clrf	__pbssBANK0& (0+127)
  2674  07F2  01EA               	clrf	(__pbssBANK0+1)& (0+127)
  2675  07F3  01EB               	clrf	(__pbssBANK0+2)& (0+127)
  2676  07F4  01EC               	clrf	(__pbssBANK0+3)& (0+127)
  2677  07F5  01ED               	clrf	(__pbssBANK0+4)& (0+127)
  2678  07F6  01EE               	clrf	(__pbssBANK0+5)& (0+127)
  2679                           
  2680                           ; Clear objects allocated to BANK1
  2681  07F7  1683               	bsf	3,5	;RP0=1, select bank1
  2682  07F8  1303               	bcf	3,6	;RP1=0, select bank1
  2683  07F9  01A0               	clrf	__pbssBANK1& (0+127)
  2684  07FA  01A1               	clrf	(__pbssBANK1+1)& (0+127)
  2685  07FB  01A2               	clrf	(__pbssBANK1+2)& (0+127)
  2686  07FC                     end_of_initialization:	
  2687                           ;End of C runtime variable initialization code
  2688                           
  2689  07FC                     __end_of__initialization:	
  2690  07FC  0183               	clrf	3
  2691  07FD  160A  118A  2C0E   	ljmp	_main	;jump to C main() function
  2692                           
  2693                           	psect	bssBANK0
  2694  0069                     __pbssBANK0:	
  2695  0069                     _F3:	
  2696  0069                     	ds	3
  2697  006C                     _F1:	
  2698  006C                     	ds	3
  2699                           
  2700                           	psect	bssBANK1
  2701  00A0                     __pbssBANK1:	
  2702  00A0                     _F2:	
  2703  00A0                     	ds	3
  2704                           
  2705                           	psect	cstackCOMMON
  2706  0070                     __pcstackCOMMON:	
  2707  0070                     ?_initialize:	
  2708  0070                     ?_delay10ms:	
  2709                           ; 0 bytes @ 0x0
  2710                           
  2711  0070                     ?_calibrate:	
  2712                           ; 0 bytes @ 0x0
  2713                           
  2714  0070                     ?_lcd_clear:	
  2715                           ; 0 bytes @ 0x0
  2716                           
  2717  0070                     ?_measure_capacitance:	
  2718                           ; 0 bytes @ 0x0
  2719                           
  2720  0070                     ?_measure_inductance:	
  2721                           ; 0 bytes @ 0x0
  2722                           
  2723  0070                     ?_indicator:	
  2724                           ; 0 bytes @ 0x0
  2725                           
  2726  0070                     ?_lcd_init:	
  2727                           ; 0 bytes @ 0x0
  2728                           
  2729  0070                     ?_display_unit:	
  2730                           ; 0 bytes @ 0x0
  2731                           
  2732  0070                     ?_main:	
  2733                           ; 0 bytes @ 0x0
  2734                           
  2735  0070                     ?_lcd_putch:	
  2736                           ; 0 bytes @ 0x0
  2737                           
  2738  0070                     ?___ftge:	
  2739                           ; 0 bytes @ 0x0
  2740                           
  2741  0070                     ?___wmul:	
  2742                           ; 1 bit 
  2743                           
  2744  0070                     ?___lwdiv:	
  2745                           ; 2 bytes @ 0x0
  2746                           
  2747  0070                     ?___ftpack:	
  2748                           ; 2 bytes @ 0x0
  2749                           
  2750  0070                     ?___fttol:	
  2751                           ; 3 bytes @ 0x0
  2752                           
  2753  0070                     delay10ms@period_10ms:	
  2754                           ; 4 bytes @ 0x0
  2755                           
  2756  0070                     ___wmul@multiplier:	
  2757                           ; 2 bytes @ 0x0
  2758                           
  2759  0070                     ___lwdiv@divisor:	
  2760                           ; 2 bytes @ 0x0
  2761                           
  2762  0070                     ___ftpack@arg:	
  2763                           ; 2 bytes @ 0x0
  2764                           
  2765  0070                     ___ftge@ff1:	
  2766                           ; 3 bytes @ 0x0
  2767                           
  2768  0070                     ___fttol@f1:	
  2769                           ; 3 bytes @ 0x0
  2770                           
  2771                           
  2772                           ; 3 bytes @ 0x0
  2773  0070                     	ds	2
  2774  0072                     ??_delay10ms:	
  2775  0072                     ___wmul@multiplicand:	
  2776                           ; 0 bytes @ 0x2
  2777                           
  2778  0072                     ___lwdiv@dividend:	
  2779                           ; 2 bytes @ 0x2
  2780                           
  2781                           
  2782                           ; 2 bytes @ 0x2
  2783  0072                     	ds	1
  2784  0073                     ___ftpack@exp:	
  2785  0073                     ___ftge@ff2:	
  2786                           ; 1 bytes @ 0x3
  2787                           
  2788                           
  2789                           ; 3 bytes @ 0x3
  2790  0073                     	ds	1
  2791  0074                     ??___wmul:	
  2792  0074                     ??___fttol:	
  2793                           ; 0 bytes @ 0x4
  2794                           
  2795  0074                     ??___lwdiv:	
  2796                           ; 0 bytes @ 0x4
  2797                           
  2798  0074                     ?_measure_freq:	
  2799                           ; 0 bytes @ 0x4
  2800                           
  2801  0074                     ___ftpack@sign:	
  2802                           ; 2 bytes @ 0x4
  2803                           
  2804  0074                     ___wmul@product:	
  2805                           ; 1 bytes @ 0x4
  2806                           
  2807                           
  2808                           ; 2 bytes @ 0x4
  2809  0074                     	ds	1
  2810  0075                     ??___ftpack:	
  2811  0075                     ___lwdiv@quotient:	
  2812                           ; 0 bytes @ 0x5
  2813                           
  2814                           
  2815                           ; 2 bytes @ 0x5
  2816  0075                     	ds	1
  2817  0076                     ?_lcd_send:	
  2818  0076                     ??_measure_freq:	
  2819                           ; 0 bytes @ 0x6
  2820                           
  2821  0076                     ??___ftge:	
  2822                           ; 0 bytes @ 0x6
  2823                           
  2824  0076                     lcd_send@cmd:	
  2825                           ; 0 bytes @ 0x6
  2826                           
  2827                           
  2828                           ; 1 bytes @ 0x6
  2829  0076                     	ds	1
  2830  0077                     ??_lcd_send:	
  2831  0077                     lcd_send@a:	
  2832                           ; 0 bytes @ 0x7
  2833                           
  2834  0077                     ___lwdiv@counter:	
  2835                           ; 1 bytes @ 0x7
  2836                           
  2837                           
  2838                           ; 1 bytes @ 0x7
  2839  0077                     	ds	1
  2840  0078                     ?_lcd_gotoxy:	
  2841  0078                     ??_lcd_init:	
  2842                           ; 0 bytes @ 0x8
  2843                           
  2844  0078                     ??_lcd_putch:	
  2845                           ; 0 bytes @ 0x8
  2846                           
  2847  0078                     ?___lwmod:	
  2848                           ; 0 bytes @ 0x8
  2849                           
  2850  0078                     ?___ftdiv:	
  2851                           ; 2 bytes @ 0x8
  2852                           
  2853  0078                     ___fttol@sign1:	
  2854                           ; 3 bytes @ 0x8
  2855                           
  2856  0078                     lcd_gotoxy@y:	
  2857                           ; 1 bytes @ 0x8
  2858                           
  2859  0078                     ___lwmod@divisor:	
  2860                           ; 2 bytes @ 0x8
  2861                           
  2862  0078                     ___ftdiv@f2:	
  2863                           ; 2 bytes @ 0x8
  2864                           
  2865                           
  2866                           ; 3 bytes @ 0x8
  2867  0078                     	ds	1
  2868  0079                     ___fttol@lval:	
  2869                           
  2870                           ; 4 bytes @ 0x9
  2871  0079                     	ds	1
  2872  007A                     ??_lcd_gotoxy:	
  2873  007A                     lcd_gotoxy@x:	
  2874                           ; 0 bytes @ 0xA
  2875                           
  2876  007A                     lcd_putch@c:	
  2877                           ; 1 bytes @ 0xA
  2878                           
  2879  007A                     ___lwmod@dividend:	
  2880                           ; 1 bytes @ 0xA
  2881                           
  2882                           
  2883                           ; 2 bytes @ 0xA
  2884  007A                     	ds	1
  2885  007B                     ?_lcd_puts:	
  2886  007B                     ??_lcd_clear:	
  2887                           ; 0 bytes @ 0xB
  2888                           
  2889  007B                     display_unit@unit:	
  2890                           ; 0 bytes @ 0xB
  2891                           
  2892  007B                     lcd_clear@i:	
  2893                           ; 1 bytes @ 0xB
  2894                           
  2895  007B                     lcd_puts@s:	
  2896                           ; 2 bytes @ 0xB
  2897                           
  2898  007B                     ___ftdiv@f1:	
  2899                           ; 2 bytes @ 0xB
  2900                           
  2901                           
  2902                           ; 3 bytes @ 0xB
  2903  007B                     	ds	1
  2904  007C                     ??___lwmod:	
  2905  007C                     ??___lwtoft:	
  2906                           ; 0 bytes @ 0xC
  2907                           
  2908  007C                     display_unit@i:	
  2909                           ; 0 bytes @ 0xC
  2910                           
  2911                           
  2912                           ; 1 bytes @ 0xC
  2913  007C                     	ds	1
  2914  007D                     ??_initialize:	
  2915  007D                     ??_lcd_puts:	
  2916                           ; 0 bytes @ 0xD
  2917                           
  2918  007D                     ??_calibrate:	
  2919                           ; 0 bytes @ 0xD
  2920                           
  2921  007D                     ??_indicator:	
  2922                           ; 0 bytes @ 0xD
  2923                           
  2924  007D                     indicator@indicate:	
  2925                           ; 0 bytes @ 0xD
  2926                           
  2927  007D                     ___fttol@exp1:	
  2928                           ; 1 bytes @ 0xD
  2929                           
  2930  007D                     ___lwmod@counter:	
  2931                           ; 1 bytes @ 0xD
  2932                           
  2933                           
  2934                           ; 1 bytes @ 0xD
  2935  007D                     	ds	1
  2936  007E                     ??_measure_capacitance:	
  2937  007E                     ??_measure_inductance:	
  2938                           ; 0 bytes @ 0xE
  2939                           
  2940  007E                     ??_main:	
  2941                           ; 0 bytes @ 0xE
  2942                           
  2943  007E                     ??___ftneg:	
  2944                           ; 0 bytes @ 0xE
  2945                           
  2946                           
  2947                           	psect	cstackBANK0
  2948  0020                     __pcstackBANK0:	
  2949                           ; 0 bytes @ 0xE
  2950                           
  2951  0020                     ??_display_unit:	
  2952  0020                     ?_display_digit:	
  2953                           ; 0 bytes @ 0x0
  2954                           
  2955  0020                     ??___ftdiv:	
  2956                           ; 0 bytes @ 0x0
  2957                           
  2958  0020                     display_digit@column:	
  2959                           ; 0 bytes @ 0x0
  2960                           
  2961  0020                     measure_freq@oldTMR0:	
  2962                           ; 1 bytes @ 0x0
  2963                           
  2964                           
  2965                           ; 2 bytes @ 0x0
  2966  0020                     	ds	1
  2967  0021                     display_digit@digit:	
  2968                           
  2969                           ; 1 bytes @ 0x1
  2970  0021                     	ds	1
  2971  0022                     ??_display_digit:	
  2972  0022                     measure_freq@prescaler_cntr:	
  2973                           ; 0 bytes @ 0x2
  2974                           
  2975                           
  2976                           ; 2 bytes @ 0x2
  2977  0022                     	ds	2
  2978  0024                     ?___lwtoft:	
  2979  0024                     display_digit@line:	
  2980                           ; 3 bytes @ 0x4
  2981                           
  2982  0024                     ___ftdiv@cntr:	
  2983                           ; 1 bytes @ 0x4
  2984                           
  2985  0024                     ___lwtoft@c:	
  2986                           ; 1 bytes @ 0x4
  2987                           
  2988                           
  2989                           ; 2 bytes @ 0x4
  2990  0024                     	ds	1
  2991  0025                     display_digit@i:	
  2992  0025                     ___ftdiv@f3:	
  2993                           ; 1 bytes @ 0x5
  2994                           
  2995                           
  2996                           ; 3 bytes @ 0x5
  2997  0025                     	ds	1
  2998  0026                     ?_display_reading:	
  2999  0026                     display_reading@measurement:	
  3000                           ; 0 bytes @ 0x6
  3001                           
  3002                           
  3003                           ; 2 bytes @ 0x6
  3004  0026                     	ds	1
  3005  0027                     calibrate@i:	
  3006                           
  3007                           ; 1 bytes @ 0x7
  3008  0027                     	ds	1
  3009  0028                     ??_display_reading:	
  3010  0028                     ___ftdiv@exp:	
  3011                           ; 0 bytes @ 0x8
  3012                           
  3013                           
  3014                           ; 1 bytes @ 0x8
  3015  0028                     	ds	1
  3016  0029                     ___ftdiv@sign:	
  3017                           
  3018                           ; 1 bytes @ 0x9
  3019  0029                     	ds	1
  3020  002A                     ?___ftmul:	
  3021  002A                     ___ftmul@f1:	
  3022                           ; 3 bytes @ 0xA
  3023                           
  3024                           
  3025                           ; 3 bytes @ 0xA
  3026  002A                     	ds	3
  3027  002D                     ___ftmul@f2:	
  3028                           
  3029                           ; 3 bytes @ 0xD
  3030  002D                     	ds	3
  3031  0030                     ??___ftmul:	
  3032                           
  3033                           ; 0 bytes @ 0x10
  3034  0030                     	ds	4
  3035  0034                     ___ftmul@exp:	
  3036                           
  3037                           ; 1 bytes @ 0x14
  3038  0034                     	ds	1
  3039  0035                     ___ftmul@f3_as_product:	
  3040                           
  3041                           ; 3 bytes @ 0x15
  3042  0035                     	ds	3
  3043  0038                     ___ftmul@cntr:	
  3044                           
  3045                           ; 1 bytes @ 0x18
  3046  0038                     	ds	1
  3047  0039                     ___ftmul@sign:	
  3048                           
  3049                           ; 1 bytes @ 0x19
  3050  0039                     	ds	1
  3051  003A                     ?___ftneg:	
  3052  003A                     ___ftneg@f1:	
  3053                           ; 3 bytes @ 0x1A
  3054                           
  3055                           
  3056                           ; 3 bytes @ 0x1A
  3057  003A                     	ds	3
  3058  003D                     ?___ftadd:	
  3059  003D                     ___ftadd@f1:	
  3060                           ; 3 bytes @ 0x1D
  3061                           
  3062                           
  3063                           ; 3 bytes @ 0x1D
  3064  003D                     	ds	3
  3065  0040                     ___ftadd@f2:	
  3066                           
  3067                           ; 3 bytes @ 0x20
  3068  0040                     	ds	3
  3069  0043                     ??___ftadd:	
  3070                           
  3071                           ; 0 bytes @ 0x23
  3072  0043                     	ds	4
  3073  0047                     ___ftadd@sign:	
  3074                           
  3075                           ; 1 bytes @ 0x27
  3076  0047                     	ds	1
  3077  0048                     ___ftadd@exp2:	
  3078                           
  3079                           ; 1 bytes @ 0x28
  3080  0048                     	ds	1
  3081  0049                     ___ftadd@exp1:	
  3082                           
  3083                           ; 1 bytes @ 0x29
  3084  0049                     	ds	1
  3085  004A                     measure_inductance@numerator:	
  3086  004A                     _measure_capacitance$619:	
  3087                           ; 3 bytes @ 0x2A
  3088                           
  3089                           
  3090                           ; 3 bytes @ 0x2A
  3091  004A                     	ds	3
  3092  004D                     measure_inductance@denominator:	
  3093  004D                     _measure_capacitance$620:	
  3094                           ; 3 bytes @ 0x2D
  3095                           
  3096                           
  3097                           ; 3 bytes @ 0x2D
  3098  004D                     	ds	3
  3099  0050                     _measure_capacitance$621:	
  3100  0050                     _measure_inductance$624:	
  3101                           ; 3 bytes @ 0x30
  3102                           
  3103                           
  3104                           ; 3 bytes @ 0x30
  3105  0050                     	ds	3
  3106  0053                     _measure_capacitance$622:	
  3107  0053                     _measure_inductance$628:	
  3108                           ; 3 bytes @ 0x33
  3109                           
  3110                           
  3111                           ; 3 bytes @ 0x33
  3112  0053                     	ds	3
  3113  0056                     _measure_capacitance$623:	
  3114  0056                     _measure_inductance$629:	
  3115                           ; 3 bytes @ 0x36
  3116                           
  3117                           
  3118                           ; 3 bytes @ 0x36
  3119  0056                     	ds	3
  3120  0059                     measure_capacitance@var:	
  3121  0059                     _measure_inductance$625:	
  3122                           ; 2 bytes @ 0x39
  3123                           
  3124                           
  3125                           ; 3 bytes @ 0x39
  3126  0059                     	ds	2
  3127  005B                     measure_capacitance@Cin:	
  3128                           
  3129                           ; 3 bytes @ 0x3B
  3130  005B                     	ds	1
  3131  005C                     _measure_inductance$626:	
  3132                           
  3133                           ; 3 bytes @ 0x3C
  3134  005C                     	ds	3
  3135  005F                     _measure_inductance$627:	
  3136                           
  3137                           ; 3 bytes @ 0x3F
  3138  005F                     	ds	3
  3139  0062                     measure_inductance@var:	
  3140                           
  3141                           ; 2 bytes @ 0x42
  3142  0062                     	ds	2
  3143  0064                     measure_inductance@Lin:	
  3144                           
  3145                           ; 3 bytes @ 0x44
  3146  0064                     	ds	3
  3147  0067                     main@i:	
  3148                           
  3149                           ; 2 bytes @ 0x47
  3150  0067                     	ds	2
  3151                           
  3152                           	psect	maintext
  3153  140E                     __pmaintext:	
  3154 ;;
  3155 ;;Main: autosize = 0, tempsize = 0, incstack = 0, save=0
  3156 ;;
  3157 ;; *************** function _main *****************
  3158 ;; Defined at:
  3159 ;;		line 5 in file "../main.c"
  3160 ;; Parameters:    Size  Location     Type
  3161 ;;		None
  3162 ;; Auto vars:     Size  Location     Type
  3163 ;;  i               2   71[BANK0 ] int 
  3164 ;; Return value:  Size  Location     Type
  3165 ;;		None               void
  3166 ;; Registers used:
  3167 ;;		wreg, fsr0l, fsr0h, status,2, status,0, btemp+1, pclath, cstack
  3168 ;; Tracked objects:
  3169 ;;		On entry : B00/0
  3170 ;;		On exit  : 0/0
  3171 ;;		Unchanged: 0/0
  3172 ;; Data sizes:     COMMON   BANK0   BANK1   BANK3   BANK2
  3173 ;;      Params:         0       0       0       0       0
  3174 ;;      Locals:         0       2       0       0       0
  3175 ;;      Temps:          0       0       0       0       0
  3176 ;;      Totals:         0       2       0       0       0
  3177 ;;Total ram usage:        2 bytes
  3178 ;; Hardware stack levels required when called:    5
  3179 ;; This function calls:
  3180 ;;		_calibrate
  3181 ;;		_delay10ms
  3182 ;;		_indicator
  3183 ;;		_initialize
  3184 ;;		_lcd_clear
  3185 ;;		_lcd_gotoxy
  3186 ;;		_lcd_puts
  3187 ;;		_lcd_send
  3188 ;;		_measure_capacitance
  3189 ;;		_measure_inductance
  3190 ;; This function is called by:
  3191 ;;		Startup code after reset
  3192 ;; This function uses a non-reentrant model
  3193 ;;
  3194                           
  3195                           
  3196                           ;psect for function _main
  3197  140E                     _main:	
  3198                           
  3199                           ;main.c: 7: int i;
  3200                           ;main.c: 8: initialize();
  3201                           
  3202                           ;incstack = 0
  3203                           ; Regs used in _main: [wreg-fsr0h+status,2+status,0+btemp+1+pclath+cstack]
  3204  140E  160A  158A  25CB  160A  118A  	fcall	_initialize
  3205                           
  3206                           ;main.c: 9: lcd_gotoxy(0,0);
  3207  1413  3000               	movlw	0
  3208  1414  00F8               	movwf	lcd_gotoxy@y
  3209  1415  00F9               	movwf	lcd_gotoxy@y+1
  3210  1416  3000               	movlw	0
  3211  1417  160A  158A  258E  160A  118A  	fcall	_lcd_gotoxy
  3212                           
  3213                           ;main.c: 11: for(i=0; i<504; i++) lcd_send(logo_image[i], 1);
  3214  141C  1283               	bcf	3,5	;RP0=0, select bank0
  3215  141D  1303               	bcf	3,6	;RP1=0, select bank0
  3216  141E  01E7               	clrf	main@i
  3217  141F  01E8               	clrf	main@i+1
  3218  1420  0868               	movf	main@i+1,w
  3219  1421  3A80               	xorlw	128
  3220  1422  00FF               	movwf	127
  3221  1423  3081               	movlw	129
  3222  1424  027F               	subwf	127,w
  3223  1425  1D03               	skipz
  3224  1426  2C29               	goto	u2895
  3225  1427  30F8               	movlw	248
  3226  1428  0267               	subwf	main@i,w
  3227  1429                     u2895:	
  3228  1429  1803               	btfsc	3,0
  3229  142A  2C54               	goto	l2340
  3230  142B                     l2334:	
  3231  142B  01F6               	clrf	lcd_send@cmd
  3232  142C  0AF6               	incf	lcd_send@cmd,f
  3233  142D  3088               	movlw	high (_logo_image| (0+32768))
  3234  142E  1283               	bcf	3,5	;RP0=0, select bank0
  3235  142F  1303               	bcf	3,6	;RP1=0, select bank0
  3236  1430  0768               	addwf	main@i+1,w
  3237  1431  00FF               	movwf	127
  3238  1432  3012               	movlw	low (_logo_image| (0+32768))
  3239  1433  0767               	addwf	main@i,w
  3240  1434  0084               	movwf	4
  3241  1435  1803               	skipnc
  3242  1436  0AFF               	incf	127,f
  3243  1437  120A  158A  2000  160A  118A  	fcall	stringtab
  3244  143C  160A  118A  21E9  160A  118A  	fcall	_lcd_send
  3245  1441  3001               	movlw	1
  3246  1442  1283               	bcf	3,5	;RP0=0, select bank0
  3247  1443  1303               	bcf	3,6	;RP1=0, select bank0
  3248  1444  07E7               	addwf	main@i,f
  3249  1445  1803               	skipnc
  3250  1446  0AE8               	incf	main@i+1,f
  3251  1447  3000               	movlw	0
  3252  1448  07E8               	addwf	main@i+1,f
  3253  1449  0868               	movf	main@i+1,w
  3254  144A  3A80               	xorlw	128
  3255  144B  00FF               	movwf	127
  3256  144C  3081               	movlw	129
  3257  144D  027F               	subwf	127,w
  3258  144E  1D03               	skipz
  3259  144F  2C52               	goto	u2905
  3260  1450  30F8               	movlw	248
  3261  1451  0267               	subwf	main@i,w
  3262  1452                     u2905:	
  3263  1452  1C03               	skipc
  3264  1453  2C2B               	goto	l2334
  3265  1454                     l2340:	
  3266                           
  3267                           ;main.c: 12: lcd_gotoxy(40,5);
  3268  1454  3005               	movlw	5
  3269  1455  00F8               	movwf	lcd_gotoxy@y
  3270  1456  3000               	movlw	0
  3271  1457  00F9               	movwf	lcd_gotoxy@y+1
  3272  1458  3028               	movlw	40
  3273  1459  160A  158A  258E  160A  118A  	fcall	_lcd_gotoxy
  3274                           
  3275                           ;main.c: 13: lcd_puts("YUS'09");
  3276  145E  3095               	movlw	low (STR_1| (0+32768))
  3277  145F  00FB               	movwf	lcd_puts@s
  3278  1460  3091               	movlw	high (STR_1| (0+32768))
  3279  1461  00FC               	movwf	lcd_puts@s+1
  3280  1462  160A  158A  2627  160A  118A  	fcall	_lcd_puts
  3281                           
  3282                           ;main.c: 14: delay10ms(200);
  3283  1467  30C8               	movlw	200
  3284  1468  00F0               	movwf	delay10ms@period_10ms
  3285  1469  3000               	movlw	0
  3286  146A  00F1               	movwf	delay10ms@period_10ms+1
  3287  146B  160A  158A  259F  160A  118A  	fcall	_delay10ms
  3288                           
  3289                           ;main.c: 15: calibrate();
  3290  1470  160A  118A  2631  160A  118A  	fcall	_calibrate
  3291                           
  3292                           ;main.c: 16: lcd_clear();
  3293  1475  160A  158A  25E5  160A  118A  	fcall	_lcd_clear
  3294  147A                     l2348:	
  3295                           ;main.c: 18: while(1)
  3296                           
  3297                           
  3298                           ;main.c: 19: {
  3299                           ;main.c: 20: if(RB0) measure_capacitance();
  3300  147A  1283               	bcf	3,5	;RP0=0, select bank0
  3301  147B  1303               	bcf	3,6	;RP1=0, select bank0
  3302  147C  1C06               	btfss	6,0	;volatile
  3303  147D  2C84               	goto	l2352
  3304  147E  120A  118A  229E  160A  118A  	fcall	_measure_capacitance
  3305  1483  2C89               	goto	l81
  3306  1484                     l2352:	
  3307                           
  3308                           ;main.c: 21: else measure_inductance();
  3309  1484  120A  118A  250A  160A  118A  	fcall	_measure_inductance
  3310  1489                     l81:	
  3311                           
  3312                           ;main.c: 22: indicator(1);
  3313  1489  3001               	movlw	1
  3314  148A  160A  118A  21A2  160A  118A  	fcall	_indicator
  3315                           
  3316                           ;main.c: 23: delay10ms(30);
  3317  148F  301E               	movlw	30
  3318  1490  00F0               	movwf	delay10ms@period_10ms
  3319  1491  3000               	movlw	0
  3320  1492  00F1               	movwf	delay10ms@period_10ms+1
  3321  1493  160A  158A  259F  160A  118A  	fcall	_delay10ms
  3322                           
  3323                           ;main.c: 24: indicator(0);
  3324  1498  3000               	movlw	0
  3325  1499  160A  118A  21A2  160A  118A  	fcall	_indicator
  3326                           
  3327                           ;main.c: 25: delay10ms(20);
  3328  149E  3014               	movlw	20
  3329  149F  00F0               	movwf	delay10ms@period_10ms
  3330  14A0  3000               	movlw	0
  3331  14A1  00F1               	movwf	delay10ms@period_10ms+1
  3332  14A2  160A  158A  259F  160A  118A  	fcall	_delay10ms
  3333  14A7  2C7A               	goto	l2348
  3334  14A8                     __end_of_main:	
  3335                           
  3336                           	psect	text1
  3337  050A                     __ptext1:	
  3338 ;; *************** function _measure_inductance *****************
  3339 ;; Defined at:
  3340 ;;		line 131 in file "../main.c"
  3341 ;; Parameters:    Size  Location     Type
  3342 ;;		None
  3343 ;; Auto vars:     Size  Location     Type
  3344 ;;  Lin             3   68[BANK0 ] int 
  3345 ;;  denominator     3   45[BANK0 ] int 
  3346 ;;  numerator       3   42[BANK0 ] int 
  3347 ;;  var             2   66[BANK0 ] unsigned int 
  3348 ;; Return value:  Size  Location     Type
  3349 ;;		None               void
  3350 ;; Registers used:
  3351 ;;		wreg, fsr0l, fsr0h, status,2, status,0, btemp+1, pclath, cstack
  3352 ;; Tracked objects:
  3353 ;;		On entry : 0/0
  3354 ;;		On exit  : 0/0
  3355 ;;		Unchanged: 0/0
  3356 ;; Data sizes:     COMMON   BANK0   BANK1   BANK3   BANK2
  3357 ;;      Params:         0       0       0       0       0
  3358 ;;      Locals:         0      29       0       0       0
  3359 ;;      Temps:          0       0       0       0       0
  3360 ;;      Totals:         0      29       0       0       0
  3361 ;;Total ram usage:       29 bytes
  3362 ;; Hardware stack levels used:    1
  3363 ;; Hardware stack levels required when called:    4
  3364 ;; This function calls:
  3365 ;;		___ftadd
  3366 ;;		___ftdiv
  3367 ;;		___ftge
  3368 ;;		___ftmul
  3369 ;;		___ftneg
  3370 ;;		___fttol
  3371 ;;		___lwtoft
  3372 ;;		_display_reading
  3373 ;;		_display_unit
  3374 ;;		_lcd_gotoxy
  3375 ;;		_lcd_puts
  3376 ;;		_measure_freq
  3377 ;; This function is called by:
  3378 ;;		_main
  3379 ;; This function uses a non-reentrant model
  3380 ;;
  3381                           
  3382                           
  3383                           ;psect for function _measure_inductance
  3384  050A                     _measure_inductance:	
  3385                           
  3386                           ;main.c: 133: unsigned int var;
  3387                           ;main.c: 134: double Lin, numerator, denominator;
  3388                           ;main.c: 135: lcd_gotoxy(7,5);
  3389                           
  3390                           ;incstack = 0
  3391                           ; Regs used in _measure_inductance: [wreg-fsr0h+status,2+status,0+btemp+1+pclath+cstack]
  3392  050A  3005               	movlw	5
  3393  050B  00F8               	movwf	lcd_gotoxy@y
  3394  050C  3000               	movlw	0
  3395  050D  00F9               	movwf	lcd_gotoxy@y+1
  3396  050E  3007               	movlw	7
  3397  050F  160A  158A  258E  120A  118A  	fcall	_lcd_gotoxy
  3398                           
  3399                           ;main.c: 136: lcd_puts(" inductance ");
  3400  0514  3064               	movlw	low (STR_5| (0+32768))
  3401  0515  00FB               	movwf	lcd_puts@s
  3402  0516  3091               	movlw	high (STR_5| (0+32768))
  3403  0517  00FC               	movwf	lcd_puts@s+1
  3404  0518  160A  158A  2627  120A  118A  	fcall	_lcd_puts
  3405                           
  3406                           ;main.c: 137: var = measure_freq();
  3407  051D  160A  158A  272E  120A  118A  	fcall	_measure_freq
  3408  0522  0875               	movf	?_measure_freq+1,w
  3409  0523  1283               	bcf	3,5	;RP0=0, select bank0
  3410  0524  1303               	bcf	3,6	;RP1=0, select bank0
  3411  0525  00E3               	movwf	measure_inductance@var+1
  3412  0526  0874               	movf	?_measure_freq,w
  3413  0527  00E2               	movwf	measure_inductance@var
  3414                           
  3415                           ;main.c: 138: F3 = (double)var;
  3416  0528  0863               	movf	measure_inductance@var+1,w
  3417  0529  00A5               	movwf	___lwtoft@c+1
  3418  052A  0862               	movf	measure_inductance@var,w
  3419  052B  00A4               	movwf	___lwtoft@c
  3420  052C  160A  158A  25B3  120A  118A  	fcall	___lwtoft
  3421  0531  1283               	bcf	3,5	;RP0=0, select bank0
  3422  0532  1303               	bcf	3,6	;RP1=0, select bank0
  3423  0533  0824               	movf	?___lwtoft,w
  3424  0534  00E9               	movwf	_F3
  3425  0535  0825               	movf	?___lwtoft+1,w
  3426  0536  00EA               	movwf	_F3+1
  3427  0537  0826               	movf	?___lwtoft+2,w
  3428  0538  00EB               	movwf	_F3+2
  3429                           
  3430                           ;main.c: 139: if(F3>F1) F3 = F1;
  3431  0539  086C               	movf	_F1,w
  3432  053A  00F0               	movwf	___ftge@ff1
  3433  053B  086D               	movf	_F1+1,w
  3434  053C  00F1               	movwf	___ftge@ff1+1
  3435  053D  086E               	movf	_F1+2,w
  3436  053E  00F2               	movwf	___ftge@ff1+2
  3437  053F  0869               	movf	_F3,w
  3438  0540  00F3               	movwf	___ftge@ff2
  3439  0541  086A               	movf	_F3+1,w
  3440  0542  00F4               	movwf	___ftge@ff2+1
  3441  0543  086B               	movf	_F3+2,w
  3442  0544  00F5               	movwf	___ftge@ff2+2
  3443  0545  160A  158A  26D1  120A  118A  	fcall	___ftge
  3444  054A  1803               	btfsc	3,0
  3445  054B  2D54               	goto	l2270
  3446  054C  1283               	bcf	3,5	;RP0=0, select bank0
  3447  054D  1303               	bcf	3,6	;RP1=0, select bank0
  3448  054E  086C               	movf	_F1,w
  3449  054F  00E9               	movwf	_F3
  3450  0550  086D               	movf	_F1+1,w
  3451  0551  00EA               	movwf	_F3+1
  3452  0552  086E               	movf	_F1+2,w
  3453  0553  00EB               	movwf	_F3+2
  3454  0554                     l2270:	
  3455                           
  3456                           ;main.c: 140: numerator = ((F1*F1)-(F3*F3)) * ((F1*F1)-(F2-F2)) * (100*100);
  3457  0554  1683               	bsf	3,5	;RP0=1, select bank1
  3458  0555  1303               	bcf	3,6	;RP1=0, select bank1
  3459  0556  0820               	movf	_F2^(0+128),w
  3460  0557  1283               	bcf	3,5	;RP0=0, select bank0
  3461  0558  1303               	bcf	3,6	;RP1=0, select bank0
  3462  0559  00BA               	movwf	___ftneg@f1
  3463  055A  1683               	bsf	3,5	;RP0=1, select bank1
  3464  055B  1303               	bcf	3,6	;RP1=0, select bank1
  3465  055C  0821               	movf	(_F2+1)^(0+128),w
  3466  055D  1283               	bcf	3,5	;RP0=0, select bank0
  3467  055E  1303               	bcf	3,6	;RP1=0, select bank0
  3468  055F  00BB               	movwf	___ftneg@f1+1
  3469  0560  1683               	bsf	3,5	;RP0=1, select bank1
  3470  0561  1303               	bcf	3,6	;RP1=0, select bank1
  3471  0562  0822               	movf	(_F2+2)^(0+128),w
  3472  0563  1283               	bcf	3,5	;RP0=0, select bank0
  3473  0564  1303               	bcf	3,6	;RP1=0, select bank0
  3474  0565  00BC               	movwf	___ftneg@f1+2
  3475  0566  160A  158A  2584  120A  118A  	fcall	___ftneg
  3476  056B  1283               	bcf	3,5	;RP0=0, select bank0
  3477  056C  1303               	bcf	3,6	;RP1=0, select bank0
  3478  056D  083A               	movf	?___ftneg,w
  3479  056E  00C0               	movwf	___ftadd@f2
  3480  056F  083B               	movf	?___ftneg+1,w
  3481  0570  00C1               	movwf	___ftadd@f2+1
  3482  0571  083C               	movf	?___ftneg+2,w
  3483  0572  00C2               	movwf	___ftadd@f2+2
  3484  0573  1683               	bsf	3,5	;RP0=1, select bank1
  3485  0574  1303               	bcf	3,6	;RP1=0, select bank1
  3486  0575  0820               	movf	_F2^(0+128),w
  3487  0576  1283               	bcf	3,5	;RP0=0, select bank0
  3488  0577  1303               	bcf	3,6	;RP1=0, select bank0
  3489  0578  00BD               	movwf	___ftadd@f1
  3490  0579  1683               	bsf	3,5	;RP0=1, select bank1
  3491  057A  1303               	bcf	3,6	;RP1=0, select bank1
  3492  057B  0821               	movf	(_F2+1)^(0+128),w
  3493  057C  1283               	bcf	3,5	;RP0=0, select bank0
  3494  057D  1303               	bcf	3,6	;RP1=0, select bank0
  3495  057E  00BE               	movwf	___ftadd@f1+1
  3496  057F  1683               	bsf	3,5	;RP0=1, select bank1
  3497  0580  1303               	bcf	3,6	;RP1=0, select bank1
  3498  0581  0822               	movf	(_F2+2)^(0+128),w
  3499  0582  1283               	bcf	3,5	;RP0=0, select bank0
  3500  0583  1303               	bcf	3,6	;RP1=0, select bank0
  3501  0584  00BF               	movwf	___ftadd@f1+2
  3502  0585  120A  118A  2046  120A  118A  	fcall	___ftadd
  3503  058A  1283               	bcf	3,5	;RP0=0, select bank0
  3504  058B  1303               	bcf	3,6	;RP1=0, select bank0
  3505  058C  083D               	movf	?___ftadd,w
  3506  058D  00D0               	movwf	_measure_inductance$624
  3507  058E  083E               	movf	?___ftadd+1,w
  3508  058F  00D1               	movwf	_measure_inductance$624+1
  3509  0590  083F               	movf	?___ftadd+2,w
  3510  0591  00D2               	movwf	_measure_inductance$624+2
  3511                           
  3512                           ;main.c: 140: numerator = ((F1*F1)-(F3*F3)) * ((F1*F1)-(F2-F2)) * (100*100);
  3513  0592  0850               	movf	_measure_inductance$624,w
  3514  0593  00BA               	movwf	___ftneg@f1
  3515  0594  0851               	movf	_measure_inductance$624+1,w
  3516  0595  00BB               	movwf	___ftneg@f1+1
  3517  0596  0852               	movf	_measure_inductance$624+2,w
  3518  0597  00BC               	movwf	___ftneg@f1+2
  3519  0598  160A  158A  2584  120A  118A  	fcall	___ftneg
  3520  059D  1283               	bcf	3,5	;RP0=0, select bank0
  3521  059E  1303               	bcf	3,6	;RP1=0, select bank0
  3522  059F  083A               	movf	?___ftneg,w
  3523  05A0  00BD               	movwf	___ftadd@f1
  3524  05A1  083B               	movf	?___ftneg+1,w
  3525  05A2  00BE               	movwf	___ftadd@f1+1
  3526  05A3  083C               	movf	?___ftneg+2,w
  3527  05A4  00BF               	movwf	___ftadd@f1+2
  3528  05A5  086C               	movf	_F1,w
  3529  05A6  00AA               	movwf	___ftmul@f1
  3530  05A7  086D               	movf	_F1+1,w
  3531  05A8  00AB               	movwf	___ftmul@f1+1
  3532  05A9  086E               	movf	_F1+2,w
  3533  05AA  00AC               	movwf	___ftmul@f1+2
  3534  05AB  086C               	movf	_F1,w
  3535  05AC  00AD               	movwf	___ftmul@f2
  3536  05AD  086D               	movf	_F1+1,w
  3537  05AE  00AE               	movwf	___ftmul@f2+1
  3538  05AF  086E               	movf	_F1+2,w
  3539  05B0  00AF               	movwf	___ftmul@f2+2
  3540  05B1  160A  118A  255E  120A  118A  	fcall	___ftmul
  3541  05B6  1283               	bcf	3,5	;RP0=0, select bank0
  3542  05B7  1303               	bcf	3,6	;RP1=0, select bank0
  3543  05B8  082A               	movf	?___ftmul,w
  3544  05B9  00C0               	movwf	___ftadd@f2
  3545  05BA  082B               	movf	?___ftmul+1,w
  3546  05BB  00C1               	movwf	___ftadd@f2+1
  3547  05BC  082C               	movf	?___ftmul+2,w
  3548  05BD  00C2               	movwf	___ftadd@f2+2
  3549  05BE  120A  118A  2046  120A  118A  	fcall	___ftadd
  3550  05C3  1283               	bcf	3,5	;RP0=0, select bank0
  3551  05C4  1303               	bcf	3,6	;RP1=0, select bank0
  3552  05C5  083D               	movf	?___ftadd,w
  3553  05C6  00D9               	movwf	_measure_inductance$625
  3554  05C7  083E               	movf	?___ftadd+1,w
  3555  05C8  00DA               	movwf	_measure_inductance$625+1
  3556  05C9  083F               	movf	?___ftadd+2,w
  3557  05CA  00DB               	movwf	_measure_inductance$625+2
  3558                           
  3559                           ;main.c: 140: numerator = ((F1*F1)-(F3*F3)) * ((F1*F1)-(F2-F2)) * (100*100);
  3560  05CB  0869               	movf	_F3,w
  3561  05CC  00AD               	movwf	___ftmul@f2
  3562  05CD  086A               	movf	_F3+1,w
  3563  05CE  00AE               	movwf	___ftmul@f2+1
  3564  05CF  086B               	movf	_F3+2,w
  3565  05D0  00AF               	movwf	___ftmul@f2+2
  3566  05D1  0869               	movf	_F3,w
  3567  05D2  00AA               	movwf	___ftmul@f1
  3568  05D3  086A               	movf	_F3+1,w
  3569  05D4  00AB               	movwf	___ftmul@f1+1
  3570  05D5  086B               	movf	_F3+2,w
  3571  05D6  00AC               	movwf	___ftmul@f1+2
  3572  05D7  160A  118A  255E  120A  118A  	fcall	___ftmul
  3573  05DC  1283               	bcf	3,5	;RP0=0, select bank0
  3574  05DD  1303               	bcf	3,6	;RP1=0, select bank0
  3575  05DE  082A               	movf	?___ftmul,w
  3576  05DF  00BA               	movwf	___ftneg@f1
  3577  05E0  082B               	movf	?___ftmul+1,w
  3578  05E1  00BB               	movwf	___ftneg@f1+1
  3579  05E2  082C               	movf	?___ftmul+2,w
  3580  05E3  00BC               	movwf	___ftneg@f1+2
  3581  05E4  160A  158A  2584  120A  118A  	fcall	___ftneg
  3582  05E9  1283               	bcf	3,5	;RP0=0, select bank0
  3583  05EA  1303               	bcf	3,6	;RP1=0, select bank0
  3584  05EB  083A               	movf	?___ftneg,w
  3585  05EC  00BD               	movwf	___ftadd@f1
  3586  05ED  083B               	movf	?___ftneg+1,w
  3587  05EE  00BE               	movwf	___ftadd@f1+1
  3588  05EF  083C               	movf	?___ftneg+2,w
  3589  05F0  00BF               	movwf	___ftadd@f1+2
  3590  05F1  086C               	movf	_F1,w
  3591  05F2  00AA               	movwf	___ftmul@f1
  3592  05F3  086D               	movf	_F1+1,w
  3593  05F4  00AB               	movwf	___ftmul@f1+1
  3594  05F5  086E               	movf	_F1+2,w
  3595  05F6  00AC               	movwf	___ftmul@f1+2
  3596  05F7  086C               	movf	_F1,w
  3597  05F8  00AD               	movwf	___ftmul@f2
  3598  05F9  086D               	movf	_F1+1,w
  3599  05FA  00AE               	movwf	___ftmul@f2+1
  3600  05FB  086E               	movf	_F1+2,w
  3601  05FC  00AF               	movwf	___ftmul@f2+2
  3602  05FD  160A  118A  255E  120A  118A  	fcall	___ftmul
  3603  0602  1283               	bcf	3,5	;RP0=0, select bank0
  3604  0603  1303               	bcf	3,6	;RP1=0, select bank0
  3605  0604  082A               	movf	?___ftmul,w
  3606  0605  00C0               	movwf	___ftadd@f2
  3607  0606  082B               	movf	?___ftmul+1,w
  3608  0607  00C1               	movwf	___ftadd@f2+1
  3609  0608  082C               	movf	?___ftmul+2,w
  3610  0609  00C2               	movwf	___ftadd@f2+2
  3611  060A  120A  118A  2046  120A  118A  	fcall	___ftadd
  3612  060F  1283               	bcf	3,5	;RP0=0, select bank0
  3613  0610  1303               	bcf	3,6	;RP1=0, select bank0
  3614  0611  083D               	movf	?___ftadd,w
  3615  0612  00DC               	movwf	_measure_inductance$626
  3616  0613  083E               	movf	?___ftadd+1,w
  3617  0614  00DD               	movwf	_measure_inductance$626+1
  3618  0615  083F               	movf	?___ftadd+2,w
  3619  0616  00DE               	movwf	_measure_inductance$626+2
  3620                           
  3621                           ;main.c: 140: numerator = ((F1*F1)-(F3*F3)) * ((F1*F1)-(F2-F2)) * (100*100);
  3622  0617  0859               	movf	_measure_inductance$625,w
  3623  0618  00AA               	movwf	___ftmul@f1
  3624  0619  085A               	movf	_measure_inductance$625+1,w
  3625  061A  00AB               	movwf	___ftmul@f1+1
  3626  061B  085B               	movf	_measure_inductance$625+2,w
  3627  061C  00AC               	movwf	___ftmul@f1+2
  3628  061D  085C               	movf	_measure_inductance$626,w
  3629  061E  00AD               	movwf	___ftmul@f2
  3630  061F  085D               	movf	_measure_inductance$626+1,w
  3631  0620  00AE               	movwf	___ftmul@f2+1
  3632  0621  085E               	movf	_measure_inductance$626+2,w
  3633  0622  00AF               	movwf	___ftmul@f2+2
  3634  0623  160A  118A  255E  120A  118A  	fcall	___ftmul
  3635  0628  1283               	bcf	3,5	;RP0=0, select bank0
  3636  0629  1303               	bcf	3,6	;RP1=0, select bank0
  3637  062A  082A               	movf	?___ftmul,w
  3638  062B  00DF               	movwf	_measure_inductance$627
  3639  062C  082B               	movf	?___ftmul+1,w
  3640  062D  00E0               	movwf	_measure_inductance$627+1
  3641  062E  082C               	movf	?___ftmul+2,w
  3642  062F  00E1               	movwf	_measure_inductance$627+2
  3643                           
  3644                           ;main.c: 140: numerator = ((F1*F1)-(F3*F3)) * ((F1*F1)-(F2-F2)) * (100*100);
  3645  0630  3040               	movlw	64
  3646  0631  00AA               	movwf	___ftmul@f1
  3647  0632  301C               	movlw	28
  3648  0633  00AB               	movwf	___ftmul@f1+1
  3649  0634  3046               	movlw	70
  3650  0635  00AC               	movwf	___ftmul@f1+2
  3651  0636  085F               	movf	_measure_inductance$627,w
  3652  0637  00AD               	movwf	___ftmul@f2
  3653  0638  0860               	movf	_measure_inductance$627+1,w
  3654  0639  00AE               	movwf	___ftmul@f2+1
  3655  063A  0861               	movf	_measure_inductance$627+2,w
  3656  063B  00AF               	movwf	___ftmul@f2+2
  3657  063C  160A  118A  255E  120A  118A  	fcall	___ftmul
  3658  0641  1283               	bcf	3,5	;RP0=0, select bank0
  3659  0642  1303               	bcf	3,6	;RP1=0, select bank0
  3660  0643  082A               	movf	?___ftmul,w
  3661  0644  00CA               	movwf	measure_inductance@numerator
  3662  0645  082B               	movf	?___ftmul+1,w
  3663  0646  00CB               	movwf	measure_inductance@numerator+1
  3664  0647  082C               	movf	?___ftmul+2,w
  3665  0648  00CC               	movwf	measure_inductance@numerator+2
  3666                           
  3667                           ;main.c: 141: denominator = 4*3.14159*3.14159*F1*F1*F2*F2*F3*F3*1000;
  3668  0649  086C               	movf	_F1,w
  3669  064A  00AA               	movwf	___ftmul@f1
  3670  064B  086D               	movf	_F1+1,w
  3671  064C  00AB               	movwf	___ftmul@f1+1
  3672  064D  086E               	movf	_F1+2,w
  3673  064E  00AC               	movwf	___ftmul@f1+2
  3674  064F  086C               	movf	_F1,w
  3675  0650  00AD               	movwf	___ftmul@f2
  3676  0651  086D               	movf	_F1+1,w
  3677  0652  00AE               	movwf	___ftmul@f2+1
  3678  0653  086E               	movf	_F1+2,w
  3679  0654  00AF               	movwf	___ftmul@f2+2
  3680  0655  160A  118A  255E  120A  118A  	fcall	___ftmul
  3681  065A  1283               	bcf	3,5	;RP0=0, select bank0
  3682  065B  1303               	bcf	3,6	;RP1=0, select bank0
  3683  065C  082A               	movf	?___ftmul,w
  3684  065D  00D3               	movwf	_measure_inductance$628
  3685  065E  082B               	movf	?___ftmul+1,w
  3686  065F  00D4               	movwf	_measure_inductance$628+1
  3687  0660  082C               	movf	?___ftmul+2,w
  3688  0661  00D5               	movwf	_measure_inductance$628+2
  3689                           
  3690                           ;main.c: 141: denominator = 4*3.14159*3.14159*F1*F1*F2*F2*F3*F3*1000;
  3691  0662  1683               	bsf	3,5	;RP0=1, select bank1
  3692  0663  1303               	bcf	3,6	;RP1=0, select bank1
  3693  0664  0820               	movf	_F2^(0+128),w
  3694  0665  1283               	bcf	3,5	;RP0=0, select bank0
  3695  0666  1303               	bcf	3,6	;RP1=0, select bank0
  3696  0667  00AA               	movwf	___ftmul@f1
  3697  0668  1683               	bsf	3,5	;RP0=1, select bank1
  3698  0669  1303               	bcf	3,6	;RP1=0, select bank1
  3699  066A  0821               	movf	(_F2+1)^(0+128),w
  3700  066B  1283               	bcf	3,5	;RP0=0, select bank0
  3701  066C  1303               	bcf	3,6	;RP1=0, select bank0
  3702  066D  00AB               	movwf	___ftmul@f1+1
  3703  066E  1683               	bsf	3,5	;RP0=1, select bank1
  3704  066F  1303               	bcf	3,6	;RP1=0, select bank1
  3705  0670  0822               	movf	(_F2+2)^(0+128),w
  3706  0671  1283               	bcf	3,5	;RP0=0, select bank0
  3707  0672  1303               	bcf	3,6	;RP1=0, select bank0
  3708  0673  00AC               	movwf	___ftmul@f1+2
  3709  0674  0853               	movf	_measure_inductance$628,w
  3710  0675  00AD               	movwf	___ftmul@f2
  3711  0676  0854               	movf	_measure_inductance$628+1,w
  3712  0677  00AE               	movwf	___ftmul@f2+1
  3713  0678  0855               	movf	_measure_inductance$628+2,w
  3714  0679  00AF               	movwf	___ftmul@f2+2
  3715  067A  160A  118A  255E  120A  118A  	fcall	___ftmul
  3716  067F  1283               	bcf	3,5	;RP0=0, select bank0
  3717  0680  1303               	bcf	3,6	;RP1=0, select bank0
  3718  0681  082A               	movf	?___ftmul,w
  3719  0682  00D9               	movwf	_measure_inductance$625
  3720  0683  082B               	movf	?___ftmul+1,w
  3721  0684  00DA               	movwf	_measure_inductance$625+1
  3722  0685  082C               	movf	?___ftmul+2,w
  3723  0686  00DB               	movwf	_measure_inductance$625+2
  3724                           
  3725                           ;main.c: 141: denominator = 4*3.14159*3.14159*F1*F1*F2*F2*F3*F3*1000;
  3726  0687  1683               	bsf	3,5	;RP0=1, select bank1
  3727  0688  1303               	bcf	3,6	;RP1=0, select bank1
  3728  0689  0820               	movf	_F2^(0+128),w
  3729  068A  1283               	bcf	3,5	;RP0=0, select bank0
  3730  068B  1303               	bcf	3,6	;RP1=0, select bank0
  3731  068C  00AA               	movwf	___ftmul@f1
  3732  068D  1683               	bsf	3,5	;RP0=1, select bank1
  3733  068E  1303               	bcf	3,6	;RP1=0, select bank1
  3734  068F  0821               	movf	(_F2+1)^(0+128),w
  3735  0690  1283               	bcf	3,5	;RP0=0, select bank0
  3736  0691  1303               	bcf	3,6	;RP1=0, select bank0
  3737  0692  00AB               	movwf	___ftmul@f1+1
  3738  0693  1683               	bsf	3,5	;RP0=1, select bank1
  3739  0694  1303               	bcf	3,6	;RP1=0, select bank1
  3740  0695  0822               	movf	(_F2+2)^(0+128),w
  3741  0696  1283               	bcf	3,5	;RP0=0, select bank0
  3742  0697  1303               	bcf	3,6	;RP1=0, select bank0
  3743  0698  00AC               	movwf	___ftmul@f1+2
  3744  0699  0859               	movf	_measure_inductance$625,w
  3745  069A  00AD               	movwf	___ftmul@f2
  3746  069B  085A               	movf	_measure_inductance$625+1,w
  3747  069C  00AE               	movwf	___ftmul@f2+1
  3748  069D  085B               	movf	_measure_inductance$625+2,w
  3749  069E  00AF               	movwf	___ftmul@f2+2
  3750  069F  160A  118A  255E  120A  118A  	fcall	___ftmul
  3751  06A4  1283               	bcf	3,5	;RP0=0, select bank0
  3752  06A5  1303               	bcf	3,6	;RP1=0, select bank0
  3753  06A6  082A               	movf	?___ftmul,w
  3754  06A7  00DC               	movwf	_measure_inductance$626
  3755  06A8  082B               	movf	?___ftmul+1,w
  3756  06A9  00DD               	movwf	_measure_inductance$626+1
  3757  06AA  082C               	movf	?___ftmul+2,w
  3758  06AB  00DE               	movwf	_measure_inductance$626+2
  3759                           
  3760                           ;main.c: 141: denominator = 4*3.14159*3.14159*F1*F1*F2*F2*F3*F3*1000;
  3761  06AC  0869               	movf	_F3,w
  3762  06AD  00AA               	movwf	___ftmul@f1
  3763  06AE  086A               	movf	_F3+1,w
  3764  06AF  00AB               	movwf	___ftmul@f1+1
  3765  06B0  086B               	movf	_F3+2,w
  3766  06B1  00AC               	movwf	___ftmul@f1+2
  3767  06B2  085C               	movf	_measure_inductance$626,w
  3768  06B3  00AD               	movwf	___ftmul@f2
  3769  06B4  085D               	movf	_measure_inductance$626+1,w
  3770  06B5  00AE               	movwf	___ftmul@f2+1
  3771  06B6  085E               	movf	_measure_inductance$626+2,w
  3772  06B7  00AF               	movwf	___ftmul@f2+2
  3773  06B8  160A  118A  255E  120A  118A  	fcall	___ftmul
  3774  06BD  1283               	bcf	3,5	;RP0=0, select bank0
  3775  06BE  1303               	bcf	3,6	;RP1=0, select bank0
  3776  06BF  082A               	movf	?___ftmul,w
  3777  06C0  00DF               	movwf	_measure_inductance$627
  3778  06C1  082B               	movf	?___ftmul+1,w
  3779  06C2  00E0               	movwf	_measure_inductance$627+1
  3780  06C3  082C               	movf	?___ftmul+2,w
  3781  06C4  00E1               	movwf	_measure_inductance$627+2
  3782                           
  3783                           ;main.c: 141: denominator = 4*3.14159*3.14159*F1*F1*F2*F2*F3*F3*1000;
  3784  06C5  0869               	movf	_F3,w
  3785  06C6  00AA               	movwf	___ftmul@f1
  3786  06C7  086A               	movf	_F3+1,w
  3787  06C8  00AB               	movwf	___ftmul@f1+1
  3788  06C9  086B               	movf	_F3+2,w
  3789  06CA  00AC               	movwf	___ftmul@f1+2
  3790  06CB  085F               	movf	_measure_inductance$627,w
  3791  06CC  00AD               	movwf	___ftmul@f2
  3792  06CD  0860               	movf	_measure_inductance$627+1,w
  3793  06CE  00AE               	movwf	___ftmul@f2+1
  3794  06CF  0861               	movf	_measure_inductance$627+2,w
  3795  06D0  00AF               	movwf	___ftmul@f2+2
  3796  06D1  160A  118A  255E  120A  118A  	fcall	___ftmul
  3797  06D6  1283               	bcf	3,5	;RP0=0, select bank0
  3798  06D7  1303               	bcf	3,6	;RP1=0, select bank0
  3799  06D8  082A               	movf	?___ftmul,w
  3800  06D9  00D6               	movwf	_measure_inductance$629
  3801  06DA  082B               	movf	?___ftmul+1,w
  3802  06DB  00D7               	movwf	_measure_inductance$629+1
  3803  06DC  082C               	movf	?___ftmul+2,w
  3804  06DD  00D8               	movwf	_measure_inductance$629+2
  3805                           
  3806                           ;main.c: 141: denominator = 4*3.14159*3.14159*F1*F1*F2*F2*F3*F3*1000;
  3807  06DE  3036               	movlw	54
  3808  06DF  00AA               	movwf	___ftmul@f1
  3809  06E0  301A               	movlw	26
  3810  06E1  00AB               	movwf	___ftmul@f1+1
  3811  06E2  3047               	movlw	71
  3812  06E3  00AC               	movwf	___ftmul@f1+2
  3813  06E4  0856               	movf	_measure_inductance$629,w
  3814  06E5  00AD               	movwf	___ftmul@f2
  3815  06E6  0857               	movf	_measure_inductance$629+1,w
  3816  06E7  00AE               	movwf	___ftmul@f2+1
  3817  06E8  0858               	movf	_measure_inductance$629+2,w
  3818  06E9  00AF               	movwf	___ftmul@f2+2
  3819  06EA  160A  118A  255E  120A  118A  	fcall	___ftmul
  3820  06EF  1283               	bcf	3,5	;RP0=0, select bank0
  3821  06F0  1303               	bcf	3,6	;RP1=0, select bank0
  3822  06F1  082A               	movf	?___ftmul,w
  3823  06F2  00CD               	movwf	measure_inductance@denominator
  3824  06F3  082B               	movf	?___ftmul+1,w
  3825  06F4  00CE               	movwf	measure_inductance@denominator+1
  3826  06F5  082C               	movf	?___ftmul+2,w
  3827  06F6  00CF               	movwf	measure_inductance@denominator+2
  3828                           
  3829                           ;main.c: 142: Lin = (numerator/denominator) * 1E15;
  3830  06F7  3060               	movlw	96
  3831  06F8  00AA               	movwf	___ftmul@f1
  3832  06F9  3063               	movlw	99
  3833  06FA  00AB               	movwf	___ftmul@f1+1
  3834  06FB  3058               	movlw	88
  3835  06FC  00AC               	movwf	___ftmul@f1+2
  3836  06FD  084D               	movf	measure_inductance@denominator,w
  3837  06FE  00F8               	movwf	___ftdiv@f2
  3838  06FF  084E               	movf	measure_inductance@denominator+1,w
  3839  0700  00F9               	movwf	___ftdiv@f2+1
  3840  0701  084F               	movf	measure_inductance@denominator+2,w
  3841  0702  00FA               	movwf	___ftdiv@f2+2
  3842  0703  084A               	movf	measure_inductance@numerator,w
  3843  0704  00FB               	movwf	___ftdiv@f1
  3844  0705  084B               	movf	measure_inductance@numerator+1,w
  3845  0706  00FC               	movwf	___ftdiv@f1+1
  3846  0707  084C               	movf	measure_inductance@numerator+2,w
  3847  0708  00FD               	movwf	___ftdiv@f1+2
  3848  0709  160A  118A  24A8  120A  118A  	fcall	___ftdiv
  3849  070E  0878               	movf	?___ftdiv,w
  3850  070F  1283               	bcf	3,5	;RP0=0, select bank0
  3851  0710  1303               	bcf	3,6	;RP1=0, select bank0
  3852  0711  00AD               	movwf	___ftmul@f2
  3853  0712  0879               	movf	?___ftdiv+1,w
  3854  0713  00AE               	movwf	___ftmul@f2+1
  3855  0714  087A               	movf	?___ftdiv+2,w
  3856  0715  00AF               	movwf	___ftmul@f2+2
  3857  0716  160A  118A  255E  120A  118A  	fcall	___ftmul
  3858  071B  1283               	bcf	3,5	;RP0=0, select bank0
  3859  071C  1303               	bcf	3,6	;RP1=0, select bank0
  3860  071D  082A               	movf	?___ftmul,w
  3861  071E  00E4               	movwf	measure_inductance@Lin
  3862  071F  082B               	movf	?___ftmul+1,w
  3863  0720  00E5               	movwf	measure_inductance@Lin+1
  3864  0721  082C               	movf	?___ftmul+2,w
  3865  0722  00E6               	movwf	measure_inductance@Lin+2
  3866                           
  3867                           ;main.c: 143: if(Lin>999)
  3868  0723  30C0               	movlw	192
  3869  0724  00F0               	movwf	___ftge@ff1
  3870  0725  3079               	movlw	121
  3871  0726  00F1               	movwf	___ftge@ff1+1
  3872  0727  3044               	movlw	68
  3873  0728  00F2               	movwf	___ftge@ff1+2
  3874  0729  0864               	movf	measure_inductance@Lin,w
  3875  072A  00F3               	movwf	___ftge@ff2
  3876  072B  0865               	movf	measure_inductance@Lin+1,w
  3877  072C  00F4               	movwf	___ftge@ff2+1
  3878  072D  0866               	movf	measure_inductance@Lin+2,w
  3879  072E  00F5               	movwf	___ftge@ff2+2
  3880  072F  160A  158A  26D1  120A  118A  	fcall	___ftge
  3881  0734  1803               	btfsc	3,0
  3882  0735  2FB7               	goto	l2312
  3883                           
  3884                           ;main.c: 144: {
  3885                           ;main.c: 145: if(Lin>(999E3))
  3886  0736  30E6               	movlw	230
  3887  0737  00F0               	movwf	___ftge@ff1
  3888  0738  3073               	movlw	115
  3889  0739  00F1               	movwf	___ftge@ff1+1
  3890  073A  3049               	movlw	73
  3891  073B  00F2               	movwf	___ftge@ff1+2
  3892  073C  1283               	bcf	3,5	;RP0=0, select bank0
  3893  073D  1303               	bcf	3,6	;RP1=0, select bank0
  3894  073E  0864               	movf	measure_inductance@Lin,w
  3895  073F  00F3               	movwf	___ftge@ff2
  3896  0740  0865               	movf	measure_inductance@Lin+1,w
  3897  0741  00F4               	movwf	___ftge@ff2+1
  3898  0742  0866               	movf	measure_inductance@Lin+2,w
  3899  0743  00F5               	movwf	___ftge@ff2+2
  3900  0744  160A  158A  26D1  120A  118A  	fcall	___ftge
  3901  0749  1803               	btfsc	3,0
  3902  074A  2F9A               	goto	l2308
  3903                           
  3904                           ;main.c: 146: {
  3905                           ;main.c: 147: if(Lin>(999E6))
  3906  074B  302E               	movlw	46
  3907  074C  00F0               	movwf	___ftge@ff1
  3908  074D  306E               	movlw	110
  3909  074E  00F1               	movwf	___ftge@ff1+1
  3910  074F  304E               	movlw	78
  3911  0750  00F2               	movwf	___ftge@ff1+2
  3912  0751  1283               	bcf	3,5	;RP0=0, select bank0
  3913  0752  1303               	bcf	3,6	;RP1=0, select bank0
  3914  0753  0864               	movf	measure_inductance@Lin,w
  3915  0754  00F3               	movwf	___ftge@ff2
  3916  0755  0865               	movf	measure_inductance@Lin+1,w
  3917  0756  00F4               	movwf	___ftge@ff2+1
  3918  0757  0866               	movf	measure_inductance@Lin+2,w
  3919  0758  00F5               	movwf	___ftge@ff2+2
  3920  0759  160A  158A  26D1  120A  118A  	fcall	___ftge
  3921  075E  1803               	btfsc	3,0
  3922  075F  2F7D               	goto	l2304
  3923                           
  3924                           ;main.c: 148: {
  3925                           ;main.c: 149: Lin = Lin / (1E9);
  3926  0760  306B               	movlw	107
  3927  0761  00F8               	movwf	___ftdiv@f2
  3928  0762  306E               	movlw	110
  3929  0763  00F9               	movwf	___ftdiv@f2+1
  3930  0764  304E               	movlw	78
  3931  0765  00FA               	movwf	___ftdiv@f2+2
  3932  0766  1283               	bcf	3,5	;RP0=0, select bank0
  3933  0767  1303               	bcf	3,6	;RP1=0, select bank0
  3934  0768  0864               	movf	measure_inductance@Lin,w
  3935  0769  00FB               	movwf	___ftdiv@f1
  3936  076A  0865               	movf	measure_inductance@Lin+1,w
  3937  076B  00FC               	movwf	___ftdiv@f1+1
  3938  076C  0866               	movf	measure_inductance@Lin+2,w
  3939  076D  00FD               	movwf	___ftdiv@f1+2
  3940  076E  160A  118A  24A8  120A  118A  	fcall	___ftdiv
  3941  0773  0878               	movf	?___ftdiv,w
  3942  0774  1283               	bcf	3,5	;RP0=0, select bank0
  3943  0775  1303               	bcf	3,6	;RP1=0, select bank0
  3944  0776  00E4               	movwf	measure_inductance@Lin
  3945  0777  0879               	movf	?___ftdiv+1,w
  3946  0778  00E5               	movwf	measure_inductance@Lin+1
  3947  0779  087A               	movf	?___ftdiv+2,w
  3948  077A  00E6               	movwf	measure_inductance@Lin+2
  3949                           
  3950                           ;main.c: 150: display_unit(0);
  3951  077B  3000               	movlw	0
  3952  077C  2FB8               	goto	L1
  3953  077D                     l2304:	
  3954                           ;main.c: 151: }
  3955                           
  3956                           
  3957                           ;main.c: 152: else
  3958                           ;main.c: 153: {
  3959                           ;main.c: 154: Lin = Lin / (1E6);
  3960  077D  3024               	movlw	36
  3961  077E  00F8               	movwf	___ftdiv@f2
  3962  077F  3074               	movlw	116
  3963  0780  00F9               	movwf	___ftdiv@f2+1
  3964  0781  3049               	movlw	73
  3965  0782  00FA               	movwf	___ftdiv@f2+2
  3966  0783  1283               	bcf	3,5	;RP0=0, select bank0
  3967  0784  1303               	bcf	3,6	;RP1=0, select bank0
  3968  0785  0864               	movf	measure_inductance@Lin,w
  3969  0786  00FB               	movwf	___ftdiv@f1
  3970  0787  0865               	movf	measure_inductance@Lin+1,w
  3971  0788  00FC               	movwf	___ftdiv@f1+1
  3972  0789  0866               	movf	measure_inductance@Lin+2,w
  3973  078A  00FD               	movwf	___ftdiv@f1+2
  3974  078B  160A  118A  24A8  120A  118A  	fcall	___ftdiv
  3975  0790  0878               	movf	?___ftdiv,w
  3976  0791  1283               	bcf	3,5	;RP0=0, select bank0
  3977  0792  1303               	bcf	3,6	;RP1=0, select bank0
  3978  0793  00E4               	movwf	measure_inductance@Lin
  3979  0794  0879               	movf	?___ftdiv+1,w
  3980  0795  00E5               	movwf	measure_inductance@Lin+1
  3981  0796  087A               	movf	?___ftdiv+2,w
  3982  0797  00E6               	movwf	measure_inductance@Lin+2
  3983                           
  3984                           ;main.c: 155: display_unit(1);
  3985  0798  3001               	movlw	1
  3986  0799  2FB8               	goto	L1
  3987  079A                     l2308:	
  3988                           ;main.c: 156: }
  3989                           ;main.c: 157: }
  3990                           
  3991                           
  3992                           ;main.c: 158: else
  3993                           ;main.c: 159: {
  3994                           ;main.c: 160: Lin = Lin/1E3;
  3995  079A  3000               	movlw	0
  3996  079B  00F8               	movwf	___ftdiv@f2
  3997  079C  307A               	movlw	122
  3998  079D  00F9               	movwf	___ftdiv@f2+1
  3999  079E  3044               	movlw	68
  4000  079F  00FA               	movwf	___ftdiv@f2+2
  4001  07A0  1283               	bcf	3,5	;RP0=0, select bank0
  4002  07A1  1303               	bcf	3,6	;RP1=0, select bank0
  4003  07A2  0864               	movf	measure_inductance@Lin,w
  4004  07A3  00FB               	movwf	___ftdiv@f1
  4005  07A4  0865               	movf	measure_inductance@Lin+1,w
  4006  07A5  00FC               	movwf	___ftdiv@f1+1
  4007  07A6  0866               	movf	measure_inductance@Lin+2,w
  4008  07A7  00FD               	movwf	___ftdiv@f1+2
  4009  07A8  160A  118A  24A8  120A  118A  	fcall	___ftdiv
  4010  07AD  0878               	movf	?___ftdiv,w
  4011  07AE  1283               	bcf	3,5	;RP0=0, select bank0
  4012  07AF  1303               	bcf	3,6	;RP1=0, select bank0
  4013  07B0  00E4               	movwf	measure_inductance@Lin
  4014  07B1  0879               	movf	?___ftdiv+1,w
  4015  07B2  00E5               	movwf	measure_inductance@Lin+1
  4016  07B3  087A               	movf	?___ftdiv+2,w
  4017  07B4  00E6               	movwf	measure_inductance@Lin+2
  4018                           
  4019                           ;main.c: 161: display_unit(2);
  4020  07B5  3002               	movlw	2
  4021  07B6  2FB8               	goto	L1
  4022  07B7                     l2312:	
  4023                           ;main.c: 162: }
  4024                           ;main.c: 163: }
  4025                           
  4026                           
  4027                           ;main.c: 164: else display_unit(3);
  4028  07B7  3003               	movlw	3
  4029  07B8                     L1:	
  4030  07B8  160A  118A  237B  120A  118A  	fcall	_display_unit
  4031                           
  4032                           ;main.c: 165: Lin = Lin*100;
  4033  07BD  3000               	movlw	0
  4034  07BE  1283               	bcf	3,5	;RP0=0, select bank0
  4035  07BF  1303               	bcf	3,6	;RP1=0, select bank0
  4036  07C0  00AA               	movwf	___ftmul@f1
  4037  07C1  30C8               	movlw	200
  4038  07C2  00AB               	movwf	___ftmul@f1+1
  4039  07C3  3042               	movlw	66
  4040  07C4  00AC               	movwf	___ftmul@f1+2
  4041  07C5  0864               	movf	measure_inductance@Lin,w
  4042  07C6  00AD               	movwf	___ftmul@f2
  4043  07C7  0865               	movf	measure_inductance@Lin+1,w
  4044  07C8  00AE               	movwf	___ftmul@f2+1
  4045  07C9  0866               	movf	measure_inductance@Lin+2,w
  4046  07CA  00AF               	movwf	___ftmul@f2+2
  4047  07CB  160A  118A  255E  120A  118A  	fcall	___ftmul
  4048  07D0  1283               	bcf	3,5	;RP0=0, select bank0
  4049  07D1  1303               	bcf	3,6	;RP1=0, select bank0
  4050  07D2  082A               	movf	?___ftmul,w
  4051  07D3  00E4               	movwf	measure_inductance@Lin
  4052  07D4  082B               	movf	?___ftmul+1,w
  4053  07D5  00E5               	movwf	measure_inductance@Lin+1
  4054  07D6  082C               	movf	?___ftmul+2,w
  4055  07D7  00E6               	movwf	measure_inductance@Lin+2
  4056                           
  4057                           ;main.c: 166: var = (unsigned int)Lin;
  4058  07D8  0864               	movf	measure_inductance@Lin,w
  4059  07D9  00F0               	movwf	___fttol@f1
  4060  07DA  0865               	movf	measure_inductance@Lin+1,w
  4061  07DB  00F1               	movwf	___fttol@f1+1
  4062  07DC  0866               	movf	measure_inductance@Lin+2,w
  4063  07DD  00F2               	movwf	___fttol@f1+2
  4064  07DE  160A  118A  22EF  120A  118A  	fcall	___fttol
  4065  07E3  0871               	movf	?___fttol+1,w
  4066  07E4  1283               	bcf	3,5	;RP0=0, select bank0
  4067  07E5  1303               	bcf	3,6	;RP1=0, select bank0
  4068  07E6  00E3               	movwf	measure_inductance@var+1
  4069  07E7  0870               	movf	?___fttol,w
  4070  07E8  00E2               	movwf	measure_inductance@var
  4071                           
  4072                           ;main.c: 167: display_reading(var);
  4073  07E9  0863               	movf	measure_inductance@var+1,w
  4074  07EA  00A7               	movwf	display_reading@measurement+1
  4075  07EB  0862               	movf	measure_inductance@var,w
  4076  07EC  00A6               	movwf	display_reading@measurement
  4077  07ED  120A  118A  214F   	fcall	_display_reading
  4078  07F0  0008               	return
  4079  07F1                     __end_of_measure_inductance:	
  4080                           
  4081                           	psect	text2
  4082  029E                     __ptext2:	
  4083 ;; *************** function _measure_capacitance *****************
  4084 ;; Defined at:
  4085 ;;		line 95 in file "../main.c"
  4086 ;; Parameters:    Size  Location     Type
  4087 ;;		None
  4088 ;; Auto vars:     Size  Location     Type
  4089 ;;  Cin             3   59[BANK0 ] unsigned int 
  4090 ;;  var             2   57[BANK0 ] unsigned int 
  4091 ;; Return value:  Size  Location     Type
  4092 ;;		None               void
  4093 ;; Registers used:
  4094 ;;		wreg, fsr0l, fsr0h, status,2, status,0, btemp+1, pclath, cstack
  4095 ;; Tracked objects:
  4096 ;;		On entry : 0/0
  4097 ;;		On exit  : 0/0
  4098 ;;		Unchanged: 0/0
  4099 ;; Data sizes:     COMMON   BANK0   BANK1   BANK3   BANK2
  4100 ;;      Params:         0       0       0       0       0
  4101 ;;      Locals:         0      20       0       0       0
  4102 ;;      Temps:          0       0       0       0       0
  4103 ;;      Totals:         0      20       0       0       0
  4104 ;;Total ram usage:       20 bytes
  4105 ;; Hardware stack levels used:    1
  4106 ;; Hardware stack levels required when called:    4
  4107 ;; This function calls:
  4108 ;;		___ftadd
  4109 ;;		___ftdiv
  4110 ;;		___ftge
  4111 ;;		___ftmul
  4112 ;;		___ftneg
  4113 ;;		___fttol
  4114 ;;		___lwtoft
  4115 ;;		_display_reading
  4116 ;;		_display_unit
  4117 ;;		_lcd_gotoxy
  4118 ;;		_lcd_puts
  4119 ;;		_measure_freq
  4120 ;; This function is called by:
  4121 ;;		_main
  4122 ;; This function uses a non-reentrant model
  4123 ;;
  4124                           
  4125                           
  4126                           ;psect for function _measure_capacitance
  4127  029E                     _measure_capacitance:	
  4128                           
  4129                           ;main.c: 97: unsigned int var;
  4130                           ;main.c: 98: double Cin;
  4131                           ;main.c: 99: lcd_gotoxy(7,5);
  4132                           
  4133                           ;incstack = 0
  4134                           ; Regs used in _measure_capacitance: [wreg-fsr0h+status,2+status,0+btemp+1+pclath+cstack
      +                          ]
  4135  029E  3005               	movlw	5
  4136  029F  00F8               	movwf	lcd_gotoxy@y
  4137  02A0  3000               	movlw	0
  4138  02A1  00F9               	movwf	lcd_gotoxy@y+1
  4139  02A2  3007               	movlw	7
  4140  02A3  160A  158A  258E  120A  118A  	fcall	_lcd_gotoxy
  4141                           
  4142                           ;main.c: 100: lcd_puts(" capacitance");
  4143  02A8  307E               	movlw	low (STR_4| (0+32768))
  4144  02A9  00FB               	movwf	lcd_puts@s
  4145  02AA  3091               	movlw	high (STR_4| (0+32768))
  4146  02AB  00FC               	movwf	lcd_puts@s+1
  4147  02AC  160A  158A  2627  120A  118A  	fcall	_lcd_puts
  4148                           
  4149                           ;main.c: 101: var = measure_freq();
  4150  02B1  160A  158A  272E  120A  118A  	fcall	_measure_freq
  4151  02B6  0875               	movf	?_measure_freq+1,w
  4152  02B7  1283               	bcf	3,5	;RP0=0, select bank0
  4153  02B8  1303               	bcf	3,6	;RP1=0, select bank0
  4154  02B9  00DA               	movwf	measure_capacitance@var+1
  4155  02BA  0874               	movf	?_measure_freq,w
  4156  02BB  00D9               	movwf	measure_capacitance@var
  4157                           
  4158                           ;main.c: 102: F3 = (double)var;
  4159  02BC  085A               	movf	measure_capacitance@var+1,w
  4160  02BD  00A5               	movwf	___lwtoft@c+1
  4161  02BE  0859               	movf	measure_capacitance@var,w
  4162  02BF  00A4               	movwf	___lwtoft@c
  4163  02C0  160A  158A  25B3  120A  118A  	fcall	___lwtoft
  4164  02C5  1283               	bcf	3,5	;RP0=0, select bank0
  4165  02C6  1303               	bcf	3,6	;RP1=0, select bank0
  4166  02C7  0824               	movf	?___lwtoft,w
  4167  02C8  00E9               	movwf	_F3
  4168  02C9  0825               	movf	?___lwtoft+1,w
  4169  02CA  00EA               	movwf	_F3+1
  4170  02CB  0826               	movf	?___lwtoft+2,w
  4171  02CC  00EB               	movwf	_F3+2
  4172                           
  4173                           ;main.c: 103: if(F3>F1) F3 = F1;
  4174  02CD  086C               	movf	_F1,w
  4175  02CE  00F0               	movwf	___ftge@ff1
  4176  02CF  086D               	movf	_F1+1,w
  4177  02D0  00F1               	movwf	___ftge@ff1+1
  4178  02D1  086E               	movf	_F1+2,w
  4179  02D2  00F2               	movwf	___ftge@ff1+2
  4180  02D3  0869               	movf	_F3,w
  4181  02D4  00F3               	movwf	___ftge@ff2
  4182  02D5  086A               	movf	_F3+1,w
  4183  02D6  00F4               	movwf	___ftge@ff2+1
  4184  02D7  086B               	movf	_F3+2,w
  4185  02D8  00F5               	movwf	___ftge@ff2+2
  4186  02D9  160A  158A  26D1  120A  118A  	fcall	___ftge
  4187  02DE  1803               	btfsc	3,0
  4188  02DF  2AE8               	goto	l2222
  4189  02E0  1283               	bcf	3,5	;RP0=0, select bank0
  4190  02E1  1303               	bcf	3,6	;RP1=0, select bank0
  4191  02E2  086C               	movf	_F1,w
  4192  02E3  00E9               	movwf	_F3
  4193  02E4  086D               	movf	_F1+1,w
  4194  02E5  00EA               	movwf	_F3+1
  4195  02E6  086E               	movf	_F1+2,w
  4196  02E7  00EB               	movwf	_F3+2
  4197  02E8                     l2222:	
  4198                           
  4199                           ;main.c: 104: Cin = F2*F2*(F1*F1 - F3*F3)*1000/(F3*F3*(F1*F1-F2*F2));
  4200  02E8  1283               	bcf	3,5	;RP0=0, select bank0
  4201  02E9  1303               	bcf	3,6	;RP1=0, select bank0
  4202  02EA  0869               	movf	_F3,w
  4203  02EB  00AA               	movwf	___ftmul@f1
  4204  02EC  086A               	movf	_F3+1,w
  4205  02ED  00AB               	movwf	___ftmul@f1+1
  4206  02EE  086B               	movf	_F3+2,w
  4207  02EF  00AC               	movwf	___ftmul@f1+2
  4208  02F0  0869               	movf	_F3,w
  4209  02F1  00AD               	movwf	___ftmul@f2
  4210  02F2  086A               	movf	_F3+1,w
  4211  02F3  00AE               	movwf	___ftmul@f2+1
  4212  02F4  086B               	movf	_F3+2,w
  4213  02F5  00AF               	movwf	___ftmul@f2+2
  4214  02F6  160A  118A  255E  120A  118A  	fcall	___ftmul
  4215  02FB  1283               	bcf	3,5	;RP0=0, select bank0
  4216  02FC  1303               	bcf	3,6	;RP1=0, select bank0
  4217  02FD  082A               	movf	?___ftmul,w
  4218  02FE  00CA               	movwf	_measure_capacitance$619
  4219  02FF  082B               	movf	?___ftmul+1,w
  4220  0300  00CB               	movwf	_measure_capacitance$619+1
  4221  0301  082C               	movf	?___ftmul+2,w
  4222  0302  00CC               	movwf	_measure_capacitance$619+2
  4223                           
  4224                           ;main.c: 104: Cin = F2*F2*(F1*F1 - F3*F3)*1000/(F3*F3*(F1*F1-F2*F2));
  4225  0303  1683               	bsf	3,5	;RP0=1, select bank1
  4226  0304  1303               	bcf	3,6	;RP1=0, select bank1
  4227  0305  0820               	movf	_F2^(0+128),w
  4228  0306  1283               	bcf	3,5	;RP0=0, select bank0
  4229  0307  1303               	bcf	3,6	;RP1=0, select bank0
  4230  0308  00AD               	movwf	___ftmul@f2
  4231  0309  1683               	bsf	3,5	;RP0=1, select bank1
  4232  030A  1303               	bcf	3,6	;RP1=0, select bank1
  4233  030B  0821               	movf	(_F2+1)^(0+128),w
  4234  030C  1283               	bcf	3,5	;RP0=0, select bank0
  4235  030D  1303               	bcf	3,6	;RP1=0, select bank0
  4236  030E  00AE               	movwf	___ftmul@f2+1
  4237  030F  1683               	bsf	3,5	;RP0=1, select bank1
  4238  0310  1303               	bcf	3,6	;RP1=0, select bank1
  4239  0311  0822               	movf	(_F2+2)^(0+128),w
  4240  0312  1283               	bcf	3,5	;RP0=0, select bank0
  4241  0313  1303               	bcf	3,6	;RP1=0, select bank0
  4242  0314  00AF               	movwf	___ftmul@f2+2
  4243  0315  1683               	bsf	3,5	;RP0=1, select bank1
  4244  0316  1303               	bcf	3,6	;RP1=0, select bank1
  4245  0317  0820               	movf	_F2^(0+128),w
  4246  0318  1283               	bcf	3,5	;RP0=0, select bank0
  4247  0319  1303               	bcf	3,6	;RP1=0, select bank0
  4248  031A  00AA               	movwf	___ftmul@f1
  4249  031B  1683               	bsf	3,5	;RP0=1, select bank1
  4250  031C  1303               	bcf	3,6	;RP1=0, select bank1
  4251  031D  0821               	movf	(_F2+1)^(0+128),w
  4252  031E  1283               	bcf	3,5	;RP0=0, select bank0
  4253  031F  1303               	bcf	3,6	;RP1=0, select bank0
  4254  0320  00AB               	movwf	___ftmul@f1+1
  4255  0321  1683               	bsf	3,5	;RP0=1, select bank1
  4256  0322  1303               	bcf	3,6	;RP1=0, select bank1
  4257  0323  0822               	movf	(_F2+2)^(0+128),w
  4258  0324  1283               	bcf	3,5	;RP0=0, select bank0
  4259  0325  1303               	bcf	3,6	;RP1=0, select bank0
  4260  0326  00AC               	movwf	___ftmul@f1+2
  4261  0327  160A  118A  255E  120A  118A  	fcall	___ftmul
  4262  032C  1283               	bcf	3,5	;RP0=0, select bank0
  4263  032D  1303               	bcf	3,6	;RP1=0, select bank0
  4264  032E  082A               	movf	?___ftmul,w
  4265  032F  00BA               	movwf	___ftneg@f1
  4266  0330  082B               	movf	?___ftmul+1,w
  4267  0331  00BB               	movwf	___ftneg@f1+1
  4268  0332  082C               	movf	?___ftmul+2,w
  4269  0333  00BC               	movwf	___ftneg@f1+2
  4270  0334  160A  158A  2584  120A  118A  	fcall	___ftneg
  4271  0339  1283               	bcf	3,5	;RP0=0, select bank0
  4272  033A  1303               	bcf	3,6	;RP1=0, select bank0
  4273  033B  083A               	movf	?___ftneg,w
  4274  033C  00BD               	movwf	___ftadd@f1
  4275  033D  083B               	movf	?___ftneg+1,w
  4276  033E  00BE               	movwf	___ftadd@f1+1
  4277  033F  083C               	movf	?___ftneg+2,w
  4278  0340  00BF               	movwf	___ftadd@f1+2
  4279  0341  086C               	movf	_F1,w
  4280  0342  00AA               	movwf	___ftmul@f1
  4281  0343  086D               	movf	_F1+1,w
  4282  0344  00AB               	movwf	___ftmul@f1+1
  4283  0345  086E               	movf	_F1+2,w
  4284  0346  00AC               	movwf	___ftmul@f1+2
  4285  0347  086C               	movf	_F1,w
  4286  0348  00AD               	movwf	___ftmul@f2
  4287  0349  086D               	movf	_F1+1,w
  4288  034A  00AE               	movwf	___ftmul@f2+1
  4289  034B  086E               	movf	_F1+2,w
  4290  034C  00AF               	movwf	___ftmul@f2+2
  4291  034D  160A  118A  255E  120A  118A  	fcall	___ftmul
  4292  0352  1283               	bcf	3,5	;RP0=0, select bank0
  4293  0353  1303               	bcf	3,6	;RP1=0, select bank0
  4294  0354  082A               	movf	?___ftmul,w
  4295  0355  00C0               	movwf	___ftadd@f2
  4296  0356  082B               	movf	?___ftmul+1,w
  4297  0357  00C1               	movwf	___ftadd@f2+1
  4298  0358  082C               	movf	?___ftmul+2,w
  4299  0359  00C2               	movwf	___ftadd@f2+2
  4300  035A  120A  118A  2046  120A  118A  	fcall	___ftadd
  4301  035F  1283               	bcf	3,5	;RP0=0, select bank0
  4302  0360  1303               	bcf	3,6	;RP1=0, select bank0
  4303  0361  083D               	movf	?___ftadd,w
  4304  0362  00CD               	movwf	_measure_capacitance$620
  4305  0363  083E               	movf	?___ftadd+1,w
  4306  0364  00CE               	movwf	_measure_capacitance$620+1
  4307  0365  083F               	movf	?___ftadd+2,w
  4308  0366  00CF               	movwf	_measure_capacitance$620+2
  4309                           
  4310                           ;main.c: 104: Cin = F2*F2*(F1*F1 - F3*F3)*1000/(F3*F3*(F1*F1-F2*F2));
  4311  0367  1683               	bsf	3,5	;RP0=1, select bank1
  4312  0368  1303               	bcf	3,6	;RP1=0, select bank1
  4313  0369  0820               	movf	_F2^(0+128),w
  4314  036A  1283               	bcf	3,5	;RP0=0, select bank0
  4315  036B  1303               	bcf	3,6	;RP1=0, select bank0
  4316  036C  00AA               	movwf	___ftmul@f1
  4317  036D  1683               	bsf	3,5	;RP0=1, select bank1
  4318  036E  1303               	bcf	3,6	;RP1=0, select bank1
  4319  036F  0821               	movf	(_F2+1)^(0+128),w
  4320  0370  1283               	bcf	3,5	;RP0=0, select bank0
  4321  0371  1303               	bcf	3,6	;RP1=0, select bank0
  4322  0372  00AB               	movwf	___ftmul@f1+1
  4323  0373  1683               	bsf	3,5	;RP0=1, select bank1
  4324  0374  1303               	bcf	3,6	;RP1=0, select bank1
  4325  0375  0822               	movf	(_F2+2)^(0+128),w
  4326  0376  1283               	bcf	3,5	;RP0=0, select bank0
  4327  0377  1303               	bcf	3,6	;RP1=0, select bank0
  4328  0378  00AC               	movwf	___ftmul@f1+2
  4329  0379  1683               	bsf	3,5	;RP0=1, select bank1
  4330  037A  1303               	bcf	3,6	;RP1=0, select bank1
  4331  037B  0820               	movf	_F2^(0+128),w
  4332  037C  1283               	bcf	3,5	;RP0=0, select bank0
  4333  037D  1303               	bcf	3,6	;RP1=0, select bank0
  4334  037E  00AD               	movwf	___ftmul@f2
  4335  037F  1683               	bsf	3,5	;RP0=1, select bank1
  4336  0380  1303               	bcf	3,6	;RP1=0, select bank1
  4337  0381  0821               	movf	(_F2+1)^(0+128),w
  4338  0382  1283               	bcf	3,5	;RP0=0, select bank0
  4339  0383  1303               	bcf	3,6	;RP1=0, select bank0
  4340  0384  00AE               	movwf	___ftmul@f2+1
  4341  0385  1683               	bsf	3,5	;RP0=1, select bank1
  4342  0386  1303               	bcf	3,6	;RP1=0, select bank1
  4343  0387  0822               	movf	(_F2+2)^(0+128),w
  4344  0388  1283               	bcf	3,5	;RP0=0, select bank0
  4345  0389  1303               	bcf	3,6	;RP1=0, select bank0
  4346  038A  00AF               	movwf	___ftmul@f2+2
  4347  038B  160A  118A  255E  120A  118A  	fcall	___ftmul
  4348  0390  1283               	bcf	3,5	;RP0=0, select bank0
  4349  0391  1303               	bcf	3,6	;RP1=0, select bank0
  4350  0392  082A               	movf	?___ftmul,w
  4351  0393  00D0               	movwf	_measure_capacitance$621
  4352  0394  082B               	movf	?___ftmul+1,w
  4353  0395  00D1               	movwf	_measure_capacitance$621+1
  4354  0396  082C               	movf	?___ftmul+2,w
  4355  0397  00D2               	movwf	_measure_capacitance$621+2
  4356                           
  4357                           ;main.c: 104: Cin = F2*F2*(F1*F1 - F3*F3)*1000/(F3*F3*(F1*F1-F2*F2));
  4358  0398  0869               	movf	_F3,w
  4359  0399  00AD               	movwf	___ftmul@f2
  4360  039A  086A               	movf	_F3+1,w
  4361  039B  00AE               	movwf	___ftmul@f2+1
  4362  039C  086B               	movf	_F3+2,w
  4363  039D  00AF               	movwf	___ftmul@f2+2
  4364  039E  0869               	movf	_F3,w
  4365  039F  00AA               	movwf	___ftmul@f1
  4366  03A0  086A               	movf	_F3+1,w
  4367  03A1  00AB               	movwf	___ftmul@f1+1
  4368  03A2  086B               	movf	_F3+2,w
  4369  03A3  00AC               	movwf	___ftmul@f1+2
  4370  03A4  160A  118A  255E  120A  118A  	fcall	___ftmul
  4371  03A9  1283               	bcf	3,5	;RP0=0, select bank0
  4372  03AA  1303               	bcf	3,6	;RP1=0, select bank0
  4373  03AB  082A               	movf	?___ftmul,w
  4374  03AC  00BA               	movwf	___ftneg@f1
  4375  03AD  082B               	movf	?___ftmul+1,w
  4376  03AE  00BB               	movwf	___ftneg@f1+1
  4377  03AF  082C               	movf	?___ftmul+2,w
  4378  03B0  00BC               	movwf	___ftneg@f1+2
  4379  03B1  160A  158A  2584  120A  118A  	fcall	___ftneg
  4380  03B6  1283               	bcf	3,5	;RP0=0, select bank0
  4381  03B7  1303               	bcf	3,6	;RP1=0, select bank0
  4382  03B8  083A               	movf	?___ftneg,w
  4383  03B9  00BD               	movwf	___ftadd@f1
  4384  03BA  083B               	movf	?___ftneg+1,w
  4385  03BB  00BE               	movwf	___ftadd@f1+1
  4386  03BC  083C               	movf	?___ftneg+2,w
  4387  03BD  00BF               	movwf	___ftadd@f1+2
  4388  03BE  086C               	movf	_F1,w
  4389  03BF  00AA               	movwf	___ftmul@f1
  4390  03C0  086D               	movf	_F1+1,w
  4391  03C1  00AB               	movwf	___ftmul@f1+1
  4392  03C2  086E               	movf	_F1+2,w
  4393  03C3  00AC               	movwf	___ftmul@f1+2
  4394  03C4  086C               	movf	_F1,w
  4395  03C5  00AD               	movwf	___ftmul@f2
  4396  03C6  086D               	movf	_F1+1,w
  4397  03C7  00AE               	movwf	___ftmul@f2+1
  4398  03C8  086E               	movf	_F1+2,w
  4399  03C9  00AF               	movwf	___ftmul@f2+2
  4400  03CA  160A  118A  255E  120A  118A  	fcall	___ftmul
  4401  03CF  1283               	bcf	3,5	;RP0=0, select bank0
  4402  03D0  1303               	bcf	3,6	;RP1=0, select bank0
  4403  03D1  082A               	movf	?___ftmul,w
  4404  03D2  00C0               	movwf	___ftadd@f2
  4405  03D3  082B               	movf	?___ftmul+1,w
  4406  03D4  00C1               	movwf	___ftadd@f2+1
  4407  03D5  082C               	movf	?___ftmul+2,w
  4408  03D6  00C2               	movwf	___ftadd@f2+2
  4409  03D7  120A  118A  2046  120A  118A  	fcall	___ftadd
  4410  03DC  1283               	bcf	3,5	;RP0=0, select bank0
  4411  03DD  1303               	bcf	3,6	;RP1=0, select bank0
  4412  03DE  083D               	movf	?___ftadd,w
  4413  03DF  00D3               	movwf	_measure_capacitance$622
  4414  03E0  083E               	movf	?___ftadd+1,w
  4415  03E1  00D4               	movwf	_measure_capacitance$622+1
  4416  03E2  083F               	movf	?___ftadd+2,w
  4417  03E3  00D5               	movwf	_measure_capacitance$622+2
  4418                           
  4419                           ;main.c: 104: Cin = F2*F2*(F1*F1 - F3*F3)*1000/(F3*F3*(F1*F1-F2*F2));
  4420  03E4  0850               	movf	_measure_capacitance$621,w
  4421  03E5  00AA               	movwf	___ftmul@f1
  4422  03E6  0851               	movf	_measure_capacitance$621+1,w
  4423  03E7  00AB               	movwf	___ftmul@f1+1
  4424  03E8  0852               	movf	_measure_capacitance$621+2,w
  4425  03E9  00AC               	movwf	___ftmul@f1+2
  4426  03EA  0853               	movf	_measure_capacitance$622,w
  4427  03EB  00AD               	movwf	___ftmul@f2
  4428  03EC  0854               	movf	_measure_capacitance$622+1,w
  4429  03ED  00AE               	movwf	___ftmul@f2+1
  4430  03EE  0855               	movf	_measure_capacitance$622+2,w
  4431  03EF  00AF               	movwf	___ftmul@f2+2
  4432  03F0  160A  118A  255E  120A  118A  	fcall	___ftmul
  4433  03F5  1283               	bcf	3,5	;RP0=0, select bank0
  4434  03F6  1303               	bcf	3,6	;RP1=0, select bank0
  4435  03F7  082A               	movf	?___ftmul,w
  4436  03F8  00D6               	movwf	_measure_capacitance$623
  4437  03F9  082B               	movf	?___ftmul+1,w
  4438  03FA  00D7               	movwf	_measure_capacitance$623+1
  4439  03FB  082C               	movf	?___ftmul+2,w
  4440  03FC  00D8               	movwf	_measure_capacitance$623+2
  4441                           
  4442                           ;main.c: 104: Cin = F2*F2*(F1*F1 - F3*F3)*1000/(F3*F3*(F1*F1-F2*F2));
  4443  03FD  084A               	movf	_measure_capacitance$619,w
  4444  03FE  00AA               	movwf	___ftmul@f1
  4445  03FF  084B               	movf	_measure_capacitance$619+1,w
  4446  0400  00AB               	movwf	___ftmul@f1+1
  4447  0401  084C               	movf	_measure_capacitance$619+2,w
  4448  0402  00AC               	movwf	___ftmul@f1+2
  4449  0403  084D               	movf	_measure_capacitance$620,w
  4450  0404  00AD               	movwf	___ftmul@f2
  4451  0405  084E               	movf	_measure_capacitance$620+1,w
  4452  0406  00AE               	movwf	___ftmul@f2+1
  4453  0407  084F               	movf	_measure_capacitance$620+2,w
  4454  0408  00AF               	movwf	___ftmul@f2+2
  4455  0409  160A  118A  255E  120A  118A  	fcall	___ftmul
  4456  040E  1283               	bcf	3,5	;RP0=0, select bank0
  4457  040F  1303               	bcf	3,6	;RP1=0, select bank0
  4458  0410  082A               	movf	?___ftmul,w
  4459  0411  00F8               	movwf	___ftdiv@f2
  4460  0412  082B               	movf	?___ftmul+1,w
  4461  0413  00F9               	movwf	___ftdiv@f2+1
  4462  0414  082C               	movf	?___ftmul+2,w
  4463  0415  00FA               	movwf	___ftdiv@f2+2
  4464  0416  3000               	movlw	0
  4465  0417  00AA               	movwf	___ftmul@f1
  4466  0418  307A               	movlw	122
  4467  0419  00AB               	movwf	___ftmul@f1+1
  4468  041A  3044               	movlw	68
  4469  041B  00AC               	movwf	___ftmul@f1+2
  4470  041C  0856               	movf	_measure_capacitance$623,w
  4471  041D  00AD               	movwf	___ftmul@f2
  4472  041E  0857               	movf	_measure_capacitance$623+1,w
  4473  041F  00AE               	movwf	___ftmul@f2+1
  4474  0420  0858               	movf	_measure_capacitance$623+2,w
  4475  0421  00AF               	movwf	___ftmul@f2+2
  4476  0422  160A  118A  255E  120A  118A  	fcall	___ftmul
  4477  0427  1283               	bcf	3,5	;RP0=0, select bank0
  4478  0428  1303               	bcf	3,6	;RP1=0, select bank0
  4479  0429  082A               	movf	?___ftmul,w
  4480  042A  00FB               	movwf	___ftdiv@f1
  4481  042B  082B               	movf	?___ftmul+1,w
  4482  042C  00FC               	movwf	___ftdiv@f1+1
  4483  042D  082C               	movf	?___ftmul+2,w
  4484  042E  00FD               	movwf	___ftdiv@f1+2
  4485  042F  160A  118A  24A8  120A  118A  	fcall	___ftdiv
  4486  0434  0878               	movf	?___ftdiv,w
  4487  0435  1283               	bcf	3,5	;RP0=0, select bank0
  4488  0436  1303               	bcf	3,6	;RP1=0, select bank0
  4489  0437  00DB               	movwf	measure_capacitance@Cin
  4490  0438  0879               	movf	?___ftdiv+1,w
  4491  0439  00DC               	movwf	measure_capacitance@Cin+1
  4492  043A  087A               	movf	?___ftdiv+2,w
  4493  043B  00DD               	movwf	measure_capacitance@Cin+2
  4494                           
  4495                           ;main.c: 105: if(Cin>999)
  4496  043C  30C0               	movlw	192
  4497  043D  00F0               	movwf	___ftge@ff1
  4498  043E  3079               	movlw	121
  4499  043F  00F1               	movwf	___ftge@ff1+1
  4500  0440  3044               	movlw	68
  4501  0441  00F2               	movwf	___ftge@ff1+2
  4502  0442  085B               	movf	measure_capacitance@Cin,w
  4503  0443  00F3               	movwf	___ftge@ff2
  4504  0444  085C               	movf	measure_capacitance@Cin+1,w
  4505  0445  00F4               	movwf	___ftge@ff2+1
  4506  0446  085D               	movf	measure_capacitance@Cin+2,w
  4507  0447  00F5               	movwf	___ftge@ff2+2
  4508  0448  160A  158A  26D1  120A  118A  	fcall	___ftge
  4509  044D  1803               	btfsc	3,0
  4510  044E  2CD0               	goto	l2252
  4511                           
  4512                           ;main.c: 106: {
  4513                           ;main.c: 107: if(Cin>(999E3))
  4514  044F  30E6               	movlw	230
  4515  0450  00F0               	movwf	___ftge@ff1
  4516  0451  3073               	movlw	115
  4517  0452  00F1               	movwf	___ftge@ff1+1
  4518  0453  3049               	movlw	73
  4519  0454  00F2               	movwf	___ftge@ff1+2
  4520  0455  1283               	bcf	3,5	;RP0=0, select bank0
  4521  0456  1303               	bcf	3,6	;RP1=0, select bank0
  4522  0457  085B               	movf	measure_capacitance@Cin,w
  4523  0458  00F3               	movwf	___ftge@ff2
  4524  0459  085C               	movf	measure_capacitance@Cin+1,w
  4525  045A  00F4               	movwf	___ftge@ff2+1
  4526  045B  085D               	movf	measure_capacitance@Cin+2,w
  4527  045C  00F5               	movwf	___ftge@ff2+2
  4528  045D  160A  158A  26D1  120A  118A  	fcall	___ftge
  4529  0462  1803               	btfsc	3,0
  4530  0463  2CB3               	goto	l2248
  4531                           
  4532                           ;main.c: 108: {
  4533                           ;main.c: 109: if(Cin>(999E6))
  4534  0464  302E               	movlw	46
  4535  0465  00F0               	movwf	___ftge@ff1
  4536  0466  306E               	movlw	110
  4537  0467  00F1               	movwf	___ftge@ff1+1
  4538  0468  304E               	movlw	78
  4539  0469  00F2               	movwf	___ftge@ff1+2
  4540  046A  1283               	bcf	3,5	;RP0=0, select bank0
  4541  046B  1303               	bcf	3,6	;RP1=0, select bank0
  4542  046C  085B               	movf	measure_capacitance@Cin,w
  4543  046D  00F3               	movwf	___ftge@ff2
  4544  046E  085C               	movf	measure_capacitance@Cin+1,w
  4545  046F  00F4               	movwf	___ftge@ff2+1
  4546  0470  085D               	movf	measure_capacitance@Cin+2,w
  4547  0471  00F5               	movwf	___ftge@ff2+2
  4548  0472  160A  158A  26D1  120A  118A  	fcall	___ftge
  4549  0477  1803               	btfsc	3,0
  4550  0478  2C96               	goto	l2244
  4551                           
  4552                           ;main.c: 110: {
  4553                           ;main.c: 111: Cin = Cin / (1E9);
  4554  0479  306B               	movlw	107
  4555  047A  00F8               	movwf	___ftdiv@f2
  4556  047B  306E               	movlw	110
  4557  047C  00F9               	movwf	___ftdiv@f2+1
  4558  047D  304E               	movlw	78
  4559  047E  00FA               	movwf	___ftdiv@f2+2
  4560  047F  1283               	bcf	3,5	;RP0=0, select bank0
  4561  0480  1303               	bcf	3,6	;RP1=0, select bank0
  4562  0481  085B               	movf	measure_capacitance@Cin,w
  4563  0482  00FB               	movwf	___ftdiv@f1
  4564  0483  085C               	movf	measure_capacitance@Cin+1,w
  4565  0484  00FC               	movwf	___ftdiv@f1+1
  4566  0485  085D               	movf	measure_capacitance@Cin+2,w
  4567  0486  00FD               	movwf	___ftdiv@f1+2
  4568  0487  160A  118A  24A8  120A  118A  	fcall	___ftdiv
  4569  048C  0878               	movf	?___ftdiv,w
  4570  048D  1283               	bcf	3,5	;RP0=0, select bank0
  4571  048E  1303               	bcf	3,6	;RP1=0, select bank0
  4572  048F  00DB               	movwf	measure_capacitance@Cin
  4573  0490  0879               	movf	?___ftdiv+1,w
  4574  0491  00DC               	movwf	measure_capacitance@Cin+1
  4575  0492  087A               	movf	?___ftdiv+2,w
  4576  0493  00DD               	movwf	measure_capacitance@Cin+2
  4577                           
  4578                           ;main.c: 112: display_unit(4);
  4579  0494  3004               	movlw	4
  4580  0495  2CD1               	goto	L2
  4581  0496                     l2244:	
  4582                           ;main.c: 113: }
  4583                           
  4584                           
  4585                           ;main.c: 114: else
  4586                           ;main.c: 115: {
  4587                           ;main.c: 116: Cin = Cin / (1E6);
  4588  0496  3024               	movlw	36
  4589  0497  00F8               	movwf	___ftdiv@f2
  4590  0498  3074               	movlw	116
  4591  0499  00F9               	movwf	___ftdiv@f2+1
  4592  049A  3049               	movlw	73
  4593  049B  00FA               	movwf	___ftdiv@f2+2
  4594  049C  1283               	bcf	3,5	;RP0=0, select bank0
  4595  049D  1303               	bcf	3,6	;RP1=0, select bank0
  4596  049E  085B               	movf	measure_capacitance@Cin,w
  4597  049F  00FB               	movwf	___ftdiv@f1
  4598  04A0  085C               	movf	measure_capacitance@Cin+1,w
  4599  04A1  00FC               	movwf	___ftdiv@f1+1
  4600  04A2  085D               	movf	measure_capacitance@Cin+2,w
  4601  04A3  00FD               	movwf	___ftdiv@f1+2
  4602  04A4  160A  118A  24A8  120A  118A  	fcall	___ftdiv
  4603  04A9  0878               	movf	?___ftdiv,w
  4604  04AA  1283               	bcf	3,5	;RP0=0, select bank0
  4605  04AB  1303               	bcf	3,6	;RP1=0, select bank0
  4606  04AC  00DB               	movwf	measure_capacitance@Cin
  4607  04AD  0879               	movf	?___ftdiv+1,w
  4608  04AE  00DC               	movwf	measure_capacitance@Cin+1
  4609  04AF  087A               	movf	?___ftdiv+2,w
  4610  04B0  00DD               	movwf	measure_capacitance@Cin+2
  4611                           
  4612                           ;main.c: 117: display_unit(5);
  4613  04B1  3005               	movlw	5
  4614  04B2  2CD1               	goto	L2
  4615  04B3                     l2248:	
  4616                           ;main.c: 118: }
  4617                           ;main.c: 119: }
  4618                           
  4619                           
  4620                           ;main.c: 120: else
  4621                           ;main.c: 121: {
  4622                           ;main.c: 122: Cin = Cin/1E3;
  4623  04B3  3000               	movlw	0
  4624  04B4  00F8               	movwf	___ftdiv@f2
  4625  04B5  307A               	movlw	122
  4626  04B6  00F9               	movwf	___ftdiv@f2+1
  4627  04B7  3044               	movlw	68
  4628  04B8  00FA               	movwf	___ftdiv@f2+2
  4629  04B9  1283               	bcf	3,5	;RP0=0, select bank0
  4630  04BA  1303               	bcf	3,6	;RP1=0, select bank0
  4631  04BB  085B               	movf	measure_capacitance@Cin,w
  4632  04BC  00FB               	movwf	___ftdiv@f1
  4633  04BD  085C               	movf	measure_capacitance@Cin+1,w
  4634  04BE  00FC               	movwf	___ftdiv@f1+1
  4635  04BF  085D               	movf	measure_capacitance@Cin+2,w
  4636  04C0  00FD               	movwf	___ftdiv@f1+2
  4637  04C1  160A  118A  24A8  120A  118A  	fcall	___ftdiv
  4638  04C6  0878               	movf	?___ftdiv,w
  4639  04C7  1283               	bcf	3,5	;RP0=0, select bank0
  4640  04C8  1303               	bcf	3,6	;RP1=0, select bank0
  4641  04C9  00DB               	movwf	measure_capacitance@Cin
  4642  04CA  0879               	movf	?___ftdiv+1,w
  4643  04CB  00DC               	movwf	measure_capacitance@Cin+1
  4644  04CC  087A               	movf	?___ftdiv+2,w
  4645  04CD  00DD               	movwf	measure_capacitance@Cin+2
  4646                           
  4647                           ;main.c: 123: display_unit(6);
  4648  04CE  3006               	movlw	6
  4649  04CF  2CD1               	goto	L2
  4650  04D0                     l2252:	
  4651                           ;main.c: 124: }
  4652                           ;main.c: 125: }
  4653                           
  4654                           
  4655                           ;main.c: 126: else display_unit(7);
  4656  04D0  3007               	movlw	7
  4657  04D1                     L2:	
  4658  04D1  160A  118A  237B  120A  118A  	fcall	_display_unit
  4659                           
  4660                           ;main.c: 127: Cin = Cin*100;
  4661  04D6  3000               	movlw	0
  4662  04D7  1283               	bcf	3,5	;RP0=0, select bank0
  4663  04D8  1303               	bcf	3,6	;RP1=0, select bank0
  4664  04D9  00AA               	movwf	___ftmul@f1
  4665  04DA  30C8               	movlw	200
  4666  04DB  00AB               	movwf	___ftmul@f1+1
  4667  04DC  3042               	movlw	66
  4668  04DD  00AC               	movwf	___ftmul@f1+2
  4669  04DE  085B               	movf	measure_capacitance@Cin,w
  4670  04DF  00AD               	movwf	___ftmul@f2
  4671  04E0  085C               	movf	measure_capacitance@Cin+1,w
  4672  04E1  00AE               	movwf	___ftmul@f2+1
  4673  04E2  085D               	movf	measure_capacitance@Cin+2,w
  4674  04E3  00AF               	movwf	___ftmul@f2+2
  4675  04E4  160A  118A  255E  120A  118A  	fcall	___ftmul
  4676  04E9  1283               	bcf	3,5	;RP0=0, select bank0
  4677  04EA  1303               	bcf	3,6	;RP1=0, select bank0
  4678  04EB  082A               	movf	?___ftmul,w
  4679  04EC  00DB               	movwf	measure_capacitance@Cin
  4680  04ED  082B               	movf	?___ftmul+1,w
  4681  04EE  00DC               	movwf	measure_capacitance@Cin+1
  4682  04EF  082C               	movf	?___ftmul+2,w
  4683  04F0  00DD               	movwf	measure_capacitance@Cin+2
  4684                           
  4685                           ;main.c: 128: var = (unsigned int)Cin;
  4686  04F1  085B               	movf	measure_capacitance@Cin,w
  4687  04F2  00F0               	movwf	___fttol@f1
  4688  04F3  085C               	movf	measure_capacitance@Cin+1,w
  4689  04F4  00F1               	movwf	___fttol@f1+1
  4690  04F5  085D               	movf	measure_capacitance@Cin+2,w
  4691  04F6  00F2               	movwf	___fttol@f1+2
  4692  04F7  160A  118A  22EF  120A  118A  	fcall	___fttol
  4693  04FC  0871               	movf	?___fttol+1,w
  4694  04FD  1283               	bcf	3,5	;RP0=0, select bank0
  4695  04FE  1303               	bcf	3,6	;RP1=0, select bank0
  4696  04FF  00DA               	movwf	measure_capacitance@var+1
  4697  0500  0870               	movf	?___fttol,w
  4698  0501  00D9               	movwf	measure_capacitance@var
  4699                           
  4700                           ;main.c: 129: display_reading(var);
  4701  0502  085A               	movf	measure_capacitance@var+1,w
  4702  0503  00A7               	movwf	display_reading@measurement+1
  4703  0504  0859               	movf	measure_capacitance@var,w
  4704  0505  00A6               	movwf	display_reading@measurement
  4705  0506  120A  118A  214F   	fcall	_display_reading
  4706  0509  0008               	return
  4707  050A                     __end_of_measure_capacitance:	
  4708                           
  4709                           	psect	text3
  4710  137B                     __ptext3:	
  4711 ;; *************** function _display_unit *****************
  4712 ;; Defined at:
  4713 ;;		line 16 in file "../display.c"
  4714 ;; Parameters:    Size  Location     Type
  4715 ;;  unit            1    wreg     unsigned char 
  4716 ;; Auto vars:     Size  Location     Type
  4717 ;;  unit            1   11[COMMON] unsigned char 
  4718 ;;  i               1   12[COMMON] unsigned char 
  4719 ;; Return value:  Size  Location     Type
  4720 ;;		None               void
  4721 ;; Registers used:
  4722 ;;		wreg, fsr0l, fsr0h, status,2, status,0, btemp+1, pclath, cstack
  4723 ;; Tracked objects:
  4724 ;;		On entry : 0/0
  4725 ;;		On exit  : 0/0
  4726 ;;		Unchanged: 0/0
  4727 ;; Data sizes:     COMMON   BANK0   BANK1   BANK3   BANK2
  4728 ;;      Params:         0       0       0       0       0
  4729 ;;      Locals:         2       0       0       0       0
  4730 ;;      Temps:          0       4       0       0       0
  4731 ;;      Totals:         2       4       0       0       0
  4732 ;;Total ram usage:        6 bytes
  4733 ;; Hardware stack levels used:    1
  4734 ;; Hardware stack levels required when called:    2
  4735 ;; This function calls:
  4736 ;;		___wmul
  4737 ;;		_lcd_gotoxy
  4738 ;;		_lcd_send
  4739 ;; This function is called by:
  4740 ;;		_measure_capacitance
  4741 ;;		_measure_inductance
  4742 ;; This function uses a non-reentrant model
  4743 ;;
  4744                           
  4745                           
  4746                           ;psect for function _display_unit
  4747  137B                     _display_unit:	
  4748                           
  4749                           ;incstack = 0
  4750                           ; Regs used in _display_unit: [wreg-fsr0h+status,2+status,0+btemp+1+pclath+cstack]
  4751                           ;display_unit@unit stored from wreg
  4752  137B  00FB               	movwf	display_unit@unit
  4753                           
  4754                           ;display.c: 18: unsigned char i;
  4755                           ;display.c: 19: lcd_gotoxy(60,2);
  4756  137C  3002               	movlw	2
  4757  137D  00F8               	movwf	lcd_gotoxy@y
  4758  137E  3000               	movlw	0
  4759  137F  00F9               	movwf	lcd_gotoxy@y+1
  4760  1380  303C               	movlw	60
  4761  1381  160A  158A  258E  160A  118A  	fcall	_lcd_gotoxy
  4762                           
  4763                           ;display.c: 20: for(i=0; i<18; i++) lcd_send(units[unit*36+i], 1);
  4764  1386  01FC               	clrf	display_unit@i
  4765  1387  3012               	movlw	18
  4766  1388  027C               	subwf	display_unit@i,w
  4767  1389  1803               	btfsc	3,0
  4768  138A  2BC5               	goto	l1874
  4769  138B                     l1868:	
  4770  138B  01F6               	clrf	lcd_send@cmd
  4771  138C  0AF6               	incf	lcd_send@cmd,f
  4772  138D  087B               	movf	display_unit@unit,w
  4773  138E  1283               	bcf	3,5	;RP0=0, select bank0
  4774  138F  1303               	bcf	3,6	;RP1=0, select bank0
  4775  1390  00A0               	movwf	??_display_unit
  4776  1391  01A1               	clrf	??_display_unit+1
  4777  1392  0820               	movf	??_display_unit,w
  4778  1393  00F0               	movwf	___wmul@multiplier
  4779  1394  0821               	movf	??_display_unit+1,w
  4780  1395  00F1               	movwf	___wmul@multiplier+1
  4781  1396  3024               	movlw	36
  4782  1397  00F2               	movwf	___wmul@multiplicand
  4783  1398  3000               	movlw	0
  4784  1399  00F3               	movwf	___wmul@multiplicand+1
  4785  139A  160A  158A  2606  160A  118A  	fcall	___wmul
  4786  139F  087C               	movf	display_unit@i,w
  4787  13A0  0770               	addwf	?___wmul,w
  4788  13A1  1283               	bcf	3,5	;RP0=0, select bank0
  4789  13A2  1303               	bcf	3,6	;RP1=0, select bank0
  4790  13A3  00A2               	movwf	??_display_unit+2
  4791  13A4  3000               	movlw	0
  4792  13A5  1803               	skipnc
  4793  13A6  3001               	movlw	1
  4794  13A7  0771               	addwf	?___wmul+1,w
  4795  13A8  00A3               	movwf	??_display_unit+3
  4796  13A9  308E               	movlw	high (display@units| (0+32768))
  4797  13AA  0723               	addwf	??_display_unit+3,w
  4798  13AB  00FF               	movwf	127
  4799  13AC  30E9               	movlw	low (display@units| (0+32768))
  4800  13AD  0722               	addwf	??_display_unit+2,w
  4801  13AE  0084               	movwf	4
  4802  13AF  1803               	skipnc
  4803  13B0  0AFF               	incf	127,f
  4804  13B1  120A  158A  2000  160A  118A  	fcall	stringtab
  4805  13B6  160A  118A  21E9  160A  118A  	fcall	_lcd_send
  4806  13BB  3001               	movlw	1
  4807  13BC  1283               	bcf	3,5	;RP0=0, select bank0
  4808  13BD  1303               	bcf	3,6	;RP1=0, select bank0
  4809  13BE  00A0               	movwf	??_display_unit
  4810  13BF  0820               	movf	??_display_unit,w
  4811  13C0  07FC               	addwf	display_unit@i,f
  4812  13C1  3012               	movlw	18
  4813  13C2  027C               	subwf	display_unit@i,w
  4814  13C3  1C03               	skipc
  4815  13C4  2B8B               	goto	l1868
  4816  13C5                     l1874:	
  4817                           
  4818                           ;display.c: 21: lcd_gotoxy(60,3);
  4819  13C5  3003               	movlw	3
  4820  13C6  00F8               	movwf	lcd_gotoxy@y
  4821  13C7  3000               	movlw	0
  4822  13C8  00F9               	movwf	lcd_gotoxy@y+1
  4823  13C9  303C               	movlw	60
  4824  13CA  160A  158A  258E  160A  118A  	fcall	_lcd_gotoxy
  4825                           
  4826                           ;display.c: 22: for(i=18; i<36; i++) lcd_send(units[unit*36+i], 1);
  4827  13CF  3012               	movlw	18
  4828  13D0  1283               	bcf	3,5	;RP0=0, select bank0
  4829  13D1  1303               	bcf	3,6	;RP1=0, select bank0
  4830  13D2  00A0               	movwf	??_display_unit
  4831  13D3  0820               	movf	??_display_unit,w
  4832  13D4  00FC               	movwf	display_unit@i
  4833  13D5                     L3:	
  4834  13D5  3024               	movlw	36
  4835  13D6  027C               	subwf	display_unit@i,w
  4836  13D7  1803               	btfsc	3,0
  4837  13D8  0008               	return
  4838  13D9  01F6               	clrf	lcd_send@cmd
  4839  13DA  0AF6               	incf	lcd_send@cmd,f
  4840  13DB  087B               	movf	display_unit@unit,w
  4841  13DC  00A0               	movwf	??_display_unit
  4842  13DD  01A1               	clrf	??_display_unit+1
  4843  13DE  0820               	movf	??_display_unit,w
  4844  13DF  00F0               	movwf	___wmul@multiplier
  4845  13E0  0821               	movf	??_display_unit+1,w
  4846  13E1  00F1               	movwf	___wmul@multiplier+1
  4847  13E2  3024               	movlw	36
  4848  13E3  00F2               	movwf	___wmul@multiplicand
  4849  13E4  3000               	movlw	0
  4850  13E5  00F3               	movwf	___wmul@multiplicand+1
  4851  13E6  160A  158A  2606  160A  118A  	fcall	___wmul
  4852  13EB  087C               	movf	display_unit@i,w
  4853  13EC  0770               	addwf	?___wmul,w
  4854  13ED  1283               	bcf	3,5	;RP0=0, select bank0
  4855  13EE  1303               	bcf	3,6	;RP1=0, select bank0
  4856  13EF  00A2               	movwf	??_display_unit+2
  4857  13F0  3000               	movlw	0
  4858  13F1  1803               	skipnc
  4859  13F2  3001               	movlw	1
  4860  13F3  0771               	addwf	?___wmul+1,w
  4861  13F4  00A3               	movwf	??_display_unit+3
  4862  13F5  308E               	movlw	high (display@units| (0+32768))
  4863  13F6  0723               	addwf	??_display_unit+3,w
  4864  13F7  00FF               	movwf	127
  4865  13F8  30E9               	movlw	low (display@units| (0+32768))
  4866  13F9  0722               	addwf	??_display_unit+2,w
  4867  13FA  0084               	movwf	4
  4868  13FB  1803               	skipnc
  4869  13FC  0AFF               	incf	127,f
  4870  13FD  120A  158A  2000  160A  118A  	fcall	stringtab
  4871  1402  160A  118A  21E9  160A  118A  	fcall	_lcd_send
  4872  1407  3001               	movlw	1
  4873  1408  1283               	bcf	3,5	;RP0=0, select bank0
  4874  1409  1303               	bcf	3,6	;RP1=0, select bank0
  4875  140A  00A0               	movwf	??_display_unit
  4876  140B  0820               	movf	??_display_unit,w
  4877  140C  07FC               	addwf	display_unit@i,f
  4878  140D  2BD5               	goto	L3
  4879  140E                     __end_of_display_unit:	
  4880                           
  4881                           	psect	text4
  4882  014F                     __ptext4:	
  4883 ;; *************** function _display_reading *****************
  4884 ;; Defined at:
  4885 ;;		line 24 in file "../display.c"
  4886 ;; Parameters:    Size  Location     Type
  4887 ;;  measurement     2    6[BANK0 ] unsigned int 
  4888 ;; Auto vars:     Size  Location     Type
  4889 ;;		None
  4890 ;; Return value:  Size  Location     Type
  4891 ;;		None               void
  4892 ;; Registers used:
  4893 ;;		wreg, fsr0l, fsr0h, status,2, status,0, btemp+1, pclath, cstack
  4894 ;; Tracked objects:
  4895 ;;		On entry : 0/0
  4896 ;;		On exit  : 0/0
  4897 ;;		Unchanged: 0/0
  4898 ;; Data sizes:     COMMON   BANK0   BANK1   BANK3   BANK2
  4899 ;;      Params:         0       2       0       0       0
  4900 ;;      Locals:         0       0       0       0       0
  4901 ;;      Temps:          0       2       0       0       0
  4902 ;;      Totals:         0       4       0       0       0
  4903 ;;Total ram usage:        4 bytes
  4904 ;; Hardware stack levels used:    1
  4905 ;; Hardware stack levels required when called:    3
  4906 ;; This function calls:
  4907 ;;		___lwdiv
  4908 ;;		___lwmod
  4909 ;;		_display_digit
  4910 ;;		_lcd_gotoxy
  4911 ;;		_lcd_puts
  4912 ;;		_lcd_send
  4913 ;; This function is called by:
  4914 ;;		_measure_capacitance
  4915 ;;		_measure_inductance
  4916 ;; This function uses a non-reentrant model
  4917 ;;
  4918                           
  4919                           
  4920                           ;psect for function _display_reading
  4921  014F                     _display_reading:	
  4922                           
  4923                           ;display.c: 27: lcd_gotoxy(0,2);
  4924                           
  4925                           ;incstack = 0
  4926                           ; Regs used in _display_reading: [wreg-fsr0h+status,2+status,0+btemp+1+pclath+cstack]
  4927  014F  3002               	movlw	2
  4928  0150  00F8               	movwf	lcd_gotoxy@y
  4929  0151  3000               	movlw	0
  4930  0152  00F9               	movwf	lcd_gotoxy@y+1
  4931  0153  3000               	movlw	0
  4932  0154  160A  158A  258E  120A  118A  	fcall	_lcd_gotoxy
  4933                           
  4934                           ;display.c: 28: lcd_puts("         ");
  4935  0159  308B               	movlw	low (STR_6| (0+32768))
  4936  015A  00FB               	movwf	lcd_puts@s
  4937  015B  3091               	movlw	high (STR_6| (0+32768))
  4938  015C  00FC               	movwf	lcd_puts@s+1
  4939  015D  160A  158A  2627  120A  118A  	fcall	_lcd_puts
  4940                           
  4941                           ;display.c: 29: lcd_gotoxy(0,3);
  4942  0162  3003               	movlw	3
  4943  0163  00F8               	movwf	lcd_gotoxy@y
  4944  0164  3000               	movlw	0
  4945  0165  00F9               	movwf	lcd_gotoxy@y+1
  4946  0166  3000               	movlw	0
  4947  0167  160A  158A  258E  120A  118A  	fcall	_lcd_gotoxy
  4948                           
  4949                           ;display.c: 30: lcd_puts("         ");
  4950  016C  308B               	movlw	low (STR_6| (0+32768))
  4951  016D  00FB               	movwf	lcd_puts@s
  4952  016E  3091               	movlw	high (STR_6| (0+32768))
  4953  016F  00FC               	movwf	lcd_puts@s+1
  4954  0170  160A  158A  2627  120A  118A  	fcall	_lcd_puts
  4955                           
  4956                           ;display.c: 32: lcd_gotoxy(35,3);
  4957  0175  3003               	movlw	3
  4958  0176  00F8               	movwf	lcd_gotoxy@y
  4959  0177  3000               	movlw	0
  4960  0178  00F9               	movwf	lcd_gotoxy@y+1
  4961  0179  3023               	movlw	35
  4962  017A  160A  158A  258E  120A  118A  	fcall	_lcd_gotoxy
  4963                           
  4964                           ;display.c: 33: lcd_send(0x70, 1);
  4965  017F  01F6               	clrf	lcd_send@cmd
  4966  0180  0AF6               	incf	lcd_send@cmd,f
  4967  0181  3070               	movlw	112
  4968  0182  160A  118A  21E9  120A  118A  	fcall	_lcd_send
  4969                           
  4970                           ;display.c: 34: lcd_send(0x70, 1);
  4971  0187  01F6               	clrf	lcd_send@cmd
  4972  0188  0AF6               	incf	lcd_send@cmd,f
  4973  0189  3070               	movlw	112
  4974  018A  160A  118A  21E9  120A  118A  	fcall	_lcd_send
  4975                           
  4976                           ;display.c: 35: lcd_send(0x70, 1);
  4977  018F  01F6               	clrf	lcd_send@cmd
  4978  0190  0AF6               	incf	lcd_send@cmd,f
  4979  0191  3070               	movlw	112
  4980  0192  160A  118A  21E9  120A  118A  	fcall	_lcd_send
  4981                           
  4982                           ;display.c: 37: if(measurement/10000 >0) display_digit(3,5,measurement/10000);
  4983  0197  3010               	movlw	16
  4984  0198  00F0               	movwf	___lwdiv@divisor
  4985  0199  3027               	movlw	39
  4986  019A  00F1               	movwf	___lwdiv@divisor+1
  4987  019B  1283               	bcf	3,5	;RP0=0, select bank0
  4988  019C  1303               	bcf	3,6	;RP1=0, select bank0
  4989  019D  0827               	movf	display_reading@measurement+1,w
  4990  019E  00F3               	movwf	___lwdiv@dividend+1
  4991  019F  0826               	movf	display_reading@measurement,w
  4992  01A0  00F2               	movwf	___lwdiv@dividend
  4993  01A1  120A  118A  200A  120A  118A  	fcall	___lwdiv
  4994  01A6  0870               	movf	?___lwdiv,w
  4995  01A7  0471               	iorwf	?___lwdiv+1,w
  4996  01A8  1903               	btfsc	3,2
  4997  01A9  29C9               	goto	l1906
  4998  01AA  3005               	movlw	5
  4999  01AB  1283               	bcf	3,5	;RP0=0, select bank0
  5000  01AC  1303               	bcf	3,6	;RP1=0, select bank0
  5001  01AD  00A8               	movwf	??_display_reading
  5002  01AE  0828               	movf	??_display_reading,w
  5003  01AF  00A0               	movwf	display_digit@column
  5004  01B0  3010               	movlw	16
  5005  01B1  00F0               	movwf	___lwdiv@divisor
  5006  01B2  3027               	movlw	39
  5007  01B3  00F1               	movwf	___lwdiv@divisor+1
  5008  01B4  0827               	movf	display_reading@measurement+1,w
  5009  01B5  00F3               	movwf	___lwdiv@dividend+1
  5010  01B6  0826               	movf	display_reading@measurement,w
  5011  01B7  00F2               	movwf	___lwdiv@dividend
  5012  01B8  120A  118A  200A  120A  118A  	fcall	___lwdiv
  5013  01BD  0870               	movf	?___lwdiv,w
  5014  01BE  1283               	bcf	3,5	;RP0=0, select bank0
  5015  01BF  1303               	bcf	3,6	;RP1=0, select bank0
  5016  01C0  00A9               	movwf	??_display_reading+1
  5017  01C1  0829               	movf	??_display_reading+1,w
  5018  01C2  00A1               	movwf	display_digit@digit
  5019  01C3  3003               	movlw	3
  5020  01C4  160A  118A  2269  120A  118A  	fcall	_display_digit
  5021  01C9                     l1906:	
  5022                           
  5023                           ;display.c: 39: if(((measurement/1000)%10 > 0) || (measurement/10000 >0)) display_digit(
      +                          3,15,(measurement/1000)%10);
  5024  01C9  300A               	movlw	10
  5025  01CA  00F8               	movwf	___lwmod@divisor
  5026  01CB  3000               	movlw	0
  5027  01CC  00F9               	movwf	___lwmod@divisor+1
  5028  01CD  30E8               	movlw	232
  5029  01CE  00F0               	movwf	___lwdiv@divisor
  5030  01CF  3003               	movlw	3
  5031  01D0  00F1               	movwf	___lwdiv@divisor+1
  5032  01D1  1283               	bcf	3,5	;RP0=0, select bank0
  5033  01D2  1303               	bcf	3,6	;RP1=0, select bank0
  5034  01D3  0827               	movf	display_reading@measurement+1,w
  5035  01D4  00F3               	movwf	___lwdiv@dividend+1
  5036  01D5  0826               	movf	display_reading@measurement,w
  5037  01D6  00F2               	movwf	___lwdiv@dividend
  5038  01D7  120A  118A  200A  120A  118A  	fcall	___lwdiv
  5039  01DC  0871               	movf	?___lwdiv+1,w
  5040  01DD  00FB               	movwf	___lwmod@dividend+1
  5041  01DE  0870               	movf	?___lwdiv,w
  5042  01DF  00FA               	movwf	___lwmod@dividend
  5043  01E0  160A  158A  264A  120A  118A  	fcall	___lwmod
  5044  01E5  0878               	movf	?___lwmod,w
  5045  01E6  0479               	iorwf	?___lwmod+1,w
  5046  01E7  1D03               	btfss	3,2
  5047  01E8  29FC               	goto	l1910
  5048  01E9  3010               	movlw	16
  5049  01EA  00F0               	movwf	___lwdiv@divisor
  5050  01EB  3027               	movlw	39
  5051  01EC  00F1               	movwf	___lwdiv@divisor+1
  5052  01ED  1283               	bcf	3,5	;RP0=0, select bank0
  5053  01EE  1303               	bcf	3,6	;RP1=0, select bank0
  5054  01EF  0827               	movf	display_reading@measurement+1,w
  5055  01F0  00F3               	movwf	___lwdiv@dividend+1
  5056  01F1  0826               	movf	display_reading@measurement,w
  5057  01F2  00F2               	movwf	___lwdiv@dividend
  5058  01F3  120A  118A  200A  120A  118A  	fcall	___lwdiv
  5059  01F8  0870               	movf	?___lwdiv,w
  5060  01F9  0471               	iorwf	?___lwdiv+1,w
  5061  01FA  1903               	btfsc	3,2
  5062  01FB  2A28               	goto	l260
  5063  01FC                     l1910:	
  5064  01FC  300F               	movlw	15
  5065  01FD  1283               	bcf	3,5	;RP0=0, select bank0
  5066  01FE  1303               	bcf	3,6	;RP1=0, select bank0
  5067  01FF  00A8               	movwf	??_display_reading
  5068  0200  0828               	movf	??_display_reading,w
  5069  0201  00A0               	movwf	display_digit@column
  5070  0202  300A               	movlw	10
  5071  0203  00F8               	movwf	___lwmod@divisor
  5072  0204  3000               	movlw	0
  5073  0205  00F9               	movwf	___lwmod@divisor+1
  5074  0206  30E8               	movlw	232
  5075  0207  00F0               	movwf	___lwdiv@divisor
  5076  0208  3003               	movlw	3
  5077  0209  00F1               	movwf	___lwdiv@divisor+1
  5078  020A  0827               	movf	display_reading@measurement+1,w
  5079  020B  00F3               	movwf	___lwdiv@dividend+1
  5080  020C  0826               	movf	display_reading@measurement,w
  5081  020D  00F2               	movwf	___lwdiv@dividend
  5082  020E  120A  118A  200A  120A  118A  	fcall	___lwdiv
  5083  0213  0871               	movf	?___lwdiv+1,w
  5084  0214  00FB               	movwf	___lwmod@dividend+1
  5085  0215  0870               	movf	?___lwdiv,w
  5086  0216  00FA               	movwf	___lwmod@dividend
  5087  0217  160A  158A  264A  120A  118A  	fcall	___lwmod
  5088  021C  0878               	movf	?___lwmod,w
  5089  021D  1283               	bcf	3,5	;RP0=0, select bank0
  5090  021E  1303               	bcf	3,6	;RP1=0, select bank0
  5091  021F  00A9               	movwf	??_display_reading+1
  5092  0220  0829               	movf	??_display_reading+1,w
  5093  0221  00A1               	movwf	display_digit@digit
  5094  0222  3003               	movlw	3
  5095  0223  160A  118A  2269  120A  118A  	fcall	_display_digit
  5096  0228                     l260:	
  5097                           
  5098                           ;display.c: 41: display_digit(3,25,(measurement/100)%10);
  5099  0228  3019               	movlw	25
  5100  0229  1283               	bcf	3,5	;RP0=0, select bank0
  5101  022A  1303               	bcf	3,6	;RP1=0, select bank0
  5102  022B  00A8               	movwf	??_display_reading
  5103  022C  0828               	movf	??_display_reading,w
  5104  022D  00A0               	movwf	display_digit@column
  5105  022E  300A               	movlw	10
  5106  022F  00F8               	movwf	___lwmod@divisor
  5107  0230  3000               	movlw	0
  5108  0231  00F9               	movwf	___lwmod@divisor+1
  5109  0232  3064               	movlw	100
  5110  0233  00F0               	movwf	___lwdiv@divisor
  5111  0234  3000               	movlw	0
  5112  0235  00F1               	movwf	___lwdiv@divisor+1
  5113  0236  0827               	movf	display_reading@measurement+1,w
  5114  0237  00F3               	movwf	___lwdiv@dividend+1
  5115  0238  0826               	movf	display_reading@measurement,w
  5116  0239  00F2               	movwf	___lwdiv@dividend
  5117  023A  120A  118A  200A  120A  118A  	fcall	___lwdiv
  5118  023F  0871               	movf	?___lwdiv+1,w
  5119  0240  00FB               	movwf	___lwmod@dividend+1
  5120  0241  0870               	movf	?___lwdiv,w
  5121  0242  00FA               	movwf	___lwmod@dividend
  5122  0243  160A  158A  264A  120A  118A  	fcall	___lwmod
  5123  0248  0878               	movf	?___lwmod,w
  5124  0249  1283               	bcf	3,5	;RP0=0, select bank0
  5125  024A  1303               	bcf	3,6	;RP1=0, select bank0
  5126  024B  00A9               	movwf	??_display_reading+1
  5127  024C  0829               	movf	??_display_reading+1,w
  5128  024D  00A1               	movwf	display_digit@digit
  5129  024E  3003               	movlw	3
  5130  024F  160A  118A  2269  120A  118A  	fcall	_display_digit
  5131                           
  5132                           ;display.c: 43: display_digit(3,40,(measurement/10)%10);
  5133  0254  3028               	movlw	40
  5134  0255  1283               	bcf	3,5	;RP0=0, select bank0
  5135  0256  1303               	bcf	3,6	;RP1=0, select bank0
  5136  0257  00A8               	movwf	??_display_reading
  5137  0258  0828               	movf	??_display_reading,w
  5138  0259  00A0               	movwf	display_digit@column
  5139  025A  300A               	movlw	10
  5140  025B  00F8               	movwf	___lwmod@divisor
  5141  025C  3000               	movlw	0
  5142  025D  00F9               	movwf	___lwmod@divisor+1
  5143  025E  300A               	movlw	10
  5144  025F  00F0               	movwf	___lwdiv@divisor
  5145  0260  3000               	movlw	0
  5146  0261  00F1               	movwf	___lwdiv@divisor+1
  5147  0262  0827               	movf	display_reading@measurement+1,w
  5148  0263  00F3               	movwf	___lwdiv@dividend+1
  5149  0264  0826               	movf	display_reading@measurement,w
  5150  0265  00F2               	movwf	___lwdiv@dividend
  5151  0266  120A  118A  200A  120A  118A  	fcall	___lwdiv
  5152  026B  0871               	movf	?___lwdiv+1,w
  5153  026C  00FB               	movwf	___lwmod@dividend+1
  5154  026D  0870               	movf	?___lwdiv,w
  5155  026E  00FA               	movwf	___lwmod@dividend
  5156  026F  160A  158A  264A  120A  118A  	fcall	___lwmod
  5157  0274  0878               	movf	?___lwmod,w
  5158  0275  1283               	bcf	3,5	;RP0=0, select bank0
  5159  0276  1303               	bcf	3,6	;RP1=0, select bank0
  5160  0277  00A9               	movwf	??_display_reading+1
  5161  0278  0829               	movf	??_display_reading+1,w
  5162  0279  00A1               	movwf	display_digit@digit
  5163  027A  3003               	movlw	3
  5164  027B  160A  118A  2269  120A  118A  	fcall	_display_digit
  5165                           
  5166                           ;display.c: 45: display_digit(3,50,measurement%10);
  5167  0280  3032               	movlw	50
  5168  0281  1283               	bcf	3,5	;RP0=0, select bank0
  5169  0282  1303               	bcf	3,6	;RP1=0, select bank0
  5170  0283  00A8               	movwf	??_display_reading
  5171  0284  0828               	movf	??_display_reading,w
  5172  0285  00A0               	movwf	display_digit@column
  5173  0286  300A               	movlw	10
  5174  0287  00F8               	movwf	___lwmod@divisor
  5175  0288  3000               	movlw	0
  5176  0289  00F9               	movwf	___lwmod@divisor+1
  5177  028A  0827               	movf	display_reading@measurement+1,w
  5178  028B  00FB               	movwf	___lwmod@dividend+1
  5179  028C  0826               	movf	display_reading@measurement,w
  5180  028D  00FA               	movwf	___lwmod@dividend
  5181  028E  160A  158A  264A  120A  118A  	fcall	___lwmod
  5182  0293  0878               	movf	?___lwmod,w
  5183  0294  1283               	bcf	3,5	;RP0=0, select bank0
  5184  0295  1303               	bcf	3,6	;RP1=0, select bank0
  5185  0296  00A9               	movwf	??_display_reading+1
  5186  0297  0829               	movf	??_display_reading+1,w
  5187  0298  00A1               	movwf	display_digit@digit
  5188  0299  3003               	movlw	3
  5189  029A  160A  118A  2269   	fcall	_display_digit
  5190  029D  0008               	return
  5191  029E                     __end_of_display_reading:	
  5192                           
  5193                           	psect	text5
  5194  1269                     __ptext5:	
  5195 ;; *************** function _display_digit *****************
  5196 ;; Defined at:
  5197 ;;		line 3 in file "../display.c"
  5198 ;; Parameters:    Size  Location     Type
  5199 ;;  line            1    wreg     unsigned char 
  5200 ;;  column          1    0[BANK0 ] unsigned char 
  5201 ;;  digit           1    1[BANK0 ] unsigned char 
  5202 ;; Auto vars:     Size  Location     Type
  5203 ;;  line            1    4[BANK0 ] unsigned char 
  5204 ;;  i               1    5[BANK0 ] unsigned char 
  5205 ;; Return value:  Size  Location     Type
  5206 ;;		None               void
  5207 ;; Registers used:
  5208 ;;		wreg, fsr0l, fsr0h, status,2, status,0, btemp+1, pclath, cstack
  5209 ;; Tracked objects:
  5210 ;;		On entry : 0/0
  5211 ;;		On exit  : 0/0
  5212 ;;		Unchanged: 0/0
  5213 ;; Data sizes:     COMMON   BANK0   BANK1   BANK3   BANK2
  5214 ;;      Params:         0       2       0       0       0
  5215 ;;      Locals:         0       2       0       0       0
  5216 ;;      Temps:          0       2       0       0       0
  5217 ;;      Totals:         0       6       0       0       0
  5218 ;;Total ram usage:        6 bytes
  5219 ;; Hardware stack levels used:    1
  5220 ;; Hardware stack levels required when called:    2
  5221 ;; This function calls:
  5222 ;;		_lcd_gotoxy
  5223 ;;		_lcd_send
  5224 ;; This function is called by:
  5225 ;;		_display_reading
  5226 ;; This function uses a non-reentrant model
  5227 ;;
  5228                           
  5229                           
  5230                           ;psect for function _display_digit
  5231  1269                     _display_digit:	
  5232                           
  5233                           ;incstack = 0
  5234                           ; Regs used in _display_digit: [wreg-fsr0h+status,2+status,0+btemp+1+pclath+cstack]
  5235                           ;display_digit@line stored from wreg
  5236  1269  1283               	bcf	3,5	;RP0=0, select bank0
  5237  126A  1303               	bcf	3,6	;RP1=0, select bank0
  5238  126B  00A4               	movwf	display_digit@line
  5239                           
  5240                           ;display.c: 5: unsigned char i;
  5241                           ;display.c: 6: if (line<1 || line>5) return;
  5242  126C  0824               	movf	display_digit@line,w
  5243  126D  1903               	btfsc	3,2
  5244  126E  0008               	return
  5245  126F  3006               	movlw	6
  5246  1270  0224               	subwf	display_digit@line,w
  5247  1271  1803               	btfsc	3,0
  5248  1272  0008               	return
  5249                           
  5250                           ;display.c: 7: if (column >74) return;
  5251  1273  304B               	movlw	75
  5252  1274  0220               	subwf	display_digit@column,w
  5253  1275  1803               	btfsc	3,0
  5254  1276  0008               	return
  5255                           
  5256                           ;display.c: 8: if (digit>9) return;
  5257  1277  300A               	movlw	10
  5258  1278  0221               	subwf	display_digit@digit,w
  5259  1279  1803               	btfsc	3,0
  5260  127A  0008               	return
  5261                           
  5262                           ;display.c: 10: lcd_gotoxy(column, line-1);
  5263  127B  0824               	movf	display_digit@line,w
  5264  127C  3EFF               	addlw	255
  5265  127D  00F8               	movwf	lcd_gotoxy@y
  5266  127E  30FF               	movlw	255
  5267  127F  1803               	skipnc
  5268  1280  3000               	movlw	0
  5269  1281  00F9               	movwf	lcd_gotoxy@y+1
  5270  1282  0820               	movf	display_digit@column,w
  5271  1283  160A  158A  258E  160A  118A  	fcall	_lcd_gotoxy
  5272                           
  5273                           ;display.c: 11: for(i=0; i<8; i++) lcd_send(digits_8x16[(digit<<4)+i],1);
  5274  1288  1283               	bcf	3,5	;RP0=0, select bank0
  5275  1289  1303               	bcf	3,6	;RP1=0, select bank0
  5276  128A  01A5               	clrf	display_digit@i
  5277  128B  3008               	movlw	8
  5278  128C  0225               	subwf	display_digit@i,w
  5279  128D  1803               	btfsc	3,0
  5280  128E  2AB5               	goto	l1680
  5281  128F                     l1674:	
  5282  128F  01F6               	clrf	lcd_send@cmd
  5283  1290  0AF6               	incf	lcd_send@cmd,f
  5284  1291  0821               	movf	display_digit@digit,w
  5285  1292  00A2               	movwf	??_display_digit
  5286  1293  3004               	movlw	4
  5287  1294                     u1755:	
  5288  1294  1003               	clrc
  5289  1295  0DA2               	rlf	??_display_digit,f
  5290  1296  3EFF               	addlw	-1
  5291  1297  1D03               	skipz
  5292  1298  2A94               	goto	u1755
  5293  1299  0825               	movf	display_digit@i,w
  5294  129A  0722               	addwf	??_display_digit,w
  5295  129B  3EA9               	addlw	low (display@digits_8x16| (0+32768))
  5296  129C  0084               	movwf	4
  5297  129D  3090               	movlw	high (display@digits_8x16| (0+32768))
  5298  129E  1803               	skipnc
  5299  129F  3E01               	addlw	1
  5300  12A0  00FF               	movwf	127
  5301  12A1  120A  158A  2000  160A  118A  	fcall	stringtab
  5302  12A6  160A  118A  21E9  160A  118A  	fcall	_lcd_send
  5303  12AB  3001               	movlw	1
  5304  12AC  1283               	bcf	3,5	;RP0=0, select bank0
  5305  12AD  1303               	bcf	3,6	;RP1=0, select bank0
  5306  12AE  00A2               	movwf	??_display_digit
  5307  12AF  0822               	movf	??_display_digit,w
  5308  12B0  07A5               	addwf	display_digit@i,f
  5309  12B1  3008               	movlw	8
  5310  12B2  0225               	subwf	display_digit@i,w
  5311  12B3  1C03               	skipc
  5312  12B4  2A8F               	goto	l1674
  5313  12B5                     l1680:	
  5314                           
  5315                           ;display.c: 12: lcd_gotoxy(column, line);
  5316  12B5  0824               	movf	display_digit@line,w
  5317  12B6  00A2               	movwf	??_display_digit
  5318  12B7  01A3               	clrf	??_display_digit+1
  5319  12B8  0822               	movf	??_display_digit,w
  5320  12B9  00F8               	movwf	lcd_gotoxy@y
  5321  12BA  0823               	movf	??_display_digit+1,w
  5322  12BB  00F9               	movwf	lcd_gotoxy@y+1
  5323  12BC  0820               	movf	display_digit@column,w
  5324  12BD  160A  158A  258E  160A  118A  	fcall	_lcd_gotoxy
  5325                           
  5326                           ;display.c: 13: for(i=8; i<16; i++) lcd_send(digits_8x16[(digit<<4)+i],1);
  5327  12C2  3008               	movlw	8
  5328  12C3  1283               	bcf	3,5	;RP0=0, select bank0
  5329  12C4  1303               	bcf	3,6	;RP1=0, select bank0
  5330  12C5  00A2               	movwf	??_display_digit
  5331  12C6  0822               	movf	??_display_digit,w
  5332  12C7  00A5               	movwf	display_digit@i
  5333  12C8                     L4:	
  5334  12C8  3010               	movlw	16
  5335  12C9  0225               	subwf	display_digit@i,w
  5336  12CA  1803               	btfsc	3,0
  5337  12CB  0008               	return
  5338  12CC  01F6               	clrf	lcd_send@cmd
  5339  12CD  0AF6               	incf	lcd_send@cmd,f
  5340  12CE  0821               	movf	display_digit@digit,w
  5341  12CF  00A2               	movwf	??_display_digit
  5342  12D0  3004               	movlw	4
  5343  12D1                     u1785:	
  5344  12D1  1003               	clrc
  5345  12D2  0DA2               	rlf	??_display_digit,f
  5346  12D3  3EFF               	addlw	-1
  5347  12D4  1D03               	skipz
  5348  12D5  2AD1               	goto	u1785
  5349  12D6  0825               	movf	display_digit@i,w
  5350  12D7  0722               	addwf	??_display_digit,w
  5351  12D8  3EA9               	addlw	low (display@digits_8x16| (0+32768))
  5352  12D9  0084               	movwf	4
  5353  12DA  3090               	movlw	high (display@digits_8x16| (0+32768))
  5354  12DB  1803               	skipnc
  5355  12DC  3E01               	addlw	1
  5356  12DD  00FF               	movwf	127
  5357  12DE  120A  158A  2000  160A  118A  	fcall	stringtab
  5358  12E3  160A  118A  21E9  160A  118A  	fcall	_lcd_send
  5359  12E8  3001               	movlw	1
  5360  12E9  1283               	bcf	3,5	;RP0=0, select bank0
  5361  12EA  1303               	bcf	3,6	;RP1=0, select bank0
  5362  12EB  00A2               	movwf	??_display_digit
  5363  12EC  0822               	movf	??_display_digit,w
  5364  12ED  07A5               	addwf	display_digit@i,f
  5365  12EE  2AC8               	goto	L4
  5366  12EF                     __end_of_display_digit:	
  5367                           
  5368                           	psect	text6
  5369  1E4A                     __ptext6:	
  5370 ;; *************** function ___lwmod *****************
  5371 ;; Defined at:
  5372 ;;		line 6 in file "C:\Program Files (x86)\Microchip\xc8\v1.34\sources\common\lwmod.c"
  5373 ;; Parameters:    Size  Location     Type
  5374 ;;  divisor         2    8[COMMON] unsigned int 
  5375 ;;  dividend        2   10[COMMON] unsigned int 
  5376 ;; Auto vars:     Size  Location     Type
  5377 ;;  counter         1   13[COMMON] unsigned char 
  5378 ;; Return value:  Size  Location     Type
  5379 ;;                  2    8[COMMON] unsigned int 
  5380 ;; Registers used:
  5381 ;;		wreg, status,2, status,0
  5382 ;; Tracked objects:
  5383 ;;		On entry : 0/0
  5384 ;;		On exit  : 0/0
  5385 ;;		Unchanged: 0/0
  5386 ;; Data sizes:     COMMON   BANK0   BANK1   BANK3   BANK2
  5387 ;;      Params:         4       0       0       0       0
  5388 ;;      Locals:         1       0       0       0       0
  5389 ;;      Temps:          1       0       0       0       0
  5390 ;;      Totals:         6       0       0       0       0
  5391 ;;Total ram usage:        6 bytes
  5392 ;; Hardware stack levels used:    1
  5393 ;; This function calls:
  5394 ;;		Nothing
  5395 ;; This function is called by:
  5396 ;;		_display_reading
  5397 ;; This function uses a non-reentrant model
  5398 ;;
  5399                           
  5400                           
  5401                           ;psect for function ___lwmod
  5402  1E4A                     ___lwmod:	
  5403                           
  5404                           ;incstack = 0
  5405                           ; Regs used in ___lwmod: [wreg+status,2+status,0]
  5406  1E4A  0878               	movf	___lwmod@divisor,w
  5407  1E4B  0479               	iorwf	___lwmod@divisor+1,w
  5408  1E4C  1903               	btfsc	3,2
  5409  1E4D  2E77               	goto	l1770
  5410  1E4E  01FD               	clrf	___lwmod@counter
  5411  1E4F  0AFD               	incf	___lwmod@counter,f
  5412  1E50                     l1760:	
  5413  1E50  1BF9               	btfsc	___lwmod@divisor+1,7
  5414  1E51  2E5E               	goto	l1762
  5415  1E52  3001               	movlw	1
  5416  1E53                     u2005:	
  5417  1E53  1003               	clrc
  5418  1E54  0DF8               	rlf	___lwmod@divisor,f
  5419  1E55  0DF9               	rlf	___lwmod@divisor+1,f
  5420  1E56  3EFF               	addlw	-1
  5421  1E57  1D03               	skipz
  5422  1E58  2E53               	goto	u2005
  5423  1E59  3001               	movlw	1
  5424  1E5A  00FC               	movwf	??___lwmod
  5425  1E5B  087C               	movf	??___lwmod,w
  5426  1E5C  07FD               	addwf	___lwmod@counter,f
  5427  1E5D  2E50               	goto	l1760
  5428  1E5E                     l1762:	
  5429  1E5E  0879               	movf	___lwmod@divisor+1,w
  5430  1E5F  027B               	subwf	___lwmod@dividend+1,w
  5431  1E60  1D03               	skipz
  5432  1E61  2E64               	goto	u2025
  5433  1E62  0878               	movf	___lwmod@divisor,w
  5434  1E63  027A               	subwf	___lwmod@dividend,w
  5435  1E64                     u2025:	
  5436  1E64  1C03               	skipc
  5437  1E65  2E6C               	goto	l1766
  5438  1E66  0878               	movf	___lwmod@divisor,w
  5439  1E67  02FA               	subwf	___lwmod@dividend,f
  5440  1E68  0879               	movf	___lwmod@divisor+1,w
  5441  1E69  1C03               	skipc
  5442  1E6A  03FB               	decf	___lwmod@dividend+1,f
  5443  1E6B  02FB               	subwf	___lwmod@dividend+1,f
  5444  1E6C                     l1766:	
  5445  1E6C  3001               	movlw	1
  5446  1E6D                     u2035:	
  5447  1E6D  1003               	clrc
  5448  1E6E  0CF9               	rrf	___lwmod@divisor+1,f
  5449  1E6F  0CF8               	rrf	___lwmod@divisor,f
  5450  1E70  3EFF               	addlw	-1
  5451  1E71  1D03               	skipz
  5452  1E72  2E6D               	goto	u2035
  5453  1E73  3001               	movlw	1
  5454  1E74  02FD               	subwf	___lwmod@counter,f
  5455  1E75  1D03               	btfss	3,2
  5456  1E76  2E5E               	goto	l1762
  5457  1E77                     l1770:	
  5458  1E77  087B               	movf	___lwmod@dividend+1,w
  5459  1E78  00F9               	movwf	?___lwmod+1
  5460  1E79  087A               	movf	___lwmod@dividend,w
  5461  1E7A  00F8               	movwf	?___lwmod
  5462  1E7B  0008               	return
  5463  1E7C                     __end_of___lwmod:	
  5464                           
  5465                           	psect	text7
  5466  000A                     __ptext7:	
  5467 ;; *************** function ___lwdiv *****************
  5468 ;; Defined at:
  5469 ;;		line 6 in file "C:\Program Files (x86)\Microchip\xc8\v1.34\sources\common\lwdiv.c"
  5470 ;; Parameters:    Size  Location     Type
  5471 ;;  divisor         2    0[COMMON] unsigned int 
  5472 ;;  dividend        2    2[COMMON] unsigned int 
  5473 ;; Auto vars:     Size  Location     Type
  5474 ;;  quotient        2    5[COMMON] unsigned int 
  5475 ;;  counter         1    7[COMMON] unsigned char 
  5476 ;; Return value:  Size  Location     Type
  5477 ;;                  2    0[COMMON] unsigned int 
  5478 ;; Registers used:
  5479 ;;		wreg, status,2, status,0
  5480 ;; Tracked objects:
  5481 ;;		On entry : 0/0
  5482 ;;		On exit  : 0/0
  5483 ;;		Unchanged: 0/0
  5484 ;; Data sizes:     COMMON   BANK0   BANK1   BANK3   BANK2
  5485 ;;      Params:         4       0       0       0       0
  5486 ;;      Locals:         3       0       0       0       0
  5487 ;;      Temps:          1       0       0       0       0
  5488 ;;      Totals:         8       0       0       0       0
  5489 ;;Total ram usage:        8 bytes
  5490 ;; Hardware stack levels used:    1
  5491 ;; This function calls:
  5492 ;;		Nothing
  5493 ;; This function is called by:
  5494 ;;		_display_reading
  5495 ;; This function uses a non-reentrant model
  5496 ;;
  5497                           
  5498                           
  5499                           ;psect for function ___lwdiv
  5500  000A                     ___lwdiv:	
  5501                           
  5502                           ;incstack = 0
  5503                           ; Regs used in ___lwdiv: [wreg+status,2+status,0]
  5504  000A  01F5               	clrf	___lwdiv@quotient
  5505  000B  01F6               	clrf	___lwdiv@quotient+1
  5506  000C  0870               	movf	___lwdiv@divisor,w
  5507  000D  0471               	iorwf	___lwdiv@divisor+1,w
  5508  000E  1903               	btfsc	3,2
  5509  000F  2841               	goto	l1748
  5510  0010  01F7               	clrf	___lwdiv@counter
  5511  0011  0AF7               	incf	___lwdiv@counter,f
  5512  0012                     l1736:	
  5513  0012  1BF1               	btfsc	___lwdiv@divisor+1,7
  5514  0013  2820               	goto	l1738
  5515  0014  3001               	movlw	1
  5516  0015                     u1935:	
  5517  0015  1003               	clrc
  5518  0016  0DF0               	rlf	___lwdiv@divisor,f
  5519  0017  0DF1               	rlf	___lwdiv@divisor+1,f
  5520  0018  3EFF               	addlw	-1
  5521  0019  1D03               	skipz
  5522  001A  2815               	goto	u1935
  5523  001B  3001               	movlw	1
  5524  001C  00F4               	movwf	??___lwdiv
  5525  001D  0874               	movf	??___lwdiv,w
  5526  001E  07F7               	addwf	___lwdiv@counter,f
  5527  001F  2812               	goto	l1736
  5528  0020                     l1738:	
  5529  0020  3001               	movlw	1
  5530  0021                     u1955:	
  5531  0021  1003               	clrc
  5532  0022  0DF5               	rlf	___lwdiv@quotient,f
  5533  0023  0DF6               	rlf	___lwdiv@quotient+1,f
  5534  0024  3EFF               	addlw	-1
  5535  0025  1D03               	skipz
  5536  0026  2821               	goto	u1955
  5537  0027  0871               	movf	___lwdiv@divisor+1,w
  5538  0028  0273               	subwf	___lwdiv@dividend+1,w
  5539  0029  1D03               	skipz
  5540  002A  282D               	goto	u1965
  5541  002B  0870               	movf	___lwdiv@divisor,w
  5542  002C  0272               	subwf	___lwdiv@dividend,w
  5543  002D                     u1965:	
  5544  002D  1C03               	skipc
  5545  002E  2836               	goto	l1744
  5546  002F  0870               	movf	___lwdiv@divisor,w
  5547  0030  02F2               	subwf	___lwdiv@dividend,f
  5548  0031  0871               	movf	___lwdiv@divisor+1,w
  5549  0032  1C03               	skipc
  5550  0033  03F3               	decf	___lwdiv@dividend+1,f
  5551  0034  02F3               	subwf	___lwdiv@dividend+1,f
  5552  0035  1475               	bsf	___lwdiv@quotient,0
  5553  0036                     l1744:	
  5554  0036  3001               	movlw	1
  5555  0037                     u1975:	
  5556  0037  1003               	clrc
  5557  0038  0CF1               	rrf	___lwdiv@divisor+1,f
  5558  0039  0CF0               	rrf	___lwdiv@divisor,f
  5559  003A  3EFF               	addlw	-1
  5560  003B  1D03               	skipz
  5561  003C  2837               	goto	u1975
  5562  003D  3001               	movlw	1
  5563  003E  02F7               	subwf	___lwdiv@counter,f
  5564  003F  1D03               	btfss	3,2
  5565  0040  2820               	goto	l1738
  5566  0041                     l1748:	
  5567  0041  0876               	movf	___lwdiv@quotient+1,w
  5568  0042  00F1               	movwf	?___lwdiv+1
  5569  0043  0875               	movf	___lwdiv@quotient,w
  5570  0044  00F0               	movwf	?___lwdiv
  5571  0045  0008               	return
  5572  0046                     __end_of___lwdiv:	
  5573                           
  5574                           	psect	text8
  5575  12EF                     __ptext8:	
  5576 ;; *************** function ___fttol *****************
  5577 ;; Defined at:
  5578 ;;		line 44 in file "C:\Program Files (x86)\Microchip\xc8\v1.34\sources\common\fttol.c"
  5579 ;; Parameters:    Size  Location     Type
  5580 ;;  f1              3    0[COMMON] float 
  5581 ;; Auto vars:     Size  Location     Type
  5582 ;;  lval            4    9[COMMON] unsigned long 
  5583 ;;  exp1            1   13[COMMON] unsigned char 
  5584 ;;  sign1           1    8[COMMON] unsigned char 
  5585 ;; Return value:  Size  Location     Type
  5586 ;;                  4    0[COMMON] long 
  5587 ;; Registers used:
  5588 ;;		wreg, status,2, status,0
  5589 ;; Tracked objects:
  5590 ;;		On entry : 0/0
  5591 ;;		On exit  : 0/0
  5592 ;;		Unchanged: 0/0
  5593 ;; Data sizes:     COMMON   BANK0   BANK1   BANK3   BANK2
  5594 ;;      Params:         4       0       0       0       0
  5595 ;;      Locals:         6       0       0       0       0
  5596 ;;      Temps:          4       0       0       0       0
  5597 ;;      Totals:        14       0       0       0       0
  5598 ;;Total ram usage:       14 bytes
  5599 ;; Hardware stack levels used:    1
  5600 ;; This function calls:
  5601 ;;		Nothing
  5602 ;; This function is called by:
  5603 ;;		_measure_capacitance
  5604 ;;		_measure_inductance
  5605 ;; This function uses a non-reentrant model
  5606 ;;
  5607                           
  5608                           
  5609                           ;psect for function ___fttol
  5610  12EF                     ___fttol:	
  5611                           
  5612                           ;incstack = 0
  5613                           ; Regs used in ___fttol: [wreg+status,2+status,0]
  5614  12EF  0870               	movf	___fttol@f1,w
  5615  12F0  00F4               	movwf	??___fttol
  5616  12F1  0871               	movf	___fttol@f1+1,w
  5617  12F2  00F5               	movwf	??___fttol+1
  5618  12F3  0872               	movf	___fttol@f1+2,w
  5619  12F4  00F6               	movwf	??___fttol+2
  5620  12F5  1003               	clrc
  5621  12F6  0D75               	rlf	??___fttol+1,w
  5622  12F7  0D76               	rlf	??___fttol+2,w
  5623  12F8  00F7               	movwf	??___fttol+3
  5624  12F9  0877               	movf	??___fttol+3,w
  5625  12FA  00FD               	movwf	___fttol@exp1
  5626  12FB  087D               	movf	___fttol@exp1,w
  5627  12FC  1D03               	btfss	3,2
  5628  12FD  2B07               	goto	l2108
  5629  12FE  3000               	movlw	0
  5630  12FF  00F3               	movwf	?___fttol+3
  5631  1300  3000               	movlw	0
  5632  1301  00F2               	movwf	?___fttol+2
  5633  1302  3000               	movlw	0
  5634  1303  00F1               	movwf	?___fttol+1
  5635  1304  3000               	movlw	0
  5636  1305  00F0               	movwf	?___fttol
  5637  1306  0008               	return
  5638  1307                     l2108:	
  5639  1307  0870               	movf	___fttol@f1,w
  5640  1308  00F4               	movwf	??___fttol
  5641  1309  0871               	movf	___fttol@f1+1,w
  5642  130A  00F5               	movwf	??___fttol+1
  5643  130B  0872               	movf	___fttol@f1+2,w
  5644  130C  00F6               	movwf	??___fttol+2
  5645  130D  3017               	movlw	23
  5646  130E                     u2695:	
  5647  130E  1003               	clrc
  5648  130F  0CF6               	rrf	??___fttol+2,f
  5649  1310  0CF5               	rrf	??___fttol+1,f
  5650  1311  0CF4               	rrf	??___fttol,f
  5651  1312  3EFF               	addlw	-1
  5652  1313  1D03               	skipz
  5653  1314  2B0E               	goto	u2695
  5654  1315  0874               	movf	??___fttol,w
  5655  1316  00F7               	movwf	??___fttol+3
  5656  1317  0877               	movf	??___fttol+3,w
  5657  1318  00F8               	movwf	___fttol@sign1
  5658  1319  17F1               	bsf	___fttol@f1+1,7
  5659  131A  30FF               	movlw	255
  5660  131B  05F0               	andwf	___fttol@f1,f
  5661  131C  30FF               	movlw	255
  5662  131D  05F1               	andwf	___fttol@f1+1,f
  5663  131E  3000               	movlw	0
  5664  131F  05F2               	andwf	___fttol@f1+2,f
  5665  1320  0870               	movf	___fttol@f1,w
  5666  1321  00F9               	movwf	___fttol@lval
  5667  1322  0871               	movf	___fttol@f1+1,w
  5668  1323  00FA               	movwf	___fttol@lval+1
  5669  1324  0872               	movf	___fttol@f1+2,w
  5670  1325  00FB               	movwf	___fttol@lval+2
  5671  1326  01FC               	clrf	___fttol@lval+3
  5672  1327  308E               	movlw	142
  5673  1328  02FD               	subwf	___fttol@exp1,f
  5674  1329  1FFD               	btfss	___fttol@exp1,7
  5675  132A  2B49               	goto	l2128
  5676  132B  087D               	movf	___fttol@exp1,w
  5677  132C  3A80               	xorlw	128
  5678  132D  3E8F               	addlw	143
  5679  132E  1803               	skipnc
  5680  132F  2B39               	goto	l2126
  5681  1330  3000               	movlw	0
  5682  1331  00F3               	movwf	?___fttol+3
  5683  1332  3000               	movlw	0
  5684  1333  00F2               	movwf	?___fttol+2
  5685  1334  3000               	movlw	0
  5686  1335  00F1               	movwf	?___fttol+1
  5687  1336  3000               	movlw	0
  5688  1337  00F0               	movwf	?___fttol
  5689  1338  0008               	return
  5690  1339                     l2126:	
  5691  1339  3001               	movlw	1
  5692  133A                     u2725:	
  5693  133A  1003               	clrc
  5694  133B  0CFC               	rrf	___fttol@lval+3,f
  5695  133C  0CFB               	rrf	___fttol@lval+2,f
  5696  133D  0CFA               	rrf	___fttol@lval+1,f
  5697  133E  0CF9               	rrf	___fttol@lval,f
  5698  133F  3EFF               	addlw	-1
  5699  1340  1D03               	skipz
  5700  1341  2B3A               	goto	u2725
  5701  1342  3001               	movlw	1
  5702  1343  00F4               	movwf	??___fttol
  5703  1344  0874               	movf	??___fttol,w
  5704  1345  07FD               	addwf	___fttol@exp1,f
  5705  1346  1903               	btfsc	3,2
  5706  1347  2B64               	goto	l2136
  5707  1348  2B39               	goto	l2126
  5708  1349                     l2128:	
  5709  1349  3018               	movlw	24
  5710  134A  027D               	subwf	___fttol@exp1,w
  5711  134B  1C03               	skipc
  5712  134C  2B61               	goto	l604
  5713  134D  3000               	movlw	0
  5714  134E  00F3               	movwf	?___fttol+3
  5715  134F  3000               	movlw	0
  5716  1350  00F2               	movwf	?___fttol+2
  5717  1351  3000               	movlw	0
  5718  1352  00F1               	movwf	?___fttol+1
  5719  1353  3000               	movlw	0
  5720  1354  00F0               	movwf	?___fttol
  5721  1355  0008               	return
  5722  1356                     l2134:	
  5723  1356  3001               	movlw	1
  5724  1357  00F4               	movwf	??___fttol
  5725  1358                     u2755:	
  5726  1358  1003               	clrc
  5727  1359  0DF9               	rlf	___fttol@lval,f
  5728  135A  0DFA               	rlf	___fttol@lval+1,f
  5729  135B  0DFB               	rlf	___fttol@lval+2,f
  5730  135C  0DFC               	rlf	___fttol@lval+3,f
  5731  135D  0BF4               	decfsz	??___fttol,f
  5732  135E  2B58               	goto	u2755
  5733  135F  3001               	movlw	1
  5734  1360  02FD               	subwf	___fttol@exp1,f
  5735  1361                     l604:	
  5736  1361  087D               	movf	___fttol@exp1,w
  5737  1362  1D03               	btfss	3,2
  5738  1363  2B56               	goto	l2134
  5739  1364                     l2136:	
  5740  1364  0878               	movf	___fttol@sign1,w
  5741  1365  1903               	btfsc	3,2
  5742  1366  2B72               	goto	l2140
  5743  1367  09F9               	comf	___fttol@lval,f
  5744  1368  09FA               	comf	___fttol@lval+1,f
  5745  1369  09FB               	comf	___fttol@lval+2,f
  5746  136A  09FC               	comf	___fttol@lval+3,f
  5747  136B  0AF9               	incf	___fttol@lval,f
  5748  136C  1903               	skipnz
  5749  136D  0AFA               	incf	___fttol@lval+1,f
  5750  136E  1903               	skipnz
  5751  136F  0AFB               	incf	___fttol@lval+2,f
  5752  1370  1903               	skipnz
  5753  1371  0AFC               	incf	___fttol@lval+3,f
  5754  1372                     l2140:	
  5755  1372  087C               	movf	___fttol@lval+3,w
  5756  1373  00F3               	movwf	?___fttol+3
  5757  1374  087B               	movf	___fttol@lval+2,w
  5758  1375  00F2               	movwf	?___fttol+2
  5759  1376  087A               	movf	___fttol@lval+1,w
  5760  1377  00F1               	movwf	?___fttol+1
  5761  1378  0879               	movf	___fttol@lval,w
  5762  1379  00F0               	movwf	?___fttol
  5763  137A  0008               	return
  5764  137B                     __end_of___fttol:	
  5765                           
  5766                           	psect	text9
  5767  1D84                     __ptext9:	
  5768 ;; *************** function ___ftneg *****************
  5769 ;; Defined at:
  5770 ;;		line 15 in file "C:\Program Files (x86)\Microchip\xc8\v1.34\sources\common\ftneg.c"
  5771 ;; Parameters:    Size  Location     Type
  5772 ;;  f1              3   26[BANK0 ] float 
  5773 ;; Auto vars:     Size  Location     Type
  5774 ;;		None
  5775 ;; Return value:  Size  Location     Type
  5776 ;;                  3   26[BANK0 ] float 
  5777 ;; Registers used:
  5778 ;;		wreg
  5779 ;; Tracked objects:
  5780 ;;		On entry : 0/0
  5781 ;;		On exit  : 0/0
  5782 ;;		Unchanged: 0/0
  5783 ;; Data sizes:     COMMON   BANK0   BANK1   BANK3   BANK2
  5784 ;;      Params:         0       3       0       0       0
  5785 ;;      Locals:         0       0       0       0       0
  5786 ;;      Temps:          0       0       0       0       0
  5787 ;;      Totals:         0       3       0       0       0
  5788 ;;Total ram usage:        3 bytes
  5789 ;; Hardware stack levels used:    1
  5790 ;; This function calls:
  5791 ;;		Nothing
  5792 ;; This function is called by:
  5793 ;;		_measure_capacitance
  5794 ;;		_measure_inductance
  5795 ;; This function uses a non-reentrant model
  5796 ;;
  5797                           
  5798                           
  5799                           ;psect for function ___ftneg
  5800  1D84                     ___ftneg:	
  5801                           
  5802                           ;incstack = 0
  5803                           ; Regs used in ___ftneg: [wreg]
  5804  1D84  1283               	bcf	3,5	;RP0=0, select bank0
  5805  1D85  1303               	bcf	3,6	;RP1=0, select bank0
  5806  1D86  083C               	movf	___ftneg@f1+2,w
  5807  1D87  043B               	iorwf	___ftneg@f1+1,w
  5808  1D88  043A               	iorwf	___ftneg@f1,w
  5809  1D89  1903               	skipnz
  5810  1D8A  0008               	return
  5811  1D8B  3080               	movlw	128
  5812  1D8C  06BC               	xorwf	___ftneg@f1+2,f
  5813  1D8D  0008               	return
  5814  1D8E                     __end_of___ftneg:	
  5815                           
  5816                           	psect	text10
  5817  155E                     __ptext10:	
  5818 ;; *************** function ___ftmul *****************
  5819 ;; Defined at:
  5820 ;;		line 62 in file "C:\Program Files (x86)\Microchip\xc8\v1.34\sources\common\ftmul.c"
  5821 ;; Parameters:    Size  Location     Type
  5822 ;;  f1              3   10[BANK0 ] float 
  5823 ;;  f2              3   13[BANK0 ] float 
  5824 ;; Auto vars:     Size  Location     Type
  5825 ;;  f3_as_produc    3   21[BANK0 ] unsigned um
  5826 ;;  sign            1   25[BANK0 ] unsigned char 
  5827 ;;  cntr            1   24[BANK0 ] unsigned char 
  5828 ;;  exp             1   20[BANK0 ] unsigned char 
  5829 ;; Return value:  Size  Location     Type
  5830 ;;                  3   10[BANK0 ] float 
  5831 ;; Registers used:
  5832 ;;		wreg, status,2, status,0, pclath, cstack
  5833 ;; Tracked objects:
  5834 ;;		On entry : 0/0
  5835 ;;		On exit  : 0/0
  5836 ;;		Unchanged: 0/0
  5837 ;; Data sizes:     COMMON   BANK0   BANK1   BANK3   BANK2
  5838 ;;      Params:         0       6       0       0       0
  5839 ;;      Locals:         0       6       0       0       0
  5840 ;;      Temps:          0       4       0       0       0
  5841 ;;      Totals:         0      16       0       0       0
  5842 ;;Total ram usage:       16 bytes
  5843 ;; Hardware stack levels used:    1
  5844 ;; Hardware stack levels required when called:    1
  5845 ;; This function calls:
  5846 ;;		___ftpack
  5847 ;; This function is called by:
  5848 ;;		_measure_capacitance
  5849 ;;		_measure_inductance
  5850 ;; This function uses a non-reentrant model
  5851 ;;
  5852                           
  5853                           
  5854                           ;psect for function ___ftmul
  5855  155E                     ___ftmul:	
  5856                           
  5857                           ;incstack = 0
  5858                           ; Regs used in ___ftmul: [wreg+status,2+status,0+pclath+cstack]
  5859  155E  1283               	bcf	3,5	;RP0=0, select bank0
  5860  155F  1303               	bcf	3,6	;RP1=0, select bank0
  5861  1560  082A               	movf	___ftmul@f1,w
  5862  1561  00B0               	movwf	??___ftmul
  5863  1562  082B               	movf	___ftmul@f1+1,w
  5864  1563  00B1               	movwf	??___ftmul+1
  5865  1564  082C               	movf	___ftmul@f1+2,w
  5866  1565  00B2               	movwf	??___ftmul+2
  5867  1566  1003               	clrc
  5868  1567  0D31               	rlf	??___ftmul+1,w
  5869  1568  0D32               	rlf	??___ftmul+2,w
  5870  1569  00B3               	movwf	??___ftmul+3
  5871  156A  0833               	movf	??___ftmul+3,w
  5872  156B  00B4               	movwf	___ftmul@exp
  5873  156C  0834               	movf	___ftmul@exp,w
  5874  156D  1D03               	btfss	3,2
  5875  156E  2D76               	goto	l2050
  5876  156F  3000               	movlw	0
  5877  1570  00AA               	movwf	?___ftmul
  5878  1571  3000               	movlw	0
  5879  1572  00AB               	movwf	?___ftmul+1
  5880  1573  3000               	movlw	0
  5881  1574  00AC               	movwf	?___ftmul+2
  5882  1575  0008               	return
  5883  1576                     l2050:	
  5884  1576  082D               	movf	___ftmul@f2,w
  5885  1577  00B0               	movwf	??___ftmul
  5886  1578  082E               	movf	___ftmul@f2+1,w
  5887  1579  00B1               	movwf	??___ftmul+1
  5888  157A  082F               	movf	___ftmul@f2+2,w
  5889  157B  00B2               	movwf	??___ftmul+2
  5890  157C  1003               	clrc
  5891  157D  0D31               	rlf	??___ftmul+1,w
  5892  157E  0D32               	rlf	??___ftmul+2,w
  5893  157F  00B3               	movwf	??___ftmul+3
  5894  1580  0833               	movf	??___ftmul+3,w
  5895  1581  00B9               	movwf	___ftmul@sign
  5896  1582  0839               	movf	___ftmul@sign,w
  5897  1583  1D03               	btfss	3,2
  5898  1584  2D8C               	goto	l2056
  5899  1585  3000               	movlw	0
  5900  1586  00AA               	movwf	?___ftmul
  5901  1587  3000               	movlw	0
  5902  1588  00AB               	movwf	?___ftmul+1
  5903  1589  3000               	movlw	0
  5904  158A  00AC               	movwf	?___ftmul+2
  5905  158B  0008               	return
  5906  158C                     l2056:	
  5907  158C  0839               	movf	___ftmul@sign,w
  5908  158D  3E7B               	addlw	123
  5909  158E  00B0               	movwf	??___ftmul
  5910  158F  0830               	movf	??___ftmul,w
  5911  1590  07B4               	addwf	___ftmul@exp,f
  5912  1591  082A               	movf	___ftmul@f1,w
  5913  1592  00B0               	movwf	??___ftmul
  5914  1593  082B               	movf	___ftmul@f1+1,w
  5915  1594  00B1               	movwf	??___ftmul+1
  5916  1595  082C               	movf	___ftmul@f1+2,w
  5917  1596  00B2               	movwf	??___ftmul+2
  5918  1597  3010               	movlw	16
  5919  1598                     u2555:	
  5920  1598  1003               	clrc
  5921  1599  0CB2               	rrf	??___ftmul+2,f
  5922  159A  0CB1               	rrf	??___ftmul+1,f
  5923  159B  0CB0               	rrf	??___ftmul,f
  5924  159C  3EFF               	addlw	-1
  5925  159D  1D03               	skipz
  5926  159E  2D98               	goto	u2555
  5927  159F  0830               	movf	??___ftmul,w
  5928  15A0  00B3               	movwf	??___ftmul+3
  5929  15A1  0833               	movf	??___ftmul+3,w
  5930  15A2  00B9               	movwf	___ftmul@sign
  5931  15A3  082D               	movf	___ftmul@f2,w
  5932  15A4  00B0               	movwf	??___ftmul
  5933  15A5  082E               	movf	___ftmul@f2+1,w
  5934  15A6  00B1               	movwf	??___ftmul+1
  5935  15A7  082F               	movf	___ftmul@f2+2,w
  5936  15A8  00B2               	movwf	??___ftmul+2
  5937  15A9  3010               	movlw	16
  5938  15AA                     u2565:	
  5939  15AA  1003               	clrc
  5940  15AB  0CB2               	rrf	??___ftmul+2,f
  5941  15AC  0CB1               	rrf	??___ftmul+1,f
  5942  15AD  0CB0               	rrf	??___ftmul,f
  5943  15AE  3EFF               	addlw	-1
  5944  15AF  1D03               	skipz
  5945  15B0  2DAA               	goto	u2565
  5946  15B1  0830               	movf	??___ftmul,w
  5947  15B2  00B3               	movwf	??___ftmul+3
  5948  15B3  0833               	movf	??___ftmul+3,w
  5949  15B4  06B9               	xorwf	___ftmul@sign,f
  5950  15B5  3080               	movlw	128
  5951  15B6  00B0               	movwf	??___ftmul
  5952  15B7  0830               	movf	??___ftmul,w
  5953  15B8  05B9               	andwf	___ftmul@sign,f
  5954  15B9  17AB               	bsf	___ftmul@f1+1,7
  5955  15BA  17AE               	bsf	___ftmul@f2+1,7
  5956  15BB  30FF               	movlw	255
  5957  15BC  05AD               	andwf	___ftmul@f2,f
  5958  15BD  30FF               	movlw	255
  5959  15BE  05AE               	andwf	___ftmul@f2+1,f
  5960  15BF  3000               	movlw	0
  5961  15C0  05AF               	andwf	___ftmul@f2+2,f
  5962  15C1  3000               	movlw	0
  5963  15C2  00B5               	movwf	___ftmul@f3_as_product
  5964  15C3  3000               	movlw	0
  5965  15C4  00B6               	movwf	___ftmul@f3_as_product+1
  5966  15C5  3000               	movlw	0
  5967  15C6  00B7               	movwf	___ftmul@f3_as_product+2
  5968  15C7  3007               	movlw	7
  5969  15C8  00B0               	movwf	??___ftmul
  5970  15C9  0830               	movf	??___ftmul,w
  5971  15CA  00B8               	movwf	___ftmul@cntr
  5972  15CB                     l2068:	
  5973  15CB  1C2A               	btfss	___ftmul@f1,0
  5974  15CC  2DDB               	goto	l2072
  5975  15CD  082D               	movf	___ftmul@f2,w
  5976  15CE  07B5               	addwf	___ftmul@f3_as_product,f
  5977  15CF  082E               	movf	___ftmul@f2+1,w
  5978  15D0  1103               	clrz
  5979  15D1  1803               	skipnc
  5980  15D2  0A2E               	incf	___ftmul@f2+1,w
  5981  15D3  1D03               	btfss	3,2
  5982  15D4  07B6               	addwf	___ftmul@f3_as_product+1,f
  5983  15D5  082F               	movf	___ftmul@f2+2,w
  5984  15D6  1103               	clrz
  5985  15D7  1803               	skipnc
  5986  15D8  0A2F               	incf	___ftmul@f2+2,w
  5987  15D9  1D03               	btfss	3,2
  5988  15DA  07B7               	addwf	___ftmul@f3_as_product+2,f
  5989  15DB                     l2072:	
  5990  15DB  3001               	movlw	1
  5991  15DC                     u2595:	
  5992  15DC  1003               	clrc
  5993  15DD  0CAC               	rrf	___ftmul@f1+2,f
  5994  15DE  0CAB               	rrf	___ftmul@f1+1,f
  5995  15DF  0CAA               	rrf	___ftmul@f1,f
  5996  15E0  3EFF               	addlw	-1
  5997  15E1  1D03               	skipz
  5998  15E2  2DDC               	goto	u2595
  5999  15E3  3001               	movlw	1
  6000  15E4                     u2605:	
  6001  15E4  1003               	clrc
  6002  15E5  0DAD               	rlf	___ftmul@f2,f
  6003  15E6  0DAE               	rlf	___ftmul@f2+1,f
  6004  15E7  0DAF               	rlf	___ftmul@f2+2,f
  6005  15E8  3EFF               	addlw	-1
  6006  15E9  1D03               	skipz
  6007  15EA  2DE4               	goto	u2605
  6008  15EB  3001               	movlw	1
  6009  15EC  02B8               	subwf	___ftmul@cntr,f
  6010  15ED  1D03               	btfss	3,2
  6011  15EE  2DCB               	goto	l2068
  6012  15EF  3009               	movlw	9
  6013  15F0  00B0               	movwf	??___ftmul
  6014  15F1  0830               	movf	??___ftmul,w
  6015  15F2  00B8               	movwf	___ftmul@cntr
  6016  15F3                     l2080:	
  6017  15F3  1C2A               	btfss	___ftmul@f1,0
  6018  15F4  2E03               	goto	l2084
  6019  15F5  082D               	movf	___ftmul@f2,w
  6020  15F6  07B5               	addwf	___ftmul@f3_as_product,f
  6021  15F7  082E               	movf	___ftmul@f2+1,w
  6022  15F8  1103               	clrz
  6023  15F9  1803               	skipnc
  6024  15FA  0A2E               	incf	___ftmul@f2+1,w
  6025  15FB  1D03               	btfss	3,2
  6026  15FC  07B6               	addwf	___ftmul@f3_as_product+1,f
  6027  15FD  082F               	movf	___ftmul@f2+2,w
  6028  15FE  1103               	clrz
  6029  15FF  1803               	skipnc
  6030  1600  0A2F               	incf	___ftmul@f2+2,w
  6031  1601  1D03               	btfss	3,2
  6032  1602  07B7               	addwf	___ftmul@f3_as_product+2,f
  6033  1603                     l2084:	
  6034  1603  3001               	movlw	1
  6035  1604                     u2645:	
  6036  1604  1003               	clrc
  6037  1605  0CAC               	rrf	___ftmul@f1+2,f
  6038  1606  0CAB               	rrf	___ftmul@f1+1,f
  6039  1607  0CAA               	rrf	___ftmul@f1,f
  6040  1608  3EFF               	addlw	-1
  6041  1609  1D03               	skipz
  6042  160A  2E04               	goto	u2645
  6043  160B  3001               	movlw	1
  6044  160C                     u2655:	
  6045  160C  1003               	clrc
  6046  160D  0CB7               	rrf	___ftmul@f3_as_product+2,f
  6047  160E  0CB6               	rrf	___ftmul@f3_as_product+1,f
  6048  160F  0CB5               	rrf	___ftmul@f3_as_product,f
  6049  1610  3EFF               	addlw	-1
  6050  1611  1D03               	skipz
  6051  1612  2E0C               	goto	u2655
  6052  1613  3001               	movlw	1
  6053  1614  02B8               	subwf	___ftmul@cntr,f
  6054  1615  1D03               	btfss	3,2
  6055  1616  2DF3               	goto	l2080
  6056  1617  0835               	movf	___ftmul@f3_as_product,w
  6057  1618  00F0               	movwf	___ftpack@arg
  6058  1619  0836               	movf	___ftmul@f3_as_product+1,w
  6059  161A  00F1               	movwf	___ftpack@arg+1
  6060  161B  0837               	movf	___ftmul@f3_as_product+2,w
  6061  161C  00F2               	movwf	___ftpack@arg+2
  6062  161D  0834               	movf	___ftmul@exp,w
  6063  161E  00B0               	movwf	??___ftmul
  6064  161F  0830               	movf	??___ftmul,w
  6065  1620  00F3               	movwf	___ftpack@exp
  6066  1621  0839               	movf	___ftmul@sign,w
  6067  1622  00B1               	movwf	??___ftmul+1
  6068  1623  0831               	movf	??___ftmul+1,w
  6069  1624  00F4               	movwf	___ftpack@sign
  6070  1625  160A  158A  2794   	fcall	___ftpack
  6071  1628  0870               	movf	?___ftpack,w
  6072  1629  1283               	bcf	3,5	;RP0=0, select bank0
  6073  162A  1303               	bcf	3,6	;RP1=0, select bank0
  6074  162B  00AA               	movwf	?___ftmul
  6075  162C  0871               	movf	?___ftpack+1,w
  6076  162D  00AB               	movwf	?___ftmul+1
  6077  162E  0872               	movf	?___ftpack+2,w
  6078  162F  00AC               	movwf	?___ftmul+2
  6079  1630  0008               	return
  6080  1631                     __end_of___ftmul:	
  6081                           
  6082                           	psect	text11
  6083  1ED1                     __ptext11:	
  6084 ;; *************** function ___ftge *****************
  6085 ;; Defined at:
  6086 ;;		line 4 in file "C:\Program Files (x86)\Microchip\xc8\v1.34\sources\common\ftge.c"
  6087 ;; Parameters:    Size  Location     Type
  6088 ;;  ff1             3    0[COMMON] float 
  6089 ;;  ff2             3    3[COMMON] float 
  6090 ;; Auto vars:     Size  Location     Type
  6091 ;;		None
  6092 ;; Return value:  Size  Location     Type
  6093 ;;		None               void
  6094 ;; Registers used:
  6095 ;;		wreg, status,2, status,0
  6096 ;; Tracked objects:
  6097 ;;		On entry : 0/0
  6098 ;;		On exit  : 0/0
  6099 ;;		Unchanged: 0/0
  6100 ;; Data sizes:     COMMON   BANK0   BANK1   BANK3   BANK2
  6101 ;;      Params:         6       0       0       0       0
  6102 ;;      Locals:         0       0       0       0       0
  6103 ;;      Temps:          6       0       0       0       0
  6104 ;;      Totals:        12       0       0       0       0
  6105 ;;Total ram usage:       12 bytes
  6106 ;; Hardware stack levels used:    1
  6107 ;; This function calls:
  6108 ;;		Nothing
  6109 ;; This function is called by:
  6110 ;;		_measure_capacitance
  6111 ;;		_measure_inductance
  6112 ;; This function uses a non-reentrant model
  6113 ;;
  6114                           
  6115                           
  6116                           ;psect for function ___ftge
  6117  1ED1                     ___ftge:	
  6118                           
  6119                           ;incstack = 0
  6120                           ; Regs used in ___ftge: [wreg+status,2+status,0]
  6121  1ED1  1FF2               	btfss	___ftge@ff1+2,7
  6122  1ED2  2EF8               	goto	l2028
  6123  1ED3  3000               	movlw	0
  6124  1ED4  00F6               	movwf	??___ftge
  6125  1ED5  3000               	movlw	0
  6126  1ED6  00F7               	movwf	??___ftge+1
  6127  1ED7  3080               	movlw	128
  6128  1ED8  00F8               	movwf	??___ftge+2
  6129  1ED9  0970               	comf	___ftge@ff1,w
  6130  1EDA  00F9               	movwf	??___ftge+3
  6131  1EDB  0971               	comf	___ftge@ff1+1,w
  6132  1EDC  00FA               	movwf	??___ftge+4
  6133  1EDD  0972               	comf	___ftge@ff1+2,w
  6134  1EDE  00FB               	movwf	??___ftge+5
  6135  1EDF  0AF9               	incf	??___ftge+3,f
  6136  1EE0  1903               	skipnz
  6137  1EE1  0AFA               	incf	??___ftge+4,f
  6138  1EE2  1903               	skipnz
  6139  1EE3  0AFB               	incf	??___ftge+5,f
  6140  1EE4  0879               	movf	??___ftge+3,w
  6141  1EE5  07F6               	addwf	??___ftge,f
  6142  1EE6  087A               	movf	??___ftge+4,w
  6143  1EE7  1803               	skipnc
  6144  1EE8  0F7A               	incfsz	??___ftge+4,w
  6145  1EE9  2EEB               	goto	u2491
  6146  1EEA  2EEC               	goto	u2492
  6147  1EEB                     u2491:	
  6148  1EEB  07F7               	addwf	??___ftge+1,f
  6149  1EEC                     u2492:	
  6150  1EEC  087B               	movf	??___ftge+5,w
  6151  1EED  1803               	skipnc
  6152  1EEE  0F7B               	incfsz	??___ftge+5,w
  6153  1EEF  2EF1               	goto	u2493
  6154  1EF0  2EF2               	goto	u2494
  6155  1EF1                     u2493:	
  6156  1EF1  07F8               	addwf	??___ftge+2,f
  6157  1EF2                     u2494:	
  6158  1EF2  0876               	movf	??___ftge,w
  6159  1EF3  00F0               	movwf	___ftge@ff1
  6160  1EF4  0877               	movf	??___ftge+1,w
  6161  1EF5  00F1               	movwf	___ftge@ff1+1
  6162  1EF6  0878               	movf	??___ftge+2,w
  6163  1EF7  00F2               	movwf	___ftge@ff1+2
  6164  1EF8                     l2028:	
  6165  1EF8  1FF5               	btfss	___ftge@ff2+2,7
  6166  1EF9  2F1F               	goto	l2032
  6167  1EFA  3000               	movlw	0
  6168  1EFB  00F6               	movwf	??___ftge
  6169  1EFC  3000               	movlw	0
  6170  1EFD  00F7               	movwf	??___ftge+1
  6171  1EFE  3080               	movlw	128
  6172  1EFF  00F8               	movwf	??___ftge+2
  6173  1F00  0973               	comf	___ftge@ff2,w
  6174  1F01  00F9               	movwf	??___ftge+3
  6175  1F02  0974               	comf	___ftge@ff2+1,w
  6176  1F03  00FA               	movwf	??___ftge+4
  6177  1F04  0975               	comf	___ftge@ff2+2,w
  6178  1F05  00FB               	movwf	??___ftge+5
  6179  1F06  0AF9               	incf	??___ftge+3,f
  6180  1F07  1903               	skipnz
  6181  1F08  0AFA               	incf	??___ftge+4,f
  6182  1F09  1903               	skipnz
  6183  1F0A  0AFB               	incf	??___ftge+5,f
  6184  1F0B  0879               	movf	??___ftge+3,w
  6185  1F0C  07F6               	addwf	??___ftge,f
  6186  1F0D  087A               	movf	??___ftge+4,w
  6187  1F0E  1803               	skipnc
  6188  1F0F  0F7A               	incfsz	??___ftge+4,w
  6189  1F10  2F12               	goto	u2511
  6190  1F11  2F13               	goto	u2512
  6191  1F12                     u2511:	
  6192  1F12  07F7               	addwf	??___ftge+1,f
  6193  1F13                     u2512:	
  6194  1F13  087B               	movf	??___ftge+5,w
  6195  1F14  1803               	skipnc
  6196  1F15  0F7B               	incfsz	??___ftge+5,w
  6197  1F16  2F18               	goto	u2513
  6198  1F17  2F19               	goto	u2514
  6199  1F18                     u2513:	
  6200  1F18  07F8               	addwf	??___ftge+2,f
  6201  1F19                     u2514:	
  6202  1F19  0876               	movf	??___ftge,w
  6203  1F1A  00F3               	movwf	___ftge@ff2
  6204  1F1B  0877               	movf	??___ftge+1,w
  6205  1F1C  00F4               	movwf	___ftge@ff2+1
  6206  1F1D  0878               	movf	??___ftge+2,w
  6207  1F1E  00F5               	movwf	___ftge@ff2+2
  6208  1F1F                     l2032:	
  6209  1F1F  3080               	movlw	128
  6210  1F20  06F2               	xorwf	___ftge@ff1+2,f
  6211  1F21  3080               	movlw	128
  6212  1F22  06F5               	xorwf	___ftge@ff2+2,f
  6213  1F23  0875               	movf	___ftge@ff2+2,w
  6214  1F24  0272               	subwf	___ftge@ff1+2,w
  6215  1F25  1D03               	skipz
  6216  1F26  0008               	return
  6217  1F27  0874               	movf	___ftge@ff2+1,w
  6218  1F28  0271               	subwf	___ftge@ff1+1,w
  6219  1F29  1D03               	skipz
  6220  1F2A  0008               	return
  6221  1F2B  0873               	movf	___ftge@ff2,w
  6222  1F2C  0270               	subwf	___ftge@ff1,w
  6223  1F2D  0008               	return
  6224  1F2E                     __end_of___ftge:	
  6225                           
  6226                           	psect	text12
  6227  14A8                     __ptext12:	
  6228 ;; *************** function ___ftdiv *****************
  6229 ;; Defined at:
  6230 ;;		line 56 in file "C:\Program Files (x86)\Microchip\xc8\v1.34\sources\common\ftdiv.c"
  6231 ;; Parameters:    Size  Location     Type
  6232 ;;  f2              3    8[COMMON] float 
  6233 ;;  f1              3   11[COMMON] float 
  6234 ;; Auto vars:     Size  Location     Type
  6235 ;;  f3              3    5[BANK0 ] float 
  6236 ;;  sign            1    9[BANK0 ] unsigned char 
  6237 ;;  exp             1    8[BANK0 ] unsigned char 
  6238 ;;  cntr            1    4[BANK0 ] unsigned char 
  6239 ;; Return value:  Size  Location     Type
  6240 ;;                  3    8[COMMON] float 
  6241 ;; Registers used:
  6242 ;;		wreg, status,2, status,0, pclath, cstack
  6243 ;; Tracked objects:
  6244 ;;		On entry : 0/0
  6245 ;;		On exit  : 0/0
  6246 ;;		Unchanged: 0/0
  6247 ;; Data sizes:     COMMON   BANK0   BANK1   BANK3   BANK2
  6248 ;;      Params:         6       0       0       0       0
  6249 ;;      Locals:         0       6       0       0       0
  6250 ;;      Temps:          0       4       0       0       0
  6251 ;;      Totals:         6      10       0       0       0
  6252 ;;Total ram usage:       16 bytes
  6253 ;; Hardware stack levels used:    1
  6254 ;; Hardware stack levels required when called:    1
  6255 ;; This function calls:
  6256 ;;		___ftpack
  6257 ;; This function is called by:
  6258 ;;		_measure_capacitance
  6259 ;;		_measure_inductance
  6260 ;; This function uses a non-reentrant model
  6261 ;;
  6262                           
  6263                           
  6264                           ;psect for function ___ftdiv
  6265  14A8                     ___ftdiv:	
  6266                           
  6267                           ;incstack = 0
  6268                           ; Regs used in ___ftdiv: [wreg+status,2+status,0+pclath+cstack]
  6269  14A8  087B               	movf	___ftdiv@f1,w
  6270  14A9  1283               	bcf	3,5	;RP0=0, select bank0
  6271  14AA  1303               	bcf	3,6	;RP1=0, select bank0
  6272  14AB  00A0               	movwf	??___ftdiv
  6273  14AC  087C               	movf	___ftdiv@f1+1,w
  6274  14AD  00A1               	movwf	??___ftdiv+1
  6275  14AE  087D               	movf	___ftdiv@f1+2,w
  6276  14AF  00A2               	movwf	??___ftdiv+2
  6277  14B0  1003               	clrc
  6278  14B1  0D21               	rlf	??___ftdiv+1,w
  6279  14B2  0D22               	rlf	??___ftdiv+2,w
  6280  14B3  00A3               	movwf	??___ftdiv+3
  6281  14B4  0823               	movf	??___ftdiv+3,w
  6282  14B5  00A8               	movwf	___ftdiv@exp
  6283  14B6  0828               	movf	___ftdiv@exp,w
  6284  14B7  1D03               	btfss	3,2
  6285  14B8  2CC0               	goto	l1988
  6286  14B9  3000               	movlw	0
  6287  14BA  00F8               	movwf	?___ftdiv
  6288  14BB  3000               	movlw	0
  6289  14BC  00F9               	movwf	?___ftdiv+1
  6290  14BD  3000               	movlw	0
  6291  14BE  00FA               	movwf	?___ftdiv+2
  6292  14BF  0008               	return
  6293  14C0                     l1988:	
  6294  14C0  0878               	movf	___ftdiv@f2,w
  6295  14C1  00A0               	movwf	??___ftdiv
  6296  14C2  0879               	movf	___ftdiv@f2+1,w
  6297  14C3  00A1               	movwf	??___ftdiv+1
  6298  14C4  087A               	movf	___ftdiv@f2+2,w
  6299  14C5  00A2               	movwf	??___ftdiv+2
  6300  14C6  1003               	clrc
  6301  14C7  0D21               	rlf	??___ftdiv+1,w
  6302  14C8  0D22               	rlf	??___ftdiv+2,w
  6303  14C9  00A3               	movwf	??___ftdiv+3
  6304  14CA  0823               	movf	??___ftdiv+3,w
  6305  14CB  00A9               	movwf	___ftdiv@sign
  6306  14CC  0829               	movf	___ftdiv@sign,w
  6307  14CD  1D03               	btfss	3,2
  6308  14CE  2CD6               	goto	l1994
  6309  14CF  3000               	movlw	0
  6310  14D0  00F8               	movwf	?___ftdiv
  6311  14D1  3000               	movlw	0
  6312  14D2  00F9               	movwf	?___ftdiv+1
  6313  14D3  3000               	movlw	0
  6314  14D4  00FA               	movwf	?___ftdiv+2
  6315  14D5  0008               	return
  6316  14D6                     l1994:	
  6317  14D6  3000               	movlw	0
  6318  14D7  00A5               	movwf	___ftdiv@f3
  6319  14D8  3000               	movlw	0
  6320  14D9  00A6               	movwf	___ftdiv@f3+1
  6321  14DA  3000               	movlw	0
  6322  14DB  00A7               	movwf	___ftdiv@f3+2
  6323  14DC  3089               	movlw	137
  6324  14DD  0729               	addwf	___ftdiv@sign,w
  6325  14DE  00A0               	movwf	??___ftdiv
  6326  14DF  0820               	movf	??___ftdiv,w
  6327  14E0  02A8               	subwf	___ftdiv@exp,f
  6328  14E1  087B               	movf	___ftdiv@f1,w
  6329  14E2  00A0               	movwf	??___ftdiv
  6330  14E3  087C               	movf	___ftdiv@f1+1,w
  6331  14E4  00A1               	movwf	??___ftdiv+1
  6332  14E5  087D               	movf	___ftdiv@f1+2,w
  6333  14E6  00A2               	movwf	??___ftdiv+2
  6334  14E7  3010               	movlw	16
  6335  14E8                     u2425:	
  6336  14E8  1003               	clrc
  6337  14E9  0CA2               	rrf	??___ftdiv+2,f
  6338  14EA  0CA1               	rrf	??___ftdiv+1,f
  6339  14EB  0CA0               	rrf	??___ftdiv,f
  6340  14EC  3EFF               	addlw	-1
  6341  14ED  1D03               	skipz
  6342  14EE  2CE8               	goto	u2425
  6343  14EF  0820               	movf	??___ftdiv,w
  6344  14F0  00A3               	movwf	??___ftdiv+3
  6345  14F1  0823               	movf	??___ftdiv+3,w
  6346  14F2  00A9               	movwf	___ftdiv@sign
  6347  14F3  0878               	movf	___ftdiv@f2,w
  6348  14F4  00A0               	movwf	??___ftdiv
  6349  14F5  0879               	movf	___ftdiv@f2+1,w
  6350  14F6  00A1               	movwf	??___ftdiv+1
  6351  14F7  087A               	movf	___ftdiv@f2+2,w
  6352  14F8  00A2               	movwf	??___ftdiv+2
  6353  14F9  3010               	movlw	16
  6354  14FA                     u2435:	
  6355  14FA  1003               	clrc
  6356  14FB  0CA2               	rrf	??___ftdiv+2,f
  6357  14FC  0CA1               	rrf	??___ftdiv+1,f
  6358  14FD  0CA0               	rrf	??___ftdiv,f
  6359  14FE  3EFF               	addlw	-1
  6360  14FF  1D03               	skipz
  6361  1500  2CFA               	goto	u2435
  6362  1501  0820               	movf	??___ftdiv,w
  6363  1502  00A3               	movwf	??___ftdiv+3
  6364  1503  0823               	movf	??___ftdiv+3,w
  6365  1504  06A9               	xorwf	___ftdiv@sign,f
  6366  1505  3080               	movlw	128
  6367  1506  00A0               	movwf	??___ftdiv
  6368  1507  0820               	movf	??___ftdiv,w
  6369  1508  05A9               	andwf	___ftdiv@sign,f
  6370  1509  17FC               	bsf	___ftdiv@f1+1,7
  6371  150A  30FF               	movlw	255
  6372  150B  05FB               	andwf	___ftdiv@f1,f
  6373  150C  30FF               	movlw	255
  6374  150D  05FC               	andwf	___ftdiv@f1+1,f
  6375  150E  3000               	movlw	0
  6376  150F  05FD               	andwf	___ftdiv@f1+2,f
  6377  1510  17F9               	bsf	___ftdiv@f2+1,7
  6378  1511  30FF               	movlw	255
  6379  1512  05F8               	andwf	___ftdiv@f2,f
  6380  1513  30FF               	movlw	255
  6381  1514  05F9               	andwf	___ftdiv@f2+1,f
  6382  1515  3000               	movlw	0
  6383  1516  05FA               	andwf	___ftdiv@f2+2,f
  6384  1517  3018               	movlw	24
  6385  1518  00A0               	movwf	??___ftdiv
  6386  1519  0820               	movf	??___ftdiv,w
  6387  151A  00A4               	movwf	___ftdiv@cntr
  6388  151B                     l2008:	
  6389  151B  3001               	movlw	1
  6390  151C                     u2445:	
  6391  151C  1003               	clrc
  6392  151D  0DA5               	rlf	___ftdiv@f3,f
  6393  151E  0DA6               	rlf	___ftdiv@f3+1,f
  6394  151F  0DA7               	rlf	___ftdiv@f3+2,f
  6395  1520  3EFF               	addlw	-1
  6396  1521  1D03               	skipz
  6397  1522  2D1C               	goto	u2445
  6398  1523  087A               	movf	___ftdiv@f2+2,w
  6399  1524  027D               	subwf	___ftdiv@f1+2,w
  6400  1525  1D03               	skipz
  6401  1526  2D2D               	goto	u2455
  6402  1527  0879               	movf	___ftdiv@f2+1,w
  6403  1528  027C               	subwf	___ftdiv@f1+1,w
  6404  1529  1D03               	skipz
  6405  152A  2D2D               	goto	u2455
  6406  152B  0878               	movf	___ftdiv@f2,w
  6407  152C  027B               	subwf	___ftdiv@f1,w
  6408  152D                     u2455:	
  6409  152D  1C03               	skipc
  6410  152E  2D3A               	goto	l2016
  6411  152F  0878               	movf	___ftdiv@f2,w
  6412  1530  02FB               	subwf	___ftdiv@f1,f
  6413  1531  0879               	movf	___ftdiv@f2+1,w
  6414  1532  1C03               	skipc
  6415  1533  0F79               	incfsz	___ftdiv@f2+1,w
  6416  1534  02FC               	subwf	___ftdiv@f1+1,f
  6417  1535  087A               	movf	___ftdiv@f2+2,w
  6418  1536  1C03               	skipc
  6419  1537  0A7A               	incf	___ftdiv@f2+2,w
  6420  1538  02FD               	subwf	___ftdiv@f1+2,f
  6421  1539  1425               	bsf	___ftdiv@f3,0
  6422  153A                     l2016:	
  6423  153A  3001               	movlw	1
  6424  153B                     u2465:	
  6425  153B  1003               	clrc
  6426  153C  0DFB               	rlf	___ftdiv@f1,f
  6427  153D  0DFC               	rlf	___ftdiv@f1+1,f
  6428  153E  0DFD               	rlf	___ftdiv@f1+2,f
  6429  153F  3EFF               	addlw	-1
  6430  1540  1D03               	skipz
  6431  1541  2D3B               	goto	u2465
  6432  1542  3001               	movlw	1
  6433  1543  02A4               	subwf	___ftdiv@cntr,f
  6434  1544  1D03               	btfss	3,2
  6435  1545  2D1B               	goto	l2008
  6436  1546  0825               	movf	___ftdiv@f3,w
  6437  1547  00F0               	movwf	___ftpack@arg
  6438  1548  0826               	movf	___ftdiv@f3+1,w
  6439  1549  00F1               	movwf	___ftpack@arg+1
  6440  154A  0827               	movf	___ftdiv@f3+2,w
  6441  154B  00F2               	movwf	___ftpack@arg+2
  6442  154C  0828               	movf	___ftdiv@exp,w
  6443  154D  00A0               	movwf	??___ftdiv
  6444  154E  0820               	movf	??___ftdiv,w
  6445  154F  00F3               	movwf	___ftpack@exp
  6446  1550  0829               	movf	___ftdiv@sign,w
  6447  1551  00A1               	movwf	??___ftdiv+1
  6448  1552  0821               	movf	??___ftdiv+1,w
  6449  1553  00F4               	movwf	___ftpack@sign
  6450  1554  160A  158A  2794   	fcall	___ftpack
  6451  1557  0870               	movf	?___ftpack,w
  6452  1558  00F8               	movwf	?___ftdiv
  6453  1559  0871               	movf	?___ftpack+1,w
  6454  155A  00F9               	movwf	?___ftdiv+1
  6455  155B  0872               	movf	?___ftpack+2,w
  6456  155C  00FA               	movwf	?___ftdiv+2
  6457  155D  0008               	return
  6458  155E                     __end_of___ftdiv:	
  6459                           
  6460                           	psect	text13
  6461  0046                     __ptext13:	
  6462 ;; *************** function ___ftadd *****************
  6463 ;; Defined at:
  6464 ;;		line 86 in file "C:\Program Files (x86)\Microchip\xc8\v1.34\sources\common\ftadd.c"
  6465 ;; Parameters:    Size  Location     Type
  6466 ;;  f1              3   29[BANK0 ] float 
  6467 ;;  f2              3   32[BANK0 ] float 
  6468 ;; Auto vars:     Size  Location     Type
  6469 ;;  exp1            1   41[BANK0 ] unsigned char 
  6470 ;;  exp2            1   40[BANK0 ] unsigned char 
  6471 ;;  sign            1   39[BANK0 ] unsigned char 
  6472 ;; Return value:  Size  Location     Type
  6473 ;;                  3   29[BANK0 ] float 
  6474 ;; Registers used:
  6475 ;;		wreg, status,2, status,0, pclath, cstack
  6476 ;; Tracked objects:
  6477 ;;		On entry : 0/0
  6478 ;;		On exit  : 0/0
  6479 ;;		Unchanged: 0/0
  6480 ;; Data sizes:     COMMON   BANK0   BANK1   BANK3   BANK2
  6481 ;;      Params:         0       6       0       0       0
  6482 ;;      Locals:         0       3       0       0       0
  6483 ;;      Temps:          0       4       0       0       0
  6484 ;;      Totals:         0      13       0       0       0
  6485 ;;Total ram usage:       13 bytes
  6486 ;; Hardware stack levels used:    1
  6487 ;; Hardware stack levels required when called:    1
  6488 ;; This function calls:
  6489 ;;		___ftpack
  6490 ;; This function is called by:
  6491 ;;		_measure_capacitance
  6492 ;;		_measure_inductance
  6493 ;; This function uses a non-reentrant model
  6494 ;;
  6495                           
  6496                           
  6497                           ;psect for function ___ftadd
  6498  0046                     ___ftadd:	
  6499                           
  6500                           ;incstack = 0
  6501                           ; Regs used in ___ftadd: [wreg+status,2+status,0+pclath+cstack]
  6502  0046  1283               	bcf	3,5	;RP0=0, select bank0
  6503  0047  1303               	bcf	3,6	;RP1=0, select bank0
  6504  0048  083D               	movf	___ftadd@f1,w
  6505  0049  00C3               	movwf	??___ftadd
  6506  004A  083E               	movf	___ftadd@f1+1,w
  6507  004B  00C4               	movwf	??___ftadd+1
  6508  004C  083F               	movf	___ftadd@f1+2,w
  6509  004D  00C5               	movwf	??___ftadd+2
  6510  004E  1003               	clrc
  6511  004F  0D44               	rlf	??___ftadd+1,w
  6512  0050  0D45               	rlf	??___ftadd+2,w
  6513  0051  00C6               	movwf	??___ftadd+3
  6514  0052  0846               	movf	??___ftadd+3,w
  6515  0053  00C9               	movwf	___ftadd@exp1
  6516  0054  0840               	movf	___ftadd@f2,w
  6517  0055  00C3               	movwf	??___ftadd
  6518  0056  0841               	movf	___ftadd@f2+1,w
  6519  0057  00C4               	movwf	??___ftadd+1
  6520  0058  0842               	movf	___ftadd@f2+2,w
  6521  0059  00C5               	movwf	??___ftadd+2
  6522  005A  1003               	clrc
  6523  005B  0D44               	rlf	??___ftadd+1,w
  6524  005C  0D45               	rlf	??___ftadd+2,w
  6525  005D  00C6               	movwf	??___ftadd+3
  6526  005E  0846               	movf	??___ftadd+3,w
  6527  005F  00C8               	movwf	___ftadd@exp2
  6528  0060  0849               	movf	___ftadd@exp1,w
  6529  0061  1903               	btfsc	3,2
  6530  0062  286F               	goto	l1918
  6531  0063  0848               	movf	___ftadd@exp2,w
  6532  0064  0249               	subwf	___ftadd@exp1,w
  6533  0065  1803               	skipnc
  6534  0066  2876               	goto	l1922
  6535  0067  0349               	decf	___ftadd@exp1,w
  6536  0068  3AFF               	xorlw	255
  6537  0069  0748               	addwf	___ftadd@exp2,w
  6538  006A  00C3               	movwf	??___ftadd
  6539  006B  3019               	movlw	25
  6540  006C  0243               	subwf	??___ftadd,w
  6541  006D  1C03               	skipc
  6542  006E  2876               	goto	l1922
  6543  006F                     l1918:	
  6544  006F  0840               	movf	___ftadd@f2,w
  6545  0070  00BD               	movwf	?___ftadd
  6546  0071  0841               	movf	___ftadd@f2+1,w
  6547  0072  00BE               	movwf	?___ftadd+1
  6548  0073  0842               	movf	___ftadd@f2+2,w
  6549  0074  00BF               	movwf	?___ftadd+2
  6550  0075  0008               	return
  6551  0076                     l1922:	
  6552  0076  0848               	movf	___ftadd@exp2,w
  6553  0077  1903               	btfsc	3,2
  6554  0078  0008               	return
  6555  0079  0849               	movf	___ftadd@exp1,w
  6556  007A  0248               	subwf	___ftadd@exp2,w
  6557  007B  1803               	skipnc
  6558  007C  2885               	goto	l1928
  6559  007D  0348               	decf	___ftadd@exp2,w
  6560  007E  3AFF               	xorlw	255
  6561  007F  0749               	addwf	___ftadd@exp1,w
  6562  0080  00C3               	movwf	??___ftadd
  6563  0081  3019               	movlw	25
  6564  0082  0243               	subwf	??___ftadd,w
  6565  0083  1803               	btfsc	3,0
  6566  0084  0008               	return
  6567  0085                     l1928:	
  6568  0085  3006               	movlw	6
  6569  0086  00C3               	movwf	??___ftadd
  6570  0087  0843               	movf	??___ftadd,w
  6571  0088  00C7               	movwf	___ftadd@sign
  6572  0089  1BBF               	btfsc	___ftadd@f1+2,7
  6573  008A  17C7               	bsf	___ftadd@sign,7
  6574  008B  1BC2               	btfsc	___ftadd@f2+2,7
  6575  008C  1747               	bsf	___ftadd@sign,6
  6576  008D  17BE               	bsf	___ftadd@f1+1,7
  6577  008E  30FF               	movlw	255
  6578  008F  05BD               	andwf	___ftadd@f1,f
  6579  0090  30FF               	movlw	255
  6580  0091  05BE               	andwf	___ftadd@f1+1,f
  6581  0092  3000               	movlw	0
  6582  0093  05BF               	andwf	___ftadd@f1+2,f
  6583  0094  17C1               	bsf	___ftadd@f2+1,7
  6584  0095  30FF               	movlw	255
  6585  0096  05C0               	andwf	___ftadd@f2,f
  6586  0097  30FF               	movlw	255
  6587  0098  05C1               	andwf	___ftadd@f2+1,f
  6588  0099  3000               	movlw	0
  6589  009A  05C2               	andwf	___ftadd@f2+2,f
  6590  009B  0848               	movf	___ftadd@exp2,w
  6591  009C  0249               	subwf	___ftadd@exp1,w
  6592  009D  1803               	skipnc
  6593  009E  28C5               	goto	l1950
  6594  009F                     l1940:	
  6595  009F  3001               	movlw	1
  6596  00A0                     u2255:	
  6597  00A0  1003               	clrc
  6598  00A1  0DC0               	rlf	___ftadd@f2,f
  6599  00A2  0DC1               	rlf	___ftadd@f2+1,f
  6600  00A3  0DC2               	rlf	___ftadd@f2+2,f
  6601  00A4  3EFF               	addlw	-1
  6602  00A5  1D03               	skipz
  6603  00A6  28A0               	goto	u2255
  6604  00A7  3001               	movlw	1
  6605  00A8  02C8               	subwf	___ftadd@exp2,f
  6606  00A9  0848               	movf	___ftadd@exp2,w
  6607  00AA  0649               	xorwf	___ftadd@exp1,w
  6608  00AB  1903               	skipnz
  6609  00AC  28C0               	goto	l1948
  6610  00AD  3001               	movlw	1
  6611  00AE  02C7               	subwf	___ftadd@sign,f
  6612  00AF  0847               	movf	___ftadd@sign,w
  6613  00B0  3907               	andlw	7
  6614  00B1  1903               	btfsc	3,2
  6615  00B2  28C0               	goto	l1948
  6616  00B3  289F               	goto	l1940
  6617  00B4                     l1946:	
  6618  00B4  3001               	movlw	1
  6619  00B5                     u2285:	
  6620  00B5  1003               	clrc
  6621  00B6  0CBF               	rrf	___ftadd@f1+2,f
  6622  00B7  0CBE               	rrf	___ftadd@f1+1,f
  6623  00B8  0CBD               	rrf	___ftadd@f1,f
  6624  00B9  3EFF               	addlw	-1
  6625  00BA  1D03               	skipz
  6626  00BB  28B5               	goto	u2285
  6627  00BC  3001               	movlw	1
  6628  00BD  00C3               	movwf	??___ftadd
  6629  00BE  0843               	movf	??___ftadd,w
  6630  00BF  07C9               	addwf	___ftadd@exp1,f
  6631  00C0                     l1948:	
  6632  00C0  0849               	movf	___ftadd@exp1,w
  6633  00C1  0648               	xorwf	___ftadd@exp2,w
  6634  00C2  1903               	btfsc	3,2
  6635  00C3  28EE               	goto	l544
  6636  00C4  28B4               	goto	l1946
  6637  00C5                     l1950:	
  6638  00C5  0849               	movf	___ftadd@exp1,w
  6639  00C6  0248               	subwf	___ftadd@exp2,w
  6640  00C7  1803               	skipnc
  6641  00C8  28EE               	goto	l544
  6642  00C9                     l1952:	
  6643  00C9  3001               	movlw	1
  6644  00CA                     u2315:	
  6645  00CA  1003               	clrc
  6646  00CB  0DBD               	rlf	___ftadd@f1,f
  6647  00CC  0DBE               	rlf	___ftadd@f1+1,f
  6648  00CD  0DBF               	rlf	___ftadd@f1+2,f
  6649  00CE  3EFF               	addlw	-1
  6650  00CF  1D03               	skipz
  6651  00D0  28CA               	goto	u2315
  6652  00D1  3001               	movlw	1
  6653  00D2  02C9               	subwf	___ftadd@exp1,f
  6654  00D3  0848               	movf	___ftadd@exp2,w
  6655  00D4  0649               	xorwf	___ftadd@exp1,w
  6656  00D5  1903               	skipnz
  6657  00D6  28EA               	goto	l1960
  6658  00D7  3001               	movlw	1
  6659  00D8  02C7               	subwf	___ftadd@sign,f
  6660  00D9  0847               	movf	___ftadd@sign,w
  6661  00DA  3907               	andlw	7
  6662  00DB  1903               	btfsc	3,2
  6663  00DC  28EA               	goto	l1960
  6664  00DD  28C9               	goto	l1952
  6665  00DE                     l1958:	
  6666  00DE  3001               	movlw	1
  6667  00DF                     u2345:	
  6668  00DF  1003               	clrc
  6669  00E0  0CC2               	rrf	___ftadd@f2+2,f
  6670  00E1  0CC1               	rrf	___ftadd@f2+1,f
  6671  00E2  0CC0               	rrf	___ftadd@f2,f
  6672  00E3  3EFF               	addlw	-1
  6673  00E4  1D03               	skipz
  6674  00E5  28DF               	goto	u2345
  6675  00E6  3001               	movlw	1
  6676  00E7  00C3               	movwf	??___ftadd
  6677  00E8  0843               	movf	??___ftadd,w
  6678  00E9  07C8               	addwf	___ftadd@exp2,f
  6679  00EA                     l1960:	
  6680  00EA  0849               	movf	___ftadd@exp1,w
  6681  00EB  0648               	xorwf	___ftadd@exp2,w
  6682  00EC  1D03               	skipz
  6683  00ED  28DE               	goto	l1958
  6684  00EE                     l544:	
  6685  00EE  1FC7               	btfss	___ftadd@sign,7
  6686  00EF  2900               	goto	l1964
  6687  00F0  30FF               	movlw	255
  6688  00F1  06BD               	xorwf	___ftadd@f1,f
  6689  00F2  30FF               	movlw	255
  6690  00F3  06BE               	xorwf	___ftadd@f1+1,f
  6691  00F4  30FF               	movlw	255
  6692  00F5  06BF               	xorwf	___ftadd@f1+2,f
  6693  00F6  3001               	movlw	1
  6694  00F7  07BD               	addwf	___ftadd@f1,f
  6695  00F8  3000               	movlw	0
  6696  00F9  1803               	skipnc
  6697  00FA  3001               	movlw	1
  6698  00FB  07BE               	addwf	___ftadd@f1+1,f
  6699  00FC  3000               	movlw	0
  6700  00FD  1803               	skipnc
  6701  00FE  3001               	movlw	1
  6702  00FF  07BF               	addwf	___ftadd@f1+2,f
  6703  0100                     l1964:	
  6704  0100  1F47               	btfss	___ftadd@sign,6
  6705  0101  2912               	goto	l1968
  6706  0102  30FF               	movlw	255
  6707  0103  06C0               	xorwf	___ftadd@f2,f
  6708  0104  30FF               	movlw	255
  6709  0105  06C1               	xorwf	___ftadd@f2+1,f
  6710  0106  30FF               	movlw	255
  6711  0107  06C2               	xorwf	___ftadd@f2+2,f
  6712  0108  3001               	movlw	1
  6713  0109  07C0               	addwf	___ftadd@f2,f
  6714  010A  3000               	movlw	0
  6715  010B  1803               	skipnc
  6716  010C  3001               	movlw	1
  6717  010D  07C1               	addwf	___ftadd@f2+1,f
  6718  010E  3000               	movlw	0
  6719  010F  1803               	skipnc
  6720  0110  3001               	movlw	1
  6721  0111  07C2               	addwf	___ftadd@f2+2,f
  6722  0112                     l1968:	
  6723  0112  01C7               	clrf	___ftadd@sign
  6724  0113  083D               	movf	___ftadd@f1,w
  6725  0114  07C0               	addwf	___ftadd@f2,f
  6726  0115  083E               	movf	___ftadd@f1+1,w
  6727  0116  1103               	clrz
  6728  0117  1803               	skipnc
  6729  0118  0A3E               	incf	___ftadd@f1+1,w
  6730  0119  1D03               	btfss	3,2
  6731  011A  07C1               	addwf	___ftadd@f2+1,f
  6732  011B  083F               	movf	___ftadd@f1+2,w
  6733  011C  1103               	clrz
  6734  011D  1803               	skipnc
  6735  011E  0A3F               	incf	___ftadd@f1+2,w
  6736  011F  1D03               	btfss	3,2
  6737  0120  07C2               	addwf	___ftadd@f2+2,f
  6738  0121  1FC2               	btfss	___ftadd@f2+2,7
  6739  0122  2935               	goto	l1978
  6740  0123  30FF               	movlw	255
  6741  0124  06C0               	xorwf	___ftadd@f2,f
  6742  0125  30FF               	movlw	255
  6743  0126  06C1               	xorwf	___ftadd@f2+1,f
  6744  0127  30FF               	movlw	255
  6745  0128  06C2               	xorwf	___ftadd@f2+2,f
  6746  0129  3001               	movlw	1
  6747  012A  07C0               	addwf	___ftadd@f2,f
  6748  012B  3000               	movlw	0
  6749  012C  1803               	skipnc
  6750  012D  3001               	movlw	1
  6751  012E  07C1               	addwf	___ftadd@f2+1,f
  6752  012F  3000               	movlw	0
  6753  0130  1803               	skipnc
  6754  0131  3001               	movlw	1
  6755  0132  07C2               	addwf	___ftadd@f2+2,f
  6756  0133  01C7               	clrf	___ftadd@sign
  6757  0134  0AC7               	incf	___ftadd@sign,f
  6758  0135                     l1978:	
  6759  0135  0840               	movf	___ftadd@f2,w
  6760  0136  00F0               	movwf	___ftpack@arg
  6761  0137  0841               	movf	___ftadd@f2+1,w
  6762  0138  00F1               	movwf	___ftpack@arg+1
  6763  0139  0842               	movf	___ftadd@f2+2,w
  6764  013A  00F2               	movwf	___ftpack@arg+2
  6765  013B  0849               	movf	___ftadd@exp1,w
  6766  013C  00C3               	movwf	??___ftadd
  6767  013D  0843               	movf	??___ftadd,w
  6768  013E  00F3               	movwf	___ftpack@exp
  6769  013F  0847               	movf	___ftadd@sign,w
  6770  0140  00C4               	movwf	??___ftadd+1
  6771  0141  0844               	movf	??___ftadd+1,w
  6772  0142  00F4               	movwf	___ftpack@sign
  6773  0143  160A  158A  2794   	fcall	___ftpack
  6774  0146  0870               	movf	?___ftpack,w
  6775  0147  1283               	bcf	3,5	;RP0=0, select bank0
  6776  0148  1303               	bcf	3,6	;RP1=0, select bank0
  6777  0149  00BD               	movwf	?___ftadd
  6778  014A  0871               	movf	?___ftpack+1,w
  6779  014B  00BE               	movwf	?___ftadd+1
  6780  014C  0872               	movf	?___ftpack+2,w
  6781  014D  00BF               	movwf	?___ftadd+2
  6782  014E  0008               	return
  6783  014F                     __end_of___ftadd:	
  6784                           
  6785                           	psect	text14
  6786  1DCB                     __ptext14:	
  6787 ;; *************** function _initialize *****************
  6788 ;; Defined at:
  6789 ;;		line 28 in file "../main.c"
  6790 ;; Parameters:    Size  Location     Type
  6791 ;;		None
  6792 ;; Auto vars:     Size  Location     Type
  6793 ;;		None
  6794 ;; Return value:  Size  Location     Type
  6795 ;;		None               void
  6796 ;; Registers used:
  6797 ;;		wreg, status,2, status,0, pclath, cstack
  6798 ;; Tracked objects:
  6799 ;;		On entry : 0/0
  6800 ;;		On exit  : 0/0
  6801 ;;		Unchanged: 0/0
  6802 ;; Data sizes:     COMMON   BANK0   BANK1   BANK3   BANK2
  6803 ;;      Params:         0       0       0       0       0
  6804 ;;      Locals:         0       0       0       0       0
  6805 ;;      Temps:          0       0       0       0       0
  6806 ;;      Totals:         0       0       0       0       0
  6807 ;;Total ram usage:        0 bytes
  6808 ;; Hardware stack levels used:    1
  6809 ;; Hardware stack levels required when called:    3
  6810 ;; This function calls:
  6811 ;;		_lcd_clear
  6812 ;;		_lcd_init
  6813 ;; This function is called by:
  6814 ;;		_main
  6815 ;; This function uses a non-reentrant model
  6816 ;;
  6817                           
  6818                           
  6819                           ;psect for function _initialize
  6820  1DCB                     _initialize:	
  6821                           
  6822                           ;main.c: 31: CMCON = 0b00000101;
  6823                           
  6824                           ;incstack = 0
  6825                           ; Regs used in _initialize: [wreg+status,2+status,0+pclath+cstack]
  6826  1DCB  3005               	movlw	5
  6827  1DCC  1683               	bsf	3,5	;RP0=1, select bank1
  6828  1DCD  1303               	bcf	3,6	;RP1=0, select bank1
  6829  1DCE  009C               	movwf	28	;volatile
  6830                           
  6831                           ;main.c: 32: TRISA = 0b11001111;
  6832  1DCF  30CF               	movlw	207
  6833  1DD0  0085               	movwf	5	;volatile
  6834                           
  6835                           ;main.c: 34: T0CS = 1;
  6836  1DD1  1681               	bsf	1,5	;volatile
  6837                           
  6838                           ;main.c: 35: T0SE = 1;
  6839  1DD2  1601               	bsf	1,4	;volatile
  6840                           
  6841                           ;main.c: 36: PSA = 0;
  6842  1DD3  1181               	bcf	1,3	;volatile
  6843                           
  6844                           ;main.c: 37: PS2 = 1;
  6845  1DD4  1501               	bsf	1,2	;volatile
  6846                           
  6847                           ;main.c: 38: PS1 = 1;
  6848  1DD5  1481               	bsf	1,1	;volatile
  6849                           
  6850                           ;main.c: 39: PS0 = 1;
  6851  1DD6  1401               	bsf	1,0	;volatile
  6852                           
  6853                           ;main.c: 41: lcd_init();
  6854  1DD7  160A  158A  267C  160A  158A  	fcall	_lcd_init
  6855                           
  6856                           ;main.c: 42: lcd_clear();
  6857  1DDC  160A  158A  25E5   	fcall	_lcd_clear
  6858                           
  6859                           ;main.c: 44: TRISB0 = 1;
  6860  1DDF  1683               	bsf	3,5	;RP0=1, select bank1
  6861  1DE0  1303               	bcf	3,6	;RP1=0, select bank1
  6862  1DE1  1406               	bsf	6,0	;volatile
  6863                           
  6864                           ;main.c: 45: TRISC0 = 0;
  6865  1DE2  1007               	bcf	7,0	;volatile
  6866                           
  6867                           ;main.c: 47: nRBPU = 1;
  6868  1DE3  1781               	bsf	1,7	;volatile
  6869  1DE4  0008               	return
  6870  1DE5                     __end_of_initialize:	
  6871                           
  6872                           	psect	text15
  6873  1E7C                     __ptext15:	
  6874 ;; *************** function _lcd_init *****************
  6875 ;; Defined at:
  6876 ;;		line 171 in file "../lcd3310.c"
  6877 ;; Parameters:    Size  Location     Type
  6878 ;;		None
  6879 ;; Auto vars:     Size  Location     Type
  6880 ;;		None
  6881 ;; Return value:  Size  Location     Type
  6882 ;;		None               void
  6883 ;; Registers used:
  6884 ;;		wreg, status,2, status,0, pclath, cstack
  6885 ;; Tracked objects:
  6886 ;;		On entry : 0/0
  6887 ;;		On exit  : 0/0
  6888 ;;		Unchanged: 0/0
  6889 ;; Data sizes:     COMMON   BANK0   BANK1   BANK3   BANK2
  6890 ;;      Params:         0       0       0       0       0
  6891 ;;      Locals:         0       0       0       0       0
  6892 ;;      Temps:          2       0       0       0       0
  6893 ;;      Totals:         2       0       0       0       0
  6894 ;;Total ram usage:        2 bytes
  6895 ;; Hardware stack levels used:    1
  6896 ;; Hardware stack levels required when called:    1
  6897 ;; This function calls:
  6898 ;;		_lcd_send
  6899 ;; This function is called by:
  6900 ;;		_initialize
  6901 ;; This function uses a non-reentrant model
  6902 ;;
  6903                           
  6904                           
  6905                           ;psect for function _lcd_init
  6906  1E7C                     _lcd_init:	
  6907                           
  6908                           ;lcd3310.c: 173: TRISC &= 0x00;
  6909                           
  6910                           ;incstack = 0
  6911                           ; Regs used in _lcd_init: [wreg+status,2+status,0+pclath+cstack]
  6912  1E7C  1683               	bsf	3,5	;RP0=1, select bank1
  6913  1E7D  1303               	bcf	3,6	;RP1=0, select bank1
  6914  1E7E  0187               	clrf	7	;volatile
  6915                           
  6916                           ;lcd3310.c: 174: _delay((unsigned long)((20)*(20000000/4000.0)));
  6917  1E7F  3082               	movlw	130
  6918  1E80  00F9               	movwf	??_lcd_init+1
  6919  1E81  30DD               	movlw	221
  6920  1E82  00F8               	movwf	??_lcd_init
  6921  1E83                     u3037:	
  6922  1E83  0BF8               	decfsz	??_lcd_init,f
  6923  1E84  2E83               	goto	u3037
  6924  1E85  0BF9               	decfsz	??_lcd_init+1,f
  6925  1E86  2E83               	goto	u3037
  6926  1E87  2E88               	nop2
  6927                           
  6928                           ;lcd3310.c: 176: __nop();
  6929  1E88  0000               	nop
  6930                           
  6931                           ;lcd3310.c: 177: RC5=0;
  6932  1E89  1283               	bcf	3,5	;RP0=0, select bank0
  6933  1E8A  1303               	bcf	3,6	;RP1=0, select bank0
  6934  1E8B  1287               	bcf	7,5	;volatile
  6935                           
  6936                           ;lcd3310.c: 178: __nop();
  6937  1E8C  0000               	nop
  6938                           
  6939                           ;lcd3310.c: 179: RC4=1;
  6940  1E8D  1283               	bcf	3,5	;RP0=0, select bank0
  6941  1E8E  1303               	bcf	3,6	;RP1=0, select bank0
  6942  1E8F  1607               	bsf	7,4	;volatile
  6943                           
  6944                           ;lcd3310.c: 180: __nop();
  6945  1E90  0000               	nop
  6946                           
  6947                           ;lcd3310.c: 181: RC1=0;
  6948  1E91  1283               	bcf	3,5	;RP0=0, select bank0
  6949  1E92  1303               	bcf	3,6	;RP1=0, select bank0
  6950  1E93  1087               	bcf	7,1	;volatile
  6951                           
  6952                           ;lcd3310.c: 182: __nop();
  6953  1E94  0000               	nop
  6954                           
  6955                           ;lcd3310.c: 183: RC2=1;
  6956  1E95  1283               	bcf	3,5	;RP0=0, select bank0
  6957  1E96  1303               	bcf	3,6	;RP1=0, select bank0
  6958  1E97  1507               	bsf	7,2	;volatile
  6959                           
  6960                           ;lcd3310.c: 184: __nop();
  6961  1E98  0000               	nop
  6962                           
  6963                           ;lcd3310.c: 187: RC3=0;
  6964  1E99  1283               	bcf	3,5	;RP0=0, select bank0
  6965  1E9A  1303               	bcf	3,6	;RP1=0, select bank0
  6966  1E9B  1187               	bcf	7,3	;volatile
  6967                           
  6968                           ;lcd3310.c: 188: _delay((unsigned long)((20)*(20000000/4000.0)));
  6969  1E9C  3082               	movlw	130
  6970  1E9D  00F9               	movwf	??_lcd_init+1
  6971  1E9E  30DD               	movlw	221
  6972  1E9F  00F8               	movwf	??_lcd_init
  6973  1EA0                     u3047:	
  6974  1EA0  0BF8               	decfsz	??_lcd_init,f
  6975  1EA1  2EA0               	goto	u3047
  6976  1EA2  0BF9               	decfsz	??_lcd_init+1,f
  6977  1EA3  2EA0               	goto	u3047
  6978  1EA4  2EA5               	nop2
  6979                           
  6980                           ;lcd3310.c: 190: RC3=1;
  6981  1EA5  1283               	bcf	3,5	;RP0=0, select bank0
  6982  1EA6  1303               	bcf	3,6	;RP1=0, select bank0
  6983  1EA7  1587               	bsf	7,3	;volatile
  6984                           
  6985                           ;lcd3310.c: 195: lcd_send(0x21,0);
  6986  1EA8  01F6               	clrf	lcd_send@cmd
  6987  1EA9  3021               	movlw	33
  6988  1EAA  160A  118A  21E9  160A  158A  	fcall	_lcd_send
  6989                           
  6990                           ;lcd3310.c: 196: lcd_send(0xC8,0);
  6991  1EAF  01F6               	clrf	lcd_send@cmd
  6992  1EB0  30C8               	movlw	200
  6993  1EB1  160A  118A  21E9  160A  158A  	fcall	_lcd_send
  6994                           
  6995                           ;lcd3310.c: 197: lcd_send(0x06,0);
  6996  1EB6  01F6               	clrf	lcd_send@cmd
  6997  1EB7  3006               	movlw	6
  6998  1EB8  160A  118A  21E9  160A  158A  	fcall	_lcd_send
  6999                           
  7000                           ;lcd3310.c: 198: lcd_send(0x13,0);
  7001  1EBD  01F6               	clrf	lcd_send@cmd
  7002  1EBE  3013               	movlw	19
  7003  1EBF  160A  118A  21E9  160A  158A  	fcall	_lcd_send
  7004                           
  7005                           ;lcd3310.c: 200: lcd_send(0x20,0);
  7006  1EC4  01F6               	clrf	lcd_send@cmd
  7007  1EC5  3020               	movlw	32
  7008  1EC6  160A  118A  21E9  160A  158A  	fcall	_lcd_send
  7009                           
  7010                           ;lcd3310.c: 202: lcd_send(0x0C,0);
  7011  1ECB  01F6               	clrf	lcd_send@cmd
  7012  1ECC  300C               	movlw	12
  7013  1ECD  160A  118A  21E9   	fcall	_lcd_send
  7014  1ED0  0008               	return
  7015  1ED1                     __end_of_lcd_init:	
  7016                           
  7017                           	psect	text16
  7018  11A2                     __ptext16:	
  7019 ;; *************** function _indicator *****************
  7020 ;; Defined at:
  7021 ;;		line 47 in file "../display.c"
  7022 ;; Parameters:    Size  Location     Type
  7023 ;;  indicate        1    wreg     unsigned char 
  7024 ;; Auto vars:     Size  Location     Type
  7025 ;;  indicate        1   13[COMMON] unsigned char 
  7026 ;; Return value:  Size  Location     Type
  7027 ;;		None               void
  7028 ;; Registers used:
  7029 ;;		wreg, fsr0l, fsr0h, status,2, status,0, btemp+1, pclath, cstack
  7030 ;; Tracked objects:
  7031 ;;		On entry : 0/0
  7032 ;;		On exit  : 0/0
  7033 ;;		Unchanged: 0/0
  7034 ;; Data sizes:     COMMON   BANK0   BANK1   BANK3   BANK2
  7035 ;;      Params:         0       0       0       0       0
  7036 ;;      Locals:         1       0       0       0       0
  7037 ;;      Temps:          0       0       0       0       0
  7038 ;;      Totals:         1       0       0       0       0
  7039 ;;Total ram usage:        1 bytes
  7040 ;; Hardware stack levels used:    1
  7041 ;; Hardware stack levels required when called:    3
  7042 ;; This function calls:
  7043 ;;		_lcd_gotoxy
  7044 ;;		_lcd_puts
  7045 ;;		_lcd_send
  7046 ;; This function is called by:
  7047 ;;		_main
  7048 ;; This function uses a non-reentrant model
  7049 ;;
  7050                           
  7051                           
  7052                           ;psect for function _indicator
  7053  11A2                     _indicator:	
  7054                           
  7055                           ;incstack = 0
  7056                           ; Regs used in _indicator: [wreg-fsr0h+status,2+status,0+btemp+1+pclath+cstack]
  7057                           ;indicator@indicate stored from wreg
  7058  11A2  00FD               	movwf	indicator@indicate
  7059                           
  7060                           ;display.c: 49: if(indicate)
  7061  11A3  087D               	movf	indicator@indicate,w
  7062  11A4  1903               	btfsc	3,2
  7063  11A5  29D7               	goto	l2322
  7064                           
  7065                           ;display.c: 50: {
  7066                           ;display.c: 51: lcd_gotoxy(70,4);
  7067  11A6  3004               	movlw	4
  7068  11A7  00F8               	movwf	lcd_gotoxy@y
  7069  11A8  3000               	movlw	0
  7070  11A9  00F9               	movwf	lcd_gotoxy@y+1
  7071  11AA  3046               	movlw	70
  7072  11AB  160A  158A  258E  160A  118A  	fcall	_lcd_gotoxy
  7073                           
  7074                           ;display.c: 52: lcd_send(0x1C, 1);
  7075  11B0  01F6               	clrf	lcd_send@cmd
  7076  11B1  0AF6               	incf	lcd_send@cmd,f
  7077  11B2  301C               	movlw	28
  7078  11B3  160A  118A  21E9  160A  118A  	fcall	_lcd_send
  7079                           
  7080                           ;display.c: 53: lcd_send(0x3E, 1);
  7081  11B8  01F6               	clrf	lcd_send@cmd
  7082  11B9  0AF6               	incf	lcd_send@cmd,f
  7083  11BA  303E               	movlw	62
  7084  11BB  160A  118A  21E9  160A  118A  	fcall	_lcd_send
  7085                           
  7086                           ;display.c: 54: lcd_send(0x36, 1);
  7087  11C0  01F6               	clrf	lcd_send@cmd
  7088  11C1  0AF6               	incf	lcd_send@cmd,f
  7089  11C2  3036               	movlw	54
  7090  11C3  160A  118A  21E9  160A  118A  	fcall	_lcd_send
  7091                           
  7092                           ;display.c: 55: lcd_send(0x3E, 1);
  7093  11C8  01F6               	clrf	lcd_send@cmd
  7094  11C9  0AF6               	incf	lcd_send@cmd,f
  7095  11CA  303E               	movlw	62
  7096  11CB  160A  118A  21E9  160A  118A  	fcall	_lcd_send
  7097                           
  7098                           ;display.c: 56: lcd_send(0x1C, 1);
  7099  11D0  01F6               	clrf	lcd_send@cmd
  7100  11D1  0AF6               	incf	lcd_send@cmd,f
  7101  11D2  301C               	movlw	28
  7102  11D3  160A  118A  21E9   	fcall	_lcd_send
  7103                           
  7104                           ;display.c: 57: }
  7105  11D6  0008               	return
  7106  11D7                     l2322:	
  7107                           
  7108                           ;display.c: 58: else
  7109                           ;display.c: 59: {
  7110                           ;display.c: 60: lcd_gotoxy(70,4);
  7111  11D7  3004               	movlw	4
  7112  11D8  00F8               	movwf	lcd_gotoxy@y
  7113  11D9  3000               	movlw	0
  7114  11DA  00F9               	movwf	lcd_gotoxy@y+1
  7115  11DB  3046               	movlw	70
  7116  11DC  160A  158A  258E  160A  118A  	fcall	_lcd_gotoxy
  7117                           
  7118                           ;display.c: 61: lcd_puts(" ");
  7119  11E1  3093               	movlw	low ((STR_6+8)| (0+32768))
  7120  11E2  00FB               	movwf	lcd_puts@s
  7121  11E3  3091               	movlw	high ((STR_6+8)| (0+32768))
  7122  11E4  00FC               	movwf	lcd_puts@s+1
  7123  11E5  160A  158A  2627   	fcall	_lcd_puts
  7124  11E8  0008               	return
  7125  11E9                     __end_of_indicator:	
  7126                           
  7127                           	psect	text17
  7128  1631                     __ptext17:	
  7129 ;; *************** function _calibrate *****************
  7130 ;; Defined at:
  7131 ;;		line 71 in file "../main.c"
  7132 ;; Parameters:    Size  Location     Type
  7133 ;;		None
  7134 ;; Auto vars:     Size  Location     Type
  7135 ;;  i               1    7[BANK0 ] unsigned char 
  7136 ;; Return value:  Size  Location     Type
  7137 ;;		None               void
  7138 ;; Registers used:
  7139 ;;		wreg, fsr0l, fsr0h, status,2, status,0, btemp+1, pclath, cstack
  7140 ;; Tracked objects:
  7141 ;;		On entry : 0/0
  7142 ;;		On exit  : 0/0
  7143 ;;		Unchanged: 0/0
  7144 ;; Data sizes:     COMMON   BANK0   BANK1   BANK3   BANK2
  7145 ;;      Params:         0       0       0       0       0
  7146 ;;      Locals:         0       1       0       0       0
  7147 ;;      Temps:          1       0       0       0       0
  7148 ;;      Totals:         1       1       0       0       0
  7149 ;;Total ram usage:        2 bytes
  7150 ;; Hardware stack levels used:    1
  7151 ;; Hardware stack levels required when called:    3
  7152 ;; This function calls:
  7153 ;;		___lwtoft
  7154 ;;		_delay10ms
  7155 ;;		_lcd_clear
  7156 ;;		_lcd_gotoxy
  7157 ;;		_lcd_puts
  7158 ;;		_lcd_send
  7159 ;;		_measure_freq
  7160 ;; This function is called by:
  7161 ;;		_main
  7162 ;; This function uses a non-reentrant model
  7163 ;;
  7164                           
  7165                           
  7166                           ;psect for function _calibrate
  7167  1631                     _calibrate:	
  7168                           
  7169                           ;main.c: 73: unsigned char i;
  7170                           ;main.c: 74: lcd_clear();
  7171                           
  7172                           ;incstack = 0
  7173                           ; Regs used in _calibrate: [wreg-fsr0h+status,2+status,0+btemp+1+pclath+cstack]
  7174  1631  160A  158A  25E5  160A  118A  	fcall	_lcd_clear
  7175                           
  7176                           ;main.c: 75: lcd_gotoxy(1,1);
  7177  1636  3001               	movlw	1
  7178  1637  00F8               	movwf	lcd_gotoxy@y
  7179  1638  3000               	movlw	0
  7180  1639  00F9               	movwf	lcd_gotoxy@y+1
  7181  163A  3001               	movlw	1
  7182  163B  160A  158A  258E  160A  118A  	fcall	_lcd_gotoxy
  7183                           
  7184                           ;main.c: 76: lcd_puts("Calibrating.");
  7185  1640  3071               	movlw	low (STR_2| (0+32768))
  7186  1641  00FB               	movwf	lcd_puts@s
  7187  1642  3091               	movlw	high (STR_2| (0+32768))
  7188  1643  00FC               	movwf	lcd_puts@s+1
  7189  1644  160A  158A  2627  160A  118A  	fcall	_lcd_puts
  7190                           
  7191                           ;main.c: 77: lcd_gotoxy(1,3);
  7192  1649  3003               	movlw	3
  7193  164A  00F8               	movwf	lcd_gotoxy@y
  7194  164B  3000               	movlw	0
  7195  164C  00F9               	movwf	lcd_gotoxy@y+1
  7196  164D  3001               	movlw	1
  7197  164E  160A  158A  258E  160A  118A  	fcall	_lcd_gotoxy
  7198                           
  7199                           ;main.c: 78: lcd_puts("please wait..");
  7200  1653  3056               	movlw	low (STR_3| (0+32768))
  7201  1654  00FB               	movwf	lcd_puts@s
  7202  1655  3091               	movlw	high (STR_3| (0+32768))
  7203  1656  00FC               	movwf	lcd_puts@s+1
  7204  1657  160A  158A  2627  160A  118A  	fcall	_lcd_puts
  7205                           
  7206                           ;main.c: 79: RC0 = 0;
  7207  165C  1283               	bcf	3,5	;RP0=0, select bank0
  7208  165D  1303               	bcf	3,6	;RP1=0, select bank0
  7209  165E  1007               	bcf	7,0	;volatile
  7210                           
  7211                           ;main.c: 80: F1 = (double)measure_freq();
  7212  165F  160A  158A  272E  160A  118A  	fcall	_measure_freq
  7213  1664  0875               	movf	?_measure_freq+1,w
  7214  1665  1283               	bcf	3,5	;RP0=0, select bank0
  7215  1666  1303               	bcf	3,6	;RP1=0, select bank0
  7216  1667  00A5               	movwf	___lwtoft@c+1
  7217  1668  0874               	movf	?_measure_freq,w
  7218  1669  00A4               	movwf	___lwtoft@c
  7219  166A  160A  158A  25B3  160A  118A  	fcall	___lwtoft
  7220  166F  1283               	bcf	3,5	;RP0=0, select bank0
  7221  1670  1303               	bcf	3,6	;RP1=0, select bank0
  7222  1671  0824               	movf	?___lwtoft,w
  7223  1672  00EC               	movwf	_F1
  7224  1673  0825               	movf	?___lwtoft+1,w
  7225  1674  00ED               	movwf	_F1+1
  7226  1675  0826               	movf	?___lwtoft+2,w
  7227  1676  00EE               	movwf	_F1+2
  7228                           
  7229                           ;main.c: 81: delay10ms(50);
  7230  1677  3032               	movlw	50
  7231  1678  00F0               	movwf	delay10ms@period_10ms
  7232  1679  3000               	movlw	0
  7233  167A  00F1               	movwf	delay10ms@period_10ms+1
  7234  167B  160A  158A  259F  160A  118A  	fcall	_delay10ms
  7235                           
  7236                           ;main.c: 82: F1 = (double)measure_freq();
  7237  1680  160A  158A  272E  160A  118A  	fcall	_measure_freq
  7238  1685  0875               	movf	?_measure_freq+1,w
  7239  1686  1283               	bcf	3,5	;RP0=0, select bank0
  7240  1687  1303               	bcf	3,6	;RP1=0, select bank0
  7241  1688  00A5               	movwf	___lwtoft@c+1
  7242  1689  0874               	movf	?_measure_freq,w
  7243  168A  00A4               	movwf	___lwtoft@c
  7244  168B  160A  158A  25B3  160A  118A  	fcall	___lwtoft
  7245  1690  1283               	bcf	3,5	;RP0=0, select bank0
  7246  1691  1303               	bcf	3,6	;RP1=0, select bank0
  7247  1692  0824               	movf	?___lwtoft,w
  7248  1693  00EC               	movwf	_F1
  7249  1694  0825               	movf	?___lwtoft+1,w
  7250  1695  00ED               	movwf	_F1+1
  7251  1696  0826               	movf	?___lwtoft+2,w
  7252  1697  00EE               	movwf	_F1+2
  7253                           
  7254                           ;main.c: 83: RC0 = 1;
  7255  1698  1407               	bsf	7,0	;volatile
  7256                           
  7257                           ;main.c: 84: F2 = (double)measure_freq();
  7258  1699  160A  158A  272E  160A  118A  	fcall	_measure_freq
  7259  169E  0875               	movf	?_measure_freq+1,w
  7260  169F  1283               	bcf	3,5	;RP0=0, select bank0
  7261  16A0  1303               	bcf	3,6	;RP1=0, select bank0
  7262  16A1  00A5               	movwf	___lwtoft@c+1
  7263  16A2  0874               	movf	?_measure_freq,w
  7264  16A3  00A4               	movwf	___lwtoft@c
  7265  16A4  160A  158A  25B3  160A  118A  	fcall	___lwtoft
  7266  16A9  1283               	bcf	3,5	;RP0=0, select bank0
  7267  16AA  1303               	bcf	3,6	;RP1=0, select bank0
  7268  16AB  0824               	movf	?___lwtoft,w
  7269  16AC  1683               	bsf	3,5	;RP0=1, select bank1
  7270  16AD  1303               	bcf	3,6	;RP1=0, select bank1
  7271  16AE  00A0               	movwf	_F2^(0+128)
  7272  16AF  1283               	bcf	3,5	;RP0=0, select bank0
  7273  16B0  1303               	bcf	3,6	;RP1=0, select bank0
  7274  16B1  0825               	movf	?___lwtoft+1,w
  7275  16B2  1683               	bsf	3,5	;RP0=1, select bank1
  7276  16B3  1303               	bcf	3,6	;RP1=0, select bank1
  7277  16B4  00A1               	movwf	(_F2+1)^(0+128)
  7278  16B5  1283               	bcf	3,5	;RP0=0, select bank0
  7279  16B6  1303               	bcf	3,6	;RP1=0, select bank0
  7280  16B7  0826               	movf	?___lwtoft+2,w
  7281  16B8  1683               	bsf	3,5	;RP0=1, select bank1
  7282  16B9  1303               	bcf	3,6	;RP1=0, select bank1
  7283  16BA  00A2               	movwf	(_F2+2)^(0+128)
  7284                           
  7285                           ;main.c: 85: delay10ms(50);
  7286  16BB  3032               	movlw	50
  7287  16BC  00F0               	movwf	delay10ms@period_10ms
  7288  16BD  3000               	movlw	0
  7289  16BE  00F1               	movwf	delay10ms@period_10ms+1
  7290  16BF  160A  158A  259F  160A  118A  	fcall	_delay10ms
  7291                           
  7292                           ;main.c: 86: F2 = (double)measure_freq();
  7293  16C4  160A  158A  272E  160A  118A  	fcall	_measure_freq
  7294  16C9  0875               	movf	?_measure_freq+1,w
  7295  16CA  1283               	bcf	3,5	;RP0=0, select bank0
  7296  16CB  1303               	bcf	3,6	;RP1=0, select bank0
  7297  16CC  00A5               	movwf	___lwtoft@c+1
  7298  16CD  0874               	movf	?_measure_freq,w
  7299  16CE  00A4               	movwf	___lwtoft@c
  7300  16CF  160A  158A  25B3  160A  118A  	fcall	___lwtoft
  7301  16D4  1283               	bcf	3,5	;RP0=0, select bank0
  7302  16D5  1303               	bcf	3,6	;RP1=0, select bank0
  7303  16D6  0824               	movf	?___lwtoft,w
  7304  16D7  1683               	bsf	3,5	;RP0=1, select bank1
  7305  16D8  1303               	bcf	3,6	;RP1=0, select bank1
  7306  16D9  00A0               	movwf	_F2^(0+128)
  7307  16DA  1283               	bcf	3,5	;RP0=0, select bank0
  7308  16DB  1303               	bcf	3,6	;RP1=0, select bank0
  7309  16DC  0825               	movf	?___lwtoft+1,w
  7310  16DD  1683               	bsf	3,5	;RP0=1, select bank1
  7311  16DE  1303               	bcf	3,6	;RP1=0, select bank1
  7312  16DF  00A1               	movwf	(_F2+1)^(0+128)
  7313  16E0  1283               	bcf	3,5	;RP0=0, select bank0
  7314  16E1  1303               	bcf	3,6	;RP1=0, select bank0
  7315  16E2  0826               	movf	?___lwtoft+2,w
  7316  16E3  1683               	bsf	3,5	;RP0=1, select bank1
  7317  16E4  1303               	bcf	3,6	;RP1=0, select bank1
  7318  16E5  00A2               	movwf	(_F2+2)^(0+128)
  7319                           
  7320                           ;main.c: 87: RC0 = 0;
  7321  16E6  1283               	bcf	3,5	;RP0=0, select bank0
  7322  16E7  1303               	bcf	3,6	;RP1=0, select bank0
  7323  16E8  1007               	bcf	7,0	;volatile
  7324                           
  7325                           ;main.c: 88: lcd_gotoxy(0,4);
  7326  16E9  3004               	movlw	4
  7327  16EA  00F8               	movwf	lcd_gotoxy@y
  7328  16EB  3000               	movlw	0
  7329  16EC  00F9               	movwf	lcd_gotoxy@y+1
  7330  16ED  3000               	movlw	0
  7331  16EE  160A  158A  258E  160A  118A  	fcall	_lcd_gotoxy
  7332                           
  7333                           ;main.c: 89: for(i=0; i<84; i++)
  7334  16F3  1283               	bcf	3,5	;RP0=0, select bank0
  7335  16F4  1303               	bcf	3,6	;RP1=0, select bank0
  7336  16F5  01A7               	clrf	calibrate@i
  7337  16F6                     L6:	
  7338  16F6  3054               	movlw	84
  7339  16F7  0227               	subwf	calibrate@i,w
  7340  16F8  1803               	btfsc	3,0
  7341  16F9  0008               	return
  7342                           
  7343                           ;main.c: 90: {
  7344                           ;main.c: 91: lcd_send(0xfc, 1);
  7345  16FA  01F6               	clrf	lcd_send@cmd
  7346  16FB  0AF6               	incf	lcd_send@cmd,f
  7347  16FC  30FC               	movlw	252
  7348  16FD  160A  118A  21E9  160A  118A  	fcall	_lcd_send
  7349                           
  7350                           ;main.c: 92: delay10ms(2);
  7351  1702  3002               	movlw	2
  7352  1703  00F0               	movwf	delay10ms@period_10ms
  7353  1704  3000               	movlw	0
  7354  1705  00F1               	movwf	delay10ms@period_10ms+1
  7355  1706  160A  158A  259F  160A  118A  	fcall	_delay10ms
  7356  170B  3001               	movlw	1
  7357  170C  00FD               	movwf	??_calibrate
  7358  170D  087D               	movf	??_calibrate,w
  7359  170E  1283               	bcf	3,5	;RP0=0, select bank0
  7360  170F  1303               	bcf	3,6	;RP1=0, select bank0
  7361  1710  07A7               	addwf	calibrate@i,f
  7362  1711  2EF6               	goto	L6
  7363  1712                     __end_of_calibrate:	
  7364                           
  7365                           	psect	text18
  7366  1F2E                     __ptext18:	
  7367 ;; *************** function _measure_freq *****************
  7368 ;; Defined at:
  7369 ;;		line 49 in file "../main.c"
  7370 ;; Parameters:    Size  Location     Type
  7371 ;;		None
  7372 ;; Auto vars:     Size  Location     Type
  7373 ;;  prescaler_cn    2    2[BANK0 ] unsigned int 
  7374 ;;  oldTMR0         2    0[BANK0 ] unsigned int 
  7375 ;; Return value:  Size  Location     Type
  7376 ;;                  2    4[COMMON] unsigned int 
  7377 ;; Registers used:
  7378 ;;		wreg, status,2, status,0, pclath, cstack
  7379 ;; Tracked objects:
  7380 ;;		On entry : 0/0
  7381 ;;		On exit  : 0/0
  7382 ;;		Unchanged: 0/0
  7383 ;; Data sizes:     COMMON   BANK0   BANK1   BANK3   BANK2
  7384 ;;      Params:         2       0       0       0       0
  7385 ;;      Locals:         0       4       0       0       0
  7386 ;;      Temps:          6       0       0       0       0
  7387 ;;      Totals:         8       4       0       0       0
  7388 ;;Total ram usage:       12 bytes
  7389 ;; Hardware stack levels used:    1
  7390 ;; Hardware stack levels required when called:    1
  7391 ;; This function calls:
  7392 ;;		_delay10ms
  7393 ;; This function is called by:
  7394 ;;		_calibrate
  7395 ;;		_measure_capacitance
  7396 ;;		_measure_inductance
  7397 ;; This function uses a non-reentrant model
  7398 ;;
  7399                           
  7400                           
  7401                           ;psect for function _measure_freq
  7402  1F2E                     _measure_freq:	
  7403                           
  7404                           ;main.c: 51: unsigned int oldTMR0, prescaler_cntr;
  7405                           ;main.c: 52: TMR0IF = 0;
  7406                           
  7407                           ;incstack = 0
  7408                           ; Regs used in _measure_freq: [wreg+status,2+status,0+pclath+cstack]
  7409  1F2E  110B               	bcf	11,2	;volatile
  7410                           
  7411                           ;main.c: 53: TRISA4 = 0;
  7412  1F2F  1683               	bsf	3,5	;RP0=1, select bank1
  7413  1F30  1303               	bcf	3,6	;RP1=0, select bank1
  7414  1F31  1205               	bcf	5,4	;volatile
  7415                           
  7416                           ;main.c: 54: delay10ms(2);
  7417  1F32  3002               	movlw	2
  7418  1F33  00F0               	movwf	delay10ms@period_10ms
  7419  1F34  3000               	movlw	0
  7420  1F35  00F1               	movwf	delay10ms@period_10ms+1
  7421  1F36  160A  158A  259F  160A  158A  	fcall	_delay10ms
  7422                           
  7423                           ;main.c: 55: TMR0 = 0x00;
  7424  1F3B  1283               	bcf	3,5	;RP0=0, select bank0
  7425  1F3C  1303               	bcf	3,6	;RP1=0, select bank0
  7426  1F3D  0181               	clrf	1	;volatile
  7427                           
  7428                           ;main.c: 56: delay10ms(10);
  7429  1F3E  300A               	movlw	10
  7430  1F3F  00F0               	movwf	delay10ms@period_10ms
  7431  1F40  3000               	movlw	0
  7432  1F41  00F1               	movwf	delay10ms@period_10ms+1
  7433  1F42  160A  158A  259F  160A  158A  	fcall	_delay10ms
  7434                           
  7435                           ;main.c: 57: TRISA4 = 1;
  7436  1F47  1683               	bsf	3,5	;RP0=1, select bank1
  7437  1F48  1303               	bcf	3,6	;RP1=0, select bank1
  7438  1F49  1605               	bsf	5,4	;volatile
  7439                           
  7440                           ;main.c: 58: oldTMR0 = TMR0;
  7441  1F4A  1283               	bcf	3,5	;RP0=0, select bank0
  7442  1F4B  1303               	bcf	3,6	;RP1=0, select bank0
  7443  1F4C  0801               	movf	1,w	;volatile
  7444  1F4D  00F6               	movwf	??_measure_freq
  7445  1F4E  01F7               	clrf	??_measure_freq+1
  7446  1F4F  0876               	movf	??_measure_freq,w
  7447  1F50  00A0               	movwf	measure_freq@oldTMR0
  7448  1F51  0877               	movf	??_measure_freq+1,w
  7449  1F52  00A1               	movwf	measure_freq@oldTMR0+1
  7450                           
  7451                           ;main.c: 59: prescaler_cntr=0;
  7452  1F53  01A2               	clrf	measure_freq@prescaler_cntr
  7453  1F54  01A3               	clrf	measure_freq@prescaler_cntr+1
  7454  1F55                     l1842:	
  7455                           ;main.c: 60: do{
  7456                           
  7457                           
  7458                           ;main.c: 61: T0SE = 1;
  7459  1F55  1683               	bsf	3,5	;RP0=1, select bank1
  7460  1F56  1303               	bcf	3,6	;RP1=0, select bank1
  7461  1F57  1601               	bsf	1,4	;volatile
  7462                           
  7463                           ;main.c: 62: __nop(); __nop();
  7464  1F58  0000               	nop
  7465  1F59  0000               	nop
  7466                           
  7467                           ;main.c: 63: T0SE = 0;
  7468  1F5A  1683               	bsf	3,5	;RP0=1, select bank1
  7469  1F5B  1303               	bcf	3,6	;RP1=0, select bank1
  7470  1F5C  1201               	bcf	1,4	;volatile
  7471                           
  7472                           ;main.c: 64: __nop(); __nop();
  7473  1F5D  0000               	nop
  7474  1F5E  0000               	nop
  7475                           
  7476                           ;main.c: 65: prescaler_cntr++;
  7477  1F5F  3001               	movlw	1
  7478  1F60  1283               	bcf	3,5	;RP0=0, select bank0
  7479  1F61  1303               	bcf	3,6	;RP1=0, select bank0
  7480  1F62  07A2               	addwf	measure_freq@prescaler_cntr,f
  7481  1F63  1803               	skipnc
  7482  1F64  0AA3               	incf	measure_freq@prescaler_cntr+1,f
  7483  1F65  3000               	movlw	0
  7484  1F66  07A3               	addwf	measure_freq@prescaler_cntr+1,f
  7485                           
  7486                           ;main.c: 66: }while(oldTMR0==TMR0 && prescaler_cntr<=255);
  7487  1F67  0801               	movf	1,w	;volatile
  7488  1F68  00F6               	movwf	??_measure_freq
  7489  1F69  01F7               	clrf	??_measure_freq+1
  7490  1F6A  0821               	movf	measure_freq@oldTMR0+1,w
  7491  1F6B  0677               	xorwf	??_measure_freq+1,w
  7492  1F6C  1D03               	skipz
  7493  1F6D  2F70               	goto	u2075
  7494  1F6E  0820               	movf	measure_freq@oldTMR0,w
  7495  1F6F  0676               	xorwf	??_measure_freq,w
  7496  1F70                     u2075:	
  7497  1F70  1D03               	skipz
  7498  1F71  2F79               	goto	l1856
  7499  1F72  3001               	movlw	1
  7500  1F73  0223               	subwf	measure_freq@prescaler_cntr+1,w
  7501  1F74  3000               	movlw	0
  7502  1F75  1903               	skipnz
  7503  1F76  0222               	subwf	measure_freq@prescaler_cntr,w
  7504  1F77  1C03               	skipc
  7505  1F78  2F55               	goto	l1842
  7506  1F79                     l1856:	
  7507                           
  7508                           ;main.c: 68: return ((oldTMR0<<8) + (256-prescaler_cntr));
  7509  1F79  0922               	comf	measure_freq@prescaler_cntr,w
  7510  1F7A  00F6               	movwf	??_measure_freq
  7511  1F7B  0923               	comf	measure_freq@prescaler_cntr+1,w
  7512  1F7C  00F7               	movwf	??_measure_freq+1
  7513  1F7D  0AF6               	incf	??_measure_freq,f
  7514  1F7E  1903               	skipnz
  7515  1F7F  0AF7               	incf	??_measure_freq+1,f
  7516  1F80  0820               	movf	measure_freq@oldTMR0,w
  7517  1F81  00F9               	movwf	??_measure_freq+3
  7518  1F82  01F8               	clrf	??_measure_freq+2
  7519  1F83  0876               	movf	??_measure_freq,w
  7520  1F84  0778               	addwf	??_measure_freq+2,w
  7521  1F85  00FA               	movwf	??_measure_freq+4
  7522  1F86  0877               	movf	??_measure_freq+1,w
  7523  1F87  1803               	skipnc
  7524  1F88  0A77               	incf	??_measure_freq+1,w
  7525  1F89  0779               	addwf	??_measure_freq+3,w
  7526  1F8A  00FB               	movwf	??_measure_freq+5
  7527  1F8B  087A               	movf	??_measure_freq+4,w
  7528  1F8C  3E00               	addlw	0
  7529  1F8D  00F4               	movwf	?_measure_freq
  7530  1F8E  087B               	movf	??_measure_freq+5,w
  7531  1F8F  1803               	skipnc
  7532  1F90  3E01               	addlw	1
  7533  1F91  3E01               	addlw	1
  7534  1F92  00F5               	movwf	?_measure_freq+1
  7535  1F93  0008               	return
  7536  1F94                     __end_of_measure_freq:	
  7537                           
  7538                           	psect	text19
  7539  1D9F                     __ptext19:	
  7540 ;; *************** function _delay10ms *****************
  7541 ;; Defined at:
  7542 ;;		line 169 in file "../main.c"
  7543 ;; Parameters:    Size  Location     Type
  7544 ;;  period_10ms     2    0[COMMON] unsigned int 
  7545 ;; Auto vars:     Size  Location     Type
  7546 ;;		None
  7547 ;; Return value:  Size  Location     Type
  7548 ;;		None               void
  7549 ;; Registers used:
  7550 ;;		wreg, status,2, status,0
  7551 ;; Tracked objects:
  7552 ;;		On entry : 0/0
  7553 ;;		On exit  : 0/0
  7554 ;;		Unchanged: 0/0
  7555 ;; Data sizes:     COMMON   BANK0   BANK1   BANK3   BANK2
  7556 ;;      Params:         2       0       0       0       0
  7557 ;;      Locals:         0       0       0       0       0
  7558 ;;      Temps:          2       0       0       0       0
  7559 ;;      Totals:         4       0       0       0       0
  7560 ;;Total ram usage:        4 bytes
  7561 ;; Hardware stack levels used:    1
  7562 ;; This function calls:
  7563 ;;		Nothing
  7564 ;; This function is called by:
  7565 ;;		_main
  7566 ;;		_measure_freq
  7567 ;;		_calibrate
  7568 ;; This function uses a non-reentrant model
  7569 ;;
  7570                           
  7571                           
  7572                           ;psect for function _delay10ms
  7573  1D9F                     _delay10ms:	
  7574  1D9F                     l122:	
  7575                           ;incstack = 0
  7576                           ; Regs used in _delay10ms: [wreg+status,2+status,0]
  7577                           ;main.c: 171: do{ _delay((unsigned long)((10)*(20000000/4000.0))); }while(--period_10ms)
      +                          ;
  7578                           
  7579  1D9F  3041               	movlw	65
  7580  1DA0  00F3               	movwf	??_delay10ms+1
  7581  1DA1  30EE               	movlw	238
  7582  1DA2  00F2               	movwf	??_delay10ms
  7583  1DA3                     u3057:	
  7584  1DA3  0BF2               	decfsz	??_delay10ms,f
  7585  1DA4  2DA3               	goto	u3057
  7586  1DA5  0BF3               	decfsz	??_delay10ms+1,f
  7587  1DA6  2DA3               	goto	u3057
  7588  1DA7  0000               	nop
  7589  1DA8  3001               	movlw	1
  7590  1DA9  02F0               	subwf	delay10ms@period_10ms,f
  7591  1DAA  3000               	movlw	0
  7592  1DAB  1C03               	skipc
  7593  1DAC  03F1               	decf	delay10ms@period_10ms+1,f
  7594  1DAD  02F1               	subwf	delay10ms@period_10ms+1,f
  7595  1DAE  0870               	movf	delay10ms@period_10ms,w
  7596  1DAF  0471               	iorwf	delay10ms@period_10ms+1,w
  7597  1DB0  1903               	btfsc	3,2
  7598  1DB1  0008               	return
  7599  1DB2  2D9F               	goto	l122
  7600  1DB3                     __end_of_delay10ms:	
  7601                           
  7602                           	psect	text20
  7603  1E27                     __ptext20:	
  7604 ;; *************** function _lcd_puts *****************
  7605 ;; Defined at:
  7606 ;;		line 272 in file "../lcd3310.c"
  7607 ;; Parameters:    Size  Location     Type
  7608 ;;  s               2   11[COMMON] PTR const unsigned char 
  7609 ;;		 -> STR_8(2), STR_7(10), STR_6(10), STR_5(13), 
  7610 ;;		 -> STR_4(13), STR_3(14), STR_2(13), STR_1(7), 
  7611 ;; Auto vars:     Size  Location     Type
  7612 ;;		None
  7613 ;; Return value:  Size  Location     Type
  7614 ;;		None               void
  7615 ;; Registers used:
  7616 ;;		wreg, fsr0l, fsr0h, status,2, status,0, btemp+1, pclath, cstack
  7617 ;; Tracked objects:
  7618 ;;		On entry : 0/0
  7619 ;;		On exit  : 0/0
  7620 ;;		Unchanged: 0/0
  7621 ;; Data sizes:     COMMON   BANK0   BANK1   BANK3   BANK2
  7622 ;;      Params:         2       0       0       0       0
  7623 ;;      Locals:         0       0       0       0       0
  7624 ;;      Temps:          0       0       0       0       0
  7625 ;;      Totals:         2       0       0       0       0
  7626 ;;Total ram usage:        2 bytes
  7627 ;; Hardware stack levels used:    1
  7628 ;; Hardware stack levels required when called:    2
  7629 ;; This function calls:
  7630 ;;		_lcd_putch
  7631 ;; This function is called by:
  7632 ;;		_main
  7633 ;;		_calibrate
  7634 ;;		_measure_capacitance
  7635 ;;		_measure_inductance
  7636 ;;		_display_reading
  7637 ;;		_indicator
  7638 ;;		_lcd_center_puts
  7639 ;; This function uses a non-reentrant model
  7640 ;;
  7641                           
  7642                           
  7643                           ;psect for function _lcd_puts
  7644  1E27                     _lcd_puts:	
  7645  1E27                     l1648:	
  7646                           ;lcd3310.c: 274: while (*s) {
  7647                           
  7648                           ;incstack = 0
  7649                           ; Regs used in _lcd_puts: [wreg-fsr0h+status,2+status,0+btemp+1+pclath+cstack]
  7650                           
  7651  1E27  087C               	movf	lcd_puts@s+1,w
  7652  1E28  1283               	bcf	3,5	;RP0=0, select bank0
  7653  1E29  1303               	bcf	3,6	;RP1=0, select bank0
  7654  1E2A  00FF               	movwf	127
  7655  1E2B  087B               	movf	lcd_puts@s,w
  7656  1E2C  0084               	movwf	4
  7657  1E2D  120A  158A  2000  160A  158A  	fcall	stringtab
  7658  1E32  3A00               	xorlw	0
  7659  1E33  1903               	btfsc	3,2
  7660  1E34  0008               	return
  7661                           
  7662                           ;lcd3310.c: 275: lcd_putch(*s);
  7663  1E35  087C               	movf	lcd_puts@s+1,w
  7664  1E36  1283               	bcf	3,5	;RP0=0, select bank0
  7665  1E37  1303               	bcf	3,6	;RP1=0, select bank0
  7666  1E38  00FF               	movwf	127
  7667  1E39  087B               	movf	lcd_puts@s,w
  7668  1E3A  0084               	movwf	4
  7669  1E3B  120A  158A  2000  160A  158A  	fcall	stringtab
  7670  1E40  160A  118A  2712  160A  158A  	fcall	_lcd_putch
  7671                           
  7672                           ;lcd3310.c: 276: ++s;
  7673  1E45  3001               	movlw	1
  7674  1E46  07FB               	addwf	lcd_puts@s,f
  7675  1E47  1803               	skipnc
  7676  1E48  0AFC               	incf	lcd_puts@s+1,f
  7677  1E49  2E27               	goto	l1648
  7678  1E4A                     __end_of_lcd_puts:	
  7679                           
  7680                           	psect	text21
  7681  1712                     __ptext21:	
  7682 ;; *************** function _lcd_putch *****************
  7683 ;; Defined at:
  7684 ;;		line 257 in file "../lcd3310.c"
  7685 ;; Parameters:    Size  Location     Type
  7686 ;;  c               1    wreg     unsigned char 
  7687 ;; Auto vars:     Size  Location     Type
  7688 ;;  c               1   10[COMMON] unsigned char 
  7689 ;; Return value:  Size  Location     Type
  7690 ;;		None               void
  7691 ;; Registers used:
  7692 ;;		wreg, fsr0l, fsr0h, status,2, status,0, btemp+1, pclath, cstack
  7693 ;; Tracked objects:
  7694 ;;		On entry : 0/0
  7695 ;;		On exit  : 0/0
  7696 ;;		Unchanged: 0/0
  7697 ;; Data sizes:     COMMON   BANK0   BANK1   BANK3   BANK2
  7698 ;;      Params:         0       0       0       0       0
  7699 ;;      Locals:         1       0       0       0       0
  7700 ;;      Temps:          2       0       0       0       0
  7701 ;;      Totals:         3       0       0       0       0
  7702 ;;Total ram usage:        3 bytes
  7703 ;; Hardware stack levels used:    1
  7704 ;; Hardware stack levels required when called:    1
  7705 ;; This function calls:
  7706 ;;		___wmul
  7707 ;;		_lcd_send
  7708 ;; This function is called by:
  7709 ;;		_lcd_puts
  7710 ;;		_lcd_puts2
  7711 ;;		_lcd_center_puts2
  7712 ;; This function uses a non-reentrant model
  7713 ;;
  7714                           
  7715                           
  7716                           ;psect for function _lcd_putch
  7717  1712                     _lcd_putch:	
  7718                           
  7719                           ;incstack = 0
  7720                           ; Regs used in _lcd_putch: [wreg-fsr0h+status,2+status,0+btemp+1+pclath+cstack]
  7721                           ;lcd_putch@c stored from wreg
  7722  1712  00FA               	movwf	lcd_putch@c
  7723                           
  7724                           ;lcd3310.c: 259: if (c>'z' || c<32) {
  7725  1713  307B               	movlw	123
  7726  1714  027A               	subwf	lcd_putch@c,w
  7727  1715  1803               	skipnc
  7728  1716  0008               	return
  7729  1717  3020               	movlw	32
  7730  1718  027A               	subwf	lcd_putch@c,w
  7731  1719  1C03               	btfss	3,0
  7732  171A  0008               	return
  7733                           
  7734                           ;lcd3310.c: 261: }
  7735                           ;lcd3310.c: 263: lcd_send(lcd_font[c-32][0], 1);
  7736                           
  7737                           ;lcd3310.c: 260: return;
  7738  171B  01F6               	clrf	lcd_send@cmd
  7739  171C  0AF6               	incf	lcd_send@cmd,f
  7740  171D  087A               	movf	lcd_putch@c,w
  7741  171E  3EE0               	addlw	224
  7742  171F  00F0               	movwf	___wmul@multiplier
  7743  1720  30FF               	movlw	255
  7744  1721  1803               	skipnc
  7745  1722  3000               	movlw	0
  7746  1723  00F1               	movwf	___wmul@multiplier+1
  7747  1724  3005               	movlw	5
  7748  1725  00F2               	movwf	___wmul@multiplicand
  7749  1726  3000               	movlw	0
  7750  1727  00F3               	movwf	___wmul@multiplicand+1
  7751  1728  160A  158A  2606  160A  118A  	fcall	___wmul
  7752  172D  308C               	movlw	high (_lcd_font| (0+32768))
  7753  172E  0771               	addwf	?___wmul+1,w
  7754  172F  1283               	bcf	3,5	;RP0=0, select bank0
  7755  1730  1303               	bcf	3,6	;RP1=0, select bank0
  7756  1731  00FF               	movwf	127
  7757  1732  3002               	movlw	low (_lcd_font| (0+32768))
  7758  1733  0770               	addwf	?___wmul,w
  7759  1734  0084               	movwf	4
  7760  1735  1803               	skipnc
  7761  1736  0AFF               	incf	127,f
  7762  1737  120A  158A  2000  160A  118A  	fcall	stringtab
  7763  173C  160A  118A  21E9  160A  118A  	fcall	_lcd_send
  7764                           
  7765                           ;lcd3310.c: 264: lcd_send(lcd_font[c-32][1], 1);
  7766  1741  01F6               	clrf	lcd_send@cmd
  7767  1742  0AF6               	incf	lcd_send@cmd,f
  7768  1743  087A               	movf	lcd_putch@c,w
  7769  1744  3EE0               	addlw	224
  7770  1745  00F0               	movwf	___wmul@multiplier
  7771  1746  30FF               	movlw	255
  7772  1747  1803               	skipnc
  7773  1748  3000               	movlw	0
  7774  1749  00F1               	movwf	___wmul@multiplier+1
  7775  174A  3005               	movlw	5
  7776  174B  00F2               	movwf	___wmul@multiplicand
  7777  174C  3000               	movlw	0
  7778  174D  00F3               	movwf	___wmul@multiplicand+1
  7779  174E  160A  158A  2606  160A  118A  	fcall	___wmul
  7780  1753  0870               	movf	?___wmul,w
  7781  1754  3E01               	addlw	1
  7782  1755  00F8               	movwf	??_lcd_putch
  7783  1756  0871               	movf	?___wmul+1,w
  7784  1757  1803               	skipnc
  7785  1758  3E01               	addlw	1
  7786  1759  3E00               	addlw	0
  7787  175A  00F9               	movwf	??_lcd_putch+1
  7788  175B  308C               	movlw	high (_lcd_font| (0+32768))
  7789  175C  0779               	addwf	??_lcd_putch+1,w
  7790  175D  1283               	bcf	3,5	;RP0=0, select bank0
  7791  175E  1303               	bcf	3,6	;RP1=0, select bank0
  7792  175F  00FF               	movwf	127
  7793  1760  3002               	movlw	low (_lcd_font| (0+32768))
  7794  1761  0778               	addwf	??_lcd_putch,w
  7795  1762  0084               	movwf	4
  7796  1763  1803               	skipnc
  7797  1764  0AFF               	incf	127,f
  7798  1765  120A  158A  2000  160A  118A  	fcall	stringtab
  7799  176A  160A  118A  21E9  160A  118A  	fcall	_lcd_send
  7800                           
  7801                           ;lcd3310.c: 265: lcd_send(lcd_font[c-32][2], 1);
  7802  176F  01F6               	clrf	lcd_send@cmd
  7803  1770  0AF6               	incf	lcd_send@cmd,f
  7804  1771  087A               	movf	lcd_putch@c,w
  7805  1772  3EE0               	addlw	224
  7806  1773  00F0               	movwf	___wmul@multiplier
  7807  1774  30FF               	movlw	255
  7808  1775  1803               	skipnc
  7809  1776  3000               	movlw	0
  7810  1777  00F1               	movwf	___wmul@multiplier+1
  7811  1778  3005               	movlw	5
  7812  1779  00F2               	movwf	___wmul@multiplicand
  7813  177A  3000               	movlw	0
  7814  177B  00F3               	movwf	___wmul@multiplicand+1
  7815  177C  160A  158A  2606  160A  118A  	fcall	___wmul
  7816  1781  0870               	movf	?___wmul,w
  7817  1782  3E02               	addlw	2
  7818  1783  00F8               	movwf	??_lcd_putch
  7819  1784  0871               	movf	?___wmul+1,w
  7820  1785  1803               	skipnc
  7821  1786  3E01               	addlw	1
  7822  1787  3E00               	addlw	0
  7823  1788  00F9               	movwf	??_lcd_putch+1
  7824  1789  308C               	movlw	high (_lcd_font| (0+32768))
  7825  178A  0779               	addwf	??_lcd_putch+1,w
  7826  178B  1283               	bcf	3,5	;RP0=0, select bank0
  7827  178C  1303               	bcf	3,6	;RP1=0, select bank0
  7828  178D  00FF               	movwf	127
  7829  178E  3002               	movlw	low (_lcd_font| (0+32768))
  7830  178F  0778               	addwf	??_lcd_putch,w
  7831  1790  0084               	movwf	4
  7832  1791  1803               	skipnc
  7833  1792  0AFF               	incf	127,f
  7834  1793  120A  158A  2000  160A  118A  	fcall	stringtab
  7835  1798  160A  118A  21E9  160A  118A  	fcall	_lcd_send
  7836                           
  7837                           ;lcd3310.c: 266: lcd_send(lcd_font[c-32][3], 1);
  7838  179D  01F6               	clrf	lcd_send@cmd
  7839  179E  0AF6               	incf	lcd_send@cmd,f
  7840  179F  087A               	movf	lcd_putch@c,w
  7841  17A0  3EE0               	addlw	224
  7842  17A1  00F0               	movwf	___wmul@multiplier
  7843  17A2  30FF               	movlw	255
  7844  17A3  1803               	skipnc
  7845  17A4  3000               	movlw	0
  7846  17A5  00F1               	movwf	___wmul@multiplier+1
  7847  17A6  3005               	movlw	5
  7848  17A7  00F2               	movwf	___wmul@multiplicand
  7849  17A8  3000               	movlw	0
  7850  17A9  00F3               	movwf	___wmul@multiplicand+1
  7851  17AA  160A  158A  2606  160A  118A  	fcall	___wmul
  7852  17AF  0870               	movf	?___wmul,w
  7853  17B0  3E03               	addlw	3
  7854  17B1  00F8               	movwf	??_lcd_putch
  7855  17B2  0871               	movf	?___wmul+1,w
  7856  17B3  1803               	skipnc
  7857  17B4  3E01               	addlw	1
  7858  17B5  3E00               	addlw	0
  7859  17B6  00F9               	movwf	??_lcd_putch+1
  7860  17B7  308C               	movlw	high (_lcd_font| (0+32768))
  7861  17B8  0779               	addwf	??_lcd_putch+1,w
  7862  17B9  1283               	bcf	3,5	;RP0=0, select bank0
  7863  17BA  1303               	bcf	3,6	;RP1=0, select bank0
  7864  17BB  00FF               	movwf	127
  7865  17BC  3002               	movlw	low (_lcd_font| (0+32768))
  7866  17BD  0778               	addwf	??_lcd_putch,w
  7867  17BE  0084               	movwf	4
  7868  17BF  1803               	skipnc
  7869  17C0  0AFF               	incf	127,f
  7870  17C1  120A  158A  2000  160A  118A  	fcall	stringtab
  7871  17C6  160A  118A  21E9  160A  118A  	fcall	_lcd_send
  7872                           
  7873                           ;lcd3310.c: 267: lcd_send(lcd_font[c-32][4], 1);
  7874  17CB  01F6               	clrf	lcd_send@cmd
  7875  17CC  0AF6               	incf	lcd_send@cmd,f
  7876  17CD  087A               	movf	lcd_putch@c,w
  7877  17CE  3EE0               	addlw	224
  7878  17CF  00F0               	movwf	___wmul@multiplier
  7879  17D0  30FF               	movlw	255
  7880  17D1  1803               	skipnc
  7881  17D2  3000               	movlw	0
  7882  17D3  00F1               	movwf	___wmul@multiplier+1
  7883  17D4  3005               	movlw	5
  7884  17D5  00F2               	movwf	___wmul@multiplicand
  7885  17D6  3000               	movlw	0
  7886  17D7  00F3               	movwf	___wmul@multiplicand+1
  7887  17D8  160A  158A  2606  160A  118A  	fcall	___wmul
  7888  17DD  0870               	movf	?___wmul,w
  7889  17DE  3E04               	addlw	4
  7890  17DF  00F8               	movwf	??_lcd_putch
  7891  17E0  0871               	movf	?___wmul+1,w
  7892  17E1  1803               	skipnc
  7893  17E2  3E01               	addlw	1
  7894  17E3  3E00               	addlw	0
  7895  17E4  00F9               	movwf	??_lcd_putch+1
  7896  17E5  308C               	movlw	high (_lcd_font| (0+32768))
  7897  17E6  0779               	addwf	??_lcd_putch+1,w
  7898  17E7  1283               	bcf	3,5	;RP0=0, select bank0
  7899  17E8  1303               	bcf	3,6	;RP1=0, select bank0
  7900  17E9  00FF               	movwf	127
  7901  17EA  3002               	movlw	low (_lcd_font| (0+32768))
  7902  17EB  0778               	addwf	??_lcd_putch,w
  7903  17EC  0084               	movwf	4
  7904  17ED  1803               	skipnc
  7905  17EE  0AFF               	incf	127,f
  7906  17EF  120A  158A  2000  160A  118A  	fcall	stringtab
  7907  17F4  160A  118A  21E9  160A  118A  	fcall	_lcd_send
  7908                           
  7909                           ;lcd3310.c: 268: lcd_send(0, 1);
  7910  17F9  01F6               	clrf	lcd_send@cmd
  7911  17FA  0AF6               	incf	lcd_send@cmd,f
  7912  17FB  3000               	movlw	0
  7913  17FC  160A  118A  21E9   	fcall	_lcd_send
  7914  17FF  0008               	return
  7915  1800                     __end_of_lcd_putch:	
  7916                           
  7917                           	psect	text22
  7918  1E06                     __ptext22:	
  7919 ;; *************** function ___wmul *****************
  7920 ;; Defined at:
  7921 ;;		line 15 in file "C:\Program Files (x86)\Microchip\xc8\v1.34\sources\common\Umul16.c"
  7922 ;; Parameters:    Size  Location     Type
  7923 ;;  multiplier      2    0[COMMON] unsigned int 
  7924 ;;  multiplicand    2    2[COMMON] unsigned int 
  7925 ;; Auto vars:     Size  Location     Type
  7926 ;;  product         2    4[COMMON] unsigned int 
  7927 ;; Return value:  Size  Location     Type
  7928 ;;                  2    0[COMMON] unsigned int 
  7929 ;; Registers used:
  7930 ;;		wreg, status,2, status,0
  7931 ;; Tracked objects:
  7932 ;;		On entry : 0/0
  7933 ;;		On exit  : 0/0
  7934 ;;		Unchanged: 0/0
  7935 ;; Data sizes:     COMMON   BANK0   BANK1   BANK3   BANK2
  7936 ;;      Params:         4       0       0       0       0
  7937 ;;      Locals:         2       0       0       0       0
  7938 ;;      Temps:          0       0       0       0       0
  7939 ;;      Totals:         6       0       0       0       0
  7940 ;;Total ram usage:        6 bytes
  7941 ;; Hardware stack levels used:    1
  7942 ;; This function calls:
  7943 ;;		Nothing
  7944 ;; This function is called by:
  7945 ;;		_lcd_putch
  7946 ;;		_display_unit
  7947 ;; This function uses a non-reentrant model
  7948 ;;
  7949                           
  7950                           
  7951                           ;psect for function ___wmul
  7952  1E06                     ___wmul:	
  7953                           
  7954                           ;incstack = 0
  7955                           ; Regs used in ___wmul: [wreg+status,2+status,0]
  7956  1E06  01F4               	clrf	___wmul@product
  7957  1E07  01F5               	clrf	___wmul@product+1
  7958  1E08                     l1620:	
  7959  1E08  1C70               	btfss	___wmul@multiplier,0
  7960  1E09  2E10               	goto	l352
  7961  1E0A  0872               	movf	___wmul@multiplicand,w
  7962  1E0B  07F4               	addwf	___wmul@product,f
  7963  1E0C  1803               	skipnc
  7964  1E0D  0AF5               	incf	___wmul@product+1,f
  7965  1E0E  0873               	movf	___wmul@multiplicand+1,w
  7966  1E0F  07F5               	addwf	___wmul@product+1,f
  7967  1E10                     l352:	
  7968  1E10  3001               	movlw	1
  7969  1E11                     u1635:	
  7970  1E11  1003               	clrc
  7971  1E12  0DF2               	rlf	___wmul@multiplicand,f
  7972  1E13  0DF3               	rlf	___wmul@multiplicand+1,f
  7973  1E14  3EFF               	addlw	-1
  7974  1E15  1D03               	skipz
  7975  1E16  2E11               	goto	u1635
  7976  1E17  3001               	movlw	1
  7977  1E18                     u1645:	
  7978  1E18  1003               	clrc
  7979  1E19  0CF1               	rrf	___wmul@multiplier+1,f
  7980  1E1A  0CF0               	rrf	___wmul@multiplier,f
  7981  1E1B  3EFF               	addlw	-1
  7982  1E1C  1D03               	skipz
  7983  1E1D  2E18               	goto	u1645
  7984  1E1E  0870               	movf	___wmul@multiplier,w
  7985  1E1F  0471               	iorwf	___wmul@multiplier+1,w
  7986  1E20  1D03               	btfss	3,2
  7987  1E21  2E08               	goto	l1620
  7988  1E22  0875               	movf	___wmul@product+1,w
  7989  1E23  00F1               	movwf	?___wmul+1
  7990  1E24  0874               	movf	___wmul@product,w
  7991  1E25  00F0               	movwf	?___wmul
  7992  1E26  0008               	return
  7993  1E27                     __end_of___wmul:	
  7994                           
  7995                           	psect	text23
  7996  1DE5                     __ptext23:	
  7997 ;; *************** function _lcd_clear *****************
  7998 ;; Defined at:
  7999 ;;		line 239 in file "../lcd3310.c"
  8000 ;; Parameters:    Size  Location     Type
  8001 ;;		None
  8002 ;; Auto vars:     Size  Location     Type
  8003 ;;  i               2   11[COMMON] unsigned int 
  8004 ;; Return value:  Size  Location     Type
  8005 ;;		None               void
  8006 ;; Registers used:
  8007 ;;		wreg, status,2, status,0, pclath, cstack
  8008 ;; Tracked objects:
  8009 ;;		On entry : 0/0
  8010 ;;		On exit  : 0/0
  8011 ;;		Unchanged: 0/0
  8012 ;; Data sizes:     COMMON   BANK0   BANK1   BANK3   BANK2
  8013 ;;      Params:         0       0       0       0       0
  8014 ;;      Locals:         2       0       0       0       0
  8015 ;;      Temps:          0       0       0       0       0
  8016 ;;      Totals:         2       0       0       0       0
  8017 ;;Total ram usage:        2 bytes
  8018 ;; Hardware stack levels used:    1
  8019 ;; Hardware stack levels required when called:    2
  8020 ;; This function calls:
  8021 ;;		_lcd_gotoxy
  8022 ;;		_lcd_send
  8023 ;; This function is called by:
  8024 ;;		_main
  8025 ;;		_initialize
  8026 ;;		_calibrate
  8027 ;; This function uses a non-reentrant model
  8028 ;;
  8029                           
  8030                           
  8031                           ;psect for function _lcd_clear
  8032  1DE5                     _lcd_clear:	
  8033                           
  8034                           ;lcd3310.c: 241: unsigned int i;
  8035                           ;lcd3310.c: 243: lcd_gotoxy(0,0);
  8036                           
  8037                           ;incstack = 0
  8038                           ; Regs used in _lcd_clear: [wreg+status,2+status,0+pclath+cstack]
  8039  1DE5  3000               	movlw	0
  8040  1DE6  00F8               	movwf	lcd_gotoxy@y
  8041  1DE7  00F9               	movwf	lcd_gotoxy@y+1
  8042  1DE8  3000               	movlw	0
  8043  1DE9  160A  158A  258E  160A  158A  	fcall	_lcd_gotoxy
  8044                           
  8045                           ;lcd3310.c: 244: for (i=0;i<504;++i) {
  8046  1DEE  01FB               	clrf	lcd_clear@i
  8047  1DEF  01FC               	clrf	lcd_clear@i+1
  8048  1DF0                     L7:	
  8049  1DF0  3001               	movlw	1
  8050  1DF1  027C               	subwf	lcd_clear@i+1,w
  8051  1DF2  30F8               	movlw	248
  8052  1DF3  1903               	skipnz
  8053  1DF4  027B               	subwf	lcd_clear@i,w
  8054  1DF5  1803               	btfsc	3,0
  8055  1DF6  0008               	return
  8056                           
  8057                           ;lcd3310.c: 245: lcd_send(0, 1);
  8058  1DF7  01F6               	clrf	lcd_send@cmd
  8059  1DF8  0AF6               	incf	lcd_send@cmd,f
  8060  1DF9  3000               	movlw	0
  8061  1DFA  160A  118A  21E9  160A  158A  	fcall	_lcd_send
  8062  1DFF  3001               	movlw	1
  8063  1E00  07FB               	addwf	lcd_clear@i,f
  8064  1E01  1803               	skipnc
  8065  1E02  0AFC               	incf	lcd_clear@i+1,f
  8066  1E03  3000               	movlw	0
  8067  1E04  07FC               	addwf	lcd_clear@i+1,f
  8068  1E05  2DF0               	goto	L7
  8069  1E06                     __end_of_lcd_clear:	
  8070                           
  8071                           	psect	text24
  8072  1D8E                     __ptext24:	
  8073 ;; *************** function _lcd_gotoxy *****************
  8074 ;; Defined at:
  8075 ;;		line 250 in file "../lcd3310.c"
  8076 ;; Parameters:    Size  Location     Type
  8077 ;;  x               1    wreg     unsigned char 
  8078 ;;  y               2    8[COMMON] unsigned int 
  8079 ;; Auto vars:     Size  Location     Type
  8080 ;;  x               1   10[COMMON] unsigned char 
  8081 ;; Return value:  Size  Location     Type
  8082 ;;		None               void
  8083 ;; Registers used:
  8084 ;;		wreg, status,2, status,0, pclath, cstack
  8085 ;; Tracked objects:
  8086 ;;		On entry : 0/0
  8087 ;;		On exit  : 0/0
  8088 ;;		Unchanged: 0/0
  8089 ;; Data sizes:     COMMON   BANK0   BANK1   BANK3   BANK2
  8090 ;;      Params:         2       0       0       0       0
  8091 ;;      Locals:         1       0       0       0       0
  8092 ;;      Temps:          0       0       0       0       0
  8093 ;;      Totals:         3       0       0       0       0
  8094 ;;Total ram usage:        3 bytes
  8095 ;; Hardware stack levels used:    1
  8096 ;; Hardware stack levels required when called:    1
  8097 ;; This function calls:
  8098 ;;		_lcd_send
  8099 ;; This function is called by:
  8100 ;;		_main
  8101 ;;		_calibrate
  8102 ;;		_measure_capacitance
  8103 ;;		_measure_inductance
  8104 ;;		_lcd_clear
  8105 ;;		_display_digit
  8106 ;;		_display_unit
  8107 ;;		_display_reading
  8108 ;;		_indicator
  8109 ;;		_lcd_test
  8110 ;;		_lcd_center_puts
  8111 ;;		_lcd_clear_line
  8112 ;;		_lcd_center_puts2
  8113 ;;		_lcd_battery
  8114 ;; This function uses a non-reentrant model
  8115 ;;
  8116                           
  8117                           
  8118                           ;psect for function _lcd_gotoxy
  8119  1D8E                     _lcd_gotoxy:	
  8120                           
  8121                           ;incstack = 0
  8122                           ; Regs used in _lcd_gotoxy: [wreg+status,2+status,0+pclath+cstack]
  8123                           ;lcd_gotoxy@x stored from wreg
  8124  1D8E  00FA               	movwf	lcd_gotoxy@x
  8125                           
  8126                           ;lcd3310.c: 252: lcd_send(x | 0b10000000, 0);
  8127  1D8F  01F6               	clrf	lcd_send@cmd
  8128  1D90  087A               	movf	lcd_gotoxy@x,w
  8129  1D91  3880               	iorlw	128
  8130  1D92  160A  118A  21E9  160A  158A  	fcall	_lcd_send
  8131                           
  8132                           ;lcd3310.c: 253: lcd_send((y & 0b00000111) | 0b01000000, 0);
  8133  1D97  01F6               	clrf	lcd_send@cmd
  8134  1D98  0878               	movf	lcd_gotoxy@y,w
  8135  1D99  3907               	andlw	7
  8136  1D9A  3840               	iorlw	64
  8137  1D9B  160A  118A  21E9   	fcall	_lcd_send
  8138  1D9E  0008               	return
  8139  1D9F                     __end_of_lcd_gotoxy:	
  8140                           
  8141                           	psect	text25
  8142  11E9                     __ptext25:	
  8143 ;; *************** function _lcd_send *****************
  8144 ;; Defined at:
  8145 ;;		line 144 in file "../lcd3310.c"
  8146 ;; Parameters:    Size  Location     Type
  8147 ;;  a               1    wreg     unsigned char 
  8148 ;;  cmd             1    6[COMMON] unsigned char 
  8149 ;; Auto vars:     Size  Location     Type
  8150 ;;  a               1    7[COMMON] unsigned char 
  8151 ;; Return value:  Size  Location     Type
  8152 ;;		None               void
  8153 ;; Registers used:
  8154 ;;		wreg, status,2, status,0
  8155 ;; Tracked objects:
  8156 ;;		On entry : 0/0
  8157 ;;		On exit  : 0/0
  8158 ;;		Unchanged: 0/0
  8159 ;; Data sizes:     COMMON   BANK0   BANK1   BANK3   BANK2
  8160 ;;      Params:         1       0       0       0       0
  8161 ;;      Locals:         1       0       0       0       0
  8162 ;;      Temps:          0       0       0       0       0
  8163 ;;      Totals:         2       0       0       0       0
  8164 ;;Total ram usage:        2 bytes
  8165 ;; Hardware stack levels used:    1
  8166 ;; This function calls:
  8167 ;;		Nothing
  8168 ;; This function is called by:
  8169 ;;		_main
  8170 ;;		_calibrate
  8171 ;;		_lcd_init
  8172 ;;		_lcd_clear
  8173 ;;		_lcd_gotoxy
  8174 ;;		_lcd_putch
  8175 ;;		_display_digit
  8176 ;;		_display_unit
  8177 ;;		_display_reading
  8178 ;;		_indicator
  8179 ;;		_lcd_test
  8180 ;;		_lcd_clear_line
  8181 ;;		_lcd_battery
  8182 ;;		_lcd_symbol
  8183 ;; This function uses a non-reentrant model
  8184 ;;
  8185                           
  8186                           
  8187                           ;psect for function _lcd_send
  8188  11E9                     _lcd_send:	
  8189                           
  8190                           ;incstack = 0
  8191                           ; Regs used in _lcd_send: [wreg+status,2+status,0]
  8192                           ;lcd_send@a stored from wreg
  8193  11E9  00F7               	movwf	lcd_send@a
  8194                           
  8195                           ;lcd3310.c: 147: RC1=1;
  8196  11EA  1283               	bcf	3,5	;RP0=0, select bank0
  8197  11EB  1303               	bcf	3,6	;RP1=0, select bank0
  8198  11EC  1487               	bsf	7,1	;volatile
  8199                           
  8200                           ;lcd3310.c: 148: if (cmd==0) {
  8201  11ED  0876               	movf	lcd_send@cmd,w
  8202  11EE  1903               	btfsc	3,2
  8203                           
  8204                           ;lcd3310.c: 149: RC1=0;
  8205  11EF  1087               	bcf	7,1	;volatile
  8206                           
  8207                           ;lcd3310.c: 150: }
  8208                           ;lcd3310.c: 151: __nop();
  8209  11F0  0000               	nop
  8210                           
  8211                           ;lcd3310.c: 152: RC2=0;
  8212  11F1  1283               	bcf	3,5	;RP0=0, select bank0
  8213  11F2  1303               	bcf	3,6	;RP1=0, select bank0
  8214  11F3  1107               	bcf	7,2	;volatile
  8215                           
  8216                           ;lcd3310.c: 156: __nop(); RC5=0; __nop(); RC4=0; if ((a) & (0b10000000)) { RC4=1; } __no
      +                          p(); RC5=1;
  8217  11F4  0000               	nop
  8218  11F5  1283               	bcf	3,5	;RP0=0, select bank0
  8219  11F6  1303               	bcf	3,6	;RP1=0, select bank0
  8220  11F7  1287               	bcf	7,5	;volatile
  8221  11F8  0000               	nop
  8222  11F9  1283               	bcf	3,5	;RP0=0, select bank0
  8223  11FA  1303               	bcf	3,6	;RP1=0, select bank0
  8224  11FB  1207               	bcf	7,4	;volatile
  8225  11FC  1BF7               	btfsc	lcd_send@a,7
  8226  11FD  1607               	bsf	7,4	;volatile
  8227  11FE  0000               	nop
  8228  11FF  1283               	bcf	3,5	;RP0=0, select bank0
  8229  1200  1303               	bcf	3,6	;RP1=0, select bank0
  8230  1201  1687               	bsf	7,5	;volatile
  8231                           
  8232                           ;lcd3310.c: 157: __nop(); RC5=0; __nop(); RC4=0; if ((a) & (0b01000000)) { RC4=1; } __no
      +                          p(); RC5=1;
  8233  1202  0000               	nop
  8234  1203  1283               	bcf	3,5	;RP0=0, select bank0
  8235  1204  1303               	bcf	3,6	;RP1=0, select bank0
  8236  1205  1287               	bcf	7,5	;volatile
  8237  1206  0000               	nop
  8238  1207  1283               	bcf	3,5	;RP0=0, select bank0
  8239  1208  1303               	bcf	3,6	;RP1=0, select bank0
  8240  1209  1207               	bcf	7,4	;volatile
  8241  120A  1B77               	btfsc	lcd_send@a,6
  8242  120B  1607               	bsf	7,4	;volatile
  8243  120C  0000               	nop
  8244  120D  1283               	bcf	3,5	;RP0=0, select bank0
  8245  120E  1303               	bcf	3,6	;RP1=0, select bank0
  8246  120F  1687               	bsf	7,5	;volatile
  8247                           
  8248                           ;lcd3310.c: 158: __nop(); RC5=0; __nop(); RC4=0; if ((a) & (0b00100000)) { RC4=1; } __no
      +                          p(); RC5=1;
  8249  1210  0000               	nop
  8250  1211  1283               	bcf	3,5	;RP0=0, select bank0
  8251  1212  1303               	bcf	3,6	;RP1=0, select bank0
  8252  1213  1287               	bcf	7,5	;volatile
  8253  1214  0000               	nop
  8254  1215  1283               	bcf	3,5	;RP0=0, select bank0
  8255  1216  1303               	bcf	3,6	;RP1=0, select bank0
  8256  1217  1207               	bcf	7,4	;volatile
  8257  1218  1AF7               	btfsc	lcd_send@a,5
  8258  1219  1607               	bsf	7,4	;volatile
  8259  121A  0000               	nop
  8260  121B  1283               	bcf	3,5	;RP0=0, select bank0
  8261  121C  1303               	bcf	3,6	;RP1=0, select bank0
  8262  121D  1687               	bsf	7,5	;volatile
  8263                           
  8264                           ;lcd3310.c: 159: __nop(); RC5=0; __nop(); RC4=0; if ((a) & (0b00010000)) { RC4=1; } __no
      +                          p(); RC5=1;
  8265  121E  0000               	nop
  8266  121F  1283               	bcf	3,5	;RP0=0, select bank0
  8267  1220  1303               	bcf	3,6	;RP1=0, select bank0
  8268  1221  1287               	bcf	7,5	;volatile
  8269  1222  0000               	nop
  8270  1223  1283               	bcf	3,5	;RP0=0, select bank0
  8271  1224  1303               	bcf	3,6	;RP1=0, select bank0
  8272  1225  1207               	bcf	7,4	;volatile
  8273  1226  1A77               	btfsc	lcd_send@a,4
  8274  1227  1607               	bsf	7,4	;volatile
  8275  1228  0000               	nop
  8276  1229  1283               	bcf	3,5	;RP0=0, select bank0
  8277  122A  1303               	bcf	3,6	;RP1=0, select bank0
  8278  122B  1687               	bsf	7,5	;volatile
  8279                           
  8280                           ;lcd3310.c: 160: __nop(); RC5=0; __nop(); RC4=0; if ((a) & (0b00001000)) { RC4=1; } __no
      +                          p(); RC5=1;
  8281  122C  0000               	nop
  8282  122D  1283               	bcf	3,5	;RP0=0, select bank0
  8283  122E  1303               	bcf	3,6	;RP1=0, select bank0
  8284  122F  1287               	bcf	7,5	;volatile
  8285  1230  0000               	nop
  8286  1231  1283               	bcf	3,5	;RP0=0, select bank0
  8287  1232  1303               	bcf	3,6	;RP1=0, select bank0
  8288  1233  1207               	bcf	7,4	;volatile
  8289  1234  19F7               	btfsc	lcd_send@a,3
  8290  1235  1607               	bsf	7,4	;volatile
  8291  1236  0000               	nop
  8292  1237  1283               	bcf	3,5	;RP0=0, select bank0
  8293  1238  1303               	bcf	3,6	;RP1=0, select bank0
  8294  1239  1687               	bsf	7,5	;volatile
  8295                           
  8296                           ;lcd3310.c: 161: __nop(); RC5=0; __nop(); RC4=0; if ((a) & (0b00000100)) { RC4=1; } __no
      +                          p(); RC5=1;
  8297  123A  0000               	nop
  8298  123B  1283               	bcf	3,5	;RP0=0, select bank0
  8299  123C  1303               	bcf	3,6	;RP1=0, select bank0
  8300  123D  1287               	bcf	7,5	;volatile
  8301  123E  0000               	nop
  8302  123F  1283               	bcf	3,5	;RP0=0, select bank0
  8303  1240  1303               	bcf	3,6	;RP1=0, select bank0
  8304  1241  1207               	bcf	7,4	;volatile
  8305  1242  1977               	btfsc	lcd_send@a,2
  8306  1243  1607               	bsf	7,4	;volatile
  8307  1244  0000               	nop
  8308  1245  1283               	bcf	3,5	;RP0=0, select bank0
  8309  1246  1303               	bcf	3,6	;RP1=0, select bank0
  8310  1247  1687               	bsf	7,5	;volatile
  8311                           
  8312                           ;lcd3310.c: 162: __nop(); RC5=0; __nop(); RC4=0; if ((a) & (0b00000010)) { RC4=1; } __no
      +                          p(); RC5=1;
  8313  1248  0000               	nop
  8314  1249  1283               	bcf	3,5	;RP0=0, select bank0
  8315  124A  1303               	bcf	3,6	;RP1=0, select bank0
  8316  124B  1287               	bcf	7,5	;volatile
  8317  124C  0000               	nop
  8318  124D  1283               	bcf	3,5	;RP0=0, select bank0
  8319  124E  1303               	bcf	3,6	;RP1=0, select bank0
  8320  124F  1207               	bcf	7,4	;volatile
  8321  1250  18F7               	btfsc	lcd_send@a,1
  8322  1251  1607               	bsf	7,4	;volatile
  8323  1252  0000               	nop
  8324  1253  1283               	bcf	3,5	;RP0=0, select bank0
  8325  1254  1303               	bcf	3,6	;RP1=0, select bank0
  8326  1255  1687               	bsf	7,5	;volatile
  8327                           
  8328                           ;lcd3310.c: 163: __nop(); RC5=0; __nop(); RC4=0; if ((a) & (0b00000001)) { RC4=1; } __no
      +                          p(); RC5=1;
  8329  1256  0000               	nop
  8330  1257  1283               	bcf	3,5	;RP0=0, select bank0
  8331  1258  1303               	bcf	3,6	;RP1=0, select bank0
  8332  1259  1287               	bcf	7,5	;volatile
  8333  125A  0000               	nop
  8334  125B  1283               	bcf	3,5	;RP0=0, select bank0
  8335  125C  1303               	bcf	3,6	;RP1=0, select bank0
  8336  125D  1207               	bcf	7,4	;volatile
  8337  125E  1877               	btfsc	lcd_send@a,0
  8338  125F  1607               	bsf	7,4	;volatile
  8339  1260  0000               	nop
  8340  1261  1283               	bcf	3,5	;RP0=0, select bank0
  8341  1262  1303               	bcf	3,6	;RP1=0, select bank0
  8342  1263  1687               	bsf	7,5	;volatile
  8343                           
  8344                           ;lcd3310.c: 165: __nop();
  8345  1264  0000               	nop
  8346                           
  8347                           ;lcd3310.c: 166: RC2=1;
  8348  1265  1283               	bcf	3,5	;RP0=0, select bank0
  8349  1266  1303               	bcf	3,6	;RP1=0, select bank0
  8350  1267  1507               	bsf	7,2	;volatile
  8351  1268  0008               	return
  8352  1269                     __end_of_lcd_send:	
  8353                           
  8354                           	psect	text26
  8355  1DB3                     __ptext26:	
  8356 ;; *************** function ___lwtoft *****************
  8357 ;; Defined at:
  8358 ;;		line 28 in file "C:\Program Files (x86)\Microchip\xc8\v1.34\sources\common\lwtoft.c"
  8359 ;; Parameters:    Size  Location     Type
  8360 ;;  c               2    4[BANK0 ] unsigned int 
  8361 ;; Auto vars:     Size  Location     Type
  8362 ;;		None
  8363 ;; Return value:  Size  Location     Type
  8364 ;;                  3    4[BANK0 ] float 
  8365 ;; Registers used:
  8366 ;;		wreg, status,2, status,0, pclath, cstack
  8367 ;; Tracked objects:
  8368 ;;		On entry : 0/0
  8369 ;;		On exit  : 0/0
  8370 ;;		Unchanged: 0/0
  8371 ;; Data sizes:     COMMON   BANK0   BANK1   BANK3   BANK2
  8372 ;;      Params:         0       3       0       0       0
  8373 ;;      Locals:         0       0       0       0       0
  8374 ;;      Temps:          1       0       0       0       0
  8375 ;;      Totals:         1       3       0       0       0
  8376 ;;Total ram usage:        4 bytes
  8377 ;; Hardware stack levels used:    1
  8378 ;; Hardware stack levels required when called:    1
  8379 ;; This function calls:
  8380 ;;		___ftpack
  8381 ;; This function is called by:
  8382 ;;		_calibrate
  8383 ;;		_measure_capacitance
  8384 ;;		_measure_inductance
  8385 ;; This function uses a non-reentrant model
  8386 ;;
  8387                           
  8388                           
  8389                           ;psect for function ___lwtoft
  8390  1DB3                     ___lwtoft:	
  8391                           
  8392                           ;incstack = 0
  8393                           ; Regs used in ___lwtoft: [wreg+status,2+status,0+pclath+cstack]
  8394  1DB3  1283               	bcf	3,5	;RP0=0, select bank0
  8395  1DB4  1303               	bcf	3,6	;RP1=0, select bank0
  8396  1DB5  0824               	movf	___lwtoft@c,w
  8397  1DB6  00F0               	movwf	___ftpack@arg
  8398  1DB7  0825               	movf	___lwtoft@c+1,w
  8399  1DB8  00F1               	movwf	___ftpack@arg+1
  8400  1DB9  01F2               	clrf	___ftpack@arg+2
  8401  1DBA  308E               	movlw	142
  8402  1DBB  00FC               	movwf	??___lwtoft
  8403  1DBC  087C               	movf	??___lwtoft,w
  8404  1DBD  00F3               	movwf	___ftpack@exp
  8405  1DBE  01F4               	clrf	___ftpack@sign
  8406  1DBF  160A  158A  2794   	fcall	___ftpack
  8407  1DC2  0870               	movf	?___ftpack,w
  8408  1DC3  1283               	bcf	3,5	;RP0=0, select bank0
  8409  1DC4  1303               	bcf	3,6	;RP1=0, select bank0
  8410  1DC5  00A4               	movwf	?___lwtoft
  8411  1DC6  0871               	movf	?___ftpack+1,w
  8412  1DC7  00A5               	movwf	?___lwtoft+1
  8413  1DC8  0872               	movf	?___ftpack+2,w
  8414  1DC9  00A6               	movwf	?___lwtoft+2
  8415  1DCA  0008               	return
  8416  1DCB                     __end_of___lwtoft:	
  8417                           
  8418                           	psect	text27
  8419  1F94                     __ptext27:	
  8420 ;; *************** function ___ftpack *****************
  8421 ;; Defined at:
  8422 ;;		line 62 in file "C:\Program Files (x86)\Microchip\xc8\v1.34\sources\common\float.c"
  8423 ;; Parameters:    Size  Location     Type
  8424 ;;  arg             3    0[COMMON] unsigned um
  8425 ;;  exp             1    3[COMMON] unsigned char 
  8426 ;;  sign            1    4[COMMON] unsigned char 
  8427 ;; Auto vars:     Size  Location     Type
  8428 ;;		None
  8429 ;; Return value:  Size  Location     Type
  8430 ;;                  3    0[COMMON] float 
  8431 ;; Registers used:
  8432 ;;		wreg, status,2, status,0
  8433 ;; Tracked objects:
  8434 ;;		On entry : 0/0
  8435 ;;		On exit  : 0/0
  8436 ;;		Unchanged: 0/0
  8437 ;; Data sizes:     COMMON   BANK0   BANK1   BANK3   BANK2
  8438 ;;      Params:         5       0       0       0       0
  8439 ;;      Locals:         0       0       0       0       0
  8440 ;;      Temps:          3       0       0       0       0
  8441 ;;      Totals:         8       0       0       0       0
  8442 ;;Total ram usage:        8 bytes
  8443 ;; Hardware stack levels used:    1
  8444 ;; This function calls:
  8445 ;;		Nothing
  8446 ;; This function is called by:
  8447 ;;		___ftadd
  8448 ;;		___ftdiv
  8449 ;;		___ftmul
  8450 ;;		___lwtoft
  8451 ;; This function uses a non-reentrant model
  8452 ;;
  8453                           
  8454                           
  8455                           ;psect for function ___ftpack
  8456  1F94                     ___ftpack:	
  8457                           
  8458                           ;incstack = 0
  8459                           ; Regs used in ___ftpack: [wreg+status,2+status,0]
  8460  1F94  0873               	movf	___ftpack@exp,w
  8461  1F95  1903               	btfsc	3,2
  8462  1F96  2F9C               	goto	l1698
  8463  1F97  0872               	movf	___ftpack@arg+2,w
  8464  1F98  0471               	iorwf	___ftpack@arg+1,w
  8465  1F99  0470               	iorwf	___ftpack@arg,w
  8466  1F9A  1D03               	skipz
  8467  1F9B  2FAF               	goto	l1704
  8468  1F9C                     l1698:	
  8469  1F9C  3000               	movlw	0
  8470  1F9D  00F0               	movwf	?___ftpack
  8471  1F9E  3000               	movlw	0
  8472  1F9F  00F1               	movwf	?___ftpack+1
  8473  1FA0  3000               	movlw	0
  8474  1FA1  00F2               	movwf	?___ftpack+2
  8475  1FA2  0008               	return
  8476  1FA3                     l1702:	
  8477  1FA3  3001               	movlw	1
  8478  1FA4  00F5               	movwf	??___ftpack
  8479  1FA5  0875               	movf	??___ftpack,w
  8480  1FA6  07F3               	addwf	___ftpack@exp,f
  8481  1FA7  3001               	movlw	1
  8482  1FA8                     u1825:	
  8483  1FA8  1003               	clrc
  8484  1FA9  0CF2               	rrf	___ftpack@arg+2,f
  8485  1FAA  0CF1               	rrf	___ftpack@arg+1,f
  8486  1FAB  0CF0               	rrf	___ftpack@arg,f
  8487  1FAC  3EFF               	addlw	-1
  8488  1FAD  1D03               	skipz
  8489  1FAE  2FA8               	goto	u1825
  8490  1FAF                     l1704:	
  8491  1FAF  30FE               	movlw	254
  8492  1FB0  0572               	andwf	___ftpack@arg+2,w
  8493  1FB1  1903               	btfsc	3,2
  8494  1FB2  2FCA               	goto	l513
  8495  1FB3  2FA3               	goto	l1702
  8496  1FB4                     l1706:	
  8497  1FB4  3001               	movlw	1
  8498  1FB5  00F5               	movwf	??___ftpack
  8499  1FB6  0875               	movf	??___ftpack,w
  8500  1FB7  07F3               	addwf	___ftpack@exp,f
  8501  1FB8  3001               	movlw	1
  8502  1FB9  07F0               	addwf	___ftpack@arg,f
  8503  1FBA  3000               	movlw	0
  8504  1FBB  1803               	skipnc
  8505  1FBC  3001               	movlw	1
  8506  1FBD  07F1               	addwf	___ftpack@arg+1,f
  8507  1FBE  3000               	movlw	0
  8508  1FBF  1803               	skipnc
  8509  1FC0  3001               	movlw	1
  8510  1FC1  07F2               	addwf	___ftpack@arg+2,f
  8511  1FC2  3001               	movlw	1
  8512  1FC3                     u1845:	
  8513  1FC3  1003               	clrc
  8514  1FC4  0CF2               	rrf	___ftpack@arg+2,f
  8515  1FC5  0CF1               	rrf	___ftpack@arg+1,f
  8516  1FC6  0CF0               	rrf	___ftpack@arg,f
  8517  1FC7  3EFF               	addlw	-1
  8518  1FC8  1D03               	skipz
  8519  1FC9  2FC3               	goto	u1845
  8520  1FCA                     l513:	
  8521  1FCA  30FF               	movlw	255
  8522  1FCB  0572               	andwf	___ftpack@arg+2,w
  8523  1FCC  1903               	btfsc	3,2
  8524  1FCD  2FDD               	goto	l1714
  8525  1FCE  2FB4               	goto	l1706
  8526  1FCF                     l1716:	
  8527  1FCF  3002               	movlw	2
  8528  1FD0  0273               	subwf	___ftpack@exp,w
  8529  1FD1  1C03               	btfss	3,0
  8530  1FD2  2FDF               	goto	l520
  8531  1FD3  3001               	movlw	1
  8532  1FD4  02F3               	subwf	___ftpack@exp,f
  8533  1FD5  3001               	movlw	1
  8534  1FD6                     u1865:	
  8535  1FD6  1003               	clrc
  8536  1FD7  0DF0               	rlf	___ftpack@arg,f
  8537  1FD8  0DF1               	rlf	___ftpack@arg+1,f
  8538  1FD9  0DF2               	rlf	___ftpack@arg+2,f
  8539  1FDA  3EFF               	addlw	-1
  8540  1FDB  1D03               	skipz
  8541  1FDC  2FD6               	goto	u1865
  8542  1FDD                     l1714:	
  8543  1FDD  1FF1               	btfss	___ftpack@arg+1,7
  8544  1FDE  2FCF               	goto	l1716
  8545  1FDF                     l520:	
  8546  1FDF  1873               	btfsc	___ftpack@exp,0
  8547  1FE0  2FE7               	goto	l521
  8548  1FE1  30FF               	movlw	255
  8549  1FE2  05F0               	andwf	___ftpack@arg,f
  8550  1FE3  307F               	movlw	127
  8551  1FE4  05F1               	andwf	___ftpack@arg+1,f
  8552  1FE5  30FF               	movlw	255
  8553  1FE6  05F2               	andwf	___ftpack@arg+2,f
  8554  1FE7                     l521:	
  8555  1FE7  1003               	clrc
  8556  1FE8  0CF3               	rrf	___ftpack@exp,f
  8557  1FE9  0873               	movf	___ftpack@exp,w
  8558  1FEA  00F5               	movwf	??___ftpack
  8559  1FEB  01F6               	clrf	??___ftpack+1
  8560  1FEC  01F7               	clrf	??___ftpack+2
  8561  1FED  3010               	movlw	16
  8562  1FEE                     u1905:	
  8563  1FEE  1003               	clrc
  8564  1FEF  0DF5               	rlf	??___ftpack,f
  8565  1FF0  0DF6               	rlf	??___ftpack+1,f
  8566  1FF1  0DF7               	rlf	??___ftpack+2,f
  8567  1FF2  3EFF               	addlw	-1
  8568  1FF3  1D03               	skipz
  8569  1FF4  2FEE               	goto	u1905
  8570  1FF5  0875               	movf	??___ftpack,w
  8571  1FF6  04F0               	iorwf	___ftpack@arg,f
  8572  1FF7  0876               	movf	??___ftpack+1,w
  8573  1FF8  04F1               	iorwf	___ftpack@arg+1,f
  8574  1FF9  0877               	movf	??___ftpack+2,w
  8575  1FFA  04F2               	iorwf	___ftpack@arg+2,f
  8576  1FFB  0874               	movf	___ftpack@sign,w
  8577  1FFC  1903               	btfsc	3,2
  8578  1FFD  0008               	return
  8579  1FFE  17F2               	bsf	___ftpack@arg+2,7
  8580  1FFF  0008               	return
  8581  2000                     __end_of___ftpack:	
  8582  007E                     btemp	set	126	;btemp
  8583  007E                     wtemp	set	126
  8584  007E                     wtemp0	set	126
  8585  0080                     wtemp1	set	128
  8586  0082                     wtemp2	set	130
  8587  0084                     wtemp3	set	132
  8588  0086                     wtemp4	set	134
  8589  0088                     wtemp5	set	136
  8590  007F                     wtemp6	set	127
  8591  007E                     ttemp	set	126
  8592  007E                     ttemp0	set	126
  8593  0081                     ttemp1	set	129
  8594  0084                     ttemp2	set	132
  8595  0087                     ttemp3	set	135
  8596  007F                     ttemp4	set	127
  8597  007E                     ltemp	set	126
  8598  007E                     ltemp0	set	126
  8599  0082                     ltemp1	set	130
  8600  0086                     ltemp2	set	134
  8601  0080                     ltemp3	set	128


Data Sizes:
    Strings     70
    Constant    2372
    Data        0
    BSS         9
    Persistent  0
    Stack       0

Auto Spaces:
    Space          Size  Autos    Used
    COMMON           14     14      14
    BANK0            80     73      79
    BANK1            80      0       3
    BANK3            96      0       0
    BANK2            96      0       0

Pointer List with Targets:

    lcd_puts@s	PTR const unsigned char  size(2) Largest target is 14
		 -> STR_8(CODE[2]), STR_7(CODE[10]), STR_6(CODE[10]), STR_5(CODE[13]), 
		 -> STR_4(CODE[13]), STR_3(CODE[14]), STR_2(CODE[13]), STR_1(CODE[7]), 


Critical Paths under _main in COMMON

    _main->_calibrate
    _main->_indicator
    _measure_inductance->___ftdiv
    _measure_inductance->___fttol
    _measure_capacitance->___ftdiv
    _measure_capacitance->___fttol
    _display_unit->_lcd_gotoxy
    _display_reading->___lwmod
    _display_digit->___lwmod
    ___lwmod->___lwdiv
    ___ftneg->___ftdiv
    ___ftmul->___ftdiv
    ___ftdiv->___ftpack
    ___ftadd->___ftdiv
    _initialize->_lcd_clear
    _lcd_init->_lcd_send
    _indicator->_lcd_puts
    _calibrate->___lwtoft
    _calibrate->_lcd_clear
    _calibrate->_lcd_puts
    _measure_freq->_delay10ms
    _lcd_puts->_lcd_putch
    _lcd_putch->_lcd_send
    _lcd_clear->_lcd_gotoxy
    _lcd_gotoxy->_lcd_send
    _lcd_send->___wmul
    ___lwtoft->_measure_freq

Critical Paths under _main in BANK0

    _main->_measure_inductance
    _measure_inductance->___ftadd
    _measure_capacitance->___ftadd
    _display_reading->_display_digit
    ___ftneg->___ftmul
    ___ftmul->___ftdiv
    ___ftadd->___ftneg
    _calibrate->___lwtoft
    ___lwtoft->_measure_freq

Critical Paths under _main in BANK1

    None.

Critical Paths under _main in BANK3

    None.

Critical Paths under _main in BANK2

    None.

Call Graph Tables:

 ---------------------------------------------------------------------------------
 (Depth) Function   	        Calls       Base Space   Used Autos Params    Refs
 ---------------------------------------------------------------------------------
 (0) _main                                                 2     2      0  137168
                                             71 BANK0      2     2      0
                          _calibrate
                          _delay10ms
                          _indicator
                         _initialize
                          _lcd_clear
                         _lcd_gotoxy
                           _lcd_puts
                           _lcd_send
                _measure_capacitance
                 _measure_inductance
 ---------------------------------------------------------------------------------
 (1) _measure_inductance                                  38    38      0   44952
                                             42 BANK0     29    29      0
                            ___ftadd
                            ___ftdiv
                             ___ftge
                            ___ftmul
                            ___ftneg
                            ___fttol
                           ___lwtoft
                    _display_reading
                       _display_unit
                         _lcd_gotoxy
                           _lcd_puts
                       _measure_freq
 ---------------------------------------------------------------------------------
 (1) _measure_capacitance                                 20    20      0   44676
                                             42 BANK0     20    20      0
                            ___ftadd
                            ___ftdiv
                             ___ftge
                            ___ftmul
                            ___ftneg
                            ___fttol
                           ___lwtoft
                    _display_reading
                       _display_unit
                         _lcd_gotoxy
                           _lcd_puts
                       _measure_freq
 ---------------------------------------------------------------------------------
 (2) _display_unit                                         6     6      0    6224
                                             11 COMMON     2     2      0
                                              0 BANK0      4     4      0
                             ___wmul
                         _lcd_gotoxy
                           _lcd_send
 ---------------------------------------------------------------------------------
 (2) _display_reading                                      4     2      2   16691
                                              6 BANK0      4     2      2
                            ___lwdiv
                            ___lwmod
                      _display_digit
                         _lcd_gotoxy
                           _lcd_puts
                           _lcd_send
 ---------------------------------------------------------------------------------
 (3) _display_digit                                        6     4      2    6096
                                              0 BANK0      6     4      2
                            ___lwdiv (ARG)
                            ___lwmod (ARG)
                         _lcd_gotoxy
                           _lcd_send
 ---------------------------------------------------------------------------------
 (3) ___lwmod                                              6     2      4     689
                                              8 COMMON     6     2      4
                            ___lwdiv (ARG)
 ---------------------------------------------------------------------------------
 (3) ___lwdiv                                              8     4      4     904
                                              0 COMMON     8     4      4
 ---------------------------------------------------------------------------------
 (2) ___fttol                                             14    10      4     358
                                              0 COMMON    14    10      4
 ---------------------------------------------------------------------------------
 (2) ___ftneg                                              3     0      3     310
                                             26 BANK0      3     0      3
                            ___ftdiv (ARG)
                            ___ftmul (ARG)
 ---------------------------------------------------------------------------------
 (2) ___ftmul                                             16    10      6    4471
                                             10 BANK0     16    10      6
                            ___ftdiv (ARG)
                           ___ftpack
 ---------------------------------------------------------------------------------
 (2) ___ftge                                              12     6      6     984
                                              0 COMMON    12     6      6
 ---------------------------------------------------------------------------------
 (2) ___ftdiv                                             16    10      6    2835
                                              8 COMMON     6     0      6
                                              0 BANK0     10    10      0
                           ___ftpack
 ---------------------------------------------------------------------------------
 (2) ___ftadd                                             13     7      6    3157
                                             29 BANK0     13     7      6
                            ___ftdiv (ARG)
                            ___ftmul (ARG)
                            ___ftneg (ARG)
                           ___ftpack
 ---------------------------------------------------------------------------------
 (1) _initialize                                           0     0      0    7256
                          _lcd_clear
                           _lcd_init
 ---------------------------------------------------------------------------------
 (2) _lcd_init                                             2     2      0    2000
                                              8 COMMON     2     2      0
                           _lcd_send
 ---------------------------------------------------------------------------------
 (1) _indicator                                            1     1      0    8742
                                             13 COMMON     1     1      0
                         _lcd_gotoxy
                           _lcd_puts
                           _lcd_send
 ---------------------------------------------------------------------------------
 (1) _calibrate                                            2     2      0   17052
                                             13 COMMON     1     1      0
                                              7 BANK0      1     1      0
                           ___lwtoft
                          _delay10ms
                          _lcd_clear
                         _lcd_gotoxy
                           _lcd_puts
                           _lcd_send
                       _measure_freq
 ---------------------------------------------------------------------------------
 (2) _measure_freq                                        12    10      2     537
                                              4 COMMON     8     6      2
                                              0 BANK0      4     4      0
                          _delay10ms
 ---------------------------------------------------------------------------------
 (3) _delay10ms                                            4     2      2     446
                                              0 COMMON     4     2      2
 ---------------------------------------------------------------------------------
 (2) _lcd_puts                                             2     0      2    3510
                                             11 COMMON     2     0      2
                          _lcd_putch
 ---------------------------------------------------------------------------------
 (3) _lcd_putch                                            3     3      0    2988
                                              8 COMMON     3     3      0
                             ___wmul
                           _lcd_send
 ---------------------------------------------------------------------------------
 (4) ___wmul                                               6     2      4     834
                                              0 COMMON     6     2      4
 ---------------------------------------------------------------------------------
 (1) _lcd_clear                                            2     2      0    5256
                                             11 COMMON     2     2      0
                         _lcd_gotoxy
                           _lcd_send
 ---------------------------------------------------------------------------------
 (2) _lcd_gotoxy                                           3     1      2    3210
                                              8 COMMON     3     1      2
                           _lcd_send
 ---------------------------------------------------------------------------------
 (4) _lcd_send                                             2     1      1    2000
                                              6 COMMON     2     1      1
                             ___wmul (ARG)
 ---------------------------------------------------------------------------------
 (2) ___lwtoft                                             4     1      3    2047
                                             12 COMMON     1     1      0
                                              4 BANK0      3     0      3
                           ___ftpack
                       _measure_freq (ARG)
 ---------------------------------------------------------------------------------
 (3) ___ftpack                                             8     3      5    1707
                                              0 COMMON     8     3      5
 ---------------------------------------------------------------------------------
 Estimated maximum stack depth 4
 ---------------------------------------------------------------------------------

 Call Graph Graphs:

 _main (ROOT)
   _calibrate
     ___lwtoft
       ___ftpack
       _measure_freq (ARG)
         _delay10ms
     _delay10ms
     _lcd_clear
       _lcd_gotoxy
         _lcd_send
           ___wmul (ARG)
       _lcd_send
         ___wmul (ARG)
     _lcd_gotoxy
       _lcd_send
         ___wmul (ARG)
     _lcd_puts
       _lcd_putch
         ___wmul
         _lcd_send
           ___wmul (ARG)
     _lcd_send
       ___wmul (ARG)
     _measure_freq
       _delay10ms
   _delay10ms
   _indicator
     _lcd_gotoxy
       _lcd_send
         ___wmul (ARG)
     _lcd_puts
       _lcd_putch
         ___wmul
         _lcd_send
           ___wmul (ARG)
     _lcd_send
       ___wmul (ARG)
   _initialize
     _lcd_clear
       _lcd_gotoxy
         _lcd_send
           ___wmul (ARG)
       _lcd_send
         ___wmul (ARG)
     _lcd_init
       _lcd_send
         ___wmul (ARG)
   _lcd_clear
     _lcd_gotoxy
       _lcd_send
         ___wmul (ARG)
     _lcd_send
       ___wmul (ARG)
   _lcd_gotoxy
     _lcd_send
       ___wmul (ARG)
   _lcd_puts
     _lcd_putch
       ___wmul
       _lcd_send
         ___wmul (ARG)
   _lcd_send
     ___wmul (ARG)
   _measure_capacitance
     ___ftadd
       ___ftdiv (ARG)
         ___ftpack
       ___ftmul (ARG)
         ___ftdiv (ARG)
           ___ftpack
         ___ftpack (ARG)
       ___ftneg (ARG)
         ___ftdiv (ARG)
           ___ftpack
         ___ftmul (ARG)
           ___ftdiv (ARG)
             ___ftpack
           ___ftpack (ARG)
       ___ftpack (ARG)
     ___ftdiv
       ___ftpack
     ___ftge
     ___ftmul
       ___ftdiv (ARG)
         ___ftpack
       ___ftpack (ARG)
     ___ftneg
       ___ftdiv (ARG)
         ___ftpack
       ___ftmul (ARG)
         ___ftdiv (ARG)
           ___ftpack
         ___ftpack (ARG)
     ___fttol
     ___lwtoft
       ___ftpack
       _measure_freq (ARG)
         _delay10ms
     _display_reading
       ___lwdiv
       ___lwmod
         ___lwdiv (ARG)
       _display_digit
         ___lwdiv (ARG)
         ___lwmod (ARG)
           ___lwdiv (ARG)
         _lcd_gotoxy (ARG)
           _lcd_send
             ___wmul (ARG)
         _lcd_send (ARG)
           ___wmul (ARG)
       _lcd_gotoxy
         _lcd_send
           ___wmul (ARG)
       _lcd_puts
         _lcd_putch
           ___wmul
           _lcd_send
             ___wmul (ARG)
       _lcd_send
         ___wmul (ARG)
     _display_unit
       ___wmul
       _lcd_gotoxy
         _lcd_send
           ___wmul (ARG)
       _lcd_send
         ___wmul (ARG)
     _lcd_gotoxy
       _lcd_send
         ___wmul (ARG)
     _lcd_puts
       _lcd_putch
         ___wmul
         _lcd_send
           ___wmul (ARG)
     _measure_freq
       _delay10ms
   _measure_inductance
     ___ftadd
       ___ftdiv (ARG)
         ___ftpack
       ___ftmul (ARG)
         ___ftdiv (ARG)
           ___ftpack
         ___ftpack (ARG)
       ___ftneg (ARG)
         ___ftdiv (ARG)
           ___ftpack
         ___ftmul (ARG)
           ___ftdiv (ARG)
             ___ftpack
           ___ftpack (ARG)
       ___ftpack (ARG)
     ___ftdiv
       ___ftpack
     ___ftge
     ___ftmul
       ___ftdiv (ARG)
         ___ftpack
       ___ftpack (ARG)
     ___ftneg
       ___ftdiv (ARG)
         ___ftpack
       ___ftmul (ARG)
         ___ftdiv (ARG)
           ___ftpack
         ___ftpack (ARG)
     ___fttol
     ___lwtoft
       ___ftpack
       _measure_freq (ARG)
         _delay10ms
     _display_reading
       ___lwdiv
       ___lwmod
         ___lwdiv (ARG)
       _display_digit
         ___lwdiv (ARG)
         ___lwmod (ARG)
           ___lwdiv (ARG)
         _lcd_gotoxy (ARG)
           _lcd_send
             ___wmul (ARG)
         _lcd_send (ARG)
           ___wmul (ARG)
       _lcd_gotoxy
         _lcd_send
           ___wmul (ARG)
       _lcd_puts
         _lcd_putch
           ___wmul
           _lcd_send
             ___wmul (ARG)
       _lcd_send
         ___wmul (ARG)
     _display_unit
       ___wmul
       _lcd_gotoxy
         _lcd_send
           ___wmul (ARG)
       _lcd_send
         ___wmul (ARG)
     _lcd_gotoxy
       _lcd_send
         ___wmul (ARG)
     _lcd_puts
       _lcd_putch
         ___wmul
         _lcd_send
           ___wmul (ARG)
     _measure_freq
       _delay10ms

 Address spaces:
Name               Size   Autos  Total    Cost      Usage
BITCOMMON            E      0       0       0        0.0%
EEDATA             100      0       0       0        0.0%
NULL                 0      0       0       0        0.0%
CODE                 0      0       0       0        0.0%
COMMON               E      E       E       1      100.0%
BITSFR0              0      0       0       1        0.0%
SFR0                 0      0       0       1        0.0%
BITSFR1              0      0       0       2        0.0%
SFR1                 0      0       0       2        0.0%
STACK                0      0       0       2        0.0%
ABS                  0      0      60       3        0.0%
BITBANK0            50      0       0       4        0.0%
BITSFR3              0      0       0       4        0.0%
SFR3                 0      0       0       4        0.0%
BANK0               50     49      4F       5       98.8%
BITSFR2              0      0       0       5        0.0%
SFR2                 0      0       0       5        0.0%
BITBANK1            50      0       0       6        0.0%
BANK1               50      0       3       7        3.8%
BITBANK3            60      0       0       8        0.0%
BANK3               60      0       0       9        0.0%
BITBANK2            60      0       0      10        0.0%
BANK2               60      0       0      11        0.0%
DATA                 0      0      60      12        0.0%


Microchip Technology PIC Macro Assembler V1.34 build -361300703 
Symbol Table                                                                                   Tue Jul 12 08:03:24 2016

                            pc 0002                             _F1 006C                             _F2 00A0  
                           _F3 0069                             l81 1489                             fsr 0004  
          ___wmul@multiplicand 0072                   ___ftadd@exp1 0049                   ___ftadd@exp2 0048  
                 ___ftadd@sign 0047                            l122 1D9F                            l260 0228  
                          l520 1FDF                            l352 1E10                            l521 1FE7  
                          l513 1FCA                            l604 1361                            l544 00EE  
                          _RB0 0030                            _RC0 0038                            _RC1 0039  
                          _RC2 003A                            _RC3 003B                            _RC4 003C  
                          _RC5 003D                            _PS0 0408                            _PS1 0409  
                          _PS2 040A                            _PSA 040B                  ?_display_unit 0070  
                          fsr0 0004                            indf 0000     __end_ofdisplay@digits_8x16 1149  
                 __CFG_FOSC$HS 0000                    lcd_gotoxy@x 007A                    lcd_gotoxy@y 0078  
                  lcd_send@cmd 0076                   ___ftdiv@cntr 0024                   ___ftdiv@sign 0029  
                         l2016 153A                           l2008 151B                           l2032 1F1F  
                         l2050 1576                           l2028 1EF8                           l2140 1372  
                         l2108 1307                           l2134 1356                           l2126 1339  
                         l2222 02E8                           l2080 15F3                           l2072 15DB  
                         l2056 158C                           l2136 1364                           l2128 1349  
                         l2304 077D                           l2312 07B7                           l2322 11D7  
                         l1620 1E08                           l2084 1603                           l2068 15CB  
                         l2244 0496                           l2252 04D0                           l2308 079A  
                         l2340 1454                           l1702 1FA3                           l2270 0554  
                         l2334 142B                           l1704 1FAF                           l2248 04B3  
                         l2352 1484                           l1714 1FDD                           l1706 1FB4  
                         l1716 1FCF                           l2348 147A                           l1910 01FC  
                         l1648 1E27                           l1744 0036                           l1736 0012  
                         l1760 1E50                           l1680 12B5                           l1842 1F55  
                         l1922 0076                           l1738 0020                           l1762 1E5E  
                         l1770 1E77                           l1674 128F                           l1906 01C9  
                         l1940 009F                           l1748 0041                           l1950 00C5  
                         l1918 006F                           l1766 1E6C                           l1856 1F79  
                         l1960 00EA                           l1952 00C9                           l1928 0085  
                         l1698 1F9C                           l1946 00B4                           l1874 13C5  
                         l1964 0100                           l1948 00C0                           l1868 138B  
                         l1958 00DE                 ?_display_digit 0020                           l1968 0112  
                         l1978 0135                           l1994 14D6                           l1988 14C0  
                         STR_1 1195                           STR_2 1171                           STR_3 1156  
                         STR_4 117E                           STR_5 1164                           STR_6 118B  
                         STR_7 118B                           STR_8 1193                           _T0CS 040D  
                         u2005 1E53                           u2025 1E64                           u2035 1E6D  
                         _T0SE 040C                           u2075 1F70                           u2315 00CA  
                         u3037 1E83                           u3047 1EA0                           u2255 00A0  
                         u2511 1F12                           u2512 1F13                           u3057 1DA3  
                         u2345 00DF                           u2425 14E8                           u2513 1F18  
                         u2514 1F19                           u1635 1E11                           u2435 14FA  
                         u1645 1E18                           u2285 00B5                           u2445 151C  
                         u2605 15E4                           u2455 152D                           u1905 1FEE  
                         u1825 1FA8                           u2465 153B                           u2491 1EEB  
                         u2555 1598                           u1755 1294                           u2492 1EEC  
                         u1845 1FC3                           u2493 1EF1                           u2645 1604  
                         u2565 15AA                           u2725 133A                           u2494 1EF2  
                         u2655 160C                           u1935 0015                           u1865 1FD6  
                         u1785 12D1                           u2905 1452                           u2595 15DC  
                         u2755 1358                           u1955 0021                           u1965 002D  
                         u2695 130E                           u1975 0037                           u2895 1429  
                         _TMR0 0001        __end_of_display_reading 029E                           _main 140E  
                 ___ftpack@arg 0070                   ___ftpack@exp 0073                           btemp 007E  
                         ltemp 007E     __end_of_measure_inductance 07F1                           start 0000  
                         ttemp 007E                           wtemp 007E                   ___ftmul@cntr 0038  
                 ___ftmul@sign 0039                   ___fttol@exp1 007D                   ___fttol@lval 0079  
                        ?_main 0070                __end_of___ftadd 014F                 ??_display_unit 0020  
                __CFG_WDTE$OFF 0000                __end_of___ftdiv 155E                          _CMCON 009C  
              __end_of___ftneg 1D8E                __end_of___ftmul 1631                __end_of___fttol 137B  
              __end_of___lwdiv 0046                __end_of___lwmod 1E7C                          _TRISA 0085  
                        _TRISC 0087                  __CFG_PWRTE$ON 0000                          _nRBPU 040F  
                 display@units 0EE9                  ___ftpack@sign 0074                          main@i 0067  
                        _units 0DC9                          pclath 000A                          ltemp0 007E  
                        ltemp1 0082                          ltemp2 0086                          ltemp3 0080  
                        ttemp0 007E                          ttemp1 0081                          ttemp2 0084  
                        ttemp3 0087                          ttemp4 007F                          status 0003  
                        wtemp0 007E                          wtemp1 0080                          wtemp2 0082  
                        wtemp3 0084                          wtemp4 0086                          wtemp5 0088  
                        wtemp6 007F                __initialization 07F1                   __end_of_main 14A8  
                ?_measure_freq 0074                         ??_main 007E                  ___fttol@sign1 0078  
              ??_display_digit 0022               __end_of___ftpack 2000               __end_of___lwtoft 1DCB  
             ?_display_reading 0026                         _TMR0IF 005A                         _TRISB0 0430  
                       _TRISC0 0438                         _TRISA4 042C               __end_of_lcd_font 0DC9  
             __end_of_lcd_init 1ED1               __end_of_lcd_send 1269               __end_of_lcd_puts 1E4A  
                       ___ftge 1ED1                         ___wmul 1E06                      ??___ftadd 0043  
                    ??___ftdiv 0020                      ??___ftneg 007E                      ??___ftmul 0030  
                    ??___fttol 0074                 ??_measure_freq 0076                      ??___lwdiv 0074  
                    ??___lwmod 007C          ___ftmul@f3_as_product 0035     measure_freq@prescaler_cntr 0022  
                display_unit@i 007C        __end_of__initialization 07FC              display@logo_image 0A0A  
                   ___ftadd@f1 003D                     ___ftadd@f2 0040                     ___ftge@ff1 0070  
                   ___ftge@ff2 0073           __end_of_display_unit 140E                     ___ftdiv@f1 007B  
                   ___ftdiv@f2 0078                     ___ftdiv@f3 0025                     ___ftneg@f1 003A  
       measure_capacitance@Cin 005B                     ___ftmul@f1 002A                     ___ftmul@f2 002D  
 __size_of_measure_capacitance 026C         measure_capacitance@var 0059                     ___fttol@f1 0070  
               __pcstackCOMMON 0070             __size_of_calibrate 00E1             __size_of_delay10ms 0014  
                __end_of_units 0EE9                     ___lwtoft@c 0024             __size_of_lcd_clear 0021  
           __size_of_lcd_putch 00EE      __end_ofdisplay@logo_image 0C02                     __pbssBANK0 0069  
                   __pbssBANK1 00A0                     _bat_symbol 1149             __size_of_indicator 0047  
           display@digits_8x16 10A9                     __pmaintext 140E                        ?___ftge 0070  
                      ?___wmul 0070                      ?___ftpack 0070     display_reading@measurement 0026  
           _measure_inductance 050A             display_digit@digit 0021                      ?___lwtoft 0024  
                   _lcd_gotoxy 1D8E            ?_measure_inductance 0070              __end_of_calibrate 1712  
                    ?_lcd_init 0070                      ?_lcd_send 0076              __end_of_delay10ms 1DB3  
                    ?_lcd_puts 007B                     __stringtab 0800           __end_of_measure_freq 1F94  
                   calibrate@i 0027           ??_measure_inductance 007E              __end_of_lcd_clear 1E06  
              __size_of___ftge 005D              __end_of_lcd_putch 1800                        ___ftadd 0046  
                      ___ftdiv 14A8                        ___ftneg 1D84                __size_of___wmul 0021  
                      ___ftmul 155E                        ___fttol 12EF                        ___lwdiv 000A  
                      ___lwmod 1E4A                     ??___ftpack 0075              __end_of_indicator 11E9  
                   _initialize 1DCB                        __ptext1 050A                        __ptext2 029E  
                      __ptext3 137B                        __ptext4 014F                        __ptext5 1269  
                      __ptext6 1E4A                        __ptext7 000A                        __ptext8 12EF  
                      __ptext9 1D84                     ??___lwtoft 007C                     _logo_image 0812  
                   ??_lcd_init 0078                     ??_lcd_send 0077                     ??_lcd_puts 007D  
        __size_of_display_unit 0093           end_of_initialization 07FC                 display_digit@i 0025  
measure_inductance@denominator 004D                   __pstringtext 0800                   _display_unit 137B  
          _measure_capacitance 029E                    ?_lcd_gotoxy 0078                     lcd_clear@i 007B  
        __end_of_display_digit 12EF                    ___ftdiv@exp 0028                     lcd_putch@c 007A  
         ?_measure_capacitance 0070                    ___ftmul@exp 0034       __size_of_display_reading 014F  
               __end_of___ftge 1F2E                 __end_of___wmul 1E27                    ?_initialize 0070  
          start_initialization 07F1          __size_of_measure_freq 0066            __end_of_digits_8x16 10A9  
          measure_freq@oldTMR0 0020          ??_measure_capacitance 007E                       ??___ftge 0076  
          __size_of_lcd_gotoxy 0011                       ??___wmul 0074                   _measure_freq 1F2E  
       _measure_inductance$624 0050         _measure_inductance$625 0059         _measure_inductance$626 005C  
       _measure_inductance$627 005F         _measure_inductance$628 0053         _measure_inductance$629 0056  
            __size_of___ftpack 006C                      ___latbits 0002              __size_of___lwtoft 0018  
                __pcstackBANK0 0020              __size_of_lcd_init 0055              __size_of_lcd_send 0080  
                    _calibrate 1631              __size_of_lcd_puts 0023            __size_of_initialize 001A  
                    _delay10ms 1D9F               ___lwdiv@dividend 0072                       ?___ftadd 003D  
                     ?___ftdiv 0078                       ?___ftneg 003A                       ?___ftmul 002A  
                     ?___fttol 0070                       ?___lwdiv 0070                       ?___lwmod 0078  
            display_digit@line 0024                      _lcd_clear 1DE5                    _digits_8x16 1009  
                    _lcd_putch 1712              ??_display_reading 0028                      _indicator 11A2  
             ___lwdiv@quotient 0075            display_digit@column 0020                     ?_calibrate 0070  
               ___wmul@product 0074                     ?_delay10ms 0070    __size_of_measure_inductance 02E7  
            indicator@indicate 007D                     ?_lcd_clear 0070                     ?_lcd_putch 0070  
                  __stringbase 0812              ___wmul@multiplier 0070             __end_of_bat_symbol 1156  
                    lcd_send@a 0077                     ?_indicator 0070                      lcd_puts@s 007B  
                 ??_lcd_gotoxy 007A          measure_inductance@Lin 0064          measure_inductance@var 0062  
           __end_of_lcd_gotoxy 1D9F               __size_of___ftadd 0109               __size_of___ftdiv 00B6  
             __size_of___ftneg 000A               __size_of___ftmul 00D3               __size_of___fttol 008C  
             __size_of___lwdiv 003C               __size_of___lwmod 0032                   ??_initialize 007D  
                     ___ftpack 1F94             __end_of__stringtab 0812                       ___lwtoft 1DB3  
              ___lwdiv@divisor 0070                ___lwdiv@counter 0077                       __ptext10 155E  
                     __ptext11 1ED1                       __ptext20 1E27                       __ptext12 14A8  
                     __ptext21 1712                       __ptext13 0046                       __ptext22 1E06  
                     __ptext14 1DCB                       __ptext23 1DE5                       __ptext15 1E7C  
                     __ptext24 1D8E                       __ptext16 11A2                       __ptext25 11E9  
                     __ptext17 1631                       __ptext26 1DB3                       __ptext18 1F2E  
                     __ptext27 1F94                       __ptext19 1D9F                       _lcd_font 0C02  
                     _lcd_init 1E7C                       _lcd_send 11E9                       _lcd_puts 1E27  
                  ??_calibrate 007D                  __size_of_main 009A                    ??_delay10ms 0072  
           __end_of_initialize 1DE5           __end_ofdisplay@units 1009             __end_of_logo_image 0A0A  
                  ??_lcd_clear 007B         __size_of_display_digit 0086                    ??_lcd_putch 0078  
  measure_inductance@numerator 004A                    ??_indicator 007D    __end_of_measure_capacitance 050A  
             ___lwmod@dividend 007A               display_unit@unit 007B                      stringcode 080A  
              _display_reading 014F           delay10ms@period_10ms 0070                ___lwmod@divisor 0078  
              ___lwmod@counter 007D                       stringtab 0800        _measure_capacitance$620 004D  
      _measure_capacitance$621 0050        _measure_capacitance$622 0053        _measure_capacitance$623 0056  
      _measure_capacitance$619 004A                  _display_digit 1269  
