gpasm-1.5.0 #1285 (Jul 12 2020) obj/sdcc-18f2   11/12/23  13:12:40          PAGE  1


LOC    OBJECT CODE    LINE  SOURCE TEXT
  VALUE

                      00001 ;--------------------------------------------------------
                      00002 ; File Created by SDCC : free open source ANSI-C Compiler
                      00003 ; Version 4.2.0 #13081 (Linux)
                      00004 ;--------------------------------------------------------
                      00005 ; PIC16 port for the Microchip 16-bit core micros
                      00006 ;--------------------------------------------------------
                      00007         list    p=18f25k22
                      00008         radix   dec
                      00009 
                      00010 
                      00011 ;--------------------------------------------------------
                      00012 ; public variables in this module
                      00013 ;--------------------------------------------------------
  0000                00014         global  _delay_us
  0000                00015         global  _delay_ms
                      00016 
                      00017 ;--------------------------------------------------------
                      00018 ; extern variables in this module
                      00019 ;--------------------------------------------------------
  0000                00020         extern  _dvar
                      00021 
                      00022 ;--------------------------------------------------------
                      00023 ;       Equates to used internal registers
                      00024 ;--------------------------------------------------------
  00000FD8            00025 STATUS  equ     0xfd8
  00000FE1            00026 FSR1L   equ     0xfe1
  00000FD9            00027 FSR2L   equ     0xfd9
  00000FE5            00028 POSTDEC1        equ     0xfe5
  00000FE4            00029 PREINC1 equ     0xfe4
  00000FDB            00030 PLUSW2  equ     0xfdb
                      00031 
                      00032 
                      00033 ; Internal registers
                      00034 .registers      udata_ovr       0x0000
000000                00035 r0x00   res     1
000001                00036 r0x01   res     1
000002                00037 r0x02   res     1
000003                00038 r0x03   res     1
                      00039 
                      00040 ;--------------------------------------------------------
                      00041 ; global & static initialisations
                      00042 ;--------------------------------------------------------
                      00043 ; I code from now on!
                      00044 ; ; Starting pCode block
                      00045 S_delay__delay_ms       code
000000                00046 _delay_ms:
                      00047 ;       .line   11; lib/delay.c delay_ms(unsigned int x) {
000000 CFD9 FFE5      00048         MOVFF   FSR2L, POSTDEC1
000004 CFE1 FFD9      00049         MOVFF   FSR1L, FSR2L
000008 C??? F???      00050         MOVFF   r0x00, POSTDEC1
00000C C??? F???      00051         MOVFF   r0x01, POSTDEC1
000010 C??? F???      00052         MOVFF   r0x02, POSTDEC1
000014 C??? F???      00053         MOVFF   r0x03, POSTDEC1
gpasm-1.5.0 #1285 (Jul 12 2020) obj/sdcc-18f2   11/12/23  13:12:40          PAGE  2


LOC    OBJECT CODE    LINE  SOURCE TEXT
  VALUE

000018 0E02           00054         MOVLW   0x02
00001A CFDB F000      00055         MOVFF   PLUSW2, r0x00
00001E 0E03           00056         MOVLW   0x03
000020 CFDB F000      00057         MOVFF   PLUSW2, r0x01
                      00058 ;       .line   12; lib/delay.c unsigned char i = 255;
000024 0EFF           00059         MOVLW   0xff
000026 6E??           00060         MOVWF   r0x02
000028                00061 _00130_DS_:
                      00062 ;       .line   13; lib/delay.c for(x; x > 0; x--) {
000028 50??           00063         MOVF    r0x00, W
00002A 10??           00064         IORWF   r0x01, W
00002C E0??           00065         BZ      _00132_DS_
                      00066 ;       .line   14; lib/delay.c while(i > 0) i--;
00002E C??? F???      00067         MOVFF   r0x02, r0x03
000032                00068 _00113_DS_:
000032 50??           00069         MOVF    r0x03, W
000034 E0??           00070         BZ      _00115_DS_
000036 06??           00071         DECF    r0x03, F
000038 D???           00072         BRA     _00113_DS_
00003A                00073 _00115_DS_:
                      00074 ;       .line   16; lib/delay.c while(i > 0) i--;
00003A 0EFF           00075         MOVLW   0xff
00003C 6E??           00076         MOVWF   r0x03
00003E                00077 _00116_DS_:
00003E 50??           00078         MOVF    r0x03, W
000040 E0??           00079         BZ      _00118_DS_
000042 06??           00080         DECF    r0x03, F
000044 D???           00081         BRA     _00116_DS_
000046                00082 _00118_DS_:
                      00083 ;       .line   18; lib/delay.c while(i > 0) i--;
000046 0EFF           00084         MOVLW   0xff
000048 6E??           00085         MOVWF   r0x03
00004A                00086 _00119_DS_:
00004A 50??           00087         MOVF    r0x03, W
00004C E0??           00088         BZ      _00121_DS_
00004E 06??           00089         DECF    r0x03, F
000050 D???           00090         BRA     _00119_DS_
000052                00091 _00121_DS_:
                      00092 ;       .line   20; lib/delay.c while(i > 0) i--;
000052 0EFF           00093         MOVLW   0xff
000054 6E??           00094         MOVWF   r0x03
000056                00095 _00122_DS_:
000056 50??           00096         MOVF    r0x03, W
000058 E0??           00097         BZ      _00124_DS_
00005A 06??           00098         DECF    r0x03, F
00005C D???           00099         BRA     _00122_DS_
00005E                00100 _00124_DS_:
                      00101 ;       .line   22; lib/delay.c while(i > 0) i--;
00005E 0E32           00102         MOVLW   0x32
000060 6E??           00103         MOVWF   r0x03
000062                00104 _00125_DS_:
000062 50??           00105         MOVF    r0x03, W
000064 E0??           00106         BZ      _00152_DS_
gpasm-1.5.0 #1285 (Jul 12 2020) obj/sdcc-18f2   11/12/23  13:12:40          PAGE  3


LOC    OBJECT CODE    LINE  SOURCE TEXT
  VALUE

000066 06??           00107         DECF    r0x03, F
000068 D???           00108         BRA     _00125_DS_
00006A                00109 _00152_DS_:
00006A C??? F???      00110         MOVFF   r0x03, r0x02
                      00111 ;       .line   13; lib/delay.c for(x; x > 0; x--) {
00006E 0EFF           00112         MOVLW   0xff
000070 26??           00113         ADDWF   r0x00, F
000072 22??           00114         ADDWFC  r0x01, F
000074 D???           00115         BRA     _00130_DS_
000076                00116 _00132_DS_:
                      00117 ;       .line   24; lib/delay.c }
000076 CFE4 F000      00118         MOVFF   PREINC1, r0x03
00007A CFE4 F000      00119         MOVFF   PREINC1, r0x02
00007E CFE4 F000      00120         MOVFF   PREINC1, r0x01
000082 CFE4 F000      00121         MOVFF   PREINC1, r0x00
000086 CFE4 FFD9      00122         MOVFF   PREINC1, FSR2L
00008A 0012           00123         RETURN  
                      00124 
                      00125 ; ; Starting pCode block
                      00126 S_delay__delay_us       code
000000                00127 _delay_us:
                      00128 ;       .line   5; lib/delay.c  delay_us(unsigned char x) {
000000 CFD9 FFE5      00129         MOVFF   FSR2L, POSTDEC1
000004 CFE1 FFD9      00130         MOVFF   FSR1L, FSR2L
000008 C??? F???      00131         MOVFF   r0x00, POSTDEC1
00000C 0E02           00132         MOVLW   0x02
00000E CFDB F000      00133         MOVFF   PLUSW2, r0x00
000012                00134 _00105_DS_:
                      00135 ;       .line   6; lib/delay.c  while(x > 0) x--;
000012 50??           00136         MOVF    r0x00, W
000014 E0??           00137         BZ      _00107_DS_
000016 06??           00138         DECF    r0x00, F
000018 D???           00139         BRA     _00105_DS_
00001A                00140 _00107_DS_:
00001A 0000           00141         nop     
                      00142 ;       .line   8; lib/delay.c  }
00001C CFE4 F000      00143         MOVFF   PREINC1, r0x00
000020 CFE4 FFD9      00144         MOVFF   PREINC1, FSR2L
000024 0012           00145         RETURN  
                      00146 
                      00147 
                      00148 
                      00149 ; Statistics:
                      00150 ; code size:      178 (0x00b2) bytes ( 0.14%)
                      00151 ;                  89 (0x0059) words
                      00152 ; udata size:       0 (0x0000) bytes ( 0.00%)
                      00153 ; access size:      4 (0x0004) bytes
                      00154 
                      00155 
                      00156         end
gpasm-1.5.0 #1285 (Jul 12 2020) obj/sdcc-18f2   11/12/23  13:12:40          PAGE  4


SYMBOL TABLE
  LABEL                              TYPE        VALUE         VALUE          VALUE
                                                 (hex)         (dec)          (text)

FSR1L                             CONSTANT      00000FE1           4065
FSR2L                             CONSTANT      00000FD9           4057
PLUSW2                            CONSTANT      00000FDB           4059
POSTDEC1                          CONSTANT      00000FE5           4069
PREINC1                           CONSTANT      00000FE4           4068
STATUS                            CONSTANT      00000FD8           4056
_00105_DS_                        ADDRESS       00000012             18
_00107_DS_                        ADDRESS       0000001A             26
_00113_DS_                        ADDRESS       00000032             50
_00115_DS_                        ADDRESS       0000003A             58
_00116_DS_                        ADDRESS       0000003E             62
_00118_DS_                        ADDRESS       00000046             70
_00119_DS_                        ADDRESS       0000004A             74
_00121_DS_                        ADDRESS       00000052             82
_00122_DS_                        ADDRESS       00000056             86
_00124_DS_                        ADDRESS       0000005E             94
_00125_DS_                        ADDRESS       00000062             98
_00130_DS_                        ADDRESS       00000028             40
_00132_DS_                        ADDRESS       00000076            118
_00152_DS_                        ADDRESS       0000006A            106
__ACC_RAM_LOW_END                 CONSTANT      0000005F             95
__ACC_RAM_LOW_START               CONSTANT      00000000              0
__ACTIVE_BANK_ADDR                VARIABLE      FFFFFFFF             -1
__ASSUMED_BANK_ADDR               VARIABLE      FFFFFFFF             -1
__BANK_0                          CONSTANT      00000000              0
__BANK_BITS                       CONSTANT      00000F00           3840
__BANK_FIRST                      CONSTANT      00000000              0
__BANK_INV                        CONSTANT      FFFFFFFF             -1
__BANK_LAST                       CONSTANT      00000F00           3840
__BANK_MASK                       CONSTANT      000000FF            255
__BANK_SHIFT                      CONSTANT      00000008              8
__BANK_SIZE                       CONSTANT      00000100            256
__BANK_1                          CONSTANT      00000100            256
__BANK_2                          CONSTANT      00000200            512
__BANK_3                          CONSTANT      00000300            768
__BANK_4                          CONSTANT      00000400           1024
__BANK_5                          CONSTANT      00000500           1280
__BANK_6                          CONSTANT      00000600           1536
__BANK_7                          CONSTANT      00000700           1792
__BANK_8                          CONSTANT      00000800           2048
__BANK_9                          CONSTANT      00000900           2304
__BANK_10                         CONSTANT      00000A00           2560
__BANK_11                         CONSTANT      00000B00           2816
__BANK_12                         CONSTANT      00000C00           3072
__BANK_13                         CONSTANT      00000D00           3328
__BANK_14                         CONSTANT      00000E00           3584
__BANK_15                         CONSTANT      00000F00           3840
__CODE_END                        CONSTANT      00007FFF          32767
__CODE_START                      CONSTANT      00000000              0
__COMMON_RAM_END                  CONSTANT      0000005F             95
__COMMON_RAM_START                CONSTANT      00000000              0
__CONFIG_END                      CONSTANT      0030000D        3145741
gpasm-1.5.0 #1285 (Jul 12 2020) obj/sdcc-18f2   11/12/23  13:12:40          PAGE  5


SYMBOL TABLE
  LABEL                              TYPE        VALUE         VALUE          VALUE
                                                 (hex)         (dec)          (text)

__CONFIG_START                    CONSTANT      00300000        3145728
__EEPROM_END                      CONSTANT      00F000FF       15728895
__EEPROM_START                    CONSTANT      00F00000       15728640
__EXTENDED                        CONSTANT      00000001              1
__GPUTILS_SVN_VERSION             CONSTANT      00000505           1285
__GPUTILS_VERSION_MAJOR           CONSTANT      00000001              1
__GPUTILS_VERSION_MICRO           CONSTANT      00000000              0
__GPUTILS_VERSION_MINOR           CONSTANT      00000005              5
__IDLOCS_END                      CONSTANT      00200007        2097159
__IDLOCS_START                    CONSTANT      00200000        2097152
__NUM_BANKS                       CONSTANT      00000010             16
__VECTOR_INT_HIGH                 CONSTANT      00000008              8
__VECTOR_INT_LOW                  CONSTANT      00000018             24
__VECTOR_RESET                    CONSTANT      00000000              0
__WHILE_LOOP_COUNT_MAX            CONSTANT      000000FF            255
__16_BIT                          CONSTANT      00000001              1
__18F25K22                        CONSTANT      00000001              1
_delay_ms                         GLOBAL        00000000              0
_delay_us                         GLOBAL        00000000              0
_dvar                             EXTERNAL      00000000              0
r0x00                             STATIC        00000000              0
r0x01                             STATIC        00000001              1
r0x02                             STATIC        00000002              2
r0x03                             STATIC        00000003              3

Errors   :     0
Warnings :     0 reported,     0 suppressed
Messages :     0 reported,     0 suppressed

