

HI-TECH Software LITE Macro Assembler (PIC18) V9.66 build 8870 
                                                       Mon Sep 02 21:49:38 2019

HI-TECH Software Omniscient Code Generator build 8870
     1  000000                     opt subtitle "HI-TECH Software Omniscient Code G
                                 enerator build 8870"
     2                           
     3                           	processor	18F2520
     4  000000                     porta	equ	0F80h
     5  000000                     portb	equ	0F81h
     6  000000                     portc	equ	0F82h
     7  000000                     portd	equ	0F83h
     8  000000                     porte	equ	0F84h
     9  000000                     lata	equ	0F89h
    10  000000                     latb	equ	0F8Ah
    11  000000                     latc	equ	0F8Bh
    12  000000                     latd	equ	0F8Ch
    13  000000                     late	equ	0F8Dh
    14  000000                     trisa	equ	0F92h
    15  000000                     trisb	equ	0F93h
    16  000000                     trisc	equ	0F94h
    17  000000                     trisd	equ	0F95h
    18  000000                     trise	equ	0F96h
    19  000000                     pie1	equ	0F9Dh
    20  000000                     pir1	equ	0F9Eh
    21  000000                     ipr1	equ	0F9Fh
    22  000000                     pie2	equ	0FA0h
    23  000000                     pir2	equ	0FA1h
    24  000000                     ipr2	equ	0FA2h
    25  000000                     t3con	equ	0FB1h
    26  000000                     tmr3l	equ	0FB2h
    27  000000                     tmr3h	equ	0FB3h
    28  000000                     ccp1con	equ	0FBDh
    29  000000                     ccpr1l	equ	0FBEh
    30  000000                     ccpr1h	equ	0FBFh
    31  000000                     adcon1	equ	0FC1h
    32  000000                     adcon0	equ	0FC2h
    33  000000                     adresl	equ	0FC3h
    34  000000                     adresh	equ	0FC4h
    35  000000                     sspcon2	equ	0FC5h
    36  000000                     sspcon1	equ	0FC6h
    37  000000                     sspstat	equ	0FC7h
    38  000000                     sspadd	equ	0FC8h
    39  000000                     sspbuf	equ	0FC9h
    40  000000                     t2con	equ	0FCAh
    41  000000                     pr2	equ	0FCBh
    42  000000                     tmr2	equ	0FCCh
    43  000000                     t1con	equ	0FCDh
    44  000000                     tmr1l	equ	0FCEh
    45  000000                     tmr1h	equ	0FCFh
    46  000000                     rcon	equ	0FD0h
    47  000000                     wdtcon	equ	0FD1h
    48  000000                     lvdcon	equ	0FD2h
    49  000000                     osccon	equ	0FD3h
    50  000000                     t0con	equ	0FD5h
    51  000000                     tmr0l	equ	0FD6h
    52  000000                     tmr0h	equ	0FD7h
    53  000000                     status	equ	0FD8h
    54  000000                     fsr2	equ	0FD9h
    55  000000                     fsr2l	equ	0FD9h
    56  000000                     fsr2h	equ	0FDAh
    57  000000                     plusw2	equ	0FDBh
    58  000000                     preinc2	equ	0FDCh
    59  000000                     postdec2	equ	0FDDh
    60  000000                     postinc2	equ	0FDEh
    61  000000                     indf2	equ	0FDFh
    62  000000                     bsr	equ	0FE0h
    63  000000                     fsr1	equ	0FE1h
    64  000000                     fsr1l	equ	0FE1h
    65  000000                     fsr1h	equ	0FE2h
    66  000000                     plusw1	equ	0FE3h
    67  000000                     preinc1	equ	0FE4h
    68  000000                     postdec1	equ	0FE5h
    69  000000                     postinc1	equ	0FE6h
    70  000000                     indf1	equ	0FE7h
    71  000000                     wreg	equ	0FE8h
    72  000000                     fsr0	equ	0FE9h
    73  000000                     fsr0l	equ	0FE9h
    74  000000                     fsr0h	equ	0FEAh
    75  000000                     plusw0	equ	0FEBh
    76  000000                     preinc0	equ	0FECh
    77  000000                     postdec0	equ	0FEDh
    78  000000                     postinc0	equ	0FEEh
    79  000000                     indf0	equ	0FEFh
    80  000000                     intcon3	equ	0FF0h
    81  000000                     intcon2	equ	0FF1h
    82  000000                     intcon	equ	0FF2h
    83  000000                     prod	equ	0FF3h
    84  000000                     prodl	equ	0FF3h
    85  000000                     prodh	equ	0FF4h
    86  000000                     tablat	equ	0FF5h
    87  000000                     tblptr	equ	0FF6h
    88  000000                     tblptrl	equ	0FF6h
    89  000000                     tblptrh	equ	0FF7h
    90  000000                     tblptru	equ	0FF8h
    91  000000                     pcl	equ	0FF9h
    92  000000                     pclat	equ	0FFAh
    93  000000                     pclath	equ	0FFAh
    94  000000                     pclatu	equ	0FFBh
    95  000000                     stkptr	equ	0FFCh
    96  000000                     tosl	equ	0FFDh
    97  000000                     tosh	equ	0FFEh
    98  000000                     tosu	equ	0FFFh
    99                           	global	__ramtop
   100                           	global	__accesstop
   101                           	GLOBAL	__activetblptr
   102  000000                     __activetblptr	EQU	2
   103                           	GLOBAL	__smallconst,__Lsmallconst
   104  000000                     __smallconst	EQU	__Lsmallconst
   105                           	GLOBAL	__mediumconst,__Lmediumconst
   106  000000                     __mediumconst	EQU	__Lmediumconst
   107                           	GLOBAL	__Ldata
   108  000000                     __Ldata	EQU	37
   109                           	FNALIGN	_output_putch,_format_putchar
   110  000000                     _measure_capacitance$1184	equ	??_measure_capacit
                                 ance+0
   111                           	global	_measure_capacitance$1184
   112  000000                     measure_capacitance@unit	equ	??_measure_capacita
                                 nce+3
   113                           	global	measure_capacitance@unit
   114  000000                     measure_capacitance@var	equ	??_measure_capacitan
                                 ce+4
   115                           	global	measure_capacitance@var
   116  000000                     measure_capacitance@Cin	equ	??_measure_capacitan
                                 ce+6
   117                           	global	measure_capacitance@Cin
   118  000000                     _measure_inductance$1203	equ	??_measure_inductan
                                 ce+0
   119                           	global	_measure_inductance$1203
   120  000000                     _measure_inductance$1204	equ	??_measure_inductan
                                 ce+3
   121                           	global	_measure_inductance$1204
   122  000000                     _measure_inductance$1205	equ	??_measure_inductan
                                 ce+6
   123                           	global	_measure_inductance$1205
   124  000000                     _measure_inductance$1206	equ	??_measure_inductan
                                 ce+9
   125                           	global	_measure_inductance$1206
   126  000000                     measure_inductance@unit	equ	??_measure_inductanc
                                 e+12
   127                           	global	measure_inductance@unit
   128  000000                     measure_inductance@var	equ	??_measure_inductance
                                 +13
   129                           	global	measure_inductance@var
   130  000000                     measure_inductance@denominator	equ	??_measure_in
                                 ductance+15
   131                           	global	measure_inductance@denominator
   132  000000                     measure_inductance@numerator	equ	??_measure_indu
                                 ctance+18
   133                           	global	measure_inductance@numerator
   134  000000                     measure_inductance@Lin	equ	??_measure_inductance
                                 +21
   135                           	global	measure_inductance@Lin
   136  000000                     indicator@indicate	equ	?_indicator+0
   137                           	global	indicator@indicate
   138  000000                     ___ftdiv@exp2	equ	??___ftdiv+0
   139                           	global	___ftdiv@exp2
   140  000000                     ___ftdiv@sign1	equ	??___ftdiv+1
   141                           	global	___ftdiv@sign1
   142  000000                     ___ftdiv@exp1	equ	??___ftdiv+2
   143                           	global	___ftdiv@exp1
   144  000000                     ___ftdiv@sign2	equ	??___ftdiv+3
   145                           	global	___ftdiv@sign2
   146  000000                     ___ftdiv@f3	equ	??___ftdiv+4
   147                           	global	___ftdiv@f3
   148  000000                     ___ftdiv@f1	equ	?___ftdiv+0
   149                           	global	___ftdiv@f1
   150  000000                     ___ftdiv@f2	equ	?___ftdiv+3
   151                           	global	___ftdiv@f2
   152  000000                     ___ftsub@f1	equ	?___ftsub+0
   153                           	global	___ftsub@f1
   154  000000                     ___ftsub@f2	equ	?___ftsub+3
   155                           	global	___ftsub@f2
   156  000000                     delay10ms@run	equ	??_delay10ms+0
   157                           	global	delay10ms@run
   158  000000                     delay10ms@ms	equ	??_delay10ms+1
   159                           	global	delay10ms@ms
   160  000000                     delay10ms@period_10ms	equ	?_delay10ms+0
   161                           	global	delay10ms@period_10ms
   162  000000                     print_reading@measurement	equ	?_print_reading+0
   163                           	global	print_reading@measurement
   164  000000                     ___fttol@sign1	equ	??___fttol+0
   165                           	global	___fttol@sign1
   166  000000                     ___fttol@exp1	equ	??___fttol+1
   167                           	global	___fttol@exp1
   168  000000                     ___fttol@lval	equ	??___fttol+2
   169                           	global	___fttol@lval
   170  000000                     ___fttol@f1	equ	?___fttol+0
   171                           	global	___fttol@f1
   172  000000                     print_unit@unit	equ	?_print_unit+0
   173                           	global	print_unit@unit
   174  000000                     ___ftmul@sign1	equ	??___ftmul+0
   175                           	global	___ftmul@sign1
   176  000000                     ___ftmul@exp1	equ	??___ftmul+1
   177                           	global	___ftmul@exp1
   178  000000                     ___ftmul@cntr	equ	??___ftmul+2
   179                           	global	___ftmul@cntr
   180  000000                     ___ftmul@f3	equ	??___ftmul+3
   181                           	global	___ftmul@f3
   182  000000                     ___ftmul@f1	equ	?___ftmul+0
   183                           	global	___ftmul@f1
   184  000000                     ___ftmul@f2	equ	?___ftmul+3
   185                           	global	___ftmul@f2
   186  000000                     ___lwtoft@f1	equ	??___lwtoft+0
   187                           	global	___lwtoft@f1
   188  000000                     ___lwtoft@c	equ	?___lwtoft+0
   189                           	global	___lwtoft@c
   190  000000                     measure_freq@prev	equ	??_measure_freq+0
   191                           	global	measure_freq@prev
   192  000000                     measure_freq@count	equ	??_measure_freq+1
   193                           	global	measure_freq@count
   194  000000                     measure_freq@i	equ	??_measure_freq+3
   195                           	global	measure_freq@i
   196  000000                     ___ftge@ff1	equ	?___ftge+0
   197                           	global	___ftge@ff1
   198  000000                     ___ftge@ff2	equ	?___ftge+3
   199                           	global	___ftge@ff2
   200  000000                     ___ftadd@sign2	equ	??___ftadd+0
   201                           	global	___ftadd@sign2
   202  000000                     ___ftadd@cntr	equ	??___ftadd+1
   203                           	global	___ftadd@cntr
   204  000000                     ___ftadd@sign1	equ	??___ftadd+2
   205                           	global	___ftadd@sign1
   206  000000                     ___ftadd@exp2	equ	??___ftadd+3
   207                           	global	___ftadd@exp2
   208  000000                     ___ftadd@exp1	equ	??___ftadd+4
   209                           	global	___ftadd@exp1
   210  000000                     ___ftadd@f1	equ	?___ftadd+0
   211                           	global	___ftadd@f1
   212  000000                     ___ftadd@f2	equ	?___ftadd+3
   213                           	global	___ftadd@f2
   214  000000                     ___wmul@product	equ	??___wmul+0
   215                           	global	___wmul@product
   216  000000                     ___wmul@multiplier	equ	?___wmul+0
   217                           	global	___wmul@multiplier
   218  000000                     ___wmul@multiplicand	equ	?___wmul+2
   219                           	global	___wmul@multiplicand
   220  000000                     ___ftpack@arg	equ	?___ftpack+0
   221                           	global	___ftpack@arg
   222  000000                     ___ftpack@exp	equ	?___ftpack+2
   223                           	global	___ftpack@exp
   224  000000                     ___ftunpack@sign	equ	??___ftunpack+0
   225                           	global	___ftunpack@sign
   226  000000                     ___ftunpack@arg	equ	?___ftunpack+0
   227                           	global	___ftunpack@arg
   228  000000                     ___ftunpack@exp	equ	?___ftunpack+2
   229                           	global	___ftunpack@exp
   230                           ;Data sizes: Strings 6, constant 57, data 2, bss
                                  0, persistent 0 stack 66
   231                           	global	_main
   232                           	global	??_main
   233                           	global	?_main
   234                           
   235                           ; *************** function _main ***************
                                 **
   236                           ; Defined at:
   237                           ;		line 115 in file "../../../src/LC-meter.c"
   238                           ; Parameters:
   239                           ;		None
   240                           ; Auto variables:
   241                           ;		None
   242                           ; Return value:
   243                           ;		type: void 
   244                           ;		size: 0
   245                           ; Registers used:
   246                           ;		wreg, fsr0l, fsr0h, fsr1l, fsr1h, fsr2l, fsr2
                                 h, status,2, status,0, pclat, tosl, structret, t
                                 blptrl, tblptrh, tblptru, tablat, prodl, prodh, 
                                 bsr, cstack
   247                           ; Tracked objects:
   248                           ;		On entry : 0/0
   249                           ;		On exit  : 0/0
   250                           ;		Unchanged: 0/0
   251                           ; Data sizes:
   252                           ;		Autos:    0
   253                           ;		Params:   0
   254                           ;		Temp:     1
   255                           ;		Total:    1
   256                           ; This function calls:
   257                           ;		_timer2_init
   258                           ;		_delay10ms
   259                           ;		_calibrate
   260                           ;		_ser_puts
   261                           ;		_measure_capacitance
   262                           ;		_measure_inductance
   263                           ;		_indicator
   264                           ; This function is called by:
   265                           ;		Startup code after reset
   266                           ; This function uses a non-reentrant model
   267                           ; 
   268                                   psect   text0,class=CODE,space=0,reloc=2
   269                           
   270                           	opt lm
   271                           	file	"../../../src/LC-meter.c"
   272                           	line	115
   273  000000                     	__size_of_main	equ	__end_of_main-_main
   274                           ;LC-meter.c: 114: void
   275                           ;LC-meter.c: 115: main() {
   276                           	
   277  000000'                    _main:		; BSR set to: ?
   278                           
   279                           	opt stack 30
   280                           	line	116
   281                           ;LC-meter.c: 116: bres = msecpart = msecs = seco
                                 nds = 0;
   282  000000' 0E00               	movlw	low(0)
   283  000002' 6E1F               	movwf	((c:31)),c	;volatile
   284  000004' 0E00               	movlw	high(0)
   285  000006' 6E20               	movwf	((c:31+1)),c	;volatile
   286  000008' 0E00               	movlw	low highword(0)
   287  00000A' 6E21               	movwf	((c:31+2)),c	;volatile
   288  00000C' 0E00               	movlw	high highword(0)
   289  00000E' 6E22               	movwf	((c:31+3)),c	;volatile
   290  000010' C01F F010          	movff	(c:31),(c:16)	;volatile
   291  000014' C020 F011          	movff	(c:31+1),(c:16+1)	;volatile
   292  000018' C021 F012          	movff	(c:31+2),(c:16+2)	;volatile
   293  00001C' C022 F013          	movff	(c:31+3),(c:16+3)	;volatile
   294  000020' C010 F003          	movff	(c:16),(c:3)	;volatile
   295  000024' C011 F004          	movff	(c:16+1),(c:3+1)	;volatile
   296  000028' C003 F005          	movff	(c:3),(c:5)	;volatile
   297  00002C' C004 F006          	movff	(c:3+1),(c:5+1)	;volatile
   298                           	line	118
   299                           ;LC-meter.c: 118: CCal = 1000;
   300  000030' 0E00               	movlw	low(float24(1000.0000000000000))
   301  000032' 6E00               	movwf	((c:0)),c
   302  000034' 0E7A               	movlw	high(float24(1000.0000000000000))
   303  000036' 6E01               	movwf	((c:0+1)),c
   304  000038' 0E44               	movlw	low highword(float24(1000.0000000000000))
   305  00003A' 6E02               	movwf	((c:0+2)),c
   306                           
   307                           	line	127
   308                           ;LC-meter.c: 127: TRISA = 0b11001111;
   309  00003C' 0ECF               	movlw	low(0CFh)
   310  00003E' 6E92               	movwf	((c:3986)),c	;volatile
   311                           	line	129
   312                           ;LC-meter.c: 129: T0CS = 1;
   313  000040' 8AD5               	bsf	c:(32429/8),(32429)&7	;volatile
   314                           	line	130
   315                           ;LC-meter.c: 130: T0SE = 1;
   316  000042' 88D5               	bsf	c:(32428/8),(32428)&7	;volatile
   317                           	line	139
   318                           ;LC-meter.c: 139: RBPU = 1;
   319  000044' 8EF1               	bsf	c:(32655/8),(32655)&7	;volatile
   320                           	line	144
   321                           ;LC-meter.c: 144: TRISC3 = 0;
   322  000046' 9694               	bcf	c:(31907/8),(31907)&7	;volatile
   323                           	line	145
   324                           ;LC-meter.c: 145: RC3 = ((1) == 0);
   325  000048' 9682               	bcf	c:(31763/8),(31763)&7	;volatile
   326                           	line	147
   327                           ;LC-meter.c: 147: SSPEN = 0;
   328  00004A' 9AC6               	bcf	c:(32309/8),(32309)&7	;volatile
   329                           	line	152
   330                           ;LC-meter.c: 152: timer2_init(0b000 | TIMER2_FLA
                                 GS_INTR);
   331  00004C' C016 F000'         	movff	(c:22),(?_timer2_init)
   332  000050' C017 F001'         	movff	(c:22+1),(?_timer2_init+1)
   333  000054' EC00' F000'        	call	_timer2_init	;wreg free
   334                           	line	157
   335                           ;LC-meter.c: 157: TRISC1 = 0;
   336  000058' 9294               	bcf	c:(31905/8),(31905)&7	;volatile
   337                           	line	160
   338                           ;LC-meter.c: 160: TRISC3 = 0;
   339  00005A' 9694               	bcf	c:(31907/8),(31907)&7	;volatile
   340                           	line	162
   341                           ;LC-meter.c: 162: TRISC0 = 1;
   342  00005C' 8094               	bsf	c:(31904/8),(31904)&7	;volatile
   343                           	line	163
   344                           ;LC-meter.c: 163: TRISC2 = 1;
   345  00005E' 8494               	bsf	c:(31906/8),(31906)&7	;volatile
   346                           	line	173
   347                           ;LC-meter.c: 173: TRISC |= (1 << 4);
   348  000060' 8894               	bsf	(0+(4/8)+(c:3988)),c,(4)&7	;volatile
   349                           	line	174
   350                           ;LC-meter.c: 174: TRISC &= ~(1 << 5);
   351  000062' 9A94               	bcf	(0+(5/8)+(c:3988)),c,(5)&7	;volatile
   352                           	line	176
   353                           ;LC-meter.c: 176: PORTC &= ~(1 << 5);
   354  000064' 9A82               	bcf	(0+(5/8)+(c:3970)),c,(5)&7	;volatile
   355                           	line	177
   356                           ;LC-meter.c: 177: delay10ms(50);
   357  000066' 0E32               	movlw	low(032h)
   358  000068' 0101               	movlb	1	; () banked
   359  00006A' 0101               	movlb	1	; () banked
   360  00006C' 6F00'              	movwf	((?_delay10ms))&0ffh
   361  00006E' 0E00               	movlw	high(032h)
   362  000070' 0101               	movlb	1	; () banked
   363  000072' 6F00'              	movwf	((?_delay10ms+1))&0ffh
   364  000074' EC00' F000'        	call	_delay10ms	;wreg free
   365                           	line	178
   366                           ;LC-meter.c: 178: PORTC |= (1 << 5);
   367  000078' 8A82               	bsf	(0+(5/8)+(c:3970)),c,(5)&7	;volatile
   368                           	line	179
   369                           ;LC-meter.c: 179: delay10ms(50);
   370  00007A' 0E32               	movlw	low(032h)
   371  00007C' 0101               	movlb	1	; () banked
   372  00007E' 0101               	movlb	1	; () banked
   373  000080' 6F00'              	movwf	((?_delay10ms))&0ffh
   374  000082' 0E00               	movlw	high(032h)
   375  000084' 0101               	movlb	1	; () banked
   376  000086' 6F00'              	movwf	((?_delay10ms+1))&0ffh
   377  000088' EC00' F000'        	call	_delay10ms	;wreg free
   378                           	line	180
   379                           ;LC-meter.c: 180: PORTC &= ~(1 << 5);
   380  00008C' 9A82               	bcf	(0+(5/8)+(c:3970)),c,(5)&7	;volatile
   381                           	line	181
   382                           ;LC-meter.c: 181: delay10ms(50);
   383  00008E' 0E32               	movlw	low(032h)
   384  000090' 0101               	movlb	1	; () banked
   385  000092' 0101               	movlb	1	; () banked
   386  000094' 6F00'              	movwf	((?_delay10ms))&0ffh
   387  000096' 0E00               	movlw	high(032h)
   388  000098' 0101               	movlb	1	; () banked
   389  00009A' 6F00'              	movwf	((?_delay10ms+1))&0ffh
   390  00009C' EC00' F000'        	call	_delay10ms	;wreg free
   391                           	line	182
   392                           ;LC-meter.c: 182: PORTC |= (1 << 5);
   393  0000A0' 8A82               	bsf	(0+(5/8)+(c:3970)),c,(5)&7	;volatile
   394                           	line	183
   395                           ;LC-meter.c: 183: delay10ms(50);
   396  0000A2' 0E32               	movlw	low(032h)
   397  0000A4' 0101               	movlb	1	; () banked
   398  0000A6' 0101               	movlb	1	; () banked
   399  0000A8' 6F00'              	movwf	((?_delay10ms))&0ffh
   400  0000AA' 0E00               	movlw	high(032h)
   401  0000AC' 0101               	movlb	1	; () banked
   402  0000AE' 6F00'              	movwf	((?_delay10ms+1))&0ffh
   403  0000B0' EC00' F000'        	call	_delay10ms	;wreg free
   404                           	line	184
   405                           ;LC-meter.c: 184: PORTC &= ~(1 << 5);
   406  0000B4' 9A82               	bcf	(0+(5/8)+(c:3970)),c,(5)&7	;volatile
   407                           	line	192
   408                           ;LC-meter.c: 192: TRISC &= ~0b01000000;
   409  0000B6' 9C94               	bcf	(0+(6/8)+(c:3988)),c,(6)&7	;volatile
   410                           	line	194
   411                           ;LC-meter.c: 194: PEIE = 1;
   412  0000B8' 8CF2               	bsf	c:(32662/8),(32662)&7	;volatile
   413                           	line	195
   414                           ;LC-meter.c: 195: GIE = 1;
   415  0000BA' 8EF2               	bsf	c:(32663/8),(32663)&7	;volatile
   416                           	line	214
   417                           ;LC-meter.c: 214: delay10ms(200);
   418  0000BC' 0EC8               	movlw	low(0C8h)
   419  0000BE' 0101               	movlb	1	; () banked
   420  0000C0' 0101               	movlb	1	; () banked
   421  0000C2' 6F00'              	movwf	((?_delay10ms))&0ffh
   422  0000C4' 0E00               	movlw	high(0C8h)
   423  0000C6' 0101               	movlb	1	; () banked
   424  0000C8' 6F00'              	movwf	((?_delay10ms+1))&0ffh
   425  0000CA' EC00' F000'        	call	_delay10ms	;wreg free
   426                           	line	217
   427                           ;LC-meter.c: 217: calibrate();
   428  0000CE' EC00' F000'        	call	_calibrate	;wreg free
   429+                          	line	228
   430+                          ;LC-meter.c: 228: for(;;) {
   431+                          	
   432+ 0000D2'                    l575:		; BSR set to: ?
   433+                          
   434+                          	line	230
   435+                          ;LC-meter.c: 230: ser_puts("...\r\n");
   436+ 0000D2' 0E00'              	movlw	low(STR_1)
   437  0000D4' 0101               	movlb	1	; () banked
   438  0000D6' 0101               	movlb	1	; () banked
   439  0000D8' 6F00'              	movwf	((?_ser_puts))&0ffh
   440  0000DA' 0E00'              	movlw	high(STR_1)
   441  0000DC' 0101               	movlb	1	; () banked
   442  0000DE' 6F00'              	movwf	((?_ser_puts+1))&0ffh
   443  0000E0' EC00' F000'        	call	_ser_puts	;wreg free
   444                           	line	231
   445                           ;LC-meter.c: 231: if(RC4)
   446  0000E4' A882               	btfss	c:(31764/8),(31764)&7	;volatile
   447  0000E6' EF00' F000'        	goto	u2121
   448  0000EA' EF00' F000'        	goto	u2120
   449  0000EE'                    u2121:
   450  0000EE' EF00' F000'        	goto	l578
   451  0000F2'                    u2120:
   452                           	line	232
   453                           ;LC-meter.c: 232: measure_capacitance();
   454  0000F2' EC00' F000'        	call	_measure_capacitance	;wreg free
   455  0000F6' EF00' F000'        	goto	l579
   456                           	line	233
   457                           	
   458  0000FA'                    l578:		; BSR set to: ?
   459                           
   460                           	line	234
   461                           ;LC-meter.c: 233: else
   462                           ;LC-meter.c: 234: measure_inductance();
   463  0000FA' EC00' F000'        	call	_measure_inductance	;wreg free
   464                           	
   465  0000FE'                    l579:		; BSR set to: ?
   466                           
   467                           	line	236
   468                           ;LC-meter.c: 236: indicator(1);
   469  0000FE' 0101               	movlb	1	; () banked
   470  000100' 6F00'              	movwf	(??_main+0+0)&0ffh
   471  000102' 0E01               	movlw	low(01h)
   472  000104' 0101               	movlb	1	; () banked
   473  000106' 0101               	movlb	1	; () banked
   474  000108' 6F00'              	movwf	((?_indicator))&0ffh
   475  00010A' 0101               	movlb	1	; () banked
   476  00010C' 5100'              	movf	(??_main+0+0)&0ffh,w
   477  00010E' EC00' F000'        	call	_indicator	;wreg free
   478                           	line	237
   479                           ;LC-meter.c: 237: delay10ms(30);
   480  000112' 0E1E               	movlw	low(01Eh)
   481  000114' 0101               	movlb	1	; () banked
   482  000116' 0101               	movlb	1	; () banked
   483  000118' 6F00'              	movwf	((?_delay10ms))&0ffh
   484  00011A' 0E00               	movlw	high(01Eh)
   485  00011C' 0101               	movlb	1	; () banked
   486  00011E' 6F00'              	movwf	((?_delay10ms+1))&0ffh
   487  000120' EC00' F000'        	call	_delay10ms	;wreg free
   488                           	line	238
   489                           ;LC-meter.c: 238: indicator(0);
   490  000124' 0101               	movlb	1	; () banked
   491  000126' 6F00'              	movwf	(??_main+0+0)&0ffh
   492  000128' 0E00               	movlw	low(0)
   493  00012A' 0101               	movlb	1	; () banked
   494  00012C' 0101               	movlb	1	; () banked
   495  00012E' 6F00'              	movwf	((?_indicator))&0ffh
   496  000130' 0101               	movlb	1	; () banked
   497  000132' 5100'              	movf	(??_main+0+0)&0ffh,w
   498  000134' EC00' F000'        	call	_indicator	;wreg free
   499                           	line	239
   500                           ;LC-meter.c: 239: delay10ms(20);
   501  000138' 0E14               	movlw	low(014h)
   502  00013A' 0101               	movlb	1	; () banked
   503  00013C' 0101               	movlb	1	; () banked
   504  00013E' 6F00'              	movwf	((?_delay10ms))&0ffh
   505  000140' 0E00               	movlw	high(014h)
   506  000142' 0101               	movlb	1	; () banked
   507  000144' 6F00'              	movwf	((?_delay10ms+1))&0ffh
   508  000146' EC00' F000'        	call	_delay10ms	;wreg free
   509                           	line	240
   510                           ;LC-meter.c: 240: }
   511  00014A' EF00' F000'        	goto	l575
   512                           	global	start
   513  00014E' EF00' F000'        	goto	start
   514                           	opt stack 0
   515                           GLOBAL __end_of_main
   516  000152'                    	__end_of_main:
   517                           	FNSIZE	_main,1,0
   518                           ; =============== function _main ends ==========
                                 ==
   519                           
   520                                   psect   text1,class=CODE,space=0,reloc=2
   521                           	line	241
   522                           
   523                           	opt lm
   524                           	signat	_main,88
   525                           	global	_measure_capacitance
   526                           	global	??_measure_capacitance
   527                           	global	?_measure_capacitance
   528                           
   529                           ; *************** function _measure_capacitance 
                                 *****************
   530                           ; Defined at:
   531                           ;		line 391 in file "../../../src/LC-meter.c"
   532                           ; Parameters:
   533                           ;		None
   534                           ; Auto variables:
   535                           ;		unit        	       	type: unsigned char 
   536                           ;		var         	       	type: unsigned short 
   537                           ;		Cin         	       	type: unsigned short 
   538                           ; Return value:
   539                           ;		type: void 
   540                           ;		size: 0
   541                           ; Registers used:
   542                           ;		wreg, fsr0l, fsr0h, status,2, status,0, cstac
                                 k
   543                           ; Tracked objects:
   544                           ;		On entry : 0/0
   545                           ;		On exit  : 0/0
   546                           ;		Unchanged: 0/0
   547                           ; Data sizes:
   548                           ;		Autos:    9
   549                           ;		Params:   0
   550                           ;		Temp:     1
   551                           ;		Total:   10
   552                           ; This function calls:
   553                           ;		_measure_freq
   554                           ;		___lwtoft
   555                           ;		___ftge
   556                           ;		___ftmul
   557                           ;		___ftsub
   558                           ;		___ftdiv
   559                           ;		___fttol
   560                           ;		_print_reading
   561                           ;		_print_unit
   562                           ; This function is called by:
   563                           ;		_main
   564                           ; This function uses a non-reentrant model
   565                           ; 
   566                           	file	"../../../src/LC-meter.c"
   567                           	line	391
   568  000000                     	__size_of_measure_capacitance	equ	__end_of_meas
                                 ure_capacitance-_measure_capacitance
   569                           ;LC-meter.c: 390: void
   570                           ;LC-meter.c: 391: measure_capacitance() {
   571                           	
   572  000000'                    _measure_capacitance:		; BSR set to: ?
   573                           
   574                           	opt stack 29
   575                           	line	402
   576                           ;LC-meter.c: 392: unsigned char unit;
   577                           ;LC-meter.c: 393: unsigned short int var;
   578                           ;LC-meter.c: 395: double Cin;
   579                           ;LC-meter.c: 402: var = measure_freq();
   580  000000' EC00' F000'        	call	_measure_freq	;wreg free
   581  000004' C000' F004'        	movff	0+?_measure_freq,(measure_capacitance@var
                                 )
   582  000008' C001' F005'        	movff	1+?_measure_freq,(measure_capacitance@var
                                 +1)
   583                           	line	404
   584                           ;LC-meter.c: 404: F3 = (double)var;
   585  00000C' C004' F000'        	movff	(measure_capacitance@var),(?___lwtoft)
   586  000010' C005' F001'        	movff	(measure_capacitance@var+1),(?___lwtoft+1
                                 )
   587  000014' EC00' F000'        	call	___lwtoft	;wreg free
   588  000018' C000' F00A         	movff	0+?___lwtoft,(c:10)
   589  00001C' C001' F00B         	movff	1+?___lwtoft,(c:10+1)
   590  000020' C002' F00C         	movff	2+?___lwtoft,(c:10+2)
   591                           	line	427
   592                           ;LC-meter.c: 427: putchar_ptr = &output_putch;
   593  000024' 0100               	movlb	0	; () banked
   594  000026' 0E00'              	movlw	low(_output_putch)
   595  000028' 6E25               	movwf	((c:37)),c
   596  00002A' 0100               	movlb	0	; () banked
   597  00002C' 0E00'              	movlw	high(_output_putch)
   598  00002E' 6E26               	movwf	((c:37+1)),c
   599                           	line	429
   600                           ;LC-meter.c: 429: if(F3 > F1)
   601  000030' C00A F003'         	movff	(c:10),0+(?___ftge+03h)
   602  000034' C00B F004'         	movff	(c:10+1),1+(?___ftge+03h)
   603  000038' C00C F005'         	movff	(c:10+2),2+(?___ftge+03h)
   604  00003C' C007 F000'         	movff	(c:7),(?___ftge)
   605  000040' C008 F001'         	movff	(c:7+1),(?___ftge+1)
   606  000044' C009 F002'         	movff	(c:7+2),(?___ftge+2)
   607  000048' EC00' F000'        	call	___ftge	;wreg free
   608  00004C' B0D8               	btfsc	status,0
   609  00004E' EF00' F000'        	goto	u2081
   610  000052' EF00' F000'        	goto	u2080
   611  000056'                    u2081:
   612  000056' EF00' F000'        	goto	l591
   613  00005A'                    u2080:
   614                           	line	430
   615                           ;LC-meter.c: 430: F3 = F1;
   616  00005A' C007 F00A          	movff	(c:7),(c:10)
   617  00005E' C008 F00B          	movff	(c:7+1),(c:10+1)
   618  000062' C009 F00C          	movff	(c:7+2),(c:10+2)
   619                           	
   620  000066'                    l591:		; BSR set to: ?
   621                           
   622                           	line	432
   623                           ;LC-meter.c: 432: Cin = F2 * F2 * (F1 * F1 - F3 
                                 * F3) * CCal;
   624  000066' C007 F003'         	movff	(c:7),0+(?___ftmul+03h)
   625  00006A' C008 F004'         	movff	(c:7+1),1+(?___ftmul+03h)
   626  00006E' C009 F005'         	movff	(c:7+2),2+(?___ftmul+03h)
   627  000072' C007 F000'         	movff	(c:7),(?___ftmul)
   628  000076' C008 F001'         	movff	(c:7+1),(?___ftmul+1)
   629  00007A' C009 F002'         	movff	(c:7+2),(?___ftmul+2)
   630  00007E' EC00' F000'        	call	___ftmul	;wreg free
   631  000082' C000' F000'        	movff	0+?___ftmul,(_measure_capacitance$1184)
   632  000086' C001' F001'        	movff	1+?___ftmul,(_measure_capacitance$1184+1)
   633  00008A' C002' F002'        	movff	2+?___ftmul,(_measure_capacitance$1184+2)
   634  00008E' C00A F003'         	movff	(c:10),0+(?___ftmul+03h)
   635  000092' C00B F004'         	movff	(c:10+1),1+(?___ftmul+03h)
   636  000096' C00C F005'         	movff	(c:10+2),2+(?___ftmul+03h)
   637  00009A' C00A F000'         	movff	(c:10),(?___ftmul)
   638  00009E' C00B F001'         	movff	(c:10+1),(?___ftmul+1)
   639  0000A2' C00C F002'         	movff	(c:10+2),(?___ftmul+2)
   640  0000A6' EC00' F000'        	call	___ftmul	;wreg free
   641  0000AA' C000' F003'        	movff	0+?___ftmul,0+(?___ftsub+03h)
   642  0000AE' C001' F004'        	movff	1+?___ftmul,1+(?___ftsub+03h)
   643  0000B2' C002' F005'        	movff	2+?___ftmul,2+(?___ftsub+03h)
   644  0000B6' C000' F000'        	movff	(_measure_capacitance$1184),(?___ftsub)
   645  0000BA' C001' F001'        	movff	(_measure_capacitance$1184+1),(?___ftsub+
                                 1)
   646  0000BE' C002' F002'        	movff	(_measure_capacitance$1184+2),(?___ftsub+
                                 2)
   647  0000C2' EC00' F000'        	call	___ftsub	;wreg free
   648  0000C6' C000' F000'        	movff	0+?___ftsub,(?___ftmul)
   649  0000CA' C001' F001'        	movff	1+?___ftsub,(?___ftmul+1)
   650  0000CE' C002' F002'        	movff	2+?___ftsub,(?___ftmul+2)
   651  0000D2' C00D F003'         	movff	(c:13),0+(?___ftmul+03h)
   652  0000D6' C00E F004'         	movff	(c:13+1),1+(?___ftmul+03h)
   653  0000DA' C00F F005'         	movff	(c:13+2),2+(?___ftmul+03h)
   654  0000DE' EC00' F000'        	call	___ftmul	;wreg free
   655  0000E2' C000' F000'        	movff	0+?___ftmul,(?___ftmul)
   656  0000E6' C001' F001'        	movff	1+?___ftmul,(?___ftmul+1)
   657  0000EA' C002' F002'        	movff	2+?___ftmul,(?___ftmul+2)
   658  0000EE' C00D F003'         	movff	(c:13),0+(?___ftmul+03h)
   659  0000F2' C00E F004'         	movff	(c:13+1),1+(?___ftmul+03h)
   660  0000F6' C00F F005'         	movff	(c:13+2),2+(?___ftmul+03h)
   661  0000FA' EC00' F000'        	call	___ftmul	;wreg free
   662  0000FE' C000' F000'        	movff	0+?___ftmul,(?___ftmul)
   663  000102' C001' F001'        	movff	1+?___ftmul,(?___ftmul+1)
   664  000106' C002' F002'        	movff	2+?___ftmul,(?___ftmul+2)
   665  00010A' C000 F003'         	movff	(c:0),0+(?___ftmul+03h)
   666  00010E' C001 F004'         	movff	(c:0+1),1+(?___ftmul+03h)
   667  000112' C002 F005'         	movff	(c:0+2),2+(?___ftmul+03h)
   668  000116' EC00' F000'        	call	___ftmul	;wreg free
   669  00011A' C000' F006'        	movff	0+?___ftmul,(measure_capacitance@Cin)
   670  00011E' C001' F007'        	movff	1+?___ftmul,(measure_capacitance@Cin+1)
   671  000122' C002' F008'        	movff	2+?___ftmul,(measure_capacitance@Cin+2)
   672                           	line	442
   673                           ;LC-meter.c: 442: if(Cin > 999) {
   674  000126' C006' F003'        	movff	(measure_capacitance@Cin),0+(?___ftge+03h
                                 )
   675  00012A' C007' F004'        	movff	(measure_capacitance@Cin+1),1+(?___ftge+0
                                 3h)
   676  00012E' C008' F005'        	movff	(measure_capacitance@Cin+2),2+(?___ftge+0
                                 3h)
   677  000132' 0EC0               	movlw	low(float24(999.00000000000000))
   678  000134' 0101               	movlb	1	; () banked
   679  000136' 0101               	movlb	1	; () banked
   680  000138' 6F00'              	movwf	((?___ftge))&0ffh
   681  00013A' 0E79               	movlw	high(float24(999.00000000000000))
   682  00013C' 0101               	movlb	1	; () banked
   683  00013E' 0101               	movlb	1	; () banked
   684  000140' 6F00'              	movwf	((?___ftge+1))&0ffh
   685  000142' 0E44               	movlw	low highword(float24(999.00000000000000))
   686  000144' 0101               	movlb	1	; () banked
   687  000146' 0101               	movlb	1	; () banked
   688  000148' 6F00'              	movwf	((?___ftge+2))&0ffh
   689                           
   690  00014A' EC00' F000'        	call	___ftge	;wreg free
   691  00014E' B0D8               	btfsc	status,0
   692  000150' EF00' F000'        	goto	u2091
   693  000154' EF00' F000'        	goto	u2090
   694  000158'                    u2091:
   695  000158' EF00' F000'        	goto	l592
   696  00015C'                    u2090:
   697                           	line	443
   698                           ;LC-meter.c: 443: if(Cin > (999e+03l)) {
   699  00015C' C006' F003'        	movff	(measure_capacitance@Cin),0+(?___ftge+03h
                                 )
   700  000160' C007' F004'        	movff	(measure_capacitance@Cin+1),1+(?___ftge+0
                                 3h)
   701  000164' C008' F005'        	movff	(measure_capacitance@Cin+2),2+(?___ftge+0
                                 3h)
   702  000168' 0EE6               	movlw	low(float24(999000.00000000000))
   703  00016A' 0101               	movlb	1	; () banked
   704  00016C' 0101               	movlb	1	; () banked
   705  00016E' 6F00'              	movwf	((?___ftge))&0ffh
   706  000170' 0E73               	movlw	high(float24(999000.00000000000))
   707  000172' 0101               	movlb	1	; () banked
   708  000174' 0101               	movlb	1	; () banked
   709  000176' 6F00'              	movwf	((?___ftge+1))&0ffh
   710  000178' 0E49               	movlw	low highword(float24(999000.00000000000))
   711  00017A' 0101               	movlb	1	; () banked
   712  00017C' 0101               	movlb	1	; () banked
   713  00017E' 6F00'              	movwf	((?___ftge+2))&0ffh
   714                           
   715  000180' EC00' F000'        	call	___ftge	;wreg free
   716  000184' B0D8               	btfsc	status,0
   717  000186' EF00' F000'        	goto	u2101
   718  00018A' EF00' F000'        	goto	u2100
   719  00018E'                    u2101:
   720  00018E' EF00' F000'        	goto	l593
   721  000192'                    u2100:
   722                           	line	444
   723                           ;LC-meter.c: 444: if(Cin > (999e+06l)) {
   724  000192' C006' F003'        	movff	(measure_capacitance@Cin),0+(?___ftge+03h
                                 )
   725  000196' C007' F004'        	movff	(measure_capacitance@Cin+1),1+(?___ftge+0
                                 3h)
   726  00019A' C008' F005'        	movff	(measure_capacitance@Cin+2),2+(?___ftge+0
                                 3h)
   727  00019E' 0E2E               	movlw	low(float24(999000000.00000000))
   728  0001A0' 0101               	movlb	1	; () banked
   729  0001A2' 0101               	movlb	1	; () banked
   730  0001A4' 6F00'              	movwf	((?___ftge))&0ffh
   731  0001A6' 0E6E               	movlw	high(float24(999000000.00000000))
   732  0001A8' 0101               	movlb	1	; () banked
   733  0001AA' 0101               	movlb	1	; () banked
   734  0001AC' 6F00'              	movwf	((?___ftge+1))&0ffh
   735  0001AE' 0E4E               	movlw	low highword(float24(999000000.00000000))
   736  0001B0' 0101               	movlb	1	; () banked
   737  0001B2' 0101               	movlb	1	; () banked
   738  0001B4' 6F00'              	movwf	((?___ftge+2))&0ffh
   739                           
   740  0001B6' EC00' F000'        	call	___ftge	;wreg free
   741  0001BA' B0D8               	btfsc	status,0
   742  0001BC' EF00' F000'        	goto	u2111
   743  0001C0' EF00' F000'        	goto	u2110
   744  0001C4'                    u2111:
   745  0001C4' EF00' F000'        	goto	l594
   746  0001C8'                    u2110:
   747                           	line	445
   748                           ;LC-meter.c: 445: Cin = Cin / (1e+09l);
   749  0001C8' 0E6B               	movlw	low(float24(1000000000.0000000))
   750  0001CA' 0101               	movlb	1	; () banked
   751  0001CC' 0101               	movlb	1	; () banked
   752  0001CE' 6F00'              	movwf	(0+(?___ftdiv+03h))&0ffh
   753  0001D0' 0E6E               	movlw	high(float24(1000000000.0000000))
   754  0001D2' 0101               	movlb	1	; () banked
   755  0001D4' 0101               	movlb	1	; () banked
   756  0001D6' 6F00'              	movwf	(1+(?___ftdiv+03h))&0ffh
   757  0001D8' 0E4E               	movlw	low highword(float24(1000000000.0000000))
   758  0001DA' 0101               	movlb	1	; () banked
   759  0001DC' 0101               	movlb	1	; () banked
   760  0001DE' 6F00'              	movwf	(2+(?___ftdiv+03h))&0ffh
   761                           
   762  0001E0' C006' F000'        	movff	(measure_capacitance@Cin),(?___ftdiv)
   763  0001E4' C007' F001'        	movff	(measure_capacitance@Cin+1),(?___ftdiv+1)
   764  0001E8' C008' F002'        	movff	(measure_capacitance@Cin+2),(?___ftdiv+2)
   765  0001EC' EC00' F000'        	call	___ftdiv	;wreg free
   766  0001F0' C000' F006'        	movff	0+?___ftdiv,(measure_capacitance@Cin)
   767  0001F4' C001' F007'        	movff	1+?___ftdiv,(measure_capacitance@Cin+1)
   768  0001F8' C002' F008'        	movff	2+?___ftdiv,(measure_capacitance@Cin+2)
   769                           	line	446
   770                           ;LC-meter.c: 446: unit = 4;
   771  0001FC' 0101               	movlb	1	; () banked
   772  0001FE' 6F00'              	movwf	(??_measure_capacitance+9+0)&0ffh
   773  000200' 0E04               	movlw	low(04h)
   774  000202' 0101               	movlb	1	; () banked
   775  000204' 0101               	movlb	1	; () banked
   776  000206' 6F00'              	movwf	((measure_capacitance@unit))&0ffh
   777  000208' 0101               	movlb	1	; () banked
   778  00020A' 5100'              	movf	(??_measure_capacitance+9+0)&0ffh,w
   779                           	line	447
   780                           ;LC-meter.c: 447: } else {
   781  00020C' EF00' F000'        	goto	l595
   782                           	
   783  000210'                    l594:		; BSR set to: ?
   784                           
   785                           	line	448
   786                           ;LC-meter.c: 448: Cin = Cin / (1e+06l);
   787  000210' 0E24               	movlw	low(float24(1000000.0000000000))
   788  000212' 0101               	movlb	1	; () banked
   789  000214' 0101               	movlb	1	; () banked
   790  000216' 6F00'              	movwf	(0+(?___ftdiv+03h))&0ffh
   791  000218' 0E74               	movlw	high(float24(1000000.0000000000))
   792  00021A' 0101               	movlb	1	; () banked
   793  00021C' 0101               	movlb	1	; () banked
   794  00021E' 6F00'              	movwf	(1+(?___ftdiv+03h))&0ffh
   795  000220' 0E49               	movlw	low highword(float24(1000000.0000000000))
   796  000222' 0101               	movlb	1	; () banked
   797  000224' 0101               	movlb	1	; () banked
   798  000226' 6F00'              	movwf	(2+(?___ftdiv+03h))&0ffh
   799                           
   800  000228' C006' F000'        	movff	(measure_capacitance@Cin),(?___ftdiv)
   801  00022C' C007' F001'        	movff	(measure_capacitance@Cin+1),(?___ftdiv+1)
   802  000230' C008' F002'        	movff	(measure_capacitance@Cin+2),(?___ftdiv+2)
   803  000234' EC00' F000'        	call	___ftdiv	;wreg free
   804  000238' C000' F006'        	movff	0+?___ftdiv,(measure_capacitance@Cin)
   805  00023C' C001' F007'        	movff	1+?___ftdiv,(measure_capacitance@Cin+1)
   806  000240' C002' F008'        	movff	2+?___ftdiv,(measure_capacitance@Cin+2)
   807                           	line	449
   808                           ;LC-meter.c: 449: unit = 5;
   809  000244' 0101               	movlb	1	; () banked
   810  000246' 6F00'              	movwf	(??_measure_capacitance+9+0)&0ffh
   811  000248' 0E05               	movlw	low(05h)
   812  00024A' 0101               	movlb	1	; () banked
   813  00024C' 0101               	movlb	1	; () banked
   814  00024E' 6F00'              	movwf	((measure_capacitance@unit))&0ffh
   815  000250' 0101               	movlb	1	; () banked
   816  000252' 5100'              	movf	(??_measure_capacitance+9+0)&0ffh,w
   817                           	line	450
   818                           	
   819  000254'                    l595:		; BSR set to: ?
   820                           
   821                           	line	451
   822                           ;LC-meter.c: 450: }
   823                           ;LC-meter.c: 451: } else {
   824  000254' EF00' F000'        	goto	l596
   825                           	
   826  000258'                    l593:		; BSR set to: ?
   827                           
   828                           	line	452
   829                           ;LC-meter.c: 452: Cin = Cin / 1e+03l;
   830  000258' 0E00               	movlw	low(float24(1000.0000000000000))
   831  00025A' 0101               	movlb	1	; () banked
   832  00025C' 0101               	movlb	1	; () banked
   833  00025E' 6F00'              	movwf	(0+(?___ftdiv+03h))&0ffh
   834  000260' 0E7A               	movlw	high(float24(1000.0000000000000))
   835  000262' 0101               	movlb	1	; () banked
   836  000264' 0101               	movlb	1	; () banked
   837  000266' 6F00'              	movwf	(1+(?___ftdiv+03h))&0ffh
   838  000268' 0E44               	movlw	low highword(float24(1000.0000000000000))
   839  00026A' 0101               	movlb	1	; () banked
   840  00026C' 0101               	movlb	1	; () banked
   841  00026E' 6F00'              	movwf	(2+(?___ftdiv+03h))&0ffh
   842                           
   843  000270' C006' F000'        	movff	(measure_capacitance@Cin),(?___ftdiv)
   844  000274' C007' F001'        	movff	(measure_capacitance@Cin+1),(?___ftdiv+1)
   845  000278' C008' F002'        	movff	(measure_capacitance@Cin+2),(?___ftdiv+2)
   846  00027C' EC00' F000'        	call	___ftdiv	;wreg free
   847  000280' C000' F006'        	movff	0+?___ftdiv,(measure_capacitance@Cin)
   848  000284' C001' F007'        	movff	1+?___ftdiv,(measure_capacitance@Cin+1)
   849  000288' C002' F008'        	movff	2+?___ftdiv,(measure_capacitance@Cin+2)
   850                           	line	453
   851                           ;LC-meter.c: 453: unit = 6;
   852  00028C' 0101               	movlb	1	; () banked
   853  00028E' 6F00'              	movwf	(??_measure_capacitance+9+0)&0ffh
   854  000290' 0E06               	movlw	low(06h)
   855  000292' 0101               	movlb	1	; () banked
   856  000294' 0101               	movlb	1	; () banked
   857  000296' 6F00'              	movwf	((measure_capacitance@unit))&0ffh
   858  000298' 0101               	movlb	1	; () banked
   859  00029A' 5100'              	movf	(??_measure_capacitance+9+0)&0ffh,w
   860                           	line	454
   861                           	
   862  00029C'                    l596:		; BSR set to: ?
   863                           
   864                           	line	455
   865                           ;LC-meter.c: 454: }
   866                           ;LC-meter.c: 455: } else
   867  00029C' EF00' F000'        	goto	l597
   868                           	
   869  0002A0'                    l592:		; BSR set to: ?
   870                           
   871                           	line	456
   872                           ;LC-meter.c: 456: unit = 7;
   873  0002A0' 0101               	movlb	1	; () banked
   874  0002A2' 6F00'              	movwf	(??_measure_capacitance+9+0)&0ffh
   875  0002A4' 0E07               	movlw	low(07h)
   876  0002A6' 0101               	movlb	1	; () banked
   877  0002A8' 0101               	movlb	1	; () banked
   878  0002AA' 6F00'              	movwf	((measure_capacitance@unit))&0ffh
   879  0002AC' 0101               	movlb	1	; () banked
   880  0002AE' 5100'              	movf	(??_measure_capacitance+9+0)&0ffh,w
   881                           	
   882  0002B0'                    l597:		; BSR set to: ?
   883                           
   884                           	line	458
   885                           ;LC-meter.c: 458: Cin = Cin * 100;
   886  0002B0' 0E00               	movlw	low(float24(100.00000000000000))
   887  0002B2' 0101               	movlb	1	; () banked
   888  0002B4' 0101               	movlb	1	; () banked
   889  0002B6' 6F00'              	movwf	(0+(?___ftmul+03h))&0ffh
   890  0002B8' 0EC8               	movlw	high(float24(100.00000000000000))
   891  0002BA' 0101               	movlb	1	; () banked
   892  0002BC' 0101               	movlb	1	; () banked
   893  0002BE' 6F00'              	movwf	(1+(?___ftmul+03h))&0ffh
   894  0002C0' 0E42               	movlw	low highword(float24(100.00000000000000))
   895  0002C2' 0101               	movlb	1	; () banked
   896  0002C4' 0101               	movlb	1	; () banked
   897  0002C6' 6F00'              	movwf	(2+(?___ftmul+03h))&0ffh
   898                           
   899  0002C8' C006' F000'        	movff	(measure_capacitance@Cin),(?___ftmul)
   900  0002CC' C007' F001'        	movff	(measure_capacitance@Cin+1),(?___ftmul+1)
   901  0002D0' C008' F002'        	movff	(measure_capacitance@Cin+2),(?___ftmul+2)
   902  0002D4' EC00' F000'        	call	___ftmul	;wreg free
   903  0002D8' C000' F006'        	movff	0+?___ftmul,(measure_capacitance@Cin)
   904  0002DC' C001' F007'        	movff	1+?___ftmul,(measure_capacitance@Cin+1)
   905  0002E0' C002' F008'        	movff	2+?___ftmul,(measure_capacitance@Cin+2)
   906                           	line	459
   907                           ;LC-meter.c: 459: var = (unsigned short int)Cin;
   908  0002E4' C006' F000'        	movff	(measure_capacitance@Cin),(?___fttol)
   909  0002E8' C007' F001'        	movff	(measure_capacitance@Cin+1),(?___fttol+1)
   910  0002EC' C008' F002'        	movff	(measure_capacitance@Cin+2),(?___fttol+2)
   911  0002F0' EC00' F000'        	call	___fttol	;wreg free
   912  0002F4' C000' F004'        	movff	0+?___fttol,(measure_capacitance@var)
   913  0002F8' C001' F005'        	movff	1+?___fttol,(measure_capacitance@var+1)
   914                           	line	461
   915                           ;LC-meter.c: 461: print_reading(var);
   916  0002FC' C004' F000'        	movff	(measure_capacitance@var),(?_print_readin
                                 g)
   917  000300' C005' F001'        	movff	(measure_capacitance@var+1),(?_print_read
                                 ing+1)
   918  000304' EC00' F000'        	call	_print_reading	;wreg free
   919                           	line	462
   920                           ;LC-meter.c: 462: print_unit(unit);
   921  000308' C003' F000'        	movff	(measure_capacitance@unit),(?_print_unit)
   922  00030C' EC00' F000'        	call	_print_unit	;wreg free
   923+                          	line	463
   924+                          ;LC-meter.c: 463: }
   925+ 000310'                    l590:
   926                           			; BSR set to: ?
   927                           
   928  000310' 0012               	return
   929                           	opt stack 0
   930                           GLOBAL __end_of_measure_capacitance
   931  000312'                    	__end_of_measure_capacitance:
   932                           	FNSIZE	_measure_capacitance,10,0
   933                           ; =============== function _measure_capacitance 
                                 ends ============
   934                           
   935                           	signat	_measure_capacitance,88
   936                           	global	_measure_inductance
   937                           	global	??_measure_inductance
   938                           	global	?_measure_inductance
   939                           
   940                           ; *************** function _measure_inductance *
                                 ****************
   941                           ; Defined at:
   942                           ;		line 469 in file "../../../src/LC-meter.c"
   943                           ; Parameters:
   944                           ;		None
   945                           ; Auto variables:
   946                           ;		unit        	       	type: unsigned char 
   947                           ;		var         	       	type: unsigned short 
   948                           ;		denominator 	       	type: unsigned short 
   949                           ;		numerator   	       	type: unsigned short 
   950                           ;		Lin         	       	type: unsigned short 
   951                           ; Return value:
   952                           ;		type: void 
   953                           ;		size: 0
   954                           ; Registers used:
   955                           ;		wreg, fsr0l, fsr0h, status,2, status,0, cstac
                                 k
   956                           ; Tracked objects:
   957                           ;		On entry : 0/0
   958                           ;		On exit  : 0/0
   959                           ;		Unchanged: 0/0
   960                           ; Data sizes:
   961                           ;		Autos:   24
   962                           ;		Params:   0
   963                           ;		Temp:     1
   964                           ;		Total:   25
   965                           ; This function calls:
   966                           ;		_measure_freq
   967                           ;		___lwtoft
   968                           ;		___ftge
   969                           ;		___ftmul
   970                           ;		___ftsub
   971                           ;		___ftdiv
   972                           ;		___fttol
   973                           ;		_print_reading
   974                           ;		_print_unit
   975                           ; This function is called by:
   976                           ;		_main
   977                           ; This function uses a non-reentrant model
   978                           ; 
   979                                   psect   text2,class=CODE,space=0,reloc=2
   980                           
   981                           	opt lm
   982                           	file	"../../../src/LC-meter.c"
   983                           	line	469
   984  000000                     	__size_of_measure_inductance	equ	__end_of_measu
                                 re_inductance-_measure_inductance
   985                           ;LC-meter.c: 468: void
   986                           ;LC-meter.c: 469: measure_inductance() {
   987                           	
   988  000000'                    _measure_inductance:		; BSR set to: ?
   989                           
   990                           	opt stack 29
   991                           	line	479
   992  000000' EC00' F000'        	call	_measure_freq	;wreg free
   993  000004' C000' F00D'        	movff	0+?_measure_freq,(measure_inductance@var)
   994  000008' C001' F00E'        	movff	1+?_measure_freq,(measure_inductance@var+
                                 1)
   995                           	line	481
   996                           ;LC-meter.c: 481: F3 = (double)var;
   997  00000C' C00D' F000'        	movff	(measure_inductance@var),(?___lwtoft)
   998  000010' C00E' F001'        	movff	(measure_inductance@var+1),(?___lwtoft+1)
   999  000014' EC00' F000'        	call	___lwtoft	;wreg free
  1000  000018' C000' F00A         	movff	0+?___lwtoft,(c:10)
  1001  00001C' C001' F00B         	movff	1+?___lwtoft,(c:10+1)
  1002  000020' C002' F00C         	movff	2+?___lwtoft,(c:10+2)
  1003                           	line	482
  1004                           ;LC-meter.c: 482: if(F3 > F1)
  1005  000024' C00A F003'         	movff	(c:10),0+(?___ftge+03h)
  1006  000028' C00B F004'         	movff	(c:10+1),1+(?___ftge+03h)
  1007  00002C' C00C F005'         	movff	(c:10+2),2+(?___ftge+03h)
  1008  000030' C007 F000'         	movff	(c:7),(?___ftge)
  1009  000034' C008 F001'         	movff	(c:7+1),(?___ftge+1)
  1010  000038' C009 F002'         	movff	(c:7+2),(?___ftge+2)
  1011  00003C' EC00' F000'        	call	___ftge	;wreg free
  1012  000040' B0D8               	btfsc	status,0
  1013  000042' EF00' F000'        	goto	u2171
  1014  000046' EF00' F000'        	goto	u2170
  1015  00004A'                    u2171:
  1016  00004A' EF00' F000'        	goto	l599
  1017  00004E'                    u2170:
  1018                           	line	483
  1019                           ;LC-meter.c: 483: F3 = F1;
  1020  00004E' C007 F00A          	movff	(c:7),(c:10)
  1021  000052' C008 F00B          	movff	(c:7+1),(c:10+1)
  1022  000056' C009 F00C          	movff	(c:7+2),(c:10+2)
  1023                           	
  1024  00005A'                    l599:		; BSR set to: ?
  1025                           
  1026                           	line	485
  1027                           ;LC-meter.c: 485: numerator = ((F1 * F1) - (F3 *
                                  F3)) * ((F1 * F1) - (F2 - F2)) * (100 * 100);
  1028  00005A' C007 F003'         	movff	(c:7),0+(?___ftmul+03h)
  1029  00005E' C008 F004'         	movff	(c:7+1),1+(?___ftmul+03h)
  1030  000062' C009 F005'         	movff	(c:7+2),2+(?___ftmul+03h)
  1031  000066' C007 F000'         	movff	(c:7),(?___ftmul)
  1032  00006A' C008 F001'         	movff	(c:7+1),(?___ftmul+1)
  1033  00006E' C009 F002'         	movff	(c:7+2),(?___ftmul+2)
  1034  000072' EC00' F000'        	call	___ftmul	;wreg free
  1035  000076' C000' F000'        	movff	0+?___ftmul,(_measure_inductance$1203)
  1036  00007A' C001' F001'        	movff	1+?___ftmul,(_measure_inductance$1203+1)
  1037  00007E' C002' F002'        	movff	2+?___ftmul,(_measure_inductance$1203+2)
  1038  000082' C007 F003'         	movff	(c:7),0+(?___ftmul+03h)
  1039  000086' C008 F004'         	movff	(c:7+1),1+(?___ftmul+03h)
  1040  00008A' C009 F005'         	movff	(c:7+2),2+(?___ftmul+03h)
  1041  00008E' C007 F000'         	movff	(c:7),(?___ftmul)
  1042  000092' C008 F001'         	movff	(c:7+1),(?___ftmul+1)
  1043  000096' C009 F002'         	movff	(c:7+2),(?___ftmul+2)
  1044  00009A' EC00' F000'        	call	___ftmul	;wreg free
  1045  00009E' C000' F003'        	movff	0+?___ftmul,(_measure_inductance$1204)
  1046  0000A2' C001' F004'        	movff	1+?___ftmul,(_measure_inductance$1204+1)
  1047  0000A6' C002' F005'        	movff	2+?___ftmul,(_measure_inductance$1204+2)
  1048  0000AA' C00A F003'         	movff	(c:10),0+(?___ftmul+03h)
  1049  0000AE' C00B F004'         	movff	(c:10+1),1+(?___ftmul+03h)
  1050  0000B2' C00C F005'         	movff	(c:10+2),2+(?___ftmul+03h)
  1051  0000B6' C00A F000'         	movff	(c:10),(?___ftmul)
  1052  0000BA' C00B F001'         	movff	(c:10+1),(?___ftmul+1)
  1053  0000BE' C00C F002'         	movff	(c:10+2),(?___ftmul+2)
  1054  0000C2' EC00' F000'        	call	___ftmul	;wreg free
  1055  0000C6' C000' F006'        	movff	0+?___ftmul,(_measure_inductance$1205)
  1056  0000CA' C001' F007'        	movff	1+?___ftmul,(_measure_inductance$1205+1)
  1057  0000CE' C002' F008'        	movff	2+?___ftmul,(_measure_inductance$1205+2)
  1058  0000D2' C006' F003'        	movff	(_measure_inductance$1205),0+(?___ftsub+0
                                 3h)
  1059  0000D6' C007' F004'        	movff	(_measure_inductance$1205+1),1+(?___ftsub
                                 +03h)
  1060  0000DA' C008' F005'        	movff	(_measure_inductance$1205+2),2+(?___ftsub
                                 +03h)
  1061  0000DE' C003' F000'        	movff	(_measure_inductance$1204),(?___ftsub)
  1062  0000E2' C004' F001'        	movff	(_measure_inductance$1204+1),(?___ftsub+1
                                 )
  1063  0000E6' C005' F002'        	movff	(_measure_inductance$1204+2),(?___ftsub+2
                                 )
  1064  0000EA' EC00' F000'        	call	___ftsub	;wreg free
  1065  0000EE' C000' F009'        	movff	0+?___ftsub,(_measure_inductance$1206)
  1066  0000F2' C001' F00A'        	movff	1+?___ftsub,(_measure_inductance$1206+1)
  1067  0000F6' C002' F00B'        	movff	2+?___ftsub,(_measure_inductance$1206+2)
  1068  0000FA' C00D F003'         	movff	(c:13),0+(?___ftsub+03h)
  1069  0000FE' C00E F004'         	movff	(c:13+1),1+(?___ftsub+03h)
  1070  000102' C00F F005'         	movff	(c:13+2),2+(?___ftsub+03h)
  1071  000106' C00D F000'         	movff	(c:13),(?___ftsub)
  1072  00010A' C00E F001'         	movff	(c:13+1),(?___ftsub+1)
  1073  00010E' C00F F002'         	movff	(c:13+2),(?___ftsub+2)
  1074  000112' EC00' F000'        	call	___ftsub	;wreg free
  1075  000116' C000' F003'        	movff	0+?___ftsub,0+(?___ftsub+03h)
  1076  00011A' C001' F004'        	movff	1+?___ftsub,1+(?___ftsub+03h)
  1077  00011E' C002' F005'        	movff	2+?___ftsub,2+(?___ftsub+03h)
  1078  000122' C000' F000'        	movff	(_measure_inductance$1203),(?___ftsub)
  1079  000126' C001' F001'        	movff	(_measure_inductance$1203+1),(?___ftsub+1
                                 )
  1080  00012A' C002' F002'        	movff	(_measure_inductance$1203+2),(?___ftsub+2
                                 )
  1081  00012E' EC00' F000'        	call	___ftsub	;wreg free
  1082  000132' C000' F003'        	movff	0+?___ftsub,0+(?___ftmul+03h)
  1083  000136' C001' F004'        	movff	1+?___ftsub,1+(?___ftmul+03h)
  1084  00013A' C002' F005'        	movff	2+?___ftsub,2+(?___ftmul+03h)
  1085  00013E' C009' F000'        	movff	(_measure_inductance$1206),(?___ftmul)
  1086  000142' C00A' F001'        	movff	(_measure_inductance$1206+1),(?___ftmul+1
                                 )
  1087  000146' C00B' F002'        	movff	(_measure_inductance$1206+2),(?___ftmul+2
                                 )
  1088  00014A' EC00' F000'        	call	___ftmul	;wreg free
  1089  00014E' C000' F000'        	movff	0+?___ftmul,(?___ftmul)
  1090  000152' C001' F001'        	movff	1+?___ftmul,(?___ftmul+1)
  1091  000156' C002' F002'        	movff	2+?___ftmul,(?___ftmul+2)
  1092  00015A' 0E40               	movlw	low(float24(10000.000000000000))
  1093  00015C' 0101               	movlb	1	; () banked
  1094  00015E' 0101               	movlb	1	; () banked
  1095  000160' 6F00'              	movwf	(0+(?___ftmul+03h))&0ffh
  1096  000162' 0E1C               	movlw	high(float24(10000.000000000000))
  1097  000164' 0101               	movlb	1	; () banked
  1098  000166' 0101               	movlb	1	; () banked
  1099  000168' 6F00'              	movwf	(1+(?___ftmul+03h))&0ffh
  1100  00016A' 0E46               	movlw	low highword(float24(10000.000000000000))
  1101  00016C' 0101               	movlb	1	; () banked
  1102  00016E' 0101               	movlb	1	; () banked
  1103  000170' 6F00'              	movwf	(2+(?___ftmul+03h))&0ffh
  1104                           
  1105  000172' EC00' F000'        	call	___ftmul	;wreg free
  1106  000176' C000' F012'        	movff	0+?___ftmul,(measure_inductance@numerator
                                 )
  1107  00017A' C001' F013'        	movff	1+?___ftmul,(measure_inductance@numerator
                                 +1)
  1108  00017E' C002' F014'        	movff	2+?___ftmul,(measure_inductance@numerator
                                 +2)
  1109                           	line	487
  1110                           ;LC-meter.c: 487: denominator = 4 * 3.1415926535
                                 8979323846l * 3.14159265358979323846l * F1 * F1 
                                 * F2 * F2 * F3 * F3 * CCal;
  1111  000182' C007 F003'         	movff	(c:7),0+(?___ftmul+03h)
  1112  000186' C008 F004'         	movff	(c:7+1),1+(?___ftmul+03h)
  1113  00018A' C009 F005'         	movff	(c:7+2),2+(?___ftmul+03h)
  1114  00018E' C007 F000'         	movff	(c:7),(?___ftmul)
  1115  000192' C008 F001'         	movff	(c:7+1),(?___ftmul+1)
  1116  000196' C009 F002'         	movff	(c:7+2),(?___ftmul+2)
  1117  00019A' EC00' F000'        	call	___ftmul	;wreg free
  1118  00019E' C000' F000'        	movff	0+?___ftmul,(?___ftmul)
  1119  0001A2' C001' F001'        	movff	1+?___ftmul,(?___ftmul+1)
  1120  0001A6' C002' F002'        	movff	2+?___ftmul,(?___ftmul+2)
  1121  0001AA' C00D F003'         	movff	(c:13),0+(?___ftmul+03h)
  1122  0001AE' C00E F004'         	movff	(c:13+1),1+(?___ftmul+03h)
  1123  0001B2' C00F F005'         	movff	(c:13+2),2+(?___ftmul+03h)
  1124  0001B6' EC00' F000'        	call	___ftmul	;wreg free
  1125  0001BA' C000' F000'        	movff	0+?___ftmul,(?___ftmul)
  1126  0001BE' C001' F001'        	movff	1+?___ftmul,(?___ftmul+1)
  1127  0001C2' C002' F002'        	movff	2+?___ftmul,(?___ftmul+2)
  1128  0001C6' C00D F003'         	movff	(c:13),0+(?___ftmul+03h)
  1129  0001CA' C00E F004'         	movff	(c:13+1),1+(?___ftmul+03h)
  1130  0001CE' C00F F005'         	movff	(c:13+2),2+(?___ftmul+03h)
  1131  0001D2' EC00' F000'        	call	___ftmul	;wreg free
  1132  0001D6' C000' F000'        	movff	0+?___ftmul,(?___ftmul)
  1133  0001DA' C001' F001'        	movff	1+?___ftmul,(?___ftmul+1)
  1134  0001DE' C002' F002'        	movff	2+?___ftmul,(?___ftmul+2)
  1135  0001E2' C00A F003'         	movff	(c:10),0+(?___ftmul+03h)
  1136  0001E6' C00B F004'         	movff	(c:10+1),1+(?___ftmul+03h)
  1137  0001EA' C00C F005'         	movff	(c:10+2),2+(?___ftmul+03h)
  1138  0001EE' EC00' F000'        	call	___ftmul	;wreg free
  1139  0001F2' C000' F000'        	movff	0+?___ftmul,(?___ftmul)
  1140  0001F6' C001' F001'        	movff	1+?___ftmul,(?___ftmul+1)
  1141  0001FA' C002' F002'        	movff	2+?___ftmul,(?___ftmul+2)
  1142  0001FE' C00A F003'         	movff	(c:10),0+(?___ftmul+03h)
  1143  000202' C00B F004'         	movff	(c:10+1),1+(?___ftmul+03h)
  1144  000206' C00C F005'         	movff	(c:10+2),2+(?___ftmul+03h)
  1145  00020A' EC00' F000'        	call	___ftmul	;wreg free
  1146  00020E' C000' F000'        	movff	0+?___ftmul,(?___ftmul)
  1147  000212' C001' F001'        	movff	1+?___ftmul,(?___ftmul+1)
  1148  000216' C002' F002'        	movff	2+?___ftmul,(?___ftmul+2)
  1149  00021A' C000 F003'         	movff	(c:0),0+(?___ftmul+03h)
  1150  00021E' C001 F004'         	movff	(c:0+1),1+(?___ftmul+03h)
  1151  000222' C002 F005'         	movff	(c:0+2),2+(?___ftmul+03h)
  1152  000226' EC00' F000'        	call	___ftmul	;wreg free
  1153  00022A' C000' F000'        	movff	0+?___ftmul,(?___ftmul)
  1154  00022E' C001' F001'        	movff	1+?___ftmul,(?___ftmul+1)
  1155  000232' C002' F002'        	movff	2+?___ftmul,(?___ftmul+2)
  1156  000236' 0EEA               	movlw	low(float24(39.478417604357432))
  1157  000238' 0101               	movlb	1	; () banked
  1158  00023A' 0101               	movlb	1	; () banked
  1159  00023C' 6F00'              	movwf	(0+(?___ftmul+03h))&0ffh
  1160  00023E' 0E1D               	movlw	high(float24(39.478417604357432))
  1161  000240' 0101               	movlb	1	; () banked
  1162  000242' 0101               	movlb	1	; () banked
  1163  000244' 6F00'              	movwf	(1+(?___ftmul+03h))&0ffh
  1164  000246' 0E42               	movlw	low highword(float24(39.478417604357432))
  1165  000248' 0101               	movlb	1	; () banked
  1166  00024A' 0101               	movlb	1	; () banked
  1167  00024C' 6F00'              	movwf	(2+(?___ftmul+03h))&0ffh
  1168                           
  1169  00024E' EC00' F000'        	call	___ftmul	;wreg free
  1170  000252' C000' F00F'        	movff	0+?___ftmul,(measure_inductance@denominat
                                 or)
  1171  000256' C001' F010'        	movff	1+?___ftmul,(measure_inductance@denominat
                                 or+1)
  1172  00025A' C002' F011'        	movff	2+?___ftmul,(measure_inductance@denominat
                                 or+2)
  1173                           	line	489
  1174                           ;LC-meter.c: 489: Lin = (numerator / denominator
                                 ) * 1e+15l;
  1175  00025E' C00F' F003'        	movff	(measure_inductance@denominator),0+(?___f
                                 tdiv+03h)
  1176  000262' C010' F004'        	movff	(measure_inductance@denominator+1),1+(?__
                                 _ftdiv+03h)
  1177  000266' C011' F005'        	movff	(measure_inductance@denominator+2),2+(?__
                                 _ftdiv+03h)
  1178  00026A' C012' F000'        	movff	(measure_inductance@numerator),(?___ftdiv
                                 )
  1179  00026E' C013' F001'        	movff	(measure_inductance@numerator+1),(?___ftd
                                 iv+1)
  1180  000272' C014' F002'        	movff	(measure_inductance@numerator+2),(?___ftd
                                 iv+2)
  1181  000276' EC00' F000'        	call	___ftdiv	;wreg free
  1182  00027A' C000' F000'        	movff	0+?___ftdiv,(?___ftmul)
  1183  00027E' C001' F001'        	movff	1+?___ftdiv,(?___ftmul+1)
  1184  000282' C002' F002'        	movff	2+?___ftdiv,(?___ftmul+2)
  1185  000286' 0E60               	movlw	low(float24(1000000000000000.0))
  1186  000288' 0101               	movlb	1	; () banked
  1187  00028A' 0101               	movlb	1	; () banked
  1188  00028C' 6F00'              	movwf	(0+(?___ftmul+03h))&0ffh
  1189  00028E' 0E63               	movlw	high(float24(1000000000000000.0))
  1190  000290' 0101               	movlb	1	; () banked
  1191  000292' 0101               	movlb	1	; () banked
  1192  000294' 6F00'              	movwf	(1+(?___ftmul+03h))&0ffh
  1193  000296' 0E58               	movlw	low highword(float24(1000000000000000.0))
  1194  000298' 0101               	movlb	1	; () banked
  1195  00029A' 0101               	movlb	1	; () banked
  1196  00029C' 6F00'              	movwf	(2+(?___ftmul+03h))&0ffh
  1197                           
  1198  00029E' EC00' F000'        	call	___ftmul	;wreg free
  1199  0002A2' C000' F015'        	movff	0+?___ftmul,(measure_inductance@Lin)
  1200  0002A6' C001' F016'        	movff	1+?___ftmul,(measure_inductance@Lin+1)
  1201  0002AA' C002' F017'        	movff	2+?___ftmul,(measure_inductance@Lin+2)
  1202                           	line	491
  1203                           ;LC-meter.c: 491: if(Lin > 999) {
  1204  0002AE' C015' F003'        	movff	(measure_inductance@Lin),0+(?___ftge+03h)
  1205  0002B2' C016' F004'        	movff	(measure_inductance@Lin+1),1+(?___ftge+03
                                 h)
  1206  0002B6' C017' F005'        	movff	(measure_inductance@Lin+2),2+(?___ftge+03
                                 h)
  1207  0002BA' 0EC0               	movlw	low(float24(999.00000000000000))
  1208  0002BC' 0101               	movlb	1	; () banked
  1209  0002BE' 0101               	movlb	1	; () banked
  1210  0002C0' 6F00'              	movwf	((?___ftge))&0ffh
  1211  0002C2' 0E79               	movlw	high(float24(999.00000000000000))
  1212  0002C4' 0101               	movlb	1	; () banked
  1213  0002C6' 0101               	movlb	1	; () banked
  1214  0002C8' 6F00'              	movwf	((?___ftge+1))&0ffh
  1215  0002CA' 0E44               	movlw	low highword(float24(999.00000000000000))
  1216  0002CC' 0101               	movlb	1	; () banked
  1217  0002CE' 0101               	movlb	1	; () banked
  1218  0002D0' 6F00'              	movwf	((?___ftge+2))&0ffh
  1219                           
  1220  0002D2' EC00' F000'        	call	___ftge	;wreg free
  1221  0002D6' B0D8               	btfsc	status,0
  1222  0002D8' EF00' F000'        	goto	u2181
  1223  0002DC' EF00' F000'        	goto	u2180
  1224  0002E0'                    u2181:
  1225  0002E0' EF00' F000'        	goto	l600
  1226  0002E4'                    u2180:
  1227                           	line	492
  1228                           ;LC-meter.c: 492: if(Lin > (999e+03l)) {
  1229  0002E4' C015' F003'        	movff	(measure_inductance@Lin),0+(?___ftge+03h)
  1230  0002E8' C016' F004'        	movff	(measure_inductance@Lin+1),1+(?___ftge+03
                                 h)
  1231  0002EC' C017' F005'        	movff	(measure_inductance@Lin+2),2+(?___ftge+03
                                 h)
  1232  0002F0' 0EE6               	movlw	low(float24(999000.00000000000))
  1233  0002F2' 0101               	movlb	1	; () banked
  1234  0002F4' 0101               	movlb	1	; () banked
  1235  0002F6' 6F00'              	movwf	((?___ftge))&0ffh
  1236  0002F8' 0E73               	movlw	high(float24(999000.00000000000))
  1237  0002FA' 0101               	movlb	1	; () banked
  1238  0002FC' 0101               	movlb	1	; () banked
  1239  0002FE' 6F00'              	movwf	((?___ftge+1))&0ffh
  1240  000300' 0E49               	movlw	low highword(float24(999000.00000000000))
  1241  000302' 0101               	movlb	1	; () banked
  1242  000304' 0101               	movlb	1	; () banked
  1243  000306' 6F00'              	movwf	((?___ftge+2))&0ffh
  1244                           
  1245  000308' EC00' F000'        	call	___ftge	;wreg free
  1246  00030C' B0D8               	btfsc	status,0
  1247  00030E' EF00' F000'        	goto	u2191
  1248  000312' EF00' F000'        	goto	u2190
  1249  000316'                    u2191:
  1250  000316' EF00' F000'        	goto	l601
  1251  00031A'                    u2190:
  1252                           	line	493
  1253                           ;LC-meter.c: 493: if(Lin > (999e+06l)) {
  1254  00031A' C015' F003'        	movff	(measure_inductance@Lin),0+(?___ftge+03h)
  1255  00031E' C016' F004'        	movff	(measure_inductance@Lin+1),1+(?___ftge+03
                                 h)
  1256  000322' C017' F005'        	movff	(measure_inductance@Lin+2),2+(?___ftge+03
                                 h)
  1257  000326' 0E2E               	movlw	low(float24(999000000.00000000))
  1258  000328' 0101               	movlb	1	; () banked
  1259  00032A' 0101               	movlb	1	; () banked
  1260  00032C' 6F00'              	movwf	((?___ftge))&0ffh
  1261  00032E' 0E6E               	movlw	high(float24(999000000.00000000))
  1262  000330' 0101               	movlb	1	; () banked
  1263  000332' 0101               	movlb	1	; () banked
  1264  000334' 6F00'              	movwf	((?___ftge+1))&0ffh
  1265  000336' 0E4E               	movlw	low highword(float24(999000000.00000000))
  1266  000338' 0101               	movlb	1	; () banked
  1267  00033A' 0101               	movlb	1	; () banked
  1268  00033C' 6F00'              	movwf	((?___ftge+2))&0ffh
  1269                           
  1270  00033E' EC00' F000'        	call	___ftge	;wreg free
  1271  000342' B0D8               	btfsc	status,0
  1272  000344' EF00' F000'        	goto	u2201
  1273  000348' EF00' F000'        	goto	u2200
  1274  00034C'                    u2201:
  1275  00034C' EF00' F000'        	goto	l602
  1276  000350'                    u2200:
  1277                           	line	494
  1278                           ;LC-meter.c: 494: Lin = Lin / (1e+09l);
  1279  000350' 0E6B               	movlw	low(float24(1000000000.0000000))
  1280  000352' 0101               	movlb	1	; () banked
  1281  000354' 0101               	movlb	1	; () banked
  1282  000356' 6F00'              	movwf	(0+(?___ftdiv+03h))&0ffh
  1283  000358' 0E6E               	movlw	high(float24(1000000000.0000000))
  1284  00035A' 0101               	movlb	1	; () banked
  1285  00035C' 0101               	movlb	1	; () banked
  1286  00035E' 6F00'              	movwf	(1+(?___ftdiv+03h))&0ffh
  1287  000360' 0E4E               	movlw	low highword(float24(1000000000.0000000))
  1288  000362' 0101               	movlb	1	; () banked
  1289  000364' 0101               	movlb	1	; () banked
  1290  000366' 6F00'              	movwf	(2+(?___ftdiv+03h))&0ffh
  1291                           
  1292  000368' C015' F000'        	movff	(measure_inductance@Lin),(?___ftdiv)
  1293  00036C' C016' F001'        	movff	(measure_inductance@Lin+1),(?___ftdiv+1)
  1294  000370' C017' F002'        	movff	(measure_inductance@Lin+2),(?___ftdiv+2)
  1295  000374' EC00' F000'        	call	___ftdiv	;wreg free
  1296  000378' C000' F015'        	movff	0+?___ftdiv,(measure_inductance@Lin)
  1297  00037C' C001' F016'        	movff	1+?___ftdiv,(measure_inductance@Lin+1)
  1298  000380' C002' F017'        	movff	2+?___ftdiv,(measure_inductance@Lin+2)
  1299                           	line	495
  1300                           ;LC-meter.c: 495: unit = 0;
  1301  000384' 0101               	movlb	1	; () banked
  1302  000386' 6F00'              	movwf	(??_measure_inductance+24+0)&0ffh
  1303  000388' 0E00               	movlw	low(0)
  1304  00038A' 0101               	movlb	1	; () banked
  1305  00038C' 0101               	movlb	1	; () banked
  1306  00038E' 6F00'              	movwf	((measure_inductance@unit))&0ffh
  1307  000390' 0101               	movlb	1	; () banked
  1308  000392' 5100'              	movf	(??_measure_inductance+24+0)&0ffh,w
  1309                           	line	496
  1310                           ;LC-meter.c: 496: } else {
  1311  000394' EF00' F000'        	goto	l603
  1312                           	
  1313  000398'                    l602:		; BSR set to: ?
  1314                           
  1315                           	line	497
  1316                           ;LC-meter.c: 497: Lin = Lin / (1e+06l);
  1317  000398' 0E24               	movlw	low(float24(1000000.0000000000))
  1318  00039A' 0101               	movlb	1	; () banked
  1319  00039C' 0101               	movlb	1	; () banked
  1320  00039E' 6F00'              	movwf	(0+(?___ftdiv+03h))&0ffh
  1321  0003A0' 0E74               	movlw	high(float24(1000000.0000000000))
  1322  0003A2' 0101               	movlb	1	; () banked
  1323  0003A4' 0101               	movlb	1	; () banked
  1324  0003A6' 6F00'              	movwf	(1+(?___ftdiv+03h))&0ffh
  1325  0003A8' 0E49               	movlw	low highword(float24(1000000.0000000000))
  1326  0003AA' 0101               	movlb	1	; () banked
  1327  0003AC' 0101               	movlb	1	; () banked
  1328  0003AE' 6F00'              	movwf	(2+(?___ftdiv+03h))&0ffh
  1329                           
  1330  0003B0' C015' F000'        	movff	(measure_inductance@Lin),(?___ftdiv)
  1331  0003B4' C016' F001'        	movff	(measure_inductance@Lin+1),(?___ftdiv+1)
  1332  0003B8' C017' F002'        	movff	(measure_inductance@Lin+2),(?___ftdiv+2)
  1333  0003BC' EC00' F000'        	call	___ftdiv	;wreg free
  1334  0003C0' C000' F015'        	movff	0+?___ftdiv,(measure_inductance@Lin)
  1335  0003C4' C001' F016'        	movff	1+?___ftdiv,(measure_inductance@Lin+1)
  1336  0003C8' C002' F017'        	movff	2+?___ftdiv,(measure_inductance@Lin+2)
  1337                           	line	498
  1338                           ;LC-meter.c: 498: unit = 1;
  1339  0003CC' 0101               	movlb	1	; () banked
  1340  0003CE' 6F00'              	movwf	(??_measure_inductance+24+0)&0ffh
  1341  0003D0' 0E01               	movlw	low(01h)
  1342  0003D2' 0101               	movlb	1	; () banked
  1343  0003D4' 0101               	movlb	1	; () banked
  1344  0003D6' 6F00'              	movwf	((measure_inductance@unit))&0ffh
  1345  0003D8' 0101               	movlb	1	; () banked
  1346  0003DA' 5100'              	movf	(??_measure_inductance+24+0)&0ffh,w
  1347                           	line	499
  1348                           	
  1349  0003DC'                    l603:		; BSR set to: ?
  1350                           
  1351                           	line	500
  1352                           ;LC-meter.c: 499: }
  1353                           ;LC-meter.c: 500: } else {
  1354  0003DC' EF00' F000'        	goto	l604
  1355                           	
  1356  0003E0'                    l601:		; BSR set to: ?
  1357                           
  1358                           	line	501
  1359                           ;LC-meter.c: 501: Lin = Lin / 1e+03l;
  1360  0003E0' 0E00               	movlw	low(float24(1000.0000000000000))
  1361  0003E2' 0101               	movlb	1	; () banked
  1362  0003E4' 0101               	movlb	1	; () banked
  1363  0003E6' 6F00'              	movwf	(0+(?___ftdiv+03h))&0ffh
  1364  0003E8' 0E7A               	movlw	high(float24(1000.0000000000000))
  1365  0003EA' 0101               	movlb	1	; () banked
  1366  0003EC' 0101               	movlb	1	; () banked
  1367  0003EE' 6F00'              	movwf	(1+(?___ftdiv+03h))&0ffh
  1368  0003F0' 0E44               	movlw	low highword(float24(1000.0000000000000))
  1369  0003F2' 0101               	movlb	1	; () banked
  1370  0003F4' 0101               	movlb	1	; () banked
  1371  0003F6' 6F00'              	movwf	(2+(?___ftdiv+03h))&0ffh
  1372                           
  1373  0003F8' C015' F000'        	movff	(measure_inductance@Lin),(?___ftdiv)
  1374  0003FC' C016' F001'        	movff	(measure_inductance@Lin+1),(?___ftdiv+1)
  1375  000400' C017' F002'        	movff	(measure_inductance@Lin+2),(?___ftdiv+2)
  1376  000404' EC00' F000'        	call	___ftdiv	;wreg free
  1377  000408' C000' F015'        	movff	0+?___ftdiv,(measure_inductance@Lin)
  1378  00040C' C001' F016'        	movff	1+?___ftdiv,(measure_inductance@Lin+1)
  1379  000410' C002' F017'        	movff	2+?___ftdiv,(measure_inductance@Lin+2)
  1380                           	line	502
  1381                           ;LC-meter.c: 502: unit = 2;
  1382  000414' 0101               	movlb	1	; () banked
  1383  000416' 6F00'              	movwf	(??_measure_inductance+24+0)&0ffh
  1384  000418' 0E02               	movlw	low(02h)
  1385  00041A' 0101               	movlb	1	; () banked
  1386  00041C' 0101               	movlb	1	; () banked
  1387  00041E' 6F00'              	movwf	((measure_inductance@unit))&0ffh
  1388  000420' 0101               	movlb	1	; () banked
  1389  000422' 5100'              	movf	(??_measure_inductance+24+0)&0ffh,w
  1390                           	line	503
  1391                           	
  1392  000424'                    l604:		; BSR set to: ?
  1393                           
  1394                           	line	504
  1395                           ;LC-meter.c: 503: }
  1396                           ;LC-meter.c: 504: } else
  1397  000424' EF00' F000'        	goto	l605
  1398                           	
  1399  000428'                    l600:		; BSR set to: ?
  1400                           
  1401                           	line	505
  1402                           ;LC-meter.c: 505: unit = 3;
  1403  000428' 0101               	movlb	1	; () banked
  1404  00042A' 6F00'              	movwf	(??_measure_inductance+24+0)&0ffh
  1405  00042C' 0E03               	movlw	low(03h)
  1406  00042E' 0101               	movlb	1	; () banked
  1407  000430' 0101               	movlb	1	; () banked
  1408  000432' 6F00'              	movwf	((measure_inductance@unit))&0ffh
  1409  000434' 0101               	movlb	1	; () banked
  1410  000436' 5100'              	movf	(??_measure_inductance+24+0)&0ffh,w
  1411                           	
  1412  000438'                    l605:		; BSR set to: ?
  1413                           
  1414                           	line	507
  1415                           ;LC-meter.c: 507: Lin = Lin * 100;
  1416  000438' 0E00               	movlw	low(float24(100.00000000000000))
  1417  00043A' 0101               	movlb	1	; () banked
  1418  00043C' 0101               	movlb	1	; () banked
  1419  00043E' 6F00'              	movwf	(0+(?___ftmul+03h))&0ffh
  1420  000440' 0EC8               	movlw	high(float24(100.00000000000000))
  1421  000442' 0101               	movlb	1	; () banked
  1422  000444' 0101               	movlb	1	; () banked
  1423  000446' 6F00'              	movwf	(1+(?___ftmul+03h))&0ffh
  1424  000448' 0E42               	movlw	low highword(float24(100.00000000000000))
  1425  00044A' 0101               	movlb	1	; () banked
  1426  00044C' 0101               	movlb	1	; () banked
  1427  00044E' 6F00'              	movwf	(2+(?___ftmul+03h))&0ffh
  1428                           
  1429  000450' C015' F000'        	movff	(measure_inductance@Lin),(?___ftmul)
  1430  000454' C016' F001'        	movff	(measure_inductance@Lin+1),(?___ftmul+1)
  1431  000458' C017' F002'        	movff	(measure_inductance@Lin+2),(?___ftmul+2)
  1432  00045C' EC00' F000'        	call	___ftmul	;wreg free
  1433  000460' C000' F015'        	movff	0+?___ftmul,(measure_inductance@Lin)
  1434  000464' C001' F016'        	movff	1+?___ftmul,(measure_inductance@Lin+1)
  1435  000468' C002' F017'        	movff	2+?___ftmul,(measure_inductance@Lin+2)
  1436                           	line	508
  1437                           ;LC-meter.c: 508: var = (unsigned short int)Lin;
  1438  00046C' C015' F000'        	movff	(measure_inductance@Lin),(?___fttol)
  1439  000470' C016' F001'        	movff	(measure_inductance@Lin+1),(?___fttol+1)
  1440  000474' C017' F002'        	movff	(measure_inductance@Lin+2),(?___fttol+2)
  1441  000478' EC00' F000'        	call	___fttol	;wreg free
  1442  00047C' C000' F00D'        	movff	0+?___fttol,(measure_inductance@var)
  1443  000480' C001' F00E'        	movff	1+?___fttol,(measure_inductance@var+1)
  1444                           	line	510
  1445                           ;LC-meter.c: 510: print_reading(var);
  1446  000484' C00D' F000'        	movff	(measure_inductance@var),(?_print_reading
                                 )
  1447  000488' C00E' F001'        	movff	(measure_inductance@var+1),(?_print_readi
                                 ng+1)
  1448  00048C' EC00' F000'        	call	_print_reading	;wreg free
  1449                           	line	511
  1450                           ;LC-meter.c: 511: print_unit(unit);
  1451  000490' C00C' F000'        	movff	(measure_inductance@unit),(?_print_unit)
  1452  000494' EC00' F000'        	call	_print_unit	;wreg free
  1453                           	line	512
  1454                           ;LC-meter.c: 512: }
  1455  000498'                    l598:
  1456                           			; BSR set to: ?
  1457                           
  1458  000498' 0012               	return
  1459                           	opt stack 0
  1460                           GLOBAL __end_of_measure_inductance
  1461  00049A'                    	__end_of_measure_inductance:
  1462                           	FNSIZE	_measure_inductance,25,0
  1463                           ; =============== function _measure_inductance e
                                 nds ============
  1464                           
  1465                           	signat	_measure_inductance,88
  1466                           	global	_indicator
  1467                           	global	??_indicator
  1468                           	global	?_indicator
  1469                           
  1470                           ; *************** function _indicator **********
                                 *******
  1471                           ; Defined at:
  1472                           ;		line 469 in file "../../../src/print.c"
  1473                           ; Parameters:
  1474                           ;		indicate       size:   1offs:   0	type: unsig
                                 ned char 
  1475                           ; Auto variables:
  1476                           ;		None
  1477                           ; Return value:
  1478                           ;		type: void 
  1479                           ;		size: 0
  1480                           ; Registers used:
  1481                           ;		None
  1482                           ; Tracked objects:
  1483                           ;		On entry : 0/0
  1484                           ;		On exit  : 0/0
  1485                           ;		Unchanged: 0/0
  1486                           ; Data sizes:
  1487                           ;		Autos:    0
  1488                           ;		Params:   1
  1489                           ;		Temp:     0
  1490                           ;		Total:    1
  1491                           ; This function calls:
  1492                           ;		Nothing
  1493                           ; This function is called by:
  1494                           ;		_main
  1495                           ; This function uses a non-reentrant model
  1496                           ; 
  1497                                   psect   text3,class=CODE,space=0,reloc=2
  1498                           
  1499                           	opt lm
  1500                           	file	"../../../src/print.c"
  1501                           	line	469
  1502  000000                     	__size_of_indicator	equ	__end_of_indicator-_ind
                                 icator
  1503                           ;print.c: 468: void
  1504                           ;print.c: 469: indicator(unsigned char indicate)
                                  {
  1505                           	
  1506  000000'                    _indicator:		; BSR set to: ?
  1507                           
  1508                           	opt stack 29
  1509                           	line	490
  1510  000000'                    l806:
  1511                           			; BSR set to: ?
  1512                           
  1513  000000' 0012               	return
  1514                           	opt stack 0
  1515                           GLOBAL __end_of_indicator
  1516  000002'                    	__end_of_indicator:
  1517                           	FNSIZE	_indicator,0,1
  1518                           ; =============== function _indicator ends =====
                                 =======
  1519                           
  1520                           	signat	_indicator,4216
  1521                           	global	_calibrate
  1522                           	global	??_calibrate
  1523                           	global	?_calibrate
  1524                           
  1525                           ; *************** function _calibrate **********
                                 *******
  1526                           ; Defined at:
  1527                           ;		line 346 in file "../../../src/LC-meter.c"
  1528                           ; Parameters:
  1529                           ;		None
  1530                           ; Auto variables:
  1531                           ;		i           	       	type: unsigned char 
  1532                           ; Return value:
  1533                           ;		type: void 
  1534                           ;		size: 0
  1535                           ; Registers used:
  1536                           ;		wreg, fsr0l, fsr0h, fsr1l, fsr1h, fsr2l, fsr2
                                 h, status,2, status,0, pclat, tosl, structret, t
                                 blptrl, tblptrh, tblptru, tablat, prodl, prodh, 
                                 bsr, cstack
  1537                           ; Tracked objects:
  1538                           ;		On entry : 0/0
  1539                           ;		On exit  : 0/0
  1540                           ;		Unchanged: 0/0
  1541                           ; Data sizes:
  1542                           ;		Autos:    0
  1543                           ;		Params:   0
  1544                           ;		Temp:     0
  1545                           ;		Total:    0
  1546                           ; This function calls:
  1547                           ;		_measure_freq
  1548                           ;		___lwtoft
  1549                           ;		_delay10ms
  1550                           ;		_ser_puts
  1551                           ; This function is called by:
  1552                           ;		_main
  1553                           ; This function uses a non-reentrant model
  1554                           ; 
  1555                                   psect   text4,class=CODE,space=0,reloc=2
  1556                           
  1557                           	opt lm
  1558                           	file	"../../../src/LC-meter.c"
  1559                           	line	346
  1560  000000                     	__size_of_calibrate	equ	__end_of_calibrate-_cal
                                 ibrate
  1561                           ;LC-meter.c: 345: void
  1562                           ;LC-meter.c: 346: calibrate() {
  1563                           	
  1564  000000'                    _calibrate:		; BSR set to: ?
  1565                           
  1566                           	opt stack 29
  1567                           	line	360
  1568  000000' 9A82               	bcf	(0+(5/8)+(c:3970)),c,(5)&7	;volatile
  1569                           	line	362
  1570                           ;LC-meter.c: 362: F1 = (double)measure_freq();
  1571  000002' EC00' F000'        	call	_measure_freq	;wreg free
  1572  000006' C000' F000'        	movff	0+?_measure_freq,(?___lwtoft)
  1573  00000A' C001' F001'        	movff	1+?_measure_freq,(?___lwtoft+1)
  1574  00000E' EC00' F000'        	call	___lwtoft	;wreg free
  1575  000012' C000' F007         	movff	0+?___lwtoft,(c:7)
  1576  000016' C001' F008         	movff	1+?___lwtoft,(c:7+1)
  1577  00001A' C002' F009         	movff	2+?___lwtoft,(c:7+2)
  1578                           	line	363
  1579                           ;LC-meter.c: 363: delay10ms(50);
  1580  00001E' 0E32               	movlw	low(032h)
  1581  000020' 0101               	movlb	1	; () banked
  1582  000022' 0101               	movlb	1	; () banked
  1583  000024' 6F00'              	movwf	((?_delay10ms))&0ffh
  1584  000026' 0E00               	movlw	high(032h)
  1585  000028' 0101               	movlb	1	; () banked
  1586  00002A' 6F00'              	movwf	((?_delay10ms+1))&0ffh
  1587  00002C' EC00' F000'        	call	_delay10ms	;wreg free
  1588                           	line	365
  1589                           ;LC-meter.c: 365: F1 = (double)measure_freq();
  1590  000030' EC00' F000'        	call	_measure_freq	;wreg free
  1591  000034' C000' F000'        	movff	0+?_measure_freq,(?___lwtoft)
  1592  000038' C001' F001'        	movff	1+?_measure_freq,(?___lwtoft+1)
  1593  00003C' EC00' F000'        	call	___lwtoft	;wreg free
  1594  000040' C000' F007         	movff	0+?___lwtoft,(c:7)
  1595  000044' C001' F008         	movff	1+?___lwtoft,(c:7+1)
  1596  000048' C002' F009         	movff	2+?___lwtoft,(c:7+2)
  1597                           	line	366
  1598                           ;LC-meter.c: 366: PORTC |= (1 << 5);
  1599  00004C' 8A82               	bsf	(0+(5/8)+(c:3970)),c,(5)&7	;volatile
  1600                           	line	368
  1601                           ;LC-meter.c: 368: F2 = (double)measure_freq();
  1602  00004E' EC00' F000'        	call	_measure_freq	;wreg free
  1603  000052' C000' F000'        	movff	0+?_measure_freq,(?___lwtoft)
  1604  000056' C001' F001'        	movff	1+?_measure_freq,(?___lwtoft+1)
  1605  00005A' EC00' F000'        	call	___lwtoft	;wreg free
  1606  00005E' C000' F00D         	movff	0+?___lwtoft,(c:13)
  1607  000062' C001' F00E         	movff	1+?___lwtoft,(c:13+1)
  1608  000066' C002' F00F         	movff	2+?___lwtoft,(c:13+2)
  1609                           	line	369
  1610                           ;LC-meter.c: 369: delay10ms(50);
  1611  00006A' 0E32               	movlw	low(032h)
  1612  00006C' 0101               	movlb	1	; () banked
  1613  00006E' 0101               	movlb	1	; () banked
  1614  000070' 6F00'              	movwf	((?_delay10ms))&0ffh
  1615  000072' 0E00               	movlw	high(032h)
  1616  000074' 0101               	movlb	1	; () banked
  1617  000076' 6F00'              	movwf	((?_delay10ms+1))&0ffh
  1618  000078' EC00' F000'        	call	_delay10ms	;wreg free
  1619                           	line	371
  1620                           ;LC-meter.c: 371: F2 = (double)measure_freq();
  1621  00007C' EC00' F000'        	call	_measure_freq	;wreg free
  1622  000080' C000' F000'        	movff	0+?_measure_freq,(?___lwtoft)
  1623  000084' C001' F001'        	movff	1+?_measure_freq,(?___lwtoft+1)
  1624  000088' EC00' F000'        	call	___lwtoft	;wreg free
  1625  00008C' C000' F00D         	movff	0+?___lwtoft,(c:13)
  1626  000090' C001' F00E         	movff	1+?___lwtoft,(c:13+1)
  1627  000094' C002' F00F         	movff	2+?___lwtoft,(c:13+2)
  1628                           	line	372
  1629                           ;LC-meter.c: 372: PORTC &= ~(1 << 5);
  1630  000098' 9A82               	bcf	(0+(5/8)+(c:3970)),c,(5)&7	;volatile
  1631                           	line	384
  1632                           ;LC-meter.c: 384: ser_puts("\r\n");
  1633  00009A' 0E00'              	movlw	low(STR_2)
  1634  00009C' 0101               	movlb	1	; () banked
  1635  00009E' 0101               	movlb	1	; () banked
  1636  0000A0' 6F00'              	movwf	((?_ser_puts))&0ffh
  1637  0000A2' 0E00'              	movlw	high(STR_2)
  1638  0000A4' 0101               	movlb	1	; () banked
  1639  0000A6' 6F00'              	movwf	((?_ser_puts+1))&0ffh
  1640  0000A8' EC00' F000'        	call	_ser_puts	;wreg free
  1641                           	line	385
  1642                           ;LC-meter.c: 385: }
  1643  0000AC'                    l589:
  1644                           			; BSR set to: ?
  1645                           
  1646  0000AC' 0012               	return
  1647                           	opt stack 0
  1648                           GLOBAL __end_of_calibrate
  1649  0000AE'                    	__end_of_calibrate:
  1650                           	FNSIZE	_calibrate,0,0
  1651                           ; =============== function _calibrate ends =====
                                 =======
  1652                           
  1653                           	signat	_calibrate,88
  1654                           	FNSIZE	_timer2_init,0,2
  1655                           	global	_timer2_init
  1656                           	global	??_timer2_init
  1657                           	global	?_timer2_init
  1658                           	global	___ftdiv
  1659                           	global	??___ftdiv
  1660                           	global	?___ftdiv
  1661                           
  1662                           ; *************** function ___ftdiv ************
                                 *****
  1663                           ; Defined at:
  1664                           ;		line 19 in file "C:\Program Files (x86)\HI-TE
                                 CH Software\PICC-18\PRO\9.66\sources\ftdiv.c"
  1665                           ; Parameters:
  1666                           ;		f1             size:   3offs:   0	type: float
                                  
  1667                           ;		f2             size:   3offs:   3	type: float
                                  
  1668                           ; Auto variables:
  1669                           ;		exp2        	       	type: unsigned char 
  1670                           ;		sign1       	       	type: unsigned char 
  1671                           ;		exp1        	       	type: unsigned char 
  1672                           ;		sign2       	       	type: unsigned char 
  1673                           ;		f3          	       	type: float 
  1674                           ; Return value:
  1675                           ;		type: float 
  1676                           ;		size: 3
  1677                           ; Registers used:
  1678                           ;		wreg, fsr0l, fsr0h, status,2, status,0, cstac
                                 k
  1679                           ; Tracked objects:
  1680                           ;		On entry : 0/0
  1681                           ;		On exit  : 0/0
  1682                           ;		Unchanged: 0/0
  1683                           ; Data sizes:
  1684                           ;		Autos:    7
  1685                           ;		Params:   6
  1686                           ;		Temp:     1
  1687                           ;		Total:   14
  1688                           ; This function calls:
  1689                           ;		___ftunpack
  1690                           ;		___ftpack
  1691                           ; This function is called by:
  1692                           ;		_measure_capacitance
  1693                           ;		_measure_inductance
  1694                           ;		_exp
  1695                           ; This function uses a non-reentrant model
  1696                           ; 
  1697                                   psect   text5,class=CODE,space=0,reloc=2
  1698                           
  1699                           	opt lm
  1700                           	file	"C:\Program Files (x86)\HI-TECH Software\P
                                 ICC-18\PRO\9.66\sources\ftdiv.c"
  1701                           	line	19
  1702  000000                     	__size_of___ftdiv	equ	__end_of___ftdiv-___ftdiv
  1703                           	
  1704  000000'                    ___ftdiv:		; BSR set to: ?
  1705                           
  1706                           	opt stack 28
  1707                           	line	23
  1708  000000' 0E00               	movlw	low(0)
  1709  000002' 0101               	movlb	1	; () banked
  1710  000004' 0101               	movlb	1	; () banked
  1711  000006' 6F00'              	movwf	((___ftdiv@f3))&0ffh
  1712  000008' 0E00               	movlw	high(0)
  1713  00000A' 0101               	movlb	1	; () banked
  1714  00000C' 0101               	movlb	1	; () banked
  1715  00000E' 6F00'              	movwf	((___ftdiv@f3+1))&0ffh
  1716  000010' 0E00               	movlw	low highword(0)
  1717  000012' 0101               	movlb	1	; () banked
  1718  000014' 0101               	movlb	1	; () banked
  1719  000016' 6F00'              	movwf	((___ftdiv@f3+2))&0ffh
  1720                           
  1721                           	line	24
  1722  000018' 0101               	movlb	1	; () banked
  1723  00001A' 0E00'              	movlw	low(___ftdiv@exp1)
  1724  00001C' 0101               	movlb	1	; () banked
  1725  00001E' 0101               	movlb	1	; () banked
  1726  000020' 6F00'              	movwf	(0+(?___ftunpack+02h))&0ffh
  1727  000022' 0101               	movlb	1	; () banked
  1728  000024' 0E00'              	movlw	high(___ftdiv@exp1)
  1729  000026' 0101               	movlb	1	; () banked
  1730  000028' 6F00'              	movwf	(1+(?___ftunpack+02h))&0ffh
  1731  00002A' 0101               	movlb	1	; () banked
  1732  00002C' 0E00'              	movlw	low(___ftdiv@f1)
  1733  00002E' 0101               	movlb	1	; () banked
  1734  000030' 0101               	movlb	1	; () banked
  1735  000032' 6F00'              	movwf	((?___ftunpack))&0ffh
  1736  000034' 0101               	movlb	1	; () banked
  1737  000036' 0E00'              	movlw	high(___ftdiv@f1)
  1738  000038' 0101               	movlb	1	; () banked
  1739  00003A' 6F00'              	movwf	((?___ftunpack+1))&0ffh
  1740  00003C' EC00' F000'        	call	___ftunpack	;wreg free
  1741  000040' 0101               	movlb	1	; () banked
  1742  000042' 0101               	movlb	1	; () banked
  1743  000044' 6F00'              	movwf	((___ftdiv@sign1))&0ffh
  1744                           	line	25
  1745  000046' 0101               	movlb	1	; () banked
  1746  000048' 0101               	movlb	1	; () banked
  1747  00004A' 6700'              	tstfsz	((___ftdiv@exp1))&0ffh
  1748  00004C' EF00' F000'        	goto	u2131
  1749  000050' EF00' F000'        	goto	u2130
  1750  000054'                    u2131:
  1751  000054' EF00' F000'        	goto	l1058
  1752  000058'                    u2130:
  1753                           	line	26
  1754  000058' C004' F000'        	movff	(___ftdiv@f3),(?___ftdiv)
  1755  00005C' C005' F001'        	movff	(___ftdiv@f3+1),(?___ftdiv+1)
  1756  000060' C006' F002'        	movff	(___ftdiv@f3+2),(?___ftdiv+2)
  1757  000064' EF00' F000'        	goto	l1057
  1758                           	
  1759  000068'                    l1058:		; BSR set to: ?
  1760                           
  1761                           	line	27
  1762  000068' 0101               	movlb	1	; () banked
  1763  00006A' 0E00'              	movlw	low(___ftdiv@exp2)
  1764  00006C' 0101               	movlb	1	; () banked
  1765  00006E' 0101               	movlb	1	; () banked
  1766  000070' 6F00'              	movwf	(0+(?___ftunpack+02h))&0ffh
  1767  000072' 0101               	movlb	1	; () banked
  1768  000074' 0E00'              	movlw	high(___ftdiv@exp2)
  1769  000076' 0101               	movlb	1	; () banked
  1770  000078' 6F00'              	movwf	(1+(?___ftunpack+02h))&0ffh
  1771  00007A' 0101               	movlb	1	; () banked
  1772  00007C' 0E00'              	movlw	low(___ftdiv@f2)
  1773  00007E' 0101               	movlb	1	; () banked
  1774  000080' 0101               	movlb	1	; () banked
  1775  000082' 6F00'              	movwf	((?___ftunpack))&0ffh
  1776  000084' 0101               	movlb	1	; () banked
  1777  000086' 0E00'              	movlw	high(___ftdiv@f2)
  1778  000088' 0101               	movlb	1	; () banked
  1779  00008A' 6F00'              	movwf	((?___ftunpack+1))&0ffh
  1780  00008C' EC00' F000'        	call	___ftunpack	;wreg free
  1781  000090' 0101               	movlb	1	; () banked
  1782  000092' 0101               	movlb	1	; () banked
  1783  000094' 6F00'              	movwf	((___ftdiv@sign2))&0ffh
  1784                           	line	28
  1785  000096' 0101               	movlb	1	; () banked
  1786  000098' 0101               	movlb	1	; () banked
  1787  00009A' 6700'              	tstfsz	((___ftdiv@exp2))&0ffh
  1788  00009C' EF00' F000'        	goto	u2141
  1789  0000A0' EF00' F000'        	goto	u2140
  1790  0000A4'                    u2141:
  1791  0000A4' EF00' F000'        	goto	l1059
  1792  0000A8'                    u2140:
  1793                           	line	29
  1794  0000A8' C004' F000'        	movff	(___ftdiv@f3),(?___ftdiv)
  1795  0000AC' C005' F001'        	movff	(___ftdiv@f3+1),(?___ftdiv+1)
  1796  0000B0' C006' F002'        	movff	(___ftdiv@f3+2),(?___ftdiv+2)
  1797  0000B4' EF00' F000'        	goto	l1057
  1798                           	
  1799  0000B8'                    l1059:		; BSR set to: ?
  1800                           
  1801                           	line	30
  1802  0000B8' 0101               	movlb	1	; () banked
  1803  0000BA' 0101               	movlb	1	; () banked
  1804  0000BC' 5100'              	movf	((___ftdiv@exp2))&0ffh,w
  1805  0000BE' 0F89               	addlw	low(089h)
  1806  0000C0' 0101               	movlb	1	; () banked
  1807  0000C2' 0101               	movlb	1	; () banked
  1808  0000C4' 5F00'              	subwf	((___ftdiv@exp1))&0ffh
  1809                           	line	31
  1810  0000C6' 0101               	movlb	1	; () banked
  1811  0000C8' 0101               	movlb	1	; () banked
  1812  0000CA' 5100'              	movf	((___ftdiv@sign2))&0ffh,w
  1813  0000CC' 0101               	movlb	1	; () banked
  1814  0000CE' 0101               	movlb	1	; () banked
  1815  0000D0' 1B00'              	xorwf	((___ftdiv@sign1))&0ffh
  1816                           	line	32
  1817  0000D2' 0101               	movlb	1	; () banked
  1818  0000D4' 6F00'              	movwf	(??___ftdiv+7+0)&0ffh
  1819  0000D6' 0E18               	movlw	low(018h)
  1820  0000D8' 0101               	movlb	1	; () banked
  1821  0000DA' 0101               	movlb	1	; () banked
  1822  0000DC' 6F00'              	movwf	((___ftdiv@sign2))&0ffh
  1823  0000DE' 0101               	movlb	1	; () banked
  1824  0000E0' 5100'              	movf	(??___ftdiv+7+0)&0ffh,w
  1825                           	line	33
  1826                           	
  1827  0000E2'                    l1062:		; BSR set to: ?
  1828                           
  1829                           	line	34
  1830  0000E2' 0101               	movlb	1	; () banked
  1831  0000E4' 90D8               	bcf	status,0
  1832  0000E6' 0101               	movlb	1	; () banked
  1833  0000E8' 3700'              	rlcf	((___ftdiv@f3))&0ffh
  1834  0000EA' 0101               	movlb	1	; () banked
  1835  0000EC' 3700'              	rlcf	((___ftdiv@f3+1))&0ffh
  1836  0000EE' 0101               	movlb	1	; () banked
  1837  0000F0' 3700'              	rlcf	((___ftdiv@f3+2))&0ffh
  1838                           	line	35
  1839  0000F2' 0101               	movlb	1	; () banked
  1840  0000F4' 0101               	movlb	1	; () banked
  1841  0000F6' 5100'              	movf	((___ftdiv@f2))&0ffh,w
  1842  0000F8' 0101               	movlb	1	; () banked
  1843  0000FA' 0101               	movlb	1	; () banked
  1844  0000FC' 5D00'              	subwf	((___ftdiv@f1))&0ffh,w
  1845  0000FE' 0101               	movlb	1	; () banked
  1846  000100' 0101               	movlb	1	; () banked
  1847  000102' 5100'              	movf	((___ftdiv@f2+1))&0ffh,w
  1848  000104' 0101               	movlb	1	; () banked
  1849  000106' 0101               	movlb	1	; () banked
  1850  000108' 5900'              	subwfb	((___ftdiv@f1+1))&0ffh,w
  1851  00010A' 0101               	movlb	1	; () banked
  1852  00010C' 0101               	movlb	1	; () banked
  1853  00010E' 5100'              	movf	((___ftdiv@f2+2))&0ffh,w
  1854  000110' 0101               	movlb	1	; () banked
  1855  000112' 0101               	movlb	1	; () banked
  1856  000114' 5900'              	subwfb	((___ftdiv@f1+2))&0ffh,w
  1857  000116' A0D8               	btfss	status,0
  1858  000118' EF00' F000'        	goto	u2151
  1859  00011C' EF00' F000'        	goto	u2150
  1860  000120'                    u2151:
  1861  000120' EF00' F000'        	goto	l1063
  1862  000124'                    u2150:
  1863                           	line	36
  1864  000124' 0101               	movlb	1	; () banked
  1865  000126' 0101               	movlb	1	; () banked
  1866  000128' 5100'              	movf	((___ftdiv@f2))&0ffh,w
  1867  00012A' 0101               	movlb	1	; () banked
  1868  00012C' 0101               	movlb	1	; () banked
  1869  00012E' 5F00'              	subwf	((___ftdiv@f1))&0ffh
  1870  000130' 0101               	movlb	1	; () banked
  1871  000132' 0101               	movlb	1	; () banked
  1872  000134' 5100'              	movf	((___ftdiv@f2+1))&0ffh,w
  1873  000136' 0101               	movlb	1	; () banked
  1874  000138' 0101               	movlb	1	; () banked
  1875  00013A' 5B00'              	subwfb	((___ftdiv@f1+1))&0ffh
  1876  00013C' 0101               	movlb	1	; () banked
  1877  00013E' 0101               	movlb	1	; () banked
  1878  000140' 5100'              	movf	((___ftdiv@f2+2))&0ffh,w
  1879  000142' 0101               	movlb	1	; () banked
  1880  000144' 0101               	movlb	1	; () banked
  1881  000146' 5B00'              	subwfb	((___ftdiv@f1+2))&0ffh
  1882                           
  1883                           	line	37
  1884  000148' 0101               	movlb	1	; () banked
  1885  00014A' 0101               	movlb	1	; () banked
  1886  00014C' 8100'              	bsf	(0+(0/8)+(___ftdiv@f3))&0ffh,(0)&7
  1887                           	line	38
  1888                           	
  1889  00014E'                    l1063:		; BSR set to: ?
  1890                           
  1891                           	line	39
  1892  00014E' 0101               	movlb	1	; () banked
  1893  000150' 90D8               	bcf	status,0
  1894  000152' 0101               	movlb	1	; () banked
  1895  000154' 3700'              	rlcf	((___ftdiv@f1))&0ffh
  1896  000156' 0101               	movlb	1	; () banked
  1897  000158' 3700'              	rlcf	((___ftdiv@f1+1))&0ffh
  1898  00015A' 0101               	movlb	1	; () banked
  1899  00015C' 3700'              	rlcf	((___ftdiv@f1+2))&0ffh
  1900                           	line	40
  1901  00015E' 0101               	movlb	1	; () banked
  1902  000160' 0101               	movlb	1	; () banked
  1903  000162' 2F00'              	decfsz	((___ftdiv@sign2))&0ffh
  1904                           	
  1905  000164' EF00' F000'        	goto	l1062
  1906                           	
  1907  000168'                    l1061:		; BSR set to: ?
  1908                           
  1909                           	line	41
  1910  000168' C002' F002'        	movff	(___ftdiv@exp1),0+(?___ftpack+02h)
  1911  00016C' 0101               	movlb	1	; () banked
  1912  00016E' 0E00'              	movlw	low(___ftdiv@f3)
  1913  000170' 0101               	movlb	1	; () banked
  1914  000172' 0101               	movlb	1	; () banked
  1915  000174' 6F00'              	movwf	((?___ftpack))&0ffh
  1916  000176' 0101               	movlb	1	; () banked
  1917  000178' 0E00'              	movlw	high(___ftdiv@f3)
  1918  00017A' 0101               	movlb	1	; () banked
  1919  00017C' 6F00'              	movwf	((?___ftpack+1))&0ffh
  1920  00017E' EC00' F000'        	call	___ftpack	;wreg free
  1921                           	line	42
  1922  000182' 0101               	movlb	1	; () banked
  1923  000184' 0101               	movlb	1	; () banked
  1924  000186' 5100'              	movf	((___ftdiv@sign1))&0ffh,w
  1925  000188' B4D8               	btfsc	status,2
  1926  00018A' EF00' F000'        	goto	u2161
  1927  00018E' EF00' F000'        	goto	u2160
  1928  000192'                    u2161:
  1929  000192' EF00' F000'        	goto	l1064
  1930  000196'                    u2160:
  1931                           	line	43
  1932  000196' 0101               	movlb	1	; () banked
  1933  000198' 0101               	movlb	1	; () banked
  1934  00019A' 8F00'              	bsf	(0+(23/8)+(___ftdiv@f3))&0ffh,(23)&7
  1935                           	
  1936  00019C'                    l1064:		; BSR set to: ?
  1937                           
  1938                           	line	44
  1939  00019C' C004' F000'        	movff	(___ftdiv@f3),(?___ftdiv)
  1940  0001A0' C005' F001'        	movff	(___ftdiv@f3+1),(?___ftdiv+1)
  1941  0001A4' C006' F002'        	movff	(___ftdiv@f3+2),(?___ftdiv+2)
  1942  0001A8' EF00' F000'        	goto	l1057
  1943                           	line	45
  1944  0001AC'                    l1057:
  1945                           			; BSR set to: ?
  1946                           
  1947  0001AC' 0012               	return
  1948                           	opt stack 0
  1949                           GLOBAL __end_of___ftdiv
  1950  0001AE'                    	__end_of___ftdiv:
  1951                           	FNSIZE	___ftdiv,8,6
  1952                           ; =============== function ___ftdiv ends =======
                                 =====
  1953                           
  1954                           	signat	___ftdiv,8315
  1955                           	global	___ftsub
  1956                           	global	??___ftsub
  1957                           	global	?___ftsub
  1958                           
  1959                           ; *************** function ___ftsub ************
                                 *****
  1960                           ; Defined at:
  1961                           ;		line 17 in file "C:\Program Files (x86)\HI-TE
                                 CH Software\PICC-18\PRO\9.66\sources\ftsub.c"
  1962                           ; Parameters:
  1963                           ;		f1             size:   3offs:   0	type: float
                                  
  1964                           ;		f2             size:   3offs:   3	type: float
                                  
  1965                           ; Auto variables:
  1966                           ;		None
  1967                           ; Return value:
  1968                           ;		type: float 
  1969                           ;		size: 3
  1970                           ; Registers used:
  1971                           ;		wreg, fsr0l, fsr0h, status,2, status,0, cstac
                                 k
  1972                           ; Tracked objects:
  1973                           ;		On entry : 0/0
  1974                           ;		On exit  : 0/0
  1975                           ;		Unchanged: 0/0
  1976                           ; Data sizes:
  1977                           ;		Autos:    0
  1978                           ;		Params:   6
  1979                           ;		Temp:     0
  1980                           ;		Total:    6
  1981                           ; This function calls:
  1982                           ;		___ftadd
  1983                           ; This function is called by:
  1984                           ;		_measure_capacitance
  1985                           ;		_measure_inductance
  1986                           ;		___asftsub
  1987                           ; This function uses a non-reentrant model
  1988                           ; 
  1989                                   psect   text6,class=CODE,space=0,reloc=2
  1990                           
  1991                           	opt lm
  1992                           	file	"C:\Program Files (x86)\HI-TECH Software\P
                                 ICC-18\PRO\9.66\sources\ftsub.c"
  1993                           	line	17
  1994  000000                     	__size_of___ftsub	equ	__end_of___ftsub-___ftsub
  1995                           	
  1996  000000'                    ___ftsub:		; BSR set to: ?
  1997                           
  1998                           	opt stack 28
  1999                           	line	18
  2000  000000' 0E00               	movlw	low(0800000h)
  2001  000002' 0101               	movlb	1	; () banked
  2002  000004' 0101               	movlb	1	; () banked
  2003  000006' 1B00'              	xorwf	((___ftsub@f2))&0ffh
  2004  000008' 0E00               	movlw	high(0800000h)
  2005  00000A' 0101               	movlb	1	; () banked
  2006  00000C' 0101               	movlb	1	; () banked
  2007  00000E' 1B00'              	xorwf	((___ftsub@f2+1))&0ffh
  2008  000010' 0E80               	movlw	low highword(0800000h)
  2009  000012' 0101               	movlb	1	; () banked
  2010  000014' 0101               	movlb	1	; () banked
  2011  000016' 1B00'              	xorwf	((___ftsub@f2+2))&0ffh
  2012                           
  2013                           	line	19
  2014  000018' C003' F003'        	movff	(___ftsub@f2),0+(?___ftadd+03h)
  2015  00001C' C004' F004'        	movff	(___ftsub@f2+1),1+(?___ftadd+03h)
  2016  000020' C005' F005'        	movff	(___ftsub@f2+2),2+(?___ftadd+03h)
  2017  000024' C000' F000'        	movff	(___ftsub@f1),(?___ftadd)
  2018  000028' C001' F001'        	movff	(___ftsub@f1+1),(?___ftadd+1)
  2019  00002C' C002' F002'        	movff	(___ftsub@f1+2),(?___ftadd+2)
  2020  000030' EC00' F000'        	call	___ftadd	;wreg free
  2021  000034' C000' F000'        	movff	0+?___ftadd,(?___ftsub)
  2022  000038' C001' F001'        	movff	1+?___ftadd,(?___ftsub+1)
  2023  00003C' C002' F002'        	movff	2+?___ftadd,(?___ftsub+2)
  2024  000040' EF00' F000'        	goto	l1078
  2025                           	line	20
  2026  000044'                    l1078:
  2027                           			; BSR set to: ?
  2028                           
  2029  000044' 0012               	return
  2030                           	opt stack 0
  2031                           GLOBAL __end_of___ftsub
  2032  000046'                    	__end_of___ftsub:
  2033                           	FNSIZE	___ftsub,0,6
  2034                           ; =============== function ___ftsub ends =======
                                 =====
  2035                           
  2036                           	signat	___ftsub,8315
  2037                           	global	_delay10ms
  2038                           	global	??_delay10ms
  2039                           	global	?_delay10ms
  2040                           
  2041                           ; *************** function _delay10ms **********
                                 *******
  2042                           ; Defined at:
  2043                           ;		line 532 in file "../../../src/LC-meter.c"
  2044                           ; Parameters:
  2045                           ;		period_10ms    size:   2offs:   0	type: unsig
                                 ned short 
  2046                           ; Auto variables:
  2047                           ;		run         	       	type: unsigned char 
  2048                           ;		ms          	       	type: unsigned long 
  2049                           ; Return value:
  2050                           ;		type: void 
  2051                           ;		size: 0
  2052                           ; Registers used:
  2053                           ;		wreg, status,2, status,0, cstack
  2054                           ; Tracked objects:
  2055                           ;		On entry : 0/0
  2056                           ;		On exit  : 0/0
  2057                           ;		Unchanged: 0/0
  2058                           ; Data sizes:
  2059                           ;		Autos:    5
  2060                           ;		Params:   2
  2061                           ;		Temp:     1
  2062                           ;		Total:    8
  2063                           ; This function calls:
  2064                           ;		___wmul
  2065                           ; This function is called by:
  2066                           ;		_main
  2067                           ;		_calibrate
  2068                           ; This function uses a non-reentrant model
  2069                           ; 
  2070                                   psect   text7,class=CODE,space=0,reloc=2
  2071                           
  2072                           	opt lm
  2073                           	file	"../../../src/LC-meter.c"
  2074                           	line	532
  2075  000000                     	__size_of_delay10ms	equ	__end_of_delay10ms-_del
                                 ay10ms
  2076                           ;LC-meter.c: 531: void
  2077                           ;LC-meter.c: 532: delay10ms(unsigned short int p
                                 eriod_10ms) {
  2078                           	
  2079  000000'                    _delay10ms:		; BSR set to: ?
  2080                           
  2081                           	opt stack 28
  2082                           	line	537
  2083  000000' 0101               	movlb	1	; () banked
  2084  000002' 6F00'              	movwf	(??_delay10ms+5+0)&0ffh
  2085  000004' 0E01               	movlw	low(01h)
  2086  000006' 0101               	movlb	1	; () banked
  2087  000008' 0101               	movlb	1	; () banked
  2088  00000A' 6F00'              	movwf	((delay10ms@run))&0ffh
  2089  00000C' 0101               	movlb	1	; () banked
  2090  00000E' 5100'              	movf	(??_delay10ms+5+0)&0ffh,w
  2091                           	line	539
  2092                           ;LC-meter.c: 539: GIE = 0, ms = msecs, GIE = 1;
  2093  000010' 9EF2               	bcf	c:(32663/8),(32663)&7	;volatile
  2094  000012' C010 F001'         	movff	(c:16),(delay10ms@ms)	;volatile
  2095  000016' C011 F002'         	movff	(c:16+1),(delay10ms@ms+1)	;volatile
  2096  00001A' C012 F003'         	movff	(c:16+2),(delay10ms@ms+2)	;volatile
  2097  00001E' C013 F004'         	movff	(c:16+3),(delay10ms@ms+3)	;volatile
  2098  000022' 8EF2               	bsf	c:(32663/8),(32663)&7	;volatile
  2099                           	line	544
  2100                           ;LC-meter.c: 544: ms += period_10ms * 10;
  2101  000024' 0E0A               	movlw	low(0Ah)
  2102  000026' 0101               	movlb	1	; () banked
  2103  000028' 0101               	movlb	1	; () banked
  2104  00002A' 6F00'              	movwf	(0+(?___wmul+02h))&0ffh
  2105  00002C' 0E00               	movlw	high(0Ah)
  2106  00002E' 0101               	movlb	1	; () banked
  2107  000030' 6F00'              	movwf	(1+(?___wmul+02h))&0ffh
  2108  000032' C000' F000'        	movff	(delay10ms@period_10ms),(?___wmul)
  2109  000036' C001' F001'        	movff	(delay10ms@period_10ms+1),(?___wmul+1)
  2110  00003A' EC00' F000'        	call	___wmul	;wreg free
  2111  00003E' 0101               	movlb	1	; () banked
  2112  000040' 0101               	movlb	1	; () banked
  2113  000042' 5100'              	movf	(0+?___wmul)&0ffh,w
  2114  000044' 0101               	movlb	1	; () banked
  2115  000046' 0101               	movlb	1	; () banked
  2116  000048' 2700'              	addwf	((delay10ms@ms))&0ffh
  2117  00004A' 0101               	movlb	1	; () banked
  2118  00004C' 0101               	movlb	1	; () banked
  2119  00004E' 5100'              	movf	(1+?___wmul)&0ffh,w
  2120  000050' 0101               	movlb	1	; () banked
  2121  000052' 0101               	movlb	1	; () banked
  2122  000054' 2300'              	addwfc	((delay10ms@ms+1))&0ffh
  2123  000056' 0E00               	movlw	0
  2124  000058' 0101               	movlb	1	; () banked
  2125  00005A' 0101               	movlb	1	; () banked
  2126  00005C' 2300'              	addwfc	((delay10ms@ms+2))&0ffh
  2127  00005E' 0E00               	movlw	0
  2128  000060' 0101               	movlb	1	; () banked
  2129  000062' 0101               	movlb	1	; () banked
  2130  000064' 2300'              	addwfc	((delay10ms@ms+3))&0ffh
  2131                           
  2132                           	line	547
  2133                           ;LC-meter.c: 547: do {
  2134                           	
  2135  000066'                    l609:		; BSR set to: ?
  2136                           
  2137                           	line	548
  2138                           ;LC-meter.c: 548: GIE = 0;
  2139  000066' 9EF2               	bcf	c:(32663/8),(32663)&7	;volatile
  2140                           	line	549
  2141                           ;LC-meter.c: 549: if(ms <= msecs)
  2142  000068' 0101               	movlb	1	; () banked
  2143  00006A' 0101               	movlb	1	; () banked
  2144  00006C' 5100'              	movf	((delay10ms@ms))&0ffh,w
  2145  00006E' 5C10               	subwf	((c:16)),c,w	;volatile
  2146  000070' 0101               	movlb	1	; () banked
  2147  000072' 0101               	movlb	1	; () banked
  2148  000074' 5100'              	movf	((delay10ms@ms+1))&0ffh,w
  2149  000076' 5811               	subwfb	((c:16+1)),c,w	;volatile
  2150  000078' 0101               	movlb	1	; () banked
  2151  00007A' 0101               	movlb	1	; () banked
  2152  00007C' 5100'              	movf	((delay10ms@ms+2))&0ffh,w
  2153  00007E' 5812               	subwfb	((c:16+2)),c,w	;volatile
  2154  000080' 0101               	movlb	1	; () banked
  2155  000082' 0101               	movlb	1	; () banked
  2156  000084' 5100'              	movf	((delay10ms@ms+3))&0ffh,w
  2157  000086' 5813               	subwfb	((c:16+3)),c,w	;volatile
  2158  000088' A0D8               	btfss	status,0
  2159  00008A' EF00' F000'        	goto	u2961
  2160  00008E' EF00' F000'        	goto	u2960
  2161  000092'                    u2961:
  2162  000092' EF00' F000'        	goto	l610
  2163  000096'                    u2960:
  2164                           	line	550
  2165                           ;LC-meter.c: 550: run = 0;
  2166  000096' 0101               	movlb	1	; () banked
  2167  000098' 6F00'              	movwf	(??_delay10ms+5+0)&0ffh
  2168  00009A' 0E00               	movlw	low(0)
  2169  00009C' 0101               	movlb	1	; () banked
  2170  00009E' 0101               	movlb	1	; () banked
  2171  0000A0' 6F00'              	movwf	((delay10ms@run))&0ffh
  2172  0000A2' 0101               	movlb	1	; () banked
  2173  0000A4' 5100'              	movf	(??_delay10ms+5+0)&0ffh,w
  2174                           	
  2175  0000A6'                    l610:		; BSR set to: ?
  2176                           
  2177                           	line	551
  2178                           ;LC-meter.c: 551: GIE = 1;
  2179  0000A6' 8EF2               	bsf	c:(32663/8),(32663)&7	;volatile
  2180                           	line	552
  2181                           ;LC-meter.c: 552: } while(run);
  2182  0000A8' 0101               	movlb	1	; () banked
  2183  0000AA' 0101               	movlb	1	; () banked
  2184  0000AC' 6700'              	tstfsz	((delay10ms@run))&0ffh
  2185  0000AE' EF00' F000'        	goto	u2971
  2186  0000B2' EF00' F000'        	goto	u2970
  2187  0000B6'                    u2971:
  2188  0000B6' EF00' F000'        	goto	l609
  2189  0000BA'                    u2970:
  2190                           	
  2191  0000BA'                    l608:		; BSR set to: ?
  2192                           
  2193                           	line	553
  2194                           ;LC-meter.c: 553: }
  2195  0000BA'                    l606:
  2196                           			; BSR set to: ?
  2197                           
  2198  0000BA' 0012               	return
  2199                           	opt stack 0
  2200                           GLOBAL __end_of_delay10ms
  2201  0000BC'                    	__end_of_delay10ms:
  2202                           	FNSIZE	_delay10ms,6,2
  2203                           ; =============== function _delay10ms ends =====
                                 =======
  2204                           
  2205                           	signat	_delay10ms,4216
  2206                           	global	_print_reading
  2207                           	global	??_print_reading
  2208                           	global	?_print_reading
  2209                           
  2210                           ; *************** function _print_reading ******
                                 ***********
  2211                           ; Defined at:
  2212                           ;		line 429 in file "../../../src/print.c"
  2213                           ; Parameters:
  2214                           ;		measurement    size:   2offs:   0	type: unsig
                                 ned short 
  2215                           ; Auto variables:
  2216                           ;		None
  2217                           ; Return value:
  2218                           ;		type: void 
  2219                           ;		size: 0
  2220                           ; Registers used:
  2221                           ;		None
  2222                           ; Tracked objects:
  2223                           ;		On entry : 0/0
  2224                           ;		On exit  : 0/0
  2225                           ;		Unchanged: 0/0
  2226                           ; Data sizes:
  2227                           ;		Autos:    0
  2228                           ;		Params:   2
  2229                           ;		Temp:     0
  2230                           ;		Total:    2
  2231                           ; This function calls:
  2232                           ;		Nothing
  2233                           ; This function is called by:
  2234                           ;		_measure_capacitance
  2235                           ;		_measure_inductance
  2236                           ; This function uses a non-reentrant model
  2237                           ; 
  2238                                   psect   text8,class=CODE,space=0,reloc=2
  2239                           
  2240                           	opt lm
  2241                           	file	"../../../src/print.c"
  2242                           	line	429
  2243  000000                     	__size_of_print_reading	equ	__end_of_print_read
                                 ing-_print_reading
  2244                           ;print.c: 428: void
  2245                           ;print.c: 429: print_reading(unsigned short int 
                                 measurement) {
  2246                           	
  2247  000000'                    _print_reading:		; BSR set to: ?
  2248                           
  2249                           	opt stack 28
  2250                           	line	465
  2251  000000'                    l805:
  2252                           			; BSR set to: ?
  2253                           
  2254  000000' 0012               	return
  2255                           	opt stack 0
  2256                           GLOBAL __end_of_print_reading
  2257  000002'                    	__end_of_print_reading:
  2258                           	FNSIZE	_print_reading,0,2
  2259                           ; =============== function _print_reading ends =
                                 ===========
  2260                           
  2261                           	signat	_print_reading,4216
  2262                           	global	___fttol
  2263                           	global	??___fttol
  2264                           	global	?___fttol
  2265                           
  2266                           ; *************** function ___fttol ************
                                 *****
  2267                           ; Defined at:
  2268                           ;		line 16 in file "C:\Program Files (x86)\HI-TE
                                 CH Software\PICC-18\PRO\9.66\sources\fttol.c"
  2269                           ; Parameters:
  2270                           ;		f1             size:   3offs:   0	type: float
                                  
  2271                           ; Auto variables:
  2272                           ;		sign1       	       	type: unsigned char 
  2273                           ;		exp1        	       	type: unsigned char 
  2274                           ;		lval        	       	type: unsigned long 
  2275                           ; Return value:
  2276                           ;		type: long 
  2277                           ;		size: 4
  2278                           ; Registers used:
  2279                           ;		wreg, fsr0l, fsr0h, status,2, status,0, cstac
                                 k
  2280                           ; Tracked objects:
  2281                           ;		On entry : 0/0
  2282                           ;		On exit  : 0/0
  2283                           ;		Unchanged: 0/0
  2284                           ; Data sizes:
  2285                           ;		Autos:    6
  2286                           ;		Params:   4
  2287                           ;		Temp:     0
  2288                           ;		Total:   10
  2289                           ; This function calls:
  2290                           ;		___ftunpack
  2291                           ; This function is called by:
  2292                           ;		_measure_capacitance
  2293                           ;		_measure_inductance
  2294                           ;		_floor
  2295                           ;		_pow
  2296                           ;		_exp
  2297                           ; This function uses a non-reentrant model
  2298                           ; 
  2299                                   psect   text9,class=CODE,space=0,reloc=2
  2300                           
  2301                           	opt lm
  2302                           	file	"C:\Program Files (x86)\HI-TECH Software\P
                                 ICC-18\PRO\9.66\sources\fttol.c"
  2303                           	line	16
  2304  000000                     	__size_of___fttol	equ	__end_of___fttol-___fttol
  2305                           	
  2306  000000'                    ___fttol:		; BSR set to: ?
  2307                           
  2308                           	opt stack 28
  2309                           	line	20
  2310  000000' 0101               	movlb	1	; () banked
  2311  000002' 0E00'              	movlw	low(___fttol@exp1)
  2312  000004' 0101               	movlb	1	; () banked
  2313  000006' 0101               	movlb	1	; () banked
  2314  000008' 6F00'              	movwf	(0+(?___ftunpack+02h))&0ffh
  2315  00000A' 0101               	movlb	1	; () banked
  2316  00000C' 0E00'              	movlw	high(___fttol@exp1)
  2317  00000E' 0101               	movlb	1	; () banked
  2318  000010' 6F00'              	movwf	(1+(?___ftunpack+02h))&0ffh
  2319  000012' 0101               	movlb	1	; () banked
  2320  000014' 0E00'              	movlw	low(___fttol@f1)
  2321  000016' 0101               	movlb	1	; () banked
  2322  000018' 0101               	movlb	1	; () banked
  2323  00001A' 6F00'              	movwf	((?___ftunpack))&0ffh
  2324  00001C' 0101               	movlb	1	; () banked
  2325  00001E' 0E00'              	movlw	high(___fttol@f1)
  2326  000020' 0101               	movlb	1	; () banked
  2327  000022' 6F00'              	movwf	((?___ftunpack+1))&0ffh
  2328  000024' EC00' F000'        	call	___ftunpack	;wreg free
  2329  000028' 0101               	movlb	1	; () banked
  2330  00002A' 0101               	movlb	1	; () banked
  2331  00002C' 6F00'              	movwf	((___fttol@sign1))&0ffh
  2332                           	line	21
  2333  00002E' 0101               	movlb	1	; () banked
  2334  000030' 0101               	movlb	1	; () banked
  2335  000032' 5100'              	movf	((___fttol@f1))&0ffh,w
  2336  000034' 0101               	movlb	1	; () banked
  2337  000036' 0101               	movlb	1	; () banked
  2338  000038' 6F00'              	movwf	((___fttol@lval))&0ffh
  2339  00003A' 0101               	movlb	1	; () banked
  2340  00003C' 0101               	movlb	1	; () banked
  2341  00003E' 5100'              	movf	((___fttol@f1+1))&0ffh,w
  2342  000040' 0101               	movlb	1	; () banked
  2343  000042' 6F00'              	movwf	1+((___fttol@lval))&0ffh
  2344                           	
  2345  000044' 0101               	movlb	1	; () banked
  2346  000046' 5100'              	movf	((___fttol@f1+2))&0ffh,w
  2347  000048' 0101               	movlb	1	; () banked
  2348  00004A' 6F00'              	movwf	2+((___fttol@lval))&0ffh
  2349                           	
  2350  00004C' 0101               	movlb	1	; () banked
  2351  00004E' 6B00'              	clrf	3+((___fttol@lval))&0ffh
  2352                           	line	22
  2353  000050' 0E8E               	movlw	(08Eh)&0ffh
  2354  000052' 0101               	movlb	1	; () banked
  2355  000054' 0101               	movlb	1	; () banked
  2356  000056' 5F00'              	subwf	((___fttol@exp1))&0ffh
  2357                           	line	23
  2358  000058' 0101               	movlb	1	; () banked
  2359  00005A' 0101               	movlb	1	; () banked
  2360  00005C' AF00'              	btfss	((___fttol@exp1))&0ffh,7
  2361  00005E' EF00' F000'        	goto	u2341
  2362  000062' EF00' F000'        	goto	u2340
  2363  000066'                    u2341:
  2364  000066' EF00' F000'        	goto	l1081
  2365  00006A'                    u2340:
  2366                           	line	24
  2367  00006A' 0101               	movlb	1	; () banked
  2368  00006C' 0101               	movlb	1	; () banked
  2369  00006E' 5100'              	movf	((___fttol@exp1))&0ffh,w
  2370  000070' 0A80               	xorlw	80h
  2371  000072' 0F8F               	addlw	-((-15)^80h)
  2372  000074' B0D8               	btfsc	status,0
  2373  000076' EF00' F000'        	goto	u2351
  2374  00007A' EF00' F000'        	goto	u2350
  2375  00007E'                    u2351:
  2376  00007E' EF00' F000'        	goto	l1085
  2377  000082'                    u2350:
  2378                           	line	25
  2379  000082' 0E00               	movlw	low(0)
  2380  000084' 0101               	movlb	1	; () banked
  2381  000086' 0101               	movlb	1	; () banked
  2382  000088' 6F00'              	movwf	((?___fttol))&0ffh
  2383  00008A' 0E00               	movlw	high(0)
  2384  00008C' 0101               	movlb	1	; () banked
  2385  00008E' 6F00'              	movwf	((?___fttol+1))&0ffh
  2386  000090' 0E00               	movlw	low highword(0)
  2387  000092' 0101               	movlb	1	; () banked
  2388  000094' 6F00'              	movwf	((?___fttol+2))&0ffh
  2389  000096' 0E00               	movlw	high highword(0)
  2390  000098' 0101               	movlb	1	; () banked
  2391  00009A' 6F00'              	movwf	((?___fttol+3))&0ffh
  2392  00009C' EF00' F000'        	goto	l1080
  2393                           	line	26
  2394                           	
  2395  0000A0'                    l1085:		; BSR set to: ?
  2396                           
  2397                           	line	27
  2398  0000A0' 0101               	movlb	1	; () banked
  2399  0000A2' 90D8               	bcf	status,0
  2400  0000A4' 0101               	movlb	1	; () banked
  2401  0000A6' 3300'              	rrcf	((___fttol@lval+3))&0ffh
  2402  0000A8' 0101               	movlb	1	; () banked
  2403  0000AA' 3300'              	rrcf	((___fttol@lval+2))&0ffh
  2404  0000AC' 0101               	movlb	1	; () banked
  2405  0000AE' 3300'              	rrcf	((___fttol@lval+1))&0ffh
  2406  0000B0' 0101               	movlb	1	; () banked
  2407  0000B2' 3300'              	rrcf	((___fttol@lval))&0ffh
  2408                           	line	28
  2409  0000B4' 0101               	movlb	1	; () banked
  2410  0000B6' 0101               	movlb	1	; () banked
  2411  0000B8' 3F00'              	incfsz	((___fttol@exp1))&0ffh
  2412                           	
  2413  0000BA' EF00' F000'        	goto	l1085
  2414                           	
  2415  0000BE'                    l1084:		; BSR set to: ?
  2416                           
  2417                           	line	29
  2418  0000BE' EF00' F000'        	goto	l1086
  2419                           	
  2420  0000C2'                    l1081:		; BSR set to: ?
  2421                           
  2422                           	line	30
  2423  0000C2' 0E1F               	movlw	(020h-1)
  2424  0000C4' 0101               	movlb	1	; () banked
  2425  0000C6' 0101               	movlb	1	; () banked
  2426  0000C8' 6500'              	cpfsgt	((___fttol@exp1))&0ffh
  2427  0000CA' EF00' F000'        	goto	u2361
  2428  0000CE' EF00' F000'        	goto	u2360
  2429  0000D2'                    u2361:
  2430  0000D2' EF00' F000'        	goto	l1087
  2431  0000D6'                    u2360:
  2432                           	line	31
  2433  0000D6' 0E00               	movlw	low(0)
  2434  0000D8' 0101               	movlb	1	; () banked
  2435  0000DA' 0101               	movlb	1	; () banked
  2436  0000DC' 6F00'              	movwf	((?___fttol))&0ffh
  2437  0000DE' 0E00               	movlw	high(0)
  2438  0000E0' 0101               	movlb	1	; () banked
  2439  0000E2' 6F00'              	movwf	((?___fttol+1))&0ffh
  2440  0000E4' 0E00               	movlw	low highword(0)
  2441  0000E6' 0101               	movlb	1	; () banked
  2442  0000E8' 6F00'              	movwf	((?___fttol+2))&0ffh
  2443  0000EA' 0E00               	movlw	high highword(0)
  2444  0000EC' 0101               	movlb	1	; () banked
  2445  0000EE' 6F00'              	movwf	((?___fttol+3))&0ffh
  2446  0000F0' EF00' F000'        	goto	l1080
  2447                           	
  2448  0000F4'                    l1087:		; BSR set to: ?
  2449                           
  2450                           	line	32
  2451  0000F4' EF00' F000'        	goto	l1088
  2452                           	
  2453  0000F8'                    l1089:		; BSR set to: ?
  2454                           
  2455                           	line	33
  2456  0000F8' 0101               	movlb	1	; () banked
  2457  0000FA' 90D8               	bcf	status,0
  2458  0000FC' 0101               	movlb	1	; () banked
  2459  0000FE' 3700'              	rlcf	((___fttol@lval))&0ffh
  2460  000100' 0101               	movlb	1	; () banked
  2461  000102' 3700'              	rlcf	((___fttol@lval+1))&0ffh
  2462  000104' 0101               	movlb	1	; () banked
  2463  000106' 3700'              	rlcf	((___fttol@lval+2))&0ffh
  2464  000108' 0101               	movlb	1	; () banked
  2465  00010A' 3700'              	rlcf	((___fttol@lval+3))&0ffh
  2466                           	line	34
  2467  00010C' 0101               	movlb	1	; () banked
  2468  00010E' 0101               	movlb	1	; () banked
  2469  000110' 0700'              	decf	((___fttol@exp1))&0ffh
  2470                           	line	35
  2471                           	
  2472  000112'                    l1088:		; BSR set to: ?
  2473                           
  2474                           	line	32
  2475  000112' 0101               	movlb	1	; () banked
  2476  000114' 0101               	movlb	1	; () banked
  2477  000116' 6700'              	tstfsz	((___fttol@exp1))&0ffh
  2478  000118' EF00' F000'        	goto	u2371
  2479  00011C' EF00' F000'        	goto	u2370
  2480  000120'                    u2371:
  2481  000120' EF00' F000'        	goto	l1089
  2482  000124'                    u2370:
  2483                           	
  2484  000124'                    l1090:		; BSR set to: ?
  2485                           
  2486                           	line	36
  2487                           	
  2488  000124'                    l1086:		; BSR set to: ?
  2489                           
  2490                           	line	37
  2491  000124' 0101               	movlb	1	; () banked
  2492  000126' 0101               	movlb	1	; () banked
  2493  000128' 5100'              	movf	((___fttol@sign1))&0ffh,w
  2494  00012A' B4D8               	btfsc	status,2
  2495  00012C' EF00' F000'        	goto	u2381
  2496  000130' EF00' F000'        	goto	u2380
  2497  000134'                    u2381:
  2498  000134' EF00' F000'        	goto	l1091
  2499  000138'                    u2380:
  2500                           	line	38
  2501  000138' 0101               	movlb	1	; () banked
  2502  00013A' 0101               	movlb	1	; () banked
  2503  00013C' 1F00'              	comf	((___fttol@lval+3))&0ffh
  2504  00013E' 0101               	movlb	1	; () banked
  2505  000140' 1F00'              	comf	((___fttol@lval+2))&0ffh
  2506  000142' 0101               	movlb	1	; () banked
  2507  000144' 1F00'              	comf	((___fttol@lval+1))&0ffh
  2508  000146' 0101               	movlb	1	; () banked
  2509  000148' 6D00'              	negf	((___fttol@lval))&0ffh
  2510  00014A' 0E00               	movlw	0
  2511  00014C' 0101               	movlb	1	; () banked
  2512  00014E' 2300'              	addwfc	((___fttol@lval+1))&0ffh
  2513  000150' 0101               	movlb	1	; () banked
  2514  000152' 2300'              	addwfc	((___fttol@lval+2))&0ffh
  2515  000154' 0101               	movlb	1	; () banked
  2516  000156' 2300'              	addwfc	((___fttol@lval+3))&0ffh
  2517                           	
  2518  000158'                    l1091:		; BSR set to: ?
  2519                           
  2520                           	line	39
  2521  000158' C002' F000'        	movff	(___fttol@lval),(?___fttol)
  2522  00015C' C003' F001'        	movff	(___fttol@lval+1),(?___fttol+1)
  2523  000160' C004' F002'        	movff	(___fttol@lval+2),(?___fttol+2)
  2524  000164' C005' F003'        	movff	(___fttol@lval+3),(?___fttol+3)
  2525  000168' EF00' F000'        	goto	l1080
  2526                           	line	40
  2527  00016C'                    l1080:
  2528                           			; BSR set to: ?
  2529                           
  2530  00016C' 0012               	return
  2531                           	opt stack 0
  2532                           GLOBAL __end_of___fttol
  2533  00016E'                    	__end_of___fttol:
  2534                           	FNSIZE	___fttol,6,4
  2535                           ; =============== function ___fttol ends =======
                                 =====
  2536                           
  2537                           	signat	___fttol,4220
  2538                           	global	_print_unit
  2539                           	global	??_print_unit
  2540                           	global	?_print_unit
  2541                           
  2542                           ; *************** function _print_unit *********
                                 ********
  2543                           ; Defined at:
  2544                           ;		line 408 in file "../../../src/print.c"
  2545                           ; Parameters:
  2546                           ;		unit           size:   1offs:   0	type: unsig
                                 ned char 
  2547                           ; Auto variables:
  2548                           ;		None
  2549                           ; Return value:
  2550                           ;		type: void 
  2551                           ;		size: 0
  2552                           ; Registers used:
  2553                           ;		None
  2554                           ; Tracked objects:
  2555                           ;		On entry : 0/0
  2556                           ;		On exit  : 0/0
  2557                           ;		Unchanged: 0/0
  2558                           ; Data sizes:
  2559                           ;		Autos:    0
  2560                           ;		Params:   1
  2561                           ;		Temp:     0
  2562                           ;		Total:    1
  2563                           ; This function calls:
  2564                           ;		Nothing
  2565                           ; This function is called by:
  2566                           ;		_measure_capacitance
  2567                           ;		_measure_inductance
  2568                           ; This function uses a non-reentrant model
  2569                           ; 
  2570                                   psect   text10,class=CODE,space=0,reloc=
                                 2
  2571                           
  2572                           	opt lm
  2573                           	file	"../../../src/print.c"
  2574                           	line	408
  2575  000000                     	__size_of_print_unit	equ	__end_of_print_unit-_p
                                 rint_unit
  2576                           ;print.c: 407: void
  2577                           ;print.c: 408: print_unit(unsigned char unit) {
  2578                           	
  2579  000000'                    _print_unit:		; BSR set to: ?
  2580                           
  2581                           	opt stack 28
  2582                           	line	426
  2583  000000'                    l804:
  2584                           			; BSR set to: ?
  2585                           
  2586  000000' 0012               	return
  2587                           	opt stack 0
  2588                           GLOBAL __end_of_print_unit
  2589  000002'                    	__end_of_print_unit:
  2590                           	FNSIZE	_print_unit,0,1
  2591                           ; =============== function _print_unit ends ====
                                 ========
  2592                           
  2593                           	signat	_print_unit,4216
  2594                           	global	___ftmul
  2595                           	global	??___ftmul
  2596                           	global	?___ftmul
  2597                           
  2598                           ; *************** function ___ftmul ************
                                 *****
  2599                           ; Defined at:
  2600                           ;		line 18 in file "C:\Program Files (x86)\HI-TE
                                 CH Software\PICC-18\PRO\9.66\sources\ftmul.c"
  2601                           ; Parameters:
  2602                           ;		f1             size:   3offs:   0	type: float
                                  
  2603                           ;		f2             size:   3offs:   3	type: float
                                  
  2604                           ; Auto variables:
  2605                           ;		sign1       	       	type: unsigned char 
  2606                           ;		exp1        	       	type: unsigned char 
  2607                           ;		cntr        	       	type: unsigned char 
  2608                           ;		f3          	       	type: float 
  2609                           ; Return value:
  2610                           ;		type: float 
  2611                           ;		size: 3
  2612                           ; Registers used:
  2613                           ;		wreg, fsr0l, fsr0h, status,2, status,0, cstac
                                 k
  2614                           ; Tracked objects:
  2615                           ;		On entry : 0/0
  2616                           ;		On exit  : 0/0
  2617                           ;		Unchanged: 0/0
  2618                           ; Data sizes:
  2619                           ;		Autos:    6
  2620                           ;		Params:   6
  2621                           ;		Temp:     1
  2622                           ;		Total:   13
  2623                           ; This function calls:
  2624                           ;		___ftunpack
  2625                           ;		___ftpack
  2626                           ; This function is called by:
  2627                           ;		_measure_capacitance
  2628                           ;		_measure_inductance
  2629                           ;		_log
  2630                           ;		_log10
  2631                           ;		_pow
  2632                           ;		___asftmul
  2633                           ;		_eval_poly
  2634                           ; This function uses a non-reentrant model
  2635                           ; 
  2636                                   psect   text11,class=CODE,space=0,reloc=
                                 2
  2637                           
  2638                           	opt lm
  2639                           	file	"C:\Program Files (x86)\HI-TECH Software\P
                                 ICC-18\PRO\9.66\sources\ftmul.c"
  2640                           	line	18
  2641  000000                     	__size_of___ftmul	equ	__end_of___ftmul-___ftmul
  2642                           	
  2643  000000'                    ___ftmul:		; BSR set to: ?
  2644                           
  2645                           	opt stack 28
  2646                           	line	22
  2647  000000' 0E00               	movlw	low(0)
  2648  000002' 0101               	movlb	1	; () banked
  2649  000004' 0101               	movlb	1	; () banked
  2650  000006' 6F00'              	movwf	((___ftmul@f3))&0ffh
  2651  000008' 0E00               	movlw	high(0)
  2652  00000A' 0101               	movlb	1	; () banked
  2653  00000C' 0101               	movlb	1	; () banked
  2654  00000E' 6F00'              	movwf	((___ftmul@f3+1))&0ffh
  2655  000010' 0E00               	movlw	low highword(0)
  2656  000012' 0101               	movlb	1	; () banked
  2657  000014' 0101               	movlb	1	; () banked
  2658  000016' 6F00'              	movwf	((___ftmul@f3+2))&0ffh
  2659                           
  2660                           	line	23
  2661  000018' 0101               	movlb	1	; () banked
  2662  00001A' 0E00'              	movlw	low(___ftmul@exp1)
  2663  00001C' 0101               	movlb	1	; () banked
  2664  00001E' 0101               	movlb	1	; () banked
  2665  000020' 6F00'              	movwf	(0+(?___ftunpack+02h))&0ffh
  2666  000022' 0101               	movlb	1	; () banked
  2667  000024' 0E00'              	movlw	high(___ftmul@exp1)
  2668  000026' 0101               	movlb	1	; () banked
  2669  000028' 6F00'              	movwf	(1+(?___ftunpack+02h))&0ffh
  2670  00002A' 0101               	movlb	1	; () banked
  2671  00002C' 0E00'              	movlw	low(___ftmul@f1)
  2672  00002E' 0101               	movlb	1	; () banked
  2673  000030' 0101               	movlb	1	; () banked
  2674  000032' 6F00'              	movwf	((?___ftunpack))&0ffh
  2675  000034' 0101               	movlb	1	; () banked
  2676  000036' 0E00'              	movlw	high(___ftmul@f1)
  2677  000038' 0101               	movlb	1	; () banked
  2678  00003A' 6F00'              	movwf	((?___ftunpack+1))&0ffh
  2679  00003C' EC00' F000'        	call	___ftunpack	;wreg free
  2680  000040' 0101               	movlb	1	; () banked
  2681  000042' 0101               	movlb	1	; () banked
  2682  000044' 6F00'              	movwf	((___ftmul@sign1))&0ffh
  2683                           	line	24
  2684  000046' 0101               	movlb	1	; () banked
  2685  000048' 0E00'              	movlw	low(___ftmul@cntr)
  2686  00004A' 0101               	movlb	1	; () banked
  2687  00004C' 0101               	movlb	1	; () banked
  2688  00004E' 6F00'              	movwf	(0+(?___ftunpack+02h))&0ffh
  2689  000050' 0101               	movlb	1	; () banked
  2690  000052' 0E00'              	movlw	high(___ftmul@cntr)
  2691  000054' 0101               	movlb	1	; () banked
  2692  000056' 6F00'              	movwf	(1+(?___ftunpack+02h))&0ffh
  2693  000058' 0101               	movlb	1	; () banked
  2694  00005A' 0E00'              	movlw	low(___ftmul@f2)
  2695  00005C' 0101               	movlb	1	; () banked
  2696  00005E' 0101               	movlb	1	; () banked
  2697  000060' 6F00'              	movwf	((?___ftunpack))&0ffh
  2698  000062' 0101               	movlb	1	; () banked
  2699  000064' 0E00'              	movlw	high(___ftmul@f2)
  2700  000066' 0101               	movlb	1	; () banked
  2701  000068' 6F00'              	movwf	((?___ftunpack+1))&0ffh
  2702  00006A' EC00' F000'        	call	___ftunpack	;wreg free
  2703  00006E' 0101               	movlb	1	; () banked
  2704  000070' 0101               	movlb	1	; () banked
  2705  000072' 1B00'              	xorwf	((___ftmul@sign1))&0ffh
  2706                           	line	25
  2707  000074' 0101               	movlb	1	; () banked
  2708  000076' 0101               	movlb	1	; () banked
  2709  000078' 5100'              	movf	((___ftmul@cntr))&0ffh,w
  2710  00007A' B4D8               	btfsc	status,2
  2711  00007C' EF00' F000'        	goto	u2431
  2712  000080' EF00' F000'        	goto	u2430
  2713  000084'                    u2431:
  2714  000084' EF00' F000'        	goto	l600000646
  2715  000088'                    u2430:
  2716  000088' 0101               	movlb	1	; () banked
  2717  00008A' 0101               	movlb	1	; () banked
  2718  00008C' 6700'              	tstfsz	((___ftmul@exp1))&0ffh
  2719  00008E' EF00' F000'        	goto	u2441
  2720  000092' EF00' F000'        	goto	u2440
  2721  000096'                    u2441:
  2722  000096' EF00' F000'        	goto	l1067
  2723  00009A'                    u2440:
  2724                           	
  2725  00009A'                    l600000646:		; BSR set to: ?
  2726                           
  2727                           	line	26
  2728  00009A' C003' F000'        	movff	(___ftmul@f3),(?___ftmul)
  2729  00009E' C004' F001'        	movff	(___ftmul@f3+1),(?___ftmul+1)
  2730  0000A2' C005' F002'        	movff	(___ftmul@f3+2),(?___ftmul+2)
  2731  0000A6' EF00' F000'        	goto	l1066
  2732                           	
  2733  0000AA'                    l1067:		; BSR set to: ?
  2734                           
  2735                           	line	27
  2736  0000AA' 0101               	movlb	1	; () banked
  2737  0000AC' 0101               	movlb	1	; () banked
  2738  0000AE' 5100'              	movf	((___ftmul@cntr))&0ffh,w
  2739  0000B0' 0F7B               	addlw	low(07Bh)
  2740  0000B2' 0101               	movlb	1	; () banked
  2741  0000B4' 0101               	movlb	1	; () banked
  2742  0000B6' 2700'              	addwf	((___ftmul@exp1))&0ffh
  2743                           	line	28
  2744  0000B8' 0101               	movlb	1	; () banked
  2745  0000BA' 6F00'              	movwf	(??___ftmul+6+0)&0ffh
  2746  0000BC' 0E07               	movlw	low(07h)
  2747  0000BE' 0101               	movlb	1	; () banked
  2748  0000C0' 0101               	movlb	1	; () banked
  2749  0000C2' 6F00'              	movwf	((___ftmul@cntr))&0ffh
  2750  0000C4' 0101               	movlb	1	; () banked
  2751  0000C6' 5100'              	movf	(??___ftmul+6+0)&0ffh,w
  2752                           	line	29
  2753                           	
  2754  0000C8'                    l1070:		; BSR set to: ?
  2755                           
  2756                           	line	30
  2757  0000C8' 0101               	movlb	1	; () banked
  2758                           	
  2759  0000CA' 0101               	movlb	1	; () banked
  2760  0000CC' A100'              	btfss	((___ftmul@f1))&0ffh,(0)&7
  2761  0000CE' EF00' F000'        	goto	u2451
  2762  0000D2' EF00' F000'        	goto	u2450
  2763  0000D6'                    u2451:
  2764  0000D6' EF00' F000'        	goto	l1071
  2765  0000DA'                    u2450:
  2766                           	line	31
  2767  0000DA' 0101               	movlb	1	; () banked
  2768  0000DC' 0101               	movlb	1	; () banked
  2769  0000DE' 5100'              	movf	((___ftmul@f2))&0ffh,w
  2770  0000E0' 0101               	movlb	1	; () banked
  2771  0000E2' 0101               	movlb	1	; () banked
  2772  0000E4' 2700'              	addwf	((___ftmul@f3))&0ffh
  2773  0000E6' 0101               	movlb	1	; () banked
  2774  0000E8' 0101               	movlb	1	; () banked
  2775  0000EA' 5100'              	movf	((___ftmul@f2+1))&0ffh,w
  2776  0000EC' 0101               	movlb	1	; () banked
  2777  0000EE' 0101               	movlb	1	; () banked
  2778  0000F0' 2300'              	addwfc	((___ftmul@f3+1))&0ffh
  2779  0000F2' 0101               	movlb	1	; () banked
  2780  0000F4' 0101               	movlb	1	; () banked
  2781  0000F6' 5100'              	movf	((___ftmul@f2+2))&0ffh,w
  2782  0000F8' 0101               	movlb	1	; () banked
  2783  0000FA' 0101               	movlb	1	; () banked
  2784  0000FC' 2300'              	addwfc	((___ftmul@f3+2))&0ffh
  2785                           
  2786                           	
  2787  0000FE'                    l1071:		; BSR set to: ?
  2788                           
  2789                           	line	32
  2790  0000FE' 0101               	movlb	1	; () banked
  2791  000100' 90D8               	bcf	status,0
  2792  000102' 0101               	movlb	1	; () banked
  2793  000104' 3300'              	rrcf	((___ftmul@f1+2))&0ffh
  2794  000106' 0101               	movlb	1	; () banked
  2795  000108' 3300'              	rrcf	((___ftmul@f1+1))&0ffh
  2796  00010A' 0101               	movlb	1	; () banked
  2797  00010C' 3300'              	rrcf	((___ftmul@f1))&0ffh
  2798                           	line	33
  2799  00010E' 0101               	movlb	1	; () banked
  2800  000110' 90D8               	bcf	status,0
  2801  000112' 0101               	movlb	1	; () banked
  2802  000114' 3700'              	rlcf	((___ftmul@f2))&0ffh
  2803  000116' 0101               	movlb	1	; () banked
  2804  000118' 3700'              	rlcf	((___ftmul@f2+1))&0ffh
  2805  00011A' 0101               	movlb	1	; () banked
  2806  00011C' 3700'              	rlcf	((___ftmul@f2+2))&0ffh
  2807                           	line	34
  2808  00011E' 0101               	movlb	1	; () banked
  2809  000120' 0101               	movlb	1	; () banked
  2810  000122' 2F00'              	decfsz	((___ftmul@cntr))&0ffh
  2811                           	
  2812  000124' EF00' F000'        	goto	l1070
  2813                           	
  2814  000128'                    l1069:		; BSR set to: ?
  2815                           
  2816                           	line	35
  2817  000128' 0101               	movlb	1	; () banked
  2818  00012A' 6F00'              	movwf	(??___ftmul+6+0)&0ffh
  2819  00012C' 0E09               	movlw	low(09h)
  2820  00012E' 0101               	movlb	1	; () banked
  2821  000130' 0101               	movlb	1	; () banked
  2822  000132' 6F00'              	movwf	((___ftmul@cntr))&0ffh
  2823  000134' 0101               	movlb	1	; () banked
  2824  000136' 5100'              	movf	(??___ftmul+6+0)&0ffh,w
  2825                           	line	36
  2826                           	
  2827  000138'                    l1074:		; BSR set to: ?
  2828                           
  2829                           	line	37
  2830  000138' 0101               	movlb	1	; () banked
  2831                           	
  2832  00013A' 0101               	movlb	1	; () banked
  2833  00013C' A100'              	btfss	((___ftmul@f1))&0ffh,(0)&7
  2834  00013E' EF00' F000'        	goto	u2461
  2835  000142' EF00' F000'        	goto	u2460
  2836  000146'                    u2461:
  2837  000146' EF00' F000'        	goto	l1075
  2838  00014A'                    u2460:
  2839                           	line	38
  2840  00014A' 0101               	movlb	1	; () banked
  2841  00014C' 0101               	movlb	1	; () banked
  2842  00014E' 5100'              	movf	((___ftmul@f2))&0ffh,w
  2843  000150' 0101               	movlb	1	; () banked
  2844  000152' 0101               	movlb	1	; () banked
  2845  000154' 2700'              	addwf	((___ftmul@f3))&0ffh
  2846  000156' 0101               	movlb	1	; () banked
  2847  000158' 0101               	movlb	1	; () banked
  2848  00015A' 5100'              	movf	((___ftmul@f2+1))&0ffh,w
  2849  00015C' 0101               	movlb	1	; () banked
  2850  00015E' 0101               	movlb	1	; () banked
  2851  000160' 2300'              	addwfc	((___ftmul@f3+1))&0ffh
  2852  000162' 0101               	movlb	1	; () banked
  2853  000164' 0101               	movlb	1	; () banked
  2854  000166' 5100'              	movf	((___ftmul@f2+2))&0ffh,w
  2855  000168' 0101               	movlb	1	; () banked
  2856  00016A' 0101               	movlb	1	; () banked
  2857  00016C' 2300'              	addwfc	((___ftmul@f3+2))&0ffh
  2858                           
  2859                           	
  2860  00016E'                    l1075:		; BSR set to: ?
  2861                           
  2862                           	line	39
  2863  00016E' 0101               	movlb	1	; () banked
  2864  000170' 90D8               	bcf	status,0
  2865  000172' 0101               	movlb	1	; () banked
  2866  000174' 3300'              	rrcf	((___ftmul@f1+2))&0ffh
  2867  000176' 0101               	movlb	1	; () banked
  2868  000178' 3300'              	rrcf	((___ftmul@f1+1))&0ffh
  2869  00017A' 0101               	movlb	1	; () banked
  2870  00017C' 3300'              	rrcf	((___ftmul@f1))&0ffh
  2871                           	line	40
  2872  00017E' 0101               	movlb	1	; () banked
  2873  000180' 90D8               	bcf	status,0
  2874  000182' 0101               	movlb	1	; () banked
  2875  000184' 3300'              	rrcf	((___ftmul@f3+2))&0ffh
  2876  000186' 0101               	movlb	1	; () banked
  2877  000188' 3300'              	rrcf	((___ftmul@f3+1))&0ffh
  2878  00018A' 0101               	movlb	1	; () banked
  2879  00018C' 3300'              	rrcf	((___ftmul@f3))&0ffh
  2880                           	line	41
  2881  00018E' 0101               	movlb	1	; () banked
  2882  000190' 0101               	movlb	1	; () banked
  2883  000192' 2F00'              	decfsz	((___ftmul@cntr))&0ffh
  2884                           	
  2885  000194' EF00' F000'        	goto	l1074
  2886                           	
  2887  000198'                    l1073:		; BSR set to: ?
  2888                           
  2889                           	line	42
  2890  000198' C001' F002'        	movff	(___ftmul@exp1),0+(?___ftpack+02h)
  2891  00019C' 0101               	movlb	1	; () banked
  2892  00019E' 0E00'              	movlw	low(___ftmul@f3)
  2893  0001A0' 0101               	movlb	1	; () banked
  2894  0001A2' 0101               	movlb	1	; () banked
  2895  0001A4' 6F00'              	movwf	((?___ftpack))&0ffh
  2896  0001A6' 0101               	movlb	1	; () banked
  2897  0001A8' 0E00'              	movlw	high(___ftmul@f3)
  2898  0001AA' 0101               	movlb	1	; () banked
  2899  0001AC' 6F00'              	movwf	((?___ftpack+1))&0ffh
  2900  0001AE' EC00' F000'        	call	___ftpack	;wreg free
  2901                           	line	43
  2902  0001B2' 0101               	movlb	1	; () banked
  2903  0001B4' 0101               	movlb	1	; () banked
  2904  0001B6' 5100'              	movf	((___ftmul@sign1))&0ffh,w
  2905  0001B8' B4D8               	btfsc	status,2
  2906  0001BA' EF00' F000'        	goto	u2471
  2907  0001BE' EF00' F000'        	goto	u2470
  2908  0001C2'                    u2471:
  2909  0001C2' EF00' F000'        	goto	l1076
  2910  0001C6'                    u2470:
  2911                           	line	44
  2912  0001C6' 0101               	movlb	1	; () banked
  2913  0001C8' 0101               	movlb	1	; () banked
  2914  0001CA' 8F00'              	bsf	(0+(23/8)+(___ftmul@f3))&0ffh,(23)&7
  2915                           	
  2916  0001CC'                    l1076:		; BSR set to: ?
  2917                           
  2918                           	line	45
  2919  0001CC' C003' F000'        	movff	(___ftmul@f3),(?___ftmul)
  2920  0001D0' C004' F001'        	movff	(___ftmul@f3+1),(?___ftmul+1)
  2921  0001D4' C005' F002'        	movff	(___ftmul@f3+2),(?___ftmul+2)
  2922  0001D8' EF00' F000'        	goto	l1066
  2923                           	line	46
  2924  0001DC'                    l1066:
  2925                           			; BSR set to: ?
  2926                           
  2927  0001DC' 0012               	return
  2928                           	opt stack 0
  2929                           GLOBAL __end_of___ftmul
  2930  0001DE'                    	__end_of___ftmul:
  2931                           	FNSIZE	___ftmul,7,6
  2932                           ; =============== function ___ftmul ends =======
                                 =====
  2933                           
  2934                           	signat	___ftmul,8315
  2935                           	FNSIZE	_ser_puts,0,3
  2936                           	global	_ser_puts
  2937                           	global	??_ser_puts
  2938                           	global	?_ser_puts
  2939                           	global	___lwtoft
  2940                           	global	??___lwtoft
  2941                           	global	?___lwtoft
  2942                           
  2943                           ; *************** function ___lwtoft ***********
                                 ******
  2944                           ; Defined at:
  2945                           ;		line 16 in file "C:\Program Files (x86)\HI-TE
                                 CH Software\PICC-18\PRO\9.66\sources\lwtoft.c"
  2946                           ; Parameters:
  2947                           ;		c              size:   2offs:   0	type: unsig
                                 ned int 
  2948                           ; Auto variables:
  2949                           ;		f1          	       	type: float 
  2950                           ; Return value:
  2951                           ;		type: float 
  2952                           ;		size: 3
  2953                           ; Registers used:
  2954                           ;		wreg, fsr0l, fsr0h, status,2, status,0, cstac
                                 k
  2955                           ; Tracked objects:
  2956                           ;		On entry : 0/0
  2957                           ;		On exit  : 0/0
  2958                           ;		Unchanged: 0/0
  2959                           ; Data sizes:
  2960                           ;		Autos:    3
  2961                           ;		Params:   3
  2962                           ;		Temp:     1
  2963                           ;		Total:    7
  2964                           ; This function calls:
  2965                           ;		___ftpack
  2966                           ; This function is called by:
  2967                           ;		_calibrate
  2968                           ;		_measure_capacitance
  2969                           ;		_measure_inductance
  2970                           ; This function uses a non-reentrant model
  2971                           ; 
  2972                                   psect   text12,class=CODE,space=0,reloc=
                                 2
  2973                           
  2974                           	opt lm
  2975                           	file	"C:\Program Files (x86)\HI-TECH Software\P
                                 ICC-18\PRO\9.66\sources\lwtoft.c"
  2976                           	line	16
  2977  000000                     	__size_of___lwtoft	equ	__end_of___lwtoft-___lwt
                                 oft
  2978                           	
  2979  000000'                    ___lwtoft:		; BSR set to: ?
  2980                           
  2981                           	opt stack 28
  2982                           	line	19
  2983  000000' 0101               	movlb	1	; () banked
  2984  000002' 0101               	movlb	1	; () banked
  2985  000004' 5100'              	movf	((___lwtoft@c+1))&0ffh,w
  2986  000006' 1100'              	iorwf ((___lwtoft@c))&0ffh,w
  2987                           
  2988  000008' A4D8               	btfss	status,2
  2989  00000A' EF00' F000'        	goto	u2511
  2990  00000E' EF00' F000'        	goto	u2510
  2991  000012'                    u2511:
  2992  000012' EF00' F000'        	goto	l1166
  2993  000016'                    u2510:
  2994                           	line	20
  2995  000016' 0E00               	movlw	low(float24(0.00000000000000000))
  2996  000018' 0101               	movlb	1	; () banked
  2997  00001A' 0101               	movlb	1	; () banked
  2998  00001C' 6F00'              	movwf	((?___lwtoft))&0ffh
  2999  00001E' 0E00               	movlw	high(float24(0.00000000000000000))
  3000  000020' 0101               	movlb	1	; () banked
  3001  000022' 0101               	movlb	1	; () banked
  3002  000024' 6F00'              	movwf	((?___lwtoft+1))&0ffh
  3003  000026' 0E00               	movlw	low highword(float24(0.00000000000000000)
                                 )
  3004  000028' 0101               	movlb	1	; () banked
  3005  00002A' 0101               	movlb	1	; () banked
  3006  00002C' 6F00'              	movwf	((?___lwtoft+2))&0ffh
  3007                           
  3008  00002E' EF00' F000'        	goto	l1165
  3009                           	
  3010  000032'                    l1166:		; BSR set to: ?
  3011                           
  3012                           	line	21
  3013  000032' 0101               	movlb	1	; () banked
  3014  000034' 0101               	movlb	1	; () banked
  3015  000036' C000' F000'        	movff	(___lwtoft@c),(___lwtoft@f1)
  3016  00003A' 0101               	movlb	1	; () banked
  3017  00003C' 0101               	movlb	1	; () banked
  3018  00003E' C001' F001'        	movff	(___lwtoft@c+1),(___lwtoft@f1+1)
  3019  000042' 0101               	movlb	1	; () banked
  3020  000044' 0101               	movlb	1	; () banked
  3021  000046' 6B00'              	clrf	((___lwtoft@f1+2))&0ffh
  3022                           	line	22
  3023  000048' 0101               	movlb	1	; () banked
  3024  00004A' 6F00'              	movwf	(??___lwtoft+3+0)&0ffh
  3025  00004C' 0E8E               	movlw	low(08Eh)
  3026  00004E' 0101               	movlb	1	; () banked
  3027  000050' 0101               	movlb	1	; () banked
  3028  000052' 6F00'              	movwf	(0+(?___ftpack+02h))&0ffh
  3029  000054' 0101               	movlb	1	; () banked
  3030  000056' 5100'              	movf	(??___lwtoft+3+0)&0ffh,w
  3031  000058' 0101               	movlb	1	; () banked
  3032  00005A' 0E00'              	movlw	low(___lwtoft@f1)
  3033  00005C' 0101               	movlb	1	; () banked
  3034  00005E' 0101               	movlb	1	; () banked
  3035  000060' 6F00'              	movwf	((?___ftpack))&0ffh
  3036  000062' 0101               	movlb	1	; () banked
  3037  000064' 0E00'              	movlw	high(___lwtoft@f1)
  3038  000066' 0101               	movlb	1	; () banked
  3039  000068' 6F00'              	movwf	((?___ftpack+1))&0ffh
  3040  00006A' EC00' F000'        	call	___ftpack	;wreg free
  3041                           	line	23
  3042  00006E' C000' F000'        	movff	(___lwtoft@f1),(?___lwtoft)
  3043  000072' C001' F001'        	movff	(___lwtoft@f1+1),(?___lwtoft+1)
  3044  000076' C002' F002'        	movff	(___lwtoft@f1+2),(?___lwtoft+2)
  3045  00007A' EF00' F000'        	goto	l1165
  3046                           	line	24
  3047  00007E'                    l1165:
  3048                           			; BSR set to: ?
  3049                           
  3050  00007E' 0012               	return
  3051                           	opt stack 0
  3052                           GLOBAL __end_of___lwtoft
  3053  000080'                    	__end_of___lwtoft:
  3054                           	FNSIZE	___lwtoft,4,3
  3055                           ; =============== function ___lwtoft ends ======
                                 ======
  3056                           
  3057                           	signat	___lwtoft,4219
  3058                           	global	_measure_freq
  3059                           	global	??_measure_freq
  3060                           	global	?_measure_freq
  3061                           
  3062                           ; *************** function _measure_freq *******
                                 **********
  3063                           ; Defined at:
  3064                           ;		line 299 in file "../../../src/LC-meter.c"
  3065                           ; Parameters:
  3066                           ;		None
  3067                           ; Auto variables:
  3068                           ;		prev        	       	type: unsigned char 
  3069                           ;		count       	       	type: unsigned short 
  3070                           ;		i           	       	type: unsigned char 
  3071                           ; Return value:
  3072                           ;		type: unsigned short 
  3073                           ;		size: 2
  3074                           ; Registers used:
  3075                           ;		wreg, status,2, status,0
  3076                           ; Tracked objects:
  3077                           ;		On entry : 0/0
  3078                           ;		On exit  : 0/0
  3079                           ;		Unchanged: 0/0
  3080                           ; Data sizes:
  3081                           ;		Autos:    4
  3082                           ;		Params:   2
  3083                           ;		Temp:     4
  3084                           ;		Total:   10
  3085                           ; This function calls:
  3086                           ;		__delay
  3087                           ; This function is called by:
  3088                           ;		_calibrate
  3089                           ;		_measure_capacitance
  3090                           ;		_measure_inductance
  3091                           ; This function uses a non-reentrant model
  3092                           ; 
  3093                                   psect   text13,class=CODE,space=0,reloc=
                                 2
  3094                           
  3095                           	opt lm
  3096                           	file	"../../../src/LC-meter.c"
  3097                           	line	299
  3098  000000                     	__size_of_measure_freq	equ	__end_of_measure_fre
                                 q-_measure_freq
  3099                           ;LC-meter.c: 298: unsigned short int
  3100                           ;LC-meter.c: 299: measure_freq() {
  3101                           	
  3102  000000'                    _measure_freq:		; BSR set to: ?
  3103                           
  3104                           	opt stack 28
  3105                           	line	303
  3106  000000' 94F2               	bcf	c:(32658/8),(32658)&7	;volatile
  3107                           	line	305
  3108                           ;LC-meter.c: 305: TRISA &= ~0b00010000;
  3109  000002' 9892               	bcf	(0+(4/8)+(c:3986)),c,(4)&7	;volatile
  3110                           	line	308
  3111                           ;LC-meter.c: 308: _delay((unsigned long)((20)*(2
                                 0000000/4000.0)));
  3112  000004' 0E82               	movlw	130
  3113  000006' 0101               	movlb	1	; () banked
  3114  000008' 6F00'              movwf	(??_measure_freq+4+0)&0ffh,f
  3115  00000A' 0EDD               	movlw	221
  3116  00000C'                    u3007:
  3117  00000C' 2EE8               	decfsz	wreg,f
  3118  00000E' EF00' F000'        	goto	u3007
  3119  000012' 2F00'              	decfsz	(??_measure_freq+4+0)&0ffh,f
  3120  000014' EF00' F000'        	goto	u3007
  3121  000018' D000               	nop2
  3122                           
  3123                           	line	310
  3124                           ;LC-meter.c: 310: TMR0 = 0x00;
  3125  00001A' 0E00               	movlw	low(0)
  3126  00001C' 6ED6               	movwf	((c:4054)),c	;volatile
  3127  00001E' 0E00               	movlw	high(0)
  3128  000020' 6ED7               	movwf	((c:4054+1)),c	;volatile
  3129                           	line	312
  3130                           ;LC-meter.c: 312: for(char i = 0; i < 10; i++) _
                                 delay((unsigned long)((10)*(20000000/4000.0)));
  3131  000022' 0101               	movlb	1	; () banked
  3132  000024' 6F00'              	movwf	(??_measure_freq+4+0)&0ffh
  3133  000026' 0E00               	movlw	low(0)
  3134  000028' 0101               	movlb	1	; () banked
  3135  00002A' 0101               	movlb	1	; () banked
  3136  00002C' 6F00'              	movwf	((measure_freq@i))&0ffh
  3137  00002E' 0101               	movlb	1	; () banked
  3138  000030' 5100'              	movf	(??_measure_freq+4+0)&0ffh,w
  3139  000032' 0E09               	movlw	(0Ah-1)
  3140  000034' 0101               	movlb	1	; () banked
  3141  000036' 0101               	movlb	1	; () banked
  3142  000038' 6500'              	cpfsgt	((measure_freq@i))&0ffh
  3143  00003A' EF00' F000'        	goto	u2541
  3144  00003E' EF00' F000'        	goto	u2540
  3145  000042'                    u2541:
  3146  000042' EF00' F000'        	goto	l583
  3147  000046'                    u2540:
  3148  000046' EF00' F000'        	goto	l584
  3149                           	
  3150  00004A'                    l583:		; BSR set to: ?
  3151                           
  3152  00004A' 0E41               	movlw	65
  3153  00004C' 0101               	movlb	1	; () banked
  3154  00004E' 6F00'              movwf	(??_measure_freq+4+0)&0ffh,f
  3155  000050' 0EEE               	movlw	238
  3156  000052'                    u3017:
  3157  000052' 2EE8               	decfsz	wreg,f
  3158  000054' EF00' F000'        	goto	u3017
  3159  000058' 2F00'              	decfsz	(??_measure_freq+4+0)&0ffh,f
  3160  00005A' EF00' F000'        	goto	u3017
  3161  00005E' 0004               	clrwdt
  3162                           
  3163  000060' 0101               	movlb	1	; () banked
  3164  000062' 0101               	movlb	1	; () banked
  3165  000064' 2B00'              	incf	((measure_freq@i))&0ffh
  3166  000066' 0E09               	movlw	(0Ah-1)
  3167  000068' 0101               	movlb	1	; () banked
  3168  00006A' 0101               	movlb	1	; () banked
  3169  00006C' 6500'              	cpfsgt	((measure_freq@i))&0ffh
  3170  00006E' EF00' F000'        	goto	u2551
  3171  000072' EF00' F000'        	goto	u2550
  3172  000076'                    u2551:
  3173  000076' EF00' F000'        	goto	l583
  3174  00007A'                    u2550:
  3175                           	
  3176  00007A'                    l584:		; BSR set to: ?
  3177                           
  3178                           	line	314
  3179                           ;LC-meter.c: 314: TRISA |= 0b00010000;
  3180  00007A' 8892               	bsf	(0+(4/8)+(c:3986)),c,(4)&7	;volatile
  3181                           	line	316
  3182                           ;LC-meter.c: 316: prev = TMR0;
  3183  00007C' CFD6 F000'         	movff	(c:4054),(measure_freq@prev)	;volatile
  3184                           	line	317
  3185                           ;LC-meter.c: 317: count = 0;
  3186  000080' 0E00               	movlw	low(0)
  3187  000082' 0101               	movlb	1	; () banked
  3188  000084' 0101               	movlb	1	; () banked
  3189  000086' 6F00'              	movwf	((measure_freq@count))&0ffh
  3190  000088' 0E00               	movlw	high(0)
  3191  00008A' 0101               	movlb	1	; () banked
  3192  00008C' 6F00'              	movwf	((measure_freq@count+1))&0ffh
  3193                           	line	319
  3194                           ;LC-meter.c: 319: do {
  3195                           	
  3196  00008E'                    l588:		; BSR set to: ?
  3197                           
  3198                           	line	321
  3199                           ;LC-meter.c: 321: T0SE = 1;
  3200  00008E' 88D5               	bsf	c:(32428/8),(32428)&7	;volatile
  3201                           	line	322
  3202                           # 322 "../../../src/LC-meter.c"
  3203  000090' F000                nop ;#
  3204                           	line	323
  3205                           # 323 "../../../src/LC-meter.c"
  3206  000092' F000                nop ;#
  3207                                   psect   text13
  3208                           	line	325
  3209                           ;LC-meter.c: 322: asm(" nop");
  3210                           ;LC-meter.c: 323: asm(" nop");
  3211                           ;LC-meter.c: 325: T0SE = 0;
  3212  000094' 98D5               	bcf	c:(32428/8),(32428)&7	;volatile
  3213                           	line	326
  3214                           # 326 "../../../src/LC-meter.c"
  3215  000096' F000                nop ;#
  3216                           	line	327
  3217                           # 327 "../../../src/LC-meter.c"
  3218  000098' F000                nop ;#
  3219                                   psect   text13
  3220                           	line	328
  3221                           ;LC-meter.c: 326: asm(" nop");
  3222                           ;LC-meter.c: 327: asm(" nop");
  3223                           ;LC-meter.c: 328: count++;
  3224  00009A' 0101               	movlb	1	; () banked
  3225  00009C' 0101               	movlb	1	; () banked
  3226  00009E' 4B00'              	infsnz	((measure_freq@count))&0ffh
  3227  0000A0' 2B00'              	incf	((measure_freq@count+1))&0ffh
  3228                           	line	329
  3229                           ;LC-meter.c: 329: } while(prev == TMR0 && count 
                                 <= 255);
  3230  0000A2' 0101               	movlb	1	; () banked
  3231  0000A4' C000' F004'        	movff	(measure_freq@prev),??_measure_freq+4+0
  3232  0000A8' 0101               	movlb	1	; () banked
  3233  0000AA' 6B00'              	clrf	(??_measure_freq+4+0+1)&0ffh
  3234  0000AC' 50D7               	movf	((c:4054+1)),c,w	;volatile
  3235  0000AE' 0101               	movlb	1	; () banked
  3236  0000B0' 1900'              	xorwf	(??_measure_freq+4+1)&0ffh,w
  3237  0000B2' E103               	bnz	u2565
  3238  0000B4' 50D6               	movf	((c:4054)),c,w	;volatile
  3239  0000B6' 0101               	movlb	1	; () banked
  3240  0000B8' 1900'              	xorwf	(??_measure_freq+4+0)&0ffh,w
  3241  0000BA'                    u2565:
  3242                           
  3243  0000BA' A4D8               	btfss	status,2
  3244  0000BC' EF00' F000'        	goto	u2561
  3245  0000C0' EF00' F000'        	goto	u2560
  3246  0000C4'                    u2561:
  3247  0000C4' EF00' F000'        	goto	l587
  3248  0000C8'                    u2560:
  3249  0000C8' 0E00               	movlw	0
  3250  0000CA' 0101               	movlb	1	; () banked
  3251  0000CC' 0101               	movlb	1	; () banked
  3252  0000CE' 5D00'              	subwf	((measure_freq@count))&0ffh,w
  3253  0000D0' 0E01               	movlw	01h
  3254  0000D2' 0101               	movlb	1	; () banked
  3255  0000D4' 5900'              	subwfb	((measure_freq@count+1))&0ffh,w
  3256  0000D6' A0D8               	btfss	status,0
  3257  0000D8' EF00' F000'        	goto	u2571
  3258  0000DC' EF00' F000'        	goto	u2570
  3259  0000E0'                    u2571:
  3260  0000E0' EF00' F000'        	goto	l588
  3261  0000E4'                    u2570:
  3262                           	
  3263  0000E4'                    l600000659:		; BSR set to: ?
  3264                           
  3265                           	
  3266  0000E4'                    l587:		; BSR set to: ?
  3267                           
  3268                           	line	332
  3269                           ;LC-meter.c: 332: count = ((prev << 8) + (256 - 
                                 count));
  3270  0000E4' 0E00               	movlw	low(0100h)
  3271  0000E6' 0101               	movlb	1	; () banked
  3272  0000E8' 6F00'              	movwf	(??_measure_freq+4+0)&0ffh
  3273  0000EA' 0E01               	movlw	high(0100h)
  3274  0000EC' 6F00'              	movwf	(??_measure_freq+4+0+1)&0ffh
  3275  0000EE' 0101               	movlb	1	; () banked
  3276  0000F0' 0101               	movlb	1	; () banked
  3277  0000F2' 5100'              	movf	((measure_freq@count))&0ffh,w
  3278  0000F4' 0101               	movlb	1	; () banked
  3279  0000F6' 5F00'              	subwf	(??_measure_freq+4+0)&0ffh
  3280  0000F8' 0101               	movlb	1	; () banked
  3281  0000FA' 0101               	movlb	1	; () banked
  3282  0000FC' 5100'              	movf	((measure_freq@count+1))&0ffh,w
  3283  0000FE' 0101               	movlb	1	; () banked
  3284  000100' 5B00'              	subwfb	(??_measure_freq+4+1)&0ffh
  3285  000102' 0101               	movlb	1	; () banked
  3286  000104' 0101               	movlb	1	; () banked
  3287  000106' 5100'              	movf	((measure_freq@prev))&0ffh,w
  3288  000108' 0101               	movlb	1	; () banked
  3289  00010A' 6F00'              	movwf	(??_measure_freq+6+0+1)&0ffh
  3290  00010C' 6B00'              	clrf	(??_measure_freq+6+0)&0ffh
  3291  00010E' 0101               	movlb	1	; () banked
  3292  000110' 5100'              	movf	(??_measure_freq+4+0)&0ffh,w
  3293  000112' 0101               	movlb	1	; () banked
  3294  000114' 2500'              	addwf	(??_measure_freq+6+0)&0ffh,w
  3295  000116' 0101               	movlb	1	; () banked
  3296                           	
  3297  000118' 0101               	movlb	1	; () banked
  3298  00011A' 6F00'              	movwf	((measure_freq@count))&0ffh
  3299  00011C' 0101               	movlb	1	; () banked
  3300  00011E' 5100'              	movf	(??_measure_freq+4+1)&0ffh,w
  3301  000120' 0101               	movlb	1	; () banked
  3302  000122' 2100'              	addwfc	(??_measure_freq+6+1)&0ffh,w
  3303  000124' 0101               	movlb	1	; () banked
  3304  000126' 6F00'              	movwf	1+((measure_freq@count))&0ffh
  3305                           	line	339
  3306  000128' C001' F000'        	movff	(measure_freq@count),(?_measure_freq)
  3307  00012C' C002' F001'        	movff	(measure_freq@count+1),(?_measure_freq+1)
  3308  000130' EF00' F000'        	goto	l582
  3309                           	line	340
  3310                           ;LC-meter.c: 340: }
  3311  000134'                    l582:
  3312                           			; BSR set to: ?
  3313                           
  3314  000134' 0012               	return
  3315                           	opt stack 0
  3316                           GLOBAL __end_of_measure_freq
  3317  000136'                    	__end_of_measure_freq:
  3318                           	FNSIZE	_measure_freq,8,2
  3319                           ; =============== function _measure_freq ends ==
                                 ==========
  3320                           
  3321                           	signat	_measure_freq,90
  3322                           	global	___ftge
  3323                           	global	??___ftge
  3324                           	global	?___ftge
  3325                           
  3326                           ; *************** function ___ftge *************
                                 ****
  3327                           ; Defined at:
  3328                           ;		line 5 in file "C:\Program Files (x86)\HI-TEC
                                 H Software\PICC-18\PRO\9.66\sources\ftge.c"
  3329                           ; Parameters:
  3330                           ;		ff1            size:   3offs:   0	type: float
                                  
  3331                           ;		ff2            size:   3offs:   3	type: float
                                  
  3332                           ; Auto variables:
  3333                           ;		None
  3334                           ; Return value:
  3335                           ;		type: bit 
  3336                           ;		size: 0
  3337                           ; Registers used:
  3338                           ;		wreg, status,2, status,0
  3339                           ; Tracked objects:
  3340                           ;		On entry : 0/0
  3341                           ;		On exit  : 0/0
  3342                           ;		Unchanged: 0/0
  3343                           ; Data sizes:
  3344                           ;		Autos:    0
  3345                           ;		Params:   6
  3346                           ;		Temp:     3
  3347                           ;		Total:    9
  3348                           ; This function calls:
  3349                           ;		Nothing
  3350                           ; This function is called by:
  3351                           ;		_measure_capacitance
  3352                           ;		_measure_inductance
  3353                           ;		_floor
  3354                           ;		_pow
  3355                           ;		_exp
  3356                           ; This function uses a non-reentrant model
  3357                           ; 
  3358                                   psect   text14,class=CODE,space=0,reloc=
                                 2
  3359                           
  3360                           	opt lm
  3361                           	file	"C:\Program Files (x86)\HI-TECH Software\P
                                 ICC-18\PRO\9.66\sources\ftge.c"
  3362                           	line	5
  3363  000000                     	__size_of___ftge	equ	__end_of___ftge-___ftge
  3364                           	
  3365  000000'                    ___ftge:		; BSR set to: ?
  3366                           
  3367                           	opt stack 28
  3368                           	line	6
  3369  000000' 0101               	movlb	1	; () banked
  3370                           	
  3371  000002' 0101               	movlb	1	; () banked
  3372  000004' AF00'              	btfss	((___ftge@ff1+2))&0ffh,(23)&7
  3373  000006' EF00' F000'        	goto	u2521
  3374  00000A' EF00' F000'        	goto	u2520
  3375  00000E'                    u2521:
  3376  00000E' EF00' F000'        	goto	l1177
  3377  000012'                    u2520:
  3378                           	line	7
  3379  000012' 0E00               	movlw	0
  3380  000014' 6F00'              	movwf	(??___ftge+0+0)&0ffh
  3381  000016' 0E00               	movlw	0
  3382  000018' 6F00'              	movwf	(??___ftge+0+0+1)&0ffh
  3383  00001A' 0E80               	movlw	080h
  3384  00001C' 6F00'              	movwf	(??___ftge+0+0+2)&0ffh
  3385  00001E' 0101               	movlb	1	; () banked
  3386  000020' 0101               	movlb	1	; () banked
  3387  000022' 5100'              	movf	((___ftge@ff1))&0ffh,w
  3388  000024' 0101               	movlb	1	; () banked
  3389  000026' 5D00'              	subwf	(??___ftge+0+0)&0ffh,w
  3390  000028' 0101               	movlb	1	; () banked
  3391  00002A' 0101               	movlb	1	; () banked
  3392  00002C' 6F00'              	movwf	((___ftge@ff1))&0ffh
  3393  00002E' 0101               	movlb	1	; () banked
  3394  000030' 0101               	movlb	1	; () banked
  3395  000032' 5100'              	movf	((___ftge@ff1+1))&0ffh,w
  3396  000034' 0101               	movlb	1	; () banked
  3397  000036' 5900'              	subwfb	(??___ftge+0+1)&0ffh,w
  3398  000038' 0101               	movlb	1	; () banked
  3399  00003A' 6F00'              	movwf	1+((___ftge@ff1))&0ffh
  3400  00003C' 0101               	movlb	1	; () banked
  3401  00003E' 0101               	movlb	1	; () banked
  3402  000040' 5100'              	movf	((___ftge@ff1+2))&0ffh,w
  3403  000042' 0101               	movlb	1	; () banked
  3404  000044' 5900'              	subwfb	(??___ftge+0+2)&0ffh,w
  3405  000046' 0101               	movlb	1	; () banked
  3406  000048' 6F00'              	movwf	2+((___ftge@ff1))&0ffh
  3407                           	
  3408  00004A'                    l1177:		; BSR set to: ?
  3409                           
  3410                           	line	8
  3411  00004A' 0101               	movlb	1	; () banked
  3412                           	
  3413  00004C' 0101               	movlb	1	; () banked
  3414  00004E' AF00'              	btfss	((___ftge@ff2+2))&0ffh,(23)&7
  3415  000050' EF00' F000'        	goto	u2531
  3416  000054' EF00' F000'        	goto	u2530
  3417  000058'                    u2531:
  3418  000058' EF00' F000'        	goto	l1178
  3419  00005C'                    u2530:
  3420                           	line	9
  3421  00005C' 0E00               	movlw	0
  3422  00005E' 6F00'              	movwf	(??___ftge+0+0)&0ffh
  3423  000060' 0E00               	movlw	0
  3424  000062' 6F00'              	movwf	(??___ftge+0+0+1)&0ffh
  3425  000064' 0E80               	movlw	080h
  3426  000066' 6F00'              	movwf	(??___ftge+0+0+2)&0ffh
  3427  000068' 0101               	movlb	1	; () banked
  3428  00006A' 0101               	movlb	1	; () banked
  3429  00006C' 5100'              	movf	((___ftge@ff2))&0ffh,w
  3430  00006E' 0101               	movlb	1	; () banked
  3431  000070' 5D00'              	subwf	(??___ftge+0+0)&0ffh,w
  3432  000072' 0101               	movlb	1	; () banked
  3433  000074' 0101               	movlb	1	; () banked
  3434  000076' 6F00'              	movwf	((___ftge@ff2))&0ffh
  3435  000078' 0101               	movlb	1	; () banked
  3436  00007A' 0101               	movlb	1	; () banked
  3437  00007C' 5100'              	movf	((___ftge@ff2+1))&0ffh,w
  3438  00007E' 0101               	movlb	1	; () banked
  3439  000080' 5900'              	subwfb	(??___ftge+0+1)&0ffh,w
  3440  000082' 0101               	movlb	1	; () banked
  3441  000084' 6F00'              	movwf	1+((___ftge@ff2))&0ffh
  3442  000086' 0101               	movlb	1	; () banked
  3443  000088' 0101               	movlb	1	; () banked
  3444  00008A' 5100'              	movf	((___ftge@ff2+2))&0ffh,w
  3445  00008C' 0101               	movlb	1	; () banked
  3446  00008E' 5900'              	subwfb	(??___ftge+0+2)&0ffh,w
  3447  000090' 0101               	movlb	1	; () banked
  3448  000092' 6F00'              	movwf	2+((___ftge@ff2))&0ffh
  3449                           	
  3450  000094'                    l1178:		; BSR set to: ?
  3451                           
  3452                           	line	10
  3453  000094' 0E00               	movlw	low(0800000h)
  3454  000096' 0101               	movlb	1	; () banked
  3455  000098' 0101               	movlb	1	; () banked
  3456  00009A' 1B00'              	xorwf	((___ftge@ff1))&0ffh
  3457  00009C' 0E00               	movlw	high(0800000h)
  3458  00009E' 0101               	movlb	1	; () banked
  3459  0000A0' 0101               	movlb	1	; () banked
  3460  0000A2' 1B00'              	xorwf	((___ftge@ff1+1))&0ffh
  3461  0000A4' 0E80               	movlw	low highword(0800000h)
  3462  0000A6' 0101               	movlb	1	; () banked
  3463  0000A8' 0101               	movlb	1	; () banked
  3464  0000AA' 1B00'              	xorwf	((___ftge@ff1+2))&0ffh
  3465                           
  3466                           	line	11
  3467  0000AC' 0E00               	movlw	low(0800000h)
  3468  0000AE' 0101               	movlb	1	; () banked
  3469  0000B0' 0101               	movlb	1	; () banked
  3470  0000B2' 1B00'              	xorwf	((___ftge@ff2))&0ffh
  3471  0000B4' 0E00               	movlw	high(0800000h)
  3472  0000B6' 0101               	movlb	1	; () banked
  3473  0000B8' 0101               	movlb	1	; () banked
  3474  0000BA' 1B00'              	xorwf	((___ftge@ff2+1))&0ffh
  3475  0000BC' 0E80               	movlw	low highword(0800000h)
  3476  0000BE' 0101               	movlb	1	; () banked
  3477  0000C0' 0101               	movlb	1	; () banked
  3478  0000C2' 1B00'              	xorwf	((___ftge@ff2+2))&0ffh
  3479                           
  3480                           	line	12
  3481  0000C4' 0101               	movlb	1	; () banked
  3482  0000C6' 0101               	movlb	1	; () banked
  3483  0000C8' 5100'              	movf	((___ftge@ff2))&0ffh,w
  3484  0000CA' 0101               	movlb	1	; () banked
  3485  0000CC' 0101               	movlb	1	; () banked
  3486  0000CE' 5D00'              	subwf	((___ftge@ff1))&0ffh,w
  3487  0000D0' 0101               	movlb	1	; () banked
  3488  0000D2' 0101               	movlb	1	; () banked
  3489  0000D4' 5100'              	movf	((___ftge@ff2+1))&0ffh,w
  3490  0000D6' 0101               	movlb	1	; () banked
  3491  0000D8' 0101               	movlb	1	; () banked
  3492  0000DA' 5900'              	subwfb	((___ftge@ff1+1))&0ffh,w
  3493  0000DC' 0101               	movlb	1	; () banked
  3494  0000DE' 0101               	movlb	1	; () banked
  3495  0000E0' 5100'              	movf	((___ftge@ff2+2))&0ffh,w
  3496  0000E2' 0101               	movlb	1	; () banked
  3497  0000E4' 0101               	movlb	1	; () banked
  3498  0000E6' 5900'              	subwfb	((___ftge@ff1+2))&0ffh,w
  3499  0000E8' EF00' F000'        	goto	l1176
  3500                           	line	13
  3501  0000EC'                    l1176:
  3502                           			; BSR set to: ?
  3503                           
  3504  0000EC' 0012               	return
  3505                           	opt stack 0
  3506                           GLOBAL __end_of___ftge
  3507  0000EE'                    	__end_of___ftge:
  3508                           	FNSIZE	___ftge,3,6
  3509                           ; =============== function ___ftge ends ========
                                 ====
  3510                           
  3511                           	signat	___ftge,8312
  3512                           	global	___ftadd
  3513                           	global	??___ftadd
  3514                           	global	?___ftadd
  3515                           
  3516                           ; *************** function ___ftadd ************
                                 *****
  3517                           ; Defined at:
  3518                           ;		line 17 in file "C:\Program Files (x86)\HI-TE
                                 CH Software\PICC-18\PRO\9.66\sources\ftadd.c"
  3519                           ; Parameters:
  3520                           ;		f1             size:   3offs:   0	type: float
                                  
  3521                           ;		f2             size:   3offs:   3	type: float
                                  
  3522                           ; Auto variables:
  3523                           ;		sign2       	       	type: unsigned char 
  3524                           ;		cntr        	       	type: unsigned char 
  3525                           ;		sign1       	       	type: unsigned char 
  3526                           ;		exp2        	       	type: unsigned char 
  3527                           ;		exp1        	       	type: unsigned char 
  3528                           ; Return value:
  3529                           ;		type: float 
  3530                           ;		size: 3
  3531                           ; Registers used:
  3532                           ;		wreg, fsr0l, fsr0h, status,2, status,0, cstac
                                 k
  3533                           ; Tracked objects:
  3534                           ;		On entry : 0/0
  3535                           ;		On exit  : 0/0
  3536                           ;		Unchanged: 0/0
  3537                           ; Data sizes:
  3538                           ;		Autos:    5
  3539                           ;		Params:   6
  3540                           ;		Temp:     1
  3541                           ;		Total:   12
  3542                           ; This function calls:
  3543                           ;		___ftunpack
  3544                           ;		___ftpack
  3545                           ; This function is called by:
  3546                           ;		___ftsub
  3547                           ;		_floor
  3548                           ;		_log
  3549                           ;		_eval_poly
  3550                           ; This function uses a non-reentrant model
  3551                           ; 
  3552                                   psect   text15,class=CODE,space=0,reloc=
                                 2
  3553                           
  3554                           	opt lm
  3555                           	file	"C:\Program Files (x86)\HI-TECH Software\P
                                 ICC-18\PRO\9.66\sources\ftadd.c"
  3556                           	line	17
  3557  000000                     	__size_of___ftadd	equ	__end_of___ftadd-___ftadd
  3558                           	
  3559  000000'                    ___ftadd:		; BSR set to: ?
  3560                           
  3561                           	opt stack 27
  3562                           	line	20
  3563  000000' EF00' F000'        	goto	l1030
  3564                           	line	21
  3565                           	
  3566  000004'                    l1030:		; BSR set to: ?
  3567                           
  3568                           	line	22
  3569  000004' 0101               	movlb	1	; () banked
  3570  000006' 0E00'              	movlw	low(___ftadd@exp1)
  3571  000008' 0101               	movlb	1	; () banked
  3572  00000A' 0101               	movlb	1	; () banked
  3573  00000C' 6F00'              	movwf	(0+(?___ftunpack+02h))&0ffh
  3574  00000E' 0101               	movlb	1	; () banked
  3575  000010' 0E00'              	movlw	high(___ftadd@exp1)
  3576  000012' 0101               	movlb	1	; () banked
  3577  000014' 6F00'              	movwf	(1+(?___ftunpack+02h))&0ffh
  3578  000016' 0101               	movlb	1	; () banked
  3579  000018' 0E00'              	movlw	low(___ftadd@f1)
  3580  00001A' 0101               	movlb	1	; () banked
  3581  00001C' 0101               	movlb	1	; () banked
  3582  00001E' 6F00'              	movwf	((?___ftunpack))&0ffh
  3583  000020' 0101               	movlb	1	; () banked
  3584  000022' 0E00'              	movlw	high(___ftadd@f1)
  3585  000024' 0101               	movlb	1	; () banked
  3586  000026' 6F00'              	movwf	((?___ftunpack+1))&0ffh
  3587  000028' EC00' F000'        	call	___ftunpack	;wreg free
  3588  00002C' 0101               	movlb	1	; () banked
  3589  00002E' 0101               	movlb	1	; () banked
  3590  000030' 6F00'              	movwf	((___ftadd@sign1))&0ffh
  3591                           	line	23
  3592  000032' 0101               	movlb	1	; () banked
  3593  000034' 0101               	movlb	1	; () banked
  3594  000036' 6700'              	tstfsz	((___ftadd@exp1))&0ffh
  3595  000038' EF00' F000'        	goto	u2581
  3596  00003C' EF00' F000'        	goto	u2580
  3597  000040'                    u2581:
  3598  000040' EF00' F000'        	goto	l1031
  3599  000044'                    u2580:
  3600                           	line	24
  3601  000044' C003' F000'        	movff	(___ftadd@f2),(?___ftadd)
  3602  000048' C004' F001'        	movff	(___ftadd@f2+1),(?___ftadd+1)
  3603  00004C' C005' F002'        	movff	(___ftadd@f2+2),(?___ftadd+2)
  3604  000050' EF00' F000'        	goto	l1029
  3605                           	
  3606  000054'                    l1031:		; BSR set to: ?
  3607                           
  3608                           	line	25
  3609  000054' 0101               	movlb	1	; () banked
  3610  000056' 0E00'              	movlw	low(___ftadd@exp2)
  3611  000058' 0101               	movlb	1	; () banked
  3612  00005A' 0101               	movlb	1	; () banked
  3613  00005C' 6F00'              	movwf	(0+(?___ftunpack+02h))&0ffh
  3614  00005E' 0101               	movlb	1	; () banked
  3615  000060' 0E00'              	movlw	high(___ftadd@exp2)
  3616  000062' 0101               	movlb	1	; () banked
  3617  000064' 6F00'              	movwf	(1+(?___ftunpack+02h))&0ffh
  3618  000066' 0101               	movlb	1	; () banked
  3619  000068' 0E00'              	movlw	low(___ftadd@f2)
  3620  00006A' 0101               	movlb	1	; () banked
  3621  00006C' 0101               	movlb	1	; () banked
  3622  00006E' 6F00'              	movwf	((?___ftunpack))&0ffh
  3623  000070' 0101               	movlb	1	; () banked
  3624  000072' 0E00'              	movlw	high(___ftadd@f2)
  3625  000074' 0101               	movlb	1	; () banked
  3626  000076' 6F00'              	movwf	((?___ftunpack+1))&0ffh
  3627  000078' EC00' F000'        	call	___ftunpack	;wreg free
  3628  00007C' 0101               	movlb	1	; () banked
  3629  00007E' 0101               	movlb	1	; () banked
  3630  000080' 6F00'              	movwf	((___ftadd@sign2))&0ffh
  3631                           	line	26
  3632  000082' 0101               	movlb	1	; () banked
  3633  000084' 0101               	movlb	1	; () banked
  3634  000086' 5100'              	movf	((___ftadd@exp2))&0ffh,w
  3635  000088' B4D8               	btfsc	status,2
  3636  00008A' EF00' F000'        	goto	u2591
  3637  00008E' EF00' F000'        	goto	u2590
  3638  000092'                    u2591:
  3639  000092' EF00' F000'        	goto	l1032
  3640  000096'                    u2590:
  3641                           	line	27
  3642  000096' 0101               	movlb	1	; () banked
  3643  000098' 6F00'              	movwf	(??___ftadd+5+0)&0ffh
  3644  00009A' 0E06               	movlw	low(06h)
  3645  00009C' 0101               	movlb	1	; () banked
  3646  00009E' 0101               	movlb	1	; () banked
  3647  0000A0' 6F00'              	movwf	((___ftadd@cntr))&0ffh
  3648  0000A2' 0101               	movlb	1	; () banked
  3649  0000A4' 5100'              	movf	(??___ftadd+5+0)&0ffh,w
  3650                           	line	29
  3651  0000A6' 0101               	movlb	1	; () banked
  3652  0000A8' 0101               	movlb	1	; () banked
  3653  0000AA' 5100'              	movf	((___ftadd@exp2))&0ffh,w
  3654  0000AC' 0101               	movlb	1	; () banked
  3655  0000AE' 0101               	movlb	1	; () banked
  3656  0000B0' 6100'              	cpfslt	((___ftadd@exp1))&0ffh
  3657  0000B2' EF00' F000'        	goto	u2601
  3658  0000B6' EF00' F000'        	goto	u2600
  3659  0000BA'                    u2601:
  3660  0000BA' EF00' F000'        	goto	l1033
  3661  0000BE'                    u2600:
  3662                           	line	30
  3663  0000BE' 0101               	movlb	1	; () banked
  3664  0000C0' 0101               	movlb	1	; () banked
  3665  0000C2' 5100'              	movf	((___ftadd@exp1))&0ffh,w
  3666  0000C4' 0101               	movlb	1	; () banked
  3667  0000C6' 0101               	movlb	1	; () banked
  3668  0000C8' 5D00'              	subwf	((___ftadd@exp2))&0ffh,w
  3669  0000CA' 0101               	movlb	1	; () banked
  3670  0000CC' 6F00'              	movwf	(??___ftadd+5+0)&0ffh
  3671  0000CE' 0E19               	movlw	(019h)&0ffh
  3672  0000D0' 0101               	movlb	1	; () banked
  3673  0000D2' 5D00'              	subwf	((??___ftadd+5+0))&0ffh,w
  3674  0000D4' A0D8               	btfss	status,0
  3675  0000D6' EF00' F000'        	goto	u2611
  3676  0000DA' EF00' F000'        	goto	u2610
  3677  0000DE'                    u2611:
  3678  0000DE' EF00' F000'        	goto	l1038
  3679  0000E2'                    u2610:
  3680                           	line	32
  3681  0000E2' 0E00               	movlw	low(0)
  3682  0000E4' 0101               	movlb	1	; () banked
  3683  0000E6' 0101               	movlb	1	; () banked
  3684  0000E8' 6F00'              	movwf	((___ftadd@f1))&0ffh
  3685  0000EA' 0E00               	movlw	high(0)
  3686  0000EC' 0101               	movlb	1	; () banked
  3687  0000EE' 0101               	movlb	1	; () banked
  3688  0000F0' 6F00'              	movwf	((___ftadd@f1+1))&0ffh
  3689  0000F2' 0E00               	movlw	low highword(0)
  3690  0000F4' 0101               	movlb	1	; () banked
  3691  0000F6' 0101               	movlb	1	; () banked
  3692  0000F8' 6F00'              	movwf	((___ftadd@f1+2))&0ffh
  3693                           
  3694                           	line	33
  3695  0000FA' C003' F004'        	movff	(___ftadd@exp2),(___ftadd@exp1)
  3696                           	line	34
  3697  0000FE' C000' F002'        	movff	(___ftadd@sign2),(___ftadd@sign1)
  3698                           	line	35
  3699  000102' EF00' F000'        	goto	l1035
  3700                           	line	38
  3701                           	
  3702  000106'                    l1038:		; BSR set to: ?
  3703                           
  3704                           	line	39
  3705  000106' 0101               	movlb	1	; () banked
  3706  000108' 90D8               	bcf	status,0
  3707  00010A' 0101               	movlb	1	; () banked
  3708  00010C' 3700'              	rlcf	((___ftadd@f2))&0ffh
  3709  00010E' 0101               	movlb	1	; () banked
  3710  000110' 3700'              	rlcf	((___ftadd@f2+1))&0ffh
  3711  000112' 0101               	movlb	1	; () banked
  3712  000114' 3700'              	rlcf	((___ftadd@f2+2))&0ffh
  3713                           	line	40
  3714  000116' 0101               	movlb	1	; () banked
  3715  000118' 0101               	movlb	1	; () banked
  3716  00011A' 0700'              	decf	((___ftadd@exp2))&0ffh
  3717                           	line	41
  3718  00011C' 0101               	movlb	1	; () banked
  3719  00011E' 0101               	movlb	1	; () banked
  3720  000120' 5100'              	movf	((___ftadd@exp2))&0ffh,w
  3721  000122' 0101               	movlb	1	; () banked
  3722  000124' 0101               	movlb	1	; () banked
  3723  000126' 1900'              	xorwf	((___ftadd@exp1))&0ffh,w
  3724  000128' B4D8               	btfsc	status,2
  3725  00012A' EF00' F000'        	goto	u2621
  3726  00012E' EF00' F000'        	goto	u2620
  3727  000132'                    u2621:
  3728  000132' EF00' F000'        	goto	l1037
  3729  000136'                    u2620:
  3730  000136' 0101               	movlb	1	; () banked
  3731  000138' 0101               	movlb	1	; () banked
  3732  00013A' 2F00'              	decfsz	((___ftadd@cntr))&0ffh
  3733                           	
  3734  00013C' EF00' F000'        	goto	l1038
  3735                           	
  3736  000140'                    l600000660:		; BSR set to: ?
  3737                           
  3738                           	
  3739  000140'                    l1037:		; BSR set to: ?
  3740                           
  3741                           	line	42
  3742  000140' EF00' F000'        	goto	l1039
  3743                           	
  3744  000144'                    l1040:		; BSR set to: ?
  3745                           
  3746                           	line	43
  3747  000144' 0101               	movlb	1	; () banked
  3748  000146' 90D8               	bcf	status,0
  3749  000148' 0101               	movlb	1	; () banked
  3750  00014A' 3300'              	rrcf	((___ftadd@f1+2))&0ffh
  3751  00014C' 0101               	movlb	1	; () banked
  3752  00014E' 3300'              	rrcf	((___ftadd@f1+1))&0ffh
  3753  000150' 0101               	movlb	1	; () banked
  3754  000152' 3300'              	rrcf	((___ftadd@f1))&0ffh
  3755                           	line	44
  3756  000154' 0101               	movlb	1	; () banked
  3757  000156' 0101               	movlb	1	; () banked
  3758  000158' 2B00'              	incf	((___ftadd@exp1))&0ffh
  3759                           	line	45
  3760                           	
  3761  00015A'                    l1039:		; BSR set to: ?
  3762                           
  3763                           	line	42
  3764  00015A' 0101               	movlb	1	; () banked
  3765  00015C' 0101               	movlb	1	; () banked
  3766  00015E' 5100'              	movf	((___ftadd@exp2))&0ffh,w
  3767  000160' 0101               	movlb	1	; () banked
  3768  000162' 0101               	movlb	1	; () banked
  3769  000164' 6300'              	cpfseq	((___ftadd@exp1))&0ffh
  3770  000166' EF00' F000'        	goto	u2631
  3771  00016A' EF00' F000'        	goto	u2630
  3772  00016E'                    u2631:
  3773  00016E' EF00' F000'        	goto	l1040
  3774  000172'                    u2630:
  3775                           	
  3776  000172'                    l1041:		; BSR set to: ?
  3777                           
  3778                           	line	46
  3779                           	
  3780  000172'                    l1035:		; BSR set to: ?
  3781                           
  3782                           	line	47
  3783  000172' EF00' F000'        	goto	l1042
  3784                           	
  3785  000176'                    l1033:		; BSR set to: ?
  3786                           
  3787  000176' 0101               	movlb	1	; () banked
  3788  000178' 0101               	movlb	1	; () banked
  3789  00017A' 5100'              	movf	((___ftadd@exp1))&0ffh,w
  3790  00017C' 0101               	movlb	1	; () banked
  3791  00017E' 0101               	movlb	1	; () banked
  3792  000180' 1900'              	xorwf	((___ftadd@exp2))&0ffh,w
  3793  000182' B4D8               	btfsc	status,2
  3794  000184' EF00' F000'        	goto	u2641
  3795  000188' EF00' F000'        	goto	u2640
  3796  00018C'                    u2641:
  3797  00018C' EF00' F000'        	goto	l1042
  3798  000190'                    u2640:
  3799                           	line	48
  3800  000190' 0101               	movlb	1	; () banked
  3801  000192' 0101               	movlb	1	; () banked
  3802  000194' 5100'              	movf	((___ftadd@exp2))&0ffh,w
  3803  000196' 0101               	movlb	1	; () banked
  3804  000198' 0101               	movlb	1	; () banked
  3805  00019A' 5D00'              	subwf	((___ftadd@exp1))&0ffh,w
  3806  00019C' 0101               	movlb	1	; () banked
  3807  00019E' 6F00'              	movwf	(??___ftadd+5+0)&0ffh
  3808  0001A0' 0E19               	movlw	(019h)&0ffh
  3809  0001A2' 0101               	movlb	1	; () banked
  3810  0001A4' 5D00'              	subwf	((??___ftadd+5+0))&0ffh,w
  3811  0001A6' A0D8               	btfss	status,0
  3812  0001A8' EF00' F000'        	goto	u2651
  3813  0001AC' EF00' F000'        	goto	u2650
  3814  0001B0'                    u2651:
  3815  0001B0' EF00' F000'        	goto	l1048
  3816  0001B4'                    u2650:
  3817                           	line	49
  3818  0001B4' 0E00               	movlw	low(0)
  3819  0001B6' 0101               	movlb	1	; () banked
  3820  0001B8' 0101               	movlb	1	; () banked
  3821  0001BA' 6F00'              	movwf	((___ftadd@f2))&0ffh
  3822  0001BC' 0E00               	movlw	high(0)
  3823  0001BE' 0101               	movlb	1	; () banked
  3824  0001C0' 0101               	movlb	1	; () banked
  3825  0001C2' 6F00'              	movwf	((___ftadd@f2+1))&0ffh
  3826  0001C4' 0E00               	movlw	low highword(0)
  3827  0001C6' 0101               	movlb	1	; () banked
  3828  0001C8' 0101               	movlb	1	; () banked
  3829  0001CA' 6F00'              	movwf	((___ftadd@f2+2))&0ffh
  3830                           
  3831  0001CC' EF00' F000'        	goto	l1042
  3832                           	line	53
  3833                           	
  3834  0001D0'                    l1048:		; BSR set to: ?
  3835                           
  3836                           	line	54
  3837  0001D0' 0101               	movlb	1	; () banked
  3838  0001D2' 90D8               	bcf	status,0
  3839  0001D4' 0101               	movlb	1	; () banked
  3840  0001D6' 3700'              	rlcf	((___ftadd@f1))&0ffh
  3841  0001D8' 0101               	movlb	1	; () banked
  3842  0001DA' 3700'              	rlcf	((___ftadd@f1+1))&0ffh
  3843  0001DC' 0101               	movlb	1	; () banked
  3844  0001DE' 3700'              	rlcf	((___ftadd@f1+2))&0ffh
  3845                           	line	55
  3846  0001E0' 0101               	movlb	1	; () banked
  3847  0001E2' 0101               	movlb	1	; () banked
  3848  0001E4' 0700'              	decf	((___ftadd@exp1))&0ffh
  3849                           	line	56
  3850  0001E6' 0101               	movlb	1	; () banked
  3851  0001E8' 0101               	movlb	1	; () banked
  3852  0001EA' 5100'              	movf	((___ftadd@exp2))&0ffh,w
  3853  0001EC' 0101               	movlb	1	; () banked
  3854  0001EE' 0101               	movlb	1	; () banked
  3855  0001F0' 1900'              	xorwf	((___ftadd@exp1))&0ffh,w
  3856  0001F2' B4D8               	btfsc	status,2
  3857  0001F4' EF00' F000'        	goto	u2661
  3858  0001F8' EF00' F000'        	goto	u2660
  3859  0001FC'                    u2661:
  3860  0001FC' EF00' F000'        	goto	l1047
  3861  000200'                    u2660:
  3862  000200' 0101               	movlb	1	; () banked
  3863  000202' 0101               	movlb	1	; () banked
  3864  000204' 2F00'              	decfsz	((___ftadd@cntr))&0ffh
  3865                           	
  3866  000206' EF00' F000'        	goto	l1048
  3867                           	
  3868  00020A'                    l600000661:		; BSR set to: ?
  3869                           
  3870                           	
  3871  00020A'                    l1047:		; BSR set to: ?
  3872                           
  3873                           	line	57
  3874  00020A' EF00' F000'        	goto	l1049
  3875                           	
  3876  00020E'                    l1050:		; BSR set to: ?
  3877                           
  3878                           	line	58
  3879  00020E' 0101               	movlb	1	; () banked
  3880  000210' 90D8               	bcf	status,0
  3881  000212' 0101               	movlb	1	; () banked
  3882  000214' 3300'              	rrcf	((___ftadd@f2+2))&0ffh
  3883  000216' 0101               	movlb	1	; () banked
  3884  000218' 3300'              	rrcf	((___ftadd@f2+1))&0ffh
  3885  00021A' 0101               	movlb	1	; () banked
  3886  00021C' 3300'              	rrcf	((___ftadd@f2))&0ffh
  3887                           	line	59
  3888  00021E' 0101               	movlb	1	; () banked
  3889  000220' 0101               	movlb	1	; () banked
  3890  000222' 2B00'              	incf	((___ftadd@exp2))&0ffh
  3891                           	line	60
  3892                           	
  3893  000224'                    l1049:		; BSR set to: ?
  3894                           
  3895                           	line	57
  3896  000224' 0101               	movlb	1	; () banked
  3897  000226' 0101               	movlb	1	; () banked
  3898  000228' 5100'              	movf	((___ftadd@exp2))&0ffh,w
  3899  00022A' 0101               	movlb	1	; () banked
  3900  00022C' 0101               	movlb	1	; () banked
  3901  00022E' 6300'              	cpfseq	((___ftadd@exp1))&0ffh
  3902  000230' EF00' F000'        	goto	u2671
  3903  000234' EF00' F000'        	goto	u2670
  3904  000238'                    u2671:
  3905  000238' EF00' F000'        	goto	l1050
  3906  00023C'                    u2670:
  3907                           	
  3908  00023C'                    l1051:		; BSR set to: ?
  3909                           
  3910                           	line	61
  3911                           	
  3912  00023C'                    l1045:		; BSR set to: ?
  3913                           
  3914                           	line	62
  3915                           	
  3916  00023C'                    l1043:		; BSR set to: ?
  3917                           
  3918                           	line	63
  3919                           	
  3920  00023C'                    l1042:		; BSR set to: ?
  3921                           
  3922  00023C' 0101               	movlb	1	; () banked
  3923  00023E' 0101               	movlb	1	; () banked
  3924  000240' 5100'              	movf	((___ftadd@sign1))&0ffh,w
  3925  000242' B4D8               	btfsc	status,2
  3926  000244' EF00' F000'        	goto	u2681
  3927  000248' EF00' F000'        	goto	u2680
  3928  00024C'                    u2681:
  3929  00024C' EF00' F000'        	goto	l1052
  3930  000250'                    u2680:
  3931                           	line	64
  3932  000250' 0EFF               	movlw	low(0FFFFFFh)
  3933  000252' 0101               	movlb	1	; () banked
  3934  000254' 0101               	movlb	1	; () banked
  3935  000256' 1B00'              	xorwf	((___ftadd@f1))&0ffh
  3936  000258' 0EFF               	movlw	high(0FFFFFFh)
  3937  00025A' 0101               	movlb	1	; () banked
  3938  00025C' 0101               	movlb	1	; () banked
  3939  00025E' 1B00'              	xorwf	((___ftadd@f1+1))&0ffh
  3940  000260' 0EFF               	movlw	low highword(0FFFFFFh)
  3941  000262' 0101               	movlb	1	; () banked
  3942  000264' 0101               	movlb	1	; () banked
  3943  000266' 1B00'              	xorwf	((___ftadd@f1+2))&0ffh
  3944                           
  3945                           	line	65
  3946  000268' 0E01               	movlw	low(01h)
  3947  00026A' 0101               	movlb	1	; () banked
  3948  00026C' 0101               	movlb	1	; () banked
  3949  00026E' 2700'              	addwf	((___ftadd@f1))&0ffh
  3950  000270' 0E00               	movlw	high(01h)
  3951  000272' 0101               	movlb	1	; () banked
  3952  000274' 0101               	movlb	1	; () banked
  3953  000276' 2300'              	addwfc	((___ftadd@f1+1))&0ffh
  3954  000278' 0E00               	movlw	low highword(01h)
  3955  00027A' 0101               	movlb	1	; () banked
  3956  00027C' 0101               	movlb	1	; () banked
  3957  00027E' 2300'              	addwfc	((___ftadd@f1+2))&0ffh
  3958                           
  3959                           	line	66
  3960                           	
  3961  000280'                    l1052:		; BSR set to: ?
  3962                           
  3963                           	line	67
  3964  000280' 0101               	movlb	1	; () banked
  3965  000282' 0101               	movlb	1	; () banked
  3966  000284' 5100'              	movf	((___ftadd@sign2))&0ffh,w
  3967  000286' B4D8               	btfsc	status,2
  3968  000288' EF00' F000'        	goto	u2691
  3969  00028C' EF00' F000'        	goto	u2690
  3970  000290'                    u2691:
  3971  000290' EF00' F000'        	goto	l1053
  3972  000294'                    u2690:
  3973                           	line	68
  3974  000294' 0EFF               	movlw	low(0FFFFFFh)
  3975  000296' 0101               	movlb	1	; () banked
  3976  000298' 0101               	movlb	1	; () banked
  3977  00029A' 1B00'              	xorwf	((___ftadd@f2))&0ffh
  3978  00029C' 0EFF               	movlw	high(0FFFFFFh)
  3979  00029E' 0101               	movlb	1	; () banked
  3980  0002A0' 0101               	movlb	1	; () banked
  3981  0002A2' 1B00'              	xorwf	((___ftadd@f2+1))&0ffh
  3982  0002A4' 0EFF               	movlw	low highword(0FFFFFFh)
  3983  0002A6' 0101               	movlb	1	; () banked
  3984  0002A8' 0101               	movlb	1	; () banked
  3985  0002AA' 1B00'              	xorwf	((___ftadd@f2+2))&0ffh
  3986                           
  3987                           	line	69
  3988  0002AC' 0E01               	movlw	low(01h)
  3989  0002AE' 0101               	movlb	1	; () banked
  3990  0002B0' 0101               	movlb	1	; () banked
  3991  0002B2' 2700'              	addwf	((___ftadd@f2))&0ffh
  3992  0002B4' 0E00               	movlw	high(01h)
  3993  0002B6' 0101               	movlb	1	; () banked
  3994  0002B8' 0101               	movlb	1	; () banked
  3995  0002BA' 2300'              	addwfc	((___ftadd@f2+1))&0ffh
  3996  0002BC' 0E00               	movlw	low highword(01h)
  3997  0002BE' 0101               	movlb	1	; () banked
  3998  0002C0' 0101               	movlb	1	; () banked
  3999  0002C2' 2300'              	addwfc	((___ftadd@f2+2))&0ffh
  4000                           
  4001                           	line	70
  4002                           	
  4003  0002C4'                    l1053:		; BSR set to: ?
  4004                           
  4005                           	line	71
  4006  0002C4' 0101               	movlb	1	; () banked
  4007  0002C6' 6F00'              	movwf	(??___ftadd+5+0)&0ffh
  4008  0002C8' 0E00               	movlw	low(0)
  4009  0002CA' 0101               	movlb	1	; () banked
  4010  0002CC' 0101               	movlb	1	; () banked
  4011  0002CE' 6F00'              	movwf	((___ftadd@sign1))&0ffh
  4012  0002D0' 0101               	movlb	1	; () banked
  4013  0002D2' 5100'              	movf	(??___ftadd+5+0)&0ffh,w
  4014                           	line	72
  4015  0002D4' 0101               	movlb	1	; () banked
  4016  0002D6' 0101               	movlb	1	; () banked
  4017  0002D8' 5100'              	movf	((___ftadd@f2))&0ffh,w
  4018  0002DA' 0101               	movlb	1	; () banked
  4019  0002DC' 0101               	movlb	1	; () banked
  4020  0002DE' 2700'              	addwf	((___ftadd@f1))&0ffh
  4021  0002E0' 0101               	movlb	1	; () banked
  4022  0002E2' 0101               	movlb	1	; () banked
  4023  0002E4' 5100'              	movf	((___ftadd@f2+1))&0ffh,w
  4024  0002E6' 0101               	movlb	1	; () banked
  4025  0002E8' 0101               	movlb	1	; () banked
  4026  0002EA' 2300'              	addwfc	((___ftadd@f1+1))&0ffh
  4027  0002EC' 0101               	movlb	1	; () banked
  4028  0002EE' 0101               	movlb	1	; () banked
  4029  0002F0' 5100'              	movf	((___ftadd@f2+2))&0ffh,w
  4030  0002F2' 0101               	movlb	1	; () banked
  4031  0002F4' 0101               	movlb	1	; () banked
  4032  0002F6' 2300'              	addwfc	((___ftadd@f1+2))&0ffh
  4033                           
  4034                           	line	73
  4035  0002F8' 0101               	movlb	1	; () banked
  4036                           	
  4037  0002FA' 0101               	movlb	1	; () banked
  4038  0002FC' AF00'              	btfss	((___ftadd@f1+2))&0ffh,(23)&7
  4039  0002FE' EF00' F000'        	goto	u2701
  4040  000302' EF00' F000'        	goto	u2700
  4041  000306'                    u2701:
  4042  000306' EF00' F000'        	goto	l1032
  4043  00030A'                    u2700:
  4044                           	line	74
  4045  00030A' 0EFF               	movlw	low(0FFFFFFh)
  4046  00030C' 0101               	movlb	1	; () banked
  4047  00030E' 0101               	movlb	1	; () banked
  4048  000310' 1B00'              	xorwf	((___ftadd@f1))&0ffh
  4049  000312' 0EFF               	movlw	high(0FFFFFFh)
  4050  000314' 0101               	movlb	1	; () banked
  4051  000316' 0101               	movlb	1	; () banked
  4052  000318' 1B00'              	xorwf	((___ftadd@f1+1))&0ffh
  4053  00031A' 0EFF               	movlw	low highword(0FFFFFFh)
  4054  00031C' 0101               	movlb	1	; () banked
  4055  00031E' 0101               	movlb	1	; () banked
  4056  000320' 1B00'              	xorwf	((___ftadd@f1+2))&0ffh
  4057                           
  4058                           	line	75
  4059  000322' 0E01               	movlw	low(01h)
  4060  000324' 0101               	movlb	1	; () banked
  4061  000326' 0101               	movlb	1	; () banked
  4062  000328' 2700'              	addwf	((___ftadd@f1))&0ffh
  4063  00032A' 0E00               	movlw	high(01h)
  4064  00032C' 0101               	movlb	1	; () banked
  4065  00032E' 0101               	movlb	1	; () banked
  4066  000330' 2300'              	addwfc	((___ftadd@f1+1))&0ffh
  4067  000332' 0E00               	movlw	low highword(01h)
  4068  000334' 0101               	movlb	1	; () banked
  4069  000336' 0101               	movlb	1	; () banked
  4070  000338' 2300'              	addwfc	((___ftadd@f1+2))&0ffh
  4071                           
  4072                           	line	76
  4073  00033A' 0101               	movlb	1	; () banked
  4074  00033C' 6F00'              	movwf	(??___ftadd+5+0)&0ffh
  4075  00033E' 0E01               	movlw	low(01h)
  4076  000340' 0101               	movlb	1	; () banked
  4077  000342' 0101               	movlb	1	; () banked
  4078  000344' 6F00'              	movwf	((___ftadd@sign1))&0ffh
  4079  000346' 0101               	movlb	1	; () banked
  4080  000348' 5100'              	movf	(??___ftadd+5+0)&0ffh,w
  4081                           	line	77
  4082                           	
  4083  00034A'                    l1054:		; BSR set to: ?
  4084                           
  4085                           	line	78
  4086                           	
  4087  00034A'                    l1032:		; BSR set to: ?
  4088                           
  4089                           	line	79
  4090  00034A' C004' F002'        	movff	(___ftadd@exp1),0+(?___ftpack+02h)
  4091  00034E' 0101               	movlb	1	; () banked
  4092  000350' 0E00'              	movlw	low(___ftadd@f1)
  4093  000352' 0101               	movlb	1	; () banked
  4094  000354' 0101               	movlb	1	; () banked
  4095  000356' 6F00'              	movwf	((?___ftpack))&0ffh
  4096  000358' 0101               	movlb	1	; () banked
  4097  00035A' 0E00'              	movlw	high(___ftadd@f1)
  4098  00035C' 0101               	movlb	1	; () banked
  4099  00035E' 6F00'              	movwf	((?___ftpack+1))&0ffh
  4100  000360' EC00' F000'        	call	___ftpack	;wreg free
  4101                           	line	80
  4102  000364' 0101               	movlb	1	; () banked
  4103  000366' 0101               	movlb	1	; () banked
  4104  000368' 5100'              	movf	((___ftadd@sign1))&0ffh,w
  4105  00036A' B4D8               	btfsc	status,2
  4106  00036C' EF00' F000'        	goto	u2711
  4107  000370' EF00' F000'        	goto	u2710
  4108  000374'                    u2711:
  4109  000374' EF00' F000'        	goto	l1055
  4110  000378'                    u2710:
  4111                           	line	81
  4112  000378' 0E00               	movlw	low(0800000h)
  4113  00037A' 0101               	movlb	1	; () banked
  4114  00037C' 0101               	movlb	1	; () banked
  4115  00037E' 1B00'              	xorwf	((___ftadd@f1))&0ffh
  4116  000380' 0E00               	movlw	high(0800000h)
  4117  000382' 0101               	movlb	1	; () banked
  4118  000384' 0101               	movlb	1	; () banked
  4119  000386' 1B00'              	xorwf	((___ftadd@f1+1))&0ffh
  4120  000388' 0E80               	movlw	low highword(0800000h)
  4121  00038A' 0101               	movlb	1	; () banked
  4122  00038C' 0101               	movlb	1	; () banked
  4123  00038E' 1B00'              	xorwf	((___ftadd@f1+2))&0ffh
  4124                           
  4125                           	
  4126  000390'                    l1055:		; BSR set to: ?
  4127                           
  4128                           	line	82
  4129  000390' C000' F000'        	movff	(___ftadd@f1),(?___ftadd)
  4130  000394' C001' F001'        	movff	(___ftadd@f1+1),(?___ftadd+1)
  4131  000398' C002' F002'        	movff	(___ftadd@f1+2),(?___ftadd+2)
  4132  00039C' EF00' F000'        	goto	l1029
  4133                           	line	83
  4134  0003A0'                    l1029:
  4135                           			; BSR set to: ?
  4136                           
  4137  0003A0' 0012               	return
  4138                           	opt stack 0
  4139                           GLOBAL __end_of___ftadd
  4140  0003A2'                    	__end_of___ftadd:
  4141                           	FNSIZE	___ftadd,6,6
  4142                           ; =============== function ___ftadd ends =======
                                 =====
  4143                           
  4144                           	signat	___ftadd,8315
  4145                           	global	___wmul
  4146                           	global	??___wmul
  4147                           	global	?___wmul
  4148                           
  4149                           ; *************** function ___wmul *************
                                 ****
  4150                           ; Defined at:
  4151                           ;		line 3 in file "C:\Program Files (x86)\HI-TEC
                                 H Software\PICC-18\PRO\9.66\sources\wmul.c"
  4152                           ; Parameters:
  4153                           ;		multiplier     size:   2offs:   0	type: unsig
                                 ned int 
  4154                           ;		multiplicand   size:   2offs:   2	type: unsig
                                 ned int 
  4155                           ; Auto variables:
  4156                           ;		product     	       	type: unsigned int 
  4157                           ; Return value:
  4158                           ;		type: unsigned int 
  4159                           ;		size: 2
  4160                           ; Registers used:
  4161                           ;		wreg, status,2, status,0
  4162                           ; Tracked objects:
  4163                           ;		On entry : 0/0
  4164                           ;		On exit  : 0/0
  4165                           ;		Unchanged: 0/0
  4166                           ; Data sizes:
  4167                           ;		Autos:    2
  4168                           ;		Params:   4
  4169                           ;		Temp:     0
  4170                           ;		Total:    6
  4171                           ; This function calls:
  4172                           ;		Nothing
  4173                           ; This function is called by:
  4174                           ;		_delay10ms
  4175                           ; This function uses a non-reentrant model
  4176                           ; 
  4177                                   psect   text16,class=CODE,space=0,reloc=
                                 2
  4178                           
  4179                           	opt lm
  4180                           	file	"C:\Program Files (x86)\HI-TECH Software\P
                                 ICC-18\PRO\9.66\sources\wmul.c"
  4181                           	line	3
  4182  000000                     	__size_of___wmul	equ	__end_of___wmul-___wmul
  4183                           	
  4184  000000'                    ___wmul:		; BSR set to: ?
  4185                           
  4186                           	opt stack 27
  4187                           	line	4
  4188  000000' 0E00               	movlw	low(0)
  4189  000002' 0101               	movlb	1	; () banked
  4190  000004' 0101               	movlb	1	; () banked
  4191  000006' 6F00'              	movwf	((___wmul@product))&0ffh
  4192  000008' 0E00               	movlw	high(0)
  4193  00000A' 0101               	movlb	1	; () banked
  4194  00000C' 6F00'              	movwf	((___wmul@product+1))&0ffh
  4195                           	line	6
  4196                           	
  4197  00000E'                    l1170:		; BSR set to: ?
  4198                           
  4199                           	line	7
  4200  00000E' 0101               	movlb	1	; () banked
  4201                           	
  4202  000010' 0101               	movlb	1	; () banked
  4203  000012' A100'              	btfss	((___wmul@multiplier))&0ffh,(0)&7
  4204  000014' EF00' F000'        	goto	u2981
  4205  000018' EF00' F000'        	goto	u2980
  4206  00001C'                    u2981:
  4207  00001C' EF00' F000'        	goto	l1171
  4208  000020'                    u2980:
  4209                           	line	8
  4210  000020' 0101               	movlb	1	; () banked
  4211  000022' 0101               	movlb	1	; () banked
  4212  000024' 5100'              	movf	((___wmul@multiplicand))&0ffh,w
  4213  000026' 0101               	movlb	1	; () banked
  4214  000028' 0101               	movlb	1	; () banked
  4215  00002A' 2700'              	addwf	((___wmul@product))&0ffh
  4216  00002C' 0101               	movlb	1	; () banked
  4217  00002E' 0101               	movlb	1	; () banked
  4218  000030' 5100'              	movf	((___wmul@multiplicand+1))&0ffh,w
  4219  000032' 0101               	movlb	1	; () banked
  4220  000034' 0101               	movlb	1	; () banked
  4221  000036' 2300'              	addwfc	((___wmul@product+1))&0ffh
  4222                           
  4223                           	
  4224  000038'                    l1171:		; BSR set to: ?
  4225                           
  4226                           	line	9
  4227  000038' 0101               	movlb	1	; () banked
  4228  00003A' 90D8               	bcf	status,0
  4229  00003C' 0101               	movlb	1	; () banked
  4230  00003E' 3700'              	rlcf	((___wmul@multiplicand))&0ffh
  4231  000040' 0101               	movlb	1	; () banked
  4232  000042' 3700'              	rlcf	((___wmul@multiplicand+1))&0ffh
  4233                           	line	10
  4234  000044' 0101               	movlb	1	; () banked
  4235  000046' 90D8               	bcf	status,0
  4236  000048' 0101               	movlb	1	; () banked
  4237  00004A' 3300'              	rrcf	((___wmul@multiplier+1))&0ffh
  4238  00004C' 0101               	movlb	1	; () banked
  4239  00004E' 3300'              	rrcf	((___wmul@multiplier))&0ffh
  4240                           	line	11
  4241  000050' 0101               	movlb	1	; () banked
  4242  000052' 0101               	movlb	1	; () banked
  4243  000054' 5100'              	movf	((___wmul@multiplier+1))&0ffh,w
  4244  000056' 1100'              	iorwf ((___wmul@multiplier))&0ffh,w
  4245                           
  4246  000058' A4D8               	btfss	status,2
  4247  00005A' EF00' F000'        	goto	u2991
  4248  00005E' EF00' F000'        	goto	u2990
  4249  000062'                    u2991:
  4250  000062' EF00' F000'        	goto	l1170
  4251  000066'                    u2990:
  4252                           	
  4253  000066'                    l1169:		; BSR set to: ?
  4254                           
  4255                           	line	12
  4256  000066' C000' F000'        	movff	(___wmul@product),(?___wmul)
  4257  00006A' C001' F001'        	movff	(___wmul@product+1),(?___wmul+1)
  4258  00006E' EF00' F000'        	goto	l1167
  4259                           	line	13
  4260  000072'                    l1167:
  4261                           			; BSR set to: ?
  4262                           
  4263  000072' 0012               	return
  4264                           	opt stack 0
  4265                           GLOBAL __end_of___wmul
  4266  000074'                    	__end_of___wmul:
  4267                           	FNSIZE	___wmul,2,4
  4268                           ; =============== function ___wmul ends ========
                                 ====
  4269                           
  4270                           	signat	___wmul,8314
  4271                           	global	___ftpack
  4272                           	global	??___ftpack
  4273                           	global	?___ftpack
  4274                           
  4275                           ; *************** function ___ftpack ***********
                                 ******
  4276                           ; Defined at:
  4277                           ;		line 33 in file "C:\Program Files (x86)\HI-TE
                                 CH Software\PICC-18\PRO\9.66\sources\float.c"
  4278                           ; Parameters:
  4279                           ;		arg            size:   2offs:   0	type: PTR u
                                 nsigned um; Largest target is 3
  4280                           ;		 -> __lwtoft@f1(3), __lltoft@f1(3), __lbtoft@
                                 f1(3), __abtoft@f1(3), 
  4281                           ;		 -> __ftmul@f3(3), __ftdiv@f3(3), __ftadd@f1(
                                 3), __awtoft@f1(3), 
  4282                           ;		 -> __altoft@f1(3), 
  4283                           ;		exp            size:   1offs:   2	type: unsig
                                 ned char 
  4284                           ; Auto variables:
  4285                           ;		None
  4286                           ; Return value:
  4287                           ;		type: void 
  4288                           ;		size: 0
  4289                           ; Registers used:
  4290                           ;		wreg, fsr0l, fsr0h, status,2, status,0
  4291                           ; Tracked objects:
  4292                           ;		On entry : 0/0
  4293                           ;		On exit  : 0/0
  4294                           ;		Unchanged: 0/0
  4295                           ; Data sizes:
  4296                           ;		Autos:    0
  4297                           ;		Params:   3
  4298                           ;		Temp:     3
  4299                           ;		Total:    6
  4300                           ; This function calls:
  4301                           ;		Nothing
  4302                           ; This function is called by:
  4303                           ;		___ftadd
  4304                           ;		___ftdiv
  4305                           ;		___ftmul
  4306                           ;		___lwtoft
  4307                           ;		___altoft
  4308                           ;		___awtoft
  4309                           ;		___lbtoft
  4310                           ;		___lltoft
  4311                           ; This function uses a non-reentrant model
  4312                           ; 
  4313                                   psect   text17,class=CODE,space=0,reloc=
                                 2
  4314                           
  4315                           	opt lm
  4316                           	file	"C:\Program Files (x86)\HI-TECH Software\P
                                 ICC-18\PRO\9.66\sources\float.c"
  4317                           	line	33
  4318  000000                     	__size_of___ftpack	equ	__end_of___ftpack-___ftp
                                 ack
  4319                           	
  4320  000000'                    ___ftpack:		; BSR set to: ?
  4321                           
  4322                           	opt stack 26
  4323                           	line	34
  4324  000000' 0101               	movlb	1	; () banked
  4325  000002' 0101               	movlb	1	; () banked
  4326  000004' 5100'              	movf	((___ftpack@exp))&0ffh,w
  4327  000006' B4D8               	btfsc	status,2
  4328  000008' EF00' F000'        	goto	u2741
  4329  00000C' EF00' F000'        	goto	u2740
  4330  000010'                    u2741:
  4331  000010' EF00' F000'        	goto	l600000662
  4332  000014'                    u2740:
  4333  000014' C000' FFE9         	movff	(___ftpack@arg),fsr0l
  4334  000018' C001' FFEA         	movff	(___ftpack@arg+1),fsr0h
  4335  00001C' 50EE               	movf	postinc0,w
  4336  00001E' 10EE               	iorwf	postinc0,w
  4337  000020' 10ED               	iorwf	postdec0,w
  4338  000022' A4D8               	btfss	status,2
  4339  000024' EF00' F000'        	goto	u2751
  4340  000028' EF00' F000'        	goto	u2750
  4341  00002C'                    u2751:
  4342  00002C' EF00' F000'        	goto	l1004
  4343  000030'                    u2750:
  4344                           	
  4345  000030'                    l600000662:		; BSR set to: ?
  4346                           
  4347                           	line	35
  4348  000030' C000' FFE9         	movff	(___ftpack@arg),fsr0l
  4349  000034' C001' FFEA         	movff	(___ftpack@arg+1),fsr0h
  4350  000038' 0E00               	movlw	low(0)
  4351  00003A' 6EEE               	movwf	postinc0
  4352  00003C' 0E00               	movlw	high(0)
  4353  00003E' 6EEE               	movwf	postinc0
  4354  000040' 0E00               	movlw	low highword(0)
  4355  000042' 6EED               	movwf	postdec0
  4356  000044' 52ED               	movf	postdec0
  4357                           	line	36
  4358  000046' EF00' F000'        	goto	l1003
  4359                           	line	37
  4360                           	
  4361  00004A'                    l1004:		; BSR set to: ?
  4362                           
  4363                           	line	38
  4364  00004A' EF00' F000'        	goto	l1005
  4365                           	
  4366  00004E'                    l1006:		; BSR set to: ?
  4367                           
  4368                           	line	39
  4369  00004E' 0101               	movlb	1	; () banked
  4370  000050' 0101               	movlb	1	; () banked
  4371  000052' 2B00'              	incf	((___ftpack@exp))&0ffh
  4372                           	line	40
  4373  000054' C000' FFE9         	movff	(___ftpack@arg),fsr0l
  4374  000058' C001' FFEA         	movff	(___ftpack@arg+1),fsr0h
  4375  00005C' 52EC               	movf	preinc0
  4376  00005E' 52EC               	movf	preinc0
  4377  000060' 90D8               	bcf	status,0
  4378  000062' 32ED               	rrcf	postdec0
  4379  000064' 32ED               	rrcf	postdec0
  4380  000066' 32EF               	rrcf	indf0
  4381                           	line	41
  4382                           	
  4383  000068'                    l1005:		; BSR set to: ?
  4384                           
  4385                           	line	38
  4386  000068' C000' FFE9         	movff	(___ftpack@arg),fsr0l
  4387  00006C' C001' FFEA         	movff	(___ftpack@arg+1),fsr0h
  4388  000070' 52EE               	movf	postinc0
  4389  000072' 52EE               	movf	postinc0
  4390  000074' 0EFE               	movlw	low highword(0FE0000h)
  4391  000076' 14ED               	andwf	postdec0,w
  4392  000078' A4D8               	btfss	status,2
  4393  00007A' EF00' F000'        	goto	u2761
  4394  00007E' EF00' F000'        	goto	u2760
  4395  000082'                    u2761:
  4396+ 000082' EF00' F000'        	goto	l1006
  4397+ 000086'                    u2760:
  4398+                          	
  4399+ 000086'                    l1007:		; BSR set to: ?
  4400+                          
  4401+                          	line	42
  4402+ 000086' EF00' F000'        	goto	l1008
  4403+                          	
  4404+ 00008A'                    l1009:		; BSR set to: ?
  4405+                          
  4406+                          	line	43
  4407+ 00008A' 0101               	movlb	1	; () banked
  4408+ 00008C' 0101               	movlb	1	; () banked
  4409+ 00008E' 2B00'              	incf	((___ftpack@exp))&0ffh
  4410+                          	line	44
  4411+ 000090' C000' FFE9         	movff	(___ftpack@arg),fsr0l
  4412+ 000094' C001' FFEA         	movff	(___ftpack@arg+1),fsr0h
  4413+ 000098' 2AEE               	incf	postinc0
  4414+ 00009A' 0E00               	movlw	0
  4415+ 00009C' 22EE               	addwfc	postinc0
  4416+ 00009E' 22ED               	addwfc	postdec0
  4417+ 0000A0' 52ED               	movf	postdec0
  4418+                          	line	45
  4419+ 0000A2' C000' FFE9         	movff	(___ftpack@arg),fsr0l
  4420+ 0000A6' C001' FFEA         	movff	(___ftpack@arg+1),fsr0h
  4421+ 0000AA' 52EC               	movf	preinc0
  4422+ 0000AC' 52EC               	movf	preinc0
  4423+ 0000AE' 90D8               	bcf	status,0
  4424+ 0000B0' 32ED               	rrcf	postdec0
  4425+ 0000B2' 32ED               	rrcf	postdec0
  4426+ 0000B4' 32EF               	rrcf	indf0
  4427+                          	line	46
  4428+                          	
  4429+ 0000B6'                    l1008:		; BSR set to: ?
  4430+                          
  4431+                          	line	42
  4432+ 0000B6' C000' FFE9         	movff	(___ftpack@arg),fsr0l
  4433+ 0000BA' C001' FFEA         	movff	(___ftpack@arg+1),fsr0h
  4434+ 0000BE' 52EE               	movf	postinc0
  4435+ 0000C0' 52EE               	movf	postinc0
  4436+ 0000C2' 0EFF               	movlw	low highword(0FF0000h)
  4437+ 0000C4' 14ED               	andwf	postdec0,w
  4438+ 0000C6' A4D8               	btfss	status,2
  4439+ 0000C8' EF00' F000'        	goto	u2771
  4440+ 0000CC' EF00' F000'        	goto	u2770
  4441+ 0000D0'                    u2771:
  4442+ 0000D0' EF00' F000'        	goto	l1009
  4443+ 0000D4'                    u2770:
  4444+                          	
  4445+ 0000D4'                    l1010:		; BSR set to: ?
  4446+                          
  4447+                          	line	47
  4448+ 0000D4' EF00' F000'        	goto	l1011
  4449+                          	
  4450+ 0000D8'                    l1012:		; BSR set to: ?
  4451+                          
  4452+                          	line	48
  4453+ 0000D8' 0101               	movlb	1	; () banked
  4454+ 0000DA' 0101               	movlb	1	; () banked
  4455+ 0000DC' 0700'              	decf	((___ftpack@exp))&0ffh
  4456+                          	line	49
  4457+ 0000DE' C000' FFE9         	movff	(___ftpack@arg),fsr0l
  4458+ 0000E2' C001' FFEA         	movff	(___ftpack@arg+1),fsr0h
  4459+ 0000E6' 90D8               	bcf	status,0
  4460+ 0000E8' 36EE               	rlcf	postinc0
  4461+ 0000EA' 36EE               	rlcf	postinc0
  4462+ 0000EC' 36ED               	rlcf	postdec0
  4463+ 0000EE' 52ED               	movf	postdec0
  4464+                          	line	50
  4465+                          	
  4466+ 0000F0'                    l1011:		; BSR set to: ?
  4467+                          
  4468+                          	line	47
  4469+ 0000F0' C000' FFE9         	movff	(___ftpack@arg),fsr0l
  4470+ 0000F4' C001' FFEA         	movff	(___ftpack@arg+1),fsr0h
  4471+ 0000F8' CFEE F000'         	movff	postinc0,??___ftpack+0+0
  4472+ 0000FC' CFEE F001'         	movff	postinc0,??___ftpack+0+0+1
  4473+ 000100' CFEE F002'         	movff	postinc0,??___ftpack+0+0+2
  4474+ 000104' 0101               	movlb	1	; () banked
  4475+                          	
  4476+ 000106' AF00'              	btfss	(??___ftpack+0+1)&0ffh,(15)&7
  4477+ 000108' EF00' F000'        	goto	u2781
  4478+ 00010C' EF00' F000'        	goto	u2780
  4479+ 000110'                    u2781:
  4480+ 000110' EF00' F000'        	goto	l1012
  4481+ 000114'                    u2780:
  4482+                          	
  4483+ 000114'                    l1013:		; BSR set to: ?
  4484+                          
  4485+                          	line	51
  4486+ 000114' 0101               	movlb	1	; () banked
  4487+                          	
  4488+ 000116' 0101               	movlb	1	; () banked
  4489+ 000118' B100'              	btfsc	((___ftpack@exp))&0ffh,(0)&7
  4490+ 00011A' EF00' F000'        	goto	u2791
  4491+ 00011E' EF00' F000'        	goto	u2790
  4492+ 000122'                    u2791:
  4493+ 000122' EF00' F000'        	goto	l1014
  4494+ 000126'                    u2790:
  4495+                          	line	52
  4496+ 000126' C000' FFE9         	movff	(___ftpack@arg),fsr0l
  4497+ 00012A' C001' FFEA         	movff	(___ftpack@arg+1),fsr0h
  4498+ 00012E' 0EFF               	movlw	low(0FF7FFFh)
  4499+ 000130' 16EE               	andwf	postinc0
  4500+ 000132' 0E7F               	movlw	high(0FF7FFFh)
  4501+ 000134' 16EE               	andwf	postinc0
  4502+ 000136' 0EFF               	movlw	low highword(0FF7FFFh)
  4503+ 000138' 16ED               	andwf	postdec0
  4504+ 00013A' 52ED               	movf	postdec0
  4505+                          	
  4506+ 00013C'                    l1014:		; BSR set to: ?
  4507+                          
  4508+                          	line	53
  4509+ 00013C' 0101               	movlb	1	; () banked
  4510+ 00013E' 90D8               	bcf status,0
  4511+ 000140' 3300'              	rrcf	((___ftpack@exp))&0ffh
  4512+                          
  4513+                          	line	54
  4514+ 000142' 0101               	movlb	1	; () banked
  4515+ 000144' 0101               	movlb	1	; () banked
  4516+ 000146' 5100'              	movf	((___ftpack@exp))&0ffh,w
  4517+ 000148' 0101               	movlb	1	; () banked
  4518+ 00014A' 6F00'              	movwf	(??___ftpack+0+0+2)&0ffh
  4519+ 00014C' 6B00'              	clrf	(??___ftpack+0+0+1)&0ffh
  4520+ 00014E' 6B00'              	clrf	(??___ftpack+0+0)&0ffh
  4521+ 000150' C000' FFE9         	movff	(___ftpack@arg),fsr0l
  4522+ 000154' C001' FFEA         	movff	(___ftpack@arg+1),fsr0h
  4523+ 000158' 0101               	movlb	1	; () banked
  4524+ 00015A' 5100'              	movf	(??___ftpack+0+0)&0ffh,w
  4525+ 00015C' 12EE               	iorwf	postinc0
  4526+ 00015E' 5100'              	movf	(??___ftpack+0+1)&0ffh,w
  4527+ 000160' 12EE               	iorwf	postinc0
  4528+ 000162' 5100'              	movf	(??___ftpack+0+2)&0ffh,w
  4529+ 000164' 12ED               	iorwf	postdec0
  4530+ 000166' 52ED               	movf	postdec0
  4531+                          	line	55
  4532+ 000168'                    l1003:
  4533+                          			; BSR set to: ?
  4534+                          
  4535+ 000168' 0012               	return
  4536+                          	opt stack 0
  4537+                          GLOBAL __end_of___ftpack
  4538+ 00016A'                    	__end_of___ftpack:
  4539+                          	FNSIZE	___ftpack,3,3
  4540+                          ; =============== function ___ftpack ends ======
      +                          ======
  4541+                          
  4542+                          	signat	___ftpack,8312
  4543+                          	global	___ftunpack
  4544+                          	global	??___ftunpack
  4545+                          	global	?___ftunpack
  4546+                          
  4547+                          ; *************** function ___ftunpack *********
      +                          ********
  4548+                          ; Defined at:
  4549+                          ;		line 13 in file "C:\Program Files (x86)\HI-TE
      +                          CH Software\PICC-18\PRO\9.66\sources\float.c"
  4550+                          ; Parameters:
  4551+                          ;		arg            size:   2offs:   0	type: PTR u
      +                          nsigned um; Largest target is 3
  4552+                          ;		 -> __fttol@f1(3), __ftmul@f2(3), __ftmul@f1(
      +                          3), __ftdiv@f2(3), 
  4553+                          ;		 -> __ftdiv@f1(3), __ftadd@f2(3), __ftadd@f1(
      +                          3), 
  4554+                          ;		exp            size:   2offs:   2	type: PTR u
      +                          nsigned char ; Largest target is 1
  4555+                          ;		 -> __fttol@exp1(1), __ftmul@cntr(1), __ftmul
      +                          @exp1(1), __ftdiv@exp2(1), 
  4556+                          ;		 -> __ftdiv@exp1(1), __ftadd@exp2(1), __ftadd
      +                          @exp1(1), 
  4557+                          ; Auto variables:
  4558+                          ;		sign        	       	type: unsigned char 
  4559+                          ; Return value:
  4560+                          ;		type: unsigned char 
  4561+                          ;		size: 1
  4562+                          ; Registers used:
  4563+                          ;		wreg, fsr0l, fsr0h, status,2, status,0
  4564+                          ; Tracked objects:
  4565+                          ;		On entry : 0/0
  4566+                          ;		On exit  : 0/0
  4567+                          ;		Unchanged: 0/0
  4568+                          ; Data sizes:
  4569+                          ;		Autos:    1
  4570+                          ;		Params:   4
  4571+                          ;		Temp:     3
  4572+                          ;		Total:    8
  4573+                          ; This function calls:
  4574+                          ;		Nothing
  4575+                          ; This function is called by:
  4576+                          ;		___ftadd
  4577+                          ;		___ftdiv
  4578+                          ;		___ftmul
  4579+                          ;		___fttol
  4580+                          ; This function uses a non-reentrant model
  4581+                          ; 
  4582+                                  psect   text18,class=CODE,space=0,reloc=
      +                          2
  4583+                          
  4584+                          	opt lm
  4585+                          	file	"C:\Program Files (x86)\HI-TECH Software\P
      +                          ICC-18\PRO\9.66\sources\float.c"
  4586+                          	line	13
  4587+ 000000                     	__size_of___ftunpack	equ	__end_of___ftunpack-__
      +                          _ftunpack
  4588+                          	
  4589+ 000000'                    ___ftunpack:		; BSR set to: ?
  4590+                          
  4591+                          	opt stack 26
  4592+                          	line	16
  4593+ 000000' C000' FFE9         	movff	(___ftunpack@arg),fsr0l
  4594+ 000004' C001' FFEA         	movff	(___ftunpack@arg+1),fsr0h
  4595+ 000008' 0E01               	movlw	1
  4596+ 00000A' 34EB               	rlcf	plusw0,w
  4597+ 00000C' 0E02               	movlw	2
  4598+ 00000E' 34EB               	rlcf	plusw0,w
  4599+                          
  4600+ 000010' 0101               	movlb	1	; () banked
  4601+ 000012' 0101               	movlb	1	; () banked
  4602+ 000014' 6F00'              	movwf	((___ftunpack@sign))&0ffh
  4603+ 000016' C002' FFE9         	movff	(___ftunpack@exp),fsr0l
  4604+ 00001A' C003' FFEA         	movff	(___ftunpack@exp+1),fsr0h
  4605+ 00001E' 0101               	movlb	1	; () banked
  4606+ 000020' C000' FFEF         	movff	(___ftunpack@sign),indf0
  4607+                          
  4608+                          	line	17
  4609+ 000024' 0101               	movlb	1	; () banked
  4610+ 000026' 0101               	movlb	1	; () banked
  4611+ 000028' 6700'              	tstfsz	((___ftunpack@sign))&0ffh
  4612+ 00002A' EF00' F000'        	goto	u2721
  4613+ 00002E' EF00' F000'        	goto	u2720
  4614+ 000032'                    u2721:
  4615+ 000032' EF00' F000'        	goto	l1001
  4616+ 000036'                    u2720:
  4617+                          	line	18
  4618+ 000036' C000' FFE9         	movff	(___ftunpack@arg),fsr0l
  4619+ 00003A' C001' FFEA         	movff	(___ftunpack@arg+1),fsr0h
  4620+ 00003E' 0E00               	movlw	low(0)
  4621+ 000040' 6EEE               	movwf	postinc0
  4622+ 000042' 0E00               	movlw	high(0)
  4623+ 000044' 6EEE               	movwf	postinc0
  4624+ 000046' 0E00               	movlw	low highword(0)
  4625+ 000048' 6EED               	movwf	postdec0
  4626+ 00004A' 52ED               	movf	postdec0
  4627+                          	line	19
  4628+ 00004C' 0E00               	movlw	(0)&0ffh
  4629+ 00004E' EF00' F000'        	goto	l1000
  4630+                          	line	20
  4631+                          	
  4632+ 000052'                    l1001:		; BSR set to: ?
  4633+                          
  4634+                          	line	21
  4635+ 000052' 0101               	movlb	1	; () banked
  4636+ 000054' 6F00'              	movwf	(??___ftunpack+1+0)&0ffh
  4637+ 000056' 0E00               	movlw	low(0)
  4638+ 000058' 0101               	movlb	1	; () banked
  4639+ 00005A' 0101               	movlb	1	; () banked
  4640+ 00005C' 6F00'              	movwf	((___ftunpack@sign))&0ffh
  4641+ 00005E' 0101               	movlb	1	; () banked
  4642+ 000060' 5100'              	movf	(??___ftunpack+1+0)&0ffh,w
  4643+                          	line	22
  4644+ 000062' C000' FFE9         	movff	(___ftunpack@arg),fsr0l
  4645+ 000066' C001' FFEA         	movff	(___ftunpack@arg+1),fsr0h
  4646+ 00006A' 0E01               	movlw	0+(15/8)
  4647+ 00006C' 8EEB               	bsf	plusw0,(15)&7
  4648+                          	line	23
  4649+ 00006E' C000' FFE9         	movff	(___ftunpack@arg),fsr0l
  4650+ 000072' C001' FFEA         	movff	(___ftunpack@arg+1),fsr0h
  4651+ 000076' CFEE F001'         	movff	postinc0,??___ftunpack+1+0
  4652+ 00007A' CFEE F002'         	movff	postinc0,??___ftunpack+1+0+1
  4653+ 00007E' CFEE F003'         	movff	postinc0,??___ftunpack+1+0+2
  4654+ 000082' 0101               	movlb	1	; () banked
  4655+                          	
  4656+ 000084' AF00'              	btfss	(??___ftunpack+1+2)&0ffh,(23)&7
  4657+ 000086' EF00' F000'        	goto	u2731
  4658+ 00008A' EF00' F000'        	goto	u2730
  4659+ 00008E'                    u2731:
  4660+ 00008E' EF00' F000'        	goto	l1002
  4661+ 000092'                    u2730:
  4662+                          	line	24
  4663+ 000092' 0101               	movlb	1	; () banked
  4664+ 000094' 0101               	movlb	1	; () banked
  4665+ 000096' 2B00'              	incf	((___ftunpack@sign))&0ffh
  4666+                          	
  4667+ 000098'                    l1002:		; BSR set to: ?
  4668+                          
  4669+                          	line	25
  4670+ 000098' C000' FFE9         	movff	(___ftunpack@arg),fsr0l
  4671+ 00009C' C001' FFEA         	movff	(___ftunpack@arg+1),fsr0h
  4672+ 0000A0' 0EFF               	movlw	low(0FFFFh)
  4673+ 0000A2' 16EE               	andwf	postinc0
  4674+ 0000A4' 0EFF               	movlw	high(0FFFFh)
  4675+ 0000A6' 16EE               	andwf	postinc0
  4676+ 0000A8' 0E00               	movlw	low highword(0FFFFh)
  4677+ 0000AA' 16ED               	andwf	postdec0
  4678+ 0000AC' 52ED               	movf	postdec0
  4679+                          	line	26
  4680+ 0000AE' 0101               	movlb	1	; () banked
  4681+ 0000B0' 0101               	movlb	1	; () banked
  4682+ 0000B2' 5100'              	movf	((___ftunpack@sign))&0ffh,w
  4683+ 0000B4' EF00' F000'        	goto	l1000
  4684+                          	line	27
  4685+ 0000B8'                    l1000:
  4686+                          			; BSR set to: ?
  4687+                          
  4688+ 0000B8' 0012               	return
  4689+                          	opt stack 0
  4690+                          GLOBAL __end_of___ftunpack
  4691+ 0000BA'                    	__end_of___ftunpack:
  4692+                          	FNSIZE	___ftunpack,4,4
  4693+                          ; =============== function ___ftunpack ends ====
      +                          ========
  4694+                          
  4695+                          	signat	___ftunpack,8313
  4696+                          	global	_isr
  4697+                          	global	??_isr
  4698+                          	global	?_isr
  4699+                          
  4700+                          ; *************** function _isr ****************
      +                          *
  4701+                          ; Defined at:
  4702+                          ;		line 79 in file "../../../src/LC-meter.c"
  4703+                          ; Parameters:
  4704+                          ;		None
  4705+                          ; Auto variables:
  4706+                          ;		None
  4707+                          ; Return value:
  4708+                          ;		type: int 
  4709+                          ;		size: 2
  4710+                          ; Registers used:
  4711+                          ;		wreg, status,2, status,0
  4712+                          ; Tracked objects:
  4713+                          ;		On entry : 0/0
  4714+                          ;		On exit  : 0/0
  4715+                          ;		Unchanged: 0/0
  4716+                          ; Data sizes:
  4717+                          ;		Autos:    0
  4718+                          ;		Params:   0
  4719+                          ;		Temp:    14
  4720+                          ;		Total:   14
  4721+                          ; This function calls:
  4722+                          ;		Nothing
  4723+                          ; This function is called by:
  4724+                          ;		Interrupt level 2
  4725+                          ; This function uses a non-reentrant model
  4726+                          ; 
  4727+                                  psect   text19,class=CODE,space=0,reloc=
      +                          2
  4728+                          
  4729+                          	opt lm
  4730+                          	file	"../../../src/LC-meter.c"
  4731+                          	line	79
  4732+ 000000                     	__size_of_isr	equ	__end_of_isr-_isr
  4733+                          ;LC-meter.c: 60: double F1, F2, F3, CCal;
  4734+                          ;LC-meter.c: 61: void main();
  4735+                          ;LC-meter.c: 62: void loop();
  4736+                          ;LC-meter.c: 63: void testloop();
  4737+                          ;LC-meter.c: 64: void initialize();
  4738+                          ;LC-meter.c: 65: unsigned short int measure_freq
      +                          ();
  4739+                          ;LC-meter.c: 66: void calibrate();
  4740+                          ;LC-meter.c: 67: void measure_capacitance();
  4741+                          ;LC-meter.c: 68: void measure_inductance();
  4742+                          ;LC-meter.c: 69: unsigned long int milliseconds(
      +                          );
  4743+                          ;LC-meter.c: 70: void delay10ms(unsigned short i
      +                          nt period_10ms);
  4744+                          ;LC-meter.c: 72: void put_str(const char*);
  4745+                          ;LC-meter.c: 74: void put_number(void (*putchar)
      +                          (char), unsigned short int n, unsigned char base
      +                          , signed char pad );
  4746+                          	
  4747+ 000000'                    _isr:		; BSR set to: ?
  4748+                          
  4749+ 000000' 0006               	pop	; remove dummy address from shadow register
      +                           refresh
  4750+                          
  4751+                          	opt stack 31
  4752+                                  psect   intcode,class=CODE,space=0,reloc
      +                          =2
  4753+                          	global	int_func
  4754+ 000000'                    int_func:
  4755+                                  psect   intcode
  4756+ 000000' CFFA F000'         	movff	pclat+0,??_isr+0
  4757+ 000004' CFFB F001'         	movff	pclat+1,??_isr+1
  4758+ 000008' CFE9 F002'         	movff	fsr0l+0,??_isr+2
  4759+ 00000C' ED00' F000'        	call	_isr,f	;refresh shadow registers
  4760+                                  psect   text19
  4761+ 000002' CFEA F003'         	movff	fsr0h+0,??_isr+3
  4762+ 000006' CFE1 F004'         	movff	fsr1l+0,??_isr+4
  4763+ 00000A' CFE2 F005'         	movff	fsr1h+0,??_isr+5
  4764+ 00000E' CFD9 F006'         	movff	fsr2l+0,??_isr+6
  4765+ 000012' CFDA F007'         	movff	fsr2h+0,??_isr+7
  4766+ 000016' CFF3 F008'         	movff	prodl+0,??_isr+8
  4767+ 00001A' CFF4 F009'         	movff	prodh+0,??_isr+9
  4768+ 00001E' CFF6 F00A'         	movff	tblptrl+0,??_isr+10
  4769+ 000022' CFF7 F00B'         	movff	tblptrh+0,??_isr+11
  4770+ 000026' CFF8 F00C'         	movff	tblptru+0,??_isr+12
  4771+ 00002A' CFF5 F00D'         	movff	tablat+0,??_isr+13
  4772+                          	line	81
  4773+                          ;LC-meter.c: 81: if(TMR2IF) {
  4774+ 00002E' A29E               	btfss	c:(31985/8),(31985)&7	;volatile
  4775+ 000030' EF00' F000'        	goto	i2u2901
  4776+ 000034' EF00' F000'        	goto	i2u2900
  4777+ 000038'                    i2u2901:
  4778+ 000038' EF00' F000'        	goto	i2l570
  4779+ 00003C'                    i2u2900:
  4780+                          	line	83
  4781+                          ;LC-meter.c: 83: bres += 256;
  4782+ 00003C' 0E01               	movlw	(0100h >> 8)
  4783+ 00003E' 2606               	addwf	((c:5+1)),c	;volatile
  4784+                          	line	85
  4785+                          ;LC-meter.c: 85: if(bres >= 5000) {
  4786+ 000040' 0E88               	movlw	088h
  4787+ 000042' 5C05               	subwf	((c:5)),c,w	;volatile
  4788+ 000044' 0E13               	movlw	013h
  4789+ 000046' 5806               	subwfb	((c:5+1)),c,w	;volatile
  4790+ 000048' A0D8               	btfss	status,0
  4791+ 00004A' EF00' F000'        	goto	i2u2911
  4792+ 00004E' EF00' F000'        	goto	i2u2910
  4793+ 000052'                    i2u2911:
  4794+ 000052' EF00' F000'        	goto	i2l571
  4795+ 000056'                    i2u2910:
  4796+                          	line	86
  4797+                          ;LC-meter.c: 86: bres -= 5000;
  4798+ 000056' 0E88               	movlw	low(01388h)
  4799+ 000058' 5E05               	subwf	((c:5)),c	;volatile
  4800+ 00005A' 0E13               	movlw	high(01388h)
  4801+ 00005C' 5A06               	subwfb	((c:5+1)),c	;volatile
  4802+                          	line	87
  4803+                          ;LC-meter.c: 87: msecpart++;
  4804+ 00005E' 4A03               	infsnz	((c:3)),c	;volatile
  4805+ 000060' 2A04               	incf	((c:3+1)),c	;volatile
  4806+                          	line	88
  4807+                          ;LC-meter.c: 88: msecs++;
  4808+ 000062' 0E01               	movlw	01h
  4809+ 000064' 2610               	addwf	((c:16)),c	;volatile
  4810+ 000066' 0E00               	movlw	0
  4811+ 000068' 2211               	addwfc	((c:16+1)),c	;volatile
  4812+ 00006A' 0E00               	movlw	0
  4813+ 00006C' 2212               	addwfc	((c:16+2)),c	;volatile
  4814+ 00006E' 0E00               	movlw	0
  4815+ 000070' 2213               	addwfc	((c:16+3)),c	;volatile
  4816+                          	line	90
  4817+                          ;LC-meter.c: 90: RC3 = (((blink > 200)) == 0);
  4818+ 000072' 0EC9               	movlw	0C9h
  4819+ 000074' 5C14               	subwf	((c:20)),c,w
  4820+ 000076' 0E00               	movlw	0
  4821+ 000078' 5815               	subwfb	((c:20+1)),c,w
  4822+ 00007A' A0D8               	btfss	status,0
  4823+ 00007C' EF00' F000'        	goto	i2u2921
  4824+ 000080' EF00' F000'        	goto	i2u2920
  4825+ 000084'                    i2u2921:
  4826+ 000084' 8682               	bsf	c:(31763/8),(31763)&7	;volatile
  4827+ 000086' EF00' F000'        	goto	i2u2935
  4828+ 00008A'                    i2u2920:
  4829+ 00008A' 9682               	bcf	c:(31763/8),(31763)&7	;volatile
  4830+ 00008C'                    i2u2935:
  4831+                          	line	91
  4832+                          ;LC-meter.c: 91: if(blink >= 400)
  4833+ 00008C' 0E90               	movlw	090h
  4834+ 00008E' 5C14               	subwf	((c:20)),c,w
  4835+ 000090' 0E01               	movlw	01h
  4836+ 000092' 5815               	subwfb	((c:20+1)),c,w
  4837+ 000094' A0D8               	btfss	status,0
  4838+ 000096' EF00' F000'        	goto	i2u2941
  4839+ 00009A' EF00' F000'        	goto	i2u2940
  4840+ 00009E'                    i2u2941:
  4841+ 00009E' EF00' F000'        	goto	i2l572
  4842+ 0000A2'                    i2u2940:
  4843+                          	line	92
  4844+                          ;LC-meter.c: 92: blink -= 400;
  4845+ 0000A2' 0E90               	movlw	low(0190h)
  4846+ 0000A4' 5E14               	subwf	((c:20)),c
  4847+ 0000A6' 0E01               	movlw	high(0190h)
  4848+ 0000A8' 5A15               	subwfb	((c:20+1)),c
  4849+                          	
  4850+ 0000AA'                    i2l572:		; BSR set to: ?
  4851+                          
  4852+                          	line	93
  4853+                          ;LC-meter.c: 93: ++blink;
  4854+ 0000AA' 4A14               	infsnz	((c:20)),c
  4855+ 0000AC' 2A15               	incf	((c:20+1)),c
  4856+                          	line	96
  4857+                          ;LC-meter.c: 96: if(msecpart >= 1000) {
  4858+ 0000AE' 0EE8               	movlw	0E8h
  4859+ 0000B0' 5C03               	subwf	((c:3)),c,w	;volatile
  4860+ 0000B2' 0E03               	movlw	03h
  4861+ 0000B4' 5804               	subwfb	((c:3+1)),c,w	;volatile
  4862+ 0000B6' A0D8               	btfss	status,0
  4863+ 0000B8' EF00' F000'        	goto	i2u2951
  4864+ 0000BC' EF00' F000'        	goto	i2u2950
  4865+ 0000C0'                    i2u2951:
  4866+ 0000C0' EF00' F000'        	goto	i2l571
  4867+ 0000C4'                    i2u2950:
  4868+                          	line	98
  4869+                          ;LC-meter.c: 98: seconds++;
  4870+ 0000C4' 0E01               	movlw	01h
  4871+ 0000C6' 261F               	addwf	((c:31)),c	;volatile
  4872+ 0000C8' 0E00               	movlw	0
  4873+ 0000CA' 2220               	addwfc	((c:31+1)),c	;volatile
  4874+ 0000CC' 0E00               	movlw	0
  4875+ 0000CE' 2221               	addwfc	((c:31+2)),c	;volatile
  4876+ 0000D0' 0E00               	movlw	0
  4877+ 0000D2' 2222               	addwfc	((c:31+3)),c	;volatile
  4878+                          	line	99
  4879+                          ;LC-meter.c: 99: msecpart -= 1000;
  4880+ 0000D4' 0EE8               	movlw	low(03E8h)
  4881+ 0000D6' 5E03               	subwf	((c:3)),c	;volatile
  4882+ 0000D8' 0E03               	movlw	high(03E8h)
  4883+ 0000DA' 5A04               	subwfb	((c:3+1)),c	;volatile
  4884+                          	line	100
  4885+                          	
  4886+ 0000DC'                    i2l573:		; BSR set to: ?
  4887+                          
  4888+                          	line	101
  4889+                          	
  4890+ 0000DC'                    i2l571:		; BSR set to: ?
  4891+                          
  4892+                          	line	103
  4893+                          ;LC-meter.c: 100: }
  4894+                          ;LC-meter.c: 101: }
  4895+                          ;LC-meter.c: 103: TMR2IF = 0;
  4896+ 0000DC' 929E               	bcf	c:(31985/8),(31985)&7	;volatile
  4897+                          	line	104
  4898+                          	
  4899+ 0000DE'                    i2l570:		; BSR set to: ?
  4900+                          
  4901+                          	line	111
  4902+                          ;LC-meter.c: 104: }
  4903+                          ;LC-meter.c: 111: }
  4904+ 0000DE'                    i2l569:
  4905+                          			; BSR set to: ?
  4906+                          
  4907+ 0000DE' C00D' FFF5         	movff	??_isr+13,tablat+0
  4908+ 0000E2' C00C' FFF8         	movff	??_isr+12,tblptru+0
  4909+ 0000E6' C00B' FFF7         	movff	??_isr+11,tblptrh+0
  4910+ 0000EA' C00A' FFF6         	movff	??_isr+10,tblptrl+0
  4911+ 0000EE' C009' FFF4         	movff	??_isr+9,prodh+0
  4912+ 0000F2' C008' FFF3         	movff	??_isr+8,prodl+0
  4913+ 0000F6' C007' FFDA         	movff	??_isr+7,fsr2h+0
  4914+ 0000FA' C006' FFD9         	movff	??_isr+6,fsr2l+0
  4915+ 0000FE' C005' FFE2         	movff	??_isr+5,fsr1h+0
  4916+ 000102' C004' FFE1         	movff	??_isr+4,fsr1l+0
  4917+ 000106' C003' FFEA         	movff	??_isr+3,fsr0h+0
  4918+ 00010A' C002' FFE9         	movff	??_isr+2,fsr0l+0
  4919+ 00010E' C001' FFFB         	movff	??_isr+1,pclat+1
  4920+ 000112' C000' FFFA         	movff	??_isr+0,pclat+0
  4921+ 000116' 0011               	retfie f
  4922+                          	opt stack 0
  4923+                          GLOBAL __end_of_isr
  4924+ 000118'                    	__end_of_isr:
  4925+                          	FNSIZE	_isr,14,0
  4926+                          ; =============== function _isr ends ===========
      +                          =
  4927+                          
  4928+                          	signat	_isr,90
  4929+                          	FNCALL	_main,_timer2_init
  4930+                          	FNCALL	_main,_delay10ms
  4931+                          	FNCALL	_main,_calibrate
  4932+                          	FNCALL	_main,_ser_puts
  4933+                          	FNCALL	_main,_measure_capacitance
  4934+                          	FNCALL	_main,_measure_inductance
  4935+                          	FNCALL	_main,_indicator
  4936+                          	FNCALL	_measure_capacitance,_measure_freq
  4937+                          	FNCALL	_measure_capacitance,___lwtoft
  4938+                          	FNCALL	_measure_capacitance,___ftge
  4939+                          	FNCALL	_measure_capacitance,___ftmul
  4940+                          	FNCALL	_measure_capacitance,___ftsub
  4941+                          	FNCALL	_measure_capacitance,___ftdiv
  4942+                          	FNCALL	_measure_capacitance,___fttol
  4943+                          	FNCALL	_measure_capacitance,_print_reading
  4944+                          	FNCALL	_measure_capacitance,_print_unit
  4945+                          	FNCALL	_measure_inductance,_measure_freq
  4946+                          	FNCALL	_measure_inductance,___lwtoft
  4947+                          	FNCALL	_measure_inductance,___ftge
  4948+                          	FNCALL	_measure_inductance,___ftmul
  4949+                          	FNCALL	_measure_inductance,___ftsub
  4950+                          	FNCALL	_measure_inductance,___ftdiv
  4951+                          	FNCALL	_measure_inductance,___fttol
  4952+                          	FNCALL	_measure_inductance,_print_reading
  4953+                          	FNCALL	_measure_inductance,_print_unit
  4954+                          	FNCALL	_calibrate,_measure_freq
  4955+                          	FNCALL	_calibrate,___lwtoft
  4956+                          	FNCALL	_calibrate,_delay10ms
  4957+                          	FNCALL	_calibrate,_ser_puts
  4958+                          	FNCALL	___ftdiv,___ftunpack
  4959+                          	FNCALL	___ftdiv,___ftpack
  4960+                          	FNCALL	___ftsub,___ftadd
  4961+                          	FNCALL	_delay10ms,___wmul
  4962+                          	FNCALL	___fttol,___ftunpack
  4963+                          	FNCALL	___ftmul,___ftunpack
  4964+                          	FNCALL	___ftmul,___ftpack
  4965+                          	FNCALL	___lwtoft,___ftpack
  4966+                          	FNCALL	___ftadd,___ftunpack
  4967+                          	FNCALL	___ftadd,___ftpack
  4968+                          	FNROOT	_main
  4969+                          	FNCALL	intlevel2,_isr
  4970+                          	global	intlevel2
  4971+                          	FNROOT	intlevel2
  4972+                          ;	FNARG	___ftmul,___ftadd
  4973+                          ;	FNARG	___ftmul,___ftsub
  4974+                          ;	FNARG	___ftmul,___ftdiv
  4975+                          ;	FNARG	___ftmul,_frexp
  4976+                          ;	FNARG	___ftmul,___awtoft
  4977+                          ;	FNARG	___ftmul,___ftneg
  4978+                          	global	_putchar_ptr
  4979+                          	global	_putchar_ptr
  4980+                                  psect   text20,class=CODE,space=0,reloc=
      +                          2
  4981+ 000000                     _putchar_ptr  equ     37
  4982+                          
  4983+                          	opt lm
  4984+                          
  4985+                          	DABS	1,37,2	;_putchar_ptr
  4986+                                  psect   idata,class=CODE,space=0
  4987+                          	file	"../../../lib/format.c"
  4988+                          	line	10
  4989+                          
  4990+                          ;initializer for _putchar_ptr
  4991+ 000000' 0000               	dw	(0)&0ffffh
  4992+                                  psect   smallconst,class=SMALLCONST,spac
      +                          e=0,reloc=2
  4993+ 000000' 00                 	db	0	;reserve
  4994+                          	global	F65
  4995+                          	file	"C:\Program Files (x86)\HI-TECH Software\P
      +                          ICC-18\PRO\9.66\sources\exp.c"
  4996+                          	line	17
  4997+ 000001'                    F65:
  4998+ 000001' 00                 	db	low(float24(1.0000000000000000))
  4999+ 000002' 80                 	db	high(float24(1.0000000000000000))
  5000+ 000003' 3F                 	db	low highword(float24(1.0000000000000000))
  5001+ 000004' 72                 	db	low(float24(0.69314718056000002))
  5002+ 000005' 31                 	db	high(float24(0.69314718056000002))
  5003+ 000006' 3F                 	db	low highword(float24(0.69314718056000002))
  5004+ 000007' FE                 	db	low(float24(0.24022650695000000))
  5005+ 000008' 75                 	db	high(float24(0.24022650695000000))
  5006+ 000009' 3E                 	db	low highword(float24(0.24022650695000000))
  5007+ 00000A' 58                 	db	low(float24(0.055504108944999998))
  5008+ 00000B' 63                 	db	high(float24(0.055504108944999998))
  5009+ 00000C' 3D                 	db	low highword(float24(0.055504108944999998))
  5010+ 00000D' 95                 	db	low(float24(0.0096181261778999997))
  5011+ 00000E' 1D                 	db	high(float24(0.0096181261778999997))
  5012+ 00000F' 3C                 	db	low highword(float24(0.0096181261778999997))
  5013+ 000010' C5                 	db	low(float24(0.0013333710529000000))
  5014+ 000011' AE                 	db	high(float24(0.0013333710529000000))
  5015+ 000012' 3A                 	db	low highword(float24(0.0013333710529000000))
  5016+ 000013' 79                 	db	low(float24(0.00015399104432000000))
  5017+ 000014' 21                 	db	high(float24(0.00015399104432000000))
  5018+ 000015' 39                 	db	low highword(float24(0.00015399104432000000)
      +                          )
  5019+ 000016' 94                 	db	low(float24(1.5327675256999998e-005))
  5020+ 000017' 80                 	db	high(float24(1.5327675256999998e-005))
  5021+ 000018' 37                 	db	low highword(float24(1.5327675256999998e-005
      +                          ))
  5022+ 000019' 93                 	db	low(float24(1.2485143336000000e-006))
  5023+ 00001A' A7                 	db	high(float24(1.2485143336000000e-006))
  5024+ 00001B' 35                 	db	low highword(float24(1.2485143336000000e-006
      +                          ))
  5025+ 00001C' 56                 	db	low(float24(1.3908092220999999e-007))
  5026+ 00001D' 15                 	db	high(float24(1.3908092220999999e-007))
  5027+ 00001E' 34                 	db	low highword(float24(1.3908092220999999e-007
      +                          ))
  5028+                          	global	F64
  5029+                          	file	"C:\Program Files (x86)\HI-TECH Software\P
      +                          ICC-18\PRO\9.66\sources\log.c"
  5030+                          	line	9
  5031+ 00001F'                    F64:
  5032+ 00001F' 00                 	db	low(float24(0.00000000000000000))
  5033+ 000020' 00                 	db	high(float24(0.00000000000000000))
  5034+ 000021' 00                 	db	low highword(float24(0.00000000000000000))
  5035+ 000022' 00                 	db	low(float24(0.99999642389999999))
  5036+ 000023' 80                 	db	high(float24(0.99999642389999999))
  5037+ 000024' 3F                 	db	low highword(float24(0.99999642389999999))
  5038+ 000025' F0                 	db	low(float24(-0.49987412380000001))
  5039+ 000026' FF                 	db	high(float24(-0.49987412380000001))
  5040+ 000027' BE                 	db	low highword(float24(-0.49987412380000001))
  5041+ 000028' E2                 	db	low(float24(0.33179902579999998))
  5042+ 000029' A9                 	db	high(float24(0.33179902579999998))
  5043+ 00002A' 3E                 	db	low highword(float24(0.33179902579999998))
  5044+ 00002B' 83                 	db	low(float24(-0.24073380840000000))
  5045+ 00002C' 76                 	db	high(float24(-0.24073380840000000))
  5046+ 00002D' BE                 	db	low highword(float24(-0.24073380840000000))
  5047+ 00002E' AE                 	db	low(float24(0.16765407110000000))
  5048+ 00002F' 2B                 	db	high(float24(0.16765407110000000))
  5049+ 000030' 3E                 	db	low highword(float24(0.16765407110000000))
  5050+ 000031' 3C                 	db	low(float24(-0.095329389700000003))
  5051+ 000032' C3                 	db	high(float24(-0.095329389700000003))
  5052+ 000033' BD                 	db	low highword(float24(-0.095329389700000003))
  5053+ 000034' D2                 	db	low(float24(0.036088493700000002))
  5054+ 000035' 13                 	db	high(float24(0.036088493700000002))
  5055+ 000036' 3D                 	db	low highword(float24(0.036088493700000002))
  5056+ 000037' 78                 	db	low(float24(-0.0064535442000000004))
  5057+ 000038' D3                 	db	high(float24(-0.0064535442000000004))
  5058+ 000039' BB                 	db	low highword(float24(-0.0064535442000000004)
      +                          )
  5059+                          	global	F65
  5060+                          	global	F64
  5061+                          	global	_msecs
  5062+                          	global	_msecs
  5063+ 000000                     _msecs  equ     16
  5064+                          
  5065+                          	DABS	1,16,4	;_msecs
  5066+                          	global	_seconds
  5067+                          	global	_seconds
  5068+ 000000                     _seconds  equ     31
  5069+                          
  5070+                          	DABS	1,31,4	;_seconds
  5071+                          	global	_timer1of
  5072+                          	global	_timer1of
  5073+ 000000                     _timer1of  equ     27
  5074+                          
  5075+                          	DABS	1,27,4	;_timer1of
  5076+                          	global	_F1
  5077+                          	global	_F1
  5078+ 000000                     _F1  equ     7
  5079+                          
  5080+                          	DABS	1,7,3	;_F1
  5081+                          	global	_F2
  5082+                          	global	_F2
  5083+ 000000                     _F2  equ     13
  5084+                          
  5085+                          	DABS	1,13,3	;_F2
  5086+                          	global	_F3
  5087+                          	global	_F3
  5088+ 000000                     _F3  equ     10
  5089+                          
  5090+                          	DABS	1,10,3	;_F3
  5091+                          	global	F2189
  5092+ 000000                     F2189  equ     35
  5093+                          
  5094+                          	DABS	1,35,2	;F2189
  5095+                          	global	_TIMER2_FLAGS_INTR
  5096+ 000000                     _TIMER2_FLAGS_INTR  equ     22
  5097+                          
  5098+                          	DABS	1,22,2	;_TIMER2_FLAGS_INTR
  5099+                          	global	_blink
  5100+ 000000                     _blink  equ     20
  5101+                          
  5102+                          	DABS	1,20,2	;_blink
  5103+                          	global	_errno
  5104+                          	global	_errno
  5105+ 000000                     _errno  equ     25
  5106+                          
  5107+                          	DABS	1,25,2	;_errno
  5108+                          	global	F2188
  5109+ 000000                     F2188  equ     24
  5110+                          
  5111+                          	DABS	1,24,1	;F2188
  5112+                          	global	_CCal
  5113+                          	global	_CCal
  5114+ 000000                     _CCal  equ     0
  5115+                          
  5116+                          	DABS	1,0,3	;_CCal
  5117+                          	global	_TMR0
  5118+ 000000                     _TMR0	equ	0xFD6
  5119+                          	global	_bres
  5120+                          	global	_bres
  5121+ 000000                     _bres  equ     5
  5122+                          
  5123+                          	DABS	1,5,2	;_bres
  5124+                          	global	_msecpart
  5125+                          	global	_msecpart
  5126+ 000000                     _msecpart  equ     3
  5127+                          
  5128+                          	DABS	1,3,2	;_msecpart
  5129+                          	global	_PORTC
  5130+ 000000                     _PORTC	equ	0xF82
  5131+                          	global	_TRISA
  5132+ 000000                     _TRISA	equ	0xF92
  5133+                          	global	_TRISC
  5134+ 000000                     _TRISC	equ	0xF94
  5135+                          	global	_GIE
  5136+ 000000                     _GIE	equ	0x7F97
  5137+                          	global	_PEIE
  5138+ 000000                     _PEIE	equ	0x7F96
  5139+                          	global	_RBPU
  5140+ 000000                     _RBPU	equ	0x7F8F
  5141+                          	global	_RC3
  5142+ 000000                     _RC3	equ	0x7C13
  5143+                          	global	_RC4
  5144+ 000000                     _RC4	equ	0x7C14
  5145+                          	global	_SSPEN
  5146+ 000000                     _SSPEN	equ	0x7E35
  5147+                          	global	_T0CS
  5148+ 000000                     _T0CS	equ	0x7EAD
  5149+                          	global	_T0SE
  5150+ 000000                     _T0SE	equ	0x7EAC
  5151+                          	global	_TMR0IF
  5152+ 000000                     _TMR0IF	equ	0x7F92
  5153+                          	global	_TMR2IF
  5154+ 000000                     _TMR2IF	equ	0x7CF1
  5155+                          	global	_TRISC0
  5156+ 000000                     _TRISC0	equ	0x7CA0
  5157+                          	global	_TRISC1
  5158+ 000000                     _TRISC1	equ	0x7CA1
  5159+                          	global	_TRISC2
  5160+ 000000                     _TRISC2	equ	0x7CA2
  5161+                          	global	_TRISC3
  5162+ 000000                     _TRISC3	equ	0x7CA3
  5163+                          	
  5164+ 00003A'                    STR_1:		; BSR set to: ?
  5165+                          
  5166+ 00003A' 2E                 	db	46
  5167+ 00003B' 2E                 	db	46
  5168+ 00003C' 2E                 	db	46
  5169+ 00003D' 0D                 	db	13
  5170+ 00003E' 0A                 	db	10
  5171+ 00003F' 00                 	db	0
  5172+ 000000                     STR_2	equ	STR_1+3
  5173+ 000040' 00                 	db 0	; dummy byte at the end
  5174+                          	psect	intsave_regs,class=BIGRAM,space=1
  5175+                          	PSECT	param1,class=BANK1,space=1
  5176+                          	GLOBAL	__Lparam1
  5177+                          	FNCONF	param1,??,?
  5178+                          	GLOBAL	__Labsbss0
  5179+ 000000                     __Labsbss0	EQU	0
  5180+                          	GLOBAL	__Habsbss0
  5181+ 000000                     __Habsbss0	EQU	37
  5182+                          	GLOBAL	__Ldata0
  5183+ 000000                     __Ldata0	EQU	37
  5184+                          	GLOBAL	__Hdata0
  5185+ 000000                     __Hdata0	EQU	39
  5186+                          GLOBAL	__Lparam, __Hparam
  5187+                          GLOBAL	__Lparam1, __Hparam1
  5188+ 000000                     __Lparam	EQU	__Lparam1
  5189+ 000000                     __Hparam	EQU	__Hparam1


HI-TECH Software PICC-18 Macro Assembler V9.66 build 8870 
Symbol Table                                           Mon Sep 02 21:49:38 2019

                           F64 00001F                             F65 000001  
                           _F1 000007                             _F2 00000D  
                           _F3 00000A            ___wmul@multiplicand 000002  
                 ___ftadd@exp1 000004                   ___ftadd@exp2 000003  
                 ___ftadd@cntr 000001                    _putchar_ptr 000025  
                          l600 000428                            l601 0003E0  
                          l610 0000A6                            l602 000398  
                          l603 0003DC                            l604 000424  
                          l605 000438                            l606 0000BA  
                          l608 0000BA                            l609 000066  
                          l804 000000                            l805 000000  
                          l582 000134                            l806 000000  
                          l590 000310                            l583 00004A  
                          l591 000066                            l575 0000D2  
                          l584 00007A                            l592 0002A0  
                          l593 000258                            l594 000210  
                          l578 0000FA                            l587 0000E4  
                          l595 000254                            l579 0000FE  
                          l588 00008E                            l596 00029C  
                          l589 0000AC                            l597 0002B0  
                          l598 000498                            l599 00005A  
                          _GIE 007F97                            _RC3 007C13  
                          _RC4 007C14                            _isr 000000  
                          wreg 000FE8                           F2188 000018  
                         F2189 000023                   ___ftdiv@exp1 000002  
                 ___ftdiv@exp2 000000                  ___ftadd@sign1 000002  
                ___ftadd@sign2 000000                           l1000 0000B8  
                         l1001 000052                           l1002 000098  
                         l1010 0000D4                           l1011 0000F0  
                         l1003 000168                           l1012 0000D8  
                         l1004 00004A                           l1013 000114  
                         l1005 000068                           l1014 00013C  
                         l1006 00004E                           l1030 000004  
                         l1007 000086                           l1031 000054  
                         l1008 0000B6                           l1040 000144  
                         l1032 00034A                           l1009 00008A  
                         l1041 000172                           l1033 000176  
                         l1050 00020E                           l1042 00023C  
                         l1043 00023C                           l1051 00023C  
                         l1035 000172                           l1052 000280  
                         l1053 0002C4                           l1045 00023C  
                         l1037 000140                           l1029 0003A0  
                         l1061 000168                           l1054 00034A  
                         l1038 000106                           l1070 0000C8  
                         l1062 0000E2                           l1055 000390  
                         l1047 00020A                           l1039 00015A  
                         l1071 0000FE                           l1063 00014E  
                         l1048 0001D0                           l1080 00016C  
                         l1064 00019C                           l1049 000224  
                         l1073 000198                           l1081 0000C2  
                         l1057 0001AC                           l1170 00000E  
                         l1074 000138                           l1066 0001DC  
                         l1090 000124                           l1058 000068  
                         l1171 000038                           l1075 00016E  
                         l1067 0000AA                           l1091 000158  
                         l1059 0000B8                           l1076 0001CC  
                         l1084 0000BE                           l1165 00007E  
                         l1069 000128                           l1085 0000A0  
                         l1166 000032                           l1086 000124  
                         l1078 000044                           l1167 000072  
                         l1087 0000F4                           l1176 0000EC  
                         l1088 000112                           l1169 000066  
                         l1177 00004A                           l1089 0000F8  
                         l1178 000094                           ?_isr 000000* 
                         STR_1 00003A                           STR_2 000003  
                         _T0CS 007EAD                           u2100 000192  
                         u2101 00018E                           u2110 0001C8  
                         u2111 0001C4                           u2200 000350  
                         u2120 0000F2                           u2201 00034C  
                         u2121 0000EE                           u2130 000058  
                         _T0SE 007EAC                           u2131 000054  
                         u2140 0000A8                           u2141 0000A4  
                         u2150 000124                           u3007 00000C  
                         u2151 000120                           u2160 000196  
                         u2080 00005A                           u3017 000052  
                         u2161 000192                           u2081 000056  
                         _CCal 000000                           u2170 00004E  
                         u2090 00015C                           u2171 00004A  
                         u2091 000158                           u2340 00006A  
                         u2180 0002E4                           u2341 000066  
                         u2181 0002E0                           u2510 000016  
                         u2430 000088                           u2350 000082  
                         u2190 00031A                           u2511 000012  
                         u2431 000084                           u2351 00007E  
                         u2191 000316                           u2600 0000BE  
                         u2520 000012                           u2440 00009A  
                         u2360 0000D6                           u2601 0000BA  
                         u2521 00000E                           u2441 000096  
                         u2361 0000D2                           u2610 0000E2  
                         u2530 00005C                           u2450 0000DA  
                         u2370 000124                           u2611 0000DE  
                         u2531 000058                           u2451 0000D6  
                         u2371 000120                           u2700 00030A  
                         u2620 000136                           u2540 000046  
                         u2460 00014A                           u2380 000138  
                         u2701 000306                           u2621 000132  
                         u2541 000042                           u2461 000146  
                         u2381 000134                           u2710 000378  
                         u2630 000172                           u2550 00007A  
                         u2470 0001C6                           u2711 000374  
                         u2631 00016E                           u2551 000076  
                         u2471 0001C2                           u2720 000036  
                         u2640 000190                           u2560 0000C8  
                         u2721 000032                           u2641 00018C  
                         u2561 0000C4                           u2730 000092  
                         u2650 0001B4                           u2570 0000E4  
                         u2731 00008E                           u2651 0001B0  
                         u2571 0000E0                           u2740 000014  
                         u2660 000200                           u2580 000044  
                         u2741 000010                           u2661 0001FC  
                         u2581 000040                           u2565 0000BA  
                         u2750 000030                           u2670 00023C  
                         u2590 000096                           u2751 00002C  
                         u2671 000238                           u2591 000092  
                         u2760 000086                           u2680 000250  
                         u2761 000082                           u2681 00024C  
                         u2770 0000D4                           u2690 000294  
                         _PEIE 007F96                           u2771 0000D0  
                         u2691 000290                           u2780 000114  
                         u2781 000110                           u2790 000126  
                         u2791 000122                           u2960 000096  
                         u2961 000092                           u2970 0000BA  
                         u2971 0000B6                           u2980 000020  
                         u2981 00001C                           u2990 000066  
                         u2991 000062                           _RBPU 007F8F  
                         _TMR0 000FD6                           _bres 000005  
                         _main 000000                   ___ftpack@arg 000000  
                 ___ftpack@exp 000002                           fsr0h 000FEA  
                         fsr1h 000FE2                           indf0 000FEF  
                         fsr0l 000FE9                           fsr2h 000FDA  
                         fsr1l 000FE1                           fsr2l 000FD9  
                         pclat 000FFA                           prodh 000FF4  
                         prodl 000FF3     __end_of_measure_inductance 00049A  
                         start 000000*                  ___ftmul@exp1 000001  
                 ___ftmul@cntr 000002                   ___fttol@exp1 000001  
                 ___fttol@lval 000002                          ??_isr 000000* 
                ___ftdiv@sign1 000001                  ___ftdiv@sign2 000003  
                        ?_main 000000*               __end_of___ftadd 0003A2  
              __end_of___ftdiv 0001AE                __end_of___ftmul 0001DE  
              __end_of___ftsub 000046                __end_of___fttol 00016E  
                        i2l570 0000DE                          i2l571 0000DC  
                        i2l572 0000AA                          i2l573 0000DC  
                        i2l569 0000DE                          _PORTC 000F82  
                        _TRISA 000F92                          _TRISC 000F94  
                        _SSPEN 007E35                          _blink 000014  
                 _output_putch 000000*                         _errno 000019  
                        _msecs 000010                          tablat 000FF5  
                        plusw0 000FEB                          status 000FD8  
              ??_print_reading 000000*                 ___ftmul@sign1 000000  
                 __end_of_main 000152                  ?_measure_freq 000000* 
                       ??_main 000000*                 ___fttol@sign1 000000  
                __activetblptr 000002               __end_of___ftpack 00016A  
             __end_of___lwtoft 000080                         i2u2900 00003C  
                       i2u2901 000038                         i2u2910 000056  
                       i2u2911 000052                         i2u2920 00008A  
                       i2u2921 000084                         i2u2940 0000A2  
                       i2u2941 00009E                         i2u2950 0000C4  
                       i2u2951 0000C0                         i2u2935 00008C  
                       _TMR0IF 007F92                         _TMR2IF 007CF1  
                       _TRISC0 007CA0                         _TRISC1 007CA1  
                       _TRISC2 007CA2                         _TRISC3 007CA3  
                       __Ldata 000025                         ___ftge 000000  
                       ___wmul 000000                      ??___ftadd 000000* 
                    ??___ftdiv 000000*                     ??___ftmul 000000* 
                    ??___ftsub 000000*                     ??___fttol 000000* 
               ??_measure_freq 000000*                  ?_timer2_init 000000* 
                 __mediumconst 000000                         preinc0 000FEC  
                       tblptrh 000FF7                         tblptrl 000FF6  
                       tblptru 000FF8        _measure_inductance$1203 000000  
      _measure_inductance$1204 000003        _measure_inductance$1205 000006  
      _measure_inductance$1206 000009                     __accesstop 000000* 
                   ___ftadd@f1 000000                     ___ftadd@f2 000003  
                   ___ftge@ff1 000000                     ___ftge@ff2 000003  
                   ___ftdiv@f1 000000                     ___ftdiv@f2 000003  
                   ___ftdiv@f3 000004         measure_capacitance@Cin 000006  
                   ___ftmul@f1 000000                     ___ftmul@f2 000003  
                   ___ftmul@f3 000003         measure_capacitance@var 000004  
                   ___ftsub@f1 000000                     ___ftsub@f2 000003  
                   ___fttol@f1 000000                     ___ftunpack 000000  
                   ___lwtoft@c 000000                 print_unit@unit 000000  
                      ?___ftge 000000*                       ?___wmul 000000* 
               ___ftunpack@arg 000000                 ___ftunpack@exp 000002  
                    l600000660 000140                      l600000661 00020A  
                    l600000662 000030                      l600000646 00009A  
                    l600000659 0000E4                      ?___ftpack 000000* 
           _measure_inductance 000000                      ?___lwtoft 000000* 
          ?_measure_inductance 000000*             __end_of_calibrate 0000AE  
            __end_of_delay10ms 0000BC           __end_of_measure_freq 000136  
                      __Hdata0 000027                        __Ldata0 000025  
                      __Hparam 000000                        __Lparam 000000  
         ??_measure_inductance 000000*                     ?_ser_puts 000000* 
                  ?___ftunpack 000000*                       ___ftadd 000000  
                      ___ftdiv 000000                        ___ftmul 000000  
                      ___ftsub 000000                        ___fttol 000000  
                   ??___ftpack 000000*                       __ramtop 000000* 
            __end_of_indicator 000002                     ??___lwtoft 000000* 
                      _seconds 00001F                  __Lmediumconst 000000* 
                      int_func 000000  measure_inductance@denominator 00000F  
        __end_of_print_reading 000002                     ??_ser_puts 000000* 
                      postdec0 000FED                        postinc0 000FEE  
                   _print_unit 000000            _measure_capacitance 000000  
         ?_measure_capacitance 000000*       measure_capacitance@unit 000003  
       measure_inductance@unit 00000C                 __end_of___ftge 0000EE  
               __end_of___wmul 000074                    __end_of_isr 000118  
                    __Habsbss0 000025                    ___lwtoft@f1 000000  
                    __Labsbss0 000000          ??_measure_capacitance 000000* 
                     ??___ftge 000000*                      ??___wmul 000000* 
                 _measure_freq 000000                   delay10ms@run 000000  
     print_reading@measurement 000000                    ?_print_unit 000000* 
            measure_freq@count 000001                      _calibrate 000000  
            _TIMER2_FLAGS_INTR 000016                      _delay10ms 000000  
                 ??___ftunpack 000000*                      ?___ftadd 000000* 
                     ?___ftdiv 000000*                      ?___ftmul 000000* 
                     ?___ftsub 000000*                      ?___fttol 000000* 
              ___ftunpack@sign 000000                    __smallconst 000000  
                    _indicator 000000             __end_of___ftunpack 0000BA  
                   ?_calibrate 000000*                ___wmul@product 000000  
                   ?_delay10ms 000000*                 measure_freq@i 000003  
                ??_timer2_init 000000*             indicator@indicate 000000  
            ___wmul@multiplier 000000                     ?_indicator 000000* 
        measure_inductance@Lin 000015          measure_inductance@var 00000D  
                     __Hparam1 000000*                      __Lparam1 000000* 
                 __Lsmallconst 000000*                   delay10ms@ms 000001  
                     ___ftpack 000000                       ___lwtoft 000000  
             measure_freq@prev 000000                    ??_calibrate 000000* 
                  ??_delay10ms 000000*                      _msecpart 000003  
                     _ser_puts 000000*                      _timer1of 00001B  
  measure_inductance@numerator 000012                   ??_print_unit 000000* 
                  ??_indicator 000000*                      intlevel2 000000* 
  __end_of_measure_capacitance 000312             __end_of_print_unit 000002  
                _print_reading 000000           delay10ms@period_10ms 000000  
                  _timer2_init 000000*      _measure_capacitance$1184 000000  
               ?_print_reading 000000* 
