

Microchip Technology PIC LITE Macro Assembler V1.34 build -361300703 
                                                                                               Thu Aug 29 16:39:28 2019

Microchip Technology Omniscient Code Generator (Lite mode) build 201502162209
     1                           	processor	16F876A
     2                           	opt	pw 120
     3                           	opt	lm
     4                           	psect	idataCOMMON,global,class=CODE,delta=2
     5                           	psect	idataBANK1,global,class=CODE,delta=2
     6                           	psect	strings,global,class=STRING,delta=2
     7                           	psect	nvBANK3,global,class=BANK3,space=1,delta=1
     8                           	psect	cinit,global,class=CODE,merge=1,delta=2
     9                           	psect	bssCOMMON,global,class=COMMON,space=1,delta=1
    10                           	psect	dataCOMMON,global,class=COMMON,space=1,delta=1
    11                           	psect	bssBANK1,global,class=BANK1,space=1,delta=1
    12                           	psect	dataBANK1,global,class=BANK1,space=1,delta=1
    13                           	psect	bssBANK3,global,class=BANK3,space=1,delta=1
    14                           	psect	bssBANK2,global,class=BANK2,space=1,delta=1
    15                           	psect	clrtext,global,class=CODE,delta=2
    16                           	psect	cstackBANK3,global,class=BANK3,space=1,delta=1
    17                           	psect	cstackBANK1,global,class=BANK1,space=1,delta=1
    18                           	psect	cstackCOMMON,global,class=COMMON,space=1,delta=1
    19                           	psect	cstackBANK0,global,class=BANK0,space=1,delta=1
    20                           	psect	maintext,global,class=CODE,split=1,delta=2
    21                           	psect	text1,local,class=CODE,merge=1,delta=2
    22                           	psect	text2,local,class=CODE,merge=1,delta=2
    23                           	psect	text3,local,class=CODE,merge=1,delta=2
    24                           	psect	text4,local,class=CODE,merge=1,delta=2
    25                           	psect	text5,local,class=CODE,merge=1,delta=2
    26                           	psect	text6,local,class=CODE,merge=1,delta=2
    27                           	psect	text7,local,class=CODE,merge=1,delta=2
    28                           	psect	text8,local,class=CODE,merge=1,delta=2
    29                           	psect	text9,local,class=CODE,merge=1,delta=2
    30                           	psect	text10,local,class=CODE,merge=1,delta=2
    31                           	psect	text11,local,class=CODE,merge=1,delta=2
    32                           	psect	text12,local,class=CODE,merge=1,delta=2
    33                           	psect	text13,local,class=CODE,merge=1,delta=2
    34                           	psect	text14,local,class=CODE,merge=1,delta=2
    35                           	psect	text15,local,class=CODE,merge=1,delta=2
    36                           	psect	text16,local,class=CODE,merge=1,delta=2
    37                           	psect	text17,local,class=CODE,merge=1,delta=2
    38                           	psect	text18,local,class=CODE,merge=1,delta=2
    39                           	psect	text19,local,class=CODE,merge=1,delta=2
    40                           	psect	text20,local,class=CODE,merge=1,delta=2
    41                           	psect	text21,local,class=CODE,merge=1,delta=2
    42                           	psect	text22,local,class=CODE,merge=1,delta=2
    43                           	psect	text23,local,class=CODE,merge=1,delta=2
    44                           	psect	text24,local,class=CODE,merge=1,delta=2
    45                           	psect	text25,local,class=CODE,merge=1,delta=2
    46                           	psect	text26,local,class=CODE,merge=1,delta=2
    47                           	psect	text27,local,class=CODE,merge=1,delta=2
    48                           	psect	text28,local,class=CODE,merge=1,delta=2
    49                           	psect	text29,local,class=CODE,merge=1,delta=2
    50                           	psect	text30,local,class=CODE,merge=1,delta=2
    51                           	psect	text31,local,class=CODE,merge=1,delta=2
    52                           	psect	text32,local,class=CODE,merge=1,delta=2
    53                           	psect	text33,local,class=CODE,merge=1,delta=2
    54                           	psect	text34,local,class=CODE,merge=1,delta=2
    55                           	psect	text35,local,class=CODE,merge=1,delta=2
    56                           	psect	text36,local,class=CODE,merge=1,delta=2
    57                           	psect	text37,local,class=CODE,merge=1,delta=2
    58                           	psect	text38,local,class=CODE,merge=1,delta=2
    59                           	psect	text39,local,class=CODE,merge=1,delta=2
    60                           	psect	text40,local,class=CODE,merge=1,delta=2
    61                           	psect	text41,local,class=CODE,merge=1,delta=2
    62                           	psect	intentry,global,class=CODE,delta=2
    63                           	psect	functab,global,reloc=256,class=CODE,delta=2
    64                           	dabs	1,0x7E,2
    65  0000                     	;# 
    66  0001                     	;# 
    67  0002                     	;# 
    68  0003                     	;# 
    69  0004                     	;# 
    70  0005                     	;# 
    71  0006                     	;# 
    72  0007                     	;# 
    73  000A                     	;# 
    74  000B                     	;# 
    75  000C                     	;# 
    76  000D                     	;# 
    77  000E                     	;# 
    78  000E                     	;# 
    79  000F                     	;# 
    80  0010                     	;# 
    81  0011                     	;# 
    82  0012                     	;# 
    83  0013                     	;# 
    84  0014                     	;# 
    85  0015                     	;# 
    86  0015                     	;# 
    87  0016                     	;# 
    88  0017                     	;# 
    89  0018                     	;# 
    90  0019                     	;# 
    91  001A                     	;# 
    92  001B                     	;# 
    93  001B                     	;# 
    94  001C                     	;# 
    95  001D                     	;# 
    96  001E                     	;# 
    97  001F                     	;# 
    98  0081                     	;# 
    99  0085                     	;# 
   100  0086                     	;# 
   101  0087                     	;# 
   102  008C                     	;# 
   103  008D                     	;# 
   104  008E                     	;# 
   105  0091                     	;# 
   106  0092                     	;# 
   107  0093                     	;# 
   108  0094                     	;# 
   109  0098                     	;# 
   110  0099                     	;# 
   111  009C                     	;# 
   112  009D                     	;# 
   113  009E                     	;# 
   114  009F                     	;# 
   115  010C                     	;# 
   116  010D                     	;# 
   117  010E                     	;# 
   118  010F                     	;# 
   119  018C                     	;# 
   120  018D                     	;# 
   121  0000                     	;# 
   122  0001                     	;# 
   123  0002                     	;# 
   124  0003                     	;# 
   125  0004                     	;# 
   126  0005                     	;# 
   127  0006                     	;# 
   128  0007                     	;# 
   129  000A                     	;# 
   130  000B                     	;# 
   131  000C                     	;# 
   132  000D                     	;# 
   133  000E                     	;# 
   134  000E                     	;# 
   135  000F                     	;# 
   136  0010                     	;# 
   137  0011                     	;# 
   138  0012                     	;# 
   139  0013                     	;# 
   140  0014                     	;# 
   141  0015                     	;# 
   142  0015                     	;# 
   143  0016                     	;# 
   144  0017                     	;# 
   145  0018                     	;# 
   146  0019                     	;# 
   147  001A                     	;# 
   148  001B                     	;# 
   149  001B                     	;# 
   150  001C                     	;# 
   151  001D                     	;# 
   152  001E                     	;# 
   153  001F                     	;# 
   154  0081                     	;# 
   155  0085                     	;# 
   156  0086                     	;# 
   157  0087                     	;# 
   158  008C                     	;# 
   159  008D                     	;# 
   160  008E                     	;# 
   161  0091                     	;# 
   162  0092                     	;# 
   163  0093                     	;# 
   164  0094                     	;# 
   165  0098                     	;# 
   166  0099                     	;# 
   167  009C                     	;# 
   168  009D                     	;# 
   169  009E                     	;# 
   170  009F                     	;# 
   171  010C                     	;# 
   172  010D                     	;# 
   173  010E                     	;# 
   174  010F                     	;# 
   175  018C                     	;# 
   176  018D                     	;# 
   177  0000                     	;# 
   178  0001                     	;# 
   179  0002                     	;# 
   180  0003                     	;# 
   181  0004                     	;# 
   182  0005                     	;# 
   183  0006                     	;# 
   184  0007                     	;# 
   185  000A                     	;# 
   186  000B                     	;# 
   187  000C                     	;# 
   188  000D                     	;# 
   189  000E                     	;# 
   190  000E                     	;# 
   191  000F                     	;# 
   192  0010                     	;# 
   193  0011                     	;# 
   194  0012                     	;# 
   195  0013                     	;# 
   196  0014                     	;# 
   197  0015                     	;# 
   198  0015                     	;# 
   199  0016                     	;# 
   200  0017                     	;# 
   201  0018                     	;# 
   202  0019                     	;# 
   203  001A                     	;# 
   204  001B                     	;# 
   205  001B                     	;# 
   206  001C                     	;# 
   207  001D                     	;# 
   208  001E                     	;# 
   209  001F                     	;# 
   210  0081                     	;# 
   211  0085                     	;# 
   212  0086                     	;# 
   213  0087                     	;# 
   214  008C                     	;# 
   215  008D                     	;# 
   216  008E                     	;# 
   217  0091                     	;# 
   218  0092                     	;# 
   219  0093                     	;# 
   220  0094                     	;# 
   221  0098                     	;# 
   222  0099                     	;# 
   223  009C                     	;# 
   224  009D                     	;# 
   225  009E                     	;# 
   226  009F                     	;# 
   227  010C                     	;# 
   228  010D                     	;# 
   229  010E                     	;# 
   230  010F                     	;# 
   231  018C                     	;# 
   232  018D                     	;# 
   233  0000                     	;# 
   234  0001                     	;# 
   235  0002                     	;# 
   236  0003                     	;# 
   237  0004                     	;# 
   238  0005                     	;# 
   239  0006                     	;# 
   240  0007                     	;# 
   241  000A                     	;# 
   242  000B                     	;# 
   243  000C                     	;# 
   244  000D                     	;# 
   245  000E                     	;# 
   246  000E                     	;# 
   247  000F                     	;# 
   248  0010                     	;# 
   249  0011                     	;# 
   250  0012                     	;# 
   251  0013                     	;# 
   252  0014                     	;# 
   253  0015                     	;# 
   254  0015                     	;# 
   255  0016                     	;# 
   256  0017                     	;# 
   257  0018                     	;# 
   258  0019                     	;# 
   259  001A                     	;# 
   260  001B                     	;# 
   261  001B                     	;# 
   262  001C                     	;# 
   263  001D                     	;# 
   264  001E                     	;# 
   265  001F                     	;# 
   266  0081                     	;# 
   267  0085                     	;# 
   268  0086                     	;# 
   269  0087                     	;# 
   270  008C                     	;# 
   271  008D                     	;# 
   272  008E                     	;# 
   273  0091                     	;# 
   274  0092                     	;# 
   275  0093                     	;# 
   276  0094                     	;# 
   277  0098                     	;# 
   278  0099                     	;# 
   279  009C                     	;# 
   280  009D                     	;# 
   281  009E                     	;# 
   282  009F                     	;# 
   283  010C                     	;# 
   284  010D                     	;# 
   285  010E                     	;# 
   286  010F                     	;# 
   287  018C                     	;# 
   288  018D                     	;# 
   289  0000                     	;# 
   290  0001                     	;# 
   291  0002                     	;# 
   292  0003                     	;# 
   293  0004                     	;# 
   294  0005                     	;# 
   295  0006                     	;# 
   296  0007                     	;# 
   297  000A                     	;# 
   298  000B                     	;# 
   299  000C                     	;# 
   300  000D                     	;# 
   301  000E                     	;# 
   302  000E                     	;# 
   303  000F                     	;# 
   304  0010                     	;# 
   305  0011                     	;# 
   306  0012                     	;# 
   307  0013                     	;# 
   308  0014                     	;# 
   309  0015                     	;# 
   310  0015                     	;# 
   311  0016                     	;# 
   312  0017                     	;# 
   313  0018                     	;# 
   314  0019                     	;# 
   315  001A                     	;# 
   316  001B                     	;# 
   317  001B                     	;# 
   318  001C                     	;# 
   319  001D                     	;# 
   320  001E                     	;# 
   321  001F                     	;# 
   322  0081                     	;# 
   323  0085                     	;# 
   324  0086                     	;# 
   325  0087                     	;# 
   326  008C                     	;# 
   327  008D                     	;# 
   328  008E                     	;# 
   329  0091                     	;# 
   330  0092                     	;# 
   331  0093                     	;# 
   332  0094                     	;# 
   333  0098                     	;# 
   334  0099                     	;# 
   335  009C                     	;# 
   336  009D                     	;# 
   337  009E                     	;# 
   338  009F                     	;# 
   339  010C                     	;# 
   340  010D                     	;# 
   341  010E                     	;# 
   342  010F                     	;# 
   343  018C                     	;# 
   344  018D                     	;# 
   345                           
   346                           	psect	idataCOMMON
   347  0000'                    __pidataCOMMON:	
   348                           
   349                           ;initializer for _putchar_ptr
   350  0000' 3407               	retlw	low (fp__format_putchar-fpbase)
   351                           
   352                           	psect	idataBANK1
   353  0000'                    __pidataBANK1:	
   354                           
   355                           ;initializer for _ser_brg
   356  0000' 341F               	retlw	31
   357                           
   358                           	psect	strings
   359  0000'                    __pstrings:	
   360  0000'                    stringtab:	
   361  0000'                    __stringtab:	
   362  0000'                    stringcode:	
   363                           ;	String table - string pointers are 1 byte each
   364                           
   365  0000'                    stringdir:	
   366  0000' 3000'              	movlw	high stringdir
   367  0001' 008A               	movwf	10
   368  0002' 0804               	movf	4,w
   369  0003' 0A84               	incf	4,f
   370  0004' 0782               	addwf	2,f
   371  0005'                    __stringbase:	
   372  0005' 3400               	retlw	0
   373  0006'                    __end_of__stringtab:	
   374  0006'                    exp@coeff:	
   375  0006' 3400               	retlw	0
   376  0007' 3400               	retlw	0
   377  0008' 3480               	retlw	128
   378  0009' 343F               	retlw	63
   379  000A' 3418               	retlw	24
   380  000B' 3472               	retlw	114
   381  000C' 3431               	retlw	49
   382  000D' 343F               	retlw	63
   383  000E' 34F0               	retlw	240
   384  000F' 34FD               	retlw	253
   385  0010' 3475               	retlw	117
   386  0011' 343E               	retlw	62
   387  0012' 3447               	retlw	71
   388  0013' 3458               	retlw	88
   389  0014' 3463               	retlw	99
   390  0015' 343D               	retlw	61
   391  0016' 3458               	retlw	88
   392  0017' 3495               	retlw	149
   393  0018' 341D               	retlw	29
   394  0019' 343C               	retlw	60
   395  001A' 3482               	retlw	130
   396  001B' 34C4               	retlw	196
   397  001C' 34AE               	retlw	174
   398  001D' 343A               	retlw	58
   399  001E' 34A8               	retlw	168
   400  001F' 3478               	retlw	120
   401  0020' 3421               	retlw	33
   402  0021' 3439               	retlw	57
   403  0022' 34EF               	retlw	239
   404  0023' 3493               	retlw	147
   405  0024' 3480               	retlw	128
   406  0025' 3437               	retlw	55
   407  0026' 34A0               	retlw	160
   408  0027' 3492               	retlw	146
   409  0028' 34A7               	retlw	167
   410  0029' 3435               	retlw	53
   411  002A' 3446               	retlw	70
   412  002B' 3456               	retlw	86
   413  002C' 3415               	retlw	21
   414  002D' 3434               	retlw	52
   415  002E'                    __end_ofexp@coeff:	
   416  002E'                    log@coeff:	
   417  002E' 3400               	retlw	0
   418  002F' 3400               	retlw	0
   419  0030' 3400               	retlw	0
   420  0031' 3400               	retlw	0
   421  0032' 34C4               	retlw	196
   422  0033' 34FF               	retlw	255
   423  0034' 347F               	retlw	127
   424  0035' 343F               	retlw	63
   425  0036' 3480               	retlw	128
   426  0037' 34EF               	retlw	239
   427  0038' 34FF               	retlw	255
   428  0039' 34BE               	retlw	190
   429  003A' 3490               	retlw	144
   430  003B' 34E1               	retlw	225
   431  003C' 34A9               	retlw	169
   432  003D' 343E               	retlw	62
   433  003E' 34EC               	retlw	236
   434  003F' 3482               	retlw	130
   435  0040' 3476               	retlw	118
   436  0041' 34BE               	retlw	190
   437  0042' 3482               	retlw	130
   438  0043' 34AD               	retlw	173
   439  0044' 342B               	retlw	43
   440  0045' 343E               	retlw	62
   441  0046' 340E               	retlw	14
   442  0047' 343C               	retlw	60
   443  0048' 34C3               	retlw	195
   444  0049' 34BD               	retlw	189
   445  004A' 3487               	retlw	135
   446  004B' 34D1               	retlw	209
   447  004C' 3413               	retlw	19
   448  004D' 343D               	retlw	61
   449  004E' 3441               	retlw	65
   450  004F' 3478               	retlw	120
   451  0050' 34D3               	retlw	211
   452  0051' 34BB               	retlw	187
   453  0052'                    __end_oflog@coeff:	
   454  0052'                    STR_8:	
   455  0052' 340D               	retlw	13
   456  0053' 340A               	retlw	10
   457  0054' 3443               	retlw	67	;'C'
   458  0055' 3443               	retlw	67	;'C'
   459  0056' 3461               	retlw	97	;'a'
   460  0057' 346C               	retlw	108	;'l'
   461  0058' 343D               	retlw	61	;'='
   462  0059' 3400               	retlw	0
   463  005A'                    STR_1:	
   464  005A' 342E               	retlw	46	;'.'
   465  005B' 342E               	retlw	46	;'.'
   466  005C' 342E               	retlw	46	;'.'
   467  005D' 340D               	retlw	13
   468  005E' 340A               	retlw	10
   469  005F' 3400               	retlw	0
   470  0060'                    STR_5:	
   471  0060' 340D               	retlw	13
   472  0061' 340A               	retlw	10
   473  0062' 3446               	retlw	70	;'F'
   474  0063' 3431               	retlw	49	;'1'
   475  0064' 343D               	retlw	61	;'='
   476  0065' 3400               	retlw	0
   477  0066'                    STR_6:	
   478  0066' 340D               	retlw	13
   479  0067' 340A               	retlw	10
   480  0068' 3446               	retlw	70	;'F'
   481  0069' 3432               	retlw	50	;'2'
   482  006A' 343D               	retlw	61	;'='
   483  006B' 3400               	retlw	0
   484  006C'                    STR_7:	
   485  006C' 340D               	retlw	13
   486  006D' 340A               	retlw	10
   487  006E' 3446               	retlw	70	;'F'
   488  006F' 3433               	retlw	51	;'3'
   489  0070' 343D               	retlw	61	;'='
   490  0071' 3400               	retlw	0
   491  0072'                    STR_10:	
   492  0072' 3443               	retlw	67	;'C'
   493  0073' 3469               	retlw	105	;'i'
   494  0074' 346E               	retlw	110	;'n'
   495  0075' 343D               	retlw	61	;'='
   496  0076' 3400               	retlw	0
   497  0077'                    STR_4:	
   498  0077' 3476               	retlw	118	;'v'
   499  0078' 3461               	retlw	97	;'a'
   500  0079' 3472               	retlw	114	;'r'
   501  007A' 343D               	retlw	61	;'='
   502  007B' 3400               	retlw	0
   503  005D'                    
   504                           ; #config settings
   505  0000                     
   506                           	psect	nvBANK3
   507  0000'                    __pnvBANK3:	
   508  0000'                    _CCal:	
   509  0000'                    	ds	4
   510  0004'                    _bres:	
   511  0004'                    	ds	2
   512  0006'                    _msecpart:	
   513  0006'                    	ds	2
   514  001A                     _RCREG	set	26
   515  0001                     _TMR0	set	1
   516  0011                     _TMR2	set	17
   517  0019                     _TXREG	set	25
   518  00C4                     _CREN	set	196
   519  005F                     _GIE	set	95
   520  00C1                     _OERR	set	193
   521  005E                     _PEIE	set	94
   522  003B                     _RC3	set	59
   523  003C                     _RC4	set	60
   524  003D                     _RC5	set	61
   525  003F                     _RC7	set	63
   526  0065                     _RCIF	set	101
   527  00C6                     _RX9	set	198
   528  00C7                     _SPEN	set	199
   529  00A5                     _SSPEN	set	165
   530  0090                     _T2CKPS0	set	144
   531  0091                     _T2CKPS1	set	145
   532  005A                     _TMR0IF	set	90
   533  0061                     _TMR2IF	set	97
   534  0092                     _TMR2ON	set	146
   535  0093                     _TOUTPS0	set	147
   536  0094                     _TOUTPS1	set	148
   537  0095                     _TOUTPS2	set	149
   538  0064                     _TXIF	set	100
   539  009C                     _CMCON	set	156
   540  0099                     _SPBRG	set	153
   541  0085                     _TRISA	set	133
   542  0087                     _TRISC	set	135
   543  04C2                     _BRGH	set	1218
   544  04C4                     _SYNC	set	1220
   545  040D                     _T0CS	set	1037
   546  040C                     _T0SE	set	1036
   547  0461                     _TMR2IE	set	1121
   548  0438                     _TRISC0	set	1080
   549  0439                     _TRISC1	set	1081
   550  043A                     _TRISC2	set	1082
   551  043B                     _TRISC3	set	1083
   552  043C                     _TRISC4	set	1084
   553  043D                     _TRISC5	set	1085
   554  043E                     _TRISC6	set	1086
   555  04C6                     _TX9	set	1222
   556  04C5                     _TXEN	set	1221
   557  0464                     _TXIE	set	1124
   558  040F                     _nRBPU	set	1039
   559                           
   560                           	psect	cinit
   561  0000'                    start_initialization:	
   562  0000'                    __initialization:	
   563                           
   564                           ; Clear objects allocated to COMMON
   565  0000' 0180'              	clrf	__pbssCOMMON& (0+127)
   566  0001' 0180'              	clrf	(__pbssCOMMON+1)& (0+127)
   567  0002' 0180'              	clrf	(__pbssCOMMON+2)& (0+127)
   568  0003' 0180'              	clrf	(__pbssCOMMON+3)& (0+127)
   569                           
   570                           ; Clear objects allocated to BANK1
   571  0004' 1683               	bsf	3,5	;RP0=1, select bank1
   572  0005' 1303               	bcf	3,6	;RP1=0, select bank1
   573  0006' 0180'              	clrf	__pbssBANK1& (0+127)
   574                           
   575                           ; Clear objects allocated to BANK3
   576  0007' 1783               	bsf	3,7	;select IRP bank2
   577  0008' 3000'              	movlw	low __pbssBANK3
   578  0009' 0084               	movwf	4
   579  000A' 3000'              	movlw	low (__pbssBANK3+31)
   580  000B' 120A' 118A' 2000' 120A' 118A' 	fcall	clear_ram0
   581                           
   582                           ; Clear objects allocated to BANK2
   583  0010' 3000'              	movlw	low __pbssBANK2
   584  0011' 0084               	movwf	4
   585  0012' 3000'              	movlw	low (__pbssBANK2+32)
   586  0013' 120A' 118A' 2000' 120A' 118A' 	fcall	clear_ram0
   587                           
   588                           ; Initialize objects allocated to BANK1
   589  0018' 120A' 118A' 2000' 120A' 118A' 	fcall	__pidataBANK1	;fetch initializer
   590  001D' 0080'              	movwf	__pdataBANK1& (0+127)
   591                           
   592                           ; Initialize objects allocated to COMMON
   593  001E' 120A' 118A' 2000'  	fcall	__pidataCOMMON	;fetch initializer
   594  0021' 0080'              	movwf	__pdataCOMMON& (0+127)
   595  0022'                    end_of_initialization:	
   596                           ;End of C runtime variable initialization code
   597                           
   598  0022'                    __end_of__initialization:	
   599  0022' 0183               	clrf	3
   600  0023' 120A' 118A' 2800'  	ljmp	_main	;jump to C main() function
   601                           
   602                           	psect	bssCOMMON
   603  0000'                    __pbssCOMMON:	
   604  0000'                    _rxiptr:	
   605  0000'                    	ds	1
   606  0001'                    _rxoptr:	
   607  0001'                    	ds	1
   608  0002'                    _txiptr:	
   609  0002'                    	ds	1
   610  0003'                    _txoptr:	
   611  0003'                    	ds	1
   612                           
   613                           	psect	dataCOMMON
   614  0000'                    __pdataCOMMON:	
   615  0000'                    _putchar_ptr:	
   616  0000'                    	ds	1
   617                           
   618                           	psect	bssBANK1
   619  0000'                    __pbssBANK1:	
   620  0000'                    _ser_tmp:	
   621  0000'                    	ds	1
   622                           
   623                           	psect	dataBANK1
   624  0000'                    __pdataBANK1:	
   625  0000'                    _ser_brg:	
   626  0000'                    	ds	1
   627                           
   628                           	psect	bssBANK3
   629  0000'                    __pbssBANK3:	
   630  0000'                    _F2:	
   631  0000'                    	ds	4
   632  0004'                    _F3:	
   633  0004'                    	ds	4
   634  0008'                    _msecs:	
   635  0008'                    	ds	4
   636  000C'                    _seconds:	
   637  000C'                    	ds	4
   638  0010'                    _timer1of:	
   639  0010'                    	ds	4
   640  0014'                    _blink:	
   641  0014'                    	ds	2
   642  0016'                    _errno:	
   643  0016'                    	ds	2
   644  0018'                    testloop@prev_s:	
   645  0018'                    	ds	2
   646  001A'                    testloop@led:	
   647  001A'                    	ds	1
   648  001B'                    _F1:	
   649  001B'                    	ds	4
   650                           
   651                           	psect	bssBANK2
   652  0000'                    __pbssBANK2:	
   653  0000'                    _rxfifo:	
   654  0000'                    	ds	16
   655  0010'                    _txfifo:	
   656  0010'                    	ds	16
   657                           
   658                           	psect	clrtext
   659  0000'                    clear_ram0:	
   660                           ;	Called with FSR containing the base address, and
   661                           ;	W with the last address+1
   662                           
   663  0000' 0064               	clrwdt	;clear the watchdog before getting into this loop
   664  0001'                    clrloop0:	
   665  0001' 0180               	clrf	0	;clear RAM location pointed to by FSR
   666  0002' 0A84               	incf	4,f	;increment pointer
   667  0003' 0604               	xorwf	4,w	;XOR with final address
   668  0004' 1903               	btfsc	3,2	;have we reached the end yet?
   669  0005' 3400               	retlw	0	;all done for this memory range, return
   670  0006' 0604               	xorwf	4,w	;XOR again to restore value
   671  0007' 2800'              	goto	clrloop0	;do the next byte
   672                           
   673                           	psect	cstackBANK3
   674  0000'                    __pcstackBANK3:	
   675  0000'                    _pow$821:	
   676                           
   677                           ; 4 bytes @ 0x0
   678  0000'                    	ds	4
   679  0004'                    _pow$822:	
   680                           
   681                           ; 4 bytes @ 0x4
   682  0004'                    	ds	4
   683  0008'                    pow@sign:	
   684                           
   685                           ; 1 bytes @ 0x8
   686  0008'                    	ds	1
   687  0009'                    pow@yi:	
   688                           
   689                           ; 4 bytes @ 0x9
   690  0009'                    	ds	4
   691  000D'                    ?_format_double:	
   692  000D'                    format_double@num:	
   693                           ; 0 bytes @ 0xD
   694                           
   695                           
   696                           ; 4 bytes @ 0xD
   697  000D'                    	ds	4
   698  0011'                    _format_double$808:	
   699                           
   700                           ; 4 bytes @ 0x11
   701  0011'                    	ds	4
   702  0015'                    _format_double$809:	
   703                           
   704                           ; 4 bytes @ 0x15
   705  0015'                    	ds	4
   706  0019'                    _format_double$140:	
   707                           
   708                           ; 4 bytes @ 0x19
   709  0019'                    	ds	4
   710  001D'                    format_double@weight:	
   711                           
   712                           ; 4 bytes @ 0x1D
   713  001D'                    	ds	4
   714  0021'                    format_double@digit:	
   715                           
   716                           ; 2 bytes @ 0x21
   717  0021'                    	ds	2
   718  0023'                    format_double@m:	
   719                           
   720                           ; 2 bytes @ 0x23
   721  0023'                    	ds	2
   722  0025'                    _measure_capacitance$810:	
   723                           
   724                           ; 4 bytes @ 0x25
   725  0025'                    	ds	4
   726  0029'                    _measure_capacitance$811:	
   727                           
   728                           ; 4 bytes @ 0x29
   729  0029'                    	ds	4
   730  002D'                    _measure_capacitance$812:	
   731                           
   732                           ; 4 bytes @ 0x2D
   733  002D'                    	ds	4
   734  0031'                    measure_capacitance@unit:	
   735                           
   736                           ; 1 bytes @ 0x31
   737  0031'                    	ds	1
   738  0032'                    measure_capacitance@var:	
   739                           
   740                           ; 2 bytes @ 0x32
   741  0032'                    	ds	2
   742  0034'                    measure_capacitance@Cin:	
   743                           
   744                           ; 4 bytes @ 0x34
   745  0034'                    	ds	4
   746                           
   747                           	psect	cstackBANK1
   748  0000'                    __pcstackBANK1:	
   749  0000'                    ??_eval_poly:	
   750                           
   751                           ; 0 bytes @ 0x0
   752  0000'                    	ds	5
   753  0005'                    eval_poly@res:	
   754                           
   755                           ; 4 bytes @ 0x5
   756  0005'                    	ds	4
   757  0009'                    ?_ldexp:	
   758  0009'                    ?_log:	
   759                           ; 4 bytes @ 0x9
   760                           
   761  0009'                    ldexp@value:	
   762                           ; 4 bytes @ 0x9
   763                           
   764  0009'                    log@x:	
   765                           ; 4 bytes @ 0x9
   766                           
   767                           
   768                           ; 4 bytes @ 0x9
   769  0009'                    	ds	4
   770  000D'                    ?_log10:	
   771  000D'                    ldexp@newexp:	
   772                           ; 4 bytes @ 0xD
   773                           
   774  000D'                    log10@x:	
   775                           ; 2 bytes @ 0xD
   776                           
   777                           
   778                           ; 4 bytes @ 0xD
   779  000D'                    	ds	2
   780  000F'                    _ldexp$498:	
   781                           
   782                           ; 4 bytes @ 0xF
   783  000F'                    	ds	2
   784  0011'                    _log10$820:	
   785                           
   786                           ; 4 bytes @ 0x11
   787  0011'                    	ds	4
   788  0015'                    ?___fltol:	
   789  0015'                    ___fltol@f1:	
   790                           ; 4 bytes @ 0x15
   791                           
   792                           
   793                           ; 4 bytes @ 0x15
   794  0015'                    	ds	4
   795  0019'                    ??___fltol:	
   796                           
   797                           ; 0 bytes @ 0x19
   798  0019'                    	ds	5
   799  001E'                    ___fltol@sign1:	
   800                           
   801                           ; 1 bytes @ 0x1E
   802  001E'                    	ds	1
   803  001F'                    ___fltol@exp1:	
   804                           
   805                           ; 1 bytes @ 0x1F
   806  001F'                    	ds	1
   807  0020'                    ??_measure_inductance:	
   808  0020'                    ?___altofl:	
   809                           ; 0 bytes @ 0x20
   810                           
   811  0020'                    ___altofl@c:	
   812                           ; 4 bytes @ 0x20
   813                           
   814                           
   815                           ; 4 bytes @ 0x20
   816  0020'                    	ds	1
   817  0021'                    measure_inductance@numerator:	
   818                           
   819                           ; 4 bytes @ 0x21
   820  0021'                    	ds	3
   821  0024'                    ??___altofl:	
   822                           
   823                           ; 0 bytes @ 0x24
   824  0024'                    	ds	1
   825  0025'                    measure_inductance@denominator:	
   826                           
   827                           ; 4 bytes @ 0x25
   828  0025'                    	ds	1
   829  0026'                    ___altofl@sign:	
   830                           
   831                           ; 1 bytes @ 0x26
   832  0026'                    	ds	1
   833  0027'                    ?_floor:	
   834  0027'                    floor@x:	
   835                           ; 4 bytes @ 0x27
   836                           
   837                           
   838                           ; 4 bytes @ 0x27
   839  0027'                    	ds	2
   840  0029'                    _measure_inductance$813:	
   841                           
   842                           ; 4 bytes @ 0x29
   843  0029'                    	ds	2
   844  002B'                    ??_floor:	
   845                           
   846                           ; 0 bytes @ 0x2B
   847  002B'                    	ds	1
   848  002C'                    floor@i:	
   849                           
   850                           ; 4 bytes @ 0x2C
   851  002C'                    	ds	1
   852  002D'                    _measure_inductance$817:	
   853                           
   854                           ; 4 bytes @ 0x2D
   855  002D'                    	ds	3
   856  0030'                    floor@expon:	
   857                           
   858                           ; 2 bytes @ 0x30
   859  0030'                    	ds	1
   860  0031'                    _measure_inductance$818:	
   861                           
   862                           ; 4 bytes @ 0x31
   863  0031'                    	ds	1
   864  0032'                    ?_exp:	
   865  0032'                    exp@x:	
   866                           ; 4 bytes @ 0x32
   867                           
   868                           
   869                           ; 4 bytes @ 0x32
   870  0032'                    	ds	3
   871  0035'                    _measure_inductance$819:	
   872                           
   873                           ; 4 bytes @ 0x35
   874  0035'                    	ds	1
   875  0036'                    ??_exp:	
   876                           
   877                           ; 0 bytes @ 0x36
   878  0036'                    	ds	1
   879  0037'                    _exp$823:	
   880                           
   881                           ; 4 bytes @ 0x37
   882  0037'                    	ds	2
   883  0039'                    measure_inductance@unit:	
   884                           
   885                           ; 1 bytes @ 0x39
   886  0039'                    	ds	1
   887  003A'                    _measure_inductance$814:	
   888                           
   889                           ; 4 bytes @ 0x3A
   890  003A'                    	ds	1
   891  003B'                    _exp$592:	
   892                           
   893                           ; 4 bytes @ 0x3B
   894  003B'                    	ds	3
   895  003E'                    _measure_inductance$815:	
   896                           
   897                           ; 4 bytes @ 0x3E
   898  003E'                    	ds	1
   899  003F'                    exp@exponent:	
   900                           
   901                           ; 2 bytes @ 0x3F
   902  003F'                    	ds	2
   903  0041'                    exp@sign:	
   904                           
   905                           ; 1 bytes @ 0x41
   906  0041'                    	ds	1
   907  0042'                    ?_pow:	
   908  0042'                    pow@x:	
   909                           ; 4 bytes @ 0x42
   910                           
   911  0042'                    _measure_inductance$816:	
   912                           ; 4 bytes @ 0x42
   913                           
   914                           
   915                           ; 4 bytes @ 0x42
   916  0042'                    	ds	4
   917  0046'                    measure_inductance@var:	
   918  0046'                    pow@y:	
   919                           ; 2 bytes @ 0x46
   920                           
   921                           
   922                           ; 4 bytes @ 0x46
   923  0046'                    	ds	2
   924  0048'                    measure_inductance@Lin:	
   925                           
   926                           ; 4 bytes @ 0x48
   927  0048'                    	ds	2
   928  004A'                    ??_pow:	
   929                           
   930                           ; 0 bytes @ 0x4A
   931  004A'                    	ds	1
   932  004B'                    ??_format_double:	
   933                           
   934                           ; 0 bytes @ 0x4B
   935  004B'                    	ds	1
   936  004C'                    ??_measure_capacitance:	
   937                           
   938                           ; 0 bytes @ 0x4C
   939  004C'                    	ds	1
   940  004D'                    ??_main:	
   941                           
   942                           ; 0 bytes @ 0x4D
   943  004D'                    	ds	1
   944                           
   945                           	psect	cstackCOMMON
   946  0000'                    __pcstackCOMMON:	
   947  0000'                    ?_calibrate:	
   948  0000'                    ?_measure_capacitance:	
   949                           ; 0 bytes @ 0x0
   950                           
   951  0000'                    ?_measure_inductance:	
   952                           ; 0 bytes @ 0x0
   953                           
   954  0000'                    ?_print_unit:	
   955                           ; 0 bytes @ 0x0
   956                           
   957  0000'                    ?_indicator:	
   958                           ; 0 bytes @ 0x0
   959                           
   960  0000'                    ?_ser_puts:	
   961                           ; 0 bytes @ 0x0
   962                           
   963  0000'                    ?_ser_init:	
   964                           ; 0 bytes @ 0x0
   965                           
   966  0000'                    ?_timer2_init:	
   967                           ; 0 bytes @ 0x0
   968                           
   969  0000'                    ??_isr:	
   970                           ; 0 bytes @ 0x0
   971                           
   972  0000'                    ?_main:	
   973                           ; 0 bytes @ 0x0
   974                           
   975  0000'                    ?_isr:	
   976                           ; 0 bytes @ 0x0
   977                           
   978  0000'                    print_unit@unit:	
   979                           ; 2 bytes @ 0x0
   980                           
   981  0000'                    indicator@indicate:	
   982                           ; 1 bytes @ 0x0
   983                           
   984                           
   985                           ; 1 bytes @ 0x0
   986  0000'                    	ds	5
   987                           
   988                           	psect	cstackBANK0
   989  0000'                    __pcstackBANK0:	
   990  0000'                    ??_print_unit:	
   991  0000'                    ?_print_reading:	
   992                           ; 0 bytes @ 0x0
   993                           
   994  0000'                    ??_indicator:	
   995                           ; 0 bytes @ 0x0
   996                           
   997  0000'                    ??_ser_init:	
   998                           ; 0 bytes @ 0x0
   999                           
  1000  0000'                    ??_timer2_init:	
  1001                           ; 0 bytes @ 0x0
  1002                           
  1003  0000'                    ?___flge:	
  1004                           ; 0 bytes @ 0x0
  1005                           
  1006  0000'                    ?_measure_freq:	
  1007                           ; 1 bit 
  1008                           
  1009  0000'                    ?___wmul:	
  1010                           ; 2 bytes @ 0x0
  1011                           
  1012  0000'                    ?___lwdiv:	
  1013                           ; 2 bytes @ 0x0
  1014                           
  1015  0000'                    ?___lwmod:	
  1016                           ; 2 bytes @ 0x0
  1017                           
  1018  0000'                    ?___flpack:	
  1019                           ; 2 bytes @ 0x0
  1020                           
  1021  0000'                    ?_frexp:	
  1022                           ; 4 bytes @ 0x0
  1023                           
  1024  0000'                    print_reading@measurement:	
  1025                           ; 4 bytes @ 0x0
  1026                           
  1027  0000'                    ___wmul@multiplier:	
  1028                           ; 2 bytes @ 0x0
  1029                           
  1030  0000'                    ___lwdiv@divisor:	
  1031                           ; 2 bytes @ 0x0
  1032                           
  1033  0000'                    ___lwmod@divisor:	
  1034                           ; 2 bytes @ 0x0
  1035                           
  1036  0000'                    ___flpack@arg:	
  1037                           ; 2 bytes @ 0x0
  1038                           
  1039  0000'                    ___flge@ff1:	
  1040                           ; 4 bytes @ 0x0
  1041                           
  1042  0000'                    frexp@value:	
  1043                           ; 4 bytes @ 0x0
  1044                           
  1045                           
  1046                           ; 4 bytes @ 0x0
  1047  0000'                    	ds	1
  1048  0001'                    ??_ser_putch:	
  1049  0001'                    timer2_init@ps_mode:	
  1050                           ; 0 bytes @ 0x1
  1051                           
  1052                           
  1053                           ; 1 bytes @ 0x1
  1054  0001'                    	ds	1
  1055  0002'                    ??_print_reading:	
  1056  0002'                    ??_measure_freq:	
  1057                           ; 0 bytes @ 0x2
  1058                           
  1059  0002'                    timer2_init@ps:	
  1060                           ; 0 bytes @ 0x2
  1061                           
  1062  0002'                    ___wmul@multiplicand:	
  1063                           ; 1 bytes @ 0x2
  1064                           
  1065  0002'                    ___lwdiv@dividend:	
  1066                           ; 2 bytes @ 0x2
  1067                           
  1068  0002'                    ___lwmod@dividend:	
  1069                           ; 2 bytes @ 0x2
  1070                           
  1071                           
  1072                           ; 2 bytes @ 0x2
  1073  0002'                    	ds	1
  1074  0003'                    ??_format_putchar:	
  1075  0003'                    timer2_init@postscaler:	
  1076                           ; 0 bytes @ 0x3
  1077                           
  1078                           
  1079                           ; 1 bytes @ 0x3
  1080  0003'                    	ds	1
  1081  0004'                    ?_ser_putch:	
  1082  0004'                    ?_format_putchar:	
  1083                           ; 0 bytes @ 0x4
  1084                           
  1085  0004'                    ?_output_putch:	
  1086                           ; 0 bytes @ 0x4
  1087                           
  1088  0004'                    ??___wmul:	
  1089                           ; 0 bytes @ 0x4
  1090                           
  1091  0004'                    ??___lwdiv:	
  1092                           ; 0 bytes @ 0x4
  1093                           
  1094  0004'                    ??___lwmod:	
  1095                           ; 0 bytes @ 0x4
  1096                           
  1097  0004'                    ser_putch@c:	
  1098                           ; 0 bytes @ 0x4
  1099                           
  1100  0004'                    format_putchar@c:	
  1101                           ; 1 bytes @ 0x4
  1102                           
  1103  0004'                    output_putch@c:	
  1104                           ; 1 bytes @ 0x4
  1105                           
  1106  0004'                    ___flpack@exp:	
  1107                           ; 1 bytes @ 0x4
  1108                           
  1109  0004'                    frexp@eptr:	
  1110                           ; 1 bytes @ 0x4
  1111                           
  1112  0004'                    ___wmul@product:	
  1113                           ; 1 bytes @ 0x4
  1114                           
  1115  0004'                    ___flge@ff2:	
  1116                           ; 2 bytes @ 0x4
  1117                           
  1118                           
  1119                           ; 4 bytes @ 0x4
  1120  0004'                    	ds	1
  1121  0005'                    ??_frexp:	
  1122  0005'                    ??_output_putch:	
  1123                           ; 0 bytes @ 0x5
  1124                           
  1125  0005'                    ___flpack@sign:	
  1126                           ; 0 bytes @ 0x5
  1127                           
  1128  0005'                    ___lwdiv@counter:	
  1129                           ; 1 bytes @ 0x5
  1130                           
  1131  0005'                    ___lwmod@counter:	
  1132                           ; 1 bytes @ 0x5
  1133                           
  1134                           
  1135                           ; 1 bytes @ 0x5
  1136  0005'                    	ds	1
  1137  0006'                    ?_delay10ms:	
  1138  0006'                    ??___flpack:	
  1139                           ; 0 bytes @ 0x6
  1140                           
  1141  0006'                    ??_ser_puts:	
  1142                           ; 0 bytes @ 0x6
  1143                           
  1144  0006'                    delay10ms@period_10ms:	
  1145                           ; 0 bytes @ 0x6
  1146                           
  1147  0006'                    ___lwdiv@quotient:	
  1148                           ; 2 bytes @ 0x6
  1149                           
  1150                           
  1151                           ; 2 bytes @ 0x6
  1152  0006'                    	ds	1
  1153  0007'                    ser_puts@s:	
  1154                           
  1155                           ; 1 bytes @ 0x7
  1156  0007'                    	ds	1
  1157  0008'                    ??_delay10ms:	
  1158  0008'                    ?_format_number:	
  1159                           ; 0 bytes @ 0x8
  1160                           
  1161  0008'                    ??___flge:	
  1162                           ; 0 bytes @ 0x8
  1163                           
  1164  0008'                    measure_freq@prev:	
  1165                           ; 0 bytes @ 0x8
  1166                           
  1167  0008'                    format_number@n:	
  1168                           ; 1 bytes @ 0x8
  1169                           
  1170                           
  1171                           ; 2 bytes @ 0x8
  1172  0008'                    	ds	1
  1173  0009'                    measure_freq@i:	
  1174                           
  1175                           ; 1 bytes @ 0x9
  1176  0009'                    	ds	1
  1177  000A'                    ?___awtofl:	
  1178  000A'                    ?___fldiv:	
  1179                           ; 4 bytes @ 0xA
  1180                           
  1181  000A'                    ?___lltofl:	
  1182                           ; 4 bytes @ 0xA
  1183                           
  1184  000A'                    format_number@base:	
  1185                           ; 4 bytes @ 0xA
  1186                           
  1187  000A'                    measure_freq@count:	
  1188                           ; 1 bytes @ 0xA
  1189                           
  1190  000A'                    ___awtofl@c:	
  1191                           ; 2 bytes @ 0xA
  1192                           
  1193  000A'                    ___fldiv@f2:	
  1194                           ; 2 bytes @ 0xA
  1195                           
  1196  000A'                    ___lltofl@c:	
  1197                           ; 4 bytes @ 0xA
  1198                           
  1199                           
  1200                           ; 4 bytes @ 0xA
  1201  000A'                    	ds	1
  1202  000B'                    format_number@pad:	
  1203                           
  1204                           ; 1 bytes @ 0xB
  1205  000B'                    	ds	1
  1206  000C'                    ??_format_number:	
  1207  000C'                    ?___lwtofl:	
  1208                           ; 0 bytes @ 0xC
  1209                           
  1210  000C'                    ___lwtofl@c:	
  1211                           ; 4 bytes @ 0xC
  1212                           
  1213  000C'                    delay10ms@ms:	
  1214                           ; 2 bytes @ 0xC
  1215                           
  1216                           
  1217                           ; 4 bytes @ 0xC
  1218  000C'                    	ds	2
  1219  000E'                    ??___awtofl:	
  1220  000E'                    ??___lltofl:	
  1221                           ; 0 bytes @ 0xE
  1222                           
  1223  000E'                    ___fldiv@f1:	
  1224                           ; 0 bytes @ 0xE
  1225                           
  1226                           
  1227                           ; 4 bytes @ 0xE
  1228  000E'                    	ds	1
  1229  000F'                    format_number@buf:	
  1230                           
  1231                           ; 32 bytes @ 0xF
  1232  000F'                    	ds	1
  1233  0010'                    ??___lwtofl:	
  1234  0010'                    delay10ms@run:	
  1235                           ; 0 bytes @ 0x10
  1236                           
  1237  0010'                    ___awtofl@sign:	
  1238                           ; 1 bytes @ 0x10
  1239                           
  1240                           
  1241                           ; 1 bytes @ 0x10
  1242  0010'                    	ds	1
  1243  0011'                    ??_calibrate:	
  1244                           
  1245                           ; 0 bytes @ 0x11
  1246  0011'                    	ds	1
  1247  0012'                    ??___fldiv:	
  1248                           
  1249                           ; 0 bytes @ 0x12
  1250  0012'                    	ds	5
  1251  0017'                    ___fldiv@f3:	
  1252                           
  1253                           ; 4 bytes @ 0x17
  1254  0017'                    	ds	4
  1255  001B'                    ___fldiv@cntr:	
  1256                           
  1257                           ; 1 bytes @ 0x1B
  1258  001B'                    	ds	1
  1259  001C'                    ___fldiv@exp:	
  1260                           
  1261                           ; 1 bytes @ 0x1C
  1262  001C'                    	ds	1
  1263  001D'                    ___fldiv@sign:	
  1264                           
  1265                           ; 1 bytes @ 0x1D
  1266  001D'                    	ds	1
  1267  001E'                    ?___flmul:	
  1268  001E'                    ___flmul@f1:	
  1269                           ; 4 bytes @ 0x1E
  1270                           
  1271                           
  1272                           ; 4 bytes @ 0x1E
  1273  001E'                    	ds	4
  1274  0022'                    ___flmul@f2:	
  1275                           
  1276                           ; 4 bytes @ 0x22
  1277  0022'                    	ds	4
  1278  0026'                    ??___flmul:	
  1279                           
  1280                           ; 0 bytes @ 0x26
  1281  0026'                    	ds	5
  1282  002B'                    ___flmul@exp:	
  1283                           
  1284                           ; 1 bytes @ 0x2B
  1285  002B'                    	ds	1
  1286  002C'                    ___flmul@f3_as_product:	
  1287                           
  1288                           ; 4 bytes @ 0x2C
  1289  002C'                    	ds	3
  1290  002F'                    _format_number$126:	
  1291                           
  1292                           ; 2 bytes @ 0x2F
  1293  002F'                    	ds	1
  1294  0030'                    ___flmul@cntr:	
  1295                           
  1296                           ; 1 bytes @ 0x30
  1297  0030'                    	ds	1
  1298  0031'                    format_number@padchar:	
  1299  0031'                    ___flmul@sign:	
  1300                           ; 1 bytes @ 0x31
  1301                           
  1302                           
  1303                           ; 1 bytes @ 0x31
  1304  0031'                    	ds	1
  1305  0032'                    ?___flneg:	
  1306  0032'                    format_number@di:	
  1307                           ; 4 bytes @ 0x32
  1308                           
  1309  0032'                    ___flneg@f1:	
  1310                           ; 1 bytes @ 0x32
  1311                           
  1312                           
  1313                           ; 4 bytes @ 0x32
  1314  0032'                    	ds	1
  1315  0033'                    format_number@i:	
  1316                           
  1317                           ; 1 bytes @ 0x33
  1318  0033'                    	ds	1
  1319  0034'                    ?_format_xint32:	
  1320  0034'                    format_xint32@x:	
  1321                           ; 0 bytes @ 0x34
  1322                           
  1323                           
  1324                           ; 4 bytes @ 0x34
  1325  0034'                    	ds	2
  1326  0036'                    ??___flneg:	
  1327  0036'                    ?___fladd:	
  1328                           ; 0 bytes @ 0x36
  1329                           
  1330  0036'                    ___fladd@f1:	
  1331                           ; 4 bytes @ 0x36
  1332                           
  1333                           
  1334                           ; 4 bytes @ 0x36
  1335  0036'                    	ds	2
  1336  0038'                    ??_format_xint32:	
  1337                           
  1338                           ; 0 bytes @ 0x38
  1339  0038'                    	ds	2
  1340  003A'                    ___fladd@f2:	
  1341                           
  1342                           ; 4 bytes @ 0x3A
  1343  003A'                    	ds	4
  1344  003E'                    ??___fladd:	
  1345                           
  1346                           ; 0 bytes @ 0x3E
  1347  003E'                    	ds	5
  1348  0043'                    ___fladd@sign:	
  1349                           
  1350                           ; 1 bytes @ 0x43
  1351  0043'                    	ds	1
  1352  0044'                    ___fladd@exp2:	
  1353                           
  1354                           ; 1 bytes @ 0x44
  1355  0044'                    	ds	1
  1356  0045'                    ___fladd@exp1:	
  1357                           
  1358                           ; 1 bytes @ 0x45
  1359  0045'                    	ds	1
  1360  0046'                    ?_eval_poly:	
  1361  0046'                    ?___flsub:	
  1362                           ; 4 bytes @ 0x46
  1363                           
  1364  0046'                    ___flsub@f2:	
  1365                           ; 4 bytes @ 0x46
  1366                           
  1367  0046'                    eval_poly@x:	
  1368                           ; 4 bytes @ 0x46
  1369                           
  1370                           
  1371                           ; 4 bytes @ 0x46
  1372  0046'                    	ds	4
  1373  004A'                    eval_poly@d:	
  1374  004A'                    ___flsub@f1:	
  1375                           ; 1 bytes @ 0x4A
  1376                           
  1377                           
  1378                           ; 4 bytes @ 0x4A
  1379  004A'                    	ds	1
  1380  004B'                    eval_poly@n:	
  1381                           
  1382                           ; 2 bytes @ 0x4B
  1383  004B'                    	ds	2
  1384  004D'                    ??_ldexp:	
  1385  004D'                    ??_log:	
  1386                           ; 0 bytes @ 0x4D
  1387                           
  1388                           
  1389                           ; 0 bytes @ 0x4D
  1390  004D'                    	ds	1
  1391  004E'                    ??___flsub:	
  1392  004E'                    log@exponent:	
  1393                           ; 0 bytes @ 0x4E
  1394                           
  1395                           
  1396                           ; 2 bytes @ 0x4E
  1397  004E'                    	ds	2
  1398  0050'                    ??_log10:	
  1399                           
  1400                           	psect	maintext
  1401  0000'                    __pmaintext:	
  1402                           ; 0 bytes @ 0x50
  1403 ;;
  1404 ;;Main: autosize = 0, tempsize = 1, incstack = 0, save=0
  1405 ;;
  1406 ;; *************** function _main *****************
  1407 ;; Defined at:
  1408 ;;		line 115 in file "../../../src/LC-meter.c"
  1409 ;; Parameters:    Size  Location     Type
  1410 ;;		None
  1411 ;; Auto vars:     Size  Location     Type
  1412 ;;		None
  1413 ;; Return value:  Size  Location     Type
  1414 ;;		None               void
  1415 ;; Registers used:
  1416 ;;		wreg, fsr0l, fsr0h, status,2, status,0, btemp+1, pclath, cstack
  1417 ;; Tracked objects:
  1418 ;;		On entry : B00/0
  1419 ;;		On exit  : 0/0
  1420 ;;		Unchanged: 0/0
  1421 ;; Data sizes:     COMMON   BANK0   BANK1   BANK3   BANK2
  1422 ;;      Params:         0       0       0       0       0
  1423 ;;      Locals:         0       0       0       0       0
  1424 ;;      Temps:          0       0       1       0       0
  1425 ;;      Totals:         0       0       1       0       0
  1426 ;;Total ram usage:        1 bytes
  1427 ;; Hardware stack levels required when called:    8
  1428 ;; This function calls:
  1429 ;;		_calibrate
  1430 ;;		_delay10ms
  1431 ;;		_indicator
  1432 ;;		_measure_capacitance
  1433 ;;		_measure_inductance
  1434 ;;		_ser_init
  1435 ;;		_ser_puts
  1436 ;;		_timer2_init
  1437 ;; This function is called by:
  1438 ;;		Startup code after reset
  1439 ;; This function uses a non-reentrant model
  1440 ;;
  1441                           
  1442                           
  1443                           ;psect for function _main
  1444  0000'                    _main:	
  1445                           
  1446                           ;LC-meter.c: 116: bres = msecpart = msecs = seconds = 0;
  1447                           
  1448                           ;incstack = 0
  1449                           ; Regs used in _main: [wreg-fsr0h+status,2+status,0+btemp+1+pclath+cstack]
  1450  0000' 3000               	movlw	0
  1451  0001' 1683               	bsf	3,5	;RP0=1, select bank3
  1452  0002' 1703               	bsf	3,6	;RP1=1, select bank3
  1453  0003' 0080'              	movwf	(_seconds+3)^(0+384)	;volatile
  1454  0004' 3000               	movlw	0
  1455  0005' 0080'              	movwf	(_seconds+2)^(0+384)	;volatile
  1456  0006' 3000               	movlw	0
  1457  0007' 0080'              	movwf	(_seconds+1)^(0+384)	;volatile
  1458  0008' 3000               	movlw	0
  1459  0009' 0080'              	movwf	_seconds^(0+384)	;volatile
  1460  000A' 0800'              	movf	(_seconds+3)^(0+384),w	;volatile
  1461  000B' 0080'              	movwf	(_msecs+3)^(0+384)	;volatile
  1462  000C' 0800'              	movf	(_seconds+2)^(0+384),w	;volatile
  1463  000D' 0080'              	movwf	(_msecs+2)^(0+384)	;volatile
  1464  000E' 0800'              	movf	(_seconds+1)^(0+384),w	;volatile
  1465  000F' 0080'              	movwf	(_msecs+1)^(0+384)	;volatile
  1466  0010' 0800'              	movf	_seconds^(0+384),w	;volatile
  1467  0011' 0080'              	movwf	_msecs^(0+384)	;volatile
  1468  0012' 0801'              	movf	(_msecs^(0+384)+1),w	;volatile
  1469  0013' 0080'              	movwf	(_msecpart+1)^(0+384)	;volatile
  1470  0014' 0800'              	movf	_msecs^(0+384),w	;volatile
  1471  0015' 0080'              	movwf	_msecpart^(0+384)	;volatile
  1472  0016' 0800'              	movf	(_msecpart+1)^(0+384),w	;volatile
  1473  0017' 0080'              	movwf	(_bres+1)^(0+384)	;volatile
  1474  0018' 0800'              	movf	_msecpart^(0+384),w	;volatile
  1475  0019' 0080'              	movwf	_bres^(0+384)	;volatile
  1476                           
  1477                           ;LC-meter.c: 118: CCal = 1000;
  1478  001A' 3044               	movlw	68
  1479  001B' 0080'              	movwf	(_CCal+3)^(0+384)
  1480  001C' 307A               	movlw	122
  1481  001D' 0080'              	movwf	(_CCal+2)^(0+384)
  1482  001E' 3000               	movlw	0
  1483  001F' 0080'              	movwf	(_CCal+1)^(0+384)
  1484  0020' 3000               	movlw	0
  1485  0021' 0080'              	movwf	_CCal^(0+384)
  1486                           
  1487                           ;LC-meter.c: 125: CMCON = 0b00000101;
  1488  0022' 3005               	movlw	5
  1489  0023' 1683               	bsf	3,5	;RP0=1, select bank1
  1490  0024' 1303               	bcf	3,6	;RP1=0, select bank1
  1491  0025' 009C               	movwf	28	;volatile
  1492                           
  1493                           ;LC-meter.c: 127: TRISA = 0b11001111;
  1494  0026' 30CF               	movlw	207
  1495  0027' 0085               	movwf	5	;volatile
  1496                           
  1497                           ;LC-meter.c: 129: T0CS = 1;
  1498  0028' 1681               	bsf	1,5	;volatile
  1499                           
  1500                           ;LC-meter.c: 130: T0SE = 1;
  1501  0029' 1601               	bsf	1,4	;volatile
  1502                           
  1503                           ;LC-meter.c: 141: nRBPU = 0;
  1504  002A' 1381               	bcf	1,7	;volatile
  1505                           
  1506                           ;LC-meter.c: 144: TRISC3 = 0;
  1507  002B' 1187               	bcf	7,3	;volatile
  1508                           
  1509                           ;LC-meter.c: 145: RC3 = ((1) == 0);
  1510  002C' 1283               	bcf	3,5	;RP0=0, select bank0
  1511  002D' 1303               	bcf	3,6	;RP1=0, select bank0
  1512  002E' 1187               	bcf	7,3	;volatile
  1513                           
  1514                           ;LC-meter.c: 147: SSPEN = 0;
  1515  002F' 1294               	bcf	20,5	;volatile
  1516                           
  1517                           ;LC-meter.c: 152: timer2_init(0b000 | 0x80);
  1518  0030' 3080               	movlw	128
  1519  0031' 120A' 118A' 2000' 120A' 118A' 	fcall	_timer2_init
  1520                           
  1521                           ;LC-meter.c: 157: TRISC1 = 0;
  1522  0036' 1683               	bsf	3,5	;RP0=1, select bank1
  1523  0037' 1303               	bcf	3,6	;RP1=0, select bank1
  1524  0038' 1087               	bcf	7,1	;volatile
  1525                           
  1526                           ;LC-meter.c: 160: TRISC3 = 0;
  1527  0039' 1187               	bcf	7,3	;volatile
  1528                           
  1529                           ;LC-meter.c: 162: TRISC0 = 1;
  1530  003A' 1407               	bsf	7,0	;volatile
  1531                           
  1532                           ;LC-meter.c: 163: TRISC2 = 1;
  1533  003B' 1507               	bsf	7,2	;volatile
  1534                           
  1535                           ;LC-meter.c: 173: TRISC4 = 1;
  1536  003C' 1607               	bsf	7,4	;volatile
  1537                           
  1538                           ;LC-meter.c: 174: TRISC5 = 0;
  1539  003D' 1287               	bcf	7,5	;volatile
  1540                           
  1541                           ;LC-meter.c: 176: RC5 = 0;
  1542  003E' 1283               	bcf	3,5	;RP0=0, select bank0
  1543  003F' 1303               	bcf	3,6	;RP1=0, select bank0
  1544  0040' 1287               	bcf	7,5	;volatile
  1545                           
  1546                           ;LC-meter.c: 177: delay10ms(50);
  1547  0041' 3032               	movlw	50
  1548  0042' 0086'              	movwf	delay10ms@period_10ms
  1549  0043' 3000               	movlw	0
  1550  0044' 0087'              	movwf	delay10ms@period_10ms+1
  1551  0045' 120A' 118A' 2000' 120A' 118A' 	fcall	_delay10ms
  1552                           
  1553                           ;LC-meter.c: 178: RC5 = 1;
  1554  004A' 1283               	bcf	3,5	;RP0=0, select bank0
  1555  004B' 1303               	bcf	3,6	;RP1=0, select bank0
  1556  004C' 1687               	bsf	7,5	;volatile
  1557                           
  1558                           ;LC-meter.c: 179: delay10ms(50);
  1559  004D' 3032               	movlw	50
  1560  004E' 0086'              	movwf	delay10ms@period_10ms
  1561  004F' 3000               	movlw	0
  1562  0050' 0087'              	movwf	delay10ms@period_10ms+1
  1563  0051' 120A' 118A' 2000' 120A' 118A' 	fcall	_delay10ms
  1564                           
  1565                           ;LC-meter.c: 180: RC5 = 0;
  1566  0056' 1283               	bcf	3,5	;RP0=0, select bank0
  1567  0057' 1303               	bcf	3,6	;RP1=0, select bank0
  1568  0058' 1287               	bcf	7,5	;volatile
  1569                           
  1570                           ;LC-meter.c: 181: delay10ms(50);
  1571  0059' 3032               	movlw	50
  1572  005A' 0086'              	movwf	delay10ms@period_10ms
  1573  005B' 3000               	movlw	0
  1574  005C' 0087'              	movwf	delay10ms@period_10ms+1
  1575  005D' 120A' 118A' 2000' 120A' 118A' 	fcall	_delay10ms
  1576                           
  1577                           ;LC-meter.c: 182: RC5 = 1;
  1578  0062' 1283               	bcf	3,5	;RP0=0, select bank0
  1579  0063' 1303               	bcf	3,6	;RP1=0, select bank0
  1580  0064' 1687               	bsf	7,5	;volatile
  1581                           
  1582                           ;LC-meter.c: 183: delay10ms(50);
  1583  0065' 3032               	movlw	50
  1584  0066' 0086'              	movwf	delay10ms@period_10ms
  1585  0067' 3000               	movlw	0
  1586  0068' 0087'              	movwf	delay10ms@period_10ms+1
  1587  0069' 120A' 118A' 2000' 120A' 118A' 	fcall	_delay10ms
  1588                           
  1589                           ;LC-meter.c: 184: RC5 = 0;
  1590  006E' 1283               	bcf	3,5	;RP0=0, select bank0
  1591  006F' 1303               	bcf	3,6	;RP1=0, select bank0
  1592  0070' 1287               	bcf	7,5	;volatile
  1593                           
  1594                           ;LC-meter.c: 187: ser_init();
  1595  0071' 120A' 118A' 2000' 120A' 118A' 	fcall	_ser_init
  1596                           
  1597                           ;LC-meter.c: 192: TRISC &= ~0b01000000;
  1598  0076' 30BF               	movlw	191
  1599  0077' 1683               	bsf	3,5	;RP0=1, select bank1
  1600  0078' 1303               	bcf	3,6	;RP1=0, select bank1
  1601  0079' 0080'              	movwf	??_main^(0+128)
  1602  007A' 0800'              	movf	??_main^(0+128),w
  1603  007B' 0587               	andwf	7,f	;volatile
  1604                           
  1605                           ;LC-meter.c: 194: PEIE = 1;
  1606  007C' 170B               	bsf	11,6	;volatile
  1607                           
  1608                           ;LC-meter.c: 195: GIE = 1;
  1609  007D' 178B               	bsf	11,7	;volatile
  1610                           
  1611                           ;LC-meter.c: 214: delay10ms(200);
  1612  007E' 30C8               	movlw	200
  1613  007F' 1283               	bcf	3,5	;RP0=0, select bank0
  1614  0080' 1303               	bcf	3,6	;RP1=0, select bank0
  1615  0081' 0086'              	movwf	delay10ms@period_10ms
  1616  0082' 3000               	movlw	0
  1617  0083' 0087'              	movwf	delay10ms@period_10ms+1
  1618  0084' 120A' 118A' 2000' 120A' 118A' 	fcall	_delay10ms
  1619                           
  1620                           ;LC-meter.c: 217: calibrate();
  1621  0089' 120A' 118A' 2000' 120A' 118A' 	fcall	_calibrate
  1622  008E'                    l4364:	
  1623                           ;LC-meter.c: 228: for(;;) {
  1624                           
  1625                           
  1626                           ;LC-meter.c: 230: ser_puts("...\r\n");
  1627  008E' 3055               	movlw	(low ((STR_1-__stringbase)| (0+32768)))& (0+255)
  1628  008F' 120A' 118A' 2000' 120A' 118A' 	fcall	_ser_puts
  1629                           
  1630                           ;LC-meter.c: 231: if(RC4)
  1631  0094' 1283               	bcf	3,5	;RP0=0, select bank0
  1632  0095' 1303               	bcf	3,6	;RP1=0, select bank0
  1633  0096' 1E07               	btfss	7,4	;volatile
  1634  0097' 2800'              	goto	l4370
  1635                           
  1636                           ;LC-meter.c: 232: measure_capacitance();
  1637  0098' 120A' 118A' 2000' 120A' 118A' 	fcall	_measure_capacitance
  1638  009D' 2800'              	goto	l4372
  1639  009E'                    l4370:	
  1640                           
  1641                           ;LC-meter.c: 233: else
  1642                           ;LC-meter.c: 234: measure_inductance();
  1643  009E' 120A' 118A' 2000' 120A' 118A' 	fcall	_measure_inductance
  1644  00A3'                    l4372:	
  1645                           
  1646                           ;LC-meter.c: 236: indicator(1);
  1647  00A3' 3001               	movlw	1
  1648  00A4' 120A' 118A' 2000' 120A' 118A' 	fcall	_indicator
  1649                           
  1650                           ;LC-meter.c: 237: delay10ms(30);
  1651  00A9' 301E               	movlw	30
  1652  00AA' 1283               	bcf	3,5	;RP0=0, select bank0
  1653  00AB' 1303               	bcf	3,6	;RP1=0, select bank0
  1654  00AC' 0086'              	movwf	delay10ms@period_10ms
  1655  00AD' 3000               	movlw	0
  1656  00AE' 0087'              	movwf	delay10ms@period_10ms+1
  1657  00AF' 120A' 118A' 2000' 120A' 118A' 	fcall	_delay10ms
  1658                           
  1659                           ;LC-meter.c: 238: indicator(0);
  1660  00B4' 3000               	movlw	0
  1661  00B5' 120A' 118A' 2000' 120A' 118A' 	fcall	_indicator
  1662                           
  1663                           ;LC-meter.c: 239: delay10ms(20);
  1664  00BA' 3014               	movlw	20
  1665  00BB' 1283               	bcf	3,5	;RP0=0, select bank0
  1666  00BC' 1303               	bcf	3,6	;RP1=0, select bank0
  1667  00BD' 0086'              	movwf	delay10ms@period_10ms
  1668  00BE' 3000               	movlw	0
  1669  00BF' 0087'              	movwf	delay10ms@period_10ms+1
  1670  00C0' 120A' 118A' 2000' 120A' 118A' 	fcall	_delay10ms
  1671                           
  1672                           ;LC-meter.c: 240: }
  1673  00C5' 2800'              	goto	l4364
  1674  00C6'                    __end_of_main:	
  1675                           
  1676                           	psect	text1
  1677  0000'                    __ptext1:	
  1678 ;; *************** function _timer2_init *****************
  1679 ;; Defined at:
  1680 ;;		line 81 in file "../../../lib/timer.c"
  1681 ;; Parameters:    Size  Location     Type
  1682 ;;  ps_mode         1    wreg     unsigned char 
  1683 ;; Auto vars:     Size  Location     Type
  1684 ;;  ps_mode         1    1[BANK0 ] unsigned char 
  1685 ;;  postscaler      1    3[BANK0 ] unsigned char 
  1686 ;;  ps              1    2[BANK0 ] unsigned char 
  1687 ;; Return value:  Size  Location     Type
  1688 ;;		None               void
  1689 ;; Registers used:
  1690 ;;		wreg, status,2, status,0
  1691 ;; Tracked objects:
  1692 ;;		On entry : 0/0
  1693 ;;		On exit  : 0/0
  1694 ;;		Unchanged: 0/0
  1695 ;; Data sizes:     COMMON   BANK0   BANK1   BANK3   BANK2
  1696 ;;      Params:         0       0       0       0       0
  1697 ;;      Locals:         0       3       0       0       0
  1698 ;;      Temps:          0       1       0       0       0
  1699 ;;      Totals:         0       4       0       0       0
  1700 ;;Total ram usage:        4 bytes
  1701 ;; Hardware stack levels used:    1
  1702 ;; Hardware stack levels required when called:    1
  1703 ;; This function calls:
  1704 ;;		Nothing
  1705 ;; This function is called by:
  1706 ;;		_main
  1707 ;; This function uses a non-reentrant model
  1708 ;;
  1709                           
  1710                           
  1711                           ;psect for function _timer2_init
  1712  0000'                    _timer2_init:	
  1713                           
  1714                           ;incstack = 0
  1715                           ; Regs used in _timer2_init: [wreg+status,2+status,0]
  1716                           ;timer2_init@ps_mode stored from wreg
  1717  0000' 1283               	bcf	3,5	;RP0=0, select bank0
  1718  0001' 1303               	bcf	3,6	;RP1=0, select bank0
  1719  0002' 0081'              	movwf	timer2_init@ps_mode
  1720                           
  1721                           ;timer.c: 82: unsigned char ps = ps_mode & 0b1111;
  1722  0003' 0801'              	movf	timer2_init@ps_mode,w
  1723  0004' 390F               	andlw	15
  1724  0005' 0080'              	movwf	??_timer2_init
  1725  0006' 0800'              	movf	??_timer2_init,w
  1726  0007' 0082'              	movwf	timer2_init@ps
  1727                           
  1728                           ;timer.c: 83: unsigned char postscaler = 0;
  1729  0008' 0183'              	clrf	timer2_init@postscaler
  1730                           
  1731                           ;timer.c: 86: TOUTPS0 = postscaler & 1;
  1732  0009' 1C03'              	btfss	timer2_init@postscaler,0
  1733  000A' 2800'              	goto	u5090
  1734  000B' 1283               	bcf	3,5	;RP0=0, select bank0
  1735  000C' 1303               	bcf	3,6	;RP1=0, select bank0
  1736  000D' 1592               	bsf	18,3	;volatile
  1737  000E' 2800'              	goto	l4062
  1738  000F'                    u5090:	
  1739  000F' 1283               	bcf	3,5	;RP0=0, select bank0
  1740  0010' 1303               	bcf	3,6	;RP1=0, select bank0
  1741  0011' 1192               	bcf	18,3	;volatile
  1742  0012'                    l4062:	
  1743                           
  1744                           ;timer.c: 87: TOUTPS1 = (postscaler >> 1) & 1;
  1745  0012' 0803'              	movf	timer2_init@postscaler,w
  1746  0013' 0080'              	movwf	??_timer2_init
  1747  0014' 3001               	movlw	1
  1748  0015'                    u5115:	
  1749  0015' 1003               	clrc
  1750  0016' 0C80'              	rrf	??_timer2_init,f
  1751  0017' 3EFF               	addlw	-1
  1752  0018' 1D03               	skipz
  1753  0019' 2800'              	goto	u5115
  1754  001A' 1C00'              	btfss	??_timer2_init,0
  1755  001B' 2800'              	goto	u5120
  1756  001C' 1283               	bcf	3,5	;RP0=0, select bank0
  1757  001D' 1303               	bcf	3,6	;RP1=0, select bank0
  1758  001E' 1612               	bsf	18,4	;volatile
  1759  001F' 2800'              	goto	l4064
  1760  0020'                    u5120:	
  1761  0020' 1283               	bcf	3,5	;RP0=0, select bank0
  1762  0021' 1303               	bcf	3,6	;RP1=0, select bank0
  1763  0022' 1212               	bcf	18,4	;volatile
  1764  0023'                    l4064:	
  1765                           
  1766                           ;timer.c: 88: TOUTPS2 = (postscaler >> 2) & 1;
  1767  0023' 0803'              	movf	timer2_init@postscaler,w
  1768  0024' 0080'              	movwf	??_timer2_init
  1769  0025' 3002               	movlw	2
  1770  0026'                    u5145:	
  1771  0026' 1003               	clrc
  1772  0027' 0C80'              	rrf	??_timer2_init,f
  1773  0028' 3EFF               	addlw	-1
  1774  0029' 1D03               	skipz
  1775  002A' 2800'              	goto	u5145
  1776  002B' 1C00'              	btfss	??_timer2_init,0
  1777  002C' 2800'              	goto	u5150
  1778  002D' 1283               	bcf	3,5	;RP0=0, select bank0
  1779  002E' 1303               	bcf	3,6	;RP1=0, select bank0
  1780  002F' 1692               	bsf	18,5	;volatile
  1781  0030' 2800'              	goto	l4066
  1782  0031'                    u5150:	
  1783  0031' 1283               	bcf	3,5	;RP0=0, select bank0
  1784  0032' 1303               	bcf	3,6	;RP1=0, select bank0
  1785  0033' 1292               	bcf	18,5	;volatile
  1786  0034'                    l4066:	
  1787                           
  1788                           ;timer.c: 90: T2CKPS0 = (ps >> 1) & 1;
  1789  0034' 0802'              	movf	timer2_init@ps,w
  1790  0035' 0080'              	movwf	??_timer2_init
  1791  0036' 3001               	movlw	1
  1792  0037'                    u5175:	
  1793  0037' 1003               	clrc
  1794  0038' 0C80'              	rrf	??_timer2_init,f
  1795  0039' 3EFF               	addlw	-1
  1796  003A' 1D03               	skipz
  1797  003B' 2800'              	goto	u5175
  1798  003C' 1C00'              	btfss	??_timer2_init,0
  1799  003D' 2800'              	goto	u5180
  1800  003E' 1283               	bcf	3,5	;RP0=0, select bank0
  1801  003F' 1303               	bcf	3,6	;RP1=0, select bank0
  1802  0040' 1412               	bsf	18,0	;volatile
  1803  0041' 2800'              	goto	l4068
  1804  0042'                    u5180:	
  1805  0042' 1283               	bcf	3,5	;RP0=0, select bank0
  1806  0043' 1303               	bcf	3,6	;RP1=0, select bank0
  1807  0044' 1012               	bcf	18,0	;volatile
  1808  0045'                    l4068:	
  1809                           
  1810                           ;timer.c: 91: T2CKPS1 = (ps >> 2) & 1;
  1811  0045' 0802'              	movf	timer2_init@ps,w
  1812  0046' 0080'              	movwf	??_timer2_init
  1813  0047' 3002               	movlw	2
  1814  0048'                    u5205:	
  1815  0048' 1003               	clrc
  1816  0049' 0C80'              	rrf	??_timer2_init,f
  1817  004A' 3EFF               	addlw	-1
  1818  004B' 1D03               	skipz
  1819  004C' 2800'              	goto	u5205
  1820  004D' 1C00'              	btfss	??_timer2_init,0
  1821  004E' 2800'              	goto	u5210
  1822  004F' 1283               	bcf	3,5	;RP0=0, select bank0
  1823  0050' 1303               	bcf	3,6	;RP1=0, select bank0
  1824  0051' 1492               	bsf	18,1	;volatile
  1825  0052' 2800'              	goto	l4070
  1826  0053'                    u5210:	
  1827  0053' 1283               	bcf	3,5	;RP0=0, select bank0
  1828  0054' 1303               	bcf	3,6	;RP1=0, select bank0
  1829  0055' 1092               	bcf	18,1	;volatile
  1830  0056'                    l4070:	
  1831                           
  1832                           ;timer.c: 93: TMR2 = 0;
  1833  0056' 0191               	clrf	17	;volatile
  1834                           
  1835                           ;timer.c: 95: TMR2ON = 1;
  1836  0057' 1512               	bsf	18,2	;volatile
  1837                           
  1838                           ;timer.c: 97: TMR2IF = 0;
  1839  0058' 108C               	bcf	12,1	;volatile
  1840                           
  1841                           ;timer.c: 98: TMR2IE = !!(ps_mode & 0x80);
  1842  0059' 1F81'              	btfss	timer2_init@ps_mode,7
  1843  005A' 2800'              	goto	u5230
  1844  005B' 1683               	bsf	3,5	;RP0=1, select bank1
  1845  005C' 1303               	bcf	3,6	;RP1=0, select bank1
  1846  005D' 148C               	bsf	12,1	;volatile
  1847  005E' 0008               	return
  1848  005F'                    u5230:	
  1849  005F' 1683               	bsf	3,5	;RP0=1, select bank1
  1850  0060' 1303               	bcf	3,6	;RP1=0, select bank1
  1851  0061' 108C               	bcf	12,1	;volatile
  1852  0062' 0008               	return
  1853  0063'                    __end_of_timer2_init:	
  1854                           
  1855                           	psect	text2
  1856  0000'                    __ptext2:	
  1857 ;; *************** function _ser_init *****************
  1858 ;; Defined at:
  1859 ;;		line 125 in file "../../../lib/ser.c"
  1860 ;; Parameters:    Size  Location     Type
  1861 ;;		None
  1862 ;; Auto vars:     Size  Location     Type
  1863 ;;		None
  1864 ;; Return value:  Size  Location     Type
  1865 ;;		None               void
  1866 ;; Registers used:
  1867 ;;		wreg, status,2
  1868 ;; Tracked objects:
  1869 ;;		On entry : 0/0
  1870 ;;		On exit  : 0/0
  1871 ;;		Unchanged: 0/0
  1872 ;; Data sizes:     COMMON   BANK0   BANK1   BANK3   BANK2
  1873 ;;      Params:         0       0       0       0       0
  1874 ;;      Locals:         0       0       0       0       0
  1875 ;;      Temps:          0       0       0       0       0
  1876 ;;      Totals:         0       0       0       0       0
  1877 ;;Total ram usage:        0 bytes
  1878 ;; Hardware stack levels used:    1
  1879 ;; Hardware stack levels required when called:    1
  1880 ;; This function calls:
  1881 ;;		Nothing
  1882 ;; This function is called by:
  1883 ;;		_main
  1884 ;; This function uses a non-reentrant model
  1885 ;;
  1886                           
  1887                           
  1888                           ;psect for function _ser_init
  1889  0000'                    _ser_init:	
  1890                           
  1891                           ;ser.c: 128: TRISC6 = 1;
  1892                           
  1893                           ;incstack = 0
  1894                           ; Regs used in _ser_init: [wreg+status,2]
  1895  0000' 1683               	bsf	3,5	;RP0=1, select bank1
  1896  0001' 1303               	bcf	3,6	;RP1=0, select bank1
  1897  0002' 1707               	bsf	7,6	;volatile
  1898                           
  1899                           ;ser.c: 129: RC7 = 1;
  1900  0003' 1283               	bcf	3,5	;RP0=0, select bank0
  1901  0004' 1303               	bcf	3,6	;RP1=0, select bank0
  1902  0005' 1787               	bsf	7,7	;volatile
  1903                           
  1904                           ;ser.c: 131: BRGH = 1;
  1905  0006' 1683               	bsf	3,5	;RP0=1, select bank1
  1906  0007' 1303               	bcf	3,6	;RP1=0, select bank1
  1907  0008' 1518               	bsf	24,2	;volatile
  1908                           
  1909                           ;ser.c: 136: SPBRG = ser_brg;
  1910  0009' 0800'              	movf	_ser_brg^(0+128),w
  1911  000A' 0099               	movwf	25	;volatile
  1912                           
  1913                           ;ser.c: 139: TX9 = 0;
  1914  000B' 1318               	bcf	24,6	;volatile
  1915                           
  1916                           ;ser.c: 140: RX9 = 0;
  1917  000C' 1283               	bcf	3,5	;RP0=0, select bank0
  1918  000D' 1303               	bcf	3,6	;RP1=0, select bank0
  1919  000E' 1318               	bcf	24,6	;volatile
  1920                           
  1921                           ;ser.c: 142: SYNC = 0;
  1922  000F' 1683               	bsf	3,5	;RP0=1, select bank1
  1923  0010' 1303               	bcf	3,6	;RP1=0, select bank1
  1924  0011' 1218               	bcf	24,4	;volatile
  1925                           
  1926                           ;ser.c: 143: SPEN = 1;
  1927  0012' 1283               	bcf	3,5	;RP0=0, select bank0
  1928  0013' 1303               	bcf	3,6	;RP1=0, select bank0
  1929  0014' 1798               	bsf	24,7	;volatile
  1930                           
  1931                           ;ser.c: 144: CREN = 1;
  1932  0015' 1618               	bsf	24,4	;volatile
  1933                           
  1934                           ;ser.c: 145: TXIE = 0;
  1935  0016' 1683               	bsf	3,5	;RP0=1, select bank1
  1936  0017' 1303               	bcf	3,6	;RP1=0, select bank1
  1937  0018' 120C               	bcf	12,4	;volatile
  1938                           
  1939                           ;ser.c: 147: TXEN = 1;
  1940  0019' 1698               	bsf	24,5	;volatile
  1941                           
  1942                           ;ser.c: 148: PEIE = 1;
  1943  001A' 170B               	bsf	11,6	;volatile
  1944                           
  1945                           ;ser.c: 150: rxiptr = rxoptr = txiptr = txoptr = 0;
  1946  001B' 0183'              	clrf	_txoptr	;volatile
  1947  001C' 0182'              	clrf	_txiptr	;volatile
  1948  001D' 0181'              	clrf	_rxoptr	;volatile
  1949  001E' 0180'              	clrf	_rxiptr	;volatile
  1950  001F' 0008               	return
  1951  0020'                    __end_of_ser_init:	
  1952                           
  1953                           	psect	text3
  1954  0000'                    __ptext3:	
  1955 ;; *************** function _measure_inductance *****************
  1956 ;; Defined at:
  1957 ;;		line 470 in file "../../../src/LC-meter.c"
  1958 ;; Parameters:    Size  Location     Type
  1959 ;;		None
  1960 ;; Auto vars:     Size  Location     Type
  1961 ;;  Lin             4   72[BANK1 ] unsigned char 
  1962 ;;  denominator     4   37[BANK1 ] unsigned char 
  1963 ;;  numerator       4   33[BANK1 ] unsigned char 
  1964 ;;  var             2   70[BANK1 ] unsigned short 
  1965 ;;  unit            1   57[BANK1 ] unsigned char 
  1966 ;; Return value:  Size  Location     Type
  1967 ;;		None               void
  1968 ;; Registers used:
  1969 ;;		wreg, status,2, status,0, btemp+1, pclath, cstack
  1970 ;; Tracked objects:
  1971 ;;		On entry : 0/0
  1972 ;;		On exit  : 0/0
  1973 ;;		Unchanged: 0/0
  1974 ;; Data sizes:     COMMON   BANK0   BANK1   BANK3   BANK2
  1975 ;;      Params:         0       0       0       0       0
  1976 ;;      Locals:         0       0      43       0       0
  1977 ;;      Temps:          0       0       1       0       0
  1978 ;;      Totals:         0       0      44       0       0
  1979 ;;Total ram usage:       44 bytes
  1980 ;; Hardware stack levels used:    1
  1981 ;; Hardware stack levels required when called:    3
  1982 ;; This function calls:
  1983 ;;		___fladd
  1984 ;;		___fldiv
  1985 ;;		___flge
  1986 ;;		___flmul
  1987 ;;		___flneg
  1988 ;;		___fltol
  1989 ;;		___lwtofl
  1990 ;;		_measure_freq
  1991 ;;		_print_reading
  1992 ;;		_print_unit
  1993 ;; This function is called by:
  1994 ;;		_main
  1995 ;; This function uses a non-reentrant model
  1996 ;;
  1997                           
  1998                           
  1999                           ;psect for function _measure_inductance
  2000  0000'                    _measure_inductance:	
  2001                           
  2002                           ;LC-meter.c: 471: unsigned char unit;
  2003                           ;LC-meter.c: 472: unsigned short int var;
  2004                           ;LC-meter.c: 474: double Lin, numerator, denominator;
  2005                           ;LC-meter.c: 480: var = measure_freq();
  2006                           
  2007                           ;incstack = 0
  2008                           ; Regs used in _measure_inductance: [wreg+status,2+status,0+btemp+1+pclath+cstack]
  2009  0000' 120A' 118A' 2000' 120A' 118A' 	fcall	_measure_freq
  2010  0005' 1283               	bcf	3,5	;RP0=0, select bank0
  2011  0006' 1303               	bcf	3,6	;RP1=0, select bank0
  2012  0007' 0801'              	movf	?_measure_freq+1,w
  2013  0008' 1683               	bsf	3,5	;RP0=1, select bank1
  2014  0009' 1303               	bcf	3,6	;RP1=0, select bank1
  2015  000A' 0080'              	movwf	(measure_inductance@var+1)^(0+128)
  2016  000B' 1283               	bcf	3,5	;RP0=0, select bank0
  2017  000C' 1303               	bcf	3,6	;RP1=0, select bank0
  2018  000D' 0800'              	movf	?_measure_freq,w
  2019  000E' 1683               	bsf	3,5	;RP0=1, select bank1
  2020  000F' 1303               	bcf	3,6	;RP1=0, select bank1
  2021  0010' 0080'              	movwf	measure_inductance@var^(0+128)
  2022                           
  2023                           ;LC-meter.c: 482: F3 = (double)var;
  2024  0011' 0800'              	movf	(measure_inductance@var+1)^(0+128),w
  2025  0012' 1283               	bcf	3,5	;RP0=0, select bank0
  2026  0013' 1303               	bcf	3,6	;RP1=0, select bank0
  2027  0014' 008D'              	movwf	___lwtofl@c+1
  2028  0015' 1683               	bsf	3,5	;RP0=1, select bank1
  2029  0016' 1303               	bcf	3,6	;RP1=0, select bank1
  2030  0017' 0800'              	movf	measure_inductance@var^(0+128),w
  2031  0018' 1283               	bcf	3,5	;RP0=0, select bank0
  2032  0019' 1303               	bcf	3,6	;RP1=0, select bank0
  2033  001A' 008C'              	movwf	___lwtofl@c
  2034  001B' 120A' 118A' 2000' 120A' 118A' 	fcall	___lwtofl
  2035  0020' 1283               	bcf	3,5	;RP0=0, select bank0
  2036  0021' 1303               	bcf	3,6	;RP1=0, select bank0
  2037  0022' 080F'              	movf	?___lwtofl+3,w
  2038  0023' 1683               	bsf	3,5	;RP0=1, select bank3
  2039  0024' 1703               	bsf	3,6	;RP1=1, select bank3
  2040  0025' 0080'              	movwf	(_F3+3)^(0+384)
  2041  0026' 1283               	bcf	3,5	;RP0=0, select bank0
  2042  0027' 1303               	bcf	3,6	;RP1=0, select bank0
  2043  0028' 080E'              	movf	?___lwtofl+2,w
  2044  0029' 1683               	bsf	3,5	;RP0=1, select bank3
  2045  002A' 1703               	bsf	3,6	;RP1=1, select bank3
  2046  002B' 0080'              	movwf	(_F3+2)^(0+384)
  2047  002C' 1283               	bcf	3,5	;RP0=0, select bank0
  2048  002D' 1303               	bcf	3,6	;RP1=0, select bank0
  2049  002E' 080D'              	movf	?___lwtofl+1,w
  2050  002F' 1683               	bsf	3,5	;RP0=1, select bank3
  2051  0030' 1703               	bsf	3,6	;RP1=1, select bank3
  2052  0031' 0080'              	movwf	(_F3+1)^(0+384)
  2053  0032' 1283               	bcf	3,5	;RP0=0, select bank0
  2054  0033' 1303               	bcf	3,6	;RP1=0, select bank0
  2055  0034' 080C'              	movf	?___lwtofl,w
  2056  0035' 1683               	bsf	3,5	;RP0=1, select bank3
  2057  0036' 1703               	bsf	3,6	;RP1=1, select bank3
  2058  0037' 0080'              	movwf	_F3^(0+384)
  2059                           
  2060                           ;LC-meter.c: 483: if(F3 > F1)
  2061  0038' 0800'              	movf	(_F1+3)^(0+384),w
  2062  0039' 1283               	bcf	3,5	;RP0=0, select bank0
  2063  003A' 1303               	bcf	3,6	;RP1=0, select bank0
  2064  003B' 0083'              	movwf	___flge@ff1+3
  2065  003C' 1683               	bsf	3,5	;RP0=1, select bank3
  2066  003D' 1703               	bsf	3,6	;RP1=1, select bank3
  2067  003E' 0800'              	movf	(_F1+2)^(0+384),w
  2068  003F' 1283               	bcf	3,5	;RP0=0, select bank0
  2069  0040' 1303               	bcf	3,6	;RP1=0, select bank0
  2070  0041' 0082'              	movwf	___flge@ff1+2
  2071  0042' 1683               	bsf	3,5	;RP0=1, select bank3
  2072  0043' 1703               	bsf	3,6	;RP1=1, select bank3
  2073  0044' 0800'              	movf	(_F1+1)^(0+384),w
  2074  0045' 1283               	bcf	3,5	;RP0=0, select bank0
  2075  0046' 1303               	bcf	3,6	;RP1=0, select bank0
  2076  0047' 0081'              	movwf	___flge@ff1+1
  2077  0048' 1683               	bsf	3,5	;RP0=1, select bank3
  2078  0049' 1703               	bsf	3,6	;RP1=1, select bank3
  2079  004A' 0800'              	movf	_F1^(0+384),w
  2080  004B' 1283               	bcf	3,5	;RP0=0, select bank0
  2081  004C' 1303               	bcf	3,6	;RP1=0, select bank0
  2082  004D' 0080'              	movwf	___flge@ff1
  2083  004E' 1683               	bsf	3,5	;RP0=1, select bank3
  2084  004F' 1703               	bsf	3,6	;RP1=1, select bank3
  2085  0050' 0800'              	movf	(_F3+3)^(0+384),w
  2086  0051' 1283               	bcf	3,5	;RP0=0, select bank0
  2087  0052' 1303               	bcf	3,6	;RP1=0, select bank0
  2088  0053' 0087'              	movwf	___flge@ff2+3
  2089  0054' 1683               	bsf	3,5	;RP0=1, select bank3
  2090  0055' 1703               	bsf	3,6	;RP1=1, select bank3
  2091  0056' 0800'              	movf	(_F3+2)^(0+384),w
  2092  0057' 1283               	bcf	3,5	;RP0=0, select bank0
  2093  0058' 1303               	bcf	3,6	;RP1=0, select bank0
  2094  0059' 0086'              	movwf	___flge@ff2+2
  2095  005A' 1683               	bsf	3,5	;RP0=1, select bank3
  2096  005B' 1703               	bsf	3,6	;RP1=1, select bank3
  2097  005C' 0800'              	movf	(_F3+1)^(0+384),w
  2098  005D' 1283               	bcf	3,5	;RP0=0, select bank0
  2099  005E' 1303               	bcf	3,6	;RP1=0, select bank0
  2100  005F' 0085'              	movwf	___flge@ff2+1
  2101  0060' 1683               	bsf	3,5	;RP0=1, select bank3
  2102  0061' 1703               	bsf	3,6	;RP1=1, select bank3
  2103  0062' 0800'              	movf	_F3^(0+384),w
  2104  0063' 1283               	bcf	3,5	;RP0=0, select bank0
  2105  0064' 1303               	bcf	3,6	;RP1=0, select bank0
  2106  0065' 0084'              	movwf	___flge@ff2
  2107  0066' 120A' 118A' 2000' 120A' 118A' 	fcall	___flge
  2108  006B' 1803               	btfsc	3,0
  2109  006C' 2800'              	goto	l4200
  2110                           
  2111                           ;LC-meter.c: 484: F3 = F1;
  2112  006D' 1683               	bsf	3,5	;RP0=1, select bank3
  2113  006E' 1703               	bsf	3,6	;RP1=1, select bank3
  2114  006F' 0800'              	movf	(_F1+3)^(0+384),w
  2115  0070' 0080'              	movwf	(_F3+3)^(0+384)
  2116  0071' 0800'              	movf	(_F1+2)^(0+384),w
  2117  0072' 0080'              	movwf	(_F3+2)^(0+384)
  2118  0073' 0800'              	movf	(_F1+1)^(0+384),w
  2119  0074' 0080'              	movwf	(_F3+1)^(0+384)
  2120  0075' 0800'              	movf	_F1^(0+384),w
  2121  0076' 0080'              	movwf	_F3^(0+384)
  2122  0077'                    l4200:	
  2123                           
  2124                           ;LC-meter.c: 486: numerator = ((F1 * F1) - (F3 * F3)) * ((F1 * F1) - (F2 - F2)) * (100 *
      +                           100);
  2125  0077' 1683               	bsf	3,5	;RP0=1, select bank3
  2126  0078' 1703               	bsf	3,6	;RP1=1, select bank3
  2127  0079' 0800'              	movf	(_F2+3)^(0+384),w
  2128  007A' 1283               	bcf	3,5	;RP0=0, select bank0
  2129  007B' 1303               	bcf	3,6	;RP1=0, select bank0
  2130  007C' 00B5'              	movwf	___flneg@f1+3
  2131  007D' 1683               	bsf	3,5	;RP0=1, select bank3
  2132  007E' 1703               	bsf	3,6	;RP1=1, select bank3
  2133  007F' 0800'              	movf	(_F2+2)^(0+384),w
  2134  0080' 1283               	bcf	3,5	;RP0=0, select bank0
  2135  0081' 1303               	bcf	3,6	;RP1=0, select bank0
  2136  0082' 00B4'              	movwf	___flneg@f1+2
  2137  0083' 1683               	bsf	3,5	;RP0=1, select bank3
  2138  0084' 1703               	bsf	3,6	;RP1=1, select bank3
  2139  0085' 0800'              	movf	(_F2+1)^(0+384),w
  2140  0086' 1283               	bcf	3,5	;RP0=0, select bank0
  2141  0087' 1303               	bcf	3,6	;RP1=0, select bank0
  2142  0088' 00B3'              	movwf	___flneg@f1+1
  2143  0089' 1683               	bsf	3,5	;RP0=1, select bank3
  2144  008A' 1703               	bsf	3,6	;RP1=1, select bank3
  2145  008B' 0800'              	movf	_F2^(0+384),w
  2146  008C' 1283               	bcf	3,5	;RP0=0, select bank0
  2147  008D' 1303               	bcf	3,6	;RP1=0, select bank0
  2148  008E' 00B2'              	movwf	___flneg@f1
  2149  008F' 120A' 118A' 2000' 120A' 118A' 	fcall	___flneg
  2150  0094' 1283               	bcf	3,5	;RP0=0, select bank0
  2151  0095' 1303               	bcf	3,6	;RP1=0, select bank0
  2152  0096' 0835'              	movf	?___flneg+3,w
  2153  0097' 00BD'              	movwf	___fladd@f2+3
  2154  0098' 0834'              	movf	?___flneg+2,w
  2155  0099' 00BC'              	movwf	___fladd@f2+2
  2156  009A' 0833'              	movf	?___flneg+1,w
  2157  009B' 00BB'              	movwf	___fladd@f2+1
  2158  009C' 0832'              	movf	?___flneg,w
  2159  009D' 00BA'              	movwf	___fladd@f2
  2160  009E' 1683               	bsf	3,5	;RP0=1, select bank3
  2161  009F' 1703               	bsf	3,6	;RP1=1, select bank3
  2162  00A0' 0800'              	movf	(_F2+3)^(0+384),w
  2163  00A1' 1283               	bcf	3,5	;RP0=0, select bank0
  2164  00A2' 1303               	bcf	3,6	;RP1=0, select bank0
  2165  00A3' 00B9'              	movwf	___fladd@f1+3
  2166  00A4' 1683               	bsf	3,5	;RP0=1, select bank3
  2167  00A5' 1703               	bsf	3,6	;RP1=1, select bank3
  2168  00A6' 0800'              	movf	(_F2+2)^(0+384),w
  2169  00A7' 1283               	bcf	3,5	;RP0=0, select bank0
  2170  00A8' 1303               	bcf	3,6	;RP1=0, select bank0
  2171  00A9' 00B8'              	movwf	___fladd@f1+2
  2172  00AA' 1683               	bsf	3,5	;RP0=1, select bank3
  2173  00AB' 1703               	bsf	3,6	;RP1=1, select bank3
  2174  00AC' 0800'              	movf	(_F2+1)^(0+384),w
  2175  00AD' 1283               	bcf	3,5	;RP0=0, select bank0
  2176  00AE' 1303               	bcf	3,6	;RP1=0, select bank0
  2177  00AF' 00B7'              	movwf	___fladd@f1+1
  2178  00B0' 1683               	bsf	3,5	;RP0=1, select bank3
  2179  00B1' 1703               	bsf	3,6	;RP1=1, select bank3
  2180  00B2' 0800'              	movf	_F2^(0+384),w
  2181  00B3' 1283               	bcf	3,5	;RP0=0, select bank0
  2182  00B4' 1303               	bcf	3,6	;RP1=0, select bank0
  2183  00B5' 00B6'              	movwf	___fladd@f1
  2184  00B6' 120A' 118A' 2000' 120A' 118A' 	fcall	___fladd
  2185  00BB' 1283               	bcf	3,5	;RP0=0, select bank0
  2186  00BC' 1303               	bcf	3,6	;RP1=0, select bank0
  2187  00BD' 0839'              	movf	?___fladd+3,w
  2188  00BE' 1683               	bsf	3,5	;RP0=1, select bank1
  2189  00BF' 1303               	bcf	3,6	;RP1=0, select bank1
  2190  00C0' 0080'              	movwf	(_measure_inductance$813+3)^(0+128)
  2191  00C1' 1283               	bcf	3,5	;RP0=0, select bank0
  2192  00C2' 1303               	bcf	3,6	;RP1=0, select bank0
  2193  00C3' 0838'              	movf	?___fladd+2,w
  2194  00C4' 1683               	bsf	3,5	;RP0=1, select bank1
  2195  00C5' 1303               	bcf	3,6	;RP1=0, select bank1
  2196  00C6' 0080'              	movwf	(_measure_inductance$813+2)^(0+128)
  2197  00C7' 1283               	bcf	3,5	;RP0=0, select bank0
  2198  00C8' 1303               	bcf	3,6	;RP1=0, select bank0
  2199  00C9' 0837'              	movf	?___fladd+1,w
  2200  00CA' 1683               	bsf	3,5	;RP0=1, select bank1
  2201  00CB' 1303               	bcf	3,6	;RP1=0, select bank1
  2202  00CC' 0080'              	movwf	(_measure_inductance$813+1)^(0+128)
  2203  00CD' 1283               	bcf	3,5	;RP0=0, select bank0
  2204  00CE' 1303               	bcf	3,6	;RP1=0, select bank0
  2205  00CF' 0836'              	movf	?___fladd,w
  2206  00D0' 1683               	bsf	3,5	;RP0=1, select bank1
  2207  00D1' 1303               	bcf	3,6	;RP1=0, select bank1
  2208  00D2' 0080'              	movwf	_measure_inductance$813^(0+128)
  2209                           
  2210                           ;LC-meter.c: 486: numerator = ((F1 * F1) - (F3 * F3)) * ((F1 * F1) - (F2 - F2)) * (100 *
      +                           100);
  2211  00D3' 0800'              	movf	(_measure_inductance$813+3)^(0+128),w
  2212  00D4' 1283               	bcf	3,5	;RP0=0, select bank0
  2213  00D5' 1303               	bcf	3,6	;RP1=0, select bank0
  2214  00D6' 00B5'              	movwf	___flneg@f1+3
  2215  00D7' 1683               	bsf	3,5	;RP0=1, select bank1
  2216  00D8' 1303               	bcf	3,6	;RP1=0, select bank1
  2217  00D9' 0800'              	movf	(_measure_inductance$813+2)^(0+128),w
  2218  00DA' 1283               	bcf	3,5	;RP0=0, select bank0
  2219  00DB' 1303               	bcf	3,6	;RP1=0, select bank0
  2220  00DC' 00B4'              	movwf	___flneg@f1+2
  2221  00DD' 1683               	bsf	3,5	;RP0=1, select bank1
  2222  00DE' 1303               	bcf	3,6	;RP1=0, select bank1
  2223  00DF' 0800'              	movf	(_measure_inductance$813+1)^(0+128),w
  2224  00E0' 1283               	bcf	3,5	;RP0=0, select bank0
  2225  00E1' 1303               	bcf	3,6	;RP1=0, select bank0
  2226  00E2' 00B3'              	movwf	___flneg@f1+1
  2227  00E3' 1683               	bsf	3,5	;RP0=1, select bank1
  2228  00E4' 1303               	bcf	3,6	;RP1=0, select bank1
  2229  00E5' 0800'              	movf	_measure_inductance$813^(0+128),w
  2230  00E6' 1283               	bcf	3,5	;RP0=0, select bank0
  2231  00E7' 1303               	bcf	3,6	;RP1=0, select bank0
  2232  00E8' 00B2'              	movwf	___flneg@f1
  2233  00E9' 120A' 118A' 2000' 120A' 118A' 	fcall	___flneg
  2234  00EE' 1283               	bcf	3,5	;RP0=0, select bank0
  2235  00EF' 1303               	bcf	3,6	;RP1=0, select bank0
  2236  00F0' 0835'              	movf	?___flneg+3,w
  2237  00F1' 00B9'              	movwf	___fladd@f1+3
  2238  00F2' 0834'              	movf	?___flneg+2,w
  2239  00F3' 00B8'              	movwf	___fladd@f1+2
  2240  00F4' 0833'              	movf	?___flneg+1,w
  2241  00F5' 00B7'              	movwf	___fladd@f1+1
  2242  00F6' 0832'              	movf	?___flneg,w
  2243  00F7' 00B6'              	movwf	___fladd@f1
  2244  00F8' 1683               	bsf	3,5	;RP0=1, select bank3
  2245  00F9' 1703               	bsf	3,6	;RP1=1, select bank3
  2246  00FA' 0800'              	movf	(_F1+3)^(0+384),w
  2247  00FB' 1283               	bcf	3,5	;RP0=0, select bank0
  2248  00FC' 1303               	bcf	3,6	;RP1=0, select bank0
  2249  00FD' 00A1'              	movwf	___flmul@f1+3
  2250  00FE' 1683               	bsf	3,5	;RP0=1, select bank3
  2251  00FF' 1703               	bsf	3,6	;RP1=1, select bank3
  2252  0100' 0800'              	movf	(_F1+2)^(0+384),w
  2253  0101' 1283               	bcf	3,5	;RP0=0, select bank0
  2254  0102' 1303               	bcf	3,6	;RP1=0, select bank0
  2255  0103' 00A0'              	movwf	___flmul@f1+2
  2256  0104' 1683               	bsf	3,5	;RP0=1, select bank3
  2257  0105' 1703               	bsf	3,6	;RP1=1, select bank3
  2258  0106' 0800'              	movf	(_F1+1)^(0+384),w
  2259  0107' 1283               	bcf	3,5	;RP0=0, select bank0
  2260  0108' 1303               	bcf	3,6	;RP1=0, select bank0
  2261  0109' 009F'              	movwf	___flmul@f1+1
  2262  010A' 1683               	bsf	3,5	;RP0=1, select bank3
  2263  010B' 1703               	bsf	3,6	;RP1=1, select bank3
  2264  010C' 0800'              	movf	_F1^(0+384),w
  2265  010D' 1283               	bcf	3,5	;RP0=0, select bank0
  2266  010E' 1303               	bcf	3,6	;RP1=0, select bank0
  2267  010F' 009E'              	movwf	___flmul@f1
  2268  0110' 1683               	bsf	3,5	;RP0=1, select bank3
  2269  0111' 1703               	bsf	3,6	;RP1=1, select bank3
  2270  0112' 0800'              	movf	(_F1+3)^(0+384),w
  2271  0113' 1283               	bcf	3,5	;RP0=0, select bank0
  2272  0114' 1303               	bcf	3,6	;RP1=0, select bank0
  2273  0115' 00A5'              	movwf	___flmul@f2+3
  2274  0116' 1683               	bsf	3,5	;RP0=1, select bank3
  2275  0117' 1703               	bsf	3,6	;RP1=1, select bank3
  2276  0118' 0800'              	movf	(_F1+2)^(0+384),w
  2277  0119' 1283               	bcf	3,5	;RP0=0, select bank0
  2278  011A' 1303               	bcf	3,6	;RP1=0, select bank0
  2279  011B' 00A4'              	movwf	___flmul@f2+2
  2280  011C' 1683               	bsf	3,5	;RP0=1, select bank3
  2281  011D' 1703               	bsf	3,6	;RP1=1, select bank3
  2282  011E' 0800'              	movf	(_F1+1)^(0+384),w
  2283  011F' 1283               	bcf	3,5	;RP0=0, select bank0
  2284  0120' 1303               	bcf	3,6	;RP1=0, select bank0
  2285  0121' 00A3'              	movwf	___flmul@f2+1
  2286  0122' 1683               	bsf	3,5	;RP0=1, select bank3
  2287  0123' 1703               	bsf	3,6	;RP1=1, select bank3
  2288  0124' 0800'              	movf	_F1^(0+384),w
  2289  0125' 1283               	bcf	3,5	;RP0=0, select bank0
  2290  0126' 1303               	bcf	3,6	;RP1=0, select bank0
  2291  0127' 00A2'              	movwf	___flmul@f2
  2292  0128' 120A' 118A' 2000' 120A' 118A' 	fcall	___flmul
  2293  012D' 1283               	bcf	3,5	;RP0=0, select bank0
  2294  012E' 1303               	bcf	3,6	;RP1=0, select bank0
  2295  012F' 0821'              	movf	?___flmul+3,w
  2296  0130' 00BD'              	movwf	___fladd@f2+3
  2297  0131' 0820'              	movf	?___flmul+2,w
  2298  0132' 00BC'              	movwf	___fladd@f2+2
  2299  0133' 081F'              	movf	?___flmul+1,w
  2300  0134' 00BB'              	movwf	___fladd@f2+1
  2301  0135' 081E'              	movf	?___flmul,w
  2302  0136' 00BA'              	movwf	___fladd@f2
  2303  0137' 120A' 118A' 2000' 120A' 118A' 	fcall	___fladd
  2304  013C' 1283               	bcf	3,5	;RP0=0, select bank0
  2305  013D' 1303               	bcf	3,6	;RP1=0, select bank0
  2306  013E' 0839'              	movf	?___fladd+3,w
  2307  013F' 1683               	bsf	3,5	;RP0=1, select bank1
  2308  0140' 1303               	bcf	3,6	;RP1=0, select bank1
  2309  0141' 0080'              	movwf	(_measure_inductance$814+3)^(0+128)
  2310  0142' 1283               	bcf	3,5	;RP0=0, select bank0
  2311  0143' 1303               	bcf	3,6	;RP1=0, select bank0
  2312  0144' 0838'              	movf	?___fladd+2,w
  2313  0145' 1683               	bsf	3,5	;RP0=1, select bank1
  2314  0146' 1303               	bcf	3,6	;RP1=0, select bank1
  2315  0147' 0080'              	movwf	(_measure_inductance$814+2)^(0+128)
  2316  0148' 1283               	bcf	3,5	;RP0=0, select bank0
  2317  0149' 1303               	bcf	3,6	;RP1=0, select bank0
  2318  014A' 0837'              	movf	?___fladd+1,w
  2319  014B' 1683               	bsf	3,5	;RP0=1, select bank1
  2320  014C' 1303               	bcf	3,6	;RP1=0, select bank1
  2321  014D' 0080'              	movwf	(_measure_inductance$814+1)^(0+128)
  2322  014E' 1283               	bcf	3,5	;RP0=0, select bank0
  2323  014F' 1303               	bcf	3,6	;RP1=0, select bank0
  2324  0150' 0836'              	movf	?___fladd,w
  2325  0151' 1683               	bsf	3,5	;RP0=1, select bank1
  2326  0152' 1303               	bcf	3,6	;RP1=0, select bank1
  2327  0153' 0080'              	movwf	_measure_inductance$814^(0+128)
  2328                           
  2329                           ;LC-meter.c: 486: numerator = ((F1 * F1) - (F3 * F3)) * ((F1 * F1) - (F2 - F2)) * (100 *
      +                           100);
  2330  0154' 1683               	bsf	3,5	;RP0=1, select bank3
  2331  0155' 1703               	bsf	3,6	;RP1=1, select bank3
  2332  0156' 0800'              	movf	(_F3+3)^(0+384),w
  2333  0157' 1283               	bcf	3,5	;RP0=0, select bank0
  2334  0158' 1303               	bcf	3,6	;RP1=0, select bank0
  2335  0159' 00A5'              	movwf	___flmul@f2+3
  2336  015A' 1683               	bsf	3,5	;RP0=1, select bank3
  2337  015B' 1703               	bsf	3,6	;RP1=1, select bank3
  2338  015C' 0800'              	movf	(_F3+2)^(0+384),w
  2339  015D' 1283               	bcf	3,5	;RP0=0, select bank0
  2340  015E' 1303               	bcf	3,6	;RP1=0, select bank0
  2341  015F' 00A4'              	movwf	___flmul@f2+2
  2342  0160' 1683               	bsf	3,5	;RP0=1, select bank3
  2343  0161' 1703               	bsf	3,6	;RP1=1, select bank3
  2344  0162' 0800'              	movf	(_F3+1)^(0+384),w
  2345  0163' 1283               	bcf	3,5	;RP0=0, select bank0
  2346  0164' 1303               	bcf	3,6	;RP1=0, select bank0
  2347  0165' 00A3'              	movwf	___flmul@f2+1
  2348  0166' 1683               	bsf	3,5	;RP0=1, select bank3
  2349  0167' 1703               	bsf	3,6	;RP1=1, select bank3
  2350  0168' 0800'              	movf	_F3^(0+384),w
  2351  0169' 1283               	bcf	3,5	;RP0=0, select bank0
  2352  016A' 1303               	bcf	3,6	;RP1=0, select bank0
  2353  016B' 00A2'              	movwf	___flmul@f2
  2354  016C' 1683               	bsf	3,5	;RP0=1, select bank3
  2355  016D' 1703               	bsf	3,6	;RP1=1, select bank3
  2356  016E' 0800'              	movf	(_F3+3)^(0+384),w
  2357  016F' 1283               	bcf	3,5	;RP0=0, select bank0
  2358  0170' 1303               	bcf	3,6	;RP1=0, select bank0
  2359  0171' 00A1'              	movwf	___flmul@f1+3
  2360  0172' 1683               	bsf	3,5	;RP0=1, select bank3
  2361  0173' 1703               	bsf	3,6	;RP1=1, select bank3
  2362  0174' 0800'              	movf	(_F3+2)^(0+384),w
  2363  0175' 1283               	bcf	3,5	;RP0=0, select bank0
  2364  0176' 1303               	bcf	3,6	;RP1=0, select bank0
  2365  0177' 00A0'              	movwf	___flmul@f1+2
  2366  0178' 1683               	bsf	3,5	;RP0=1, select bank3
  2367  0179' 1703               	bsf	3,6	;RP1=1, select bank3
  2368  017A' 0800'              	movf	(_F3+1)^(0+384),w
  2369  017B' 1283               	bcf	3,5	;RP0=0, select bank0
  2370  017C' 1303               	bcf	3,6	;RP1=0, select bank0
  2371  017D' 009F'              	movwf	___flmul@f1+1
  2372  017E' 1683               	bsf	3,5	;RP0=1, select bank3
  2373  017F' 1703               	bsf	3,6	;RP1=1, select bank3
  2374  0180' 0800'              	movf	_F3^(0+384),w
  2375  0181' 1283               	bcf	3,5	;RP0=0, select bank0
  2376  0182' 1303               	bcf	3,6	;RP1=0, select bank0
  2377  0183' 009E'              	movwf	___flmul@f1
  2378  0184' 120A' 118A' 2000' 120A' 118A' 	fcall	___flmul
  2379  0189' 1283               	bcf	3,5	;RP0=0, select bank0
  2380  018A' 1303               	bcf	3,6	;RP1=0, select bank0
  2381  018B' 0821'              	movf	?___flmul+3,w
  2382  018C' 00B5'              	movwf	___flneg@f1+3
  2383  018D' 0820'              	movf	?___flmul+2,w
  2384  018E' 00B4'              	movwf	___flneg@f1+2
  2385  018F' 081F'              	movf	?___flmul+1,w
  2386  0190' 00B3'              	movwf	___flneg@f1+1
  2387  0191' 081E'              	movf	?___flmul,w
  2388  0192' 00B2'              	movwf	___flneg@f1
  2389  0193' 120A' 118A' 2000' 120A' 118A' 	fcall	___flneg
  2390  0198' 1283               	bcf	3,5	;RP0=0, select bank0
  2391  0199' 1303               	bcf	3,6	;RP1=0, select bank0
  2392  019A' 0835'              	movf	?___flneg+3,w
  2393  019B' 00B9'              	movwf	___fladd@f1+3
  2394  019C' 0834'              	movf	?___flneg+2,w
  2395  019D' 00B8'              	movwf	___fladd@f1+2
  2396  019E' 0833'              	movf	?___flneg+1,w
  2397  019F' 00B7'              	movwf	___fladd@f1+1
  2398  01A0' 0832'              	movf	?___flneg,w
  2399  01A1' 00B6'              	movwf	___fladd@f1
  2400  01A2' 1683               	bsf	3,5	;RP0=1, select bank3
  2401  01A3' 1703               	bsf	3,6	;RP1=1, select bank3
  2402  01A4' 0800'              	movf	(_F1+3)^(0+384),w
  2403  01A5' 1283               	bcf	3,5	;RP0=0, select bank0
  2404  01A6' 1303               	bcf	3,6	;RP1=0, select bank0
  2405  01A7' 00A1'              	movwf	___flmul@f1+3
  2406  01A8' 1683               	bsf	3,5	;RP0=1, select bank3
  2407  01A9' 1703               	bsf	3,6	;RP1=1, select bank3
  2408  01AA' 0800'              	movf	(_F1+2)^(0+384),w
  2409  01AB' 1283               	bcf	3,5	;RP0=0, select bank0
  2410  01AC' 1303               	bcf	3,6	;RP1=0, select bank0
  2411  01AD' 00A0'              	movwf	___flmul@f1+2
  2412  01AE' 1683               	bsf	3,5	;RP0=1, select bank3
  2413  01AF' 1703               	bsf	3,6	;RP1=1, select bank3
  2414  01B0' 0800'              	movf	(_F1+1)^(0+384),w
  2415  01B1' 1283               	bcf	3,5	;RP0=0, select bank0
  2416  01B2' 1303               	bcf	3,6	;RP1=0, select bank0
  2417  01B3' 009F'              	movwf	___flmul@f1+1
  2418  01B4' 1683               	bsf	3,5	;RP0=1, select bank3
  2419  01B5' 1703               	bsf	3,6	;RP1=1, select bank3
  2420  01B6' 0800'              	movf	_F1^(0+384),w
  2421  01B7' 1283               	bcf	3,5	;RP0=0, select bank0
  2422  01B8' 1303               	bcf	3,6	;RP1=0, select bank0
  2423  01B9' 009E'              	movwf	___flmul@f1
  2424  01BA' 1683               	bsf	3,5	;RP0=1, select bank3
  2425  01BB' 1703               	bsf	3,6	;RP1=1, select bank3
  2426  01BC' 0800'              	movf	(_F1+3)^(0+384),w
  2427  01BD' 1283               	bcf	3,5	;RP0=0, select bank0
  2428  01BE' 1303               	bcf	3,6	;RP1=0, select bank0
  2429  01BF' 00A5'              	movwf	___flmul@f2+3
  2430  01C0' 1683               	bsf	3,5	;RP0=1, select bank3
  2431  01C1' 1703               	bsf	3,6	;RP1=1, select bank3
  2432  01C2' 0800'              	movf	(_F1+2)^(0+384),w
  2433  01C3' 1283               	bcf	3,5	;RP0=0, select bank0
  2434  01C4' 1303               	bcf	3,6	;RP1=0, select bank0
  2435  01C5' 00A4'              	movwf	___flmul@f2+2
  2436  01C6' 1683               	bsf	3,5	;RP0=1, select bank3
  2437  01C7' 1703               	bsf	3,6	;RP1=1, select bank3
  2438  01C8' 0800'              	movf	(_F1+1)^(0+384),w
  2439  01C9' 1283               	bcf	3,5	;RP0=0, select bank0
  2440  01CA' 1303               	bcf	3,6	;RP1=0, select bank0
  2441  01CB' 00A3'              	movwf	___flmul@f2+1
  2442  01CC' 1683               	bsf	3,5	;RP0=1, select bank3
  2443  01CD' 1703               	bsf	3,6	;RP1=1, select bank3
  2444  01CE' 0800'              	movf	_F1^(0+384),w
  2445  01CF' 1283               	bcf	3,5	;RP0=0, select bank0
  2446  01D0' 1303               	bcf	3,6	;RP1=0, select bank0
  2447  01D1' 00A2'              	movwf	___flmul@f2
  2448  01D2' 120A' 118A' 2000' 120A' 118A' 	fcall	___flmul
  2449  01D7' 1283               	bcf	3,5	;RP0=0, select bank0
  2450  01D8' 1303               	bcf	3,6	;RP1=0, select bank0
  2451  01D9' 0821'              	movf	?___flmul+3,w
  2452  01DA' 00BD'              	movwf	___fladd@f2+3
  2453  01DB' 0820'              	movf	?___flmul+2,w
  2454  01DC' 00BC'              	movwf	___fladd@f2+2
  2455  01DD' 081F'              	movf	?___flmul+1,w
  2456  01DE' 00BB'              	movwf	___fladd@f2+1
  2457  01DF' 081E'              	movf	?___flmul,w
  2458  01E0' 00BA'              	movwf	___fladd@f2
  2459  01E1' 120A' 118A' 2000' 120A' 118A' 	fcall	___fladd
  2460  01E6' 1283               	bcf	3,5	;RP0=0, select bank0
  2461  01E7' 1303               	bcf	3,6	;RP1=0, select bank0
  2462  01E8' 0839'              	movf	?___fladd+3,w
  2463  01E9' 1683               	bsf	3,5	;RP0=1, select bank1
  2464  01EA' 1303               	bcf	3,6	;RP1=0, select bank1
  2465  01EB' 0080'              	movwf	(_measure_inductance$815+3)^(0+128)
  2466  01EC' 1283               	bcf	3,5	;RP0=0, select bank0
  2467  01ED' 1303               	bcf	3,6	;RP1=0, select bank0
  2468  01EE' 0838'              	movf	?___fladd+2,w
  2469  01EF' 1683               	bsf	3,5	;RP0=1, select bank1
  2470  01F0' 1303               	bcf	3,6	;RP1=0, select bank1
  2471  01F1' 0080'              	movwf	(_measure_inductance$815+2)^(0+128)
  2472  01F2' 1283               	bcf	3,5	;RP0=0, select bank0
  2473  01F3' 1303               	bcf	3,6	;RP1=0, select bank0
  2474  01F4' 0837'              	movf	?___fladd+1,w
  2475  01F5' 1683               	bsf	3,5	;RP0=1, select bank1
  2476  01F6' 1303               	bcf	3,6	;RP1=0, select bank1
  2477  01F7' 0080'              	movwf	(_measure_inductance$815+1)^(0+128)
  2478  01F8' 1283               	bcf	3,5	;RP0=0, select bank0
  2479  01F9' 1303               	bcf	3,6	;RP1=0, select bank0
  2480  01FA' 0836'              	movf	?___fladd,w
  2481  01FB' 1683               	bsf	3,5	;RP0=1, select bank1
  2482  01FC' 1303               	bcf	3,6	;RP1=0, select bank1
  2483  01FD' 0080'              	movwf	_measure_inductance$815^(0+128)
  2484                           
  2485                           ;LC-meter.c: 486: numerator = ((F1 * F1) - (F3 * F3)) * ((F1 * F1) - (F2 - F2)) * (100 *
      +                           100);
  2486  01FE' 0800'              	movf	(_measure_inductance$814+3)^(0+128),w
  2487  01FF' 1283               	bcf	3,5	;RP0=0, select bank0
  2488  0200' 1303               	bcf	3,6	;RP1=0, select bank0
  2489  0201' 00A1'              	movwf	___flmul@f1+3
  2490  0202' 1683               	bsf	3,5	;RP0=1, select bank1
  2491  0203' 1303               	bcf	3,6	;RP1=0, select bank1
  2492  0204' 0800'              	movf	(_measure_inductance$814+2)^(0+128),w
  2493  0205' 1283               	bcf	3,5	;RP0=0, select bank0
  2494  0206' 1303               	bcf	3,6	;RP1=0, select bank0
  2495  0207' 00A0'              	movwf	___flmul@f1+2
  2496  0208' 1683               	bsf	3,5	;RP0=1, select bank1
  2497  0209' 1303               	bcf	3,6	;RP1=0, select bank1
  2498  020A' 0800'              	movf	(_measure_inductance$814+1)^(0+128),w
  2499  020B' 1283               	bcf	3,5	;RP0=0, select bank0
  2500  020C' 1303               	bcf	3,6	;RP1=0, select bank0
  2501  020D' 009F'              	movwf	___flmul@f1+1
  2502  020E' 1683               	bsf	3,5	;RP0=1, select bank1
  2503  020F' 1303               	bcf	3,6	;RP1=0, select bank1
  2504  0210' 0800'              	movf	_measure_inductance$814^(0+128),w
  2505  0211' 1283               	bcf	3,5	;RP0=0, select bank0
  2506  0212' 1303               	bcf	3,6	;RP1=0, select bank0
  2507  0213' 009E'              	movwf	___flmul@f1
  2508  0214' 1683               	bsf	3,5	;RP0=1, select bank1
  2509  0215' 1303               	bcf	3,6	;RP1=0, select bank1
  2510  0216' 0800'              	movf	(_measure_inductance$815+3)^(0+128),w
  2511  0217' 1283               	bcf	3,5	;RP0=0, select bank0
  2512  0218' 1303               	bcf	3,6	;RP1=0, select bank0
  2513  0219' 00A5'              	movwf	___flmul@f2+3
  2514  021A' 1683               	bsf	3,5	;RP0=1, select bank1
  2515  021B' 1303               	bcf	3,6	;RP1=0, select bank1
  2516  021C' 0800'              	movf	(_measure_inductance$815+2)^(0+128),w
  2517  021D' 1283               	bcf	3,5	;RP0=0, select bank0
  2518  021E' 1303               	bcf	3,6	;RP1=0, select bank0
  2519  021F' 00A4'              	movwf	___flmul@f2+2
  2520  0220' 1683               	bsf	3,5	;RP0=1, select bank1
  2521  0221' 1303               	bcf	3,6	;RP1=0, select bank1
  2522  0222' 0800'              	movf	(_measure_inductance$815+1)^(0+128),w
  2523  0223' 1283               	bcf	3,5	;RP0=0, select bank0
  2524  0224' 1303               	bcf	3,6	;RP1=0, select bank0
  2525  0225' 00A3'              	movwf	___flmul@f2+1
  2526  0226' 1683               	bsf	3,5	;RP0=1, select bank1
  2527  0227' 1303               	bcf	3,6	;RP1=0, select bank1
  2528  0228' 0800'              	movf	_measure_inductance$815^(0+128),w
  2529  0229' 1283               	bcf	3,5	;RP0=0, select bank0
  2530  022A' 1303               	bcf	3,6	;RP1=0, select bank0
  2531  022B' 00A2'              	movwf	___flmul@f2
  2532  022C' 120A' 118A' 2000' 120A' 118A' 	fcall	___flmul
  2533  0231' 1283               	bcf	3,5	;RP0=0, select bank0
  2534  0232' 1303               	bcf	3,6	;RP1=0, select bank0
  2535  0233' 0821'              	movf	?___flmul+3,w
  2536  0234' 1683               	bsf	3,5	;RP0=1, select bank1
  2537  0235' 1303               	bcf	3,6	;RP1=0, select bank1
  2538  0236' 0080'              	movwf	(_measure_inductance$816+3)^(0+128)
  2539  0237' 1283               	bcf	3,5	;RP0=0, select bank0
  2540  0238' 1303               	bcf	3,6	;RP1=0, select bank0
  2541  0239' 0820'              	movf	?___flmul+2,w
  2542  023A' 1683               	bsf	3,5	;RP0=1, select bank1
  2543  023B' 1303               	bcf	3,6	;RP1=0, select bank1
  2544  023C' 0080'              	movwf	(_measure_inductance$816+2)^(0+128)
  2545  023D' 1283               	bcf	3,5	;RP0=0, select bank0
  2546  023E' 1303               	bcf	3,6	;RP1=0, select bank0
  2547  023F' 081F'              	movf	?___flmul+1,w
  2548  0240' 1683               	bsf	3,5	;RP0=1, select bank1
  2549  0241' 1303               	bcf	3,6	;RP1=0, select bank1
  2550  0242' 0080'              	movwf	(_measure_inductance$816+1)^(0+128)
  2551  0243' 1283               	bcf	3,5	;RP0=0, select bank0
  2552  0244' 1303               	bcf	3,6	;RP1=0, select bank0
  2553  0245' 081E'              	movf	?___flmul,w
  2554  0246' 1683               	bsf	3,5	;RP0=1, select bank1
  2555  0247' 1303               	bcf	3,6	;RP1=0, select bank1
  2556  0248' 0080'              	movwf	_measure_inductance$816^(0+128)
  2557                           
  2558                           ;LC-meter.c: 486: numerator = ((F1 * F1) - (F3 * F3)) * ((F1 * F1) - (F2 - F2)) * (100 *
      +                           100);
  2559  0249' 3046               	movlw	70
  2560  024A' 1283               	bcf	3,5	;RP0=0, select bank0
  2561  024B' 1303               	bcf	3,6	;RP1=0, select bank0
  2562  024C' 00A1'              	movwf	___flmul@f1+3
  2563  024D' 301C               	movlw	28
  2564  024E' 00A0'              	movwf	___flmul@f1+2
  2565  024F' 3040               	movlw	64
  2566  0250' 009F'              	movwf	___flmul@f1+1
  2567  0251' 3000               	movlw	0
  2568  0252' 009E'              	movwf	___flmul@f1
  2569  0253' 1683               	bsf	3,5	;RP0=1, select bank1
  2570  0254' 1303               	bcf	3,6	;RP1=0, select bank1
  2571  0255' 0800'              	movf	(_measure_inductance$816+3)^(0+128),w
  2572  0256' 1283               	bcf	3,5	;RP0=0, select bank0
  2573  0257' 1303               	bcf	3,6	;RP1=0, select bank0
  2574  0258' 00A5'              	movwf	___flmul@f2+3
  2575  0259' 1683               	bsf	3,5	;RP0=1, select bank1
  2576  025A' 1303               	bcf	3,6	;RP1=0, select bank1
  2577  025B' 0800'              	movf	(_measure_inductance$816+2)^(0+128),w
  2578  025C' 1283               	bcf	3,5	;RP0=0, select bank0
  2579  025D' 1303               	bcf	3,6	;RP1=0, select bank0
  2580  025E' 00A4'              	movwf	___flmul@f2+2
  2581  025F' 1683               	bsf	3,5	;RP0=1, select bank1
  2582  0260' 1303               	bcf	3,6	;RP1=0, select bank1
  2583  0261' 0800'              	movf	(_measure_inductance$816+1)^(0+128),w
  2584  0262' 1283               	bcf	3,5	;RP0=0, select bank0
  2585  0263' 1303               	bcf	3,6	;RP1=0, select bank0
  2586  0264' 00A3'              	movwf	___flmul@f2+1
  2587  0265' 1683               	bsf	3,5	;RP0=1, select bank1
  2588  0266' 1303               	bcf	3,6	;RP1=0, select bank1
  2589  0267' 0800'              	movf	_measure_inductance$816^(0+128),w
  2590  0268' 1283               	bcf	3,5	;RP0=0, select bank0
  2591  0269' 1303               	bcf	3,6	;RP1=0, select bank0
  2592  026A' 00A2'              	movwf	___flmul@f2
  2593  026B' 120A' 118A' 2000' 120A' 118A' 	fcall	___flmul
  2594  0270' 1283               	bcf	3,5	;RP0=0, select bank0
  2595  0271' 1303               	bcf	3,6	;RP1=0, select bank0
  2596  0272' 0821'              	movf	?___flmul+3,w
  2597  0273' 1683               	bsf	3,5	;RP0=1, select bank1
  2598  0274' 1303               	bcf	3,6	;RP1=0, select bank1
  2599  0275' 0080'              	movwf	(measure_inductance@numerator+3)^(0+128)
  2600  0276' 1283               	bcf	3,5	;RP0=0, select bank0
  2601  0277' 1303               	bcf	3,6	;RP1=0, select bank0
  2602  0278' 0820'              	movf	?___flmul+2,w
  2603  0279' 1683               	bsf	3,5	;RP0=1, select bank1
  2604  027A' 1303               	bcf	3,6	;RP1=0, select bank1
  2605  027B' 0080'              	movwf	(measure_inductance@numerator+2)^(0+128)
  2606  027C' 1283               	bcf	3,5	;RP0=0, select bank0
  2607  027D' 1303               	bcf	3,6	;RP1=0, select bank0
  2608  027E' 081F'              	movf	?___flmul+1,w
  2609  027F' 1683               	bsf	3,5	;RP0=1, select bank1
  2610  0280' 1303               	bcf	3,6	;RP1=0, select bank1
  2611  0281' 0080'              	movwf	(measure_inductance@numerator+1)^(0+128)
  2612  0282' 1283               	bcf	3,5	;RP0=0, select bank0
  2613  0283' 1303               	bcf	3,6	;RP1=0, select bank0
  2614  0284' 081E'              	movf	?___flmul,w
  2615  0285' 1683               	bsf	3,5	;RP0=1, select bank1
  2616  0286' 1303               	bcf	3,6	;RP1=0, select bank1
  2617  0287' 0080'              	movwf	measure_inductance@numerator^(0+128)
  2618                           
  2619                           ;LC-meter.c: 488: denominator = 4 * 3.14159265358979323846l * 3.14159265358979323846l * 
      +                          F1 * F1 * F2 * F2 * F3 * F3 * CCal;
  2620  0288' 1683               	bsf	3,5	;RP0=1, select bank3
  2621  0289' 1703               	bsf	3,6	;RP1=1, select bank3
  2622  028A' 0800'              	movf	(_F1+3)^(0+384),w
  2623  028B' 1283               	bcf	3,5	;RP0=0, select bank0
  2624  028C' 1303               	bcf	3,6	;RP1=0, select bank0
  2625  028D' 00A1'              	movwf	___flmul@f1+3
  2626  028E' 1683               	bsf	3,5	;RP0=1, select bank3
  2627  028F' 1703               	bsf	3,6	;RP1=1, select bank3
  2628  0290' 0800'              	movf	(_F1+2)^(0+384),w
  2629  0291' 1283               	bcf	3,5	;RP0=0, select bank0
  2630  0292' 1303               	bcf	3,6	;RP1=0, select bank0
  2631  0293' 00A0'              	movwf	___flmul@f1+2
  2632  0294' 1683               	bsf	3,5	;RP0=1, select bank3
  2633  0295' 1703               	bsf	3,6	;RP1=1, select bank3
  2634  0296' 0800'              	movf	(_F1+1)^(0+384),w
  2635  0297' 1283               	bcf	3,5	;RP0=0, select bank0
  2636  0298' 1303               	bcf	3,6	;RP1=0, select bank0
  2637  0299' 009F'              	movwf	___flmul@f1+1
  2638  029A' 1683               	bsf	3,5	;RP0=1, select bank3
  2639  029B' 1703               	bsf	3,6	;RP1=1, select bank3
  2640  029C' 0800'              	movf	_F1^(0+384),w
  2641  029D' 1283               	bcf	3,5	;RP0=0, select bank0
  2642  029E' 1303               	bcf	3,6	;RP1=0, select bank0
  2643  029F' 009E'              	movwf	___flmul@f1
  2644  02A0' 1683               	bsf	3,5	;RP0=1, select bank3
  2645  02A1' 1703               	bsf	3,6	;RP1=1, select bank3
  2646  02A2' 0800'              	movf	(_F1+3)^(0+384),w
  2647  02A3' 1283               	bcf	3,5	;RP0=0, select bank0
  2648  02A4' 1303               	bcf	3,6	;RP1=0, select bank0
  2649  02A5' 00A5'              	movwf	___flmul@f2+3
  2650  02A6' 1683               	bsf	3,5	;RP0=1, select bank3
  2651  02A7' 1703               	bsf	3,6	;RP1=1, select bank3
  2652  02A8' 0800'              	movf	(_F1+2)^(0+384),w
  2653  02A9' 1283               	bcf	3,5	;RP0=0, select bank0
  2654  02AA' 1303               	bcf	3,6	;RP1=0, select bank0
  2655  02AB' 00A4'              	movwf	___flmul@f2+2
  2656  02AC' 1683               	bsf	3,5	;RP0=1, select bank3
  2657  02AD' 1703               	bsf	3,6	;RP1=1, select bank3
  2658  02AE' 0800'              	movf	(_F1+1)^(0+384),w
  2659  02AF' 1283               	bcf	3,5	;RP0=0, select bank0
  2660  02B0' 1303               	bcf	3,6	;RP1=0, select bank0
  2661  02B1' 00A3'              	movwf	___flmul@f2+1
  2662  02B2' 1683               	bsf	3,5	;RP0=1, select bank3
  2663  02B3' 1703               	bsf	3,6	;RP1=1, select bank3
  2664  02B4' 0800'              	movf	_F1^(0+384),w
  2665  02B5' 1283               	bcf	3,5	;RP0=0, select bank0
  2666  02B6' 1303               	bcf	3,6	;RP1=0, select bank0
  2667  02B7' 00A2'              	movwf	___flmul@f2
  2668  02B8' 120A' 118A' 2000' 120A' 118A' 	fcall	___flmul
  2669  02BD' 1283               	bcf	3,5	;RP0=0, select bank0
  2670  02BE' 1303               	bcf	3,6	;RP1=0, select bank0
  2671  02BF' 0821'              	movf	?___flmul+3,w
  2672  02C0' 1683               	bsf	3,5	;RP0=1, select bank1
  2673  02C1' 1303               	bcf	3,6	;RP1=0, select bank1
  2674  02C2' 0080'              	movwf	(_measure_inductance$817+3)^(0+128)
  2675  02C3' 1283               	bcf	3,5	;RP0=0, select bank0
  2676  02C4' 1303               	bcf	3,6	;RP1=0, select bank0
  2677  02C5' 0820'              	movf	?___flmul+2,w
  2678  02C6' 1683               	bsf	3,5	;RP0=1, select bank1
  2679  02C7' 1303               	bcf	3,6	;RP1=0, select bank1
  2680  02C8' 0080'              	movwf	(_measure_inductance$817+2)^(0+128)
  2681  02C9' 1283               	bcf	3,5	;RP0=0, select bank0
  2682  02CA' 1303               	bcf	3,6	;RP1=0, select bank0
  2683  02CB' 081F'              	movf	?___flmul+1,w
  2684  02CC' 1683               	bsf	3,5	;RP0=1, select bank1
  2685  02CD' 1303               	bcf	3,6	;RP1=0, select bank1
  2686  02CE' 0080'              	movwf	(_measure_inductance$817+1)^(0+128)
  2687  02CF' 1283               	bcf	3,5	;RP0=0, select bank0
  2688  02D0' 1303               	bcf	3,6	;RP1=0, select bank0
  2689  02D1' 081E'              	movf	?___flmul,w
  2690  02D2' 1683               	bsf	3,5	;RP0=1, select bank1
  2691  02D3' 1303               	bcf	3,6	;RP1=0, select bank1
  2692  02D4' 0080'              	movwf	_measure_inductance$817^(0+128)
  2693                           
  2694                           ;LC-meter.c: 488: denominator = 4 * 3.14159265358979323846l * 3.14159265358979323846l * 
      +                          F1 * F1 * F2 * F2 * F3 * F3 * CCal;
  2695  02D5' 1683               	bsf	3,5	;RP0=1, select bank3
  2696  02D6' 1703               	bsf	3,6	;RP1=1, select bank3
  2697  02D7' 0800'              	movf	(_F2+3)^(0+384),w
  2698  02D8' 1283               	bcf	3,5	;RP0=0, select bank0
  2699  02D9' 1303               	bcf	3,6	;RP1=0, select bank0
  2700  02DA' 00A1'              	movwf	___flmul@f1+3
  2701  02DB' 1683               	bsf	3,5	;RP0=1, select bank3
  2702  02DC' 1703               	bsf	3,6	;RP1=1, select bank3
  2703  02DD' 0800'              	movf	(_F2+2)^(0+384),w
  2704  02DE' 1283               	bcf	3,5	;RP0=0, select bank0
  2705  02DF' 1303               	bcf	3,6	;RP1=0, select bank0
  2706  02E0' 00A0'              	movwf	___flmul@f1+2
  2707  02E1' 1683               	bsf	3,5	;RP0=1, select bank3
  2708  02E2' 1703               	bsf	3,6	;RP1=1, select bank3
  2709  02E3' 0800'              	movf	(_F2+1)^(0+384),w
  2710  02E4' 1283               	bcf	3,5	;RP0=0, select bank0
  2711  02E5' 1303               	bcf	3,6	;RP1=0, select bank0
  2712  02E6' 009F'              	movwf	___flmul@f1+1
  2713  02E7' 1683               	bsf	3,5	;RP0=1, select bank3
  2714  02E8' 1703               	bsf	3,6	;RP1=1, select bank3
  2715  02E9' 0800'              	movf	_F2^(0+384),w
  2716  02EA' 1283               	bcf	3,5	;RP0=0, select bank0
  2717  02EB' 1303               	bcf	3,6	;RP1=0, select bank0
  2718  02EC' 009E'              	movwf	___flmul@f1
  2719  02ED' 1683               	bsf	3,5	;RP0=1, select bank1
  2720  02EE' 1303               	bcf	3,6	;RP1=0, select bank1
  2721  02EF' 0800'              	movf	(_measure_inductance$817+3)^(0+128),w
  2722  02F0' 1283               	bcf	3,5	;RP0=0, select bank0
  2723  02F1' 1303               	bcf	3,6	;RP1=0, select bank0
  2724  02F2' 00A5'              	movwf	___flmul@f2+3
  2725  02F3' 1683               	bsf	3,5	;RP0=1, select bank1
  2726  02F4' 1303               	bcf	3,6	;RP1=0, select bank1
  2727  02F5' 0800'              	movf	(_measure_inductance$817+2)^(0+128),w
  2728  02F6' 1283               	bcf	3,5	;RP0=0, select bank0
  2729  02F7' 1303               	bcf	3,6	;RP1=0, select bank0
  2730  02F8' 00A4'              	movwf	___flmul@f2+2
  2731  02F9' 1683               	bsf	3,5	;RP0=1, select bank1
  2732  02FA' 1303               	bcf	3,6	;RP1=0, select bank1
  2733  02FB' 0800'              	movf	(_measure_inductance$817+1)^(0+128),w
  2734  02FC' 1283               	bcf	3,5	;RP0=0, select bank0
  2735  02FD' 1303               	bcf	3,6	;RP1=0, select bank0
  2736  02FE' 00A3'              	movwf	___flmul@f2+1
  2737  02FF' 1683               	bsf	3,5	;RP0=1, select bank1
  2738  0300' 1303               	bcf	3,6	;RP1=0, select bank1
  2739  0301' 0800'              	movf	_measure_inductance$817^(0+128),w
  2740  0302' 1283               	bcf	3,5	;RP0=0, select bank0
  2741  0303' 1303               	bcf	3,6	;RP1=0, select bank0
  2742  0304' 00A2'              	movwf	___flmul@f2
  2743  0305' 120A' 118A' 2000' 120A' 118A' 	fcall	___flmul
  2744  030A' 1283               	bcf	3,5	;RP0=0, select bank0
  2745  030B' 1303               	bcf	3,6	;RP1=0, select bank0
  2746  030C' 0821'              	movf	?___flmul+3,w
  2747  030D' 1683               	bsf	3,5	;RP0=1, select bank1
  2748  030E' 1303               	bcf	3,6	;RP1=0, select bank1
  2749  030F' 0080'              	movwf	(_measure_inductance$814+3)^(0+128)
  2750  0310' 1283               	bcf	3,5	;RP0=0, select bank0
  2751  0311' 1303               	bcf	3,6	;RP1=0, select bank0
  2752  0312' 0820'              	movf	?___flmul+2,w
  2753  0313' 1683               	bsf	3,5	;RP0=1, select bank1
  2754  0314' 1303               	bcf	3,6	;RP1=0, select bank1
  2755  0315' 0080'              	movwf	(_measure_inductance$814+2)^(0+128)
  2756  0316' 1283               	bcf	3,5	;RP0=0, select bank0
  2757  0317' 1303               	bcf	3,6	;RP1=0, select bank0
  2758  0318' 081F'              	movf	?___flmul+1,w
  2759  0319' 1683               	bsf	3,5	;RP0=1, select bank1
  2760  031A' 1303               	bcf	3,6	;RP1=0, select bank1
  2761  031B' 0080'              	movwf	(_measure_inductance$814+1)^(0+128)
  2762  031C' 1283               	bcf	3,5	;RP0=0, select bank0
  2763  031D' 1303               	bcf	3,6	;RP1=0, select bank0
  2764  031E' 081E'              	movf	?___flmul,w
  2765  031F' 1683               	bsf	3,5	;RP0=1, select bank1
  2766  0320' 1303               	bcf	3,6	;RP1=0, select bank1
  2767  0321' 0080'              	movwf	_measure_inductance$814^(0+128)
  2768                           
  2769                           ;LC-meter.c: 488: denominator = 4 * 3.14159265358979323846l * 3.14159265358979323846l * 
      +                          F1 * F1 * F2 * F2 * F3 * F3 * CCal;
  2770  0322' 1683               	bsf	3,5	;RP0=1, select bank3
  2771  0323' 1703               	bsf	3,6	;RP1=1, select bank3
  2772  0324' 0800'              	movf	(_F2+3)^(0+384),w
  2773  0325' 1283               	bcf	3,5	;RP0=0, select bank0
  2774  0326' 1303               	bcf	3,6	;RP1=0, select bank0
  2775  0327' 00A1'              	movwf	___flmul@f1+3
  2776  0328' 1683               	bsf	3,5	;RP0=1, select bank3
  2777  0329' 1703               	bsf	3,6	;RP1=1, select bank3
  2778  032A' 0800'              	movf	(_F2+2)^(0+384),w
  2779  032B' 1283               	bcf	3,5	;RP0=0, select bank0
  2780  032C' 1303               	bcf	3,6	;RP1=0, select bank0
  2781  032D' 00A0'              	movwf	___flmul@f1+2
  2782  032E' 1683               	bsf	3,5	;RP0=1, select bank3
  2783  032F' 1703               	bsf	3,6	;RP1=1, select bank3
  2784  0330' 0800'              	movf	(_F2+1)^(0+384),w
  2785  0331' 1283               	bcf	3,5	;RP0=0, select bank0
  2786  0332' 1303               	bcf	3,6	;RP1=0, select bank0
  2787  0333' 009F'              	movwf	___flmul@f1+1
  2788  0334' 1683               	bsf	3,5	;RP0=1, select bank3
  2789  0335' 1703               	bsf	3,6	;RP1=1, select bank3
  2790  0336' 0800'              	movf	_F2^(0+384),w
  2791  0337' 1283               	bcf	3,5	;RP0=0, select bank0
  2792  0338' 1303               	bcf	3,6	;RP1=0, select bank0
  2793  0339' 009E'              	movwf	___flmul@f1
  2794  033A' 1683               	bsf	3,5	;RP0=1, select bank1
  2795  033B' 1303               	bcf	3,6	;RP1=0, select bank1
  2796  033C' 0800'              	movf	(_measure_inductance$814+3)^(0+128),w
  2797  033D' 1283               	bcf	3,5	;RP0=0, select bank0
  2798  033E' 1303               	bcf	3,6	;RP1=0, select bank0
  2799  033F' 00A5'              	movwf	___flmul@f2+3
  2800  0340' 1683               	bsf	3,5	;RP0=1, select bank1
  2801  0341' 1303               	bcf	3,6	;RP1=0, select bank1
  2802  0342' 0800'              	movf	(_measure_inductance$814+2)^(0+128),w
  2803  0343' 1283               	bcf	3,5	;RP0=0, select bank0
  2804  0344' 1303               	bcf	3,6	;RP1=0, select bank0
  2805  0345' 00A4'              	movwf	___flmul@f2+2
  2806  0346' 1683               	bsf	3,5	;RP0=1, select bank1
  2807  0347' 1303               	bcf	3,6	;RP1=0, select bank1
  2808  0348' 0800'              	movf	(_measure_inductance$814+1)^(0+128),w
  2809  0349' 1283               	bcf	3,5	;RP0=0, select bank0
  2810  034A' 1303               	bcf	3,6	;RP1=0, select bank0
  2811  034B' 00A3'              	movwf	___flmul@f2+1
  2812  034C' 1683               	bsf	3,5	;RP0=1, select bank1
  2813  034D' 1303               	bcf	3,6	;RP1=0, select bank1
  2814  034E' 0800'              	movf	_measure_inductance$814^(0+128),w
  2815  034F' 1283               	bcf	3,5	;RP0=0, select bank0
  2816  0350' 1303               	bcf	3,6	;RP1=0, select bank0
  2817  0351' 00A2'              	movwf	___flmul@f2
  2818  0352' 120A' 118A' 2000' 120A' 118A' 	fcall	___flmul
  2819  0357' 1283               	bcf	3,5	;RP0=0, select bank0
  2820  0358' 1303               	bcf	3,6	;RP1=0, select bank0
  2821  0359' 0821'              	movf	?___flmul+3,w
  2822  035A' 1683               	bsf	3,5	;RP0=1, select bank1
  2823  035B' 1303               	bcf	3,6	;RP1=0, select bank1
  2824  035C' 0080'              	movwf	(_measure_inductance$815+3)^(0+128)
  2825  035D' 1283               	bcf	3,5	;RP0=0, select bank0
  2826  035E' 1303               	bcf	3,6	;RP1=0, select bank0
  2827  035F' 0820'              	movf	?___flmul+2,w
  2828  0360' 1683               	bsf	3,5	;RP0=1, select bank1
  2829  0361' 1303               	bcf	3,6	;RP1=0, select bank1
  2830  0362' 0080'              	movwf	(_measure_inductance$815+2)^(0+128)
  2831  0363' 1283               	bcf	3,5	;RP0=0, select bank0
  2832  0364' 1303               	bcf	3,6	;RP1=0, select bank0
  2833  0365' 081F'              	movf	?___flmul+1,w
  2834  0366' 1683               	bsf	3,5	;RP0=1, select bank1
  2835  0367' 1303               	bcf	3,6	;RP1=0, select bank1
  2836  0368' 0080'              	movwf	(_measure_inductance$815+1)^(0+128)
  2837  0369' 1283               	bcf	3,5	;RP0=0, select bank0
  2838  036A' 1303               	bcf	3,6	;RP1=0, select bank0
  2839  036B' 081E'              	movf	?___flmul,w
  2840  036C' 1683               	bsf	3,5	;RP0=1, select bank1
  2841  036D' 1303               	bcf	3,6	;RP1=0, select bank1
  2842  036E' 0080'              	movwf	_measure_inductance$815^(0+128)
  2843                           
  2844                           ;LC-meter.c: 488: denominator = 4 * 3.14159265358979323846l * 3.14159265358979323846l * 
      +                          F1 * F1 * F2 * F2 * F3 * F3 * CCal;
  2845  036F' 1683               	bsf	3,5	;RP0=1, select bank3
  2846  0370' 1703               	bsf	3,6	;RP1=1, select bank3
  2847  0371' 0800'              	movf	(_F3+3)^(0+384),w
  2848  0372' 1283               	bcf	3,5	;RP0=0, select bank0
  2849  0373' 1303               	bcf	3,6	;RP1=0, select bank0
  2850  0374' 00A1'              	movwf	___flmul@f1+3
  2851  0375' 1683               	bsf	3,5	;RP0=1, select bank3
  2852  0376' 1703               	bsf	3,6	;RP1=1, select bank3
  2853  0377' 0800'              	movf	(_F3+2)^(0+384),w
  2854  0378' 1283               	bcf	3,5	;RP0=0, select bank0
  2855  0379' 1303               	bcf	3,6	;RP1=0, select bank0
  2856  037A' 00A0'              	movwf	___flmul@f1+2
  2857  037B' 1683               	bsf	3,5	;RP0=1, select bank3
  2858  037C' 1703               	bsf	3,6	;RP1=1, select bank3
  2859  037D' 0800'              	movf	(_F3+1)^(0+384),w
  2860  037E' 1283               	bcf	3,5	;RP0=0, select bank0
  2861  037F' 1303               	bcf	3,6	;RP1=0, select bank0
  2862  0380' 009F'              	movwf	___flmul@f1+1
  2863  0381' 1683               	bsf	3,5	;RP0=1, select bank3
  2864  0382' 1703               	bsf	3,6	;RP1=1, select bank3
  2865  0383' 0800'              	movf	_F3^(0+384),w
  2866  0384' 1283               	bcf	3,5	;RP0=0, select bank0
  2867  0385' 1303               	bcf	3,6	;RP1=0, select bank0
  2868  0386' 009E'              	movwf	___flmul@f1
  2869  0387' 1683               	bsf	3,5	;RP0=1, select bank1
  2870  0388' 1303               	bcf	3,6	;RP1=0, select bank1
  2871  0389' 0800'              	movf	(_measure_inductance$815+3)^(0+128),w
  2872  038A' 1283               	bcf	3,5	;RP0=0, select bank0
  2873  038B' 1303               	bcf	3,6	;RP1=0, select bank0
  2874  038C' 00A5'              	movwf	___flmul@f2+3
  2875  038D' 1683               	bsf	3,5	;RP0=1, select bank1
  2876  038E' 1303               	bcf	3,6	;RP1=0, select bank1
  2877  038F' 0800'              	movf	(_measure_inductance$815+2)^(0+128),w
  2878  0390' 1283               	bcf	3,5	;RP0=0, select bank0
  2879  0391' 1303               	bcf	3,6	;RP1=0, select bank0
  2880  0392' 00A4'              	movwf	___flmul@f2+2
  2881  0393' 1683               	bsf	3,5	;RP0=1, select bank1
  2882  0394' 1303               	bcf	3,6	;RP1=0, select bank1
  2883  0395' 0800'              	movf	(_measure_inductance$815+1)^(0+128),w
  2884  0396' 1283               	bcf	3,5	;RP0=0, select bank0
  2885  0397' 1303               	bcf	3,6	;RP1=0, select bank0
  2886  0398' 00A3'              	movwf	___flmul@f2+1
  2887  0399' 1683               	bsf	3,5	;RP0=1, select bank1
  2888  039A' 1303               	bcf	3,6	;RP1=0, select bank1
  2889  039B' 0800'              	movf	_measure_inductance$815^(0+128),w
  2890  039C' 1283               	bcf	3,5	;RP0=0, select bank0
  2891  039D' 1303               	bcf	3,6	;RP1=0, select bank0
  2892  039E' 00A2'              	movwf	___flmul@f2
  2893  039F' 120A' 118A' 2000' 120A' 118A' 	fcall	___flmul
  2894  03A4' 1283               	bcf	3,5	;RP0=0, select bank0
  2895  03A5' 1303               	bcf	3,6	;RP1=0, select bank0
  2896  03A6' 0821'              	movf	?___flmul+3,w
  2897  03A7' 1683               	bsf	3,5	;RP0=1, select bank1
  2898  03A8' 1303               	bcf	3,6	;RP1=0, select bank1
  2899  03A9' 0080'              	movwf	(_measure_inductance$816+3)^(0+128)
  2900  03AA' 1283               	bcf	3,5	;RP0=0, select bank0
  2901  03AB' 1303               	bcf	3,6	;RP1=0, select bank0
  2902  03AC' 0820'              	movf	?___flmul+2,w
  2903  03AD' 1683               	bsf	3,5	;RP0=1, select bank1
  2904  03AE' 1303               	bcf	3,6	;RP1=0, select bank1
  2905  03AF' 0080'              	movwf	(_measure_inductance$816+2)^(0+128)
  2906  03B0' 1283               	bcf	3,5	;RP0=0, select bank0
  2907  03B1' 1303               	bcf	3,6	;RP1=0, select bank0
  2908  03B2' 081F'              	movf	?___flmul+1,w
  2909  03B3' 1683               	bsf	3,5	;RP0=1, select bank1
  2910  03B4' 1303               	bcf	3,6	;RP1=0, select bank1
  2911  03B5' 0080'              	movwf	(_measure_inductance$816+1)^(0+128)
  2912  03B6' 1283               	bcf	3,5	;RP0=0, select bank0
  2913  03B7' 1303               	bcf	3,6	;RP1=0, select bank0
  2914  03B8' 081E'              	movf	?___flmul,w
  2915  03B9' 1683               	bsf	3,5	;RP0=1, select bank1
  2916  03BA' 1303               	bcf	3,6	;RP1=0, select bank1
  2917  03BB' 0080'              	movwf	_measure_inductance$816^(0+128)
  2918                           
  2919                           ;LC-meter.c: 488: denominator = 4 * 3.14159265358979323846l * 3.14159265358979323846l * 
      +                          F1 * F1 * F2 * F2 * F3 * F3 * CCal;
  2920  03BC' 1683               	bsf	3,5	;RP0=1, select bank3
  2921  03BD' 1703               	bsf	3,6	;RP1=1, select bank3
  2922  03BE' 0800'              	movf	(_F3+3)^(0+384),w
  2923  03BF' 1283               	bcf	3,5	;RP0=0, select bank0
  2924  03C0' 1303               	bcf	3,6	;RP1=0, select bank0
  2925  03C1' 00A1'              	movwf	___flmul@f1+3
  2926  03C2' 1683               	bsf	3,5	;RP0=1, select bank3
  2927  03C3' 1703               	bsf	3,6	;RP1=1, select bank3
  2928  03C4' 0800'              	movf	(_F3+2)^(0+384),w
  2929  03C5' 1283               	bcf	3,5	;RP0=0, select bank0
  2930  03C6' 1303               	bcf	3,6	;RP1=0, select bank0
  2931  03C7' 00A0'              	movwf	___flmul@f1+2
  2932  03C8' 1683               	bsf	3,5	;RP0=1, select bank3
  2933  03C9' 1703               	bsf	3,6	;RP1=1, select bank3
  2934  03CA' 0800'              	movf	(_F3+1)^(0+384),w
  2935  03CB' 1283               	bcf	3,5	;RP0=0, select bank0
  2936  03CC' 1303               	bcf	3,6	;RP1=0, select bank0
  2937  03CD' 009F'              	movwf	___flmul@f1+1
  2938  03CE' 1683               	bsf	3,5	;RP0=1, select bank3
  2939  03CF' 1703               	bsf	3,6	;RP1=1, select bank3
  2940  03D0' 0800'              	movf	_F3^(0+384),w
  2941  03D1' 1283               	bcf	3,5	;RP0=0, select bank0
  2942  03D2' 1303               	bcf	3,6	;RP1=0, select bank0
  2943  03D3' 009E'              	movwf	___flmul@f1
  2944  03D4' 1683               	bsf	3,5	;RP0=1, select bank1
  2945  03D5' 1303               	bcf	3,6	;RP1=0, select bank1
  2946  03D6' 0800'              	movf	(_measure_inductance$816+3)^(0+128),w
  2947  03D7' 1283               	bcf	3,5	;RP0=0, select bank0
  2948  03D8' 1303               	bcf	3,6	;RP1=0, select bank0
  2949  03D9' 00A5'              	movwf	___flmul@f2+3
  2950  03DA' 1683               	bsf	3,5	;RP0=1, select bank1
  2951  03DB' 1303               	bcf	3,6	;RP1=0, select bank1
  2952  03DC' 0800'              	movf	(_measure_inductance$816+2)^(0+128),w
  2953  03DD' 1283               	bcf	3,5	;RP0=0, select bank0
  2954  03DE' 1303               	bcf	3,6	;RP1=0, select bank0
  2955  03DF' 00A4'              	movwf	___flmul@f2+2
  2956  03E0' 1683               	bsf	3,5	;RP0=1, select bank1
  2957  03E1' 1303               	bcf	3,6	;RP1=0, select bank1
  2958  03E2' 0800'              	movf	(_measure_inductance$816+1)^(0+128),w
  2959  03E3' 1283               	bcf	3,5	;RP0=0, select bank0
  2960  03E4' 1303               	bcf	3,6	;RP1=0, select bank0
  2961  03E5' 00A3'              	movwf	___flmul@f2+1
  2962  03E6' 1683               	bsf	3,5	;RP0=1, select bank1
  2963  03E7' 1303               	bcf	3,6	;RP1=0, select bank1
  2964  03E8' 0800'              	movf	_measure_inductance$816^(0+128),w
  2965  03E9' 1283               	bcf	3,5	;RP0=0, select bank0
  2966  03EA' 1303               	bcf	3,6	;RP1=0, select bank0
  2967  03EB' 00A2'              	movwf	___flmul@f2
  2968  03EC' 120A' 118A' 2000' 120A' 118A' 	fcall	___flmul
  2969  03F1' 1283               	bcf	3,5	;RP0=0, select bank0
  2970  03F2' 1303               	bcf	3,6	;RP1=0, select bank0
  2971  03F3' 0821'              	movf	?___flmul+3,w
  2972  03F4' 1683               	bsf	3,5	;RP0=1, select bank1
  2973  03F5' 1303               	bcf	3,6	;RP1=0, select bank1
  2974  03F6' 0080'              	movwf	(_measure_inductance$818+3)^(0+128)
  2975  03F7' 1283               	bcf	3,5	;RP0=0, select bank0
  2976  03F8' 1303               	bcf	3,6	;RP1=0, select bank0
  2977  03F9' 0820'              	movf	?___flmul+2,w
  2978  03FA' 1683               	bsf	3,5	;RP0=1, select bank1
  2979  03FB' 1303               	bcf	3,6	;RP1=0, select bank1
  2980  03FC' 0080'              	movwf	(_measure_inductance$818+2)^(0+128)
  2981  03FD' 1283               	bcf	3,5	;RP0=0, select bank0
  2982  03FE' 1303               	bcf	3,6	;RP1=0, select bank0
  2983  03FF' 081F'              	movf	?___flmul+1,w
  2984  0400' 1683               	bsf	3,5	;RP0=1, select bank1
  2985  0401' 1303               	bcf	3,6	;RP1=0, select bank1
  2986  0402' 0080'              	movwf	(_measure_inductance$818+1)^(0+128)
  2987  0403' 1283               	bcf	3,5	;RP0=0, select bank0
  2988  0404' 1303               	bcf	3,6	;RP1=0, select bank0
  2989  0405' 081E'              	movf	?___flmul,w
  2990  0406' 1683               	bsf	3,5	;RP0=1, select bank1
  2991  0407' 1303               	bcf	3,6	;RP1=0, select bank1
  2992  0408' 0080'              	movwf	_measure_inductance$818^(0+128)
  2993                           
  2994                           ;LC-meter.c: 488: denominator = 4 * 3.14159265358979323846l * 3.14159265358979323846l * 
      +                          F1 * F1 * F2 * F2 * F3 * F3 * CCal;
  2995  0409' 1683               	bsf	3,5	;RP0=1, select bank3
  2996  040A' 1703               	bsf	3,6	;RP1=1, select bank3
  2997  040B' 0800'              	movf	(_CCal+3)^(0+384),w
  2998  040C' 1283               	bcf	3,5	;RP0=0, select bank0
  2999  040D' 1303               	bcf	3,6	;RP1=0, select bank0
  3000  040E' 00A1'              	movwf	___flmul@f1+3
  3001  040F' 1683               	bsf	3,5	;RP0=1, select bank3
  3002  0410' 1703               	bsf	3,6	;RP1=1, select bank3
  3003  0411' 0800'              	movf	(_CCal+2)^(0+384),w
  3004  0412' 1283               	bcf	3,5	;RP0=0, select bank0
  3005  0413' 1303               	bcf	3,6	;RP1=0, select bank0
  3006  0414' 00A0'              	movwf	___flmul@f1+2
  3007  0415' 1683               	bsf	3,5	;RP0=1, select bank3
  3008  0416' 1703               	bsf	3,6	;RP1=1, select bank3
  3009  0417' 0800'              	movf	(_CCal+1)^(0+384),w
  3010  0418' 1283               	bcf	3,5	;RP0=0, select bank0
  3011  0419' 1303               	bcf	3,6	;RP1=0, select bank0
  3012  041A' 009F'              	movwf	___flmul@f1+1
  3013  041B' 1683               	bsf	3,5	;RP0=1, select bank3
  3014  041C' 1703               	bsf	3,6	;RP1=1, select bank3
  3015  041D' 0800'              	movf	_CCal^(0+384),w
  3016  041E' 1283               	bcf	3,5	;RP0=0, select bank0
  3017  041F' 1303               	bcf	3,6	;RP1=0, select bank0
  3018  0420' 009E'              	movwf	___flmul@f1
  3019  0421' 1683               	bsf	3,5	;RP0=1, select bank1
  3020  0422' 1303               	bcf	3,6	;RP1=0, select bank1
  3021  0423' 0800'              	movf	(_measure_inductance$818+3)^(0+128),w
  3022  0424' 1283               	bcf	3,5	;RP0=0, select bank0
  3023  0425' 1303               	bcf	3,6	;RP1=0, select bank0
  3024  0426' 00A5'              	movwf	___flmul@f2+3
  3025  0427' 1683               	bsf	3,5	;RP0=1, select bank1
  3026  0428' 1303               	bcf	3,6	;RP1=0, select bank1
  3027  0429' 0800'              	movf	(_measure_inductance$818+2)^(0+128),w
  3028  042A' 1283               	bcf	3,5	;RP0=0, select bank0
  3029  042B' 1303               	bcf	3,6	;RP1=0, select bank0
  3030  042C' 00A4'              	movwf	___flmul@f2+2
  3031  042D' 1683               	bsf	3,5	;RP0=1, select bank1
  3032  042E' 1303               	bcf	3,6	;RP1=0, select bank1
  3033  042F' 0800'              	movf	(_measure_inductance$818+1)^(0+128),w
  3034  0430' 1283               	bcf	3,5	;RP0=0, select bank0
  3035  0431' 1303               	bcf	3,6	;RP1=0, select bank0
  3036  0432' 00A3'              	movwf	___flmul@f2+1
  3037  0433' 1683               	bsf	3,5	;RP0=1, select bank1
  3038  0434' 1303               	bcf	3,6	;RP1=0, select bank1
  3039  0435' 0800'              	movf	_measure_inductance$818^(0+128),w
  3040  0436' 1283               	bcf	3,5	;RP0=0, select bank0
  3041  0437' 1303               	bcf	3,6	;RP1=0, select bank0
  3042  0438' 00A2'              	movwf	___flmul@f2
  3043  0439' 120A' 118A' 2000' 120A' 118A' 	fcall	___flmul
  3044  043E' 1283               	bcf	3,5	;RP0=0, select bank0
  3045  043F' 1303               	bcf	3,6	;RP1=0, select bank0
  3046  0440' 0821'              	movf	?___flmul+3,w
  3047  0441' 1683               	bsf	3,5	;RP0=1, select bank1
  3048  0442' 1303               	bcf	3,6	;RP1=0, select bank1
  3049  0443' 0080'              	movwf	(_measure_inductance$819+3)^(0+128)
  3050  0444' 1283               	bcf	3,5	;RP0=0, select bank0
  3051  0445' 1303               	bcf	3,6	;RP1=0, select bank0
  3052  0446' 0820'              	movf	?___flmul+2,w
  3053  0447' 1683               	bsf	3,5	;RP0=1, select bank1
  3054  0448' 1303               	bcf	3,6	;RP1=0, select bank1
  3055  0449' 0080'              	movwf	(_measure_inductance$819+2)^(0+128)
  3056  044A' 1283               	bcf	3,5	;RP0=0, select bank0
  3057  044B' 1303               	bcf	3,6	;RP1=0, select bank0
  3058  044C' 081F'              	movf	?___flmul+1,w
  3059  044D' 1683               	bsf	3,5	;RP0=1, select bank1
  3060  044E' 1303               	bcf	3,6	;RP1=0, select bank1
  3061  044F' 0080'              	movwf	(_measure_inductance$819+1)^(0+128)
  3062  0450' 1283               	bcf	3,5	;RP0=0, select bank0
  3063  0451' 1303               	bcf	3,6	;RP1=0, select bank0
  3064  0452' 081E'              	movf	?___flmul,w
  3065  0453' 1683               	bsf	3,5	;RP0=1, select bank1
  3066  0454' 1303               	bcf	3,6	;RP1=0, select bank1
  3067  0455' 0080'              	movwf	_measure_inductance$819^(0+128)
  3068                           
  3069                           ;LC-meter.c: 488: denominator = 4 * 3.14159265358979323846l * 3.14159265358979323846l * 
      +                          F1 * F1 * F2 * F2 * F3 * F3 * CCal;
  3070  0456' 3042               	movlw	66
  3071  0457' 1283               	bcf	3,5	;RP0=0, select bank0
  3072  0458' 1303               	bcf	3,6	;RP1=0, select bank0
  3073  0459' 00A1'              	movwf	___flmul@f1+3
  3074  045A' 301D               	movlw	29
  3075  045B' 00A0'              	movwf	___flmul@f1+2
  3076  045C' 30E9               	movlw	233
  3077  045D' 009F'              	movwf	___flmul@f1+1
  3078  045E' 30E6               	movlw	230
  3079  045F' 009E'              	movwf	___flmul@f1
  3080  0460' 1683               	bsf	3,5	;RP0=1, select bank1
  3081  0461' 1303               	bcf	3,6	;RP1=0, select bank1
  3082  0462' 0800'              	movf	(_measure_inductance$819+3)^(0+128),w
  3083  0463' 1283               	bcf	3,5	;RP0=0, select bank0
  3084  0464' 1303               	bcf	3,6	;RP1=0, select bank0
  3085  0465' 00A5'              	movwf	___flmul@f2+3
  3086  0466' 1683               	bsf	3,5	;RP0=1, select bank1
  3087  0467' 1303               	bcf	3,6	;RP1=0, select bank1
  3088  0468' 0800'              	movf	(_measure_inductance$819+2)^(0+128),w
  3089  0469' 1283               	bcf	3,5	;RP0=0, select bank0
  3090  046A' 1303               	bcf	3,6	;RP1=0, select bank0
  3091  046B' 00A4'              	movwf	___flmul@f2+2
  3092  046C' 1683               	bsf	3,5	;RP0=1, select bank1
  3093  046D' 1303               	bcf	3,6	;RP1=0, select bank1
  3094  046E' 0800'              	movf	(_measure_inductance$819+1)^(0+128),w
  3095  046F' 1283               	bcf	3,5	;RP0=0, select bank0
  3096  0470' 1303               	bcf	3,6	;RP1=0, select bank0
  3097  0471' 00A3'              	movwf	___flmul@f2+1
  3098  0472' 1683               	bsf	3,5	;RP0=1, select bank1
  3099  0473' 1303               	bcf	3,6	;RP1=0, select bank1
  3100  0474' 0800'              	movf	_measure_inductance$819^(0+128),w
  3101  0475' 1283               	bcf	3,5	;RP0=0, select bank0
  3102  0476' 1303               	bcf	3,6	;RP1=0, select bank0
  3103  0477' 00A2'              	movwf	___flmul@f2
  3104  0478' 120A' 118A' 2000' 120A' 118A' 	fcall	___flmul
  3105  047D' 1283               	bcf	3,5	;RP0=0, select bank0
  3106  047E' 1303               	bcf	3,6	;RP1=0, select bank0
  3107  047F' 0821'              	movf	?___flmul+3,w
  3108  0480' 1683               	bsf	3,5	;RP0=1, select bank1
  3109  0481' 1303               	bcf	3,6	;RP1=0, select bank1
  3110  0482' 0080'              	movwf	(measure_inductance@denominator+3)^(0+128)
  3111  0483' 1283               	bcf	3,5	;RP0=0, select bank0
  3112  0484' 1303               	bcf	3,6	;RP1=0, select bank0
  3113  0485' 0820'              	movf	?___flmul+2,w
  3114  0486' 1683               	bsf	3,5	;RP0=1, select bank1
  3115  0487' 1303               	bcf	3,6	;RP1=0, select bank1
  3116  0488' 0080'              	movwf	(measure_inductance@denominator+2)^(0+128)
  3117  0489' 1283               	bcf	3,5	;RP0=0, select bank0
  3118  048A' 1303               	bcf	3,6	;RP1=0, select bank0
  3119  048B' 081F'              	movf	?___flmul+1,w
  3120  048C' 1683               	bsf	3,5	;RP0=1, select bank1
  3121  048D' 1303               	bcf	3,6	;RP1=0, select bank1
  3122  048E' 0080'              	movwf	(measure_inductance@denominator+1)^(0+128)
  3123  048F' 1283               	bcf	3,5	;RP0=0, select bank0
  3124  0490' 1303               	bcf	3,6	;RP1=0, select bank0
  3125  0491' 081E'              	movf	?___flmul,w
  3126  0492' 1683               	bsf	3,5	;RP0=1, select bank1
  3127  0493' 1303               	bcf	3,6	;RP1=0, select bank1
  3128  0494' 0080'              	movwf	measure_inductance@denominator^(0+128)
  3129                           
  3130                           ;LC-meter.c: 490: Lin = (numerator / denominator) * 1e+15l;
  3131  0495' 3058               	movlw	88
  3132  0496' 1283               	bcf	3,5	;RP0=0, select bank0
  3133  0497' 1303               	bcf	3,6	;RP1=0, select bank0
  3134  0498' 00A1'              	movwf	___flmul@f1+3
  3135  0499' 3063               	movlw	99
  3136  049A' 00A0'              	movwf	___flmul@f1+2
  3137  049B' 305F               	movlw	95
  3138  049C' 009F'              	movwf	___flmul@f1+1
  3139  049D' 30A9               	movlw	169
  3140  049E' 009E'              	movwf	___flmul@f1
  3141  049F' 1683               	bsf	3,5	;RP0=1, select bank1
  3142  04A0' 1303               	bcf	3,6	;RP1=0, select bank1
  3143  04A1' 0800'              	movf	(measure_inductance@denominator+3)^(0+128),w
  3144  04A2' 1283               	bcf	3,5	;RP0=0, select bank0
  3145  04A3' 1303               	bcf	3,6	;RP1=0, select bank0
  3146  04A4' 008D'              	movwf	___fldiv@f2+3
  3147  04A5' 1683               	bsf	3,5	;RP0=1, select bank1
  3148  04A6' 1303               	bcf	3,6	;RP1=0, select bank1
  3149  04A7' 0800'              	movf	(measure_inductance@denominator+2)^(0+128),w
  3150  04A8' 1283               	bcf	3,5	;RP0=0, select bank0
  3151  04A9' 1303               	bcf	3,6	;RP1=0, select bank0
  3152  04AA' 008C'              	movwf	___fldiv@f2+2
  3153  04AB' 1683               	bsf	3,5	;RP0=1, select bank1
  3154  04AC' 1303               	bcf	3,6	;RP1=0, select bank1
  3155  04AD' 0800'              	movf	(measure_inductance@denominator+1)^(0+128),w
  3156  04AE' 1283               	bcf	3,5	;RP0=0, select bank0
  3157  04AF' 1303               	bcf	3,6	;RP1=0, select bank0
  3158  04B0' 008B'              	movwf	___fldiv@f2+1
  3159  04B1' 1683               	bsf	3,5	;RP0=1, select bank1
  3160  04B2' 1303               	bcf	3,6	;RP1=0, select bank1
  3161  04B3' 0800'              	movf	measure_inductance@denominator^(0+128),w
  3162  04B4' 1283               	bcf	3,5	;RP0=0, select bank0
  3163  04B5' 1303               	bcf	3,6	;RP1=0, select bank0
  3164  04B6' 008A'              	movwf	___fldiv@f2
  3165  04B7' 1683               	bsf	3,5	;RP0=1, select bank1
  3166  04B8' 1303               	bcf	3,6	;RP1=0, select bank1
  3167  04B9' 0800'              	movf	(measure_inductance@numerator+3)^(0+128),w
  3168  04BA' 1283               	bcf	3,5	;RP0=0, select bank0
  3169  04BB' 1303               	bcf	3,6	;RP1=0, select bank0
  3170  04BC' 0091'              	movwf	___fldiv@f1+3
  3171  04BD' 1683               	bsf	3,5	;RP0=1, select bank1
  3172  04BE' 1303               	bcf	3,6	;RP1=0, select bank1
  3173  04BF' 0800'              	movf	(measure_inductance@numerator+2)^(0+128),w
  3174  04C0' 1283               	bcf	3,5	;RP0=0, select bank0
  3175  04C1' 1303               	bcf	3,6	;RP1=0, select bank0
  3176  04C2' 0090'              	movwf	___fldiv@f1+2
  3177  04C3' 1683               	bsf	3,5	;RP0=1, select bank1
  3178  04C4' 1303               	bcf	3,6	;RP1=0, select bank1
  3179  04C5' 0800'              	movf	(measure_inductance@numerator+1)^(0+128),w
  3180  04C6' 1283               	bcf	3,5	;RP0=0, select bank0
  3181  04C7' 1303               	bcf	3,6	;RP1=0, select bank0
  3182  04C8' 008F'              	movwf	___fldiv@f1+1
  3183  04C9' 1683               	bsf	3,5	;RP0=1, select bank1
  3184  04CA' 1303               	bcf	3,6	;RP1=0, select bank1
  3185  04CB' 0800'              	movf	measure_inductance@numerator^(0+128),w
  3186  04CC' 1283               	bcf	3,5	;RP0=0, select bank0
  3187  04CD' 1303               	bcf	3,6	;RP1=0, select bank0
  3188  04CE' 008E'              	movwf	___fldiv@f1
  3189  04CF' 120A' 118A' 2000' 120A' 118A' 	fcall	___fldiv
  3190  04D4' 1283               	bcf	3,5	;RP0=0, select bank0
  3191  04D5' 1303               	bcf	3,6	;RP1=0, select bank0
  3192  04D6' 080D'              	movf	?___fldiv+3,w
  3193  04D7' 00A5'              	movwf	___flmul@f2+3
  3194  04D8' 080C'              	movf	?___fldiv+2,w
  3195  04D9' 00A4'              	movwf	___flmul@f2+2
  3196  04DA' 080B'              	movf	?___fldiv+1,w
  3197  04DB' 00A3'              	movwf	___flmul@f2+1
  3198  04DC' 080A'              	movf	?___fldiv,w
  3199  04DD' 00A2'              	movwf	___flmul@f2
  3200  04DE' 120A' 118A' 2000' 120A' 118A' 	fcall	___flmul
  3201  04E3' 1283               	bcf	3,5	;RP0=0, select bank0
  3202  04E4' 1303               	bcf	3,6	;RP1=0, select bank0
  3203  04E5' 0821'              	movf	?___flmul+3,w
  3204  04E6' 1683               	bsf	3,5	;RP0=1, select bank1
  3205  04E7' 1303               	bcf	3,6	;RP1=0, select bank1
  3206  04E8' 0080'              	movwf	(measure_inductance@Lin+3)^(0+128)
  3207  04E9' 1283               	bcf	3,5	;RP0=0, select bank0
  3208  04EA' 1303               	bcf	3,6	;RP1=0, select bank0
  3209  04EB' 0820'              	movf	?___flmul+2,w
  3210  04EC' 1683               	bsf	3,5	;RP0=1, select bank1
  3211  04ED' 1303               	bcf	3,6	;RP1=0, select bank1
  3212  04EE' 0080'              	movwf	(measure_inductance@Lin+2)^(0+128)
  3213  04EF' 1283               	bcf	3,5	;RP0=0, select bank0
  3214  04F0' 1303               	bcf	3,6	;RP1=0, select bank0
  3215  04F1' 081F'              	movf	?___flmul+1,w
  3216  04F2' 1683               	bsf	3,5	;RP0=1, select bank1
  3217  04F3' 1303               	bcf	3,6	;RP1=0, select bank1
  3218  04F4' 0080'              	movwf	(measure_inductance@Lin+1)^(0+128)
  3219  04F5' 1283               	bcf	3,5	;RP0=0, select bank0
  3220  04F6' 1303               	bcf	3,6	;RP1=0, select bank0
  3221  04F7' 081E'              	movf	?___flmul,w
  3222  04F8' 1683               	bsf	3,5	;RP0=1, select bank1
  3223  04F9' 1303               	bcf	3,6	;RP1=0, select bank1
  3224  04FA' 0080'              	movwf	measure_inductance@Lin^(0+128)
  3225                           
  3226                           ;LC-meter.c: 492: if(Lin > 999) {
  3227  04FB' 3044               	movlw	68
  3228  04FC' 1283               	bcf	3,5	;RP0=0, select bank0
  3229  04FD' 1303               	bcf	3,6	;RP1=0, select bank0
  3230  04FE' 0083'              	movwf	___flge@ff1+3
  3231  04FF' 3079               	movlw	121
  3232  0500' 0082'              	movwf	___flge@ff1+2
  3233  0501' 30C0               	movlw	192
  3234  0502' 0081'              	movwf	___flge@ff1+1
  3235  0503' 3000               	movlw	0
  3236  0504' 0080'              	movwf	___flge@ff1
  3237  0505' 1683               	bsf	3,5	;RP0=1, select bank1
  3238  0506' 1303               	bcf	3,6	;RP1=0, select bank1
  3239  0507' 0800'              	movf	(measure_inductance@Lin+3)^(0+128),w
  3240  0508' 1283               	bcf	3,5	;RP0=0, select bank0
  3241  0509' 1303               	bcf	3,6	;RP1=0, select bank0
  3242  050A' 0087'              	movwf	___flge@ff2+3
  3243  050B' 1683               	bsf	3,5	;RP0=1, select bank1
  3244  050C' 1303               	bcf	3,6	;RP1=0, select bank1
  3245  050D' 0800'              	movf	(measure_inductance@Lin+2)^(0+128),w
  3246  050E' 1283               	bcf	3,5	;RP0=0, select bank0
  3247  050F' 1303               	bcf	3,6	;RP1=0, select bank0
  3248  0510' 0086'              	movwf	___flge@ff2+2
  3249  0511' 1683               	bsf	3,5	;RP0=1, select bank1
  3250  0512' 1303               	bcf	3,6	;RP1=0, select bank1
  3251  0513' 0800'              	movf	(measure_inductance@Lin+1)^(0+128),w
  3252  0514' 1283               	bcf	3,5	;RP0=0, select bank0
  3253  0515' 1303               	bcf	3,6	;RP1=0, select bank0
  3254  0516' 0085'              	movwf	___flge@ff2+1
  3255  0517' 1683               	bsf	3,5	;RP0=1, select bank1
  3256  0518' 1303               	bcf	3,6	;RP1=0, select bank1
  3257  0519' 0800'              	movf	measure_inductance@Lin^(0+128),w
  3258  051A' 1283               	bcf	3,5	;RP0=0, select bank0
  3259  051B' 1303               	bcf	3,6	;RP1=0, select bank0
  3260  051C' 0084'              	movwf	___flge@ff2
  3261  051D' 120A' 118A' 2000' 120A' 118A' 	fcall	___flge
  3262  0522' 1803               	btfsc	3,0
  3263  0523' 2800'              	goto	l4244
  3264                           
  3265                           ;LC-meter.c: 493: if(Lin > (999e+03l)) {
  3266  0524' 3049               	movlw	73
  3267  0525' 1283               	bcf	3,5	;RP0=0, select bank0
  3268  0526' 1303               	bcf	3,6	;RP1=0, select bank0
  3269  0527' 0083'              	movwf	___flge@ff1+3
  3270  0528' 3073               	movlw	115
  3271  0529' 0082'              	movwf	___flge@ff1+2
  3272  052A' 30E5               	movlw	229
  3273  052B' 0081'              	movwf	___flge@ff1+1
  3274  052C' 3080               	movlw	128
  3275  052D' 0080'              	movwf	___flge@ff1
  3276  052E' 1683               	bsf	3,5	;RP0=1, select bank1
  3277  052F' 1303               	bcf	3,6	;RP1=0, select bank1
  3278  0530' 0800'              	movf	(measure_inductance@Lin+3)^(0+128),w
  3279  0531' 1283               	bcf	3,5	;RP0=0, select bank0
  3280  0532' 1303               	bcf	3,6	;RP1=0, select bank0
  3281  0533' 0087'              	movwf	___flge@ff2+3
  3282  0534' 1683               	bsf	3,5	;RP0=1, select bank1
  3283  0535' 1303               	bcf	3,6	;RP1=0, select bank1
  3284  0536' 0800'              	movf	(measure_inductance@Lin+2)^(0+128),w
  3285  0537' 1283               	bcf	3,5	;RP0=0, select bank0
  3286  0538' 1303               	bcf	3,6	;RP1=0, select bank0
  3287  0539' 0086'              	movwf	___flge@ff2+2
  3288  053A' 1683               	bsf	3,5	;RP0=1, select bank1
  3289  053B' 1303               	bcf	3,6	;RP1=0, select bank1
  3290  053C' 0800'              	movf	(measure_inductance@Lin+1)^(0+128),w
  3291  053D' 1283               	bcf	3,5	;RP0=0, select bank0
  3292  053E' 1303               	bcf	3,6	;RP1=0, select bank0
  3293  053F' 0085'              	movwf	___flge@ff2+1
  3294  0540' 1683               	bsf	3,5	;RP0=1, select bank1
  3295  0541' 1303               	bcf	3,6	;RP1=0, select bank1
  3296  0542' 0800'              	movf	measure_inductance@Lin^(0+128),w
  3297  0543' 1283               	bcf	3,5	;RP0=0, select bank0
  3298  0544' 1303               	bcf	3,6	;RP1=0, select bank0
  3299  0545' 0084'              	movwf	___flge@ff2
  3300  0546' 120A' 118A' 2000' 120A' 118A' 	fcall	___flge
  3301  054B' 1803               	btfsc	3,0
  3302  054C' 2800'              	goto	l4240
  3303                           
  3304                           ;LC-meter.c: 494: if(Lin > (999e+06l)) {
  3305  054D' 304E               	movlw	78
  3306  054E' 1283               	bcf	3,5	;RP0=0, select bank0
  3307  054F' 1303               	bcf	3,6	;RP1=0, select bank0
  3308  0550' 0083'              	movwf	___flge@ff1+3
  3309  0551' 306E               	movlw	110
  3310  0552' 0082'              	movwf	___flge@ff1+2
  3311  0553' 302E               	movlw	46
  3312  0554' 0081'              	movwf	___flge@ff1+1
  3313  0555' 301F               	movlw	31
  3314  0556' 0080'              	movwf	___flge@ff1
  3315  0557' 1683               	bsf	3,5	;RP0=1, select bank1
  3316  0558' 1303               	bcf	3,6	;RP1=0, select bank1
  3317  0559' 0800'              	movf	(measure_inductance@Lin+3)^(0+128),w
  3318  055A' 1283               	bcf	3,5	;RP0=0, select bank0
  3319  055B' 1303               	bcf	3,6	;RP1=0, select bank0
  3320  055C' 0087'              	movwf	___flge@ff2+3
  3321  055D' 1683               	bsf	3,5	;RP0=1, select bank1
  3322  055E' 1303               	bcf	3,6	;RP1=0, select bank1
  3323  055F' 0800'              	movf	(measure_inductance@Lin+2)^(0+128),w
  3324  0560' 1283               	bcf	3,5	;RP0=0, select bank0
  3325  0561' 1303               	bcf	3,6	;RP1=0, select bank0
  3326  0562' 0086'              	movwf	___flge@ff2+2
  3327  0563' 1683               	bsf	3,5	;RP0=1, select bank1
  3328  0564' 1303               	bcf	3,6	;RP1=0, select bank1
  3329  0565' 0800'              	movf	(measure_inductance@Lin+1)^(0+128),w
  3330  0566' 1283               	bcf	3,5	;RP0=0, select bank0
  3331  0567' 1303               	bcf	3,6	;RP1=0, select bank0
  3332  0568' 0085'              	movwf	___flge@ff2+1
  3333  0569' 1683               	bsf	3,5	;RP0=1, select bank1
  3334  056A' 1303               	bcf	3,6	;RP1=0, select bank1
  3335  056B' 0800'              	movf	measure_inductance@Lin^(0+128),w
  3336  056C' 1283               	bcf	3,5	;RP0=0, select bank0
  3337  056D' 1303               	bcf	3,6	;RP1=0, select bank0
  3338  056E' 0084'              	movwf	___flge@ff2
  3339  056F' 120A' 118A' 2000' 120A' 118A' 	fcall	___flge
  3340  0574' 1803               	btfsc	3,0
  3341  0575' 2800'              	goto	l4236
  3342                           
  3343                           ;LC-meter.c: 495: Lin = Lin / (1e+09l);
  3344  0576' 304E               	movlw	78
  3345  0577' 1283               	bcf	3,5	;RP0=0, select bank0
  3346  0578' 1303               	bcf	3,6	;RP1=0, select bank0
  3347  0579' 008D'              	movwf	___fldiv@f2+3
  3348  057A' 306E               	movlw	110
  3349  057B' 008C'              	movwf	___fldiv@f2+2
  3350  057C' 306B               	movlw	107
  3351  057D' 008B'              	movwf	___fldiv@f2+1
  3352  057E' 3028               	movlw	40
  3353  057F' 008A'              	movwf	___fldiv@f2
  3354  0580' 1683               	bsf	3,5	;RP0=1, select bank1
  3355  0581' 1303               	bcf	3,6	;RP1=0, select bank1
  3356  0582' 0800'              	movf	(measure_inductance@Lin+3)^(0+128),w
  3357  0583' 1283               	bcf	3,5	;RP0=0, select bank0
  3358  0584' 1303               	bcf	3,6	;RP1=0, select bank0
  3359  0585' 0091'              	movwf	___fldiv@f1+3
  3360  0586' 1683               	bsf	3,5	;RP0=1, select bank1
  3361  0587' 1303               	bcf	3,6	;RP1=0, select bank1
  3362  0588' 0800'              	movf	(measure_inductance@Lin+2)^(0+128),w
  3363  0589' 1283               	bcf	3,5	;RP0=0, select bank0
  3364  058A' 1303               	bcf	3,6	;RP1=0, select bank0
  3365  058B' 0090'              	movwf	___fldiv@f1+2
  3366  058C' 1683               	bsf	3,5	;RP0=1, select bank1
  3367  058D' 1303               	bcf	3,6	;RP1=0, select bank1
  3368  058E' 0800'              	movf	(measure_inductance@Lin+1)^(0+128),w
  3369  058F' 1283               	bcf	3,5	;RP0=0, select bank0
  3370  0590' 1303               	bcf	3,6	;RP1=0, select bank0
  3371  0591' 008F'              	movwf	___fldiv@f1+1
  3372  0592' 1683               	bsf	3,5	;RP0=1, select bank1
  3373  0593' 1303               	bcf	3,6	;RP1=0, select bank1
  3374  0594' 0800'              	movf	measure_inductance@Lin^(0+128),w
  3375  0595' 1283               	bcf	3,5	;RP0=0, select bank0
  3376  0596' 1303               	bcf	3,6	;RP1=0, select bank0
  3377  0597' 008E'              	movwf	___fldiv@f1
  3378  0598' 120A' 118A' 2000' 120A' 118A' 	fcall	___fldiv
  3379  059D' 1283               	bcf	3,5	;RP0=0, select bank0
  3380  059E' 1303               	bcf	3,6	;RP1=0, select bank0
  3381  059F' 080D'              	movf	?___fldiv+3,w
  3382  05A0' 1683               	bsf	3,5	;RP0=1, select bank1
  3383  05A1' 1303               	bcf	3,6	;RP1=0, select bank1
  3384  05A2' 0080'              	movwf	(measure_inductance@Lin+3)^(0+128)
  3385  05A3' 1283               	bcf	3,5	;RP0=0, select bank0
  3386  05A4' 1303               	bcf	3,6	;RP1=0, select bank0
  3387  05A5' 080C'              	movf	?___fldiv+2,w
  3388  05A6' 1683               	bsf	3,5	;RP0=1, select bank1
  3389  05A7' 1303               	bcf	3,6	;RP1=0, select bank1
  3390  05A8' 0080'              	movwf	(measure_inductance@Lin+2)^(0+128)
  3391  05A9' 1283               	bcf	3,5	;RP0=0, select bank0
  3392  05AA' 1303               	bcf	3,6	;RP1=0, select bank0
  3393  05AB' 080B'              	movf	?___fldiv+1,w
  3394  05AC' 1683               	bsf	3,5	;RP0=1, select bank1
  3395  05AD' 1303               	bcf	3,6	;RP1=0, select bank1
  3396  05AE' 0080'              	movwf	(measure_inductance@Lin+1)^(0+128)
  3397  05AF' 1283               	bcf	3,5	;RP0=0, select bank0
  3398  05B0' 1303               	bcf	3,6	;RP1=0, select bank0
  3399  05B1' 080A'              	movf	?___fldiv,w
  3400  05B2' 1683               	bsf	3,5	;RP0=1, select bank1
  3401  05B3' 1303               	bcf	3,6	;RP1=0, select bank1
  3402  05B4' 0080'              	movwf	measure_inductance@Lin^(0+128)
  3403                           
  3404                           ;LC-meter.c: 496: unit = 0;
  3405  05B5' 0180'              	clrf	measure_inductance@unit^(0+128)
  3406                           
  3407                           ;LC-meter.c: 497: } else {
  3408  05B6' 2800'              	goto	l4246
  3409  05B7'                    l4236:	
  3410                           
  3411                           ;LC-meter.c: 498: Lin = Lin / (1e+06l);
  3412  05B7' 3049               	movlw	73
  3413  05B8' 1283               	bcf	3,5	;RP0=0, select bank0
  3414  05B9' 1303               	bcf	3,6	;RP1=0, select bank0
  3415  05BA' 008D'              	movwf	___fldiv@f2+3
  3416  05BB' 3074               	movlw	116
  3417  05BC' 008C'              	movwf	___fldiv@f2+2
  3418  05BD' 3024               	movlw	36
  3419  05BE' 008B'              	movwf	___fldiv@f2+1
  3420  05BF' 3000               	movlw	0
  3421  05C0' 008A'              	movwf	___fldiv@f2
  3422  05C1' 1683               	bsf	3,5	;RP0=1, select bank1
  3423  05C2' 1303               	bcf	3,6	;RP1=0, select bank1
  3424  05C3' 0800'              	movf	(measure_inductance@Lin+3)^(0+128),w
  3425  05C4' 1283               	bcf	3,5	;RP0=0, select bank0
  3426  05C5' 1303               	bcf	3,6	;RP1=0, select bank0
  3427  05C6' 0091'              	movwf	___fldiv@f1+3
  3428  05C7' 1683               	bsf	3,5	;RP0=1, select bank1
  3429  05C8' 1303               	bcf	3,6	;RP1=0, select bank1
  3430  05C9' 0800'              	movf	(measure_inductance@Lin+2)^(0+128),w
  3431  05CA' 1283               	bcf	3,5	;RP0=0, select bank0
  3432  05CB' 1303               	bcf	3,6	;RP1=0, select bank0
  3433  05CC' 0090'              	movwf	___fldiv@f1+2
  3434  05CD' 1683               	bsf	3,5	;RP0=1, select bank1
  3435  05CE' 1303               	bcf	3,6	;RP1=0, select bank1
  3436  05CF' 0800'              	movf	(measure_inductance@Lin+1)^(0+128),w
  3437  05D0' 1283               	bcf	3,5	;RP0=0, select bank0
  3438  05D1' 1303               	bcf	3,6	;RP1=0, select bank0
  3439  05D2' 008F'              	movwf	___fldiv@f1+1
  3440  05D3' 1683               	bsf	3,5	;RP0=1, select bank1
  3441  05D4' 1303               	bcf	3,6	;RP1=0, select bank1
  3442  05D5' 0800'              	movf	measure_inductance@Lin^(0+128),w
  3443  05D6' 1283               	bcf	3,5	;RP0=0, select bank0
  3444  05D7' 1303               	bcf	3,6	;RP1=0, select bank0
  3445  05D8' 008E'              	movwf	___fldiv@f1
  3446  05D9' 120A' 118A' 2000' 120A' 118A' 	fcall	___fldiv
  3447  05DE' 1283               	bcf	3,5	;RP0=0, select bank0
  3448  05DF' 1303               	bcf	3,6	;RP1=0, select bank0
  3449  05E0' 080D'              	movf	?___fldiv+3,w
  3450  05E1' 1683               	bsf	3,5	;RP0=1, select bank1
  3451  05E2' 1303               	bcf	3,6	;RP1=0, select bank1
  3452  05E3' 0080'              	movwf	(measure_inductance@Lin+3)^(0+128)
  3453  05E4' 1283               	bcf	3,5	;RP0=0, select bank0
  3454  05E5' 1303               	bcf	3,6	;RP1=0, select bank0
  3455  05E6' 080C'              	movf	?___fldiv+2,w
  3456  05E7' 1683               	bsf	3,5	;RP0=1, select bank1
  3457  05E8' 1303               	bcf	3,6	;RP1=0, select bank1
  3458  05E9' 0080'              	movwf	(measure_inductance@Lin+2)^(0+128)
  3459  05EA' 1283               	bcf	3,5	;RP0=0, select bank0
  3460  05EB' 1303               	bcf	3,6	;RP1=0, select bank0
  3461  05EC' 080B'              	movf	?___fldiv+1,w
  3462  05ED' 1683               	bsf	3,5	;RP0=1, select bank1
  3463  05EE' 1303               	bcf	3,6	;RP1=0, select bank1
  3464  05EF' 0080'              	movwf	(measure_inductance@Lin+1)^(0+128)
  3465  05F0' 1283               	bcf	3,5	;RP0=0, select bank0
  3466  05F1' 1303               	bcf	3,6	;RP1=0, select bank0
  3467  05F2' 080A'              	movf	?___fldiv,w
  3468  05F3' 1683               	bsf	3,5	;RP0=1, select bank1
  3469  05F4' 1303               	bcf	3,6	;RP1=0, select bank1
  3470  05F5' 0080'              	movwf	measure_inductance@Lin^(0+128)
  3471                           
  3472                           ;LC-meter.c: 499: unit = 1;
  3473  05F6' 0180'              	clrf	measure_inductance@unit^(0+128)
  3474  05F7' 0A80'              	incf	measure_inductance@unit^(0+128),f
  3475                           
  3476                           ;LC-meter.c: 500: }
  3477                           ;LC-meter.c: 501: } else {
  3478  05F8' 2800'              	goto	l4246
  3479  05F9'                    l4240:	
  3480                           
  3481                           ;LC-meter.c: 502: Lin = Lin / 1e+03l;
  3482  05F9' 3044               	movlw	68
  3483  05FA' 1283               	bcf	3,5	;RP0=0, select bank0
  3484  05FB' 1303               	bcf	3,6	;RP1=0, select bank0
  3485  05FC' 008D'              	movwf	___fldiv@f2+3
  3486  05FD' 307A               	movlw	122
  3487  05FE' 008C'              	movwf	___fldiv@f2+2
  3488  05FF' 3000               	movlw	0
  3489  0600' 008B'              	movwf	___fldiv@f2+1
  3490  0601' 3000               	movlw	0
  3491  0602' 008A'              	movwf	___fldiv@f2
  3492  0603' 1683               	bsf	3,5	;RP0=1, select bank1
  3493  0604' 1303               	bcf	3,6	;RP1=0, select bank1
  3494  0605' 0800'              	movf	(measure_inductance@Lin+3)^(0+128),w
  3495  0606' 1283               	bcf	3,5	;RP0=0, select bank0
  3496  0607' 1303               	bcf	3,6	;RP1=0, select bank0
  3497  0608' 0091'              	movwf	___fldiv@f1+3
  3498  0609' 1683               	bsf	3,5	;RP0=1, select bank1
  3499  060A' 1303               	bcf	3,6	;RP1=0, select bank1
  3500  060B' 0800'              	movf	(measure_inductance@Lin+2)^(0+128),w
  3501  060C' 1283               	bcf	3,5	;RP0=0, select bank0
  3502  060D' 1303               	bcf	3,6	;RP1=0, select bank0
  3503  060E' 0090'              	movwf	___fldiv@f1+2
  3504  060F' 1683               	bsf	3,5	;RP0=1, select bank1
  3505  0610' 1303               	bcf	3,6	;RP1=0, select bank1
  3506  0611' 0800'              	movf	(measure_inductance@Lin+1)^(0+128),w
  3507  0612' 1283               	bcf	3,5	;RP0=0, select bank0
  3508  0613' 1303               	bcf	3,6	;RP1=0, select bank0
  3509  0614' 008F'              	movwf	___fldiv@f1+1
  3510  0615' 1683               	bsf	3,5	;RP0=1, select bank1
  3511  0616' 1303               	bcf	3,6	;RP1=0, select bank1
  3512  0617' 0800'              	movf	measure_inductance@Lin^(0+128),w
  3513  0618' 1283               	bcf	3,5	;RP0=0, select bank0
  3514  0619' 1303               	bcf	3,6	;RP1=0, select bank0
  3515  061A' 008E'              	movwf	___fldiv@f1
  3516  061B' 120A' 118A' 2000' 120A' 118A' 	fcall	___fldiv
  3517  0620' 1283               	bcf	3,5	;RP0=0, select bank0
  3518  0621' 1303               	bcf	3,6	;RP1=0, select bank0
  3519  0622' 080D'              	movf	?___fldiv+3,w
  3520  0623' 1683               	bsf	3,5	;RP0=1, select bank1
  3521  0624' 1303               	bcf	3,6	;RP1=0, select bank1
  3522  0625' 0080'              	movwf	(measure_inductance@Lin+3)^(0+128)
  3523  0626' 1283               	bcf	3,5	;RP0=0, select bank0
  3524  0627' 1303               	bcf	3,6	;RP1=0, select bank0
  3525  0628' 080C'              	movf	?___fldiv+2,w
  3526  0629' 1683               	bsf	3,5	;RP0=1, select bank1
  3527  062A' 1303               	bcf	3,6	;RP1=0, select bank1
  3528  062B' 0080'              	movwf	(measure_inductance@Lin+2)^(0+128)
  3529  062C' 1283               	bcf	3,5	;RP0=0, select bank0
  3530  062D' 1303               	bcf	3,6	;RP1=0, select bank0
  3531  062E' 080B'              	movf	?___fldiv+1,w
  3532  062F' 1683               	bsf	3,5	;RP0=1, select bank1
  3533  0630' 1303               	bcf	3,6	;RP1=0, select bank1
  3534  0631' 0080'              	movwf	(measure_inductance@Lin+1)^(0+128)
  3535  0632' 1283               	bcf	3,5	;RP0=0, select bank0
  3536  0633' 1303               	bcf	3,6	;RP1=0, select bank0
  3537  0634' 080A'              	movf	?___fldiv,w
  3538  0635' 1683               	bsf	3,5	;RP0=1, select bank1
  3539  0636' 1303               	bcf	3,6	;RP1=0, select bank1
  3540  0637' 0080'              	movwf	measure_inductance@Lin^(0+128)
  3541                           
  3542                           ;LC-meter.c: 503: unit = 2;
  3543  0638' 3002               	movlw	2
  3544  0639' 2800'              	goto	L1
  3545  063A'                    l4244:	
  3546                           ;LC-meter.c: 504: }
  3547                           ;LC-meter.c: 505: } else
  3548                           
  3549                           
  3550                           ;LC-meter.c: 506: unit = 3;
  3551  063A' 3003               	movlw	3
  3552  063B' 1683               	bsf	3,5	;RP0=1, select bank1
  3553  063C' 1303               	bcf	3,6	;RP1=0, select bank1
  3554  063D'                    L1:	
  3555  063D' 0080'              	movwf	??_measure_inductance^(0+128)
  3556  063E' 0800'              	movf	??_measure_inductance^(0+128),w
  3557  063F' 0080'              	movwf	measure_inductance@unit^(0+128)
  3558  0640'                    l4246:	
  3559                           
  3560                           ;LC-meter.c: 508: Lin = Lin * 100;
  3561  0640' 3042               	movlw	66
  3562  0641' 1283               	bcf	3,5	;RP0=0, select bank0
  3563  0642' 1303               	bcf	3,6	;RP1=0, select bank0
  3564  0643' 00A1'              	movwf	___flmul@f1+3
  3565  0644' 30C8               	movlw	200
  3566  0645' 00A0'              	movwf	___flmul@f1+2
  3567  0646' 3000               	movlw	0
  3568  0647' 009F'              	movwf	___flmul@f1+1
  3569  0648' 3000               	movlw	0
  3570  0649' 009E'              	movwf	___flmul@f1
  3571  064A' 1683               	bsf	3,5	;RP0=1, select bank1
  3572  064B' 1303               	bcf	3,6	;RP1=0, select bank1
  3573  064C' 0800'              	movf	(measure_inductance@Lin+3)^(0+128),w
  3574  064D' 1283               	bcf	3,5	;RP0=0, select bank0
  3575  064E' 1303               	bcf	3,6	;RP1=0, select bank0
  3576  064F' 00A5'              	movwf	___flmul@f2+3
  3577  0650' 1683               	bsf	3,5	;RP0=1, select bank1
  3578  0651' 1303               	bcf	3,6	;RP1=0, select bank1
  3579  0652' 0800'              	movf	(measure_inductance@Lin+2)^(0+128),w
  3580  0653' 1283               	bcf	3,5	;RP0=0, select bank0
  3581  0654' 1303               	bcf	3,6	;RP1=0, select bank0
  3582  0655' 00A4'              	movwf	___flmul@f2+2
  3583  0656' 1683               	bsf	3,5	;RP0=1, select bank1
  3584  0657' 1303               	bcf	3,6	;RP1=0, select bank1
  3585  0658' 0800'              	movf	(measure_inductance@Lin+1)^(0+128),w
  3586  0659' 1283               	bcf	3,5	;RP0=0, select bank0
  3587  065A' 1303               	bcf	3,6	;RP1=0, select bank0
  3588  065B' 00A3'              	movwf	___flmul@f2+1
  3589  065C' 1683               	bsf	3,5	;RP0=1, select bank1
  3590  065D' 1303               	bcf	3,6	;RP1=0, select bank1
  3591  065E' 0800'              	movf	measure_inductance@Lin^(0+128),w
  3592  065F' 1283               	bcf	3,5	;RP0=0, select bank0
  3593  0660' 1303               	bcf	3,6	;RP1=0, select bank0
  3594  0661' 00A2'              	movwf	___flmul@f2
  3595  0662' 120A' 118A' 2000' 120A' 118A' 	fcall	___flmul
  3596  0667' 1283               	bcf	3,5	;RP0=0, select bank0
  3597  0668' 1303               	bcf	3,6	;RP1=0, select bank0
  3598  0669' 0821'              	movf	?___flmul+3,w
  3599  066A' 1683               	bsf	3,5	;RP0=1, select bank1
  3600  066B' 1303               	bcf	3,6	;RP1=0, select bank1
  3601  066C' 0080'              	movwf	(measure_inductance@Lin+3)^(0+128)
  3602  066D' 1283               	bcf	3,5	;RP0=0, select bank0
  3603  066E' 1303               	bcf	3,6	;RP1=0, select bank0
  3604  066F' 0820'              	movf	?___flmul+2,w
  3605  0670' 1683               	bsf	3,5	;RP0=1, select bank1
  3606  0671' 1303               	bcf	3,6	;RP1=0, select bank1
  3607  0672' 0080'              	movwf	(measure_inductance@Lin+2)^(0+128)
  3608  0673' 1283               	bcf	3,5	;RP0=0, select bank0
  3609  0674' 1303               	bcf	3,6	;RP1=0, select bank0
  3610  0675' 081F'              	movf	?___flmul+1,w
  3611  0676' 1683               	bsf	3,5	;RP0=1, select bank1
  3612  0677' 1303               	bcf	3,6	;RP1=0, select bank1
  3613  0678' 0080'              	movwf	(measure_inductance@Lin+1)^(0+128)
  3614  0679' 1283               	bcf	3,5	;RP0=0, select bank0
  3615  067A' 1303               	bcf	3,6	;RP1=0, select bank0
  3616  067B' 081E'              	movf	?___flmul,w
  3617  067C' 1683               	bsf	3,5	;RP0=1, select bank1
  3618  067D' 1303               	bcf	3,6	;RP1=0, select bank1
  3619  067E' 0080'              	movwf	measure_inductance@Lin^(0+128)
  3620                           
  3621                           ;LC-meter.c: 509: var = (unsigned short int)Lin;
  3622  067F' 0800'              	movf	(measure_inductance@Lin+3)^(0+128),w
  3623  0680' 0080'              	movwf	(___fltol@f1+3)^(0+128)
  3624  0681' 0800'              	movf	(measure_inductance@Lin+2)^(0+128),w
  3625  0682' 0080'              	movwf	(___fltol@f1+2)^(0+128)
  3626  0683' 0800'              	movf	(measure_inductance@Lin+1)^(0+128),w
  3627  0684' 0080'              	movwf	(___fltol@f1+1)^(0+128)
  3628  0685' 0800'              	movf	measure_inductance@Lin^(0+128),w
  3629  0686' 0080'              	movwf	___fltol@f1^(0+128)
  3630  0687' 120A' 118A' 2000' 120A' 118A' 	fcall	___fltol
  3631  068C' 1683               	bsf	3,5	;RP0=1, select bank1
  3632  068D' 1303               	bcf	3,6	;RP1=0, select bank1
  3633  068E' 0801'              	movf	(?___fltol^(0+128)+1),w
  3634  068F' 0080'              	movwf	(measure_inductance@var+1)^(0+128)
  3635  0690' 0800'              	movf	?___fltol^(0+128),w
  3636  0691' 0080'              	movwf	measure_inductance@var^(0+128)
  3637                           
  3638                           ;LC-meter.c: 511: print_reading(var);
  3639  0692' 0800'              	movf	(measure_inductance@var+1)^(0+128),w
  3640  0693' 1283               	bcf	3,5	;RP0=0, select bank0
  3641  0694' 1303               	bcf	3,6	;RP1=0, select bank0
  3642  0695' 0081'              	movwf	print_reading@measurement+1
  3643  0696' 1683               	bsf	3,5	;RP0=1, select bank1
  3644  0697' 1303               	bcf	3,6	;RP1=0, select bank1
  3645  0698' 0800'              	movf	measure_inductance@var^(0+128),w
  3646  0699' 1283               	bcf	3,5	;RP0=0, select bank0
  3647  069A' 1303               	bcf	3,6	;RP1=0, select bank0
  3648  069B' 0080'              	movwf	print_reading@measurement
  3649  069C' 120A' 118A' 2000' 120A' 118A' 	fcall	_print_reading
  3650                           
  3651                           ;LC-meter.c: 512: print_unit(unit);
  3652  06A1' 1683               	bsf	3,5	;RP0=1, select bank1
  3653  06A2' 1303               	bcf	3,6	;RP1=0, select bank1
  3654  06A3' 0800'              	movf	measure_inductance@unit^(0+128),w
  3655  06A4' 120A' 118A' 2000'  	fcall	_print_unit
  3656  06A7' 0008               	return
  3657  06A8'                    __end_of_measure_inductance:	
  3658                           
  3659                           	psect	text4
  3660  0000'                    __ptext4:	
  3661 ;; *************** function _measure_capacitance *****************
  3662 ;; Defined at:
  3663 ;;		line 392 in file "../../../src/LC-meter.c"
  3664 ;; Parameters:    Size  Location     Type
  3665 ;;		None
  3666 ;; Auto vars:     Size  Location     Type
  3667 ;;  Cin             4   52[BANK3 ] unsigned char 
  3668 ;;  var             2   50[BANK3 ] unsigned short 
  3669 ;;  unit            1   49[BANK3 ] unsigned char 
  3670 ;; Return value:  Size  Location     Type
  3671 ;;		None               void
  3672 ;; Registers used:
  3673 ;;		wreg, fsr0l, fsr0h, status,2, status,0, btemp+1, pclath, cstack
  3674 ;; Tracked objects:
  3675 ;;		On entry : 0/0
  3676 ;;		On exit  : 0/0
  3677 ;;		Unchanged: 0/0
  3678 ;; Data sizes:     COMMON   BANK0   BANK1   BANK3   BANK2
  3679 ;;      Params:         0       0       0       0       0
  3680 ;;      Locals:         0       0       0      19       0
  3681 ;;      Temps:          0       0       1       0       0
  3682 ;;      Totals:         0       0       1      19       0
  3683 ;;Total ram usage:       20 bytes
  3684 ;; Hardware stack levels used:    1
  3685 ;; Hardware stack levels required when called:    7
  3686 ;; This function calls:
  3687 ;;		___fladd
  3688 ;;		___fldiv
  3689 ;;		___flge
  3690 ;;		___flmul
  3691 ;;		___flneg
  3692 ;;		___fltol
  3693 ;;		___lwtofl
  3694 ;;		_format_double
  3695 ;;		_format_xint32
  3696 ;;		_measure_freq
  3697 ;;		_print_reading
  3698 ;;		_print_unit
  3699 ;;		_ser_putch
  3700 ;;		_ser_puts
  3701 ;; This function is called by:
  3702 ;;		_main
  3703 ;; This function uses a non-reentrant model
  3704 ;;
  3705                           
  3706                           
  3707                           ;psect for function _measure_capacitance
  3708  0000'                    _measure_capacitance:	
  3709                           
  3710                           ;LC-meter.c: 393: unsigned char unit;
  3711                           ;LC-meter.c: 394: unsigned short int var;
  3712                           ;LC-meter.c: 396: double Cin;
  3713                           ;LC-meter.c: 403: var = measure_freq();
  3714                           
  3715                           ;incstack = 0
  3716                           ; Regs used in _measure_capacitance: [wreg-fsr0h+status,2+status,0+btemp+1+pclath+cstack
      +                          ]
  3717  0000' 120A' 118A' 2000' 120A' 118A' 	fcall	_measure_freq
  3718  0005' 1283               	bcf	3,5	;RP0=0, select bank0
  3719  0006' 1303               	bcf	3,6	;RP1=0, select bank0
  3720  0007' 0801'              	movf	?_measure_freq+1,w
  3721  0008' 1683               	bsf	3,5	;RP0=1, select bank3
  3722  0009' 1703               	bsf	3,6	;RP1=1, select bank3
  3723  000A' 0080'              	movwf	(measure_capacitance@var+1)^(0+384)
  3724  000B' 1283               	bcf	3,5	;RP0=0, select bank0
  3725  000C' 1303               	bcf	3,6	;RP1=0, select bank0
  3726  000D' 0800'              	movf	?_measure_freq,w
  3727  000E' 1683               	bsf	3,5	;RP0=1, select bank3
  3728  000F' 1703               	bsf	3,6	;RP1=1, select bank3
  3729  0010' 0080'              	movwf	measure_capacitance@var^(0+384)
  3730                           
  3731                           ;LC-meter.c: 405: F3 = (double)var;
  3732  0011' 0800'              	movf	(measure_capacitance@var+1)^(0+384),w
  3733  0012' 1283               	bcf	3,5	;RP0=0, select bank0
  3734  0013' 1303               	bcf	3,6	;RP1=0, select bank0
  3735  0014' 008D'              	movwf	___lwtofl@c+1
  3736  0015' 1683               	bsf	3,5	;RP0=1, select bank3
  3737  0016' 1703               	bsf	3,6	;RP1=1, select bank3
  3738  0017' 0800'              	movf	measure_capacitance@var^(0+384),w
  3739  0018' 1283               	bcf	3,5	;RP0=0, select bank0
  3740  0019' 1303               	bcf	3,6	;RP1=0, select bank0
  3741  001A' 008C'              	movwf	___lwtofl@c
  3742  001B' 120A' 118A' 2000' 120A' 118A' 	fcall	___lwtofl
  3743  0020' 1283               	bcf	3,5	;RP0=0, select bank0
  3744  0021' 1303               	bcf	3,6	;RP1=0, select bank0
  3745  0022' 080F'              	movf	?___lwtofl+3,w
  3746  0023' 1683               	bsf	3,5	;RP0=1, select bank3
  3747  0024' 1703               	bsf	3,6	;RP1=1, select bank3
  3748  0025' 0080'              	movwf	(_F3+3)^(0+384)
  3749  0026' 1283               	bcf	3,5	;RP0=0, select bank0
  3750  0027' 1303               	bcf	3,6	;RP1=0, select bank0
  3751  0028' 080E'              	movf	?___lwtofl+2,w
  3752  0029' 1683               	bsf	3,5	;RP0=1, select bank3
  3753  002A' 1703               	bsf	3,6	;RP1=1, select bank3
  3754  002B' 0080'              	movwf	(_F3+2)^(0+384)
  3755  002C' 1283               	bcf	3,5	;RP0=0, select bank0
  3756  002D' 1303               	bcf	3,6	;RP1=0, select bank0
  3757  002E' 080D'              	movf	?___lwtofl+1,w
  3758  002F' 1683               	bsf	3,5	;RP0=1, select bank3
  3759  0030' 1703               	bsf	3,6	;RP1=1, select bank3
  3760  0031' 0080'              	movwf	(_F3+1)^(0+384)
  3761  0032' 1283               	bcf	3,5	;RP0=0, select bank0
  3762  0033' 1303               	bcf	3,6	;RP1=0, select bank0
  3763  0034' 080C'              	movf	?___lwtofl,w
  3764  0035' 1683               	bsf	3,5	;RP0=1, select bank3
  3765  0036' 1703               	bsf	3,6	;RP1=1, select bank3
  3766  0037' 0080'              	movwf	_F3^(0+384)
  3767                           
  3768                           ;LC-meter.c: 407: putchar_ptr = &ser_putch;
  3769  0038' 3004               	movlw	(low (fp__ser_putch-fpbase))& (0+255)
  3770  0039' 1683               	bsf	3,5	;RP0=1, select bank1
  3771  003A' 1303               	bcf	3,6	;RP1=0, select bank1
  3772  003B' 0080'              	movwf	??_measure_capacitance^(0+128)
  3773  003C' 0800'              	movf	??_measure_capacitance^(0+128),w
  3774  003D' 0080'              	movwf	_putchar_ptr
  3775                           
  3776                           ;LC-meter.c: 408: ser_puts("var=");
  3777  003E' 3072               	movlw	(low ((STR_4-__stringbase)| (0+32768)))& (0+255)
  3778  003F' 120A' 118A' 2000' 120A' 118A' 	fcall	_ser_puts
  3779                           
  3780                           ;LC-meter.c: 409: format_xint32( var);
  3781  0044' 1683               	bsf	3,5	;RP0=1, select bank3
  3782  0045' 1703               	bsf	3,6	;RP1=1, select bank3
  3783  0046' 0800'              	movf	measure_capacitance@var^(0+384),w
  3784  0047' 1283               	bcf	3,5	;RP0=0, select bank0
  3785  0048' 1303               	bcf	3,6	;RP1=0, select bank0
  3786  0049' 00B4'              	movwf	format_xint32@x
  3787  004A' 1683               	bsf	3,5	;RP0=1, select bank3
  3788  004B' 1703               	bsf	3,6	;RP1=1, select bank3
  3789  004C' 0800'              	movf	(measure_capacitance@var+1)^(0+384),w
  3790  004D' 1283               	bcf	3,5	;RP0=0, select bank0
  3791  004E' 1303               	bcf	3,6	;RP1=0, select bank0
  3792  004F' 00B5'              	movwf	format_xint32@x+1
  3793  0050' 01B6'              	clrf	format_xint32@x+2
  3794  0051' 01B7'              	clrf	format_xint32@x+3
  3795  0052' 120A' 118A' 2000' 120A' 118A' 	fcall	_format_xint32
  3796                           
  3797                           ;LC-meter.c: 410: ser_puts("\r\nF1=");
  3798  0057' 305B               	movlw	(low ((STR_5-__stringbase)| (0+32768)))& (0+255)
  3799  0058' 120A' 118A' 2000' 120A' 118A' 	fcall	_ser_puts
  3800                           
  3801                           ;LC-meter.c: 411: format_double( F1);
  3802  005D' 1683               	bsf	3,5	;RP0=1, select bank3
  3803  005E' 1703               	bsf	3,6	;RP1=1, select bank3
  3804  005F' 0800'              	movf	(_F1+3)^(0+384),w
  3805  0060' 0080'              	movwf	(format_double@num+3)^(0+384)
  3806  0061' 0800'              	movf	(_F1+2)^(0+384),w
  3807  0062' 0080'              	movwf	(format_double@num+2)^(0+384)
  3808  0063' 0800'              	movf	(_F1+1)^(0+384),w
  3809  0064' 0080'              	movwf	(format_double@num+1)^(0+384)
  3810  0065' 0800'              	movf	_F1^(0+384),w
  3811  0066' 0080'              	movwf	format_double@num^(0+384)
  3812  0067' 120A' 118A' 2000' 120A' 118A' 	fcall	_format_double
  3813                           
  3814                           ;LC-meter.c: 412: ser_putch(' ');
  3815  006C' 3020               	movlw	32
  3816  006D' 1683               	bsf	3,5	;RP0=1, select bank1
  3817  006E' 1303               	bcf	3,6	;RP1=0, select bank1
  3818  006F' 0080'              	movwf	??_measure_capacitance^(0+128)
  3819  0070' 0800'              	movf	??_measure_capacitance^(0+128),w
  3820  0071' 1283               	bcf	3,5	;RP0=0, select bank0
  3821  0072' 1303               	bcf	3,6	;RP1=0, select bank0
  3822  0073' 0084'              	movwf	ser_putch@c
  3823  0074' 120A' 118A' 2000' 120A' 118A' 	fcall	_ser_putch
  3824                           
  3825                           ;LC-meter.c: 413: format_xint32( *(unsigned long int*)&F1);
  3826  0079' 1683               	bsf	3,5	;RP0=1, select bank3
  3827  007A' 1703               	bsf	3,6	;RP1=1, select bank3
  3828  007B' 0800'              	movf	(_F1+3)^(0+384),w
  3829  007C' 1283               	bcf	3,5	;RP0=0, select bank0
  3830  007D' 1303               	bcf	3,6	;RP1=0, select bank0
  3831  007E' 00B7'              	movwf	format_xint32@x+3
  3832  007F' 1683               	bsf	3,5	;RP0=1, select bank3
  3833  0080' 1703               	bsf	3,6	;RP1=1, select bank3
  3834  0081' 0800'              	movf	(_F1+2)^(0+384),w
  3835  0082' 1283               	bcf	3,5	;RP0=0, select bank0
  3836  0083' 1303               	bcf	3,6	;RP1=0, select bank0
  3837  0084' 00B6'              	movwf	format_xint32@x+2
  3838  0085' 1683               	bsf	3,5	;RP0=1, select bank3
  3839  0086' 1703               	bsf	3,6	;RP1=1, select bank3
  3840  0087' 0800'              	movf	(_F1+1)^(0+384),w
  3841  0088' 1283               	bcf	3,5	;RP0=0, select bank0
  3842  0089' 1303               	bcf	3,6	;RP1=0, select bank0
  3843  008A' 00B5'              	movwf	format_xint32@x+1
  3844  008B' 1683               	bsf	3,5	;RP0=1, select bank3
  3845  008C' 1703               	bsf	3,6	;RP1=1, select bank3
  3846  008D' 0800'              	movf	_F1^(0+384),w
  3847  008E' 1283               	bcf	3,5	;RP0=0, select bank0
  3848  008F' 1303               	bcf	3,6	;RP1=0, select bank0
  3849  0090' 00B4'              	movwf	format_xint32@x
  3850  0091' 120A' 118A' 2000' 120A' 118A' 	fcall	_format_xint32
  3851                           
  3852                           ;LC-meter.c: 414: ser_puts("\r\nF2=");
  3853  0096' 3061               	movlw	(low ((STR_6-__stringbase)| (0+32768)))& (0+255)
  3854  0097' 120A' 118A' 2000' 120A' 118A' 	fcall	_ser_puts
  3855                           
  3856                           ;LC-meter.c: 415: format_double( F2);
  3857  009C' 1683               	bsf	3,5	;RP0=1, select bank3
  3858  009D' 1703               	bsf	3,6	;RP1=1, select bank3
  3859  009E' 0800'              	movf	(_F2+3)^(0+384),w
  3860  009F' 0080'              	movwf	(format_double@num+3)^(0+384)
  3861  00A0' 0800'              	movf	(_F2+2)^(0+384),w
  3862  00A1' 0080'              	movwf	(format_double@num+2)^(0+384)
  3863  00A2' 0800'              	movf	(_F2+1)^(0+384),w
  3864  00A3' 0080'              	movwf	(format_double@num+1)^(0+384)
  3865  00A4' 0800'              	movf	_F2^(0+384),w
  3866  00A5' 0080'              	movwf	format_double@num^(0+384)
  3867  00A6' 120A' 118A' 2000' 120A' 118A' 	fcall	_format_double
  3868                           
  3869                           ;LC-meter.c: 416: ser_putch(' ');
  3870  00AB' 3020               	movlw	32
  3871  00AC' 1683               	bsf	3,5	;RP0=1, select bank1
  3872  00AD' 1303               	bcf	3,6	;RP1=0, select bank1
  3873  00AE' 0080'              	movwf	??_measure_capacitance^(0+128)
  3874  00AF' 0800'              	movf	??_measure_capacitance^(0+128),w
  3875  00B0' 1283               	bcf	3,5	;RP0=0, select bank0
  3876  00B1' 1303               	bcf	3,6	;RP1=0, select bank0
  3877  00B2' 0084'              	movwf	ser_putch@c
  3878  00B3' 120A' 118A' 2000' 120A' 118A' 	fcall	_ser_putch
  3879                           
  3880                           ;LC-meter.c: 417: format_xint32( *(unsigned long int*)&F2);
  3881  00B8' 1683               	bsf	3,5	;RP0=1, select bank3
  3882  00B9' 1703               	bsf	3,6	;RP1=1, select bank3
  3883  00BA' 0800'              	movf	(_F2+3)^(0+384),w
  3884  00BB' 1283               	bcf	3,5	;RP0=0, select bank0
  3885  00BC' 1303               	bcf	3,6	;RP1=0, select bank0
  3886  00BD' 00B7'              	movwf	format_xint32@x+3
  3887  00BE' 1683               	bsf	3,5	;RP0=1, select bank3
  3888  00BF' 1703               	bsf	3,6	;RP1=1, select bank3
  3889  00C0' 0800'              	movf	(_F2+2)^(0+384),w
  3890  00C1' 1283               	bcf	3,5	;RP0=0, select bank0
  3891  00C2' 1303               	bcf	3,6	;RP1=0, select bank0
  3892  00C3' 00B6'              	movwf	format_xint32@x+2
  3893  00C4' 1683               	bsf	3,5	;RP0=1, select bank3
  3894  00C5' 1703               	bsf	3,6	;RP1=1, select bank3
  3895  00C6' 0800'              	movf	(_F2+1)^(0+384),w
  3896  00C7' 1283               	bcf	3,5	;RP0=0, select bank0
  3897  00C8' 1303               	bcf	3,6	;RP1=0, select bank0
  3898  00C9' 00B5'              	movwf	format_xint32@x+1
  3899  00CA' 1683               	bsf	3,5	;RP0=1, select bank3
  3900  00CB' 1703               	bsf	3,6	;RP1=1, select bank3
  3901  00CC' 0800'              	movf	_F2^(0+384),w
  3902  00CD' 1283               	bcf	3,5	;RP0=0, select bank0
  3903  00CE' 1303               	bcf	3,6	;RP1=0, select bank0
  3904  00CF' 00B4'              	movwf	format_xint32@x
  3905  00D0' 120A' 118A' 2000' 120A' 118A' 	fcall	_format_xint32
  3906                           
  3907                           ;LC-meter.c: 418: ser_puts("\r\nF3=");
  3908  00D5' 3067               	movlw	(low ((STR_7-__stringbase)| (0+32768)))& (0+255)
  3909  00D6' 120A' 118A' 2000' 120A' 118A' 	fcall	_ser_puts
  3910                           
  3911                           ;LC-meter.c: 419: format_double( F3);
  3912  00DB' 1683               	bsf	3,5	;RP0=1, select bank3
  3913  00DC' 1703               	bsf	3,6	;RP1=1, select bank3
  3914  00DD' 0800'              	movf	(_F3+3)^(0+384),w
  3915  00DE' 0080'              	movwf	(format_double@num+3)^(0+384)
  3916  00DF' 0800'              	movf	(_F3+2)^(0+384),w
  3917  00E0' 0080'              	movwf	(format_double@num+2)^(0+384)
  3918  00E1' 0800'              	movf	(_F3+1)^(0+384),w
  3919  00E2' 0080'              	movwf	(format_double@num+1)^(0+384)
  3920  00E3' 0800'              	movf	_F3^(0+384),w
  3921  00E4' 0080'              	movwf	format_double@num^(0+384)
  3922  00E5' 120A' 118A' 2000' 120A' 118A' 	fcall	_format_double
  3923                           
  3924                           ;LC-meter.c: 420: ser_putch(' ');
  3925  00EA' 3020               	movlw	32
  3926  00EB' 1683               	bsf	3,5	;RP0=1, select bank1
  3927  00EC' 1303               	bcf	3,6	;RP1=0, select bank1
  3928  00ED' 0080'              	movwf	??_measure_capacitance^(0+128)
  3929  00EE' 0800'              	movf	??_measure_capacitance^(0+128),w
  3930  00EF' 1283               	bcf	3,5	;RP0=0, select bank0
  3931  00F0' 1303               	bcf	3,6	;RP1=0, select bank0
  3932  00F1' 0084'              	movwf	ser_putch@c
  3933  00F2' 120A' 118A' 2000' 120A' 118A' 	fcall	_ser_putch
  3934                           
  3935                           ;LC-meter.c: 421: format_xint32( *(unsigned long int*)&F3);
  3936  00F7' 1683               	bsf	3,5	;RP0=1, select bank3
  3937  00F8' 1703               	bsf	3,6	;RP1=1, select bank3
  3938  00F9' 0800'              	movf	(_F3+3)^(0+384),w
  3939  00FA' 1283               	bcf	3,5	;RP0=0, select bank0
  3940  00FB' 1303               	bcf	3,6	;RP1=0, select bank0
  3941  00FC' 00B7'              	movwf	format_xint32@x+3
  3942  00FD' 1683               	bsf	3,5	;RP0=1, select bank3
  3943  00FE' 1703               	bsf	3,6	;RP1=1, select bank3
  3944  00FF' 0800'              	movf	(_F3+2)^(0+384),w
  3945  0100' 1283               	bcf	3,5	;RP0=0, select bank0
  3946  0101' 1303               	bcf	3,6	;RP1=0, select bank0
  3947  0102' 00B6'              	movwf	format_xint32@x+2
  3948  0103' 1683               	bsf	3,5	;RP0=1, select bank3
  3949  0104' 1703               	bsf	3,6	;RP1=1, select bank3
  3950  0105' 0800'              	movf	(_F3+1)^(0+384),w
  3951  0106' 1283               	bcf	3,5	;RP0=0, select bank0
  3952  0107' 1303               	bcf	3,6	;RP1=0, select bank0
  3953  0108' 00B5'              	movwf	format_xint32@x+1
  3954  0109' 1683               	bsf	3,5	;RP0=1, select bank3
  3955  010A' 1703               	bsf	3,6	;RP1=1, select bank3
  3956  010B' 0800'              	movf	_F3^(0+384),w
  3957  010C' 1283               	bcf	3,5	;RP0=0, select bank0
  3958  010D' 1303               	bcf	3,6	;RP1=0, select bank0
  3959  010E' 00B4'              	movwf	format_xint32@x
  3960  010F' 120A' 118A' 2000' 120A' 118A' 	fcall	_format_xint32
  3961                           
  3962                           ;LC-meter.c: 422: ser_puts("\r\nCCal=");
  3963  0114' 304D               	movlw	(low ((STR_8-__stringbase)| (0+32768)))& (0+255)
  3964  0115' 120A' 118A' 2000' 120A' 118A' 	fcall	_ser_puts
  3965                           
  3966                           ;LC-meter.c: 423: format_double( CCal);
  3967  011A' 1683               	bsf	3,5	;RP0=1, select bank3
  3968  011B' 1703               	bsf	3,6	;RP1=1, select bank3
  3969  011C' 0800'              	movf	(_CCal+3)^(0+384),w
  3970  011D' 0080'              	movwf	(format_double@num+3)^(0+384)
  3971  011E' 0800'              	movf	(_CCal+2)^(0+384),w
  3972  011F' 0080'              	movwf	(format_double@num+2)^(0+384)
  3973  0120' 0800'              	movf	(_CCal+1)^(0+384),w
  3974  0121' 0080'              	movwf	(format_double@num+1)^(0+384)
  3975  0122' 0800'              	movf	_CCal^(0+384),w
  3976  0123' 0080'              	movwf	format_double@num^(0+384)
  3977  0124' 120A' 118A' 2000' 120A' 118A' 	fcall	_format_double
  3978                           
  3979                           ;LC-meter.c: 424: ser_putch(' ');
  3980  0129' 3020               	movlw	32
  3981  012A' 1683               	bsf	3,5	;RP0=1, select bank1
  3982  012B' 1303               	bcf	3,6	;RP1=0, select bank1
  3983  012C' 0080'              	movwf	??_measure_capacitance^(0+128)
  3984  012D' 0800'              	movf	??_measure_capacitance^(0+128),w
  3985  012E' 1283               	bcf	3,5	;RP0=0, select bank0
  3986  012F' 1303               	bcf	3,6	;RP1=0, select bank0
  3987  0130' 0084'              	movwf	ser_putch@c
  3988  0131' 120A' 118A' 2000' 120A' 118A' 	fcall	_ser_putch
  3989                           
  3990                           ;LC-meter.c: 425: format_xint32( *(unsigned long int*)&CCal);
  3991  0136' 1683               	bsf	3,5	;RP0=1, select bank3
  3992  0137' 1703               	bsf	3,6	;RP1=1, select bank3
  3993  0138' 0800'              	movf	(_CCal+3)^(0+384),w
  3994  0139' 1283               	bcf	3,5	;RP0=0, select bank0
  3995  013A' 1303               	bcf	3,6	;RP1=0, select bank0
  3996  013B' 00B7'              	movwf	format_xint32@x+3
  3997  013C' 1683               	bsf	3,5	;RP0=1, select bank3
  3998  013D' 1703               	bsf	3,6	;RP1=1, select bank3
  3999  013E' 0800'              	movf	(_CCal+2)^(0+384),w
  4000  013F' 1283               	bcf	3,5	;RP0=0, select bank0
  4001  0140' 1303               	bcf	3,6	;RP1=0, select bank0
  4002  0141' 00B6'              	movwf	format_xint32@x+2
  4003  0142' 1683               	bsf	3,5	;RP0=1, select bank3
  4004  0143' 1703               	bsf	3,6	;RP1=1, select bank3
  4005  0144' 0800'              	movf	(_CCal+1)^(0+384),w
  4006  0145' 1283               	bcf	3,5	;RP0=0, select bank0
  4007  0146' 1303               	bcf	3,6	;RP1=0, select bank0
  4008  0147' 00B5'              	movwf	format_xint32@x+1
  4009  0148' 1683               	bsf	3,5	;RP0=1, select bank3
  4010  0149' 1703               	bsf	3,6	;RP1=1, select bank3
  4011  014A' 0800'              	movf	_CCal^(0+384),w
  4012  014B' 1283               	bcf	3,5	;RP0=0, select bank0
  4013  014C' 1303               	bcf	3,6	;RP1=0, select bank0
  4014  014D' 00B4'              	movwf	format_xint32@x
  4015  014E' 120A' 118A' 2000' 120A' 118A' 	fcall	_format_xint32
  4016                           
  4017                           ;LC-meter.c: 426: ser_puts("\r\n");
  4018  0153' 3058               	movlw	(low (((STR_1+3)-__stringbase)| (0+32768)))& (0+255)
  4019  0154' 120A' 118A' 2000' 120A' 118A' 	fcall	_ser_puts
  4020                           
  4021                           ;LC-meter.c: 428: putchar_ptr = &output_putch;
  4022  0159' 3001               	movlw	(low (fp__output_putch-fpbase))& (0+255)
  4023  015A' 1683               	bsf	3,5	;RP0=1, select bank1
  4024  015B' 1303               	bcf	3,6	;RP1=0, select bank1
  4025  015C' 0080'              	movwf	??_measure_capacitance^(0+128)
  4026  015D' 0800'              	movf	??_measure_capacitance^(0+128),w
  4027  015E' 0080'              	movwf	_putchar_ptr
  4028                           
  4029                           ;LC-meter.c: 430: if(F3 > F1)
  4030  015F' 1683               	bsf	3,5	;RP0=1, select bank3
  4031  0160' 1703               	bsf	3,6	;RP1=1, select bank3
  4032  0161' 0800'              	movf	(_F1+3)^(0+384),w
  4033  0162' 1283               	bcf	3,5	;RP0=0, select bank0
  4034  0163' 1303               	bcf	3,6	;RP1=0, select bank0
  4035  0164' 0083'              	movwf	___flge@ff1+3
  4036  0165' 1683               	bsf	3,5	;RP0=1, select bank3
  4037  0166' 1703               	bsf	3,6	;RP1=1, select bank3
  4038  0167' 0800'              	movf	(_F1+2)^(0+384),w
  4039  0168' 1283               	bcf	3,5	;RP0=0, select bank0
  4040  0169' 1303               	bcf	3,6	;RP1=0, select bank0
  4041  016A' 0082'              	movwf	___flge@ff1+2
  4042  016B' 1683               	bsf	3,5	;RP0=1, select bank3
  4043  016C' 1703               	bsf	3,6	;RP1=1, select bank3
  4044  016D' 0800'              	movf	(_F1+1)^(0+384),w
  4045  016E' 1283               	bcf	3,5	;RP0=0, select bank0
  4046  016F' 1303               	bcf	3,6	;RP1=0, select bank0
  4047  0170' 0081'              	movwf	___flge@ff1+1
  4048  0171' 1683               	bsf	3,5	;RP0=1, select bank3
  4049  0172' 1703               	bsf	3,6	;RP1=1, select bank3
  4050  0173' 0800'              	movf	_F1^(0+384),w
  4051  0174' 1283               	bcf	3,5	;RP0=0, select bank0
  4052  0175' 1303               	bcf	3,6	;RP1=0, select bank0
  4053  0176' 0080'              	movwf	___flge@ff1
  4054  0177' 1683               	bsf	3,5	;RP0=1, select bank3
  4055  0178' 1703               	bsf	3,6	;RP1=1, select bank3
  4056  0179' 0800'              	movf	(_F3+3)^(0+384),w
  4057  017A' 1283               	bcf	3,5	;RP0=0, select bank0
  4058  017B' 1303               	bcf	3,6	;RP1=0, select bank0
  4059  017C' 0087'              	movwf	___flge@ff2+3
  4060  017D' 1683               	bsf	3,5	;RP0=1, select bank3
  4061  017E' 1703               	bsf	3,6	;RP1=1, select bank3
  4062  017F' 0800'              	movf	(_F3+2)^(0+384),w
  4063  0180' 1283               	bcf	3,5	;RP0=0, select bank0
  4064  0181' 1303               	bcf	3,6	;RP1=0, select bank0
  4065  0182' 0086'              	movwf	___flge@ff2+2
  4066  0183' 1683               	bsf	3,5	;RP0=1, select bank3
  4067  0184' 1703               	bsf	3,6	;RP1=1, select bank3
  4068  0185' 0800'              	movf	(_F3+1)^(0+384),w
  4069  0186' 1283               	bcf	3,5	;RP0=0, select bank0
  4070  0187' 1303               	bcf	3,6	;RP1=0, select bank0
  4071  0188' 0085'              	movwf	___flge@ff2+1
  4072  0189' 1683               	bsf	3,5	;RP0=1, select bank3
  4073  018A' 1703               	bsf	3,6	;RP1=1, select bank3
  4074  018B' 0800'              	movf	_F3^(0+384),w
  4075  018C' 1283               	bcf	3,5	;RP0=0, select bank0
  4076  018D' 1303               	bcf	3,6	;RP1=0, select bank0
  4077  018E' 0084'              	movwf	___flge@ff2
  4078  018F' 120A' 118A' 2000' 120A' 118A' 	fcall	___flge
  4079  0194' 1803               	btfsc	3,0
  4080  0195' 2800'              	goto	l4146
  4081                           
  4082                           ;LC-meter.c: 431: F3 = F1;
  4083  0196' 1683               	bsf	3,5	;RP0=1, select bank3
  4084  0197' 1703               	bsf	3,6	;RP1=1, select bank3
  4085  0198' 0800'              	movf	(_F1+3)^(0+384),w
  4086  0199' 0080'              	movwf	(_F3+3)^(0+384)
  4087  019A' 0800'              	movf	(_F1+2)^(0+384),w
  4088  019B' 0080'              	movwf	(_F3+2)^(0+384)
  4089  019C' 0800'              	movf	(_F1+1)^(0+384),w
  4090  019D' 0080'              	movwf	(_F3+1)^(0+384)
  4091  019E' 0800'              	movf	_F1^(0+384),w
  4092  019F' 0080'              	movwf	_F3^(0+384)
  4093  01A0'                    l4146:	
  4094                           
  4095                           ;LC-meter.c: 433: Cin = F2 * F2 * (F1 * F1 - F3 * F3) * CCal;
  4096  01A0' 1683               	bsf	3,5	;RP0=1, select bank3
  4097  01A1' 1703               	bsf	3,6	;RP1=1, select bank3
  4098  01A2' 0800'              	movf	(_F2+3)^(0+384),w
  4099  01A3' 1283               	bcf	3,5	;RP0=0, select bank0
  4100  01A4' 1303               	bcf	3,6	;RP1=0, select bank0
  4101  01A5' 00A1'              	movwf	___flmul@f1+3
  4102  01A6' 1683               	bsf	3,5	;RP0=1, select bank3
  4103  01A7' 1703               	bsf	3,6	;RP1=1, select bank3
  4104  01A8' 0800'              	movf	(_F2+2)^(0+384),w
  4105  01A9' 1283               	bcf	3,5	;RP0=0, select bank0
  4106  01AA' 1303               	bcf	3,6	;RP1=0, select bank0
  4107  01AB' 00A0'              	movwf	___flmul@f1+2
  4108  01AC' 1683               	bsf	3,5	;RP0=1, select bank3
  4109  01AD' 1703               	bsf	3,6	;RP1=1, select bank3
  4110  01AE' 0800'              	movf	(_F2+1)^(0+384),w
  4111  01AF' 1283               	bcf	3,5	;RP0=0, select bank0
  4112  01B0' 1303               	bcf	3,6	;RP1=0, select bank0
  4113  01B1' 009F'              	movwf	___flmul@f1+1
  4114  01B2' 1683               	bsf	3,5	;RP0=1, select bank3
  4115  01B3' 1703               	bsf	3,6	;RP1=1, select bank3
  4116  01B4' 0800'              	movf	_F2^(0+384),w
  4117  01B5' 1283               	bcf	3,5	;RP0=0, select bank0
  4118  01B6' 1303               	bcf	3,6	;RP1=0, select bank0
  4119  01B7' 009E'              	movwf	___flmul@f1
  4120  01B8' 1683               	bsf	3,5	;RP0=1, select bank3
  4121  01B9' 1703               	bsf	3,6	;RP1=1, select bank3
  4122  01BA' 0800'              	movf	(_F2+3)^(0+384),w
  4123  01BB' 1283               	bcf	3,5	;RP0=0, select bank0
  4124  01BC' 1303               	bcf	3,6	;RP1=0, select bank0
  4125  01BD' 00A5'              	movwf	___flmul@f2+3
  4126  01BE' 1683               	bsf	3,5	;RP0=1, select bank3
  4127  01BF' 1703               	bsf	3,6	;RP1=1, select bank3
  4128  01C0' 0800'              	movf	(_F2+2)^(0+384),w
  4129  01C1' 1283               	bcf	3,5	;RP0=0, select bank0
  4130  01C2' 1303               	bcf	3,6	;RP1=0, select bank0
  4131  01C3' 00A4'              	movwf	___flmul@f2+2
  4132  01C4' 1683               	bsf	3,5	;RP0=1, select bank3
  4133  01C5' 1703               	bsf	3,6	;RP1=1, select bank3
  4134  01C6' 0800'              	movf	(_F2+1)^(0+384),w
  4135  01C7' 1283               	bcf	3,5	;RP0=0, select bank0
  4136  01C8' 1303               	bcf	3,6	;RP1=0, select bank0
  4137  01C9' 00A3'              	movwf	___flmul@f2+1
  4138  01CA' 1683               	bsf	3,5	;RP0=1, select bank3
  4139  01CB' 1703               	bsf	3,6	;RP1=1, select bank3
  4140  01CC' 0800'              	movf	_F2^(0+384),w
  4141  01CD' 1283               	bcf	3,5	;RP0=0, select bank0
  4142  01CE' 1303               	bcf	3,6	;RP1=0, select bank0
  4143  01CF' 00A2'              	movwf	___flmul@f2
  4144  01D0' 120A' 118A' 2000' 120A' 118A' 	fcall	___flmul
  4145  01D5' 1283               	bcf	3,5	;RP0=0, select bank0
  4146  01D6' 1303               	bcf	3,6	;RP1=0, select bank0
  4147  01D7' 0821'              	movf	?___flmul+3,w
  4148  01D8' 1683               	bsf	3,5	;RP0=1, select bank3
  4149  01D9' 1703               	bsf	3,6	;RP1=1, select bank3
  4150  01DA' 0080'              	movwf	(_measure_capacitance$810+3)^(0+384)
  4151  01DB' 1283               	bcf	3,5	;RP0=0, select bank0
  4152  01DC' 1303               	bcf	3,6	;RP1=0, select bank0
  4153  01DD' 0820'              	movf	?___flmul+2,w
  4154  01DE' 1683               	bsf	3,5	;RP0=1, select bank3
  4155  01DF' 1703               	bsf	3,6	;RP1=1, select bank3
  4156  01E0' 0080'              	movwf	(_measure_capacitance$810+2)^(0+384)
  4157  01E1' 1283               	bcf	3,5	;RP0=0, select bank0
  4158  01E2' 1303               	bcf	3,6	;RP1=0, select bank0
  4159  01E3' 081F'              	movf	?___flmul+1,w
  4160  01E4' 1683               	bsf	3,5	;RP0=1, select bank3
  4161  01E5' 1703               	bsf	3,6	;RP1=1, select bank3
  4162  01E6' 0080'              	movwf	(_measure_capacitance$810+1)^(0+384)
  4163  01E7' 1283               	bcf	3,5	;RP0=0, select bank0
  4164  01E8' 1303               	bcf	3,6	;RP1=0, select bank0
  4165  01E9' 081E'              	movf	?___flmul,w
  4166  01EA' 1683               	bsf	3,5	;RP0=1, select bank3
  4167  01EB' 1703               	bsf	3,6	;RP1=1, select bank3
  4168  01EC' 0080'              	movwf	_measure_capacitance$810^(0+384)
  4169                           
  4170                           ;LC-meter.c: 433: Cin = F2 * F2 * (F1 * F1 - F3 * F3) * CCal;
  4171  01ED' 0800'              	movf	(_F3+3)^(0+384),w
  4172  01EE' 1283               	bcf	3,5	;RP0=0, select bank0
  4173  01EF' 1303               	bcf	3,6	;RP1=0, select bank0
  4174  01F0' 00A5'              	movwf	___flmul@f2+3
  4175  01F1' 1683               	bsf	3,5	;RP0=1, select bank3
  4176  01F2' 1703               	bsf	3,6	;RP1=1, select bank3
  4177  01F3' 0800'              	movf	(_F3+2)^(0+384),w
  4178  01F4' 1283               	bcf	3,5	;RP0=0, select bank0
  4179  01F5' 1303               	bcf	3,6	;RP1=0, select bank0
  4180  01F6' 00A4'              	movwf	___flmul@f2+2
  4181  01F7' 1683               	bsf	3,5	;RP0=1, select bank3
  4182  01F8' 1703               	bsf	3,6	;RP1=1, select bank3
  4183  01F9' 0800'              	movf	(_F3+1)^(0+384),w
  4184  01FA' 1283               	bcf	3,5	;RP0=0, select bank0
  4185  01FB' 1303               	bcf	3,6	;RP1=0, select bank0
  4186  01FC' 00A3'              	movwf	___flmul@f2+1
  4187  01FD' 1683               	bsf	3,5	;RP0=1, select bank3
  4188  01FE' 1703               	bsf	3,6	;RP1=1, select bank3
  4189  01FF' 0800'              	movf	_F3^(0+384),w
  4190  0200' 1283               	bcf	3,5	;RP0=0, select bank0
  4191  0201' 1303               	bcf	3,6	;RP1=0, select bank0
  4192  0202' 00A2'              	movwf	___flmul@f2
  4193  0203' 1683               	bsf	3,5	;RP0=1, select bank3
  4194  0204' 1703               	bsf	3,6	;RP1=1, select bank3
  4195  0205' 0800'              	movf	(_F3+3)^(0+384),w
  4196  0206' 1283               	bcf	3,5	;RP0=0, select bank0
  4197  0207' 1303               	bcf	3,6	;RP1=0, select bank0
  4198  0208' 00A1'              	movwf	___flmul@f1+3
  4199  0209' 1683               	bsf	3,5	;RP0=1, select bank3
  4200  020A' 1703               	bsf	3,6	;RP1=1, select bank3
  4201  020B' 0800'              	movf	(_F3+2)^(0+384),w
  4202  020C' 1283               	bcf	3,5	;RP0=0, select bank0
  4203  020D' 1303               	bcf	3,6	;RP1=0, select bank0
  4204  020E' 00A0'              	movwf	___flmul@f1+2
  4205  020F' 1683               	bsf	3,5	;RP0=1, select bank3
  4206  0210' 1703               	bsf	3,6	;RP1=1, select bank3
  4207  0211' 0800'              	movf	(_F3+1)^(0+384),w
  4208  0212' 1283               	bcf	3,5	;RP0=0, select bank0
  4209  0213' 1303               	bcf	3,6	;RP1=0, select bank0
  4210  0214' 009F'              	movwf	___flmul@f1+1
  4211  0215' 1683               	bsf	3,5	;RP0=1, select bank3
  4212  0216' 1703               	bsf	3,6	;RP1=1, select bank3
  4213  0217' 0800'              	movf	_F3^(0+384),w
  4214  0218' 1283               	bcf	3,5	;RP0=0, select bank0
  4215  0219' 1303               	bcf	3,6	;RP1=0, select bank0
  4216  021A' 009E'              	movwf	___flmul@f1
  4217  021B' 120A' 118A' 2000' 120A' 118A' 	fcall	___flmul
  4218  0220' 1283               	bcf	3,5	;RP0=0, select bank0
  4219  0221' 1303               	bcf	3,6	;RP1=0, select bank0
  4220  0222' 0821'              	movf	?___flmul+3,w
  4221  0223' 00B5'              	movwf	___flneg@f1+3
  4222  0224' 0820'              	movf	?___flmul+2,w
  4223  0225' 00B4'              	movwf	___flneg@f1+2
  4224  0226' 081F'              	movf	?___flmul+1,w
  4225  0227' 00B3'              	movwf	___flneg@f1+1
  4226  0228' 081E'              	movf	?___flmul,w
  4227  0229' 00B2'              	movwf	___flneg@f1
  4228  022A' 120A' 118A' 2000' 120A' 118A' 	fcall	___flneg
  4229  022F' 1283               	bcf	3,5	;RP0=0, select bank0
  4230  0230' 1303               	bcf	3,6	;RP1=0, select bank0
  4231  0231' 0835'              	movf	?___flneg+3,w
  4232  0232' 00B9'              	movwf	___fladd@f1+3
  4233  0233' 0834'              	movf	?___flneg+2,w
  4234  0234' 00B8'              	movwf	___fladd@f1+2
  4235  0235' 0833'              	movf	?___flneg+1,w
  4236  0236' 00B7'              	movwf	___fladd@f1+1
  4237  0237' 0832'              	movf	?___flneg,w
  4238  0238' 00B6'              	movwf	___fladd@f1
  4239  0239' 1683               	bsf	3,5	;RP0=1, select bank3
  4240  023A' 1703               	bsf	3,6	;RP1=1, select bank3
  4241  023B' 0800'              	movf	(_F1+3)^(0+384),w
  4242  023C' 1283               	bcf	3,5	;RP0=0, select bank0
  4243  023D' 1303               	bcf	3,6	;RP1=0, select bank0
  4244  023E' 00A1'              	movwf	___flmul@f1+3
  4245  023F' 1683               	bsf	3,5	;RP0=1, select bank3
  4246  0240' 1703               	bsf	3,6	;RP1=1, select bank3
  4247  0241' 0800'              	movf	(_F1+2)^(0+384),w
  4248  0242' 1283               	bcf	3,5	;RP0=0, select bank0
  4249  0243' 1303               	bcf	3,6	;RP1=0, select bank0
  4250  0244' 00A0'              	movwf	___flmul@f1+2
  4251  0245' 1683               	bsf	3,5	;RP0=1, select bank3
  4252  0246' 1703               	bsf	3,6	;RP1=1, select bank3
  4253  0247' 0800'              	movf	(_F1+1)^(0+384),w
  4254  0248' 1283               	bcf	3,5	;RP0=0, select bank0
  4255  0249' 1303               	bcf	3,6	;RP1=0, select bank0
  4256  024A' 009F'              	movwf	___flmul@f1+1
  4257  024B' 1683               	bsf	3,5	;RP0=1, select bank3
  4258  024C' 1703               	bsf	3,6	;RP1=1, select bank3
  4259  024D' 0800'              	movf	_F1^(0+384),w
  4260  024E' 1283               	bcf	3,5	;RP0=0, select bank0
  4261  024F' 1303               	bcf	3,6	;RP1=0, select bank0
  4262  0250' 009E'              	movwf	___flmul@f1
  4263  0251' 1683               	bsf	3,5	;RP0=1, select bank3
  4264  0252' 1703               	bsf	3,6	;RP1=1, select bank3
  4265  0253' 0800'              	movf	(_F1+3)^(0+384),w
  4266  0254' 1283               	bcf	3,5	;RP0=0, select bank0
  4267  0255' 1303               	bcf	3,6	;RP1=0, select bank0
  4268  0256' 00A5'              	movwf	___flmul@f2+3
  4269  0257' 1683               	bsf	3,5	;RP0=1, select bank3
  4270  0258' 1703               	bsf	3,6	;RP1=1, select bank3
  4271  0259' 0800'              	movf	(_F1+2)^(0+384),w
  4272  025A' 1283               	bcf	3,5	;RP0=0, select bank0
  4273  025B' 1303               	bcf	3,6	;RP1=0, select bank0
  4274  025C' 00A4'              	movwf	___flmul@f2+2
  4275  025D' 1683               	bsf	3,5	;RP0=1, select bank3
  4276  025E' 1703               	bsf	3,6	;RP1=1, select bank3
  4277  025F' 0800'              	movf	(_F1+1)^(0+384),w
  4278  0260' 1283               	bcf	3,5	;RP0=0, select bank0
  4279  0261' 1303               	bcf	3,6	;RP1=0, select bank0
  4280  0262' 00A3'              	movwf	___flmul@f2+1
  4281  0263' 1683               	bsf	3,5	;RP0=1, select bank3
  4282  0264' 1703               	bsf	3,6	;RP1=1, select bank3
  4283  0265' 0800'              	movf	_F1^(0+384),w
  4284  0266' 1283               	bcf	3,5	;RP0=0, select bank0
  4285  0267' 1303               	bcf	3,6	;RP1=0, select bank0
  4286  0268' 00A2'              	movwf	___flmul@f2
  4287  0269' 120A' 118A' 2000' 120A' 118A' 	fcall	___flmul
  4288  026E' 1283               	bcf	3,5	;RP0=0, select bank0
  4289  026F' 1303               	bcf	3,6	;RP1=0, select bank0
  4290  0270' 0821'              	movf	?___flmul+3,w
  4291  0271' 00BD'              	movwf	___fladd@f2+3
  4292  0272' 0820'              	movf	?___flmul+2,w
  4293  0273' 00BC'              	movwf	___fladd@f2+2
  4294  0274' 081F'              	movf	?___flmul+1,w
  4295  0275' 00BB'              	movwf	___fladd@f2+1
  4296  0276' 081E'              	movf	?___flmul,w
  4297  0277' 00BA'              	movwf	___fladd@f2
  4298  0278' 120A' 118A' 2000' 120A' 118A' 	fcall	___fladd
  4299  027D' 1283               	bcf	3,5	;RP0=0, select bank0
  4300  027E' 1303               	bcf	3,6	;RP1=0, select bank0
  4301  027F' 0839'              	movf	?___fladd+3,w
  4302  0280' 1683               	bsf	3,5	;RP0=1, select bank3
  4303  0281' 1703               	bsf	3,6	;RP1=1, select bank3
  4304  0282' 0080'              	movwf	(_measure_capacitance$811+3)^(0+384)
  4305  0283' 1283               	bcf	3,5	;RP0=0, select bank0
  4306  0284' 1303               	bcf	3,6	;RP1=0, select bank0
  4307  0285' 0838'              	movf	?___fladd+2,w
  4308  0286' 1683               	bsf	3,5	;RP0=1, select bank3
  4309  0287' 1703               	bsf	3,6	;RP1=1, select bank3
  4310  0288' 0080'              	movwf	(_measure_capacitance$811+2)^(0+384)
  4311  0289' 1283               	bcf	3,5	;RP0=0, select bank0
  4312  028A' 1303               	bcf	3,6	;RP1=0, select bank0
  4313  028B' 0837'              	movf	?___fladd+1,w
  4314  028C' 1683               	bsf	3,5	;RP0=1, select bank3
  4315  028D' 1703               	bsf	3,6	;RP1=1, select bank3
  4316  028E' 0080'              	movwf	(_measure_capacitance$811+1)^(0+384)
  4317  028F' 1283               	bcf	3,5	;RP0=0, select bank0
  4318  0290' 1303               	bcf	3,6	;RP1=0, select bank0
  4319  0291' 0836'              	movf	?___fladd,w
  4320  0292' 1683               	bsf	3,5	;RP0=1, select bank3
  4321  0293' 1703               	bsf	3,6	;RP1=1, select bank3
  4322  0294' 0080'              	movwf	_measure_capacitance$811^(0+384)
  4323                           
  4324                           ;LC-meter.c: 433: Cin = F2 * F2 * (F1 * F1 - F3 * F3) * CCal;
  4325  0295' 0800'              	movf	(_measure_capacitance$810+3)^(0+384),w
  4326  0296' 1283               	bcf	3,5	;RP0=0, select bank0
  4327  0297' 1303               	bcf	3,6	;RP1=0, select bank0
  4328  0298' 00A1'              	movwf	___flmul@f1+3
  4329  0299' 1683               	bsf	3,5	;RP0=1, select bank3
  4330  029A' 1703               	bsf	3,6	;RP1=1, select bank3
  4331  029B' 0800'              	movf	(_measure_capacitance$810+2)^(0+384),w
  4332  029C' 1283               	bcf	3,5	;RP0=0, select bank0
  4333  029D' 1303               	bcf	3,6	;RP1=0, select bank0
  4334  029E' 00A0'              	movwf	___flmul@f1+2
  4335  029F' 1683               	bsf	3,5	;RP0=1, select bank3
  4336  02A0' 1703               	bsf	3,6	;RP1=1, select bank3
  4337  02A1' 0800'              	movf	(_measure_capacitance$810+1)^(0+384),w
  4338  02A2' 1283               	bcf	3,5	;RP0=0, select bank0
  4339  02A3' 1303               	bcf	3,6	;RP1=0, select bank0
  4340  02A4' 009F'              	movwf	___flmul@f1+1
  4341  02A5' 1683               	bsf	3,5	;RP0=1, select bank3
  4342  02A6' 1703               	bsf	3,6	;RP1=1, select bank3
  4343  02A7' 0800'              	movf	_measure_capacitance$810^(0+384),w
  4344  02A8' 1283               	bcf	3,5	;RP0=0, select bank0
  4345  02A9' 1303               	bcf	3,6	;RP1=0, select bank0
  4346  02AA' 009E'              	movwf	___flmul@f1
  4347  02AB' 1683               	bsf	3,5	;RP0=1, select bank3
  4348  02AC' 1703               	bsf	3,6	;RP1=1, select bank3
  4349  02AD' 0800'              	movf	(_measure_capacitance$811+3)^(0+384),w
  4350  02AE' 1283               	bcf	3,5	;RP0=0, select bank0
  4351  02AF' 1303               	bcf	3,6	;RP1=0, select bank0
  4352  02B0' 00A5'              	movwf	___flmul@f2+3
  4353  02B1' 1683               	bsf	3,5	;RP0=1, select bank3
  4354  02B2' 1703               	bsf	3,6	;RP1=1, select bank3
  4355  02B3' 0800'              	movf	(_measure_capacitance$811+2)^(0+384),w
  4356  02B4' 1283               	bcf	3,5	;RP0=0, select bank0
  4357  02B5' 1303               	bcf	3,6	;RP1=0, select bank0
  4358  02B6' 00A4'              	movwf	___flmul@f2+2
  4359  02B7' 1683               	bsf	3,5	;RP0=1, select bank3
  4360  02B8' 1703               	bsf	3,6	;RP1=1, select bank3
  4361  02B9' 0800'              	movf	(_measure_capacitance$811+1)^(0+384),w
  4362  02BA' 1283               	bcf	3,5	;RP0=0, select bank0
  4363  02BB' 1303               	bcf	3,6	;RP1=0, select bank0
  4364  02BC' 00A3'              	movwf	___flmul@f2+1
  4365  02BD' 1683               	bsf	3,5	;RP0=1, select bank3
  4366  02BE' 1703               	bsf	3,6	;RP1=1, select bank3
  4367  02BF' 0800'              	movf	_measure_capacitance$811^(0+384),w
  4368  02C0' 1283               	bcf	3,5	;RP0=0, select bank0
  4369  02C1' 1303               	bcf	3,6	;RP1=0, select bank0
  4370  02C2' 00A2'              	movwf	___flmul@f2
  4371  02C3' 120A' 118A' 2000' 120A' 118A' 	fcall	___flmul
  4372  02C8' 1283               	bcf	3,5	;RP0=0, select bank0
  4373  02C9' 1303               	bcf	3,6	;RP1=0, select bank0
  4374  02CA' 0821'              	movf	?___flmul+3,w
  4375  02CB' 1683               	bsf	3,5	;RP0=1, select bank3
  4376  02CC' 1703               	bsf	3,6	;RP1=1, select bank3
  4377  02CD' 0080'              	movwf	(_measure_capacitance$812+3)^(0+384)
  4378  02CE' 1283               	bcf	3,5	;RP0=0, select bank0
  4379  02CF' 1303               	bcf	3,6	;RP1=0, select bank0
  4380  02D0' 0820'              	movf	?___flmul+2,w
  4381  02D1' 1683               	bsf	3,5	;RP0=1, select bank3
  4382  02D2' 1703               	bsf	3,6	;RP1=1, select bank3
  4383  02D3' 0080'              	movwf	(_measure_capacitance$812+2)^(0+384)
  4384  02D4' 1283               	bcf	3,5	;RP0=0, select bank0
  4385  02D5' 1303               	bcf	3,6	;RP1=0, select bank0
  4386  02D6' 081F'              	movf	?___flmul+1,w
  4387  02D7' 1683               	bsf	3,5	;RP0=1, select bank3
  4388  02D8' 1703               	bsf	3,6	;RP1=1, select bank3
  4389  02D9' 0080'              	movwf	(_measure_capacitance$812+1)^(0+384)
  4390  02DA' 1283               	bcf	3,5	;RP0=0, select bank0
  4391  02DB' 1303               	bcf	3,6	;RP1=0, select bank0
  4392  02DC' 081E'              	movf	?___flmul,w
  4393  02DD' 1683               	bsf	3,5	;RP0=1, select bank3
  4394  02DE' 1703               	bsf	3,6	;RP1=1, select bank3
  4395  02DF' 0080'              	movwf	_measure_capacitance$812^(0+384)
  4396                           
  4397                           ;LC-meter.c: 433: Cin = F2 * F2 * (F1 * F1 - F3 * F3) * CCal;
  4398  02E0' 0800'              	movf	(_CCal+3)^(0+384),w
  4399  02E1' 1283               	bcf	3,5	;RP0=0, select bank0
  4400  02E2' 1303               	bcf	3,6	;RP1=0, select bank0
  4401  02E3' 00A1'              	movwf	___flmul@f1+3
  4402  02E4' 1683               	bsf	3,5	;RP0=1, select bank3
  4403  02E5' 1703               	bsf	3,6	;RP1=1, select bank3
  4404  02E6' 0800'              	movf	(_CCal+2)^(0+384),w
  4405  02E7' 1283               	bcf	3,5	;RP0=0, select bank0
  4406  02E8' 1303               	bcf	3,6	;RP1=0, select bank0
  4407  02E9' 00A0'              	movwf	___flmul@f1+2
  4408  02EA' 1683               	bsf	3,5	;RP0=1, select bank3
  4409  02EB' 1703               	bsf	3,6	;RP1=1, select bank3
  4410  02EC' 0800'              	movf	(_CCal+1)^(0+384),w
  4411  02ED' 1283               	bcf	3,5	;RP0=0, select bank0
  4412  02EE' 1303               	bcf	3,6	;RP1=0, select bank0
  4413  02EF' 009F'              	movwf	___flmul@f1+1
  4414  02F0' 1683               	bsf	3,5	;RP0=1, select bank3
  4415  02F1' 1703               	bsf	3,6	;RP1=1, select bank3
  4416  02F2' 0800'              	movf	_CCal^(0+384),w
  4417  02F3' 1283               	bcf	3,5	;RP0=0, select bank0
  4418  02F4' 1303               	bcf	3,6	;RP1=0, select bank0
  4419  02F5' 009E'              	movwf	___flmul@f1
  4420  02F6' 1683               	bsf	3,5	;RP0=1, select bank3
  4421  02F7' 1703               	bsf	3,6	;RP1=1, select bank3
  4422  02F8' 0800'              	movf	(_measure_capacitance$812+3)^(0+384),w
  4423  02F9' 1283               	bcf	3,5	;RP0=0, select bank0
  4424  02FA' 1303               	bcf	3,6	;RP1=0, select bank0
  4425  02FB' 00A5'              	movwf	___flmul@f2+3
  4426  02FC' 1683               	bsf	3,5	;RP0=1, select bank3
  4427  02FD' 1703               	bsf	3,6	;RP1=1, select bank3
  4428  02FE' 0800'              	movf	(_measure_capacitance$812+2)^(0+384),w
  4429  02FF' 1283               	bcf	3,5	;RP0=0, select bank0
  4430  0300' 1303               	bcf	3,6	;RP1=0, select bank0
  4431  0301' 00A4'              	movwf	___flmul@f2+2
  4432  0302' 1683               	bsf	3,5	;RP0=1, select bank3
  4433  0303' 1703               	bsf	3,6	;RP1=1, select bank3
  4434  0304' 0800'              	movf	(_measure_capacitance$812+1)^(0+384),w
  4435  0305' 1283               	bcf	3,5	;RP0=0, select bank0
  4436  0306' 1303               	bcf	3,6	;RP1=0, select bank0
  4437  0307' 00A3'              	movwf	___flmul@f2+1
  4438  0308' 1683               	bsf	3,5	;RP0=1, select bank3
  4439  0309' 1703               	bsf	3,6	;RP1=1, select bank3
  4440  030A' 0800'              	movf	_measure_capacitance$812^(0+384),w
  4441  030B' 1283               	bcf	3,5	;RP0=0, select bank0
  4442  030C' 1303               	bcf	3,6	;RP1=0, select bank0
  4443  030D' 00A2'              	movwf	___flmul@f2
  4444  030E' 120A' 118A' 2000' 120A' 118A' 	fcall	___flmul
  4445  0313' 1283               	bcf	3,5	;RP0=0, select bank0
  4446  0314' 1303               	bcf	3,6	;RP1=0, select bank0
  4447  0315' 0821'              	movf	?___flmul+3,w
  4448  0316' 1683               	bsf	3,5	;RP0=1, select bank3
  4449  0317' 1703               	bsf	3,6	;RP1=1, select bank3
  4450  0318' 0080'              	movwf	(measure_capacitance@Cin+3)^(0+384)
  4451  0319' 1283               	bcf	3,5	;RP0=0, select bank0
  4452  031A' 1303               	bcf	3,6	;RP1=0, select bank0
  4453  031B' 0820'              	movf	?___flmul+2,w
  4454  031C' 1683               	bsf	3,5	;RP0=1, select bank3
  4455  031D' 1703               	bsf	3,6	;RP1=1, select bank3
  4456  031E' 0080'              	movwf	(measure_capacitance@Cin+2)^(0+384)
  4457  031F' 1283               	bcf	3,5	;RP0=0, select bank0
  4458  0320' 1303               	bcf	3,6	;RP1=0, select bank0
  4459  0321' 081F'              	movf	?___flmul+1,w
  4460  0322' 1683               	bsf	3,5	;RP0=1, select bank3
  4461  0323' 1703               	bsf	3,6	;RP1=1, select bank3
  4462  0324' 0080'              	movwf	(measure_capacitance@Cin+1)^(0+384)
  4463  0325' 1283               	bcf	3,5	;RP0=0, select bank0
  4464  0326' 1303               	bcf	3,6	;RP1=0, select bank0
  4465  0327' 081E'              	movf	?___flmul,w
  4466  0328' 1683               	bsf	3,5	;RP0=1, select bank3
  4467  0329' 1703               	bsf	3,6	;RP1=1, select bank3
  4468  032A' 0080'              	movwf	measure_capacitance@Cin^(0+384)
  4469                           
  4470                           ;LC-meter.c: 437: ser_puts("Cin=");
  4471  032B' 306D               	movlw	(low ((STR_10-__stringbase)| (0+32768)))& (0+255)
  4472  032C' 120A' 118A' 2000' 120A' 118A' 	fcall	_ser_puts
  4473                           
  4474                           ;LC-meter.c: 438: format_double( Cin);
  4475  0331' 1683               	bsf	3,5	;RP0=1, select bank3
  4476  0332' 1703               	bsf	3,6	;RP1=1, select bank3
  4477  0333' 0800'              	movf	(measure_capacitance@Cin+3)^(0+384),w
  4478  0334' 0080'              	movwf	(format_double@num+3)^(0+384)
  4479  0335' 0800'              	movf	(measure_capacitance@Cin+2)^(0+384),w
  4480  0336' 0080'              	movwf	(format_double@num+2)^(0+384)
  4481  0337' 0800'              	movf	(measure_capacitance@Cin+1)^(0+384),w
  4482  0338' 0080'              	movwf	(format_double@num+1)^(0+384)
  4483  0339' 0800'              	movf	measure_capacitance@Cin^(0+384),w
  4484  033A' 0080'              	movwf	format_double@num^(0+384)
  4485  033B' 120A' 118A' 2000' 120A' 118A' 	fcall	_format_double
  4486                           
  4487                           ;LC-meter.c: 439: ser_putch(' ');
  4488  0340' 3020               	movlw	32
  4489  0341' 1683               	bsf	3,5	;RP0=1, select bank1
  4490  0342' 1303               	bcf	3,6	;RP1=0, select bank1
  4491  0343' 0080'              	movwf	??_measure_capacitance^(0+128)
  4492  0344' 0800'              	movf	??_measure_capacitance^(0+128),w
  4493  0345' 1283               	bcf	3,5	;RP0=0, select bank0
  4494  0346' 1303               	bcf	3,6	;RP1=0, select bank0
  4495  0347' 0084'              	movwf	ser_putch@c
  4496  0348' 120A' 118A' 2000' 120A' 118A' 	fcall	_ser_putch
  4497                           
  4498                           ;LC-meter.c: 440: format_xint32( *(unsigned long int*)&Cin);
  4499  034D' 1683               	bsf	3,5	;RP0=1, select bank3
  4500  034E' 1703               	bsf	3,6	;RP1=1, select bank3
  4501  034F' 0800'              	movf	(measure_capacitance@Cin+3)^(0+384),w
  4502  0350' 1283               	bcf	3,5	;RP0=0, select bank0
  4503  0351' 1303               	bcf	3,6	;RP1=0, select bank0
  4504  0352' 00B7'              	movwf	format_xint32@x+3
  4505  0353' 1683               	bsf	3,5	;RP0=1, select bank3
  4506  0354' 1703               	bsf	3,6	;RP1=1, select bank3
  4507  0355' 0800'              	movf	(measure_capacitance@Cin+2)^(0+384),w
  4508  0356' 1283               	bcf	3,5	;RP0=0, select bank0
  4509  0357' 1303               	bcf	3,6	;RP1=0, select bank0
  4510  0358' 00B6'              	movwf	format_xint32@x+2
  4511  0359' 1683               	bsf	3,5	;RP0=1, select bank3
  4512  035A' 1703               	bsf	3,6	;RP1=1, select bank3
  4513  035B' 0800'              	movf	(measure_capacitance@Cin+1)^(0+384),w
  4514  035C' 1283               	bcf	3,5	;RP0=0, select bank0
  4515  035D' 1303               	bcf	3,6	;RP1=0, select bank0
  4516  035E' 00B5'              	movwf	format_xint32@x+1
  4517  035F' 1683               	bsf	3,5	;RP0=1, select bank3
  4518  0360' 1703               	bsf	3,6	;RP1=1, select bank3
  4519  0361' 0800'              	movf	measure_capacitance@Cin^(0+384),w
  4520  0362' 1283               	bcf	3,5	;RP0=0, select bank0
  4521  0363' 1303               	bcf	3,6	;RP1=0, select bank0
  4522  0364' 00B4'              	movwf	format_xint32@x
  4523  0365' 120A' 118A' 2000' 120A' 118A' 	fcall	_format_xint32
  4524                           
  4525                           ;LC-meter.c: 441: ser_puts("\r\n");
  4526  036A' 3058               	movlw	(low (((STR_1+3)-__stringbase)| (0+32768)))& (0+255)
  4527  036B' 120A' 118A' 2000' 120A' 118A' 	fcall	_ser_puts
  4528                           
  4529                           ;LC-meter.c: 443: if(Cin > 999) {
  4530  0370' 3044               	movlw	68
  4531  0371' 1283               	bcf	3,5	;RP0=0, select bank0
  4532  0372' 1303               	bcf	3,6	;RP1=0, select bank0
  4533  0373' 0083'              	movwf	___flge@ff1+3
  4534  0374' 3079               	movlw	121
  4535  0375' 0082'              	movwf	___flge@ff1+2
  4536  0376' 30C0               	movlw	192
  4537  0377' 0081'              	movwf	___flge@ff1+1
  4538  0378' 3000               	movlw	0
  4539  0379' 0080'              	movwf	___flge@ff1
  4540  037A' 1683               	bsf	3,5	;RP0=1, select bank3
  4541  037B' 1703               	bsf	3,6	;RP1=1, select bank3
  4542  037C' 0800'              	movf	(measure_capacitance@Cin+3)^(0+384),w
  4543  037D' 1283               	bcf	3,5	;RP0=0, select bank0
  4544  037E' 1303               	bcf	3,6	;RP1=0, select bank0
  4545  037F' 0087'              	movwf	___flge@ff2+3
  4546  0380' 1683               	bsf	3,5	;RP0=1, select bank3
  4547  0381' 1703               	bsf	3,6	;RP1=1, select bank3
  4548  0382' 0800'              	movf	(measure_capacitance@Cin+2)^(0+384),w
  4549  0383' 1283               	bcf	3,5	;RP0=0, select bank0
  4550  0384' 1303               	bcf	3,6	;RP1=0, select bank0
  4551  0385' 0086'              	movwf	___flge@ff2+2
  4552  0386' 1683               	bsf	3,5	;RP0=1, select bank3
  4553  0387' 1703               	bsf	3,6	;RP1=1, select bank3
  4554  0388' 0800'              	movf	(measure_capacitance@Cin+1)^(0+384),w
  4555  0389' 1283               	bcf	3,5	;RP0=0, select bank0
  4556  038A' 1303               	bcf	3,6	;RP1=0, select bank0
  4557  038B' 0085'              	movwf	___flge@ff2+1
  4558  038C' 1683               	bsf	3,5	;RP0=1, select bank3
  4559  038D' 1703               	bsf	3,6	;RP1=1, select bank3
  4560  038E' 0800'              	movf	measure_capacitance@Cin^(0+384),w
  4561  038F' 1283               	bcf	3,5	;RP0=0, select bank0
  4562  0390' 1303               	bcf	3,6	;RP1=0, select bank0
  4563  0391' 0084'              	movwf	___flge@ff2
  4564  0392' 120A' 118A' 2000' 120A' 118A' 	fcall	___flge
  4565  0397' 1803               	btfsc	3,0
  4566  0398' 2800'              	goto	l4182
  4567                           
  4568                           ;LC-meter.c: 444: if(Cin > (999e+03l)) {
  4569  0399' 3049               	movlw	73
  4570  039A' 1283               	bcf	3,5	;RP0=0, select bank0
  4571  039B' 1303               	bcf	3,6	;RP1=0, select bank0
  4572  039C' 0083'              	movwf	___flge@ff1+3
  4573  039D' 3073               	movlw	115
  4574  039E' 0082'              	movwf	___flge@ff1+2
  4575  039F' 30E5               	movlw	229
  4576  03A0' 0081'              	movwf	___flge@ff1+1
  4577  03A1' 3080               	movlw	128
  4578  03A2' 0080'              	movwf	___flge@ff1
  4579  03A3' 1683               	bsf	3,5	;RP0=1, select bank3
  4580  03A4' 1703               	bsf	3,6	;RP1=1, select bank3
  4581  03A5' 0800'              	movf	(measure_capacitance@Cin+3)^(0+384),w
  4582  03A6' 1283               	bcf	3,5	;RP0=0, select bank0
  4583  03A7' 1303               	bcf	3,6	;RP1=0, select bank0
  4584  03A8' 0087'              	movwf	___flge@ff2+3
  4585  03A9' 1683               	bsf	3,5	;RP0=1, select bank3
  4586  03AA' 1703               	bsf	3,6	;RP1=1, select bank3
  4587  03AB' 0800'              	movf	(measure_capacitance@Cin+2)^(0+384),w
  4588  03AC' 1283               	bcf	3,5	;RP0=0, select bank0
  4589  03AD' 1303               	bcf	3,6	;RP1=0, select bank0
  4590  03AE' 0086'              	movwf	___flge@ff2+2
  4591  03AF' 1683               	bsf	3,5	;RP0=1, select bank3
  4592  03B0' 1703               	bsf	3,6	;RP1=1, select bank3
  4593  03B1' 0800'              	movf	(measure_capacitance@Cin+1)^(0+384),w
  4594  03B2' 1283               	bcf	3,5	;RP0=0, select bank0
  4595  03B3' 1303               	bcf	3,6	;RP1=0, select bank0
  4596  03B4' 0085'              	movwf	___flge@ff2+1
  4597  03B5' 1683               	bsf	3,5	;RP0=1, select bank3
  4598  03B6' 1703               	bsf	3,6	;RP1=1, select bank3
  4599  03B7' 0800'              	movf	measure_capacitance@Cin^(0+384),w
  4600  03B8' 1283               	bcf	3,5	;RP0=0, select bank0
  4601  03B9' 1303               	bcf	3,6	;RP1=0, select bank0
  4602  03BA' 0084'              	movwf	___flge@ff2
  4603  03BB' 120A' 118A' 2000' 120A' 118A' 	fcall	___flge
  4604  03C0' 1803               	btfsc	3,0
  4605  03C1' 2800'              	goto	l4178
  4606                           
  4607                           ;LC-meter.c: 445: if(Cin > (999e+06l)) {
  4608  03C2' 304E               	movlw	78
  4609  03C3' 1283               	bcf	3,5	;RP0=0, select bank0
  4610  03C4' 1303               	bcf	3,6	;RP1=0, select bank0
  4611  03C5' 0083'              	movwf	___flge@ff1+3
  4612  03C6' 306E               	movlw	110
  4613  03C7' 0082'              	movwf	___flge@ff1+2
  4614  03C8' 302E               	movlw	46
  4615  03C9' 0081'              	movwf	___flge@ff1+1
  4616  03CA' 301F               	movlw	31
  4617  03CB' 0080'              	movwf	___flge@ff1
  4618  03CC' 1683               	bsf	3,5	;RP0=1, select bank3
  4619  03CD' 1703               	bsf	3,6	;RP1=1, select bank3
  4620  03CE' 0800'              	movf	(measure_capacitance@Cin+3)^(0+384),w
  4621  03CF' 1283               	bcf	3,5	;RP0=0, select bank0
  4622  03D0' 1303               	bcf	3,6	;RP1=0, select bank0
  4623  03D1' 0087'              	movwf	___flge@ff2+3
  4624  03D2' 1683               	bsf	3,5	;RP0=1, select bank3
  4625  03D3' 1703               	bsf	3,6	;RP1=1, select bank3
  4626  03D4' 0800'              	movf	(measure_capacitance@Cin+2)^(0+384),w
  4627  03D5' 1283               	bcf	3,5	;RP0=0, select bank0
  4628  03D6' 1303               	bcf	3,6	;RP1=0, select bank0
  4629  03D7' 0086'              	movwf	___flge@ff2+2
  4630  03D8' 1683               	bsf	3,5	;RP0=1, select bank3
  4631  03D9' 1703               	bsf	3,6	;RP1=1, select bank3
  4632  03DA' 0800'              	movf	(measure_capacitance@Cin+1)^(0+384),w
  4633  03DB' 1283               	bcf	3,5	;RP0=0, select bank0
  4634  03DC' 1303               	bcf	3,6	;RP1=0, select bank0
  4635  03DD' 0085'              	movwf	___flge@ff2+1
  4636  03DE' 1683               	bsf	3,5	;RP0=1, select bank3
  4637  03DF' 1703               	bsf	3,6	;RP1=1, select bank3
  4638  03E0' 0800'              	movf	measure_capacitance@Cin^(0+384),w
  4639  03E1' 1283               	bcf	3,5	;RP0=0, select bank0
  4640  03E2' 1303               	bcf	3,6	;RP1=0, select bank0
  4641  03E3' 0084'              	movwf	___flge@ff2
  4642  03E4' 120A' 118A' 2000' 120A' 118A' 	fcall	___flge
  4643  03E9' 1803               	btfsc	3,0
  4644  03EA' 2800'              	goto	l4174
  4645                           
  4646                           ;LC-meter.c: 446: Cin = Cin / (1e+09l);
  4647  03EB' 304E               	movlw	78
  4648  03EC' 1283               	bcf	3,5	;RP0=0, select bank0
  4649  03ED' 1303               	bcf	3,6	;RP1=0, select bank0
  4650  03EE' 008D'              	movwf	___fldiv@f2+3
  4651  03EF' 306E               	movlw	110
  4652  03F0' 008C'              	movwf	___fldiv@f2+2
  4653  03F1' 306B               	movlw	107
  4654  03F2' 008B'              	movwf	___fldiv@f2+1
  4655  03F3' 3028               	movlw	40
  4656  03F4' 008A'              	movwf	___fldiv@f2
  4657  03F5' 1683               	bsf	3,5	;RP0=1, select bank3
  4658  03F6' 1703               	bsf	3,6	;RP1=1, select bank3
  4659  03F7' 0800'              	movf	(measure_capacitance@Cin+3)^(0+384),w
  4660  03F8' 1283               	bcf	3,5	;RP0=0, select bank0
  4661  03F9' 1303               	bcf	3,6	;RP1=0, select bank0
  4662  03FA' 0091'              	movwf	___fldiv@f1+3
  4663  03FB' 1683               	bsf	3,5	;RP0=1, select bank3
  4664  03FC' 1703               	bsf	3,6	;RP1=1, select bank3
  4665  03FD' 0800'              	movf	(measure_capacitance@Cin+2)^(0+384),w
  4666  03FE' 1283               	bcf	3,5	;RP0=0, select bank0
  4667  03FF' 1303               	bcf	3,6	;RP1=0, select bank0
  4668  0400' 0090'              	movwf	___fldiv@f1+2
  4669  0401' 1683               	bsf	3,5	;RP0=1, select bank3
  4670  0402' 1703               	bsf	3,6	;RP1=1, select bank3
  4671  0403' 0800'              	movf	(measure_capacitance@Cin+1)^(0+384),w
  4672  0404' 1283               	bcf	3,5	;RP0=0, select bank0
  4673  0405' 1303               	bcf	3,6	;RP1=0, select bank0
  4674  0406' 008F'              	movwf	___fldiv@f1+1
  4675  0407' 1683               	bsf	3,5	;RP0=1, select bank3
  4676  0408' 1703               	bsf	3,6	;RP1=1, select bank3
  4677  0409' 0800'              	movf	measure_capacitance@Cin^(0+384),w
  4678  040A' 1283               	bcf	3,5	;RP0=0, select bank0
  4679  040B' 1303               	bcf	3,6	;RP1=0, select bank0
  4680  040C' 008E'              	movwf	___fldiv@f1
  4681  040D' 120A' 118A' 2000' 120A' 118A' 	fcall	___fldiv
  4682  0412' 1283               	bcf	3,5	;RP0=0, select bank0
  4683  0413' 1303               	bcf	3,6	;RP1=0, select bank0
  4684  0414' 080D'              	movf	?___fldiv+3,w
  4685  0415' 1683               	bsf	3,5	;RP0=1, select bank3
  4686  0416' 1703               	bsf	3,6	;RP1=1, select bank3
  4687  0417' 0080'              	movwf	(measure_capacitance@Cin+3)^(0+384)
  4688  0418' 1283               	bcf	3,5	;RP0=0, select bank0
  4689  0419' 1303               	bcf	3,6	;RP1=0, select bank0
  4690  041A' 080C'              	movf	?___fldiv+2,w
  4691  041B' 1683               	bsf	3,5	;RP0=1, select bank3
  4692  041C' 1703               	bsf	3,6	;RP1=1, select bank3
  4693  041D' 0080'              	movwf	(measure_capacitance@Cin+2)^(0+384)
  4694  041E' 1283               	bcf	3,5	;RP0=0, select bank0
  4695  041F' 1303               	bcf	3,6	;RP1=0, select bank0
  4696  0420' 080B'              	movf	?___fldiv+1,w
  4697  0421' 1683               	bsf	3,5	;RP0=1, select bank3
  4698  0422' 1703               	bsf	3,6	;RP1=1, select bank3
  4699  0423' 0080'              	movwf	(measure_capacitance@Cin+1)^(0+384)
  4700  0424' 1283               	bcf	3,5	;RP0=0, select bank0
  4701  0425' 1303               	bcf	3,6	;RP1=0, select bank0
  4702  0426' 080A'              	movf	?___fldiv,w
  4703  0427' 1683               	bsf	3,5	;RP0=1, select bank3
  4704  0428' 1703               	bsf	3,6	;RP1=1, select bank3
  4705  0429' 0080'              	movwf	measure_capacitance@Cin^(0+384)
  4706                           
  4707                           ;LC-meter.c: 447: unit = 4;
  4708  042A' 3004               	movlw	4
  4709  042B' 2800'              	goto	L4
  4710  042C'                    l4174:	
  4711                           ;LC-meter.c: 448: } else {
  4712                           
  4713                           
  4714                           ;LC-meter.c: 449: Cin = Cin / (1e+06l);
  4715  042C' 3049               	movlw	73
  4716  042D' 1283               	bcf	3,5	;RP0=0, select bank0
  4717  042E' 1303               	bcf	3,6	;RP1=0, select bank0
  4718  042F' 008D'              	movwf	___fldiv@f2+3
  4719  0430' 3074               	movlw	116
  4720  0431' 008C'              	movwf	___fldiv@f2+2
  4721  0432' 3024               	movlw	36
  4722  0433' 008B'              	movwf	___fldiv@f2+1
  4723  0434' 3000               	movlw	0
  4724  0435' 008A'              	movwf	___fldiv@f2
  4725  0436' 1683               	bsf	3,5	;RP0=1, select bank3
  4726  0437' 1703               	bsf	3,6	;RP1=1, select bank3
  4727  0438' 0800'              	movf	(measure_capacitance@Cin+3)^(0+384),w
  4728  0439' 1283               	bcf	3,5	;RP0=0, select bank0
  4729  043A' 1303               	bcf	3,6	;RP1=0, select bank0
  4730  043B' 0091'              	movwf	___fldiv@f1+3
  4731  043C' 1683               	bsf	3,5	;RP0=1, select bank3
  4732  043D' 1703               	bsf	3,6	;RP1=1, select bank3
  4733  043E' 0800'              	movf	(measure_capacitance@Cin+2)^(0+384),w
  4734  043F' 1283               	bcf	3,5	;RP0=0, select bank0
  4735  0440' 1303               	bcf	3,6	;RP1=0, select bank0
  4736  0441' 0090'              	movwf	___fldiv@f1+2
  4737  0442' 1683               	bsf	3,5	;RP0=1, select bank3
  4738  0443' 1703               	bsf	3,6	;RP1=1, select bank3
  4739  0444' 0800'              	movf	(measure_capacitance@Cin+1)^(0+384),w
  4740  0445' 1283               	bcf	3,5	;RP0=0, select bank0
  4741  0446' 1303               	bcf	3,6	;RP1=0, select bank0
  4742  0447' 008F'              	movwf	___fldiv@f1+1
  4743  0448' 1683               	bsf	3,5	;RP0=1, select bank3
  4744  0449' 1703               	bsf	3,6	;RP1=1, select bank3
  4745  044A' 0800'              	movf	measure_capacitance@Cin^(0+384),w
  4746  044B' 1283               	bcf	3,5	;RP0=0, select bank0
  4747  044C' 1303               	bcf	3,6	;RP1=0, select bank0
  4748  044D' 008E'              	movwf	___fldiv@f1
  4749  044E' 120A' 118A' 2000' 120A' 118A' 	fcall	___fldiv
  4750  0453' 1283               	bcf	3,5	;RP0=0, select bank0
  4751  0454' 1303               	bcf	3,6	;RP1=0, select bank0
  4752  0455' 080D'              	movf	?___fldiv+3,w
  4753  0456' 1683               	bsf	3,5	;RP0=1, select bank3
  4754  0457' 1703               	bsf	3,6	;RP1=1, select bank3
  4755  0458' 0080'              	movwf	(measure_capacitance@Cin+3)^(0+384)
  4756  0459' 1283               	bcf	3,5	;RP0=0, select bank0
  4757  045A' 1303               	bcf	3,6	;RP1=0, select bank0
  4758  045B' 080C'              	movf	?___fldiv+2,w
  4759  045C' 1683               	bsf	3,5	;RP0=1, select bank3
  4760  045D' 1703               	bsf	3,6	;RP1=1, select bank3
  4761  045E' 0080'              	movwf	(measure_capacitance@Cin+2)^(0+384)
  4762  045F' 1283               	bcf	3,5	;RP0=0, select bank0
  4763  0460' 1303               	bcf	3,6	;RP1=0, select bank0
  4764  0461' 080B'              	movf	?___fldiv+1,w
  4765  0462' 1683               	bsf	3,5	;RP0=1, select bank3
  4766  0463' 1703               	bsf	3,6	;RP1=1, select bank3
  4767  0464' 0080'              	movwf	(measure_capacitance@Cin+1)^(0+384)
  4768  0465' 1283               	bcf	3,5	;RP0=0, select bank0
  4769  0466' 1303               	bcf	3,6	;RP1=0, select bank0
  4770  0467' 080A'              	movf	?___fldiv,w
  4771  0468' 1683               	bsf	3,5	;RP0=1, select bank3
  4772  0469' 1703               	bsf	3,6	;RP1=1, select bank3
  4773  046A' 0080'              	movwf	measure_capacitance@Cin^(0+384)
  4774                           
  4775                           ;LC-meter.c: 450: unit = 5;
  4776  046B' 3005               	movlw	5
  4777  046C' 2800'              	goto	L4
  4778  046D'                    l4178:	
  4779                           ;LC-meter.c: 451: }
  4780                           ;LC-meter.c: 452: } else {
  4781                           
  4782                           
  4783                           ;LC-meter.c: 453: Cin = Cin / 1e+03l;
  4784  046D' 3044               	movlw	68
  4785  046E' 1283               	bcf	3,5	;RP0=0, select bank0
  4786  046F' 1303               	bcf	3,6	;RP1=0, select bank0
  4787  0470' 008D'              	movwf	___fldiv@f2+3
  4788  0471' 307A               	movlw	122
  4789  0472' 008C'              	movwf	___fldiv@f2+2
  4790  0473' 3000               	movlw	0
  4791  0474' 008B'              	movwf	___fldiv@f2+1
  4792  0475' 3000               	movlw	0
  4793  0476' 008A'              	movwf	___fldiv@f2
  4794  0477' 1683               	bsf	3,5	;RP0=1, select bank3
  4795  0478' 1703               	bsf	3,6	;RP1=1, select bank3
  4796  0479' 0800'              	movf	(measure_capacitance@Cin+3)^(0+384),w
  4797  047A' 1283               	bcf	3,5	;RP0=0, select bank0
  4798  047B' 1303               	bcf	3,6	;RP1=0, select bank0
  4799  047C' 0091'              	movwf	___fldiv@f1+3
  4800  047D' 1683               	bsf	3,5	;RP0=1, select bank3
  4801  047E' 1703               	bsf	3,6	;RP1=1, select bank3
  4802  047F' 0800'              	movf	(measure_capacitance@Cin+2)^(0+384),w
  4803  0480' 1283               	bcf	3,5	;RP0=0, select bank0
  4804  0481' 1303               	bcf	3,6	;RP1=0, select bank0
  4805  0482' 0090'              	movwf	___fldiv@f1+2
  4806  0483' 1683               	bsf	3,5	;RP0=1, select bank3
  4807  0484' 1703               	bsf	3,6	;RP1=1, select bank3
  4808  0485' 0800'              	movf	(measure_capacitance@Cin+1)^(0+384),w
  4809  0486' 1283               	bcf	3,5	;RP0=0, select bank0
  4810  0487' 1303               	bcf	3,6	;RP1=0, select bank0
  4811  0488' 008F'              	movwf	___fldiv@f1+1
  4812  0489' 1683               	bsf	3,5	;RP0=1, select bank3
  4813  048A' 1703               	bsf	3,6	;RP1=1, select bank3
  4814  048B' 0800'              	movf	measure_capacitance@Cin^(0+384),w
  4815  048C' 1283               	bcf	3,5	;RP0=0, select bank0
  4816  048D' 1303               	bcf	3,6	;RP1=0, select bank0
  4817  048E' 008E'              	movwf	___fldiv@f1
  4818  048F' 120A' 118A' 2000' 120A' 118A' 	fcall	___fldiv
  4819  0494' 1283               	bcf	3,5	;RP0=0, select bank0
  4820  0495' 1303               	bcf	3,6	;RP1=0, select bank0
  4821  0496' 080D'              	movf	?___fldiv+3,w
  4822  0497' 1683               	bsf	3,5	;RP0=1, select bank3
  4823  0498' 1703               	bsf	3,6	;RP1=1, select bank3
  4824  0499' 0080'              	movwf	(measure_capacitance@Cin+3)^(0+384)
  4825  049A' 1283               	bcf	3,5	;RP0=0, select bank0
  4826  049B' 1303               	bcf	3,6	;RP1=0, select bank0
  4827  049C' 080C'              	movf	?___fldiv+2,w
  4828  049D' 1683               	bsf	3,5	;RP0=1, select bank3
  4829  049E' 1703               	bsf	3,6	;RP1=1, select bank3
  4830  049F' 0080'              	movwf	(measure_capacitance@Cin+2)^(0+384)
  4831  04A0' 1283               	bcf	3,5	;RP0=0, select bank0
  4832  04A1' 1303               	bcf	3,6	;RP1=0, select bank0
  4833  04A2' 080B'              	movf	?___fldiv+1,w
  4834  04A3' 1683               	bsf	3,5	;RP0=1, select bank3
  4835  04A4' 1703               	bsf	3,6	;RP1=1, select bank3
  4836  04A5' 0080'              	movwf	(measure_capacitance@Cin+1)^(0+384)
  4837  04A6' 1283               	bcf	3,5	;RP0=0, select bank0
  4838  04A7' 1303               	bcf	3,6	;RP1=0, select bank0
  4839  04A8' 080A'              	movf	?___fldiv,w
  4840  04A9' 1683               	bsf	3,5	;RP0=1, select bank3
  4841  04AA' 1703               	bsf	3,6	;RP1=1, select bank3
  4842  04AB' 0080'              	movwf	measure_capacitance@Cin^(0+384)
  4843                           
  4844                           ;LC-meter.c: 454: unit = 6;
  4845  04AC' 3006               	movlw	6
  4846  04AD' 2800'              	goto	L4
  4847  04AE'                    l4182:	
  4848                           ;LC-meter.c: 455: }
  4849                           ;LC-meter.c: 456: } else
  4850                           
  4851                           
  4852                           ;LC-meter.c: 457: unit = 7;
  4853  04AE' 3007               	movlw	7
  4854  04AF'                    L4:	
  4855  04AF' 1683               	bsf	3,5	;RP0=1, select bank1
  4856  04B0' 1303               	bcf	3,6	;RP1=0, select bank1
  4857  04B1' 0080'              	movwf	??_measure_capacitance^(0+128)
  4858  04B2' 0800'              	movf	??_measure_capacitance^(0+128),w
  4859  04B3' 1683               	bsf	3,5	;RP0=1, select bank3
  4860  04B4' 1703               	bsf	3,6	;RP1=1, select bank3
  4861  04B5' 0080'              	movwf	measure_capacitance@unit^(0+384)
  4862                           
  4863                           ;LC-meter.c: 459: Cin = Cin * 100;
  4864  04B6' 3042               	movlw	66
  4865  04B7' 1283               	bcf	3,5	;RP0=0, select bank0
  4866  04B8' 1303               	bcf	3,6	;RP1=0, select bank0
  4867  04B9' 00A1'              	movwf	___flmul@f1+3
  4868  04BA' 30C8               	movlw	200
  4869  04BB' 00A0'              	movwf	___flmul@f1+2
  4870  04BC' 3000               	movlw	0
  4871  04BD' 009F'              	movwf	___flmul@f1+1
  4872  04BE' 3000               	movlw	0
  4873  04BF' 009E'              	movwf	___flmul@f1
  4874  04C0' 1683               	bsf	3,5	;RP0=1, select bank3
  4875  04C1' 1703               	bsf	3,6	;RP1=1, select bank3
  4876  04C2' 0800'              	movf	(measure_capacitance@Cin+3)^(0+384),w
  4877  04C3' 1283               	bcf	3,5	;RP0=0, select bank0
  4878  04C4' 1303               	bcf	3,6	;RP1=0, select bank0
  4879  04C5' 00A5'              	movwf	___flmul@f2+3
  4880  04C6' 1683               	bsf	3,5	;RP0=1, select bank3
  4881  04C7' 1703               	bsf	3,6	;RP1=1, select bank3
  4882  04C8' 0800'              	movf	(measure_capacitance@Cin+2)^(0+384),w
  4883  04C9' 1283               	bcf	3,5	;RP0=0, select bank0
  4884  04CA' 1303               	bcf	3,6	;RP1=0, select bank0
  4885  04CB' 00A4'              	movwf	___flmul@f2+2
  4886  04CC' 1683               	bsf	3,5	;RP0=1, select bank3
  4887  04CD' 1703               	bsf	3,6	;RP1=1, select bank3
  4888  04CE' 0800'              	movf	(measure_capacitance@Cin+1)^(0+384),w
  4889  04CF' 1283               	bcf	3,5	;RP0=0, select bank0
  4890  04D0' 1303               	bcf	3,6	;RP1=0, select bank0
  4891  04D1' 00A3'              	movwf	___flmul@f2+1
  4892  04D2' 1683               	bsf	3,5	;RP0=1, select bank3
  4893  04D3' 1703               	bsf	3,6	;RP1=1, select bank3
  4894  04D4' 0800'              	movf	measure_capacitance@Cin^(0+384),w
  4895  04D5' 1283               	bcf	3,5	;RP0=0, select bank0
  4896  04D6' 1303               	bcf	3,6	;RP1=0, select bank0
  4897  04D7' 00A2'              	movwf	___flmul@f2
  4898  04D8' 120A' 118A' 2000' 120A' 118A' 	fcall	___flmul
  4899  04DD' 1283               	bcf	3,5	;RP0=0, select bank0
  4900  04DE' 1303               	bcf	3,6	;RP1=0, select bank0
  4901  04DF' 0821'              	movf	?___flmul+3,w
  4902  04E0' 1683               	bsf	3,5	;RP0=1, select bank3
  4903  04E1' 1703               	bsf	3,6	;RP1=1, select bank3
  4904  04E2' 0080'              	movwf	(measure_capacitance@Cin+3)^(0+384)
  4905  04E3' 1283               	bcf	3,5	;RP0=0, select bank0
  4906  04E4' 1303               	bcf	3,6	;RP1=0, select bank0
  4907  04E5' 0820'              	movf	?___flmul+2,w
  4908  04E6' 1683               	bsf	3,5	;RP0=1, select bank3
  4909  04E7' 1703               	bsf	3,6	;RP1=1, select bank3
  4910  04E8' 0080'              	movwf	(measure_capacitance@Cin+2)^(0+384)
  4911  04E9' 1283               	bcf	3,5	;RP0=0, select bank0
  4912  04EA' 1303               	bcf	3,6	;RP1=0, select bank0
  4913  04EB' 081F'              	movf	?___flmul+1,w
  4914  04EC' 1683               	bsf	3,5	;RP0=1, select bank3
  4915  04ED' 1703               	bsf	3,6	;RP1=1, select bank3
  4916  04EE' 0080'              	movwf	(measure_capacitance@Cin+1)^(0+384)
  4917  04EF' 1283               	bcf	3,5	;RP0=0, select bank0
  4918  04F0' 1303               	bcf	3,6	;RP1=0, select bank0
  4919  04F1' 081E'              	movf	?___flmul,w
  4920  04F2' 1683               	bsf	3,5	;RP0=1, select bank3
  4921  04F3' 1703               	bsf	3,6	;RP1=1, select bank3
  4922  04F4' 0080'              	movwf	measure_capacitance@Cin^(0+384)
  4923                           
  4924                           ;LC-meter.c: 460: var = (unsigned short int)Cin;
  4925  04F5' 0800'              	movf	(measure_capacitance@Cin+3)^(0+384),w
  4926  04F6' 1683               	bsf	3,5	;RP0=1, select bank1
  4927  04F7' 1303               	bcf	3,6	;RP1=0, select bank1
  4928  04F8' 0080'              	movwf	(___fltol@f1+3)^(0+128)
  4929  04F9' 1683               	bsf	3,5	;RP0=1, select bank3
  4930  04FA' 1703               	bsf	3,6	;RP1=1, select bank3
  4931  04FB' 0800'              	movf	(measure_capacitance@Cin+2)^(0+384),w
  4932  04FC' 1683               	bsf	3,5	;RP0=1, select bank1
  4933  04FD' 1303               	bcf	3,6	;RP1=0, select bank1
  4934  04FE' 0080'              	movwf	(___fltol@f1+2)^(0+128)
  4935  04FF' 1683               	bsf	3,5	;RP0=1, select bank3
  4936  0500' 1703               	bsf	3,6	;RP1=1, select bank3
  4937  0501' 0800'              	movf	(measure_capacitance@Cin+1)^(0+384),w
  4938  0502' 1683               	bsf	3,5	;RP0=1, select bank1
  4939  0503' 1303               	bcf	3,6	;RP1=0, select bank1
  4940  0504' 0080'              	movwf	(___fltol@f1+1)^(0+128)
  4941  0505' 1683               	bsf	3,5	;RP0=1, select bank3
  4942  0506' 1703               	bsf	3,6	;RP1=1, select bank3
  4943  0507' 0800'              	movf	measure_capacitance@Cin^(0+384),w
  4944  0508' 1683               	bsf	3,5	;RP0=1, select bank1
  4945  0509' 1303               	bcf	3,6	;RP1=0, select bank1
  4946  050A' 0080'              	movwf	___fltol@f1^(0+128)
  4947  050B' 120A' 118A' 2000' 120A' 118A' 	fcall	___fltol
  4948  0510' 1683               	bsf	3,5	;RP0=1, select bank1
  4949  0511' 1303               	bcf	3,6	;RP1=0, select bank1
  4950  0512' 0801'              	movf	(?___fltol^(0+128)+1),w
  4951  0513' 1683               	bsf	3,5	;RP0=1, select bank3
  4952  0514' 1703               	bsf	3,6	;RP1=1, select bank3
  4953  0515' 0080'              	movwf	(measure_capacitance@var+1)^(0+384)
  4954  0516' 1683               	bsf	3,5	;RP0=1, select bank1
  4955  0517' 1303               	bcf	3,6	;RP1=0, select bank1
  4956  0518' 0800'              	movf	?___fltol^(0+128),w
  4957  0519' 1683               	bsf	3,5	;RP0=1, select bank3
  4958  051A' 1703               	bsf	3,6	;RP1=1, select bank3
  4959  051B' 0080'              	movwf	measure_capacitance@var^(0+384)
  4960                           
  4961                           ;LC-meter.c: 462: print_reading(var);
  4962  051C' 0800'              	movf	(measure_capacitance@var+1)^(0+384),w
  4963  051D' 1283               	bcf	3,5	;RP0=0, select bank0
  4964  051E' 1303               	bcf	3,6	;RP1=0, select bank0
  4965  051F' 0081'              	movwf	print_reading@measurement+1
  4966  0520' 1683               	bsf	3,5	;RP0=1, select bank3
  4967  0521' 1703               	bsf	3,6	;RP1=1, select bank3
  4968  0522' 0800'              	movf	measure_capacitance@var^(0+384),w
  4969  0523' 1283               	bcf	3,5	;RP0=0, select bank0
  4970  0524' 1303               	bcf	3,6	;RP1=0, select bank0
  4971  0525' 0080'              	movwf	print_reading@measurement
  4972  0526' 120A' 118A' 2000' 120A' 118A' 	fcall	_print_reading
  4973                           
  4974                           ;LC-meter.c: 463: print_unit(unit);
  4975  052B' 1683               	bsf	3,5	;RP0=1, select bank3
  4976  052C' 1703               	bsf	3,6	;RP1=1, select bank3
  4977  052D' 0800'              	movf	measure_capacitance@unit^(0+384),w
  4978  052E' 120A' 118A' 2000'  	fcall	_print_unit
  4979  0531' 0008               	return
  4980  0532'                    __end_of_measure_capacitance:	
  4981                           
  4982                           	psect	text5
  4983  0000'                    __ptext5:	
  4984 ;; *************** function _print_unit *****************
  4985 ;; Defined at:
  4986 ;;		line 408 in file "../../../src/print.c"
  4987 ;; Parameters:    Size  Location     Type
  4988 ;;  unit            1    wreg     unsigned char 
  4989 ;; Auto vars:     Size  Location     Type
  4990 ;;  unit            1    0[COMMON] unsigned char 
  4991 ;; Return value:  Size  Location     Type
  4992 ;;		None               void
  4993 ;; Registers used:
  4994 ;;		wreg
  4995 ;; Tracked objects:
  4996 ;;		On entry : 0/0
  4997 ;;		On exit  : 0/0
  4998 ;;		Unchanged: 0/0
  4999 ;; Data sizes:     COMMON   BANK0   BANK1   BANK3   BANK2
  5000 ;;      Params:         0       0       0       0       0
  5001 ;;      Locals:         0       0       0       0       0
  5002 ;;      Temps:          0       0       0       0       0
  5003 ;;      Totals:         0       0       0       0       0
  5004 ;;Total ram usage:        0 bytes
  5005 ;; Hardware stack levels used:    1
  5006 ;; Hardware stack levels required when called:    1
  5007 ;; This function calls:
  5008 ;;		Nothing
  5009 ;; This function is called by:
  5010 ;;		_measure_capacitance
  5011 ;;		_measure_inductance
  5012 ;; This function uses a non-reentrant model
  5013 ;;
  5014                           
  5015                           
  5016                           ;psect for function _print_unit
  5017  0000'                    _print_unit:	
  5018                           
  5019                           ;incstack = 0
  5020                           ; Regs used in _print_unit: [wreg]
  5021  0000' 0008               	return
  5022  0001'                    __end_of_print_unit:	
  5023                           
  5024                           	psect	text6
  5025  0000'                    __ptext6:	
  5026 ;; *************** function _print_reading *****************
  5027 ;; Defined at:
  5028 ;;		line 429 in file "../../../src/print.c"
  5029 ;; Parameters:    Size  Location     Type
  5030 ;;  measurement     2    0[BANK0 ] unsigned short 
  5031 ;; Auto vars:     Size  Location     Type
  5032 ;;		None
  5033 ;; Return value:  Size  Location     Type
  5034 ;;		None               void
  5035 ;; Registers used:
  5036 ;;		None
  5037 ;; Tracked objects:
  5038 ;;		On entry : 0/0
  5039 ;;		On exit  : 0/0
  5040 ;;		Unchanged: 0/0
  5041 ;; Data sizes:     COMMON   BANK0   BANK1   BANK3   BANK2
  5042 ;;      Params:         0       2       0       0       0
  5043 ;;      Locals:         0       0       0       0       0
  5044 ;;      Temps:          0       0       0       0       0
  5045 ;;      Totals:         0       2       0       0       0
  5046 ;;Total ram usage:        2 bytes
  5047 ;; Hardware stack levels used:    1
  5048 ;; Hardware stack levels required when called:    1
  5049 ;; This function calls:
  5050 ;;		Nothing
  5051 ;; This function is called by:
  5052 ;;		_measure_capacitance
  5053 ;;		_measure_inductance
  5054 ;; This function uses a non-reentrant model
  5055 ;;
  5056                           
  5057                           
  5058                           ;psect for function _print_reading
  5059  0000'                    _print_reading:	
  5060                           
  5061                           ;incstack = 0
  5062                           ; Regs used in _print_reading: []
  5063  0000' 0008               	return
  5064  0001'                    __end_of_print_reading:	
  5065                           
  5066                           	psect	text7
  5067  0000'                    __ptext7:	
  5068 ;; *************** function _format_xint32 *****************
  5069 ;; Defined at:
  5070 ;;		line 48 in file "../../../lib/format.c"
  5071 ;; Parameters:    Size  Location     Type
  5072 ;;  x               4   52[BANK0 ] unsigned long 
  5073 ;; Auto vars:     Size  Location     Type
  5074 ;;		None
  5075 ;; Return value:  Size  Location     Type
  5076 ;;		None               void
  5077 ;; Registers used:
  5078 ;;		wreg, fsr0l, fsr0h, status,2, status,0, pclath, cstack
  5079 ;; Tracked objects:
  5080 ;;		On entry : 0/0
  5081 ;;		On exit  : 0/0
  5082 ;;		Unchanged: 0/0
  5083 ;; Data sizes:     COMMON   BANK0   BANK1   BANK3   BANK2
  5084 ;;      Params:         0       4       0       0       0
  5085 ;;      Locals:         0       0       0       0       0
  5086 ;;      Temps:          0       6       0       0       0
  5087 ;;      Totals:         0      10       0       0       0
  5088 ;;Total ram usage:       10 bytes
  5089 ;; Hardware stack levels used:    1
  5090 ;; Hardware stack levels required when called:    4
  5091 ;; This function calls:
  5092 ;;		_format_number
  5093 ;;		_format_putchar
  5094 ;;		_output_putch
  5095 ;;		_ser_putch
  5096 ;; This function is called by:
  5097 ;;		_measure_capacitance
  5098 ;; This function uses a non-reentrant model
  5099 ;;
  5100                           
  5101                           
  5102                           ;psect for function _format_xint32
  5103  0000'                    _format_xint32:	
  5104                           
  5105                           ;format.c: 49: putchar_ptr('0');
  5106                           
  5107                           ;incstack = 0
  5108                           ; Regs used in _format_xint32: [wreg-fsr0h+status,2+status,0+pclath+cstack]
  5109  0000' 3030               	movlw	48
  5110  0001' 1283               	bcf	3,5	;RP0=0, select bank0
  5111  0002' 1303               	bcf	3,6	;RP1=0, select bank0
  5112  0003' 00B8'              	movwf	??_format_xint32
  5113  0004' 0838'              	movf	??_format_xint32,w
  5114  0005' 0084'              	movwf	output_putch@c
  5115  0006' 0800'              	movf	_putchar_ptr,w
  5116  0007' 120A' 118A' 2000' 120A' 118A' 	fcall	fptable
  5117                           
  5118                           ;format.c: 50: putchar_ptr('x');
  5119  000C' 3078               	movlw	120
  5120  000D' 1283               	bcf	3,5	;RP0=0, select bank0
  5121  000E' 1303               	bcf	3,6	;RP1=0, select bank0
  5122  000F' 00B8'              	movwf	??_format_xint32
  5123  0010' 0838'              	movf	??_format_xint32,w
  5124  0011' 0084'              	movwf	output_putch@c
  5125  0012' 0800'              	movf	_putchar_ptr,w
  5126  0013' 120A' 118A' 2000' 120A' 118A' 	fcall	fptable
  5127                           
  5128                           ;format.c: 51: format_number((unsigned short int)(x >> 16), 16, -4);
  5129  0018' 1283               	bcf	3,5	;RP0=0, select bank0
  5130  0019' 1303               	bcf	3,6	;RP1=0, select bank0
  5131  001A' 0834'              	movf	format_xint32@x,w
  5132  001B' 00B8'              	movwf	??_format_xint32
  5133  001C' 0835'              	movf	format_xint32@x+1,w
  5134  001D' 00B9'              	movwf	??_format_xint32+1
  5135  001E' 0836'              	movf	format_xint32@x+2,w
  5136  001F' 00BA'              	movwf	??_format_xint32+2
  5137  0020' 0837'              	movf	format_xint32@x+3,w
  5138  0021' 00BB'              	movwf	??_format_xint32+3
  5139  0022' 3010               	movlw	16
  5140  0023'                    u4995:	
  5141  0023' 1003               	clrc
  5142  0024' 0CBB'              	rrf	??_format_xint32+3,f
  5143  0025' 0CBA'              	rrf	??_format_xint32+2,f
  5144  0026' 0CB9'              	rrf	??_format_xint32+1,f
  5145  0027' 0CB8'              	rrf	??_format_xint32,f
  5146  0028' 3EFF               	addlw	-1
  5147  0029' 1D03               	skipz
  5148  002A' 2800'              	goto	u4995
  5149  002B' 0839'              	movf	??_format_xint32+1,w
  5150  002C' 0089'              	movwf	format_number@n+1
  5151  002D' 0838'              	movf	??_format_xint32,w
  5152  002E' 0088'              	movwf	format_number@n
  5153  002F' 3010               	movlw	16
  5154  0030' 00BC'              	movwf	??_format_xint32+4
  5155  0031' 083C'              	movf	??_format_xint32+4,w
  5156  0032' 008A'              	movwf	format_number@base
  5157  0033' 30FC               	movlw	252
  5158  0034' 00BD'              	movwf	??_format_xint32+5
  5159  0035' 083D'              	movf	??_format_xint32+5,w
  5160  0036' 008B'              	movwf	format_number@pad
  5161  0037' 120A' 118A' 2000' 120A' 118A' 	fcall	_format_number
  5162                           
  5163                           ;format.c: 52: format_number((unsigned short int)(x & 0xffff), 16, -4);
  5164  003C' 1283               	bcf	3,5	;RP0=0, select bank0
  5165  003D' 1303               	bcf	3,6	;RP1=0, select bank0
  5166  003E' 0835'              	movf	format_xint32@x+1,w
  5167  003F' 0089'              	movwf	format_number@n+1
  5168  0040' 0834'              	movf	format_xint32@x,w
  5169  0041' 0088'              	movwf	format_number@n
  5170  0042' 3010               	movlw	16
  5171  0043' 00B8'              	movwf	??_format_xint32
  5172  0044' 0838'              	movf	??_format_xint32,w
  5173  0045' 008A'              	movwf	format_number@base
  5174  0046' 30FC               	movlw	252
  5175  0047' 00B9'              	movwf	??_format_xint32+1
  5176  0048' 0839'              	movf	??_format_xint32+1,w
  5177  0049' 008B'              	movwf	format_number@pad
  5178  004A' 120A' 118A' 2000'  	fcall	_format_number
  5179  004D' 0008               	return
  5180  004E'                    __end_of_format_xint32:	
  5181                           
  5182                           	psect	text8
  5183  0000'                    __ptext8:	
  5184 ;; *************** function _format_number *****************
  5185 ;; Defined at:
  5186 ;;		line 14 in file "../../../lib/format.c"
  5187 ;; Parameters:    Size  Location     Type
  5188 ;;  n               2    8[BANK0 ] unsigned short 
  5189 ;;  base            1   10[BANK0 ] unsigned char 
  5190 ;;  pad             1   11[BANK0 ] char 
  5191 ;; Auto vars:     Size  Location     Type
  5192 ;;  buf            32   15[BANK0 ] unsigned char [32]
  5193 ;;  i               1   51[BANK0 ] char 
  5194 ;;  di              1   50[BANK0 ] unsigned char 
  5195 ;;  padchar         1   49[BANK0 ] unsigned char 
  5196 ;; Return value:  Size  Location     Type
  5197 ;;		None               void
  5198 ;; Registers used:
  5199 ;;		wreg, fsr0l, fsr0h, status,2, status,0, pclath, cstack
  5200 ;; Tracked objects:
  5201 ;;		On entry : 0/0
  5202 ;;		On exit  : 0/0
  5203 ;;		Unchanged: 0/0
  5204 ;; Data sizes:     COMMON   BANK0   BANK1   BANK3   BANK2
  5205 ;;      Params:         0       4       0       0       0
  5206 ;;      Locals:         0      37       0       0       0
  5207 ;;      Temps:          0       3       0       0       0
  5208 ;;      Totals:         0      44       0       0       0
  5209 ;;Total ram usage:       44 bytes
  5210 ;; Hardware stack levels used:    1
  5211 ;; Hardware stack levels required when called:    3
  5212 ;; This function calls:
  5213 ;;		___lwdiv
  5214 ;;		___lwmod
  5215 ;;		_format_putchar
  5216 ;;		_output_putch
  5217 ;;		_ser_putch
  5218 ;; This function is called by:
  5219 ;;		_format_xint32
  5220 ;;		_testloop
  5221 ;; This function uses a non-reentrant model
  5222 ;;
  5223                           
  5224                           
  5225                           ;psect for function _format_number
  5226  0000'                    _format_number:	
  5227                           
  5228                           ;format.c: 15: char buf[8 * sizeof(long)];
  5229                           ;format.c: 16: unsigned char di;
  5230                           ;format.c: 17: signed char i = 0;
  5231                           
  5232                           ;incstack = 0
  5233                           ; Regs used in _format_number: [wreg-fsr0h+status,2+status,0+pclath+cstack]
  5234  0000' 1283               	bcf	3,5	;RP0=0, select bank0
  5235  0001' 1303               	bcf	3,6	;RP1=0, select bank0
  5236  0002' 01B3'              	clrf	format_number@i
  5237                           
  5238                           ;format.c: 18: char padchar = ' ';
  5239  0003' 3020               	movlw	32
  5240  0004' 008C'              	movwf	??_format_number
  5241  0005' 080C'              	movf	??_format_number,w
  5242  0006' 00B1'              	movwf	format_number@padchar
  5243                           
  5244                           ;format.c: 20: if(pad < 0) {
  5245  0007' 1F8B'              	btfss	format_number@pad,7
  5246  0008' 2800'              	goto	l3842
  5247                           
  5248                           ;format.c: 21: pad = -pad;
  5249  0009' 098B'              	comf	format_number@pad,f
  5250  000A' 0A8B'              	incf	format_number@pad,f
  5251                           
  5252                           ;format.c: 22: padchar = '0';
  5253  000B' 3030               	movlw	48
  5254  000C' 008C'              	movwf	??_format_number
  5255  000D' 080C'              	movf	??_format_number,w
  5256  000E' 00B1'              	movwf	format_number@padchar
  5257  000F'                    l3842:	
  5258                           ;format.c: 23: }
  5259                           ;format.c: 30: do {
  5260                           
  5261                           
  5262                           ;format.c: 34: di = n % base;
  5263  000F' 080A'              	movf	format_number@base,w
  5264  0010' 008C'              	movwf	??_format_number
  5265  0011' 018D'              	clrf	??_format_number+1
  5266  0012' 080C'              	movf	??_format_number,w
  5267  0013' 0080'              	movwf	___lwmod@divisor
  5268  0014' 080D'              	movf	??_format_number+1,w
  5269  0015' 0081'              	movwf	___lwmod@divisor+1
  5270  0016' 0809'              	movf	format_number@n+1,w
  5271  0017' 0083'              	movwf	___lwmod@dividend+1
  5272  0018' 0808'              	movf	format_number@n,w
  5273  0019' 0082'              	movwf	___lwmod@dividend
  5274  001A' 120A' 118A' 2000' 120A' 118A' 	fcall	___lwmod
  5275  001F' 1283               	bcf	3,5	;RP0=0, select bank0
  5276  0020' 1303               	bcf	3,6	;RP1=0, select bank0
  5277  0021' 0800'              	movf	?___lwmod,w
  5278  0022' 008E'              	movwf	??_format_number+2
  5279  0023' 080E'              	movf	??_format_number+2,w
  5280  0024' 00B2'              	movwf	format_number@di
  5281                           
  5282                           ;format.c: 35: buf[i++] = (di < 10 ? (unsigned char)'0' + di : (unsigned char)'A' + di -
      +                           10);
  5283  0025' 300A               	movlw	10
  5284  0026' 0232'              	subwf	format_number@di,w
  5285  0027' 1C03               	skipc
  5286  0028' 2800'              	goto	l3848
  5287  0029' 0832'              	movf	format_number@di,w
  5288  002A' 3E37               	addlw	55
  5289  002B' 2800'              	goto	L5
  5290  002C'                    l3848:	
  5291  002C' 0832'              	movf	format_number@di,w
  5292  002D' 3E30               	addlw	48
  5293  002E'                    L5:	
  5294  002E' 00AF'              	movwf	_format_number$126
  5295  002F' 3000               	movlw	0
  5296  0030' 1803               	skipnc
  5297  0031' 3001               	movlw	1
  5298  0032' 00B0'              	movwf	_format_number$126+1
  5299  0033' 082F'              	movf	_format_number$126,w
  5300  0034' 008C'              	movwf	??_format_number
  5301  0035' 0833'              	movf	format_number@i,w
  5302  0036' 3E00'              	addlw	(low (format_number@buf| 0))& (0+255)
  5303  0037' 0084               	movwf	4
  5304  0038' 080C'              	movf	??_format_number,w
  5305  0039' 1383               	bcf	3,7	;select IRP bank0
  5306  003A' 0080               	movwf	0
  5307  003B' 3001               	movlw	1
  5308  003C' 008C'              	movwf	??_format_number
  5309  003D' 080C'              	movf	??_format_number,w
  5310  003E' 07B3'              	addwf	format_number@i,f
  5311                           
  5312                           ;format.c: 37: n /= base;
  5313  003F' 080A'              	movf	format_number@base,w
  5314  0040' 008C'              	movwf	??_format_number
  5315  0041' 018D'              	clrf	??_format_number+1
  5316  0042' 080C'              	movf	??_format_number,w
  5317  0043' 0080'              	movwf	___lwdiv@divisor
  5318  0044' 080D'              	movf	??_format_number+1,w
  5319  0045' 0081'              	movwf	___lwdiv@divisor+1
  5320  0046' 0809'              	movf	format_number@n+1,w
  5321  0047' 0083'              	movwf	___lwdiv@dividend+1
  5322  0048' 0808'              	movf	format_number@n,w
  5323  0049' 0082'              	movwf	___lwdiv@dividend
  5324  004A' 120A' 118A' 2000' 120A' 118A' 	fcall	___lwdiv
  5325  004F' 1283               	bcf	3,5	;RP0=0, select bank0
  5326  0050' 1303               	bcf	3,6	;RP1=0, select bank0
  5327  0051' 0801'              	movf	?___lwdiv+1,w
  5328  0052' 0089'              	movwf	format_number@n+1
  5329  0053' 0800'              	movf	?___lwdiv,w
  5330  0054' 0088'              	movwf	format_number@n
  5331                           
  5332                           ;format.c: 38: } while(n > 0);
  5333  0055' 0808'              	movf	format_number@n,w
  5334  0056' 0409'              	iorwf	format_number@n+1,w
  5335  0057' 1903               	btfsc	3,2
  5336  0058' 2800'              	goto	l3860
  5337  0059' 2800'              	goto	l3842
  5338  005A'                    l3858:	
  5339                           ;format.c: 40: while(pad-- > i) putchar_ptr(padchar);
  5340                           
  5341  005A' 0831'              	movf	format_number@padchar,w
  5342  005B' 008C'              	movwf	??_format_number
  5343  005C' 080C'              	movf	??_format_number,w
  5344  005D' 0084'              	movwf	output_putch@c
  5345  005E' 0800'              	movf	_putchar_ptr,w
  5346  005F' 120A' 118A' 2000' 120A' 118A' 	fcall	fptable
  5347  0064'                    l3860:	
  5348  0064' 1283               	bcf	3,5	;RP0=0, select bank0
  5349  0065' 1303               	bcf	3,6	;RP1=0, select bank0
  5350  0066' 0833'              	movf	format_number@i,w
  5351  0067' 3A80               	xorlw	128
  5352  0068' 008C'              	movwf	??_format_number
  5353  0069' 30FF               	movlw	-1
  5354  006A' 078B'              	addwf	format_number@pad,f
  5355  006B' 3001               	movlw	1
  5356  006C' 070B'              	addwf	format_number@pad,w
  5357  006D' 3A80               	xorlw	128
  5358  006E' 028C'              	subwf	??_format_number,f
  5359  006F' 1C03               	skipc
  5360  0070' 2800'              	goto	l3858
  5361  0071'                    L6:	
  5362                           
  5363                           ;format.c: 42: for(; i > 0; i--) putchar_ptr((char)buf[(signed short int)i - 1]);
  5364  0071' 0833'              	movf	format_number@i,w
  5365  0072' 3A80               	xorlw	128
  5366  0073' 3E7F               	addlw	-129
  5367  0074' 1C03               	btfss	3,0
  5368  0075' 0008               	return
  5369  0076' 0833'              	movf	format_number@i,w
  5370  0077' 3EFF               	addlw	255
  5371  0078' 3E00'              	addlw	(low (format_number@buf| 0))& (0+255)
  5372  0079' 0084               	movwf	4
  5373  007A' 1383               	bcf	3,7	;select IRP bank0
  5374  007B' 0800               	movf	0,w
  5375  007C' 008C'              	movwf	??_format_number
  5376  007D' 080C'              	movf	??_format_number,w
  5377  007E' 0084'              	movwf	output_putch@c
  5378  007F' 0800'              	movf	_putchar_ptr,w
  5379  0080' 120A' 118A' 2000' 120A' 118A' 	fcall	fptable
  5380  0085' 30FF               	movlw	255
  5381  0086' 1283               	bcf	3,5	;RP0=0, select bank0
  5382  0087' 1303               	bcf	3,6	;RP1=0, select bank0
  5383  0088' 008C'              	movwf	??_format_number
  5384  0089' 080C'              	movf	??_format_number,w
  5385  008A' 07B3'              	addwf	format_number@i,f
  5386  008B' 2800'              	goto	L6
  5387  008C'                    __end_of_format_number:	
  5388                           
  5389                           	psect	text9
  5390  0000'                    __ptext9:	
  5391 ;; *************** function ___lwmod *****************
  5392 ;; Defined at:
  5393 ;;		line 6 in file "/opt/microchip/xc8/v1.34/sources/common/lwmod.c"
  5394 ;; Parameters:    Size  Location     Type
  5395 ;;  divisor         2    0[BANK0 ] unsigned int 
  5396 ;;  dividend        2    2[BANK0 ] unsigned int 
  5397 ;; Auto vars:     Size  Location     Type
  5398 ;;  counter         1    5[BANK0 ] unsigned char 
  5399 ;; Return value:  Size  Location     Type
  5400 ;;                  2    0[BANK0 ] unsigned int 
  5401 ;; Registers used:
  5402 ;;		wreg, status,2, status,0
  5403 ;; Tracked objects:
  5404 ;;		On entry : 0/0
  5405 ;;		On exit  : 0/0
  5406 ;;		Unchanged: 0/0
  5407 ;; Data sizes:     COMMON   BANK0   BANK1   BANK3   BANK2
  5408 ;;      Params:         0       4       0       0       0
  5409 ;;      Locals:         0       1       0       0       0
  5410 ;;      Temps:          0       1       0       0       0
  5411 ;;      Totals:         0       6       0       0       0
  5412 ;;Total ram usage:        6 bytes
  5413 ;; Hardware stack levels used:    1
  5414 ;; Hardware stack levels required when called:    1
  5415 ;; This function calls:
  5416 ;;		Nothing
  5417 ;; This function is called by:
  5418 ;;		_format_number
  5419 ;; This function uses a non-reentrant model
  5420 ;;
  5421                           
  5422                           
  5423                           ;psect for function ___lwmod
  5424  0000'                    ___lwmod:	
  5425                           
  5426                           ;incstack = 0
  5427                           ; Regs used in ___lwmod: [wreg+status,2+status,0]
  5428  0000' 1283               	bcf	3,5	;RP0=0, select bank0
  5429  0001' 1303               	bcf	3,6	;RP1=0, select bank0
  5430  0002' 0800'              	movf	___lwmod@divisor,w
  5431  0003' 0401'              	iorwf	___lwmod@divisor+1,w
  5432  0004' 1903               	btfsc	3,2
  5433  0005' 2800'              	goto	l3774
  5434  0006' 0185'              	clrf	___lwmod@counter
  5435  0007' 0A85'              	incf	___lwmod@counter,f
  5436  0008'                    l3764:	
  5437  0008' 1B81'              	btfsc	___lwmod@divisor+1,7
  5438  0009' 2800'              	goto	l3766
  5439  000A' 3001               	movlw	1
  5440  000B'                    u4695:	
  5441  000B' 1003               	clrc
  5442  000C' 0D80'              	rlf	___lwmod@divisor,f
  5443  000D' 0D81'              	rlf	___lwmod@divisor+1,f
  5444  000E' 3EFF               	addlw	-1
  5445  000F' 1D03               	skipz
  5446  0010' 2800'              	goto	u4695
  5447  0011' 3001               	movlw	1
  5448  0012' 0084'              	movwf	??___lwmod
  5449  0013' 0804'              	movf	??___lwmod,w
  5450  0014' 0785'              	addwf	___lwmod@counter,f
  5451  0015' 2800'              	goto	l3764
  5452  0016'                    l3766:	
  5453  0016' 0801'              	movf	___lwmod@divisor+1,w
  5454  0017' 0203'              	subwf	___lwmod@dividend+1,w
  5455  0018' 1D03               	skipz
  5456  0019' 2800'              	goto	u4715
  5457  001A' 0800'              	movf	___lwmod@divisor,w
  5458  001B' 0202'              	subwf	___lwmod@dividend,w
  5459  001C'                    u4715:	
  5460  001C' 1C03               	skipc
  5461  001D' 2800'              	goto	l3770
  5462  001E' 0800'              	movf	___lwmod@divisor,w
  5463  001F' 0282'              	subwf	___lwmod@dividend,f
  5464  0020' 0801'              	movf	___lwmod@divisor+1,w
  5465  0021' 1C03               	skipc
  5466  0022' 0383'              	decf	___lwmod@dividend+1,f
  5467  0023' 0283'              	subwf	___lwmod@dividend+1,f
  5468  0024'                    l3770:	
  5469  0024' 3001               	movlw	1
  5470  0025'                    u4725:	
  5471  0025' 1003               	clrc
  5472  0026' 0C81'              	rrf	___lwmod@divisor+1,f
  5473  0027' 0C80'              	rrf	___lwmod@divisor,f
  5474  0028' 3EFF               	addlw	-1
  5475  0029' 1D03               	skipz
  5476  002A' 2800'              	goto	u4725
  5477  002B' 3001               	movlw	1
  5478  002C' 0285'              	subwf	___lwmod@counter,f
  5479  002D' 1D03               	btfss	3,2
  5480  002E' 2800'              	goto	l3766
  5481  002F'                    l3774:	
  5482  002F' 0803'              	movf	___lwmod@dividend+1,w
  5483  0030' 0081'              	movwf	?___lwmod+1
  5484  0031' 0802'              	movf	___lwmod@dividend,w
  5485  0032' 0080'              	movwf	?___lwmod
  5486  0033' 0008               	return
  5487  0034'                    __end_of___lwmod:	
  5488                           
  5489                           	psect	text10
  5490  0000'                    __ptext10:	
  5491 ;; *************** function ___lwdiv *****************
  5492 ;; Defined at:
  5493 ;;		line 6 in file "/opt/microchip/xc8/v1.34/sources/common/lwdiv.c"
  5494 ;; Parameters:    Size  Location     Type
  5495 ;;  divisor         2    0[BANK0 ] unsigned int 
  5496 ;;  dividend        2    2[BANK0 ] unsigned int 
  5497 ;; Auto vars:     Size  Location     Type
  5498 ;;  quotient        2    6[BANK0 ] unsigned int 
  5499 ;;  counter         1    5[BANK0 ] unsigned char 
  5500 ;; Return value:  Size  Location     Type
  5501 ;;                  2    0[BANK0 ] unsigned int 
  5502 ;; Registers used:
  5503 ;;		wreg, status,2, status,0
  5504 ;; Tracked objects:
  5505 ;;		On entry : 0/0
  5506 ;;		On exit  : 0/0
  5507 ;;		Unchanged: 0/0
  5508 ;; Data sizes:     COMMON   BANK0   BANK1   BANK3   BANK2
  5509 ;;      Params:         0       4       0       0       0
  5510 ;;      Locals:         0       3       0       0       0
  5511 ;;      Temps:          0       1       0       0       0
  5512 ;;      Totals:         0       8       0       0       0
  5513 ;;Total ram usage:        8 bytes
  5514 ;; Hardware stack levels used:    1
  5515 ;; Hardware stack levels required when called:    1
  5516 ;; This function calls:
  5517 ;;		Nothing
  5518 ;; This function is called by:
  5519 ;;		_format_number
  5520 ;; This function uses a non-reentrant model
  5521 ;;
  5522                           
  5523                           
  5524                           ;psect for function ___lwdiv
  5525  0000'                    ___lwdiv:	
  5526                           
  5527                           ;incstack = 0
  5528                           ; Regs used in ___lwdiv: [wreg+status,2+status,0]
  5529  0000' 1283               	bcf	3,5	;RP0=0, select bank0
  5530  0001' 1303               	bcf	3,6	;RP1=0, select bank0
  5531  0002' 0186'              	clrf	___lwdiv@quotient
  5532  0003' 0187'              	clrf	___lwdiv@quotient+1
  5533  0004' 0800'              	movf	___lwdiv@divisor,w
  5534  0005' 0401'              	iorwf	___lwdiv@divisor+1,w
  5535  0006' 1903               	btfsc	3,2
  5536  0007' 2800'              	goto	l3752
  5537  0008' 0185'              	clrf	___lwdiv@counter
  5538  0009' 0A85'              	incf	___lwdiv@counter,f
  5539  000A'                    l3740:	
  5540  000A' 1B81'              	btfsc	___lwdiv@divisor+1,7
  5541  000B' 2800'              	goto	l3742
  5542  000C' 3001               	movlw	1
  5543  000D'                    u4625:	
  5544  000D' 1003               	clrc
  5545  000E' 0D80'              	rlf	___lwdiv@divisor,f
  5546  000F' 0D81'              	rlf	___lwdiv@divisor+1,f
  5547  0010' 3EFF               	addlw	-1
  5548  0011' 1D03               	skipz
  5549  0012' 2800'              	goto	u4625
  5550  0013' 3001               	movlw	1
  5551  0014' 0084'              	movwf	??___lwdiv
  5552  0015' 0804'              	movf	??___lwdiv,w
  5553  0016' 0785'              	addwf	___lwdiv@counter,f
  5554  0017' 2800'              	goto	l3740
  5555  0018'                    l3742:	
  5556  0018' 3001               	movlw	1
  5557  0019'                    u4645:	
  5558  0019' 1003               	clrc
  5559  001A' 0D86'              	rlf	___lwdiv@quotient,f
  5560  001B' 0D87'              	rlf	___lwdiv@quotient+1,f
  5561  001C' 3EFF               	addlw	-1
  5562  001D' 1D03               	skipz
  5563  001E' 2800'              	goto	u4645
  5564  001F' 0801'              	movf	___lwdiv@divisor+1,w
  5565  0020' 0203'              	subwf	___lwdiv@dividend+1,w
  5566  0021' 1D03               	skipz
  5567  0022' 2800'              	goto	u4655
  5568  0023' 0800'              	movf	___lwdiv@divisor,w
  5569  0024' 0202'              	subwf	___lwdiv@dividend,w
  5570  0025'                    u4655:	
  5571  0025' 1C03               	skipc
  5572  0026' 2800'              	goto	l3748
  5573  0027' 0800'              	movf	___lwdiv@divisor,w
  5574  0028' 0282'              	subwf	___lwdiv@dividend,f
  5575  0029' 0801'              	movf	___lwdiv@divisor+1,w
  5576  002A' 1C03               	skipc
  5577  002B' 0383'              	decf	___lwdiv@dividend+1,f
  5578  002C' 0283'              	subwf	___lwdiv@dividend+1,f
  5579  002D' 1406'              	bsf	___lwdiv@quotient,0
  5580  002E'                    l3748:	
  5581  002E' 3001               	movlw	1
  5582  002F'                    u4665:	
  5583  002F' 1003               	clrc
  5584  0030' 0C81'              	rrf	___lwdiv@divisor+1,f
  5585  0031' 0C80'              	rrf	___lwdiv@divisor,f
  5586  0032' 3EFF               	addlw	-1
  5587  0033' 1D03               	skipz
  5588  0034' 2800'              	goto	u4665
  5589  0035' 3001               	movlw	1
  5590  0036' 0285'              	subwf	___lwdiv@counter,f
  5591  0037' 1D03               	btfss	3,2
  5592  0038' 2800'              	goto	l3742
  5593  0039'                    l3752:	
  5594  0039' 0807'              	movf	___lwdiv@quotient+1,w
  5595  003A' 0081'              	movwf	?___lwdiv+1
  5596  003B' 0806'              	movf	___lwdiv@quotient,w
  5597  003C' 0080'              	movwf	?___lwdiv
  5598  003D' 0008               	return
  5599  003E'                    __end_of___lwdiv:	
  5600                           
  5601                           	psect	text11
  5602  0000'                    __ptext11:	
  5603 ;; *************** function _format_double *****************
  5604 ;; Defined at:
  5605 ;;		line 74 in file "../../../lib/format.c"
  5606 ;; Parameters:    Size  Location     Type
  5607 ;;  num             4   13[BANK3 ] unsigned int 
  5608 ;; Auto vars:     Size  Location     Type
  5609 ;;  weight          4   29[BANK3 ] unsigned int 
  5610 ;;  m               2   35[BANK3 ] short 
  5611 ;;  digit           2   33[BANK3 ] short 
  5612 ;; Return value:  Size  Location     Type
  5613 ;;		None               void
  5614 ;; Registers used:
  5615 ;;		wreg, fsr0l, fsr0h, status,2, status,0, btemp+1, pclath, cstack
  5616 ;; Tracked objects:
  5617 ;;		On entry : 0/0
  5618 ;;		On exit  : 0/0
  5619 ;;		Unchanged: 0/0
  5620 ;; Data sizes:     COMMON   BANK0   BANK1   BANK3   BANK2
  5621 ;;      Params:         0       0       0       4       0
  5622 ;;      Locals:         0       0       0      20       0
  5623 ;;      Temps:          0       0       1       0       0
  5624 ;;      Totals:         0       0       1      24       0
  5625 ;;Total ram usage:       25 bytes
  5626 ;; Hardware stack levels used:    1
  5627 ;; Hardware stack levels required when called:    6
  5628 ;; This function calls:
  5629 ;;		___awtofl
  5630 ;;		___fldiv
  5631 ;;		___flge
  5632 ;;		___flmul
  5633 ;;		___flsub
  5634 ;;		___fltol
  5635 ;;		_floor
  5636 ;;		_format_putchar
  5637 ;;		_log10
  5638 ;;		_output_putch
  5639 ;;		_pow
  5640 ;;		_ser_putch
  5641 ;; This function is called by:
  5642 ;;		_measure_capacitance
  5643 ;; This function uses a non-reentrant model
  5644 ;;
  5645                           
  5646                           
  5647                           ;psect for function _format_double
  5648  0000'                    _format_double:	
  5649                           
  5650                           ;format.c: 75: short m = (short)log10(num);
  5651                           
  5652                           ;incstack = 0
  5653                           ; Regs used in _format_double: [wreg-fsr0h+status,2+status,0+btemp+1+pclath+cstack]
  5654  0000' 1683               	bsf	3,5	;RP0=1, select bank3
  5655  0001' 1703               	bsf	3,6	;RP1=1, select bank3
  5656  0002' 0800'              	movf	(format_double@num+3)^(0+384),w
  5657  0003' 1683               	bsf	3,5	;RP0=1, select bank1
  5658  0004' 1303               	bcf	3,6	;RP1=0, select bank1
  5659  0005' 0080'              	movwf	(log10@x+3)^(0+128)
  5660  0006' 1683               	bsf	3,5	;RP0=1, select bank3
  5661  0007' 1703               	bsf	3,6	;RP1=1, select bank3
  5662  0008' 0800'              	movf	(format_double@num+2)^(0+384),w
  5663  0009' 1683               	bsf	3,5	;RP0=1, select bank1
  5664  000A' 1303               	bcf	3,6	;RP1=0, select bank1
  5665  000B' 0080'              	movwf	(log10@x+2)^(0+128)
  5666  000C' 1683               	bsf	3,5	;RP0=1, select bank3
  5667  000D' 1703               	bsf	3,6	;RP1=1, select bank3
  5668  000E' 0800'              	movf	(format_double@num+1)^(0+384),w
  5669  000F' 1683               	bsf	3,5	;RP0=1, select bank1
  5670  0010' 1303               	bcf	3,6	;RP1=0, select bank1
  5671  0011' 0080'              	movwf	(log10@x+1)^(0+128)
  5672  0012' 1683               	bsf	3,5	;RP0=1, select bank3
  5673  0013' 1703               	bsf	3,6	;RP1=1, select bank3
  5674  0014' 0800'              	movf	format_double@num^(0+384),w
  5675  0015' 1683               	bsf	3,5	;RP0=1, select bank1
  5676  0016' 1303               	bcf	3,6	;RP1=0, select bank1
  5677  0017' 0080'              	movwf	log10@x^(0+128)
  5678  0018' 120A' 118A' 2000' 120A' 118A' 	fcall	_log10
  5679  001D' 1683               	bsf	3,5	;RP0=1, select bank1
  5680  001E' 1303               	bcf	3,6	;RP1=0, select bank1
  5681  001F' 0800'              	movf	(?_log10+3)^(0+128),w
  5682  0020' 0080'              	movwf	(___fltol@f1+3)^(0+128)
  5683  0021' 0800'              	movf	(?_log10+2)^(0+128),w
  5684  0022' 0080'              	movwf	(___fltol@f1+2)^(0+128)
  5685  0023' 0800'              	movf	(?_log10+1)^(0+128),w
  5686  0024' 0080'              	movwf	(___fltol@f1+1)^(0+128)
  5687  0025' 0800'              	movf	?_log10^(0+128),w
  5688  0026' 0080'              	movwf	___fltol@f1^(0+128)
  5689  0027' 120A' 118A' 2000' 120A' 118A' 	fcall	___fltol
  5690  002C' 1683               	bsf	3,5	;RP0=1, select bank1
  5691  002D' 1303               	bcf	3,6	;RP1=0, select bank1
  5692  002E' 0801'              	movf	(?___fltol^(0+128)+1),w
  5693  002F' 1683               	bsf	3,5	;RP0=1, select bank3
  5694  0030' 1703               	bsf	3,6	;RP1=1, select bank3
  5695  0031' 0080'              	movwf	(format_double@m+1)^(0+384)
  5696  0032' 1683               	bsf	3,5	;RP0=1, select bank1
  5697  0033' 1303               	bcf	3,6	;RP1=0, select bank1
  5698  0034' 0800'              	movf	?___fltol^(0+128),w
  5699  0035' 1683               	bsf	3,5	;RP0=1, select bank3
  5700  0036' 1703               	bsf	3,6	;RP1=1, select bank3
  5701  0037' 0080'              	movwf	format_double@m^(0+384)
  5702  0038'                    l3960:	
  5703                           ;format.c: 76: short digit;
  5704                           ;format.c: 79: while(num > 0 + (sizeof(double) == sizeof(float) ? 3.05176e-05 : 1.192092
      +                          90e-07)) {
  5705                           
  5706  0038' 3038               	movlw	56
  5707  0039' 0080'              	movwf	(_format_double$140+3)^(0+384)
  5708  003A' 3000               	movlw	0
  5709  003B' 0080'              	movwf	(_format_double$140+2)^(0+384)
  5710  003C' 3000               	movlw	0
  5711  003D' 0080'              	movwf	(_format_double$140+1)^(0+384)
  5712  003E' 3006               	movlw	6
  5713  003F' 0080'              	movwf	_format_double$140^(0+384)
  5714  0040' 0800'              	movf	(_format_double$140+3)^(0+384),w
  5715  0041' 1283               	bcf	3,5	;RP0=0, select bank0
  5716  0042' 1303               	bcf	3,6	;RP1=0, select bank0
  5717  0043' 0083'              	movwf	___flge@ff1+3
  5718  0044' 1683               	bsf	3,5	;RP0=1, select bank3
  5719  0045' 1703               	bsf	3,6	;RP1=1, select bank3
  5720  0046' 0800'              	movf	(_format_double$140+2)^(0+384),w
  5721  0047' 1283               	bcf	3,5	;RP0=0, select bank0
  5722  0048' 1303               	bcf	3,6	;RP1=0, select bank0
  5723  0049' 0082'              	movwf	___flge@ff1+2
  5724  004A' 1683               	bsf	3,5	;RP0=1, select bank3
  5725  004B' 1703               	bsf	3,6	;RP1=1, select bank3
  5726  004C' 0800'              	movf	(_format_double$140+1)^(0+384),w
  5727  004D' 1283               	bcf	3,5	;RP0=0, select bank0
  5728  004E' 1303               	bcf	3,6	;RP1=0, select bank0
  5729  004F' 0081'              	movwf	___flge@ff1+1
  5730  0050' 1683               	bsf	3,5	;RP0=1, select bank3
  5731  0051' 1703               	bsf	3,6	;RP1=1, select bank3
  5732  0052' 0800'              	movf	_format_double$140^(0+384),w
  5733  0053' 1283               	bcf	3,5	;RP0=0, select bank0
  5734  0054' 1303               	bcf	3,6	;RP1=0, select bank0
  5735  0055' 0080'              	movwf	___flge@ff1
  5736  0056' 1683               	bsf	3,5	;RP0=1, select bank3
  5737  0057' 1703               	bsf	3,6	;RP1=1, select bank3
  5738  0058' 0800'              	movf	(format_double@num+3)^(0+384),w
  5739  0059' 1283               	bcf	3,5	;RP0=0, select bank0
  5740  005A' 1303               	bcf	3,6	;RP1=0, select bank0
  5741  005B' 0087'              	movwf	___flge@ff2+3
  5742  005C' 1683               	bsf	3,5	;RP0=1, select bank3
  5743  005D' 1703               	bsf	3,6	;RP1=1, select bank3
  5744  005E' 0800'              	movf	(format_double@num+2)^(0+384),w
  5745  005F' 1283               	bcf	3,5	;RP0=0, select bank0
  5746  0060' 1303               	bcf	3,6	;RP1=0, select bank0
  5747  0061' 0086'              	movwf	___flge@ff2+2
  5748  0062' 1683               	bsf	3,5	;RP0=1, select bank3
  5749  0063' 1703               	bsf	3,6	;RP1=1, select bank3
  5750  0064' 0800'              	movf	(format_double@num+1)^(0+384),w
  5751  0065' 1283               	bcf	3,5	;RP0=0, select bank0
  5752  0066' 1303               	bcf	3,6	;RP1=0, select bank0
  5753  0067' 0085'              	movwf	___flge@ff2+1
  5754  0068' 1683               	bsf	3,5	;RP0=1, select bank3
  5755  0069' 1703               	bsf	3,6	;RP1=1, select bank3
  5756  006A' 0800'              	movf	format_double@num^(0+384),w
  5757  006B' 1283               	bcf	3,5	;RP0=0, select bank0
  5758  006C' 1303               	bcf	3,6	;RP1=0, select bank0
  5759  006D' 0084'              	movwf	___flge@ff2
  5760  006E' 120A' 118A' 2000' 120A' 118A' 	fcall	___flge
  5761  0073' 1803               	btfsc	3,0
  5762  0074' 0008               	return
  5763                           
  5764                           ;format.c: 80: double weight = pow(10.0l, m);
  5765  0075' 1683               	bsf	3,5	;RP0=1, select bank3
  5766  0076' 1703               	bsf	3,6	;RP1=1, select bank3
  5767  0077' 0800'              	movf	(format_double@m+1)^(0+384),w
  5768  0078' 1283               	bcf	3,5	;RP0=0, select bank0
  5769  0079' 1303               	bcf	3,6	;RP1=0, select bank0
  5770  007A' 008B'              	movwf	___awtofl@c+1
  5771  007B' 1683               	bsf	3,5	;RP0=1, select bank3
  5772  007C' 1703               	bsf	3,6	;RP1=1, select bank3
  5773  007D' 0800'              	movf	format_double@m^(0+384),w
  5774  007E' 1283               	bcf	3,5	;RP0=0, select bank0
  5775  007F' 1303               	bcf	3,6	;RP1=0, select bank0
  5776  0080' 008A'              	movwf	___awtofl@c
  5777  0081' 120A' 118A' 2000' 120A' 118A' 	fcall	___awtofl
  5778  0086' 1283               	bcf	3,5	;RP0=0, select bank0
  5779  0087' 1303               	bcf	3,6	;RP1=0, select bank0
  5780  0088' 080D'              	movf	?___awtofl+3,w
  5781  0089' 1683               	bsf	3,5	;RP0=1, select bank3
  5782  008A' 1703               	bsf	3,6	;RP1=1, select bank3
  5783  008B' 0080'              	movwf	(_format_double$808+3)^(0+384)
  5784  008C' 1283               	bcf	3,5	;RP0=0, select bank0
  5785  008D' 1303               	bcf	3,6	;RP1=0, select bank0
  5786  008E' 080C'              	movf	?___awtofl+2,w
  5787  008F' 1683               	bsf	3,5	;RP0=1, select bank3
  5788  0090' 1703               	bsf	3,6	;RP1=1, select bank3
  5789  0091' 0080'              	movwf	(_format_double$808+2)^(0+384)
  5790  0092' 1283               	bcf	3,5	;RP0=0, select bank0
  5791  0093' 1303               	bcf	3,6	;RP1=0, select bank0
  5792  0094' 080B'              	movf	?___awtofl+1,w
  5793  0095' 1683               	bsf	3,5	;RP0=1, select bank3
  5794  0096' 1703               	bsf	3,6	;RP1=1, select bank3
  5795  0097' 0080'              	movwf	(_format_double$808+1)^(0+384)
  5796  0098' 1283               	bcf	3,5	;RP0=0, select bank0
  5797  0099' 1303               	bcf	3,6	;RP1=0, select bank0
  5798  009A' 080A'              	movf	?___awtofl,w
  5799  009B' 1683               	bsf	3,5	;RP0=1, select bank3
  5800  009C' 1703               	bsf	3,6	;RP1=1, select bank3
  5801  009D' 0080'              	movwf	_format_double$808^(0+384)
  5802                           
  5803                           ;format.c: 80: double weight = pow(10.0l, m);
  5804  009E' 3041               	movlw	65
  5805  009F' 1683               	bsf	3,5	;RP0=1, select bank1
  5806  00A0' 1303               	bcf	3,6	;RP1=0, select bank1
  5807  00A1' 0080'              	movwf	(pow@x+3)^(0+128)
  5808  00A2' 3020               	movlw	32
  5809  00A3' 0080'              	movwf	(pow@x+2)^(0+128)
  5810  00A4' 3000               	movlw	0
  5811  00A5' 0080'              	movwf	(pow@x+1)^(0+128)
  5812  00A6' 3000               	movlw	0
  5813  00A7' 0080'              	movwf	pow@x^(0+128)
  5814  00A8' 1683               	bsf	3,5	;RP0=1, select bank3
  5815  00A9' 1703               	bsf	3,6	;RP1=1, select bank3
  5816  00AA' 0800'              	movf	(_format_double$808+3)^(0+384),w
  5817  00AB' 1683               	bsf	3,5	;RP0=1, select bank1
  5818  00AC' 1303               	bcf	3,6	;RP1=0, select bank1
  5819  00AD' 0080'              	movwf	(pow@y+3)^(0+128)
  5820  00AE' 1683               	bsf	3,5	;RP0=1, select bank3
  5821  00AF' 1703               	bsf	3,6	;RP1=1, select bank3
  5822  00B0' 0800'              	movf	(_format_double$808+2)^(0+384),w
  5823  00B1' 1683               	bsf	3,5	;RP0=1, select bank1
  5824  00B2' 1303               	bcf	3,6	;RP1=0, select bank1
  5825  00B3' 0080'              	movwf	(pow@y+2)^(0+128)
  5826  00B4' 1683               	bsf	3,5	;RP0=1, select bank3
  5827  00B5' 1703               	bsf	3,6	;RP1=1, select bank3
  5828  00B6' 0800'              	movf	(_format_double$808+1)^(0+384),w
  5829  00B7' 1683               	bsf	3,5	;RP0=1, select bank1
  5830  00B8' 1303               	bcf	3,6	;RP1=0, select bank1
  5831  00B9' 0080'              	movwf	(pow@y+1)^(0+128)
  5832  00BA' 1683               	bsf	3,5	;RP0=1, select bank3
  5833  00BB' 1703               	bsf	3,6	;RP1=1, select bank3
  5834  00BC' 0800'              	movf	_format_double$808^(0+384),w
  5835  00BD' 1683               	bsf	3,5	;RP0=1, select bank1
  5836  00BE' 1303               	bcf	3,6	;RP1=0, select bank1
  5837  00BF' 0080'              	movwf	pow@y^(0+128)
  5838  00C0' 120A' 118A' 2000' 120A' 118A' 	fcall	_pow
  5839  00C5' 1683               	bsf	3,5	;RP0=1, select bank1
  5840  00C6' 1303               	bcf	3,6	;RP1=0, select bank1
  5841  00C7' 0800'              	movf	(?_pow+3)^(0+128),w
  5842  00C8' 1683               	bsf	3,5	;RP0=1, select bank3
  5843  00C9' 1703               	bsf	3,6	;RP1=1, select bank3
  5844  00CA' 0080'              	movwf	(format_double@weight+3)^(0+384)
  5845  00CB' 1683               	bsf	3,5	;RP0=1, select bank1
  5846  00CC' 1303               	bcf	3,6	;RP1=0, select bank1
  5847  00CD' 0800'              	movf	(?_pow+2)^(0+128),w
  5848  00CE' 1683               	bsf	3,5	;RP0=1, select bank3
  5849  00CF' 1703               	bsf	3,6	;RP1=1, select bank3
  5850  00D0' 0080'              	movwf	(format_double@weight+2)^(0+384)
  5851  00D1' 1683               	bsf	3,5	;RP0=1, select bank1
  5852  00D2' 1303               	bcf	3,6	;RP1=0, select bank1
  5853  00D3' 0800'              	movf	(?_pow+1)^(0+128),w
  5854  00D4' 1683               	bsf	3,5	;RP0=1, select bank3
  5855  00D5' 1703               	bsf	3,6	;RP1=1, select bank3
  5856  00D6' 0080'              	movwf	(format_double@weight+1)^(0+384)
  5857  00D7' 1683               	bsf	3,5	;RP0=1, select bank1
  5858  00D8' 1303               	bcf	3,6	;RP1=0, select bank1
  5859  00D9' 0800'              	movf	?_pow^(0+128),w
  5860  00DA' 1683               	bsf	3,5	;RP0=1, select bank3
  5861  00DB' 1703               	bsf	3,6	;RP1=1, select bank3
  5862  00DC' 0080'              	movwf	format_double@weight^(0+384)
  5863                           
  5864                           ;format.c: 81: digit = (short)floor(num / weight);
  5865  00DD' 0800'              	movf	(format_double@num+3)^(0+384),w
  5866  00DE' 1283               	bcf	3,5	;RP0=0, select bank0
  5867  00DF' 1303               	bcf	3,6	;RP1=0, select bank0
  5868  00E0' 0091'              	movwf	___fldiv@f1+3
  5869  00E1' 1683               	bsf	3,5	;RP0=1, select bank3
  5870  00E2' 1703               	bsf	3,6	;RP1=1, select bank3
  5871  00E3' 0800'              	movf	(format_double@num+2)^(0+384),w
  5872  00E4' 1283               	bcf	3,5	;RP0=0, select bank0
  5873  00E5' 1303               	bcf	3,6	;RP1=0, select bank0
  5874  00E6' 0090'              	movwf	___fldiv@f1+2
  5875  00E7' 1683               	bsf	3,5	;RP0=1, select bank3
  5876  00E8' 1703               	bsf	3,6	;RP1=1, select bank3
  5877  00E9' 0800'              	movf	(format_double@num+1)^(0+384),w
  5878  00EA' 1283               	bcf	3,5	;RP0=0, select bank0
  5879  00EB' 1303               	bcf	3,6	;RP1=0, select bank0
  5880  00EC' 008F'              	movwf	___fldiv@f1+1
  5881  00ED' 1683               	bsf	3,5	;RP0=1, select bank3
  5882  00EE' 1703               	bsf	3,6	;RP1=1, select bank3
  5883  00EF' 0800'              	movf	format_double@num^(0+384),w
  5884  00F0' 1283               	bcf	3,5	;RP0=0, select bank0
  5885  00F1' 1303               	bcf	3,6	;RP1=0, select bank0
  5886  00F2' 008E'              	movwf	___fldiv@f1
  5887  00F3' 1683               	bsf	3,5	;RP0=1, select bank3
  5888  00F4' 1703               	bsf	3,6	;RP1=1, select bank3
  5889  00F5' 0800'              	movf	(format_double@weight+3)^(0+384),w
  5890  00F6' 1283               	bcf	3,5	;RP0=0, select bank0
  5891  00F7' 1303               	bcf	3,6	;RP1=0, select bank0
  5892  00F8' 008D'              	movwf	___fldiv@f2+3
  5893  00F9' 1683               	bsf	3,5	;RP0=1, select bank3
  5894  00FA' 1703               	bsf	3,6	;RP1=1, select bank3
  5895  00FB' 0800'              	movf	(format_double@weight+2)^(0+384),w
  5896  00FC' 1283               	bcf	3,5	;RP0=0, select bank0
  5897  00FD' 1303               	bcf	3,6	;RP1=0, select bank0
  5898  00FE' 008C'              	movwf	___fldiv@f2+2
  5899  00FF' 1683               	bsf	3,5	;RP0=1, select bank3
  5900  0100' 1703               	bsf	3,6	;RP1=1, select bank3
  5901  0101' 0800'              	movf	(format_double@weight+1)^(0+384),w
  5902  0102' 1283               	bcf	3,5	;RP0=0, select bank0
  5903  0103' 1303               	bcf	3,6	;RP1=0, select bank0
  5904  0104' 008B'              	movwf	___fldiv@f2+1
  5905  0105' 1683               	bsf	3,5	;RP0=1, select bank3
  5906  0106' 1703               	bsf	3,6	;RP1=1, select bank3
  5907  0107' 0800'              	movf	format_double@weight^(0+384),w
  5908  0108' 1283               	bcf	3,5	;RP0=0, select bank0
  5909  0109' 1303               	bcf	3,6	;RP1=0, select bank0
  5910  010A' 008A'              	movwf	___fldiv@f2
  5911  010B' 120A' 118A' 2000' 120A' 118A' 	fcall	___fldiv
  5912  0110' 1283               	bcf	3,5	;RP0=0, select bank0
  5913  0111' 1303               	bcf	3,6	;RP1=0, select bank0
  5914  0112' 080D'              	movf	?___fldiv+3,w
  5915  0113' 1683               	bsf	3,5	;RP0=1, select bank1
  5916  0114' 1303               	bcf	3,6	;RP1=0, select bank1
  5917  0115' 0080'              	movwf	(floor@x+3)^(0+128)
  5918  0116' 1283               	bcf	3,5	;RP0=0, select bank0
  5919  0117' 1303               	bcf	3,6	;RP1=0, select bank0
  5920  0118' 080C'              	movf	?___fldiv+2,w
  5921  0119' 1683               	bsf	3,5	;RP0=1, select bank1
  5922  011A' 1303               	bcf	3,6	;RP1=0, select bank1
  5923  011B' 0080'              	movwf	(floor@x+2)^(0+128)
  5924  011C' 1283               	bcf	3,5	;RP0=0, select bank0
  5925  011D' 1303               	bcf	3,6	;RP1=0, select bank0
  5926  011E' 080B'              	movf	?___fldiv+1,w
  5927  011F' 1683               	bsf	3,5	;RP0=1, select bank1
  5928  0120' 1303               	bcf	3,6	;RP1=0, select bank1
  5929  0121' 0080'              	movwf	(floor@x+1)^(0+128)
  5930  0122' 1283               	bcf	3,5	;RP0=0, select bank0
  5931  0123' 1303               	bcf	3,6	;RP1=0, select bank0
  5932  0124' 080A'              	movf	?___fldiv,w
  5933  0125' 1683               	bsf	3,5	;RP0=1, select bank1
  5934  0126' 1303               	bcf	3,6	;RP1=0, select bank1
  5935  0127' 0080'              	movwf	floor@x^(0+128)
  5936  0128' 120A' 118A' 2000' 120A' 118A' 	fcall	_floor
  5937  012D' 1683               	bsf	3,5	;RP0=1, select bank1
  5938  012E' 1303               	bcf	3,6	;RP1=0, select bank1
  5939  012F' 0800'              	movf	(?_floor+3)^(0+128),w
  5940  0130' 1683               	bsf	3,5	;RP0=1, select bank3
  5941  0131' 1703               	bsf	3,6	;RP1=1, select bank3
  5942  0132' 0080'              	movwf	(_format_double$809+3)^(0+384)
  5943  0133' 1683               	bsf	3,5	;RP0=1, select bank1
  5944  0134' 1303               	bcf	3,6	;RP1=0, select bank1
  5945  0135' 0800'              	movf	(?_floor+2)^(0+128),w
  5946  0136' 1683               	bsf	3,5	;RP0=1, select bank3
  5947  0137' 1703               	bsf	3,6	;RP1=1, select bank3
  5948  0138' 0080'              	movwf	(_format_double$809+2)^(0+384)
  5949  0139' 1683               	bsf	3,5	;RP0=1, select bank1
  5950  013A' 1303               	bcf	3,6	;RP1=0, select bank1
  5951  013B' 0800'              	movf	(?_floor+1)^(0+128),w
  5952  013C' 1683               	bsf	3,5	;RP0=1, select bank3
  5953  013D' 1703               	bsf	3,6	;RP1=1, select bank3
  5954  013E' 0080'              	movwf	(_format_double$809+1)^(0+384)
  5955  013F' 1683               	bsf	3,5	;RP0=1, select bank1
  5956  0140' 1303               	bcf	3,6	;RP1=0, select bank1
  5957  0141' 0800'              	movf	?_floor^(0+128),w
  5958  0142' 1683               	bsf	3,5	;RP0=1, select bank3
  5959  0143' 1703               	bsf	3,6	;RP1=1, select bank3
  5960  0144' 0080'              	movwf	_format_double$809^(0+384)
  5961                           
  5962                           ;format.c: 81: digit = (short)floor(num / weight);
  5963  0145' 0800'              	movf	(_format_double$809+3)^(0+384),w
  5964  0146' 1683               	bsf	3,5	;RP0=1, select bank1
  5965  0147' 1303               	bcf	3,6	;RP1=0, select bank1
  5966  0148' 0080'              	movwf	(___fltol@f1+3)^(0+128)
  5967  0149' 1683               	bsf	3,5	;RP0=1, select bank3
  5968  014A' 1703               	bsf	3,6	;RP1=1, select bank3
  5969  014B' 0800'              	movf	(_format_double$809+2)^(0+384),w
  5970  014C' 1683               	bsf	3,5	;RP0=1, select bank1
  5971  014D' 1303               	bcf	3,6	;RP1=0, select bank1
  5972  014E' 0080'              	movwf	(___fltol@f1+2)^(0+128)
  5973  014F' 1683               	bsf	3,5	;RP0=1, select bank3
  5974  0150' 1703               	bsf	3,6	;RP1=1, select bank3
  5975  0151' 0800'              	movf	(_format_double$809+1)^(0+384),w
  5976  0152' 1683               	bsf	3,5	;RP0=1, select bank1
  5977  0153' 1303               	bcf	3,6	;RP1=0, select bank1
  5978  0154' 0080'              	movwf	(___fltol@f1+1)^(0+128)
  5979  0155' 1683               	bsf	3,5	;RP0=1, select bank3
  5980  0156' 1703               	bsf	3,6	;RP1=1, select bank3
  5981  0157' 0800'              	movf	_format_double$809^(0+384),w
  5982  0158' 1683               	bsf	3,5	;RP0=1, select bank1
  5983  0159' 1303               	bcf	3,6	;RP1=0, select bank1
  5984  015A' 0080'              	movwf	___fltol@f1^(0+128)
  5985  015B' 120A' 118A' 2000' 120A' 118A' 	fcall	___fltol
  5986  0160' 1683               	bsf	3,5	;RP0=1, select bank1
  5987  0161' 1303               	bcf	3,6	;RP1=0, select bank1
  5988  0162' 0801'              	movf	(?___fltol^(0+128)+1),w
  5989  0163' 1683               	bsf	3,5	;RP0=1, select bank3
  5990  0164' 1703               	bsf	3,6	;RP1=1, select bank3
  5991  0165' 0080'              	movwf	(format_double@digit+1)^(0+384)
  5992  0166' 1683               	bsf	3,5	;RP0=1, select bank1
  5993  0167' 1303               	bcf	3,6	;RP1=0, select bank1
  5994  0168' 0800'              	movf	?___fltol^(0+128),w
  5995  0169' 1683               	bsf	3,5	;RP0=1, select bank3
  5996  016A' 1703               	bsf	3,6	;RP1=1, select bank3
  5997  016B' 0080'              	movwf	format_double@digit^(0+384)
  5998                           
  5999                           ;format.c: 82: num -= (digit * weight);
  6000  016C' 0800'              	movf	(format_double@digit+1)^(0+384),w
  6001  016D' 1283               	bcf	3,5	;RP0=0, select bank0
  6002  016E' 1303               	bcf	3,6	;RP1=0, select bank0
  6003  016F' 008B'              	movwf	___awtofl@c+1
  6004  0170' 1683               	bsf	3,5	;RP0=1, select bank3
  6005  0171' 1703               	bsf	3,6	;RP1=1, select bank3
  6006  0172' 0800'              	movf	format_double@digit^(0+384),w
  6007  0173' 1283               	bcf	3,5	;RP0=0, select bank0
  6008  0174' 1303               	bcf	3,6	;RP1=0, select bank0
  6009  0175' 008A'              	movwf	___awtofl@c
  6010  0176' 120A' 118A' 2000' 120A' 118A' 	fcall	___awtofl
  6011  017B' 1283               	bcf	3,5	;RP0=0, select bank0
  6012  017C' 1303               	bcf	3,6	;RP1=0, select bank0
  6013  017D' 080D'              	movf	?___awtofl+3,w
  6014  017E' 00A5'              	movwf	___flmul@f2+3
  6015  017F' 080C'              	movf	?___awtofl+2,w
  6016  0180' 00A4'              	movwf	___flmul@f2+2
  6017  0181' 080B'              	movf	?___awtofl+1,w
  6018  0182' 00A3'              	movwf	___flmul@f2+1
  6019  0183' 080A'              	movf	?___awtofl,w
  6020  0184' 00A2'              	movwf	___flmul@f2
  6021  0185' 1683               	bsf	3,5	;RP0=1, select bank3
  6022  0186' 1703               	bsf	3,6	;RP1=1, select bank3
  6023  0187' 0800'              	movf	(format_double@weight+3)^(0+384),w
  6024  0188' 1283               	bcf	3,5	;RP0=0, select bank0
  6025  0189' 1303               	bcf	3,6	;RP1=0, select bank0
  6026  018A' 00A1'              	movwf	___flmul@f1+3
  6027  018B' 1683               	bsf	3,5	;RP0=1, select bank3
  6028  018C' 1703               	bsf	3,6	;RP1=1, select bank3
  6029  018D' 0800'              	movf	(format_double@weight+2)^(0+384),w
  6030  018E' 1283               	bcf	3,5	;RP0=0, select bank0
  6031  018F' 1303               	bcf	3,6	;RP1=0, select bank0
  6032  0190' 00A0'              	movwf	___flmul@f1+2
  6033  0191' 1683               	bsf	3,5	;RP0=1, select bank3
  6034  0192' 1703               	bsf	3,6	;RP1=1, select bank3
  6035  0193' 0800'              	movf	(format_double@weight+1)^(0+384),w
  6036  0194' 1283               	bcf	3,5	;RP0=0, select bank0
  6037  0195' 1303               	bcf	3,6	;RP1=0, select bank0
  6038  0196' 009F'              	movwf	___flmul@f1+1
  6039  0197' 1683               	bsf	3,5	;RP0=1, select bank3
  6040  0198' 1703               	bsf	3,6	;RP1=1, select bank3
  6041  0199' 0800'              	movf	format_double@weight^(0+384),w
  6042  019A' 1283               	bcf	3,5	;RP0=0, select bank0
  6043  019B' 1303               	bcf	3,6	;RP1=0, select bank0
  6044  019C' 009E'              	movwf	___flmul@f1
  6045  019D' 120A' 118A' 2000' 120A' 118A' 	fcall	___flmul
  6046  01A2' 1283               	bcf	3,5	;RP0=0, select bank0
  6047  01A3' 1303               	bcf	3,6	;RP1=0, select bank0
  6048  01A4' 0821'              	movf	?___flmul+3,w
  6049  01A5' 00C9'              	movwf	___flsub@f2+3
  6050  01A6' 0820'              	movf	?___flmul+2,w
  6051  01A7' 00C8'              	movwf	___flsub@f2+2
  6052  01A8' 081F'              	movf	?___flmul+1,w
  6053  01A9' 00C7'              	movwf	___flsub@f2+1
  6054  01AA' 081E'              	movf	?___flmul,w
  6055  01AB' 00C6'              	movwf	___flsub@f2
  6056  01AC' 1683               	bsf	3,5	;RP0=1, select bank3
  6057  01AD' 1703               	bsf	3,6	;RP1=1, select bank3
  6058  01AE' 0800'              	movf	(format_double@num+3)^(0+384),w
  6059  01AF' 1283               	bcf	3,5	;RP0=0, select bank0
  6060  01B0' 1303               	bcf	3,6	;RP1=0, select bank0
  6061  01B1' 00CD'              	movwf	___flsub@f1+3
  6062  01B2' 1683               	bsf	3,5	;RP0=1, select bank3
  6063  01B3' 1703               	bsf	3,6	;RP1=1, select bank3
  6064  01B4' 0800'              	movf	(format_double@num+2)^(0+384),w
  6065  01B5' 1283               	bcf	3,5	;RP0=0, select bank0
  6066  01B6' 1303               	bcf	3,6	;RP1=0, select bank0
  6067  01B7' 00CC'              	movwf	___flsub@f1+2
  6068  01B8' 1683               	bsf	3,5	;RP0=1, select bank3
  6069  01B9' 1703               	bsf	3,6	;RP1=1, select bank3
  6070  01BA' 0800'              	movf	(format_double@num+1)^(0+384),w
  6071  01BB' 1283               	bcf	3,5	;RP0=0, select bank0
  6072  01BC' 1303               	bcf	3,6	;RP1=0, select bank0
  6073  01BD' 00CB'              	movwf	___flsub@f1+1
  6074  01BE' 1683               	bsf	3,5	;RP0=1, select bank3
  6075  01BF' 1703               	bsf	3,6	;RP1=1, select bank3
  6076  01C0' 0800'              	movf	format_double@num^(0+384),w
  6077  01C1' 1283               	bcf	3,5	;RP0=0, select bank0
  6078  01C2' 1303               	bcf	3,6	;RP1=0, select bank0
  6079  01C3' 00CA'              	movwf	___flsub@f1
  6080  01C4' 120A' 118A' 2000' 120A' 118A' 	fcall	___flsub
  6081  01C9' 1283               	bcf	3,5	;RP0=0, select bank0
  6082  01CA' 1303               	bcf	3,6	;RP1=0, select bank0
  6083  01CB' 0849'              	movf	?___flsub+3,w
  6084  01CC' 1683               	bsf	3,5	;RP0=1, select bank3
  6085  01CD' 1703               	bsf	3,6	;RP1=1, select bank3
  6086  01CE' 0080'              	movwf	(format_double@num+3)^(0+384)
  6087  01CF' 1283               	bcf	3,5	;RP0=0, select bank0
  6088  01D0' 1303               	bcf	3,6	;RP1=0, select bank0
  6089  01D1' 0848'              	movf	?___flsub+2,w
  6090  01D2' 1683               	bsf	3,5	;RP0=1, select bank3
  6091  01D3' 1703               	bsf	3,6	;RP1=1, select bank3
  6092  01D4' 0080'              	movwf	(format_double@num+2)^(0+384)
  6093  01D5' 1283               	bcf	3,5	;RP0=0, select bank0
  6094  01D6' 1303               	bcf	3,6	;RP1=0, select bank0
  6095  01D7' 0847'              	movf	?___flsub+1,w
  6096  01D8' 1683               	bsf	3,5	;RP0=1, select bank3
  6097  01D9' 1703               	bsf	3,6	;RP1=1, select bank3
  6098  01DA' 0080'              	movwf	(format_double@num+1)^(0+384)
  6099  01DB' 1283               	bcf	3,5	;RP0=0, select bank0
  6100  01DC' 1303               	bcf	3,6	;RP1=0, select bank0
  6101  01DD' 0846'              	movf	?___flsub,w
  6102  01DE' 1683               	bsf	3,5	;RP0=1, select bank3
  6103  01DF' 1703               	bsf	3,6	;RP1=1, select bank3
  6104  01E0' 0080'              	movwf	format_double@num^(0+384)
  6105                           
  6106                           ;format.c: 83: putchar_ptr((char)('0' + digit));
  6107  01E1' 0800'              	movf	format_double@digit^(0+384),w
  6108  01E2' 3E30               	addlw	48
  6109  01E3' 1683               	bsf	3,5	;RP0=1, select bank1
  6110  01E4' 1303               	bcf	3,6	;RP1=0, select bank1
  6111  01E5' 0080'              	movwf	??_format_double^(0+128)
  6112  01E6' 0800'              	movf	??_format_double^(0+128),w
  6113  01E7' 1283               	bcf	3,5	;RP0=0, select bank0
  6114  01E8' 1303               	bcf	3,6	;RP1=0, select bank0
  6115  01E9' 0084'              	movwf	output_putch@c
  6116  01EA' 0800'              	movf	_putchar_ptr,w
  6117  01EB' 120A' 118A' 2000' 120A' 118A' 	fcall	fptable
  6118                           
  6119                           ;format.c: 84: if(m == 0)
  6120  01F0' 1683               	bsf	3,5	;RP0=1, select bank3
  6121  01F1' 1703               	bsf	3,6	;RP1=1, select bank3
  6122  01F2' 0800'              	movf	format_double@m^(0+384),w
  6123  01F3' 0400'              	iorwf	(format_double@m+1)^(0+384),w
  6124  01F4' 1D03               	btfss	3,2
  6125  01F5' 2800'              	goto	l3956
  6126                           
  6127                           ;format.c: 85: putchar_ptr('.');
  6128  01F6' 302E               	movlw	46
  6129  01F7' 1683               	bsf	3,5	;RP0=1, select bank1
  6130  01F8' 1303               	bcf	3,6	;RP1=0, select bank1
  6131  01F9' 0080'              	movwf	??_format_double^(0+128)
  6132  01FA' 0800'              	movf	??_format_double^(0+128),w
  6133  01FB' 1283               	bcf	3,5	;RP0=0, select bank0
  6134  01FC' 1303               	bcf	3,6	;RP1=0, select bank0
  6135  01FD' 0084'              	movwf	output_putch@c
  6136  01FE' 0800'              	movf	_putchar_ptr,w
  6137  01FF' 120A' 118A' 2000' 120A' 118A' 	fcall	fptable
  6138  0204'                    l3956:	
  6139                           
  6140                           ;format.c: 86: m--;
  6141  0204' 30FF               	movlw	255
  6142  0205' 1683               	bsf	3,5	;RP0=1, select bank3
  6143  0206' 1703               	bsf	3,6	;RP1=1, select bank3
  6144  0207' 0780'              	addwf	format_double@m^(0+384),f
  6145  0208' 1803               	skipnc
  6146  0209' 0A80'              	incf	(format_double@m+1)^(0+384),f
  6147  020A' 30FF               	movlw	255
  6148  020B' 0780'              	addwf	(format_double@m+1)^(0+384),f
  6149  020C' 2800'              	goto	l3960
  6150  020D'                    __end_of_format_double:	
  6151                           
  6152                           	psect	text12
  6153  0000'                    __ptext12:	
  6154 ;; *************** function _pow *****************
  6155 ;; Defined at:
  6156 ;;		line 5 in file "/opt/microchip/xc8/v1.34/sources/common/pow.c"
  6157 ;; Parameters:    Size  Location     Type
  6158 ;;  x               4   66[BANK1 ] short 
  6159 ;;  y               4   70[BANK1 ] short 
  6160 ;; Auto vars:     Size  Location     Type
  6161 ;;  yi              4    9[BANK3 ] unsigned long 
  6162 ;;  sign            1    8[BANK3 ] unsigned char 
  6163 ;; Return value:  Size  Location     Type
  6164 ;;                  4   66[BANK1 ] unsigned char 
  6165 ;; Registers used:
  6166 ;;		wreg, fsr0l, fsr0h, status,2, status,0, btemp+1, pclath, cstack
  6167 ;; Tracked objects:
  6168 ;;		On entry : 0/0
  6169 ;;		On exit  : 0/0
  6170 ;;		Unchanged: 0/0
  6171 ;; Data sizes:     COMMON   BANK0   BANK1   BANK3   BANK2
  6172 ;;      Params:         0       0       8       0       0
  6173 ;;      Locals:         0       0       0      13       0
  6174 ;;      Temps:          0       0       1       0       0
  6175 ;;      Totals:         0       0       9      13       0
  6176 ;;Total ram usage:       22 bytes
  6177 ;; Hardware stack levels used:    1
  6178 ;; Hardware stack levels required when called:    5
  6179 ;; This function calls:
  6180 ;;		___flge
  6181 ;;		___flmul
  6182 ;;		___flneg
  6183 ;;		___fltol
  6184 ;;		___lltofl
  6185 ;;		_exp
  6186 ;;		_log
  6187 ;; This function is called by:
  6188 ;;		_format_double
  6189 ;;		_format_float
  6190 ;; This function uses a non-reentrant model
  6191 ;;
  6192                           
  6193                           
  6194                           ;psect for function _pow
  6195  0000'                    _pow:	
  6196                           
  6197                           ;incstack = 0
  6198                           ; Regs used in _pow: [wreg-fsr0h+status,2+status,0+btemp+1+pclath+cstack]
  6199  0000' 1683               	bsf	3,5	;RP0=1, select bank3
  6200  0001' 1703               	bsf	3,6	;RP1=1, select bank3
  6201  0002' 0180'              	clrf	pow@sign^(0+384)
  6202  0003' 1683               	bsf	3,5	;RP0=1, select bank1
  6203  0004' 1303               	bcf	3,6	;RP1=0, select bank1
  6204  0005' 0800'              	movf	(pow@x+3)^(0+128),w
  6205  0006' 0400'              	iorwf	(pow@x+2)^(0+128),w
  6206  0007' 0400'              	iorwf	(pow@x+1)^(0+128),w
  6207  0008' 0400'              	iorwf	pow@x^(0+128),w
  6208  0009' 1D03               	skipz
  6209  000A' 2800'              	goto	l3888
  6210  000B' 3000               	movlw	0
  6211  000C' 1283               	bcf	3,5	;RP0=0, select bank0
  6212  000D' 1303               	bcf	3,6	;RP1=0, select bank0
  6213  000E' 0083'              	movwf	___flge@ff1+3
  6214  000F' 3000               	movlw	0
  6215  0010' 0082'              	movwf	___flge@ff1+2
  6216  0011' 3000               	movlw	0
  6217  0012' 0081'              	movwf	___flge@ff1+1
  6218  0013' 3000               	movlw	0
  6219  0014' 0080'              	movwf	___flge@ff1
  6220  0015' 1683               	bsf	3,5	;RP0=1, select bank1
  6221  0016' 1303               	bcf	3,6	;RP1=0, select bank1
  6222  0017' 0800'              	movf	(pow@y+3)^(0+128),w
  6223  0018' 1283               	bcf	3,5	;RP0=0, select bank0
  6224  0019' 1303               	bcf	3,6	;RP1=0, select bank0
  6225  001A' 0087'              	movwf	___flge@ff2+3
  6226  001B' 1683               	bsf	3,5	;RP0=1, select bank1
  6227  001C' 1303               	bcf	3,6	;RP1=0, select bank1
  6228  001D' 0800'              	movf	(pow@y+2)^(0+128),w
  6229  001E' 1283               	bcf	3,5	;RP0=0, select bank0
  6230  001F' 1303               	bcf	3,6	;RP1=0, select bank0
  6231  0020' 0086'              	movwf	___flge@ff2+2
  6232  0021' 1683               	bsf	3,5	;RP0=1, select bank1
  6233  0022' 1303               	bcf	3,6	;RP1=0, select bank1
  6234  0023' 0800'              	movf	(pow@y+1)^(0+128),w
  6235  0024' 1283               	bcf	3,5	;RP0=0, select bank0
  6236  0025' 1303               	bcf	3,6	;RP1=0, select bank0
  6237  0026' 0085'              	movwf	___flge@ff2+1
  6238  0027' 1683               	bsf	3,5	;RP0=1, select bank1
  6239  0028' 1303               	bcf	3,6	;RP1=0, select bank1
  6240  0029' 0800'              	movf	pow@y^(0+128),w
  6241  002A' 1283               	bcf	3,5	;RP0=0, select bank0
  6242  002B' 1303               	bcf	3,6	;RP1=0, select bank0
  6243  002C' 0084'              	movwf	___flge@ff2
  6244  002D' 120A' 118A' 2000' 120A' 118A' 	fcall	___flge
  6245  0032' 1C03               	btfss	3,0
  6246  0033' 2800'              	goto	l866
  6247  0034' 3021               	movlw	33
  6248  0035' 1683               	bsf	3,5	;RP0=1, select bank3
  6249  0036' 1703               	bsf	3,6	;RP1=1, select bank3
  6250  0037' 0080'              	movwf	_errno^(0+384)
  6251  0038' 3000               	movlw	0
  6252  0039' 0081'              	movwf	(_errno^(0+384)+1)
  6253  003A'                    l866:	
  6254  003A' 3000               	movlw	0
  6255  003B' 1683               	bsf	3,5	;RP0=1, select bank1
  6256  003C' 1303               	bcf	3,6	;RP1=0, select bank1
  6257  003D' 0080'              	movwf	(?_pow+3)^(0+128)
  6258  003E' 3000               	movlw	0
  6259  003F' 0080'              	movwf	(?_pow+2)^(0+128)
  6260  0040' 3000               	movlw	0
  6261  0041' 0080'              	movwf	(?_pow+1)^(0+128)
  6262  0042' 3000               	movlw	0
  6263  0043' 0080'              	movwf	?_pow^(0+128)
  6264  0044' 0008               	return
  6265  0045'                    l3888:	
  6266  0045' 0800'              	movf	(pow@y+3)^(0+128),w
  6267  0046' 0400'              	iorwf	(pow@y+2)^(0+128),w
  6268  0047' 0400'              	iorwf	(pow@y+1)^(0+128),w
  6269  0048' 0400'              	iorwf	pow@y^(0+128),w
  6270  0049' 1D03               	skipz
  6271  004A' 2800'              	goto	l3894
  6272  004B' 303F               	movlw	63
  6273  004C' 0080'              	movwf	(?_pow+3)^(0+128)
  6274  004D' 3080               	movlw	128
  6275  004E' 0080'              	movwf	(?_pow+2)^(0+128)
  6276  004F' 3000               	movlw	0
  6277  0050' 0080'              	movwf	(?_pow+1)^(0+128)
  6278  0051' 3000               	movlw	0
  6279  0052' 0080'              	movwf	?_pow^(0+128)
  6280  0053' 0008               	return
  6281  0054'                    l3894:	
  6282  0054' 0800'              	movf	(pow@x+3)^(0+128),w
  6283  0055' 1283               	bcf	3,5	;RP0=0, select bank0
  6284  0056' 1303               	bcf	3,6	;RP1=0, select bank0
  6285  0057' 0083'              	movwf	___flge@ff1+3
  6286  0058' 1683               	bsf	3,5	;RP0=1, select bank1
  6287  0059' 1303               	bcf	3,6	;RP1=0, select bank1
  6288  005A' 0800'              	movf	(pow@x+2)^(0+128),w
  6289  005B' 1283               	bcf	3,5	;RP0=0, select bank0
  6290  005C' 1303               	bcf	3,6	;RP1=0, select bank0
  6291  005D' 0082'              	movwf	___flge@ff1+2
  6292  005E' 1683               	bsf	3,5	;RP0=1, select bank1
  6293  005F' 1303               	bcf	3,6	;RP1=0, select bank1
  6294  0060' 0800'              	movf	(pow@x+1)^(0+128),w
  6295  0061' 1283               	bcf	3,5	;RP0=0, select bank0
  6296  0062' 1303               	bcf	3,6	;RP1=0, select bank0
  6297  0063' 0081'              	movwf	___flge@ff1+1
  6298  0064' 1683               	bsf	3,5	;RP0=1, select bank1
  6299  0065' 1303               	bcf	3,6	;RP1=0, select bank1
  6300  0066' 0800'              	movf	pow@x^(0+128),w
  6301  0067' 1283               	bcf	3,5	;RP0=0, select bank0
  6302  0068' 1303               	bcf	3,6	;RP1=0, select bank0
  6303  0069' 0080'              	movwf	___flge@ff1
  6304  006A' 3000               	movlw	0
  6305  006B' 0087'              	movwf	___flge@ff2+3
  6306  006C' 3000               	movlw	0
  6307  006D' 0086'              	movwf	___flge@ff2+2
  6308  006E' 3000               	movlw	0
  6309  006F' 0085'              	movwf	___flge@ff2+1
  6310  0070' 3000               	movlw	0
  6311  0071' 0084'              	movwf	___flge@ff2
  6312  0072' 120A' 118A' 2000' 120A' 118A' 	fcall	___flge
  6313  0077' 1803               	btfsc	3,0
  6314  0078' 2800'              	goto	l3906
  6315  0079' 1683               	bsf	3,5	;RP0=1, select bank1
  6316  007A' 1303               	bcf	3,6	;RP1=0, select bank1
  6317  007B' 0800'              	movf	(pow@y+3)^(0+128),w
  6318  007C' 0080'              	movwf	(___fltol@f1+3)^(0+128)
  6319  007D' 0800'              	movf	(pow@y+2)^(0+128),w
  6320  007E' 0080'              	movwf	(___fltol@f1+2)^(0+128)
  6321  007F' 0800'              	movf	(pow@y+1)^(0+128),w
  6322  0080' 0080'              	movwf	(___fltol@f1+1)^(0+128)
  6323  0081' 0800'              	movf	pow@y^(0+128),w
  6324  0082' 0080'              	movwf	___fltol@f1^(0+128)
  6325  0083' 120A' 118A' 2000' 120A' 118A' 	fcall	___fltol
  6326  0088' 1683               	bsf	3,5	;RP0=1, select bank1
  6327  0089' 1303               	bcf	3,6	;RP1=0, select bank1
  6328  008A' 0800'              	movf	(?___fltol+3)^(0+128),w
  6329  008B' 1683               	bsf	3,5	;RP0=1, select bank3
  6330  008C' 1703               	bsf	3,6	;RP1=1, select bank3
  6331  008D' 0080'              	movwf	(pow@yi+3)^(0+384)
  6332  008E' 1683               	bsf	3,5	;RP0=1, select bank1
  6333  008F' 1303               	bcf	3,6	;RP1=0, select bank1
  6334  0090' 0800'              	movf	(?___fltol+2)^(0+128),w
  6335  0091' 1683               	bsf	3,5	;RP0=1, select bank3
  6336  0092' 1703               	bsf	3,6	;RP1=1, select bank3
  6337  0093' 0080'              	movwf	(pow@yi+2)^(0+384)
  6338  0094' 1683               	bsf	3,5	;RP0=1, select bank1
  6339  0095' 1303               	bcf	3,6	;RP1=0, select bank1
  6340  0096' 0800'              	movf	(?___fltol+1)^(0+128),w
  6341  0097' 1683               	bsf	3,5	;RP0=1, select bank3
  6342  0098' 1703               	bsf	3,6	;RP1=1, select bank3
  6343  0099' 0080'              	movwf	(pow@yi+1)^(0+384)
  6344  009A' 1683               	bsf	3,5	;RP0=1, select bank1
  6345  009B' 1303               	bcf	3,6	;RP1=0, select bank1
  6346  009C' 0800'              	movf	?___fltol^(0+128),w
  6347  009D' 1683               	bsf	3,5	;RP0=1, select bank3
  6348  009E' 1703               	bsf	3,6	;RP1=1, select bank3
  6349  009F' 0080'              	movwf	pow@yi^(0+384)
  6350  00A0' 0800'              	movf	(pow@yi+3)^(0+384),w
  6351  00A1' 1283               	bcf	3,5	;RP0=0, select bank0
  6352  00A2' 1303               	bcf	3,6	;RP1=0, select bank0
  6353  00A3' 008D'              	movwf	___lltofl@c+3
  6354  00A4' 1683               	bsf	3,5	;RP0=1, select bank3
  6355  00A5' 1703               	bsf	3,6	;RP1=1, select bank3
  6356  00A6' 0800'              	movf	(pow@yi+2)^(0+384),w
  6357  00A7' 1283               	bcf	3,5	;RP0=0, select bank0
  6358  00A8' 1303               	bcf	3,6	;RP1=0, select bank0
  6359  00A9' 008C'              	movwf	___lltofl@c+2
  6360  00AA' 1683               	bsf	3,5	;RP0=1, select bank3
  6361  00AB' 1703               	bsf	3,6	;RP1=1, select bank3
  6362  00AC' 0800'              	movf	(pow@yi+1)^(0+384),w
  6363  00AD' 1283               	bcf	3,5	;RP0=0, select bank0
  6364  00AE' 1303               	bcf	3,6	;RP1=0, select bank0
  6365  00AF' 008B'              	movwf	___lltofl@c+1
  6366  00B0' 1683               	bsf	3,5	;RP0=1, select bank3
  6367  00B1' 1703               	bsf	3,6	;RP1=1, select bank3
  6368  00B2' 0800'              	movf	pow@yi^(0+384),w
  6369  00B3' 1283               	bcf	3,5	;RP0=0, select bank0
  6370  00B4' 1303               	bcf	3,6	;RP1=0, select bank0
  6371  00B5' 008A'              	movwf	___lltofl@c
  6372  00B6' 120A' 118A' 2000' 120A' 118A' 	fcall	___lltofl
  6373  00BB' 1683               	bsf	3,5	;RP0=1, select bank1
  6374  00BC' 1303               	bcf	3,6	;RP1=0, select bank1
  6375  00BD' 0800'              	movf	(pow@y+3)^(0+128),w
  6376  00BE' 1283               	bcf	3,5	;RP0=0, select bank0
  6377  00BF' 1303               	bcf	3,6	;RP1=0, select bank0
  6378  00C0' 060D'              	xorwf	?___lltofl+3,w
  6379  00C1' 1D03               	skipz
  6380  00C2' 2800'              	goto	u4925
  6381  00C3' 1683               	bsf	3,5	;RP0=1, select bank1
  6382  00C4' 1303               	bcf	3,6	;RP1=0, select bank1
  6383  00C5' 0800'              	movf	(pow@y+2)^(0+128),w
  6384  00C6' 1283               	bcf	3,5	;RP0=0, select bank0
  6385  00C7' 1303               	bcf	3,6	;RP1=0, select bank0
  6386  00C8' 060C'              	xorwf	?___lltofl+2,w
  6387  00C9' 1D03               	skipz
  6388  00CA' 2800'              	goto	u4925
  6389  00CB' 1683               	bsf	3,5	;RP0=1, select bank1
  6390  00CC' 1303               	bcf	3,6	;RP1=0, select bank1
  6391  00CD' 0800'              	movf	(pow@y+1)^(0+128),w
  6392  00CE' 1283               	bcf	3,5	;RP0=0, select bank0
  6393  00CF' 1303               	bcf	3,6	;RP1=0, select bank0
  6394  00D0' 060B'              	xorwf	?___lltofl+1,w
  6395  00D1' 1D03               	skipz
  6396  00D2' 2800'              	goto	u4925
  6397  00D3' 1683               	bsf	3,5	;RP0=1, select bank1
  6398  00D4' 1303               	bcf	3,6	;RP1=0, select bank1
  6399  00D5' 0800'              	movf	pow@y^(0+128),w
  6400  00D6' 1283               	bcf	3,5	;RP0=0, select bank0
  6401  00D7' 1303               	bcf	3,6	;RP1=0, select bank0
  6402  00D8' 060A'              	xorwf	?___lltofl,w
  6403  00D9'                    u4925:	
  6404  00D9' 1903               	skipnz
  6405  00DA' 2800'              	goto	l3902
  6406  00DB' 3021               	movlw	33
  6407  00DC' 1683               	bsf	3,5	;RP0=1, select bank3
  6408  00DD' 1703               	bsf	3,6	;RP1=1, select bank3
  6409  00DE' 0080'              	movwf	_errno^(0+384)
  6410  00DF' 3000               	movlw	0
  6411  00E0' 0081'              	movwf	(_errno^(0+384)+1)
  6412  00E1' 3000               	movlw	0
  6413  00E2' 1683               	bsf	3,5	;RP0=1, select bank1
  6414  00E3' 1303               	bcf	3,6	;RP1=0, select bank1
  6415  00E4' 0080'              	movwf	(?_pow+3)^(0+128)
  6416  00E5' 3000               	movlw	0
  6417  00E6' 0080'              	movwf	(?_pow+2)^(0+128)
  6418  00E7' 3000               	movlw	0
  6419  00E8' 0080'              	movwf	(?_pow+1)^(0+128)
  6420  00E9' 3000               	movlw	0
  6421  00EA' 0080'              	movwf	?_pow^(0+128)
  6422  00EB' 0008               	return
  6423  00EC'                    l3902:	
  6424  00EC' 1683               	bsf	3,5	;RP0=1, select bank3
  6425  00ED' 1703               	bsf	3,6	;RP1=1, select bank3
  6426  00EE' 0800'              	movf	pow@yi^(0+384),w
  6427  00EF' 3901               	andlw	1
  6428  00F0' 1683               	bsf	3,5	;RP0=1, select bank1
  6429  00F1' 1303               	bcf	3,6	;RP1=0, select bank1
  6430  00F2' 0080'              	movwf	??_pow^(0+128)
  6431  00F3' 0800'              	movf	??_pow^(0+128),w
  6432  00F4' 1683               	bsf	3,5	;RP0=1, select bank3
  6433  00F5' 1703               	bsf	3,6	;RP1=1, select bank3
  6434  00F6' 0080'              	movwf	pow@sign^(0+384)
  6435  00F7' 1683               	bsf	3,5	;RP0=1, select bank1
  6436  00F8' 1303               	bcf	3,6	;RP1=0, select bank1
  6437  00F9' 0800'              	movf	(pow@x+3)^(0+128),w
  6438  00FA' 1283               	bcf	3,5	;RP0=0, select bank0
  6439  00FB' 1303               	bcf	3,6	;RP1=0, select bank0
  6440  00FC' 00B5'              	movwf	___flneg@f1+3
  6441  00FD' 1683               	bsf	3,5	;RP0=1, select bank1
  6442  00FE' 1303               	bcf	3,6	;RP1=0, select bank1
  6443  00FF' 0800'              	movf	(pow@x+2)^(0+128),w
  6444  0100' 1283               	bcf	3,5	;RP0=0, select bank0
  6445  0101' 1303               	bcf	3,6	;RP1=0, select bank0
  6446  0102' 00B4'              	movwf	___flneg@f1+2
  6447  0103' 1683               	bsf	3,5	;RP0=1, select bank1
  6448  0104' 1303               	bcf	3,6	;RP1=0, select bank1
  6449  0105' 0800'              	movf	(pow@x+1)^(0+128),w
  6450  0106' 1283               	bcf	3,5	;RP0=0, select bank0
  6451  0107' 1303               	bcf	3,6	;RP1=0, select bank0
  6452  0108' 00B3'              	movwf	___flneg@f1+1
  6453  0109' 1683               	bsf	3,5	;RP0=1, select bank1
  6454  010A' 1303               	bcf	3,6	;RP1=0, select bank1
  6455  010B' 0800'              	movf	pow@x^(0+128),w
  6456  010C' 1283               	bcf	3,5	;RP0=0, select bank0
  6457  010D' 1303               	bcf	3,6	;RP1=0, select bank0
  6458  010E' 00B2'              	movwf	___flneg@f1
  6459  010F' 120A' 118A' 2000' 120A' 118A' 	fcall	___flneg
  6460  0114' 1283               	bcf	3,5	;RP0=0, select bank0
  6461  0115' 1303               	bcf	3,6	;RP1=0, select bank0
  6462  0116' 0835'              	movf	?___flneg+3,w
  6463  0117' 1683               	bsf	3,5	;RP0=1, select bank1
  6464  0118' 1303               	bcf	3,6	;RP1=0, select bank1
  6465  0119' 0080'              	movwf	(pow@x+3)^(0+128)
  6466  011A' 1283               	bcf	3,5	;RP0=0, select bank0
  6467  011B' 1303               	bcf	3,6	;RP1=0, select bank0
  6468  011C' 0834'              	movf	?___flneg+2,w
  6469  011D' 1683               	bsf	3,5	;RP0=1, select bank1
  6470  011E' 1303               	bcf	3,6	;RP1=0, select bank1
  6471  011F' 0080'              	movwf	(pow@x+2)^(0+128)
  6472  0120' 1283               	bcf	3,5	;RP0=0, select bank0
  6473  0121' 1303               	bcf	3,6	;RP1=0, select bank0
  6474  0122' 0833'              	movf	?___flneg+1,w
  6475  0123' 1683               	bsf	3,5	;RP0=1, select bank1
  6476  0124' 1303               	bcf	3,6	;RP1=0, select bank1
  6477  0125' 0080'              	movwf	(pow@x+1)^(0+128)
  6478  0126' 1283               	bcf	3,5	;RP0=0, select bank0
  6479  0127' 1303               	bcf	3,6	;RP1=0, select bank0
  6480  0128' 0832'              	movf	?___flneg,w
  6481  0129' 1683               	bsf	3,5	;RP0=1, select bank1
  6482  012A' 1303               	bcf	3,6	;RP1=0, select bank1
  6483  012B' 0080'              	movwf	pow@x^(0+128)
  6484  012C'                    l3906:	
  6485  012C' 1683               	bsf	3,5	;RP0=1, select bank1
  6486  012D' 1303               	bcf	3,6	;RP1=0, select bank1
  6487  012E' 0800'              	movf	(pow@x+3)^(0+128),w
  6488  012F' 0080'              	movwf	(log@x+3)^(0+128)
  6489  0130' 0800'              	movf	(pow@x+2)^(0+128),w
  6490  0131' 0080'              	movwf	(log@x+2)^(0+128)
  6491  0132' 0800'              	movf	(pow@x+1)^(0+128),w
  6492  0133' 0080'              	movwf	(log@x+1)^(0+128)
  6493  0134' 0800'              	movf	pow@x^(0+128),w
  6494  0135' 0080'              	movwf	log@x^(0+128)
  6495  0136' 120A' 118A' 2000' 120A' 118A' 	fcall	_log
  6496  013B' 1683               	bsf	3,5	;RP0=1, select bank1
  6497  013C' 1303               	bcf	3,6	;RP1=0, select bank1
  6498  013D' 0800'              	movf	(?_log+3)^(0+128),w
  6499  013E' 1683               	bsf	3,5	;RP0=1, select bank3
  6500  013F' 1703               	bsf	3,6	;RP1=1, select bank3
  6501  0140' 0080'              	movwf	(_pow$821+3)^(0+384)
  6502  0141' 1683               	bsf	3,5	;RP0=1, select bank1
  6503  0142' 1303               	bcf	3,6	;RP1=0, select bank1
  6504  0143' 0800'              	movf	(?_log+2)^(0+128),w
  6505  0144' 1683               	bsf	3,5	;RP0=1, select bank3
  6506  0145' 1703               	bsf	3,6	;RP1=1, select bank3
  6507  0146' 0080'              	movwf	(_pow$821+2)^(0+384)
  6508  0147' 1683               	bsf	3,5	;RP0=1, select bank1
  6509  0148' 1303               	bcf	3,6	;RP1=0, select bank1
  6510  0149' 0800'              	movf	(?_log+1)^(0+128),w
  6511  014A' 1683               	bsf	3,5	;RP0=1, select bank3
  6512  014B' 1703               	bsf	3,6	;RP1=1, select bank3
  6513  014C' 0080'              	movwf	(_pow$821+1)^(0+384)
  6514  014D' 1683               	bsf	3,5	;RP0=1, select bank1
  6515  014E' 1303               	bcf	3,6	;RP1=0, select bank1
  6516  014F' 0800'              	movf	?_log^(0+128),w
  6517  0150' 1683               	bsf	3,5	;RP0=1, select bank3
  6518  0151' 1703               	bsf	3,6	;RP1=1, select bank3
  6519  0152' 0080'              	movwf	_pow$821^(0+384)
  6520  0153' 1683               	bsf	3,5	;RP0=1, select bank1
  6521  0154' 1303               	bcf	3,6	;RP1=0, select bank1
  6522  0155' 0800'              	movf	(pow@y+3)^(0+128),w
  6523  0156' 1283               	bcf	3,5	;RP0=0, select bank0
  6524  0157' 1303               	bcf	3,6	;RP1=0, select bank0
  6525  0158' 00A1'              	movwf	___flmul@f1+3
  6526  0159' 1683               	bsf	3,5	;RP0=1, select bank1
  6527  015A' 1303               	bcf	3,6	;RP1=0, select bank1
  6528  015B' 0800'              	movf	(pow@y+2)^(0+128),w
  6529  015C' 1283               	bcf	3,5	;RP0=0, select bank0
  6530  015D' 1303               	bcf	3,6	;RP1=0, select bank0
  6531  015E' 00A0'              	movwf	___flmul@f1+2
  6532  015F' 1683               	bsf	3,5	;RP0=1, select bank1
  6533  0160' 1303               	bcf	3,6	;RP1=0, select bank1
  6534  0161' 0800'              	movf	(pow@y+1)^(0+128),w
  6535  0162' 1283               	bcf	3,5	;RP0=0, select bank0
  6536  0163' 1303               	bcf	3,6	;RP1=0, select bank0
  6537  0164' 009F'              	movwf	___flmul@f1+1
  6538  0165' 1683               	bsf	3,5	;RP0=1, select bank1
  6539  0166' 1303               	bcf	3,6	;RP1=0, select bank1
  6540  0167' 0800'              	movf	pow@y^(0+128),w
  6541  0168' 1283               	bcf	3,5	;RP0=0, select bank0
  6542  0169' 1303               	bcf	3,6	;RP1=0, select bank0
  6543  016A' 009E'              	movwf	___flmul@f1
  6544  016B' 1683               	bsf	3,5	;RP0=1, select bank3
  6545  016C' 1703               	bsf	3,6	;RP1=1, select bank3
  6546  016D' 0800'              	movf	(_pow$821+3)^(0+384),w
  6547  016E' 1283               	bcf	3,5	;RP0=0, select bank0
  6548  016F' 1303               	bcf	3,6	;RP1=0, select bank0
  6549  0170' 00A5'              	movwf	___flmul@f2+3
  6550  0171' 1683               	bsf	3,5	;RP0=1, select bank3
  6551  0172' 1703               	bsf	3,6	;RP1=1, select bank3
  6552  0173' 0800'              	movf	(_pow$821+2)^(0+384),w
  6553  0174' 1283               	bcf	3,5	;RP0=0, select bank0
  6554  0175' 1303               	bcf	3,6	;RP1=0, select bank0
  6555  0176' 00A4'              	movwf	___flmul@f2+2
  6556  0177' 1683               	bsf	3,5	;RP0=1, select bank3
  6557  0178' 1703               	bsf	3,6	;RP1=1, select bank3
  6558  0179' 0800'              	movf	(_pow$821+1)^(0+384),w
  6559  017A' 1283               	bcf	3,5	;RP0=0, select bank0
  6560  017B' 1303               	bcf	3,6	;RP1=0, select bank0
  6561  017C' 00A3'              	movwf	___flmul@f2+1
  6562  017D' 1683               	bsf	3,5	;RP0=1, select bank3
  6563  017E' 1703               	bsf	3,6	;RP1=1, select bank3
  6564  017F' 0800'              	movf	_pow$821^(0+384),w
  6565  0180' 1283               	bcf	3,5	;RP0=0, select bank0
  6566  0181' 1303               	bcf	3,6	;RP1=0, select bank0
  6567  0182' 00A2'              	movwf	___flmul@f2
  6568  0183' 120A' 118A' 2000' 120A' 118A' 	fcall	___flmul
  6569  0188' 1283               	bcf	3,5	;RP0=0, select bank0
  6570  0189' 1303               	bcf	3,6	;RP1=0, select bank0
  6571  018A' 0821'              	movf	?___flmul+3,w
  6572  018B' 1683               	bsf	3,5	;RP0=1, select bank3
  6573  018C' 1703               	bsf	3,6	;RP1=1, select bank3
  6574  018D' 0080'              	movwf	(_pow$822+3)^(0+384)
  6575  018E' 1283               	bcf	3,5	;RP0=0, select bank0
  6576  018F' 1303               	bcf	3,6	;RP1=0, select bank0
  6577  0190' 0820'              	movf	?___flmul+2,w
  6578  0191' 1683               	bsf	3,5	;RP0=1, select bank3
  6579  0192' 1703               	bsf	3,6	;RP1=1, select bank3
  6580  0193' 0080'              	movwf	(_pow$822+2)^(0+384)
  6581  0194' 1283               	bcf	3,5	;RP0=0, select bank0
  6582  0195' 1303               	bcf	3,6	;RP1=0, select bank0
  6583  0196' 081F'              	movf	?___flmul+1,w
  6584  0197' 1683               	bsf	3,5	;RP0=1, select bank3
  6585  0198' 1703               	bsf	3,6	;RP1=1, select bank3
  6586  0199' 0080'              	movwf	(_pow$822+1)^(0+384)
  6587  019A' 1283               	bcf	3,5	;RP0=0, select bank0
  6588  019B' 1303               	bcf	3,6	;RP1=0, select bank0
  6589  019C' 081E'              	movf	?___flmul,w
  6590  019D' 1683               	bsf	3,5	;RP0=1, select bank3
  6591  019E' 1703               	bsf	3,6	;RP1=1, select bank3
  6592  019F' 0080'              	movwf	_pow$822^(0+384)
  6593  01A0' 0800'              	movf	(_pow$822+3)^(0+384),w
  6594  01A1' 1683               	bsf	3,5	;RP0=1, select bank1
  6595  01A2' 1303               	bcf	3,6	;RP1=0, select bank1
  6596  01A3' 0080'              	movwf	(exp@x+3)^(0+128)
  6597  01A4' 1683               	bsf	3,5	;RP0=1, select bank3
  6598  01A5' 1703               	bsf	3,6	;RP1=1, select bank3
  6599  01A6' 0800'              	movf	(_pow$822+2)^(0+384),w
  6600  01A7' 1683               	bsf	3,5	;RP0=1, select bank1
  6601  01A8' 1303               	bcf	3,6	;RP1=0, select bank1
  6602  01A9' 0080'              	movwf	(exp@x+2)^(0+128)
  6603  01AA' 1683               	bsf	3,5	;RP0=1, select bank3
  6604  01AB' 1703               	bsf	3,6	;RP1=1, select bank3
  6605  01AC' 0800'              	movf	(_pow$822+1)^(0+384),w
  6606  01AD' 1683               	bsf	3,5	;RP0=1, select bank1
  6607  01AE' 1303               	bcf	3,6	;RP1=0, select bank1
  6608  01AF' 0080'              	movwf	(exp@x+1)^(0+128)
  6609  01B0' 1683               	bsf	3,5	;RP0=1, select bank3
  6610  01B1' 1703               	bsf	3,6	;RP1=1, select bank3
  6611  01B2' 0800'              	movf	_pow$822^(0+384),w
  6612  01B3' 1683               	bsf	3,5	;RP0=1, select bank1
  6613  01B4' 1303               	bcf	3,6	;RP1=0, select bank1
  6614  01B5' 0080'              	movwf	exp@x^(0+128)
  6615  01B6' 120A' 118A' 2000' 120A' 118A' 	fcall	_exp
  6616  01BB' 1683               	bsf	3,5	;RP0=1, select bank1
  6617  01BC' 1303               	bcf	3,6	;RP1=0, select bank1
  6618  01BD' 0800'              	movf	(?_exp+3)^(0+128),w
  6619  01BE' 0080'              	movwf	(pow@x+3)^(0+128)
  6620  01BF' 0800'              	movf	(?_exp+2)^(0+128),w
  6621  01C0' 0080'              	movwf	(pow@x+2)^(0+128)
  6622  01C1' 0800'              	movf	(?_exp+1)^(0+128),w
  6623  01C2' 0080'              	movwf	(pow@x+1)^(0+128)
  6624  01C3' 0800'              	movf	?_exp^(0+128),w
  6625  01C4' 0080'              	movwf	pow@x^(0+128)
  6626  01C5' 1683               	bsf	3,5	;RP0=1, select bank3
  6627  01C6' 1703               	bsf	3,6	;RP1=1, select bank3
  6628  01C7' 0800'              	movf	pow@sign^(0+384),w
  6629  01C8' 1903               	btfsc	3,2
  6630  01C9' 0008               	return
  6631  01CA' 1683               	bsf	3,5	;RP0=1, select bank1
  6632  01CB' 1303               	bcf	3,6	;RP1=0, select bank1
  6633  01CC' 0800'              	movf	(pow@x+3)^(0+128),w
  6634  01CD' 1283               	bcf	3,5	;RP0=0, select bank0
  6635  01CE' 1303               	bcf	3,6	;RP1=0, select bank0
  6636  01CF' 00B5'              	movwf	___flneg@f1+3
  6637  01D0' 1683               	bsf	3,5	;RP0=1, select bank1
  6638  01D1' 1303               	bcf	3,6	;RP1=0, select bank1
  6639  01D2' 0800'              	movf	(pow@x+2)^(0+128),w
  6640  01D3' 1283               	bcf	3,5	;RP0=0, select bank0
  6641  01D4' 1303               	bcf	3,6	;RP1=0, select bank0
  6642  01D5' 00B4'              	movwf	___flneg@f1+2
  6643  01D6' 1683               	bsf	3,5	;RP0=1, select bank1
  6644  01D7' 1303               	bcf	3,6	;RP1=0, select bank1
  6645  01D8' 0800'              	movf	(pow@x+1)^(0+128),w
  6646  01D9' 1283               	bcf	3,5	;RP0=0, select bank0
  6647  01DA' 1303               	bcf	3,6	;RP1=0, select bank0
  6648  01DB' 00B3'              	movwf	___flneg@f1+1
  6649  01DC' 1683               	bsf	3,5	;RP0=1, select bank1
  6650  01DD' 1303               	bcf	3,6	;RP1=0, select bank1
  6651  01DE' 0800'              	movf	pow@x^(0+128),w
  6652  01DF' 1283               	bcf	3,5	;RP0=0, select bank0
  6653  01E0' 1303               	bcf	3,6	;RP1=0, select bank0
  6654  01E1' 00B2'              	movwf	___flneg@f1
  6655  01E2' 120A' 118A' 2000'  	fcall	___flneg
  6656  01E5' 1283               	bcf	3,5	;RP0=0, select bank0
  6657  01E6' 1303               	bcf	3,6	;RP1=0, select bank0
  6658  01E7' 0835'              	movf	?___flneg+3,w
  6659  01E8' 1683               	bsf	3,5	;RP0=1, select bank1
  6660  01E9' 1303               	bcf	3,6	;RP1=0, select bank1
  6661  01EA' 0080'              	movwf	(?_pow+3)^(0+128)
  6662  01EB' 1283               	bcf	3,5	;RP0=0, select bank0
  6663  01EC' 1303               	bcf	3,6	;RP1=0, select bank0
  6664  01ED' 0834'              	movf	?___flneg+2,w
  6665  01EE' 1683               	bsf	3,5	;RP0=1, select bank1
  6666  01EF' 1303               	bcf	3,6	;RP1=0, select bank1
  6667  01F0' 0080'              	movwf	(?_pow+2)^(0+128)
  6668  01F1' 1283               	bcf	3,5	;RP0=0, select bank0
  6669  01F2' 1303               	bcf	3,6	;RP1=0, select bank0
  6670  01F3' 0833'              	movf	?___flneg+1,w
  6671  01F4' 1683               	bsf	3,5	;RP0=1, select bank1
  6672  01F5' 1303               	bcf	3,6	;RP1=0, select bank1
  6673  01F6' 0080'              	movwf	(?_pow+1)^(0+128)
  6674  01F7' 1283               	bcf	3,5	;RP0=0, select bank0
  6675  01F8' 1303               	bcf	3,6	;RP1=0, select bank0
  6676  01F9' 0832'              	movf	?___flneg,w
  6677  01FA' 1683               	bsf	3,5	;RP0=1, select bank1
  6678  01FB' 1303               	bcf	3,6	;RP1=0, select bank1
  6679  01FC' 0080'              	movwf	?_pow^(0+128)
  6680  01FD' 0008               	return
  6681  01FE'                    __end_of_pow:	
  6682                           
  6683                           	psect	text13
  6684  0000'                    __ptext13:	
  6685 ;; *************** function _exp *****************
  6686 ;; Defined at:
  6687 ;;		line 12 in file "/opt/microchip/xc8/v1.34/sources/common/exp.c"
  6688 ;; Parameters:    Size  Location     Type
  6689 ;;  x               4   50[BANK1 ] unsigned char 
  6690 ;; Auto vars:     Size  Location     Type
  6691 ;;  exponent        2   63[BANK1 ] int 
  6692 ;;  sign            1   65[BANK1 ] unsigned char 
  6693 ;; Return value:  Size  Location     Type
  6694 ;;                  4   50[BANK1 ] unsigned char 
  6695 ;; Registers used:
  6696 ;;		wreg, fsr0l, fsr0h, status,2, status,0, btemp+1, pclath, cstack
  6697 ;; Tracked objects:
  6698 ;;		On entry : 0/0
  6699 ;;		On exit  : 0/0
  6700 ;;		Unchanged: 0/0
  6701 ;; Data sizes:     COMMON   BANK0   BANK1   BANK3   BANK2
  6702 ;;      Params:         0       0       4       0       0
  6703 ;;      Locals:         0       0      11       0       0
  6704 ;;      Temps:          0       0       1       0       0
  6705 ;;      Totals:         0       0      16       0       0
  6706 ;;Total ram usage:       16 bytes
  6707 ;; Hardware stack levels used:    1
  6708 ;; Hardware stack levels required when called:    4
  6709 ;; This function calls:
  6710 ;;		___awtofl
  6711 ;;		___fldiv
  6712 ;;		___flge
  6713 ;;		___flmul
  6714 ;;		___flneg
  6715 ;;		___flsub
  6716 ;;		___fltol
  6717 ;;		_eval_poly
  6718 ;;		_floor
  6719 ;;		_ldexp
  6720 ;; This function is called by:
  6721 ;;		_pow
  6722 ;; This function uses a non-reentrant model
  6723 ;;
  6724                           
  6725                           
  6726                           ;psect for function _exp
  6727  0000'                    _exp:	
  6728                           
  6729                           ;incstack = 0
  6730                           ; Regs used in _exp: [wreg-fsr0h+status,2+status,0+btemp+1+pclath+cstack]
  6731  0000' 1683               	bsf	3,5	;RP0=1, select bank1
  6732  0001' 1303               	bcf	3,6	;RP1=0, select bank1
  6733  0002' 0800'              	movf	(exp@x+3)^(0+128),w
  6734  0003' 0400'              	iorwf	(exp@x+2)^(0+128),w
  6735  0004' 0400'              	iorwf	(exp@x+1)^(0+128),w
  6736  0005' 0400'              	iorwf	exp@x^(0+128),w
  6737  0006' 1D03               	skipz
  6738  0007' 2800'              	goto	l3784
  6739  0008' 303F               	movlw	63
  6740  0009' 0080'              	movwf	(?_exp+3)^(0+128)
  6741  000A' 3080               	movlw	128
  6742  000B' 0080'              	movwf	(?_exp+2)^(0+128)
  6743  000C' 3000               	movlw	0
  6744  000D' 0080'              	movwf	(?_exp+1)^(0+128)
  6745  000E' 3000               	movlw	0
  6746  000F' 0080'              	movwf	?_exp^(0+128)
  6747  0010' 0008               	return
  6748  0011'                    l3784:	
  6749  0011' 3044               	movlw	68
  6750  0012' 1283               	bcf	3,5	;RP0=0, select bank0
  6751  0013' 1303               	bcf	3,6	;RP1=0, select bank0
  6752  0014' 0083'              	movwf	___flge@ff1+3
  6753  0015' 3031               	movlw	49
  6754  0016' 0082'              	movwf	___flge@ff1+2
  6755  0017' 3072               	movlw	114
  6756  0018' 0081'              	movwf	___flge@ff1+1
  6757  0019' 3018               	movlw	24
  6758  001A' 0080'              	movwf	___flge@ff1
  6759  001B' 1683               	bsf	3,5	;RP0=1, select bank1
  6760  001C' 1303               	bcf	3,6	;RP1=0, select bank1
  6761  001D' 0800'              	movf	(exp@x+3)^(0+128),w
  6762  001E' 1283               	bcf	3,5	;RP0=0, select bank0
  6763  001F' 1303               	bcf	3,6	;RP1=0, select bank0
  6764  0020' 0087'              	movwf	___flge@ff2+3
  6765  0021' 1683               	bsf	3,5	;RP0=1, select bank1
  6766  0022' 1303               	bcf	3,6	;RP1=0, select bank1
  6767  0023' 0800'              	movf	(exp@x+2)^(0+128),w
  6768  0024' 1283               	bcf	3,5	;RP0=0, select bank0
  6769  0025' 1303               	bcf	3,6	;RP1=0, select bank0
  6770  0026' 0086'              	movwf	___flge@ff2+2
  6771  0027' 1683               	bsf	3,5	;RP0=1, select bank1
  6772  0028' 1303               	bcf	3,6	;RP1=0, select bank1
  6773  0029' 0800'              	movf	(exp@x+1)^(0+128),w
  6774  002A' 1283               	bcf	3,5	;RP0=0, select bank0
  6775  002B' 1303               	bcf	3,6	;RP1=0, select bank0
  6776  002C' 0085'              	movwf	___flge@ff2+1
  6777  002D' 1683               	bsf	3,5	;RP0=1, select bank1
  6778  002E' 1303               	bcf	3,6	;RP1=0, select bank1
  6779  002F' 0800'              	movf	exp@x^(0+128),w
  6780  0030' 1283               	bcf	3,5	;RP0=0, select bank0
  6781  0031' 1303               	bcf	3,6	;RP1=0, select bank0
  6782  0032' 0084'              	movwf	___flge@ff2
  6783  0033' 120A' 118A' 2000' 120A' 118A' 	fcall	___flge
  6784  0038' 1803               	btfsc	3,0
  6785  0039' 2800'              	goto	l3794
  6786  003A' 3022               	movlw	34
  6787  003B' 1683               	bsf	3,5	;RP0=1, select bank3
  6788  003C' 1703               	bsf	3,6	;RP1=1, select bank3
  6789  003D' 0080'              	movwf	_errno^(0+384)
  6790  003E' 3000               	movlw	0
  6791  003F' 0081'              	movwf	(_errno^(0+384)+1)
  6792  0040' 307F               	movlw	127
  6793  0041' 1303               	bcf	3,6	;RP1=0, select bank1
  6794  0042' 0080'              	movwf	(?_exp+3)^(0+128)
  6795  0043' 307F               	movlw	127
  6796  0044' 0080'              	movwf	(?_exp+2)^(0+128)
  6797  0045' 30FE               	movlw	254
  6798  0046' 0080'              	movwf	(?_exp+1)^(0+128)
  6799  0047' 30F7               	movlw	247
  6800  0048' 0080'              	movwf	?_exp^(0+128)
  6801  0049' 0008               	return
  6802  004A'                    l3794:	
  6803  004A' 1683               	bsf	3,5	;RP0=1, select bank1
  6804  004B' 1303               	bcf	3,6	;RP1=0, select bank1
  6805  004C' 0800'              	movf	(exp@x+3)^(0+128),w
  6806  004D' 1283               	bcf	3,5	;RP0=0, select bank0
  6807  004E' 1303               	bcf	3,6	;RP1=0, select bank0
  6808  004F' 0083'              	movwf	___flge@ff1+3
  6809  0050' 1683               	bsf	3,5	;RP0=1, select bank1
  6810  0051' 1303               	bcf	3,6	;RP1=0, select bank1
  6811  0052' 0800'              	movf	(exp@x+2)^(0+128),w
  6812  0053' 1283               	bcf	3,5	;RP0=0, select bank0
  6813  0054' 1303               	bcf	3,6	;RP1=0, select bank0
  6814  0055' 0082'              	movwf	___flge@ff1+2
  6815  0056' 1683               	bsf	3,5	;RP0=1, select bank1
  6816  0057' 1303               	bcf	3,6	;RP1=0, select bank1
  6817  0058' 0800'              	movf	(exp@x+1)^(0+128),w
  6818  0059' 1283               	bcf	3,5	;RP0=0, select bank0
  6819  005A' 1303               	bcf	3,6	;RP1=0, select bank0
  6820  005B' 0081'              	movwf	___flge@ff1+1
  6821  005C' 1683               	bsf	3,5	;RP0=1, select bank1
  6822  005D' 1303               	bcf	3,6	;RP1=0, select bank1
  6823  005E' 0800'              	movf	exp@x^(0+128),w
  6824  005F' 1283               	bcf	3,5	;RP0=0, select bank0
  6825  0060' 1303               	bcf	3,6	;RP1=0, select bank0
  6826  0061' 0080'              	movwf	___flge@ff1
  6827  0062' 30C4               	movlw	196
  6828  0063' 0087'              	movwf	___flge@ff2+3
  6829  0064' 303A               	movlw	58
  6830  0065' 0086'              	movwf	___flge@ff2+2
  6831  0066' 3048               	movlw	72
  6832  0067' 0085'              	movwf	___flge@ff2+1
  6833  0068' 3087               	movlw	135
  6834  0069' 0084'              	movwf	___flge@ff2
  6835  006A' 120A' 118A' 2000' 120A' 118A' 	fcall	___flge
  6836  006F' 1803               	btfsc	3,0
  6837  0070' 2800'              	goto	l3800
  6838  0071' 3022               	movlw	34
  6839  0072' 1683               	bsf	3,5	;RP0=1, select bank3
  6840  0073' 1703               	bsf	3,6	;RP1=1, select bank3
  6841  0074' 0080'              	movwf	_errno^(0+384)
  6842  0075' 3000               	movlw	0
  6843  0076' 0081'              	movwf	(_errno^(0+384)+1)
  6844  0077' 3000               	movlw	0
  6845  0078' 1683               	bsf	3,5	;RP0=1, select bank1
  6846  0079' 1303               	bcf	3,6	;RP1=0, select bank1
  6847  007A' 0080'              	movwf	(?_exp+3)^(0+128)
  6848  007B' 3000               	movlw	0
  6849  007C' 0080'              	movwf	(?_exp+2)^(0+128)
  6850  007D' 3000               	movlw	0
  6851  007E' 0080'              	movwf	(?_exp+1)^(0+128)
  6852  007F' 3000               	movlw	0
  6853  0080' 0080'              	movwf	?_exp^(0+128)
  6854  0081' 0008               	return
  6855  0082'                    l3800:	
  6856  0082' 1683               	bsf	3,5	;RP0=1, select bank1
  6857  0083' 1303               	bcf	3,6	;RP1=0, select bank1
  6858  0084' 0800'              	movf	(exp@x+3)^(0+128),w
  6859  0085' 1283               	bcf	3,5	;RP0=0, select bank0
  6860  0086' 1303               	bcf	3,6	;RP1=0, select bank0
  6861  0087' 0083'              	movwf	___flge@ff1+3
  6862  0088' 1683               	bsf	3,5	;RP0=1, select bank1
  6863  0089' 1303               	bcf	3,6	;RP1=0, select bank1
  6864  008A' 0800'              	movf	(exp@x+2)^(0+128),w
  6865  008B' 1283               	bcf	3,5	;RP0=0, select bank0
  6866  008C' 1303               	bcf	3,6	;RP1=0, select bank0
  6867  008D' 0082'              	movwf	___flge@ff1+2
  6868  008E' 1683               	bsf	3,5	;RP0=1, select bank1
  6869  008F' 1303               	bcf	3,6	;RP1=0, select bank1
  6870  0090' 0800'              	movf	(exp@x+1)^(0+128),w
  6871  0091' 1283               	bcf	3,5	;RP0=0, select bank0
  6872  0092' 1303               	bcf	3,6	;RP1=0, select bank0
  6873  0093' 0081'              	movwf	___flge@ff1+1
  6874  0094' 1683               	bsf	3,5	;RP0=1, select bank1
  6875  0095' 1303               	bcf	3,6	;RP1=0, select bank1
  6876  0096' 0800'              	movf	exp@x^(0+128),w
  6877  0097' 1283               	bcf	3,5	;RP0=0, select bank0
  6878  0098' 1303               	bcf	3,6	;RP1=0, select bank0
  6879  0099' 0080'              	movwf	___flge@ff1
  6880  009A' 3000               	movlw	0
  6881  009B' 0087'              	movwf	___flge@ff2+3
  6882  009C' 3000               	movlw	0
  6883  009D' 0086'              	movwf	___flge@ff2+2
  6884  009E' 3000               	movlw	0
  6885  009F' 0085'              	movwf	___flge@ff2+1
  6886  00A0' 3000               	movlw	0
  6887  00A1' 0084'              	movwf	___flge@ff2
  6888  00A2' 120A' 118A' 2000' 120A' 118A' 	fcall	___flge
  6889  00A7' 1803               	btfsc	3,0
  6890  00A8' 2800'              	goto	u4770
  6891  00A9' 3001               	movlw	1
  6892  00AA' 2800'              	goto	u4780
  6893  00AB'                    u4770:	
  6894  00AB' 3000               	movlw	0
  6895  00AC'                    u4780:	
  6896  00AC' 1683               	bsf	3,5	;RP0=1, select bank1
  6897  00AD' 1303               	bcf	3,6	;RP1=0, select bank1
  6898  00AE' 0080'              	movwf	??_exp^(0+128)
  6899  00AF' 0800'              	movf	??_exp^(0+128),w
  6900  00B0' 0080'              	movwf	exp@sign^(0+128)
  6901  00B1' 0800'              	movf	exp@sign^(0+128),w
  6902  00B2' 1903               	btfsc	3,2
  6903  00B3' 2800'              	goto	l3806
  6904  00B4' 0800'              	movf	(exp@x+3)^(0+128),w
  6905  00B5' 1283               	bcf	3,5	;RP0=0, select bank0
  6906  00B6' 1303               	bcf	3,6	;RP1=0, select bank0
  6907  00B7' 00B5'              	movwf	___flneg@f1+3
  6908  00B8' 1683               	bsf	3,5	;RP0=1, select bank1
  6909  00B9' 1303               	bcf	3,6	;RP1=0, select bank1
  6910  00BA' 0800'              	movf	(exp@x+2)^(0+128),w
  6911  00BB' 1283               	bcf	3,5	;RP0=0, select bank0
  6912  00BC' 1303               	bcf	3,6	;RP1=0, select bank0
  6913  00BD' 00B4'              	movwf	___flneg@f1+2
  6914  00BE' 1683               	bsf	3,5	;RP0=1, select bank1
  6915  00BF' 1303               	bcf	3,6	;RP1=0, select bank1
  6916  00C0' 0800'              	movf	(exp@x+1)^(0+128),w
  6917  00C1' 1283               	bcf	3,5	;RP0=0, select bank0
  6918  00C2' 1303               	bcf	3,6	;RP1=0, select bank0
  6919  00C3' 00B3'              	movwf	___flneg@f1+1
  6920  00C4' 1683               	bsf	3,5	;RP0=1, select bank1
  6921  00C5' 1303               	bcf	3,6	;RP1=0, select bank1
  6922  00C6' 0800'              	movf	exp@x^(0+128),w
  6923  00C7' 1283               	bcf	3,5	;RP0=0, select bank0
  6924  00C8' 1303               	bcf	3,6	;RP1=0, select bank0
  6925  00C9' 00B2'              	movwf	___flneg@f1
  6926  00CA' 120A' 118A' 2000' 120A' 118A' 	fcall	___flneg
  6927  00CF' 1283               	bcf	3,5	;RP0=0, select bank0
  6928  00D0' 1303               	bcf	3,6	;RP1=0, select bank0
  6929  00D1' 0835'              	movf	?___flneg+3,w
  6930  00D2' 1683               	bsf	3,5	;RP0=1, select bank1
  6931  00D3' 1303               	bcf	3,6	;RP1=0, select bank1
  6932  00D4' 0080'              	movwf	(exp@x+3)^(0+128)
  6933  00D5' 1283               	bcf	3,5	;RP0=0, select bank0
  6934  00D6' 1303               	bcf	3,6	;RP1=0, select bank0
  6935  00D7' 0834'              	movf	?___flneg+2,w
  6936  00D8' 1683               	bsf	3,5	;RP0=1, select bank1
  6937  00D9' 1303               	bcf	3,6	;RP1=0, select bank1
  6938  00DA' 0080'              	movwf	(exp@x+2)^(0+128)
  6939  00DB' 1283               	bcf	3,5	;RP0=0, select bank0
  6940  00DC' 1303               	bcf	3,6	;RP1=0, select bank0
  6941  00DD' 0833'              	movf	?___flneg+1,w
  6942  00DE' 1683               	bsf	3,5	;RP0=1, select bank1
  6943  00DF' 1303               	bcf	3,6	;RP1=0, select bank1
  6944  00E0' 0080'              	movwf	(exp@x+1)^(0+128)
  6945  00E1' 1283               	bcf	3,5	;RP0=0, select bank0
  6946  00E2' 1303               	bcf	3,6	;RP1=0, select bank0
  6947  00E3' 0832'              	movf	?___flneg,w
  6948  00E4' 1683               	bsf	3,5	;RP0=1, select bank1
  6949  00E5' 1303               	bcf	3,6	;RP1=0, select bank1
  6950  00E6' 0080'              	movwf	exp@x^(0+128)
  6951  00E7'                    l3806:	
  6952  00E7' 303F               	movlw	63
  6953  00E8' 1283               	bcf	3,5	;RP0=0, select bank0
  6954  00E9' 1303               	bcf	3,6	;RP1=0, select bank0
  6955  00EA' 00A1'              	movwf	___flmul@f1+3
  6956  00EB' 30B8               	movlw	184
  6957  00EC' 00A0'              	movwf	___flmul@f1+2
  6958  00ED' 30AA               	movlw	170
  6959  00EE' 009F'              	movwf	___flmul@f1+1
  6960  00EF' 303B               	movlw	59
  6961  00F0' 009E'              	movwf	___flmul@f1
  6962  00F1' 1683               	bsf	3,5	;RP0=1, select bank1
  6963  00F2' 1303               	bcf	3,6	;RP1=0, select bank1
  6964  00F3' 0800'              	movf	(exp@x+3)^(0+128),w
  6965  00F4' 1283               	bcf	3,5	;RP0=0, select bank0
  6966  00F5' 1303               	bcf	3,6	;RP1=0, select bank0
  6967  00F6' 00A5'              	movwf	___flmul@f2+3
  6968  00F7' 1683               	bsf	3,5	;RP0=1, select bank1
  6969  00F8' 1303               	bcf	3,6	;RP1=0, select bank1
  6970  00F9' 0800'              	movf	(exp@x+2)^(0+128),w
  6971  00FA' 1283               	bcf	3,5	;RP0=0, select bank0
  6972  00FB' 1303               	bcf	3,6	;RP1=0, select bank0
  6973  00FC' 00A4'              	movwf	___flmul@f2+2
  6974  00FD' 1683               	bsf	3,5	;RP0=1, select bank1
  6975  00FE' 1303               	bcf	3,6	;RP1=0, select bank1
  6976  00FF' 0800'              	movf	(exp@x+1)^(0+128),w
  6977  0100' 1283               	bcf	3,5	;RP0=0, select bank0
  6978  0101' 1303               	bcf	3,6	;RP1=0, select bank0
  6979  0102' 00A3'              	movwf	___flmul@f2+1
  6980  0103' 1683               	bsf	3,5	;RP0=1, select bank1
  6981  0104' 1303               	bcf	3,6	;RP1=0, select bank1
  6982  0105' 0800'              	movf	exp@x^(0+128),w
  6983  0106' 1283               	bcf	3,5	;RP0=0, select bank0
  6984  0107' 1303               	bcf	3,6	;RP1=0, select bank0
  6985  0108' 00A2'              	movwf	___flmul@f2
  6986  0109' 120A' 118A' 2000' 120A' 118A' 	fcall	___flmul
  6987  010E' 1283               	bcf	3,5	;RP0=0, select bank0
  6988  010F' 1303               	bcf	3,6	;RP1=0, select bank0
  6989  0110' 0821'              	movf	?___flmul+3,w
  6990  0111' 1683               	bsf	3,5	;RP0=1, select bank1
  6991  0112' 1303               	bcf	3,6	;RP1=0, select bank1
  6992  0113' 0080'              	movwf	(exp@x+3)^(0+128)
  6993  0114' 1283               	bcf	3,5	;RP0=0, select bank0
  6994  0115' 1303               	bcf	3,6	;RP1=0, select bank0
  6995  0116' 0820'              	movf	?___flmul+2,w
  6996  0117' 1683               	bsf	3,5	;RP0=1, select bank1
  6997  0118' 1303               	bcf	3,6	;RP1=0, select bank1
  6998  0119' 0080'              	movwf	(exp@x+2)^(0+128)
  6999  011A' 1283               	bcf	3,5	;RP0=0, select bank0
  7000  011B' 1303               	bcf	3,6	;RP1=0, select bank0
  7001  011C' 081F'              	movf	?___flmul+1,w
  7002  011D' 1683               	bsf	3,5	;RP0=1, select bank1
  7003  011E' 1303               	bcf	3,6	;RP1=0, select bank1
  7004  011F' 0080'              	movwf	(exp@x+1)^(0+128)
  7005  0120' 1283               	bcf	3,5	;RP0=0, select bank0
  7006  0121' 1303               	bcf	3,6	;RP1=0, select bank0
  7007  0122' 081E'              	movf	?___flmul,w
  7008  0123' 1683               	bsf	3,5	;RP0=1, select bank1
  7009  0124' 1303               	bcf	3,6	;RP1=0, select bank1
  7010  0125' 0080'              	movwf	exp@x^(0+128)
  7011  0126' 0800'              	movf	(exp@x+3)^(0+128),w
  7012  0127' 0080'              	movwf	(floor@x+3)^(0+128)
  7013  0128' 0800'              	movf	(exp@x+2)^(0+128),w
  7014  0129' 0080'              	movwf	(floor@x+2)^(0+128)
  7015  012A' 0800'              	movf	(exp@x+1)^(0+128),w
  7016  012B' 0080'              	movwf	(floor@x+1)^(0+128)
  7017  012C' 0800'              	movf	exp@x^(0+128),w
  7018  012D' 0080'              	movwf	floor@x^(0+128)
  7019  012E' 120A' 118A' 2000' 120A' 118A' 	fcall	_floor
  7020  0133' 1683               	bsf	3,5	;RP0=1, select bank1
  7021  0134' 1303               	bcf	3,6	;RP1=0, select bank1
  7022  0135' 0800'              	movf	(?_floor+3)^(0+128),w
  7023  0136' 0080'              	movwf	(_exp$823+3)^(0+128)
  7024  0137' 0800'              	movf	(?_floor+2)^(0+128),w
  7025  0138' 0080'              	movwf	(_exp$823+2)^(0+128)
  7026  0139' 0800'              	movf	(?_floor+1)^(0+128),w
  7027  013A' 0080'              	movwf	(_exp$823+1)^(0+128)
  7028  013B' 0800'              	movf	?_floor^(0+128),w
  7029  013C' 0080'              	movwf	_exp$823^(0+128)
  7030  013D' 0800'              	movf	(_exp$823+3)^(0+128),w
  7031  013E' 0080'              	movwf	(___fltol@f1+3)^(0+128)
  7032  013F' 0800'              	movf	(_exp$823+2)^(0+128),w
  7033  0140' 0080'              	movwf	(___fltol@f1+2)^(0+128)
  7034  0141' 0800'              	movf	(_exp$823+1)^(0+128),w
  7035  0142' 0080'              	movwf	(___fltol@f1+1)^(0+128)
  7036  0143' 0800'              	movf	_exp$823^(0+128),w
  7037  0144' 0080'              	movwf	___fltol@f1^(0+128)
  7038  0145' 120A' 118A' 2000' 120A' 118A' 	fcall	___fltol
  7039  014A' 1683               	bsf	3,5	;RP0=1, select bank1
  7040  014B' 1303               	bcf	3,6	;RP1=0, select bank1
  7041  014C' 0801'              	movf	(?___fltol^(0+128)+1),w
  7042  014D' 0080'              	movwf	(exp@exponent+1)^(0+128)
  7043  014E' 0800'              	movf	?___fltol^(0+128),w
  7044  014F' 0080'              	movwf	exp@exponent^(0+128)
  7045  0150' 0800'              	movf	(exp@exponent+1)^(0+128),w
  7046  0151' 1283               	bcf	3,5	;RP0=0, select bank0
  7047  0152' 1303               	bcf	3,6	;RP1=0, select bank0
  7048  0153' 008B'              	movwf	___awtofl@c+1
  7049  0154' 1683               	bsf	3,5	;RP0=1, select bank1
  7050  0155' 1303               	bcf	3,6	;RP1=0, select bank1
  7051  0156' 0800'              	movf	exp@exponent^(0+128),w
  7052  0157' 1283               	bcf	3,5	;RP0=0, select bank0
  7053  0158' 1303               	bcf	3,6	;RP1=0, select bank0
  7054  0159' 008A'              	movwf	___awtofl@c
  7055  015A' 120A' 118A' 2000' 120A' 118A' 	fcall	___awtofl
  7056  015F' 1283               	bcf	3,5	;RP0=0, select bank0
  7057  0160' 1303               	bcf	3,6	;RP1=0, select bank0
  7058  0161' 080D'              	movf	?___awtofl+3,w
  7059  0162' 00C9'              	movwf	___flsub@f2+3
  7060  0163' 080C'              	movf	?___awtofl+2,w
  7061  0164' 00C8'              	movwf	___flsub@f2+2
  7062  0165' 080B'              	movf	?___awtofl+1,w
  7063  0166' 00C7'              	movwf	___flsub@f2+1
  7064  0167' 080A'              	movf	?___awtofl,w
  7065  0168' 00C6'              	movwf	___flsub@f2
  7066  0169' 1683               	bsf	3,5	;RP0=1, select bank1
  7067  016A' 1303               	bcf	3,6	;RP1=0, select bank1
  7068  016B' 0800'              	movf	(exp@x+3)^(0+128),w
  7069  016C' 1283               	bcf	3,5	;RP0=0, select bank0
  7070  016D' 1303               	bcf	3,6	;RP1=0, select bank0
  7071  016E' 00CD'              	movwf	___flsub@f1+3
  7072  016F' 1683               	bsf	3,5	;RP0=1, select bank1
  7073  0170' 1303               	bcf	3,6	;RP1=0, select bank1
  7074  0171' 0800'              	movf	(exp@x+2)^(0+128),w
  7075  0172' 1283               	bcf	3,5	;RP0=0, select bank0
  7076  0173' 1303               	bcf	3,6	;RP1=0, select bank0
  7077  0174' 00CC'              	movwf	___flsub@f1+2
  7078  0175' 1683               	bsf	3,5	;RP0=1, select bank1
  7079  0176' 1303               	bcf	3,6	;RP1=0, select bank1
  7080  0177' 0800'              	movf	(exp@x+1)^(0+128),w
  7081  0178' 1283               	bcf	3,5	;RP0=0, select bank0
  7082  0179' 1303               	bcf	3,6	;RP1=0, select bank0
  7083  017A' 00CB'              	movwf	___flsub@f1+1
  7084  017B' 1683               	bsf	3,5	;RP0=1, select bank1
  7085  017C' 1303               	bcf	3,6	;RP1=0, select bank1
  7086  017D' 0800'              	movf	exp@x^(0+128),w
  7087  017E' 1283               	bcf	3,5	;RP0=0, select bank0
  7088  017F' 1303               	bcf	3,6	;RP1=0, select bank0
  7089  0180' 00CA'              	movwf	___flsub@f1
  7090  0181' 120A' 118A' 2000' 120A' 118A' 	fcall	___flsub
  7091  0186' 1283               	bcf	3,5	;RP0=0, select bank0
  7092  0187' 1303               	bcf	3,6	;RP1=0, select bank0
  7093  0188' 0849'              	movf	?___flsub+3,w
  7094  0189' 1683               	bsf	3,5	;RP0=1, select bank1
  7095  018A' 1303               	bcf	3,6	;RP1=0, select bank1
  7096  018B' 0080'              	movwf	(exp@x+3)^(0+128)
  7097  018C' 1283               	bcf	3,5	;RP0=0, select bank0
  7098  018D' 1303               	bcf	3,6	;RP1=0, select bank0
  7099  018E' 0848'              	movf	?___flsub+2,w
  7100  018F' 1683               	bsf	3,5	;RP0=1, select bank1
  7101  0190' 1303               	bcf	3,6	;RP1=0, select bank1
  7102  0191' 0080'              	movwf	(exp@x+2)^(0+128)
  7103  0192' 1283               	bcf	3,5	;RP0=0, select bank0
  7104  0193' 1303               	bcf	3,6	;RP1=0, select bank0
  7105  0194' 0847'              	movf	?___flsub+1,w
  7106  0195' 1683               	bsf	3,5	;RP0=1, select bank1
  7107  0196' 1303               	bcf	3,6	;RP1=0, select bank1
  7108  0197' 0080'              	movwf	(exp@x+1)^(0+128)
  7109  0198' 1283               	bcf	3,5	;RP0=0, select bank0
  7110  0199' 1303               	bcf	3,6	;RP1=0, select bank0
  7111  019A' 0846'              	movf	?___flsub,w
  7112  019B' 1683               	bsf	3,5	;RP0=1, select bank1
  7113  019C' 1303               	bcf	3,6	;RP1=0, select bank1
  7114  019D' 0080'              	movwf	exp@x^(0+128)
  7115  019E' 0800'              	movf	(exp@x+3)^(0+128),w
  7116  019F' 1283               	bcf	3,5	;RP0=0, select bank0
  7117  01A0' 1303               	bcf	3,6	;RP1=0, select bank0
  7118  01A1' 00C9'              	movwf	eval_poly@x+3
  7119  01A2' 1683               	bsf	3,5	;RP0=1, select bank1
  7120  01A3' 1303               	bcf	3,6	;RP1=0, select bank1
  7121  01A4' 0800'              	movf	(exp@x+2)^(0+128),w
  7122  01A5' 1283               	bcf	3,5	;RP0=0, select bank0
  7123  01A6' 1303               	bcf	3,6	;RP1=0, select bank0
  7124  01A7' 00C8'              	movwf	eval_poly@x+2
  7125  01A8' 1683               	bsf	3,5	;RP0=1, select bank1
  7126  01A9' 1303               	bcf	3,6	;RP1=0, select bank1
  7127  01AA' 0800'              	movf	(exp@x+1)^(0+128),w
  7128  01AB' 1283               	bcf	3,5	;RP0=0, select bank0
  7129  01AC' 1303               	bcf	3,6	;RP1=0, select bank0
  7130  01AD' 00C7'              	movwf	eval_poly@x+1
  7131  01AE' 1683               	bsf	3,5	;RP0=1, select bank1
  7132  01AF' 1303               	bcf	3,6	;RP1=0, select bank1
  7133  01B0' 0800'              	movf	exp@x^(0+128),w
  7134  01B1' 1283               	bcf	3,5	;RP0=0, select bank0
  7135  01B2' 1303               	bcf	3,6	;RP1=0, select bank0
  7136  01B3' 00C6'              	movwf	eval_poly@x
  7137  01B4' 3001               	movlw	(low ((exp@coeff-__stringbase)| (0+32768)))& (0+255)
  7138  01B5' 1683               	bsf	3,5	;RP0=1, select bank1
  7139  01B6' 1303               	bcf	3,6	;RP1=0, select bank1
  7140  01B7' 0080'              	movwf	??_exp^(0+128)
  7141  01B8' 0800'              	movf	??_exp^(0+128),w
  7142  01B9' 1283               	bcf	3,5	;RP0=0, select bank0
  7143  01BA' 1303               	bcf	3,6	;RP1=0, select bank0
  7144  01BB' 00CA'              	movwf	eval_poly@d
  7145  01BC' 3009               	movlw	9
  7146  01BD' 00CB'              	movwf	eval_poly@n
  7147  01BE' 3000               	movlw	0
  7148  01BF' 00CC'              	movwf	eval_poly@n+1
  7149  01C0' 120A' 118A' 2000' 120A' 118A' 	fcall	_eval_poly
  7150  01C5' 1283               	bcf	3,5	;RP0=0, select bank0
  7151  01C6' 1303               	bcf	3,6	;RP1=0, select bank0
  7152  01C7' 0849'              	movf	?_eval_poly+3,w
  7153  01C8' 1683               	bsf	3,5	;RP0=1, select bank1
  7154  01C9' 1303               	bcf	3,6	;RP1=0, select bank1
  7155  01CA' 0080'              	movwf	(ldexp@value+3)^(0+128)
  7156  01CB' 1283               	bcf	3,5	;RP0=0, select bank0
  7157  01CC' 1303               	bcf	3,6	;RP1=0, select bank0
  7158  01CD' 0848'              	movf	?_eval_poly+2,w
  7159  01CE' 1683               	bsf	3,5	;RP0=1, select bank1
  7160  01CF' 1303               	bcf	3,6	;RP1=0, select bank1
  7161  01D0' 0080'              	movwf	(ldexp@value+2)^(0+128)
  7162  01D1' 1283               	bcf	3,5	;RP0=0, select bank0
  7163  01D2' 1303               	bcf	3,6	;RP1=0, select bank0
  7164  01D3' 0847'              	movf	?_eval_poly+1,w
  7165  01D4' 1683               	bsf	3,5	;RP0=1, select bank1
  7166  01D5' 1303               	bcf	3,6	;RP1=0, select bank1
  7167  01D6' 0080'              	movwf	(ldexp@value+1)^(0+128)
  7168  01D7' 1283               	bcf	3,5	;RP0=0, select bank0
  7169  01D8' 1303               	bcf	3,6	;RP1=0, select bank0
  7170  01D9' 0846'              	movf	?_eval_poly,w
  7171  01DA' 1683               	bsf	3,5	;RP0=1, select bank1
  7172  01DB' 1303               	bcf	3,6	;RP1=0, select bank1
  7173  01DC' 0080'              	movwf	ldexp@value^(0+128)
  7174  01DD' 0800'              	movf	(exp@exponent+1)^(0+128),w
  7175  01DE' 0080'              	movwf	(ldexp@newexp+1)^(0+128)
  7176  01DF' 0800'              	movf	exp@exponent^(0+128),w
  7177  01E0' 0080'              	movwf	ldexp@newexp^(0+128)
  7178  01E1' 120A' 118A' 2000' 120A' 118A' 	fcall	_ldexp
  7179  01E6' 1683               	bsf	3,5	;RP0=1, select bank1
  7180  01E7' 1303               	bcf	3,6	;RP1=0, select bank1
  7181  01E8' 0800'              	movf	(?_ldexp+3)^(0+128),w
  7182  01E9' 0080'              	movwf	(exp@x+3)^(0+128)
  7183  01EA' 0800'              	movf	(?_ldexp+2)^(0+128),w
  7184  01EB' 0080'              	movwf	(exp@x+2)^(0+128)
  7185  01EC' 0800'              	movf	(?_ldexp+1)^(0+128),w
  7186  01ED' 0080'              	movwf	(exp@x+1)^(0+128)
  7187  01EE' 0800'              	movf	?_ldexp^(0+128),w
  7188  01EF' 0080'              	movwf	exp@x^(0+128)
  7189  01F0' 0800'              	movf	exp@sign^(0+128),w
  7190  01F1' 1903               	btfsc	3,2
  7191  01F2' 0008               	return
  7192  01F3' 307F               	movlw	127
  7193  01F4' 0080'              	movwf	(_exp$592+3)^(0+128)
  7194  01F5' 307F               	movlw	127
  7195  01F6' 0080'              	movwf	(_exp$592+2)^(0+128)
  7196  01F7' 30FE               	movlw	254
  7197  01F8' 0080'              	movwf	(_exp$592+1)^(0+128)
  7198  01F9' 30F7               	movlw	247
  7199  01FA' 0080'              	movwf	_exp$592^(0+128)
  7200  01FB' 0800'              	movf	(exp@x+3)^(0+128),w
  7201  01FC' 0600'              	xorwf	(_exp$592+3)^(0+128),w
  7202  01FD' 1D03               	skipz
  7203  01FE' 2800'              	goto	u4815
  7204  01FF' 0800'              	movf	(exp@x+2)^(0+128),w
  7205  0200' 0600'              	xorwf	(_exp$592+2)^(0+128),w
  7206  0201' 1D03               	skipz
  7207  0202' 2800'              	goto	u4815
  7208  0203' 0800'              	movf	(exp@x+1)^(0+128),w
  7209  0204' 0600'              	xorwf	(_exp$592+1)^(0+128),w
  7210  0205' 1D03               	skipz
  7211  0206' 2800'              	goto	u4815
  7212  0207' 0800'              	movf	exp@x^(0+128),w
  7213  0208' 0600'              	xorwf	_exp$592^(0+128),w
  7214  0209'                    u4815:	
  7215  0209' 1D03               	skipz
  7216  020A' 2800'              	goto	l3828
  7217  020B' 3000               	movlw	0
  7218  020C' 0080'              	movwf	(?_exp+3)^(0+128)
  7219  020D' 3000               	movlw	0
  7220  020E' 0080'              	movwf	(?_exp+2)^(0+128)
  7221  020F' 3000               	movlw	0
  7222  0210' 0080'              	movwf	(?_exp+1)^(0+128)
  7223  0211' 3000               	movlw	0
  7224  0212' 0080'              	movwf	?_exp^(0+128)
  7225  0213' 0008               	return
  7226  0214'                    l3828:	
  7227  0214' 0800'              	movf	(exp@x+3)^(0+128),w
  7228  0215' 1283               	bcf	3,5	;RP0=0, select bank0
  7229  0216' 1303               	bcf	3,6	;RP1=0, select bank0
  7230  0217' 008D'              	movwf	___fldiv@f2+3
  7231  0218' 1683               	bsf	3,5	;RP0=1, select bank1
  7232  0219' 1303               	bcf	3,6	;RP1=0, select bank1
  7233  021A' 0800'              	movf	(exp@x+2)^(0+128),w
  7234  021B' 1283               	bcf	3,5	;RP0=0, select bank0
  7235  021C' 1303               	bcf	3,6	;RP1=0, select bank0
  7236  021D' 008C'              	movwf	___fldiv@f2+2
  7237  021E' 1683               	bsf	3,5	;RP0=1, select bank1
  7238  021F' 1303               	bcf	3,6	;RP1=0, select bank1
  7239  0220' 0800'              	movf	(exp@x+1)^(0+128),w
  7240  0221' 1283               	bcf	3,5	;RP0=0, select bank0
  7241  0222' 1303               	bcf	3,6	;RP1=0, select bank0
  7242  0223' 008B'              	movwf	___fldiv@f2+1
  7243  0224' 1683               	bsf	3,5	;RP0=1, select bank1
  7244  0225' 1303               	bcf	3,6	;RP1=0, select bank1
  7245  0226' 0800'              	movf	exp@x^(0+128),w
  7246  0227' 1283               	bcf	3,5	;RP0=0, select bank0
  7247  0228' 1303               	bcf	3,6	;RP1=0, select bank0
  7248  0229' 008A'              	movwf	___fldiv@f2
  7249  022A' 303F               	movlw	63
  7250  022B' 0091'              	movwf	___fldiv@f1+3
  7251  022C' 3080               	movlw	128
  7252  022D' 0090'              	movwf	___fldiv@f1+2
  7253  022E' 3000               	movlw	0
  7254  022F' 008F'              	movwf	___fldiv@f1+1
  7255  0230' 3000               	movlw	0
  7256  0231' 008E'              	movwf	___fldiv@f1
  7257  0232' 120A' 118A' 2000'  	fcall	___fldiv
  7258  0235' 1283               	bcf	3,5	;RP0=0, select bank0
  7259  0236' 1303               	bcf	3,6	;RP1=0, select bank0
  7260  0237' 080D'              	movf	?___fldiv+3,w
  7261  0238' 1683               	bsf	3,5	;RP0=1, select bank1
  7262  0239' 1303               	bcf	3,6	;RP1=0, select bank1
  7263  023A' 0080'              	movwf	(?_exp+3)^(0+128)
  7264  023B' 1283               	bcf	3,5	;RP0=0, select bank0
  7265  023C' 1303               	bcf	3,6	;RP1=0, select bank0
  7266  023D' 080C'              	movf	?___fldiv+2,w
  7267  023E' 1683               	bsf	3,5	;RP0=1, select bank1
  7268  023F' 1303               	bcf	3,6	;RP1=0, select bank1
  7269  0240' 0080'              	movwf	(?_exp+2)^(0+128)
  7270  0241' 1283               	bcf	3,5	;RP0=0, select bank0
  7271  0242' 1303               	bcf	3,6	;RP1=0, select bank0
  7272  0243' 080B'              	movf	?___fldiv+1,w
  7273  0244' 1683               	bsf	3,5	;RP0=1, select bank1
  7274  0245' 1303               	bcf	3,6	;RP1=0, select bank1
  7275  0246' 0080'              	movwf	(?_exp+1)^(0+128)
  7276  0247' 1283               	bcf	3,5	;RP0=0, select bank0
  7277  0248' 1303               	bcf	3,6	;RP1=0, select bank0
  7278  0249' 080A'              	movf	?___fldiv,w
  7279  024A' 1683               	bsf	3,5	;RP0=1, select bank1
  7280  024B' 1303               	bcf	3,6	;RP1=0, select bank1
  7281  024C' 0080'              	movwf	?_exp^(0+128)
  7282  024D' 0008               	return
  7283  024E'                    __end_of_exp:	
  7284                           
  7285                           	psect	text14
  7286  0000'                    __ptext14:	
  7287 ;; *************** function _ldexp *****************
  7288 ;; Defined at:
  7289 ;;		line 277 in file "/opt/microchip/xc8/v1.34/sources/common/frexp.c"
  7290 ;; Parameters:    Size  Location     Type
  7291 ;;  value           4    9[BANK1 ] unsigned char 
  7292 ;;  newexp          2   13[BANK1 ] int 
  7293 ;; Auto vars:     Size  Location     Type
  7294 ;;		None
  7295 ;; Return value:  Size  Location     Type
  7296 ;;                  4    9[BANK1 ] int 
  7297 ;; Registers used:
  7298 ;;		wreg, status,2, status,0, btemp+1, pclath, cstack
  7299 ;; Tracked objects:
  7300 ;;		On entry : 0/0
  7301 ;;		On exit  : 0/0
  7302 ;;		Unchanged: 0/0
  7303 ;; Data sizes:     COMMON   BANK0   BANK1   BANK3   BANK2
  7304 ;;      Params:         0       0       6       0       0
  7305 ;;      Locals:         0       0       4       0       0
  7306 ;;      Temps:          0       2       0       0       0
  7307 ;;      Totals:         0       2      10       0       0
  7308 ;;Total ram usage:       12 bytes
  7309 ;; Hardware stack levels used:    1
  7310 ;; Hardware stack levels required when called:    2
  7311 ;; This function calls:
  7312 ;;		___flge
  7313 ;;		___flneg
  7314 ;; This function is called by:
  7315 ;;		_exp
  7316 ;; This function uses a non-reentrant model
  7317 ;;
  7318                           
  7319                           
  7320                           ;psect for function _ldexp
  7321  0000'                    _ldexp:	
  7322                           
  7323                           ;incstack = 0
  7324                           ; Regs used in _ldexp: [wreg+status,2+status,0+btemp+1+pclath+cstack]
  7325  0000' 1683               	bsf	3,5	;RP0=1, select bank1
  7326  0001' 1303               	bcf	3,6	;RP1=0, select bank1
  7327  0002' 0800'              	movf	(ldexp@value+3)^(0+128),w
  7328  0003' 0400'              	iorwf	(ldexp@value+2)^(0+128),w
  7329  0004' 0400'              	iorwf	(ldexp@value+1)^(0+128),w
  7330  0005' 0400'              	iorwf	ldexp@value^(0+128),w
  7331  0006' 1D03               	skipz
  7332  0007' 2800'              	goto	l3650
  7333  0008' 3000               	movlw	0
  7334  0009' 0080'              	movwf	(?_ldexp+3)^(0+128)
  7335  000A' 3000               	movlw	0
  7336  000B' 0080'              	movwf	(?_ldexp+2)^(0+128)
  7337  000C' 3000               	movlw	0
  7338  000D' 0080'              	movwf	(?_ldexp+1)^(0+128)
  7339  000E' 3000               	movlw	0
  7340  000F' 0080'              	movwf	?_ldexp^(0+128)
  7341  0010' 0008               	return
  7342  0011'                    l3650:	
  7343  0011' 0803'              	movf	(ldexp@value^(0+128)+3),w
  7344  0012' 397F               	andlw	127
  7345  0013' 1283               	bcf	3,5	;RP0=0, select bank0
  7346  0014' 1303               	bcf	3,6	;RP1=0, select bank0
  7347  0015' 00CD'              	movwf	??_ldexp
  7348  0016' 01CE'              	clrf	??_ldexp+1
  7349  0017' 1003               	clrc
  7350  0018' 0DCD'              	rlf	??_ldexp,f
  7351  0019' 0DCE'              	rlf	??_ldexp+1,f
  7352  001A' 084D'              	movf	??_ldexp,w
  7353  001B' 1683               	bsf	3,5	;RP0=1, select bank1
  7354  001C' 1303               	bcf	3,6	;RP1=0, select bank1
  7355  001D' 0780'              	addwf	ldexp@newexp^(0+128),f
  7356  001E' 1803               	skipnc
  7357  001F' 0A80'              	incf	(ldexp@newexp+1)^(0+128),f
  7358  0020' 1283               	bcf	3,5	;RP0=0, select bank0
  7359  0021' 1303               	bcf	3,6	;RP1=0, select bank0
  7360  0022' 084E'              	movf	??_ldexp+1,w
  7361  0023' 1683               	bsf	3,5	;RP0=1, select bank1
  7362  0024' 1303               	bcf	3,6	;RP1=0, select bank1
  7363  0025' 0780'              	addwf	(ldexp@newexp+1)^(0+128),f
  7364  0026' 0D02'              	rlf	(ldexp@value^(0+128)+2),w
  7365  0027' 0D02'              	rlf	(ldexp@value^(0+128)+2),w
  7366  0028' 3901               	andlw	1
  7367  0029' 1283               	bcf	3,5	;RP0=0, select bank0
  7368  002A' 1303               	bcf	3,6	;RP1=0, select bank0
  7369  002B' 00CD'              	movwf	??_ldexp
  7370  002C' 01CE'              	clrf	??_ldexp+1
  7371  002D' 084D'              	movf	??_ldexp,w
  7372  002E' 1683               	bsf	3,5	;RP0=1, select bank1
  7373  002F' 1303               	bcf	3,6	;RP1=0, select bank1
  7374  0030' 0780'              	addwf	ldexp@newexp^(0+128),f
  7375  0031' 1803               	skipnc
  7376  0032' 0A80'              	incf	(ldexp@newexp+1)^(0+128),f
  7377  0033' 1283               	bcf	3,5	;RP0=0, select bank0
  7378  0034' 1303               	bcf	3,6	;RP1=0, select bank0
  7379  0035' 084E'              	movf	??_ldexp+1,w
  7380  0036' 1683               	bsf	3,5	;RP0=1, select bank1
  7381  0037' 1303               	bcf	3,6	;RP1=0, select bank1
  7382  0038' 0780'              	addwf	(ldexp@newexp+1)^(0+128),f
  7383  0039' 1F80'              	btfss	(ldexp@newexp+1)^(0+128),7
  7384  003A' 2800'              	goto	l3660
  7385  003B' 3022               	movlw	34
  7386  003C' 1683               	bsf	3,5	;RP0=1, select bank3
  7387  003D' 1703               	bsf	3,6	;RP1=1, select bank3
  7388  003E' 0080'              	movwf	_errno^(0+384)
  7389  003F' 3000               	movlw	0
  7390  0040' 0081'              	movwf	(_errno^(0+384)+1)
  7391  0041' 3000               	movlw	0
  7392  0042' 1683               	bsf	3,5	;RP0=1, select bank1
  7393  0043' 1303               	bcf	3,6	;RP1=0, select bank1
  7394  0044' 0080'              	movwf	(?_ldexp+3)^(0+128)
  7395  0045' 3000               	movlw	0
  7396  0046' 0080'              	movwf	(?_ldexp+2)^(0+128)
  7397  0047' 3000               	movlw	0
  7398  0048' 0080'              	movwf	(?_ldexp+1)^(0+128)
  7399  0049' 3000               	movlw	0
  7400  004A' 0080'              	movwf	?_ldexp^(0+128)
  7401  004B' 0008               	return
  7402  004C'                    l3660:	
  7403  004C' 0800'              	movf	(ldexp@newexp+1)^(0+128),w
  7404  004D' 3A80               	xorlw	128
  7405  004E' 00FF               	movwf	127
  7406  004F' 3081               	movlw	129
  7407  0050' 027F               	subwf	127,w
  7408  0051' 1D03               	skipz
  7409  0052' 2800'              	goto	u4545
  7410  0053' 3000               	movlw	0
  7411  0054' 0200'              	subwf	ldexp@newexp^(0+128),w
  7412  0055'                    u4545:	
  7413  0055' 1C03               	skipc
  7414  0056' 2800'              	goto	l3684
  7415  0057' 3022               	movlw	34
  7416  0058' 1683               	bsf	3,5	;RP0=1, select bank3
  7417  0059' 1703               	bsf	3,6	;RP1=1, select bank3
  7418  005A' 0080'              	movwf	_errno^(0+384)
  7419  005B' 3000               	movlw	0
  7420  005C' 0081'              	movwf	(_errno^(0+384)+1)
  7421  005D' 1683               	bsf	3,5	;RP0=1, select bank1
  7422  005E' 1303               	bcf	3,6	;RP1=0, select bank1
  7423  005F' 0800'              	movf	(ldexp@value+3)^(0+128),w
  7424  0060' 1283               	bcf	3,5	;RP0=0, select bank0
  7425  0061' 1303               	bcf	3,6	;RP1=0, select bank0
  7426  0062' 0083'              	movwf	___flge@ff1+3
  7427  0063' 1683               	bsf	3,5	;RP0=1, select bank1
  7428  0064' 1303               	bcf	3,6	;RP1=0, select bank1
  7429  0065' 0800'              	movf	(ldexp@value+2)^(0+128),w
  7430  0066' 1283               	bcf	3,5	;RP0=0, select bank0
  7431  0067' 1303               	bcf	3,6	;RP1=0, select bank0
  7432  0068' 0082'              	movwf	___flge@ff1+2
  7433  0069' 1683               	bsf	3,5	;RP0=1, select bank1
  7434  006A' 1303               	bcf	3,6	;RP1=0, select bank1
  7435  006B' 0800'              	movf	(ldexp@value+1)^(0+128),w
  7436  006C' 1283               	bcf	3,5	;RP0=0, select bank0
  7437  006D' 1303               	bcf	3,6	;RP1=0, select bank0
  7438  006E' 0081'              	movwf	___flge@ff1+1
  7439  006F' 1683               	bsf	3,5	;RP0=1, select bank1
  7440  0070' 1303               	bcf	3,6	;RP1=0, select bank1
  7441  0071' 0800'              	movf	ldexp@value^(0+128),w
  7442  0072' 1283               	bcf	3,5	;RP0=0, select bank0
  7443  0073' 1303               	bcf	3,6	;RP1=0, select bank0
  7444  0074' 0080'              	movwf	___flge@ff1
  7445  0075' 3000               	movlw	0
  7446  0076' 0087'              	movwf	___flge@ff2+3
  7447  0077' 3000               	movlw	0
  7448  0078' 0086'              	movwf	___flge@ff2+2
  7449  0079' 3000               	movlw	0
  7450  007A' 0085'              	movwf	___flge@ff2+1
  7451  007B' 3000               	movlw	0
  7452  007C' 0084'              	movwf	___flge@ff2
  7453  007D' 120A' 118A' 2000' 120A' 118A' 	fcall	___flge
  7454  0082' 1803               	btfsc	3,0
  7455  0083' 2800'              	goto	l3680
  7456  0084' 307F               	movlw	127
  7457  0085' 1683               	bsf	3,5	;RP0=1, select bank1
  7458  0086' 1303               	bcf	3,6	;RP1=0, select bank1
  7459  0087' 0080'              	movwf	(_ldexp$498+3)^(0+128)
  7460  0088' 307F               	movlw	127
  7461  0089' 0080'              	movwf	(_ldexp$498+2)^(0+128)
  7462  008A' 30FE               	movlw	254
  7463  008B' 0080'              	movwf	(_ldexp$498+1)^(0+128)
  7464  008C' 30F7               	movlw	247
  7465  008D' 0080'              	movwf	_ldexp$498^(0+128)
  7466  008E' 0800'              	movf	(_ldexp$498+3)^(0+128),w
  7467  008F' 1283               	bcf	3,5	;RP0=0, select bank0
  7468  0090' 1303               	bcf	3,6	;RP1=0, select bank0
  7469  0091' 00B5'              	movwf	___flneg@f1+3
  7470  0092' 1683               	bsf	3,5	;RP0=1, select bank1
  7471  0093' 1303               	bcf	3,6	;RP1=0, select bank1
  7472  0094' 0800'              	movf	(_ldexp$498+2)^(0+128),w
  7473  0095' 1283               	bcf	3,5	;RP0=0, select bank0
  7474  0096' 1303               	bcf	3,6	;RP1=0, select bank0
  7475  0097' 00B4'              	movwf	___flneg@f1+2
  7476  0098' 1683               	bsf	3,5	;RP0=1, select bank1
  7477  0099' 1303               	bcf	3,6	;RP1=0, select bank1
  7478  009A' 0800'              	movf	(_ldexp$498+1)^(0+128),w
  7479  009B' 1283               	bcf	3,5	;RP0=0, select bank0
  7480  009C' 1303               	bcf	3,6	;RP1=0, select bank0
  7481  009D' 00B3'              	movwf	___flneg@f1+1
  7482  009E' 1683               	bsf	3,5	;RP0=1, select bank1
  7483  009F' 1303               	bcf	3,6	;RP1=0, select bank1
  7484  00A0' 0800'              	movf	_ldexp$498^(0+128),w
  7485  00A1' 1283               	bcf	3,5	;RP0=0, select bank0
  7486  00A2' 1303               	bcf	3,6	;RP1=0, select bank0
  7487  00A3' 00B2'              	movwf	___flneg@f1
  7488  00A4' 120A' 118A' 2000'  	fcall	___flneg
  7489  00A7' 1283               	bcf	3,5	;RP0=0, select bank0
  7490  00A8' 1303               	bcf	3,6	;RP1=0, select bank0
  7491  00A9' 0835'              	movf	?___flneg+3,w
  7492  00AA' 1683               	bsf	3,5	;RP0=1, select bank1
  7493  00AB' 1303               	bcf	3,6	;RP1=0, select bank1
  7494  00AC' 0080'              	movwf	(?_ldexp+3)^(0+128)
  7495  00AD' 1283               	bcf	3,5	;RP0=0, select bank0
  7496  00AE' 1303               	bcf	3,6	;RP1=0, select bank0
  7497  00AF' 0834'              	movf	?___flneg+2,w
  7498  00B0' 1683               	bsf	3,5	;RP0=1, select bank1
  7499  00B1' 1303               	bcf	3,6	;RP1=0, select bank1
  7500  00B2' 0080'              	movwf	(?_ldexp+2)^(0+128)
  7501  00B3' 1283               	bcf	3,5	;RP0=0, select bank0
  7502  00B4' 1303               	bcf	3,6	;RP1=0, select bank0
  7503  00B5' 0833'              	movf	?___flneg+1,w
  7504  00B6' 1683               	bsf	3,5	;RP0=1, select bank1
  7505  00B7' 1303               	bcf	3,6	;RP1=0, select bank1
  7506  00B8' 0080'              	movwf	(?_ldexp+1)^(0+128)
  7507  00B9' 1283               	bcf	3,5	;RP0=0, select bank0
  7508  00BA' 1303               	bcf	3,6	;RP1=0, select bank0
  7509  00BB' 0832'              	movf	?___flneg,w
  7510  00BC' 1683               	bsf	3,5	;RP0=1, select bank1
  7511  00BD' 1303               	bcf	3,6	;RP1=0, select bank1
  7512  00BE' 0080'              	movwf	?_ldexp^(0+128)
  7513  00BF' 0008               	return
  7514  00C0'                    l3680:	
  7515  00C0' 307F               	movlw	127
  7516  00C1' 1683               	bsf	3,5	;RP0=1, select bank1
  7517  00C2' 1303               	bcf	3,6	;RP1=0, select bank1
  7518  00C3' 0080'              	movwf	(?_ldexp+3)^(0+128)
  7519  00C4' 307F               	movlw	127
  7520  00C5' 0080'              	movwf	(?_ldexp+2)^(0+128)
  7521  00C6' 30FE               	movlw	254
  7522  00C7' 0080'              	movwf	(?_ldexp+1)^(0+128)
  7523  00C8' 30F7               	movlw	247
  7524  00C9' 0080'              	movwf	?_ldexp^(0+128)
  7525  00CA' 0008               	return
  7526  00CB'                    l3684:	
  7527  00CB' 1683               	bsf	3,5	;RP0=1, select bank1
  7528  00CC' 1303               	bcf	3,6	;RP1=0, select bank1
  7529  00CD' 0800'              	movf	(ldexp@newexp+1)^(0+128),w
  7530  00CE' 1283               	bcf	3,5	;RP0=0, select bank0
  7531  00CF' 1303               	bcf	3,6	;RP1=0, select bank0
  7532  00D0' 00CE'              	movwf	??_ldexp+1
  7533  00D1' 1683               	bsf	3,5	;RP0=1, select bank1
  7534  00D2' 1303               	bcf	3,6	;RP1=0, select bank1
  7535  00D3' 0800'              	movf	ldexp@newexp^(0+128),w
  7536  00D4' 1283               	bcf	3,5	;RP0=0, select bank0
  7537  00D5' 1303               	bcf	3,6	;RP1=0, select bank0
  7538  00D6' 00CD'              	movwf	??_ldexp
  7539  00D7' 0D4E'              	rlf	??_ldexp+1,w
  7540  00D8' 0CCE'              	rrf	??_ldexp+1,f
  7541  00D9' 0CCD'              	rrf	??_ldexp,f
  7542  00DA' 1683               	bsf	3,5	;RP0=1, select bank1
  7543  00DB' 1303               	bcf	3,6	;RP1=0, select bank1
  7544  00DC' 0803'              	movf	(ldexp@value^(0+128)+3),w
  7545  00DD' 1283               	bcf	3,5	;RP0=0, select bank0
  7546  00DE' 1303               	bcf	3,6	;RP1=0, select bank0
  7547  00DF' 064D'              	xorwf	??_ldexp,w
  7548  00E0' 3980               	andlw	-128
  7549  00E1' 064D'              	xorwf	??_ldexp,w
  7550  00E2' 1683               	bsf	3,5	;RP0=1, select bank1
  7551  00E3' 1303               	bcf	3,6	;RP1=0, select bank1
  7552  00E4' 0083'              	movwf	(ldexp@value^(0+128)+3)
  7553  00E5' 0800'              	movf	ldexp@newexp^(0+128),w
  7554  00E6' 3901               	andlw	1
  7555  00E7' 1283               	bcf	3,5	;RP0=0, select bank0
  7556  00E8' 1303               	bcf	3,6	;RP1=0, select bank0
  7557  00E9' 00CD'              	movwf	??_ldexp
  7558  00EA' 0CCD'              	rrf	??_ldexp,f
  7559  00EB' 0CCD'              	rrf	??_ldexp,f
  7560  00EC' 1683               	bsf	3,5	;RP0=1, select bank1
  7561  00ED' 1303               	bcf	3,6	;RP1=0, select bank1
  7562  00EE' 0802'              	movf	(ldexp@value^(0+128)+2),w
  7563  00EF' 1283               	bcf	3,5	;RP0=0, select bank0
  7564  00F0' 1303               	bcf	3,6	;RP1=0, select bank0
  7565  00F1' 064D'              	xorwf	??_ldexp,w
  7566  00F2' 397F               	andlw	-129
  7567  00F3' 064D'              	xorwf	??_ldexp,w
  7568  00F4' 1683               	bsf	3,5	;RP0=1, select bank1
  7569  00F5' 1303               	bcf	3,6	;RP1=0, select bank1
  7570  00F6' 0082'              	movwf	(ldexp@value^(0+128)+2)
  7571  00F7' 0008               	return
  7572  00F8'                    __end_of_ldexp:	
  7573                           
  7574                           	psect	text15
  7575  0000'                    __ptext15:	
  7576 ;; *************** function ___flneg *****************
  7577 ;; Defined at:
  7578 ;;		line 15 in file "/opt/microchip/xc8/v1.34/sources/common/flneg.c"
  7579 ;; Parameters:    Size  Location     Type
  7580 ;;  f1              4   50[BANK0 ] int 
  7581 ;; Auto vars:     Size  Location     Type
  7582 ;;		None
  7583 ;; Return value:  Size  Location     Type
  7584 ;;                  4   50[BANK0 ] int 
  7585 ;; Registers used:
  7586 ;;		wreg
  7587 ;; Tracked objects:
  7588 ;;		On entry : 0/0
  7589 ;;		On exit  : 0/0
  7590 ;;		Unchanged: 0/0
  7591 ;; Data sizes:     COMMON   BANK0   BANK1   BANK3   BANK2
  7592 ;;      Params:         0       4       0       0       0
  7593 ;;      Locals:         0       0       0       0       0
  7594 ;;      Temps:          0       0       0       0       0
  7595 ;;      Totals:         0       4       0       0       0
  7596 ;;Total ram usage:        4 bytes
  7597 ;; Hardware stack levels used:    1
  7598 ;; Hardware stack levels required when called:    1
  7599 ;; This function calls:
  7600 ;;		Nothing
  7601 ;; This function is called by:
  7602 ;;		_measure_capacitance
  7603 ;;		_measure_inductance
  7604 ;;		_ldexp
  7605 ;;		_pow
  7606 ;;		_exp
  7607 ;; This function uses a non-reentrant model
  7608 ;;
  7609                           
  7610                           
  7611                           ;psect for function ___flneg
  7612  0000'                    ___flneg:	
  7613                           
  7614                           ;incstack = 0
  7615                           ; Regs used in ___flneg: [wreg]
  7616  0000' 1283               	bcf	3,5	;RP0=0, select bank0
  7617  0001' 1303               	bcf	3,6	;RP1=0, select bank0
  7618  0002' 0835'              	movf	___flneg@f1+3,w
  7619  0003' 0434'              	iorwf	___flneg@f1+2,w
  7620  0004' 0433'              	iorwf	___flneg@f1+1,w
  7621  0005' 0432'              	iorwf	___flneg@f1,w
  7622  0006' 1903               	skipnz
  7623  0007' 0008               	return
  7624  0008' 3080               	movlw	128
  7625  0009' 06B5'              	xorwf	___flneg@f1+3,f
  7626  000A' 0008               	return
  7627  000B'                    __end_of___flneg:	
  7628                           
  7629                           	psect	text16
  7630  0000'                    __ptext16:	
  7631 ;; *************** function _floor *****************
  7632 ;; Defined at:
  7633 ;;		line 13 in file "/opt/microchip/xc8/v1.34/sources/common/floor.c"
  7634 ;; Parameters:    Size  Location     Type
  7635 ;;  x               4   39[BANK1 ] int 
  7636 ;; Auto vars:     Size  Location     Type
  7637 ;;  i               4   44[BANK1 ] int 
  7638 ;;  expon           2   48[BANK1 ] int 
  7639 ;; Return value:  Size  Location     Type
  7640 ;;                  4   39[BANK1 ] int 
  7641 ;; Registers used:
  7642 ;;		wreg, fsr0l, fsr0h, status,2, status,0, btemp+1, pclath, cstack
  7643 ;; Tracked objects:
  7644 ;;		On entry : 0/0
  7645 ;;		On exit  : 0/0
  7646 ;;		Unchanged: 0/0
  7647 ;; Data sizes:     COMMON   BANK0   BANK1   BANK3   BANK2
  7648 ;;      Params:         0       0       4       0       0
  7649 ;;      Locals:         0       0       6       0       0
  7650 ;;      Temps:          0       0       1       0       0
  7651 ;;      Totals:         0       0      11       0       0
  7652 ;;Total ram usage:       11 bytes
  7653 ;; Hardware stack levels used:    1
  7654 ;; Hardware stack levels required when called:    3
  7655 ;; This function calls:
  7656 ;;		___altofl
  7657 ;;		___fladd
  7658 ;;		___flge
  7659 ;;		___fltol
  7660 ;;		_frexp
  7661 ;; This function is called by:
  7662 ;;		_format_double
  7663 ;;		_exp
  7664 ;;		_format_float
  7665 ;; This function uses a non-reentrant model
  7666 ;;
  7667                           
  7668                           
  7669                           ;psect for function _floor
  7670  0000'                    _floor:	
  7671                           
  7672                           ;incstack = 0
  7673                           ; Regs used in _floor: [wreg-fsr0h+status,2+status,0+btemp+1+pclath+cstack]
  7674  0000' 1683               	bsf	3,5	;RP0=1, select bank1
  7675  0001' 1303               	bcf	3,6	;RP1=0, select bank1
  7676  0002' 0800'              	movf	(floor@x+3)^(0+128),w
  7677  0003' 1283               	bcf	3,5	;RP0=0, select bank0
  7678  0004' 1303               	bcf	3,6	;RP1=0, select bank0
  7679  0005' 0083'              	movwf	frexp@value+3
  7680  0006' 1683               	bsf	3,5	;RP0=1, select bank1
  7681  0007' 1303               	bcf	3,6	;RP1=0, select bank1
  7682  0008' 0800'              	movf	(floor@x+2)^(0+128),w
  7683  0009' 1283               	bcf	3,5	;RP0=0, select bank0
  7684  000A' 1303               	bcf	3,6	;RP1=0, select bank0
  7685  000B' 0082'              	movwf	frexp@value+2
  7686  000C' 1683               	bsf	3,5	;RP0=1, select bank1
  7687  000D' 1303               	bcf	3,6	;RP1=0, select bank1
  7688  000E' 0800'              	movf	(floor@x+1)^(0+128),w
  7689  000F' 1283               	bcf	3,5	;RP0=0, select bank0
  7690  0010' 1303               	bcf	3,6	;RP1=0, select bank0
  7691  0011' 0081'              	movwf	frexp@value+1
  7692  0012' 1683               	bsf	3,5	;RP0=1, select bank1
  7693  0013' 1303               	bcf	3,6	;RP1=0, select bank1
  7694  0014' 0800'              	movf	floor@x^(0+128),w
  7695  0015' 1283               	bcf	3,5	;RP0=0, select bank0
  7696  0016' 1303               	bcf	3,6	;RP1=0, select bank0
  7697  0017' 0080'              	movwf	frexp@value
  7698  0018' 3000'              	movlw	(low (floor@expon| 0))& (0+255)
  7699  0019' 1683               	bsf	3,5	;RP0=1, select bank1
  7700  001A' 1303               	bcf	3,6	;RP1=0, select bank1
  7701  001B' 0080'              	movwf	??_floor^(0+128)
  7702  001C' 0800'              	movf	??_floor^(0+128),w
  7703  001D' 1283               	bcf	3,5	;RP0=0, select bank0
  7704  001E' 1303               	bcf	3,6	;RP1=0, select bank0
  7705  001F' 0084'              	movwf	frexp@eptr
  7706  0020' 120A' 118A' 2000' 120A' 118A' 	fcall	_frexp
  7707  0025' 1683               	bsf	3,5	;RP0=1, select bank1
  7708  0026' 1303               	bcf	3,6	;RP1=0, select bank1
  7709  0027' 1F80'              	btfss	(floor@expon+1)^(0+128),7
  7710  0028' 2800'              	goto	l3572
  7711  0029' 0800'              	movf	(floor@x+3)^(0+128),w
  7712  002A' 1283               	bcf	3,5	;RP0=0, select bank0
  7713  002B' 1303               	bcf	3,6	;RP1=0, select bank0
  7714  002C' 0083'              	movwf	___flge@ff1+3
  7715  002D' 1683               	bsf	3,5	;RP0=1, select bank1
  7716  002E' 1303               	bcf	3,6	;RP1=0, select bank1
  7717  002F' 0800'              	movf	(floor@x+2)^(0+128),w
  7718  0030' 1283               	bcf	3,5	;RP0=0, select bank0
  7719  0031' 1303               	bcf	3,6	;RP1=0, select bank0
  7720  0032' 0082'              	movwf	___flge@ff1+2
  7721  0033' 1683               	bsf	3,5	;RP0=1, select bank1
  7722  0034' 1303               	bcf	3,6	;RP1=0, select bank1
  7723  0035' 0800'              	movf	(floor@x+1)^(0+128),w
  7724  0036' 1283               	bcf	3,5	;RP0=0, select bank0
  7725  0037' 1303               	bcf	3,6	;RP1=0, select bank0
  7726  0038' 0081'              	movwf	___flge@ff1+1
  7727  0039' 1683               	bsf	3,5	;RP0=1, select bank1
  7728  003A' 1303               	bcf	3,6	;RP1=0, select bank1
  7729  003B' 0800'              	movf	floor@x^(0+128),w
  7730  003C' 1283               	bcf	3,5	;RP0=0, select bank0
  7731  003D' 1303               	bcf	3,6	;RP1=0, select bank0
  7732  003E' 0080'              	movwf	___flge@ff1
  7733  003F' 3000               	movlw	0
  7734  0040' 0087'              	movwf	___flge@ff2+3
  7735  0041' 3000               	movlw	0
  7736  0042' 0086'              	movwf	___flge@ff2+2
  7737  0043' 3000               	movlw	0
  7738  0044' 0085'              	movwf	___flge@ff2+1
  7739  0045' 3000               	movlw	0
  7740  0046' 0084'              	movwf	___flge@ff2
  7741  0047' 120A' 118A' 2000' 120A' 118A' 	fcall	___flge
  7742  004C' 1803               	btfsc	3,0
  7743  004D' 2800'              	goto	l3568
  7744  004E' 30BF               	movlw	191
  7745  004F' 1683               	bsf	3,5	;RP0=1, select bank1
  7746  0050' 1303               	bcf	3,6	;RP1=0, select bank1
  7747  0051' 0080'              	movwf	(?_floor+3)^(0+128)
  7748  0052' 3080               	movlw	128
  7749  0053' 0080'              	movwf	(?_floor+2)^(0+128)
  7750  0054' 3000               	movlw	0
  7751  0055' 0080'              	movwf	(?_floor+1)^(0+128)
  7752  0056' 3000               	movlw	0
  7753  0057' 0080'              	movwf	?_floor^(0+128)
  7754  0058' 0008               	return
  7755  0059'                    l3568:	
  7756  0059' 3000               	movlw	0
  7757  005A' 1683               	bsf	3,5	;RP0=1, select bank1
  7758  005B' 1303               	bcf	3,6	;RP1=0, select bank1
  7759  005C' 0080'              	movwf	(?_floor+3)^(0+128)
  7760  005D' 3000               	movlw	0
  7761  005E' 0080'              	movwf	(?_floor+2)^(0+128)
  7762  005F' 3000               	movlw	0
  7763  0060' 0080'              	movwf	(?_floor+1)^(0+128)
  7764  0061' 3000               	movlw	0
  7765  0062' 0080'              	movwf	?_floor^(0+128)
  7766  0063' 0008               	return
  7767  0064'                    l3572:	
  7768  0064' 3000               	movlw	0
  7769  0065' 0200'              	subwf	(floor@expon+1)^(0+128),w
  7770  0066' 301D               	movlw	29
  7771  0067' 1903               	skipnz
  7772  0068' 0200'              	subwf	floor@expon^(0+128),w
  7773  0069' 1803               	btfsc	3,0
  7774  006A' 0008               	return
  7775  006B' 0800'              	movf	(floor@x+3)^(0+128),w
  7776  006C' 0080'              	movwf	(___fltol@f1+3)^(0+128)
  7777  006D' 0800'              	movf	(floor@x+2)^(0+128),w
  7778  006E' 0080'              	movwf	(___fltol@f1+2)^(0+128)
  7779  006F' 0800'              	movf	(floor@x+1)^(0+128),w
  7780  0070' 0080'              	movwf	(___fltol@f1+1)^(0+128)
  7781  0071' 0800'              	movf	floor@x^(0+128),w
  7782  0072' 0080'              	movwf	___fltol@f1^(0+128)
  7783  0073' 120A' 118A' 2000' 120A' 118A' 	fcall	___fltol
  7784  0078' 1683               	bsf	3,5	;RP0=1, select bank1
  7785  0079' 1303               	bcf	3,6	;RP1=0, select bank1
  7786  007A' 0800'              	movf	(?___fltol+3)^(0+128),w
  7787  007B' 0080'              	movwf	(___altofl@c+3)^(0+128)
  7788  007C' 0800'              	movf	(?___fltol+2)^(0+128),w
  7789  007D' 0080'              	movwf	(___altofl@c+2)^(0+128)
  7790  007E' 0800'              	movf	(?___fltol+1)^(0+128),w
  7791  007F' 0080'              	movwf	(___altofl@c+1)^(0+128)
  7792  0080' 0800'              	movf	?___fltol^(0+128),w
  7793  0081' 0080'              	movwf	___altofl@c^(0+128)
  7794  0082' 120A' 118A' 2000' 120A' 118A' 	fcall	___altofl
  7795  0087' 1683               	bsf	3,5	;RP0=1, select bank1
  7796  0088' 1303               	bcf	3,6	;RP1=0, select bank1
  7797  0089' 0800'              	movf	(?___altofl+3)^(0+128),w
  7798  008A' 0080'              	movwf	(floor@i+3)^(0+128)
  7799  008B' 0800'              	movf	(?___altofl+2)^(0+128),w
  7800  008C' 0080'              	movwf	(floor@i+2)^(0+128)
  7801  008D' 0800'              	movf	(?___altofl+1)^(0+128),w
  7802  008E' 0080'              	movwf	(floor@i+1)^(0+128)
  7803  008F' 0800'              	movf	?___altofl^(0+128),w
  7804  0090' 0080'              	movwf	floor@i^(0+128)
  7805  0091' 0800'              	movf	(floor@x+3)^(0+128),w
  7806  0092' 1283               	bcf	3,5	;RP0=0, select bank0
  7807  0093' 1303               	bcf	3,6	;RP1=0, select bank0
  7808  0094' 0083'              	movwf	___flge@ff1+3
  7809  0095' 1683               	bsf	3,5	;RP0=1, select bank1
  7810  0096' 1303               	bcf	3,6	;RP1=0, select bank1
  7811  0097' 0800'              	movf	(floor@x+2)^(0+128),w
  7812  0098' 1283               	bcf	3,5	;RP0=0, select bank0
  7813  0099' 1303               	bcf	3,6	;RP1=0, select bank0
  7814  009A' 0082'              	movwf	___flge@ff1+2
  7815  009B' 1683               	bsf	3,5	;RP0=1, select bank1
  7816  009C' 1303               	bcf	3,6	;RP1=0, select bank1
  7817  009D' 0800'              	movf	(floor@x+1)^(0+128),w
  7818  009E' 1283               	bcf	3,5	;RP0=0, select bank0
  7819  009F' 1303               	bcf	3,6	;RP1=0, select bank0
  7820  00A0' 0081'              	movwf	___flge@ff1+1
  7821  00A1' 1683               	bsf	3,5	;RP0=1, select bank1
  7822  00A2' 1303               	bcf	3,6	;RP1=0, select bank1
  7823  00A3' 0800'              	movf	floor@x^(0+128),w
  7824  00A4' 1283               	bcf	3,5	;RP0=0, select bank0
  7825  00A5' 1303               	bcf	3,6	;RP1=0, select bank0
  7826  00A6' 0080'              	movwf	___flge@ff1
  7827  00A7' 1683               	bsf	3,5	;RP0=1, select bank1
  7828  00A8' 1303               	bcf	3,6	;RP1=0, select bank1
  7829  00A9' 0800'              	movf	(floor@i+3)^(0+128),w
  7830  00AA' 1283               	bcf	3,5	;RP0=0, select bank0
  7831  00AB' 1303               	bcf	3,6	;RP1=0, select bank0
  7832  00AC' 0087'              	movwf	___flge@ff2+3
  7833  00AD' 1683               	bsf	3,5	;RP0=1, select bank1
  7834  00AE' 1303               	bcf	3,6	;RP1=0, select bank1
  7835  00AF' 0800'              	movf	(floor@i+2)^(0+128),w
  7836  00B0' 1283               	bcf	3,5	;RP0=0, select bank0
  7837  00B1' 1303               	bcf	3,6	;RP1=0, select bank0
  7838  00B2' 0086'              	movwf	___flge@ff2+2
  7839  00B3' 1683               	bsf	3,5	;RP0=1, select bank1
  7840  00B4' 1303               	bcf	3,6	;RP1=0, select bank1
  7841  00B5' 0800'              	movf	(floor@i+1)^(0+128),w
  7842  00B6' 1283               	bcf	3,5	;RP0=0, select bank0
  7843  00B7' 1303               	bcf	3,6	;RP1=0, select bank0
  7844  00B8' 0085'              	movwf	___flge@ff2+1
  7845  00B9' 1683               	bsf	3,5	;RP0=1, select bank1
  7846  00BA' 1303               	bcf	3,6	;RP1=0, select bank1
  7847  00BB' 0800'              	movf	floor@i^(0+128),w
  7848  00BC' 1283               	bcf	3,5	;RP0=0, select bank0
  7849  00BD' 1303               	bcf	3,6	;RP1=0, select bank0
  7850  00BE' 0084'              	movwf	___flge@ff2
  7851  00BF' 120A' 118A' 2000' 120A' 118A' 	fcall	___flge
  7852  00C4' 1803               	btfsc	3,0
  7853  00C5' 2800'              	goto	l3582
  7854  00C6' 30BF               	movlw	191
  7855  00C7' 1283               	bcf	3,5	;RP0=0, select bank0
  7856  00C8' 1303               	bcf	3,6	;RP1=0, select bank0
  7857  00C9' 00B9'              	movwf	___fladd@f1+3
  7858  00CA' 3080               	movlw	128
  7859  00CB' 00B8'              	movwf	___fladd@f1+2
  7860  00CC' 3000               	movlw	0
  7861  00CD' 00B7'              	movwf	___fladd@f1+1
  7862  00CE' 3000               	movlw	0
  7863  00CF' 00B6'              	movwf	___fladd@f1
  7864  00D0' 1683               	bsf	3,5	;RP0=1, select bank1
  7865  00D1' 1303               	bcf	3,6	;RP1=0, select bank1
  7866  00D2' 0800'              	movf	(floor@i+3)^(0+128),w
  7867  00D3' 1283               	bcf	3,5	;RP0=0, select bank0
  7868  00D4' 1303               	bcf	3,6	;RP1=0, select bank0
  7869  00D5' 00BD'              	movwf	___fladd@f2+3
  7870  00D6' 1683               	bsf	3,5	;RP0=1, select bank1
  7871  00D7' 1303               	bcf	3,6	;RP1=0, select bank1
  7872  00D8' 0800'              	movf	(floor@i+2)^(0+128),w
  7873  00D9' 1283               	bcf	3,5	;RP0=0, select bank0
  7874  00DA' 1303               	bcf	3,6	;RP1=0, select bank0
  7875  00DB' 00BC'              	movwf	___fladd@f2+2
  7876  00DC' 1683               	bsf	3,5	;RP0=1, select bank1
  7877  00DD' 1303               	bcf	3,6	;RP1=0, select bank1
  7878  00DE' 0800'              	movf	(floor@i+1)^(0+128),w
  7879  00DF' 1283               	bcf	3,5	;RP0=0, select bank0
  7880  00E0' 1303               	bcf	3,6	;RP1=0, select bank0
  7881  00E1' 00BB'              	movwf	___fladd@f2+1
  7882  00E2' 1683               	bsf	3,5	;RP0=1, select bank1
  7883  00E3' 1303               	bcf	3,6	;RP1=0, select bank1
  7884  00E4' 0800'              	movf	floor@i^(0+128),w
  7885  00E5' 1283               	bcf	3,5	;RP0=0, select bank0
  7886  00E6' 1303               	bcf	3,6	;RP1=0, select bank0
  7887  00E7' 00BA'              	movwf	___fladd@f2
  7888  00E8' 120A' 118A' 2000'  	fcall	___fladd
  7889  00EB' 1283               	bcf	3,5	;RP0=0, select bank0
  7890  00EC' 1303               	bcf	3,6	;RP1=0, select bank0
  7891  00ED' 0839'              	movf	?___fladd+3,w
  7892  00EE' 1683               	bsf	3,5	;RP0=1, select bank1
  7893  00EF' 1303               	bcf	3,6	;RP1=0, select bank1
  7894  00F0' 0080'              	movwf	(?_floor+3)^(0+128)
  7895  00F1' 1283               	bcf	3,5	;RP0=0, select bank0
  7896  00F2' 1303               	bcf	3,6	;RP1=0, select bank0
  7897  00F3' 0838'              	movf	?___fladd+2,w
  7898  00F4' 1683               	bsf	3,5	;RP0=1, select bank1
  7899  00F5' 1303               	bcf	3,6	;RP1=0, select bank1
  7900  00F6' 0080'              	movwf	(?_floor+2)^(0+128)
  7901  00F7' 1283               	bcf	3,5	;RP0=0, select bank0
  7902  00F8' 1303               	bcf	3,6	;RP1=0, select bank0
  7903  00F9' 0837'              	movf	?___fladd+1,w
  7904  00FA' 1683               	bsf	3,5	;RP0=1, select bank1
  7905  00FB' 1303               	bcf	3,6	;RP1=0, select bank1
  7906  00FC' 0080'              	movwf	(?_floor+1)^(0+128)
  7907  00FD' 1283               	bcf	3,5	;RP0=0, select bank0
  7908  00FE' 1303               	bcf	3,6	;RP1=0, select bank0
  7909  00FF' 0836'              	movf	?___fladd,w
  7910  0100' 1683               	bsf	3,5	;RP0=1, select bank1
  7911  0101' 1303               	bcf	3,6	;RP1=0, select bank1
  7912  0102' 0080'              	movwf	?_floor^(0+128)
  7913  0103' 0008               	return
  7914  0104'                    l3582:	
  7915  0104' 1683               	bsf	3,5	;RP0=1, select bank1
  7916  0105' 1303               	bcf	3,6	;RP1=0, select bank1
  7917  0106' 0800'              	movf	(floor@i+3)^(0+128),w
  7918  0107' 0080'              	movwf	(?_floor+3)^(0+128)
  7919  0108' 0800'              	movf	(floor@i+2)^(0+128),w
  7920  0109' 0080'              	movwf	(?_floor+2)^(0+128)
  7921  010A' 0800'              	movf	(floor@i+1)^(0+128),w
  7922  010B' 0080'              	movwf	(?_floor+1)^(0+128)
  7923  010C' 0800'              	movf	floor@i^(0+128),w
  7924  010D' 0080'              	movwf	?_floor^(0+128)
  7925  010E' 0008               	return
  7926  010F'                    __end_of_floor:	
  7927                           
  7928                           	psect	text17
  7929  0000'                    __ptext17:	
  7930 ;; *************** function ___fltol *****************
  7931 ;; Defined at:
  7932 ;;		line 43 in file "/opt/microchip/xc8/v1.34/sources/common/fltol.c"
  7933 ;; Parameters:    Size  Location     Type
  7934 ;;  f1              4   21[BANK1 ] int 
  7935 ;; Auto vars:     Size  Location     Type
  7936 ;;  exp1            1   31[BANK1 ] unsigned char 
  7937 ;;  sign1           1   30[BANK1 ] unsigned char 
  7938 ;; Return value:  Size  Location     Type
  7939 ;;                  4   21[BANK1 ] long 
  7940 ;; Registers used:
  7941 ;;		wreg, status,2, status,0
  7942 ;; Tracked objects:
  7943 ;;		On entry : 0/0
  7944 ;;		On exit  : 0/0
  7945 ;;		Unchanged: 0/0
  7946 ;; Data sizes:     COMMON   BANK0   BANK1   BANK3   BANK2
  7947 ;;      Params:         0       0       4       0       0
  7948 ;;      Locals:         0       0       2       0       0
  7949 ;;      Temps:          0       0       5       0       0
  7950 ;;      Totals:         0       0      11       0       0
  7951 ;;Total ram usage:       11 bytes
  7952 ;; Hardware stack levels used:    1
  7953 ;; Hardware stack levels required when called:    1
  7954 ;; This function calls:
  7955 ;;		Nothing
  7956 ;; This function is called by:
  7957 ;;		_format_double
  7958 ;;		_measure_capacitance
  7959 ;;		_measure_inductance
  7960 ;;		_floor
  7961 ;;		_pow
  7962 ;;		_exp
  7963 ;;		_format_float
  7964 ;; This function uses a non-reentrant model
  7965 ;;
  7966                           
  7967                           
  7968                           ;psect for function ___fltol
  7969  0000'                    ___fltol:	
  7970                           
  7971                           ;incstack = 0
  7972                           ; Regs used in ___fltol: [wreg+status,2+status,0]
  7973  0000' 1683               	bsf	3,5	;RP0=1, select bank1
  7974  0001' 1303               	bcf	3,6	;RP1=0, select bank1
  7975  0002' 0800'              	movf	___fltol@f1^(0+128),w
  7976  0003' 0080'              	movwf	??___fltol^(0+128)
  7977  0004' 0800'              	movf	(___fltol@f1+1)^(0+128),w
  7978  0005' 0081'              	movwf	(??___fltol^(0+128)+1)
  7979  0006' 0800'              	movf	(___fltol@f1+2)^(0+128),w
  7980  0007' 0082'              	movwf	(??___fltol^(0+128)+2)
  7981  0008' 0800'              	movf	(___fltol@f1+3)^(0+128),w
  7982  0009' 0083'              	movwf	(??___fltol^(0+128)+3)
  7983  000A' 1003               	clrc
  7984  000B' 0D02'              	rlf	(??___fltol^(0+128)+2),w
  7985  000C' 0D03'              	rlf	(??___fltol^(0+128)+3),w
  7986  000D' 0080'              	movwf	(??___fltol+4)^(0+128)
  7987  000E' 0800'              	movf	(??___fltol+4)^(0+128),w
  7988  000F' 0080'              	movwf	___fltol@exp1^(0+128)
  7989  0010' 0800'              	movf	___fltol@exp1^(0+128),w
  7990  0011' 1D03               	btfss	3,2
  7991  0012' 2800'              	goto	l2380
  7992  0013' 3000               	movlw	0
  7993  0014' 0080'              	movwf	(?___fltol+3)^(0+128)
  7994  0015' 3000               	movlw	0
  7995  0016' 0080'              	movwf	(?___fltol+2)^(0+128)
  7996  0017' 3000               	movlw	0
  7997  0018' 0080'              	movwf	(?___fltol+1)^(0+128)
  7998  0019' 3000               	movlw	0
  7999  001A' 0080'              	movwf	?___fltol^(0+128)
  8000  001B' 0008               	return
  8001  001C'                    l2380:	
  8002  001C' 0800'              	movf	___fltol@f1^(0+128),w
  8003  001D' 0080'              	movwf	??___fltol^(0+128)
  8004  001E' 0800'              	movf	(___fltol@f1+1)^(0+128),w
  8005  001F' 0081'              	movwf	(??___fltol^(0+128)+1)
  8006  0020' 0800'              	movf	(___fltol@f1+2)^(0+128),w
  8007  0021' 0082'              	movwf	(??___fltol^(0+128)+2)
  8008  0022' 0800'              	movf	(___fltol@f1+3)^(0+128),w
  8009  0023' 0083'              	movwf	(??___fltol^(0+128)+3)
  8010  0024' 301F               	movlw	31
  8011  0025'                    u2505:	
  8012  0025' 1003               	clrc
  8013  0026' 0C83'              	rrf	(??___fltol^(0+128)+3),f
  8014  0027' 0C82'              	rrf	(??___fltol^(0+128)+2),f
  8015  0028' 0C81'              	rrf	(??___fltol^(0+128)+1),f
  8016  0029' 0C80'              	rrf	??___fltol^(0+128),f
  8017  002A' 3EFF               	addlw	-1
  8018  002B' 1D03               	skipz
  8019  002C' 2800'              	goto	u2505
  8020  002D' 0800'              	movf	??___fltol^(0+128),w
  8021  002E' 0080'              	movwf	(??___fltol+4)^(0+128)
  8022  002F' 0800'              	movf	(??___fltol+4)^(0+128),w
  8023  0030' 0080'              	movwf	___fltol@sign1^(0+128)
  8024  0031' 1782'              	bsf	(___fltol@f1^(0+128)+2),7
  8025  0032' 30FF               	movlw	255
  8026  0033' 0580'              	andwf	___fltol@f1^(0+128),f
  8027  0034' 30FF               	movlw	255
  8028  0035' 0580'              	andwf	(___fltol@f1+1)^(0+128),f
  8029  0036' 30FF               	movlw	255
  8030  0037' 0580'              	andwf	(___fltol@f1+2)^(0+128),f
  8031  0038' 3000               	movlw	0
  8032  0039' 0580'              	andwf	(___fltol@f1+3)^(0+128),f
  8033  003A' 3096               	movlw	150
  8034  003B' 0280'              	subwf	___fltol@exp1^(0+128),f
  8035  003C' 1F80'              	btfss	___fltol@exp1^(0+128),7
  8036  003D' 2800'              	goto	l2398
  8037  003E' 0800'              	movf	___fltol@exp1^(0+128),w
  8038  003F' 3A80               	xorlw	128
  8039  0040' 3E97               	addlw	151
  8040  0041' 1803               	skipnc
  8041  0042' 2800'              	goto	l2396
  8042  0043' 3000               	movlw	0
  8043  0044' 0080'              	movwf	(?___fltol+3)^(0+128)
  8044  0045' 3000               	movlw	0
  8045  0046' 0080'              	movwf	(?___fltol+2)^(0+128)
  8046  0047' 3000               	movlw	0
  8047  0048' 0080'              	movwf	(?___fltol+1)^(0+128)
  8048  0049' 3000               	movlw	0
  8049  004A' 0080'              	movwf	?___fltol^(0+128)
  8050  004B' 0008               	return
  8051  004C'                    l2396:	
  8052  004C' 3001               	movlw	1
  8053  004D'                    u2535:	
  8054  004D' 1003               	clrc
  8055  004E' 0C80'              	rrf	(___fltol@f1+3)^(0+128),f
  8056  004F' 0C80'              	rrf	(___fltol@f1+2)^(0+128),f
  8057  0050' 0C80'              	rrf	(___fltol@f1+1)^(0+128),f
  8058  0051' 0C80'              	rrf	___fltol@f1^(0+128),f
  8059  0052' 3EFF               	addlw	-1
  8060  0053' 1D03               	skipz
  8061  0054' 2800'              	goto	u2535
  8062  0055' 3001               	movlw	1
  8063  0056' 0080'              	movwf	??___fltol^(0+128)
  8064  0057' 0800'              	movf	??___fltol^(0+128),w
  8065  0058' 0780'              	addwf	___fltol@exp1^(0+128),f
  8066  0059' 1903               	btfsc	3,2
  8067  005A' 2800'              	goto	l2406
  8068  005B' 2800'              	goto	l2396
  8069  005C'                    l2398:	
  8070  005C' 3020               	movlw	32
  8071  005D' 0200'              	subwf	___fltol@exp1^(0+128),w
  8072  005E' 1C03               	skipc
  8073  005F' 2800'              	goto	l717
  8074  0060' 3000               	movlw	0
  8075  0061' 0080'              	movwf	(?___fltol+3)^(0+128)
  8076  0062' 3000               	movlw	0
  8077  0063' 0080'              	movwf	(?___fltol+2)^(0+128)
  8078  0064' 3000               	movlw	0
  8079  0065' 0080'              	movwf	(?___fltol+1)^(0+128)
  8080  0066' 3000               	movlw	0
  8081  0067' 0080'              	movwf	?___fltol^(0+128)
  8082  0068' 0008               	return
  8083  0069'                    l2404:	
  8084  0069' 3001               	movlw	1
  8085  006A' 0080'              	movwf	??___fltol^(0+128)
  8086  006B'                    u2565:	
  8087  006B' 1003               	clrc
  8088  006C' 0D80'              	rlf	___fltol@f1^(0+128),f
  8089  006D' 0D80'              	rlf	(___fltol@f1+1)^(0+128),f
  8090  006E' 0D80'              	rlf	(___fltol@f1+2)^(0+128),f
  8091  006F' 0D80'              	rlf	(___fltol@f1+3)^(0+128),f
  8092  0070' 0B80'              	decfsz	??___fltol^(0+128),f
  8093  0071' 2800'              	goto	u2565
  8094  0072' 3001               	movlw	1
  8095  0073' 0280'              	subwf	___fltol@exp1^(0+128),f
  8096  0074'                    l717:	
  8097  0074' 0800'              	movf	___fltol@exp1^(0+128),w
  8098  0075' 1D03               	btfss	3,2
  8099  0076' 2800'              	goto	l2404
  8100  0077'                    l2406:	
  8101  0077' 0800'              	movf	___fltol@sign1^(0+128),w
  8102  0078' 1903               	btfsc	3,2
  8103  0079' 0008               	return
  8104  007A' 0980'              	comf	___fltol@f1^(0+128),f
  8105  007B' 0980'              	comf	(___fltol@f1+1)^(0+128),f
  8106  007C' 0980'              	comf	(___fltol@f1+2)^(0+128),f
  8107  007D' 0980'              	comf	(___fltol@f1+3)^(0+128),f
  8108  007E' 0A80'              	incf	___fltol@f1^(0+128),f
  8109  007F' 1903               	skipnz
  8110  0080' 0A80'              	incf	(___fltol@f1+1)^(0+128),f
  8111  0081' 1903               	skipnz
  8112  0082' 0A80'              	incf	(___fltol@f1+2)^(0+128),f
  8113  0083' 1903               	skipnz
  8114  0084' 0A80'              	incf	(___fltol@f1+3)^(0+128),f
  8115  0085' 0008               	return
  8116  0086'                    __end_of___fltol:	
  8117                           
  8118                           	psect	text18
  8119  0000'                    __ptext18:	
  8120 ;; *************** function ___altofl *****************
  8121 ;; Defined at:
  8122 ;;		line 36 in file "/opt/microchip/xc8/v1.34/sources/common/altofl.c"
  8123 ;; Parameters:    Size  Location     Type
  8124 ;;  c               4   32[BANK1 ] long 
  8125 ;; Auto vars:     Size  Location     Type
  8126 ;;  sign            1   38[BANK1 ] unsigned char 
  8127 ;; Return value:  Size  Location     Type
  8128 ;;                  4   32[BANK1 ] unsigned char 
  8129 ;; Registers used:
  8130 ;;		wreg, status,2, status,0, pclath, cstack
  8131 ;; Tracked objects:
  8132 ;;		On entry : 0/0
  8133 ;;		On exit  : 0/0
  8134 ;;		Unchanged: 0/0
  8135 ;; Data sizes:     COMMON   BANK0   BANK1   BANK3   BANK2
  8136 ;;      Params:         0       0       4       0       0
  8137 ;;      Locals:         0       0       1       0       0
  8138 ;;      Temps:          0       0       2       0       0
  8139 ;;      Totals:         0       0       7       0       0
  8140 ;;Total ram usage:        7 bytes
  8141 ;; Hardware stack levels used:    1
  8142 ;; Hardware stack levels required when called:    2
  8143 ;; This function calls:
  8144 ;;		___flpack
  8145 ;; This function is called by:
  8146 ;;		_floor
  8147 ;; This function uses a non-reentrant model
  8148 ;;
  8149                           
  8150                           
  8151                           ;psect for function ___altofl
  8152  0000'                    ___altofl:	
  8153                           
  8154                           ;incstack = 0
  8155                           ; Regs used in ___altofl: [wreg+status,2+status,0+pclath+cstack]
  8156  0000' 1683               	bsf	3,5	;RP0=1, select bank1
  8157  0001' 1303               	bcf	3,6	;RP1=0, select bank1
  8158  0002' 0180'              	clrf	___altofl@sign^(0+128)
  8159  0003' 1F80'              	btfss	(___altofl@c+3)^(0+128),7
  8160  0004' 2800'              	goto	l3374
  8161  0005' 0980'              	comf	___altofl@c^(0+128),f
  8162  0006' 0980'              	comf	(___altofl@c+1)^(0+128),f
  8163  0007' 0980'              	comf	(___altofl@c+2)^(0+128),f
  8164  0008' 0980'              	comf	(___altofl@c+3)^(0+128),f
  8165  0009' 0A80'              	incf	___altofl@c^(0+128),f
  8166  000A' 1903               	skipnz
  8167  000B' 0A80'              	incf	(___altofl@c+1)^(0+128),f
  8168  000C' 1903               	skipnz
  8169  000D' 0A80'              	incf	(___altofl@c+2)^(0+128),f
  8170  000E' 1903               	skipnz
  8171  000F' 0A80'              	incf	(___altofl@c+3)^(0+128),f
  8172  0010' 0180'              	clrf	___altofl@sign^(0+128)
  8173  0011' 0A80'              	incf	___altofl@sign^(0+128),f
  8174  0012'                    l3374:	
  8175  0012' 0800'              	movf	(___altofl@c+3)^(0+128),w
  8176  0013' 1283               	bcf	3,5	;RP0=0, select bank0
  8177  0014' 1303               	bcf	3,6	;RP1=0, select bank0
  8178  0015' 0083'              	movwf	___flpack@arg+3
  8179  0016' 1683               	bsf	3,5	;RP0=1, select bank1
  8180  0017' 1303               	bcf	3,6	;RP1=0, select bank1
  8181  0018' 0800'              	movf	(___altofl@c+2)^(0+128),w
  8182  0019' 1283               	bcf	3,5	;RP0=0, select bank0
  8183  001A' 1303               	bcf	3,6	;RP1=0, select bank0
  8184  001B' 0082'              	movwf	___flpack@arg+2
  8185  001C' 1683               	bsf	3,5	;RP0=1, select bank1
  8186  001D' 1303               	bcf	3,6	;RP1=0, select bank1
  8187  001E' 0800'              	movf	(___altofl@c+1)^(0+128),w
  8188  001F' 1283               	bcf	3,5	;RP0=0, select bank0
  8189  0020' 1303               	bcf	3,6	;RP1=0, select bank0
  8190  0021' 0081'              	movwf	___flpack@arg+1
  8191  0022' 1683               	bsf	3,5	;RP0=1, select bank1
  8192  0023' 1303               	bcf	3,6	;RP1=0, select bank1
  8193  0024' 0800'              	movf	___altofl@c^(0+128),w
  8194  0025' 1283               	bcf	3,5	;RP0=0, select bank0
  8195  0026' 1303               	bcf	3,6	;RP1=0, select bank0
  8196  0027' 0080'              	movwf	___flpack@arg
  8197  0028' 3096               	movlw	150
  8198  0029' 1683               	bsf	3,5	;RP0=1, select bank1
  8199  002A' 1303               	bcf	3,6	;RP1=0, select bank1
  8200  002B' 0080'              	movwf	??___altofl^(0+128)
  8201  002C' 0800'              	movf	??___altofl^(0+128),w
  8202  002D' 1283               	bcf	3,5	;RP0=0, select bank0
  8203  002E' 1303               	bcf	3,6	;RP1=0, select bank0
  8204  002F' 0084'              	movwf	___flpack@exp
  8205  0030' 1683               	bsf	3,5	;RP0=1, select bank1
  8206  0031' 1303               	bcf	3,6	;RP1=0, select bank1
  8207  0032' 0800'              	movf	___altofl@sign^(0+128),w
  8208  0033' 0080'              	movwf	(??___altofl+1)^(0+128)
  8209  0034' 0800'              	movf	(??___altofl+1)^(0+128),w
  8210  0035' 1283               	bcf	3,5	;RP0=0, select bank0
  8211  0036' 1303               	bcf	3,6	;RP1=0, select bank0
  8212  0037' 0085'              	movwf	___flpack@sign
  8213  0038' 120A' 118A' 2000'  	fcall	___flpack
  8214  003B' 1283               	bcf	3,5	;RP0=0, select bank0
  8215  003C' 1303               	bcf	3,6	;RP1=0, select bank0
  8216  003D' 0803'              	movf	?___flpack+3,w
  8217  003E' 1683               	bsf	3,5	;RP0=1, select bank1
  8218  003F' 1303               	bcf	3,6	;RP1=0, select bank1
  8219  0040' 0080'              	movwf	(?___altofl+3)^(0+128)
  8220  0041' 1283               	bcf	3,5	;RP0=0, select bank0
  8221  0042' 1303               	bcf	3,6	;RP1=0, select bank0
  8222  0043' 0802'              	movf	?___flpack+2,w
  8223  0044' 1683               	bsf	3,5	;RP0=1, select bank1
  8224  0045' 1303               	bcf	3,6	;RP1=0, select bank1
  8225  0046' 0080'              	movwf	(?___altofl+2)^(0+128)
  8226  0047' 1283               	bcf	3,5	;RP0=0, select bank0
  8227  0048' 1303               	bcf	3,6	;RP1=0, select bank0
  8228  0049' 0801'              	movf	?___flpack+1,w
  8229  004A' 1683               	bsf	3,5	;RP0=1, select bank1
  8230  004B' 1303               	bcf	3,6	;RP1=0, select bank1
  8231  004C' 0080'              	movwf	(?___altofl+1)^(0+128)
  8232  004D' 1283               	bcf	3,5	;RP0=0, select bank0
  8233  004E' 1303               	bcf	3,6	;RP1=0, select bank0
  8234  004F' 0800'              	movf	?___flpack,w
  8235  0050' 1683               	bsf	3,5	;RP0=1, select bank1
  8236  0051' 1303               	bcf	3,6	;RP1=0, select bank1
  8237  0052' 0080'              	movwf	?___altofl^(0+128)
  8238  0053' 0008               	return
  8239  0054'                    __end_of___altofl:	
  8240                           
  8241                           	psect	text19
  8242  0000'                    __ptext19:	
  8243 ;; *************** function ___flsub *****************
  8244 ;; Defined at:
  8245 ;;		line 18 in file "/opt/microchip/xc8/v1.34/sources/common/flsub.c"
  8246 ;; Parameters:    Size  Location     Type
  8247 ;;  f2              4   70[BANK0 ] unsigned char 
  8248 ;;  f1              4   74[BANK0 ] unsigned char 
  8249 ;; Auto vars:     Size  Location     Type
  8250 ;;		None
  8251 ;; Return value:  Size  Location     Type
  8252 ;;                  4   70[BANK0 ] unsigned char 
  8253 ;; Registers used:
  8254 ;;		wreg, status,2, status,0, pclath, cstack
  8255 ;; Tracked objects:
  8256 ;;		On entry : 0/0
  8257 ;;		On exit  : 0/0
  8258 ;;		Unchanged: 0/0
  8259 ;; Data sizes:     COMMON   BANK0   BANK1   BANK3   BANK2
  8260 ;;      Params:         0       8       0       0       0
  8261 ;;      Locals:         0       0       0       0       0
  8262 ;;      Temps:          0       0       0       0       0
  8263 ;;      Totals:         0       8       0       0       0
  8264 ;;Total ram usage:        8 bytes
  8265 ;; Hardware stack levels used:    1
  8266 ;; Hardware stack levels required when called:    3
  8267 ;; This function calls:
  8268 ;;		___fladd
  8269 ;; This function is called by:
  8270 ;;		_format_double
  8271 ;;		_exp
  8272 ;;		_format_float
  8273 ;; This function uses a non-reentrant model
  8274 ;;
  8275                           
  8276                           
  8277                           ;psect for function ___flsub
  8278  0000'                    ___flsub:	
  8279                           
  8280                           ;incstack = 0
  8281                           ; Regs used in ___flsub: [wreg+status,2+status,0+pclath+cstack]
  8282  0000' 1283               	bcf	3,5	;RP0=0, select bank0
  8283  0001' 1303               	bcf	3,6	;RP1=0, select bank0
  8284  0002' 0849'              	movf	___flsub@f2+3,w
  8285  0003' 0448'              	iorwf	___flsub@f2+2,w
  8286  0004' 0447'              	iorwf	___flsub@f2+1,w
  8287  0005' 0446'              	iorwf	___flsub@f2,w
  8288  0006' 1903               	skipnz
  8289  0007' 2800'              	goto	l3640
  8290  0008' 3080               	movlw	128
  8291  0009' 06C9'              	xorwf	___flsub@f2+3,f
  8292  000A'                    l3640:	
  8293  000A' 0849'              	movf	___flsub@f2+3,w
  8294  000B' 00B9'              	movwf	___fladd@f1+3
  8295  000C' 0848'              	movf	___flsub@f2+2,w
  8296  000D' 00B8'              	movwf	___fladd@f1+2
  8297  000E' 0847'              	movf	___flsub@f2+1,w
  8298  000F' 00B7'              	movwf	___fladd@f1+1
  8299  0010' 0846'              	movf	___flsub@f2,w
  8300  0011' 00B6'              	movwf	___fladd@f1
  8301  0012' 084D'              	movf	___flsub@f1+3,w
  8302  0013' 00BD'              	movwf	___fladd@f2+3
  8303  0014' 084C'              	movf	___flsub@f1+2,w
  8304  0015' 00BC'              	movwf	___fladd@f2+2
  8305  0016' 084B'              	movf	___flsub@f1+1,w
  8306  0017' 00BB'              	movwf	___fladd@f2+1
  8307  0018' 084A'              	movf	___flsub@f1,w
  8308  0019' 00BA'              	movwf	___fladd@f2
  8309  001A' 120A' 118A' 2000'  	fcall	___fladd
  8310  001D' 1283               	bcf	3,5	;RP0=0, select bank0
  8311  001E' 1303               	bcf	3,6	;RP1=0, select bank0
  8312  001F' 0839'              	movf	?___fladd+3,w
  8313  0020' 00C9'              	movwf	?___flsub+3
  8314  0021' 0838'              	movf	?___fladd+2,w
  8315  0022' 00C8'              	movwf	?___flsub+2
  8316  0023' 0837'              	movf	?___fladd+1,w
  8317  0024' 00C7'              	movwf	?___flsub+1
  8318  0025' 0836'              	movf	?___fladd,w
  8319  0026' 00C6'              	movwf	?___flsub
  8320  0027' 0008               	return
  8321  0028'                    __end_of___flsub:	
  8322                           
  8323                           	psect	text20
  8324  0000'                    __ptext20:	
  8325 ;; *************** function ___fldiv *****************
  8326 ;; Defined at:
  8327 ;;		line 56 in file "/opt/microchip/xc8/v1.34/sources/common/fldiv.c"
  8328 ;; Parameters:    Size  Location     Type
  8329 ;;  f2              4   10[BANK0 ] unsigned char 
  8330 ;;  f1              4   14[BANK0 ] unsigned char 
  8331 ;; Auto vars:     Size  Location     Type
  8332 ;;  f3              4   23[BANK0 ] unsigned char 
  8333 ;;  sign            1   29[BANK0 ] unsigned char 
  8334 ;;  exp             1   28[BANK0 ] unsigned char 
  8335 ;;  cntr            1   27[BANK0 ] unsigned char 
  8336 ;; Return value:  Size  Location     Type
  8337 ;;                  4   10[BANK0 ] unsigned char 
  8338 ;; Registers used:
  8339 ;;		wreg, status,2, status,0, pclath, cstack
  8340 ;; Tracked objects:
  8341 ;;		On entry : 0/0
  8342 ;;		On exit  : 0/0
  8343 ;;		Unchanged: 0/0
  8344 ;; Data sizes:     COMMON   BANK0   BANK1   BANK3   BANK2
  8345 ;;      Params:         0       8       0       0       0
  8346 ;;      Locals:         0       7       0       0       0
  8347 ;;      Temps:          0       5       0       0       0
  8348 ;;      Totals:         0      20       0       0       0
  8349 ;;Total ram usage:       20 bytes
  8350 ;; Hardware stack levels used:    1
  8351 ;; Hardware stack levels required when called:    2
  8352 ;; This function calls:
  8353 ;;		___flpack
  8354 ;; This function is called by:
  8355 ;;		_format_double
  8356 ;;		_measure_capacitance
  8357 ;;		_measure_inductance
  8358 ;;		_exp
  8359 ;;		_format_float
  8360 ;; This function uses a non-reentrant model
  8361 ;;
  8362                           
  8363                           
  8364                           ;psect for function ___fldiv
  8365  0000'                    ___fldiv:	
  8366                           
  8367                           ;incstack = 0
  8368                           ; Regs used in ___fldiv: [wreg+status,2+status,0+pclath+cstack]
  8369  0000' 1283               	bcf	3,5	;RP0=0, select bank0
  8370  0001' 1303               	bcf	3,6	;RP1=0, select bank0
  8371  0002' 080E'              	movf	___fldiv@f1,w
  8372  0003' 0092'              	movwf	??___fldiv
  8373  0004' 080F'              	movf	___fldiv@f1+1,w
  8374  0005' 0093'              	movwf	??___fldiv+1
  8375  0006' 0810'              	movf	___fldiv@f1+2,w
  8376  0007' 0094'              	movwf	??___fldiv+2
  8377  0008' 0811'              	movf	___fldiv@f1+3,w
  8378  0009' 0095'              	movwf	??___fldiv+3
  8379  000A' 1003               	clrc
  8380  000B' 0D14'              	rlf	??___fldiv+2,w
  8381  000C' 0D15'              	rlf	??___fldiv+3,w
  8382  000D' 0096'              	movwf	??___fldiv+4
  8383  000E' 0816'              	movf	??___fldiv+4,w
  8384  000F' 009C'              	movwf	___fldiv@exp
  8385  0010' 081C'              	movf	___fldiv@exp,w
  8386  0011' 1D03               	btfss	3,2
  8387  0012' 2800'              	goto	l3604
  8388  0013' 3000               	movlw	0
  8389  0014' 008D'              	movwf	?___fldiv+3
  8390  0015' 3000               	movlw	0
  8391  0016' 008C'              	movwf	?___fldiv+2
  8392  0017' 3000               	movlw	0
  8393  0018' 008B'              	movwf	?___fldiv+1
  8394  0019' 3000               	movlw	0
  8395  001A' 008A'              	movwf	?___fldiv
  8396  001B' 0008               	return
  8397  001C'                    l3604:	
  8398  001C' 080A'              	movf	___fldiv@f2,w
  8399  001D' 0092'              	movwf	??___fldiv
  8400  001E' 080B'              	movf	___fldiv@f2+1,w
  8401  001F' 0093'              	movwf	??___fldiv+1
  8402  0020' 080C'              	movf	___fldiv@f2+2,w
  8403  0021' 0094'              	movwf	??___fldiv+2
  8404  0022' 080D'              	movf	___fldiv@f2+3,w
  8405  0023' 0095'              	movwf	??___fldiv+3
  8406  0024' 1003               	clrc
  8407  0025' 0D14'              	rlf	??___fldiv+2,w
  8408  0026' 0D15'              	rlf	??___fldiv+3,w
  8409  0027' 0096'              	movwf	??___fldiv+4
  8410  0028' 0816'              	movf	??___fldiv+4,w
  8411  0029' 009D'              	movwf	___fldiv@sign
  8412  002A' 081D'              	movf	___fldiv@sign,w
  8413  002B' 1D03               	btfss	3,2
  8414  002C' 2800'              	goto	l3610
  8415  002D' 3000               	movlw	0
  8416  002E' 008D'              	movwf	?___fldiv+3
  8417  002F' 3000               	movlw	0
  8418  0030' 008C'              	movwf	?___fldiv+2
  8419  0031' 3000               	movlw	0
  8420  0032' 008B'              	movwf	?___fldiv+1
  8421  0033' 3000               	movlw	0
  8422  0034' 008A'              	movwf	?___fldiv
  8423  0035' 0008               	return
  8424  0036'                    l3610:	
  8425  0036' 3089               	movlw	137
  8426  0037' 071D'              	addwf	___fldiv@sign,w
  8427  0038' 0092'              	movwf	??___fldiv
  8428  0039' 0812'              	movf	??___fldiv,w
  8429  003A' 029C'              	subwf	___fldiv@exp,f
  8430  003B' 080E'              	movf	___fldiv@f1,w
  8431  003C' 0092'              	movwf	??___fldiv
  8432  003D' 080F'              	movf	___fldiv@f1+1,w
  8433  003E' 0093'              	movwf	??___fldiv+1
  8434  003F' 0810'              	movf	___fldiv@f1+2,w
  8435  0040' 0094'              	movwf	??___fldiv+2
  8436  0041' 0811'              	movf	___fldiv@f1+3,w
  8437  0042' 0095'              	movwf	??___fldiv+3
  8438  0043' 3018               	movlw	24
  8439  0044'                    u4455:	
  8440  0044' 1003               	clrc
  8441  0045' 0C95'              	rrf	??___fldiv+3,f
  8442  0046' 0C94'              	rrf	??___fldiv+2,f
  8443  0047' 0C93'              	rrf	??___fldiv+1,f
  8444  0048' 0C92'              	rrf	??___fldiv,f
  8445  0049' 3EFF               	addlw	-1
  8446  004A' 1D03               	skipz
  8447  004B' 2800'              	goto	u4455
  8448  004C' 0812'              	movf	??___fldiv,w
  8449  004D' 0096'              	movwf	??___fldiv+4
  8450  004E' 0816'              	movf	??___fldiv+4,w
  8451  004F' 009D'              	movwf	___fldiv@sign
  8452  0050' 080A'              	movf	___fldiv@f2,w
  8453  0051' 0092'              	movwf	??___fldiv
  8454  0052' 080B'              	movf	___fldiv@f2+1,w
  8455  0053' 0093'              	movwf	??___fldiv+1
  8456  0054' 080C'              	movf	___fldiv@f2+2,w
  8457  0055' 0094'              	movwf	??___fldiv+2
  8458  0056' 080D'              	movf	___fldiv@f2+3,w
  8459  0057' 0095'              	movwf	??___fldiv+3
  8460  0058' 3018               	movlw	24
  8461  0059'                    u4465:	
  8462  0059' 1003               	clrc
  8463  005A' 0C95'              	rrf	??___fldiv+3,f
  8464  005B' 0C94'              	rrf	??___fldiv+2,f
  8465  005C' 0C93'              	rrf	??___fldiv+1,f
  8466  005D' 0C92'              	rrf	??___fldiv,f
  8467  005E' 3EFF               	addlw	-1
  8468  005F' 1D03               	skipz
  8469  0060' 2800'              	goto	u4465
  8470  0061' 0812'              	movf	??___fldiv,w
  8471  0062' 0096'              	movwf	??___fldiv+4
  8472  0063' 0816'              	movf	??___fldiv+4,w
  8473  0064' 069D'              	xorwf	___fldiv@sign,f
  8474  0065' 3080               	movlw	128
  8475  0066' 0092'              	movwf	??___fldiv
  8476  0067' 0812'              	movf	??___fldiv,w
  8477  0068' 059D'              	andwf	___fldiv@sign,f
  8478  0069' 1790'              	bsf	___fldiv@f1+2,7
  8479  006A' 30FF               	movlw	255
  8480  006B' 058E'              	andwf	___fldiv@f1,f
  8481  006C' 30FF               	movlw	255
  8482  006D' 058F'              	andwf	___fldiv@f1+1,f
  8483  006E' 30FF               	movlw	255
  8484  006F' 0590'              	andwf	___fldiv@f1+2,f
  8485  0070' 3000               	movlw	0
  8486  0071' 0591'              	andwf	___fldiv@f1+3,f
  8487  0072' 178C'              	bsf	___fldiv@f2+2,7
  8488  0073' 30FF               	movlw	255
  8489  0074' 058A'              	andwf	___fldiv@f2,f
  8490  0075' 30FF               	movlw	255
  8491  0076' 058B'              	andwf	___fldiv@f2+1,f
  8492  0077' 30FF               	movlw	255
  8493  0078' 058C'              	andwf	___fldiv@f2+2,f
  8494  0079' 3000               	movlw	0
  8495  007A' 058D'              	andwf	___fldiv@f2+3,f
  8496  007B' 3020               	movlw	32
  8497  007C' 0092'              	movwf	??___fldiv
  8498  007D' 0812'              	movf	??___fldiv,w
  8499  007E' 009B'              	movwf	___fldiv@cntr
  8500  007F'                    l3622:	
  8501  007F' 3001               	movlw	1
  8502  0080' 0092'              	movwf	??___fldiv
  8503  0081'                    u4475:	
  8504  0081' 1003               	clrc
  8505  0082' 0D97'              	rlf	___fldiv@f3,f
  8506  0083' 0D98'              	rlf	___fldiv@f3+1,f
  8507  0084' 0D99'              	rlf	___fldiv@f3+2,f
  8508  0085' 0D9A'              	rlf	___fldiv@f3+3,f
  8509  0086' 0B92'              	decfsz	??___fldiv,f
  8510  0087' 2800'              	goto	u4475
  8511  0088' 080D'              	movf	___fldiv@f2+3,w
  8512  0089' 0211'              	subwf	___fldiv@f1+3,w
  8513  008A' 1D03               	skipz
  8514  008B' 2800'              	goto	u4485
  8515  008C' 080C'              	movf	___fldiv@f2+2,w
  8516  008D' 0210'              	subwf	___fldiv@f1+2,w
  8517  008E' 1D03               	skipz
  8518  008F' 2800'              	goto	u4485
  8519  0090' 080B'              	movf	___fldiv@f2+1,w
  8520  0091' 020F'              	subwf	___fldiv@f1+1,w
  8521  0092' 1D03               	skipz
  8522  0093' 2800'              	goto	u4485
  8523  0094' 080A'              	movf	___fldiv@f2,w
  8524  0095' 020E'              	subwf	___fldiv@f1,w
  8525  0096'                    u4485:	
  8526  0096' 1C03               	skipc
  8527  0097' 2800'              	goto	l3628
  8528  0098' 080A'              	movf	___fldiv@f2,w
  8529  0099' 028E'              	subwf	___fldiv@f1,f
  8530  009A' 080B'              	movf	___fldiv@f2+1,w
  8531  009B' 1C03               	skipc
  8532  009C' 0F0B'              	incfsz	___fldiv@f2+1,w
  8533  009D' 028F'              	subwf	___fldiv@f1+1,f
  8534  009E' 080C'              	movf	___fldiv@f2+2,w
  8535  009F' 1C03               	skipc
  8536  00A0' 0F0C'              	incfsz	___fldiv@f2+2,w
  8537  00A1' 0290'              	subwf	___fldiv@f1+2,f
  8538  00A2' 080D'              	movf	___fldiv@f2+3,w
  8539  00A3' 1C03               	skipc
  8540  00A4' 0F0D'              	incfsz	___fldiv@f2+3,w
  8541  00A5' 0291'              	subwf	___fldiv@f1+3,f
  8542  00A6' 1417'              	bsf	___fldiv@f3,0
  8543  00A7'                    l3628:	
  8544  00A7' 3001               	movlw	1
  8545  00A8' 0092'              	movwf	??___fldiv
  8546  00A9'                    u4495:	
  8547  00A9' 1003               	clrc
  8548  00AA' 0D8E'              	rlf	___fldiv@f1,f
  8549  00AB' 0D8F'              	rlf	___fldiv@f1+1,f
  8550  00AC' 0D90'              	rlf	___fldiv@f1+2,f
  8551  00AD' 0D91'              	rlf	___fldiv@f1+3,f
  8552  00AE' 0B92'              	decfsz	??___fldiv,f
  8553  00AF' 2800'              	goto	u4495
  8554  00B0' 3001               	movlw	1
  8555  00B1' 029B'              	subwf	___fldiv@cntr,f
  8556  00B2' 1D03               	btfss	3,2
  8557  00B3' 2800'              	goto	l3622
  8558  00B4' 081A'              	movf	___fldiv@f3+3,w
  8559  00B5' 0083'              	movwf	___flpack@arg+3
  8560  00B6' 0819'              	movf	___fldiv@f3+2,w
  8561  00B7' 0082'              	movwf	___flpack@arg+2
  8562  00B8' 0818'              	movf	___fldiv@f3+1,w
  8563  00B9' 0081'              	movwf	___flpack@arg+1
  8564  00BA' 0817'              	movf	___fldiv@f3,w
  8565  00BB' 0080'              	movwf	___flpack@arg
  8566  00BC' 081C'              	movf	___fldiv@exp,w
  8567  00BD' 0092'              	movwf	??___fldiv
  8568  00BE' 0812'              	movf	??___fldiv,w
  8569  00BF' 0084'              	movwf	___flpack@exp
  8570  00C0' 081D'              	movf	___fldiv@sign,w
  8571  00C1' 0093'              	movwf	??___fldiv+1
  8572  00C2' 0813'              	movf	??___fldiv+1,w
  8573  00C3' 0085'              	movwf	___flpack@sign
  8574  00C4' 120A' 118A' 2000'  	fcall	___flpack
  8575  00C7' 1283               	bcf	3,5	;RP0=0, select bank0
  8576  00C8' 1303               	bcf	3,6	;RP1=0, select bank0
  8577  00C9' 0803'              	movf	?___flpack+3,w
  8578  00CA' 008D'              	movwf	?___fldiv+3
  8579  00CB' 0802'              	movf	?___flpack+2,w
  8580  00CC' 008C'              	movwf	?___fldiv+2
  8581  00CD' 0801'              	movf	?___flpack+1,w
  8582  00CE' 008B'              	movwf	?___fldiv+1
  8583  00CF' 0800'              	movf	?___flpack,w
  8584  00D0' 008A'              	movwf	?___fldiv
  8585  00D1' 0008               	return
  8586  00D2'                    __end_of___fldiv:	
  8587                           
  8588                           	psect	text21
  8589  0000'                    __ptext21:	
  8590 ;; *************** function ___lltofl *****************
  8591 ;; Defined at:
  8592 ;;		line 30 in file "/opt/microchip/xc8/v1.34/sources/common/lltofl.c"
  8593 ;; Parameters:    Size  Location     Type
  8594 ;;  c               4   10[BANK0 ] unsigned long 
  8595 ;; Auto vars:     Size  Location     Type
  8596 ;;		None
  8597 ;; Return value:  Size  Location     Type
  8598 ;;                  4   10[BANK0 ] unsigned long 
  8599 ;; Registers used:
  8600 ;;		wreg, status,2, status,0, pclath, cstack
  8601 ;; Tracked objects:
  8602 ;;		On entry : 0/0
  8603 ;;		On exit  : 0/0
  8604 ;;		Unchanged: 0/0
  8605 ;; Data sizes:     COMMON   BANK0   BANK1   BANK3   BANK2
  8606 ;;      Params:         0       4       0       0       0
  8607 ;;      Locals:         0       0       0       0       0
  8608 ;;      Temps:          0       1       0       0       0
  8609 ;;      Totals:         0       5       0       0       0
  8610 ;;Total ram usage:        5 bytes
  8611 ;; Hardware stack levels used:    1
  8612 ;; Hardware stack levels required when called:    2
  8613 ;; This function calls:
  8614 ;;		___flpack
  8615 ;; This function is called by:
  8616 ;;		_pow
  8617 ;; This function uses a non-reentrant model
  8618 ;;
  8619                           
  8620                           
  8621                           ;psect for function ___lltofl
  8622  0000'                    ___lltofl:	
  8623                           
  8624                           ;incstack = 0
  8625                           ; Regs used in ___lltofl: [wreg+status,2+status,0+pclath+cstack]
  8626  0000' 1283               	bcf	3,5	;RP0=0, select bank0
  8627  0001' 1303               	bcf	3,6	;RP1=0, select bank0
  8628  0002' 080D'              	movf	___lltofl@c+3,w
  8629  0003' 0083'              	movwf	___flpack@arg+3
  8630  0004' 080C'              	movf	___lltofl@c+2,w
  8631  0005' 0082'              	movwf	___flpack@arg+2
  8632  0006' 080B'              	movf	___lltofl@c+1,w
  8633  0007' 0081'              	movwf	___flpack@arg+1
  8634  0008' 080A'              	movf	___lltofl@c,w
  8635  0009' 0080'              	movwf	___flpack@arg
  8636  000A' 3096               	movlw	150
  8637  000B' 008E'              	movwf	??___lltofl
  8638  000C' 080E'              	movf	??___lltofl,w
  8639  000D' 0084'              	movwf	___flpack@exp
  8640  000E' 0185'              	clrf	___flpack@sign
  8641  000F' 120A' 118A' 2000'  	fcall	___flpack
  8642  0012' 1283               	bcf	3,5	;RP0=0, select bank0
  8643  0013' 1303               	bcf	3,6	;RP1=0, select bank0
  8644  0014' 0803'              	movf	?___flpack+3,w
  8645  0015' 008D'              	movwf	?___lltofl+3
  8646  0016' 0802'              	movf	?___flpack+2,w
  8647  0017' 008C'              	movwf	?___lltofl+2
  8648  0018' 0801'              	movf	?___flpack+1,w
  8649  0019' 008B'              	movwf	?___lltofl+1
  8650  001A' 0800'              	movf	?___flpack,w
  8651  001B' 008A'              	movwf	?___lltofl
  8652  001C' 0008               	return
  8653  001D'                    __end_of___lltofl:	
  8654                           
  8655                           	psect	text22
  8656  0000'                    __ptext22:	
  8657 ;; *************** function _format_putchar *****************
  8658 ;; Defined at:
  8659 ;;		line 6 in file "../../../lib/format.c"
  8660 ;; Parameters:    Size  Location     Type
  8661 ;;  c               1    4[BANK0 ] unsigned char 
  8662 ;; Auto vars:     Size  Location     Type
  8663 ;;		None
  8664 ;; Return value:  Size  Location     Type
  8665 ;;		None               void
  8666 ;; Registers used:
  8667 ;;		None
  8668 ;; Tracked objects:
  8669 ;;		On entry : 0/0
  8670 ;;		On exit  : 0/0
  8671 ;;		Unchanged: 0/0
  8672 ;; Data sizes:     COMMON   BANK0   BANK1   BANK3   BANK2
  8673 ;;      Params:         0       1       0       0       0
  8674 ;;      Locals:         0       0       0       0       0
  8675 ;;      Temps:          0       0       0       0       0
  8676 ;;      Totals:         0       1       0       0       0
  8677 ;;Total ram usage:        1 bytes
  8678 ;; Hardware stack levels used:    1
  8679 ;; Hardware stack levels required when called:    1
  8680 ;; This function calls:
  8681 ;;		Nothing
  8682 ;; This function is called by:
  8683 ;;		_format_number
  8684 ;;		_format_xint32
  8685 ;;		_format_double
  8686 ;;		_format_float
  8687 ;; This function uses a non-reentrant model
  8688 ;;
  8689                           
  8690                           
  8691                           ;psect for function _format_putchar
  8692  0000'                    _format_putchar:	
  8693                           
  8694                           ;format.c: 7: return;
  8695                           
  8696                           ;incstack = 0
  8697                           ; Regs used in _format_putchar: []
  8698  0000' 0008               	return
  8699  0001'                    __end_of_format_putchar:	
  8700                           
  8701                           	psect	text23
  8702  0000'                    __ptext23:	
  8703 ;; *************** function _ser_putch *****************
  8704 ;; Defined at:
  8705 ;;		line 82 in file "../../../lib/ser.c"
  8706 ;; Parameters:    Size  Location     Type
  8707 ;;  c               1    4[BANK0 ] unsigned char 
  8708 ;; Auto vars:     Size  Location     Type
  8709 ;;		None
  8710 ;; Return value:  Size  Location     Type
  8711 ;;		None               void
  8712 ;; Registers used:
  8713 ;;		wreg, fsr0l, fsr0h, status,2, status,0
  8714 ;; Tracked objects:
  8715 ;;		On entry : 0/0
  8716 ;;		On exit  : 0/0
  8717 ;;		Unchanged: 0/0
  8718 ;; Data sizes:     COMMON   BANK0   BANK1   BANK3   BANK2
  8719 ;;      Params:         0       1       0       0       0
  8720 ;;      Locals:         0       0       0       0       0
  8721 ;;      Temps:          0       1       0       0       0
  8722 ;;      Totals:         0       2       0       0       0
  8723 ;;Total ram usage:        2 bytes
  8724 ;; Hardware stack levels used:    1
  8725 ;; Hardware stack levels required when called:    1
  8726 ;; This function calls:
  8727 ;;		Nothing
  8728 ;; This function is called by:
  8729 ;;		_ser_puts
  8730 ;;		_output_putch
  8731 ;;		_measure_capacitance
  8732 ;;		_ser_put
  8733 ;;		_ser_puts2
  8734 ;;		_ser_puthex
  8735 ;;		_format_number
  8736 ;;		_format_xint32
  8737 ;;		_format_double
  8738 ;;		_format_float
  8739 ;; This function uses a non-reentrant model
  8740 ;;
  8741                           
  8742                           
  8743                           ;psect for function _ser_putch
  8744  0000'                    _ser_putch:	
  8745  0000'                    l3548:	
  8746                           ;ser.c: 83: while(((txiptr + 1) & ((unsigned char)16 - 1)) == txoptr) continue;
  8747                           
  8748                           ;incstack = 0
  8749                           ; Regs used in _ser_putch: [wreg-fsr0h+status,2+status,0]
  8750                           
  8751  0000' 0802'              	movf	_txiptr,w	;volatile
  8752  0001' 3E01               	addlw	1
  8753  0002' 390F               	andlw	15
  8754  0003' 0603'              	xorwf	_txoptr,w	;volatile
  8755  0004' 1903               	skipnz
  8756  0005' 2800'              	goto	l3548
  8757                           
  8758                           ;ser.c: 84: GIE = 0;
  8759  0006' 138B               	bcf	11,7	;volatile
  8760                           
  8761                           ;ser.c: 85: txfifo[txiptr] = c;
  8762  0007' 1283               	bcf	3,5	;RP0=0, select bank0
  8763  0008' 1303               	bcf	3,6	;RP1=0, select bank0
  8764  0009' 0804'              	movf	ser_putch@c,w
  8765  000A' 0081'              	movwf	??_ser_putch
  8766  000B' 0802'              	movf	_txiptr,w
  8767  000C' 3E00'              	addlw	(low (_txfifo| (0+256)))& (0+255)
  8768  000D' 0084               	movwf	4
  8769  000E' 0801'              	movf	??_ser_putch,w
  8770  000F' 1783               	bsf	3,7	;select IRP bank2
  8771  0010' 0080               	movwf	0
  8772                           
  8773                           ;ser.c: 86: txiptr = (txiptr + 1) & ((unsigned char)16 - 1);
  8774  0011' 0802'              	movf	_txiptr,w	;volatile
  8775  0012' 3E01               	addlw	1
  8776  0013' 390F               	andlw	15
  8777  0014' 0081'              	movwf	??_ser_putch
  8778  0015' 0801'              	movf	??_ser_putch,w
  8779  0016' 0082'              	movwf	_txiptr	;volatile
  8780                           
  8781                           ;ser.c: 87: TXIE = 1;
  8782  0017' 1683               	bsf	3,5	;RP0=1, select bank1
  8783  0018' 1303               	bcf	3,6	;RP1=0, select bank1
  8784  0019' 160C               	bsf	12,4	;volatile
  8785                           
  8786                           ;ser.c: 88: GIE = 1;
  8787  001A' 178B               	bsf	11,7	;volatile
  8788  001B' 0008               	return
  8789  001C'                    __end_of_ser_putch:	
  8790                           
  8791                           	psect	text24
  8792  0000'                    __ptext24:	
  8793 ;; *************** function _output_putch *****************
  8794 ;; Defined at:
  8795 ;;		line 48 in file "../../../src/LC-meter.c"
  8796 ;; Parameters:    Size  Location     Type
  8797 ;;  c               1    4[BANK0 ] unsigned char 
  8798 ;; Auto vars:     Size  Location     Type
  8799 ;;		None
  8800 ;; Return value:  Size  Location     Type
  8801 ;;		None               void
  8802 ;; Registers used:
  8803 ;;		wreg, fsr0l, fsr0h, status,2, status,0, pclath, cstack
  8804 ;; Tracked objects:
  8805 ;;		On entry : 0/0
  8806 ;;		On exit  : 0/0
  8807 ;;		Unchanged: 0/0
  8808 ;; Data sizes:     COMMON   BANK0   BANK1   BANK3   BANK2
  8809 ;;      Params:         0       1       0       0       0
  8810 ;;      Locals:         0       0       0       0       0
  8811 ;;      Temps:          0       1       0       0       0
  8812 ;;      Totals:         0       2       0       0       0
  8813 ;;Total ram usage:        2 bytes
  8814 ;; Hardware stack levels used:    1
  8815 ;; Hardware stack levels required when called:    2
  8816 ;; This function calls:
  8817 ;;		_ser_putch
  8818 ;; This function is called by:
  8819 ;;		_measure_capacitance
  8820 ;;		_put_str
  8821 ;;		_format_number
  8822 ;;		_format_xint32
  8823 ;;		_format_double
  8824 ;;		_format_float
  8825 ;; This function uses a non-reentrant model
  8826 ;;
  8827                           
  8828                           
  8829                           ;psect for function _output_putch
  8830  0000'                    _output_putch:	
  8831                           
  8832                           ;LC-meter.c: 54: ser_putch(c);
  8833                           
  8834                           ;incstack = 0
  8835                           ; Regs used in _output_putch: [wreg-fsr0h+status,2+status,0+pclath+cstack]
  8836  0000' 1283               	bcf	3,5	;RP0=0, select bank0
  8837  0001' 1303               	bcf	3,6	;RP1=0, select bank0
  8838  0002' 0804'              	movf	output_putch@c,w
  8839  0003' 0085'              	movwf	??_output_putch
  8840  0004' 0805'              	movf	??_output_putch,w
  8841  0005' 0084'              	movwf	ser_putch@c
  8842  0006' 120A' 118A' 2000'  	fcall	_ser_putch
  8843  0009' 0008               	return
  8844  000A'                    __end_of_output_putch:	
  8845                           
  8846                           	psect	text25
  8847  0000'                    __ptext25:	
  8848 ;; *************** function _log10 *****************
  8849 ;; Defined at:
  8850 ;;		line 39 in file "/opt/microchip/xc8/v1.34/sources/common/log.c"
  8851 ;; Parameters:    Size  Location     Type
  8852 ;;  x               4   13[BANK1 ] unsigned char 
  8853 ;; Auto vars:     Size  Location     Type
  8854 ;;		None
  8855 ;; Return value:  Size  Location     Type
  8856 ;;                  4   13[BANK1 ] unsigned char 
  8857 ;; Registers used:
  8858 ;;		wreg, fsr0l, fsr0h, status,2, status,0, btemp+1, pclath, cstack
  8859 ;; Tracked objects:
  8860 ;;		On entry : 0/0
  8861 ;;		On exit  : 0/0
  8862 ;;		Unchanged: 0/0
  8863 ;; Data sizes:     COMMON   BANK0   BANK1   BANK3   BANK2
  8864 ;;      Params:         0       0       4       0       0
  8865 ;;      Locals:         0       0       4       0       0
  8866 ;;      Temps:          0       0       0       0       0
  8867 ;;      Totals:         0       0       8       0       0
  8868 ;;Total ram usage:        8 bytes
  8869 ;; Hardware stack levels used:    1
  8870 ;; Hardware stack levels required when called:    5
  8871 ;; This function calls:
  8872 ;;		___flmul
  8873 ;;		_log
  8874 ;; This function is called by:
  8875 ;;		_format_double
  8876 ;;		_format_float
  8877 ;; This function uses a non-reentrant model
  8878 ;;
  8879                           
  8880                           
  8881                           ;psect for function _log10
  8882  0000'                    _log10:	
  8883                           
  8884                           ;incstack = 0
  8885                           ; Regs used in _log10: [wreg-fsr0h+status,2+status,0+btemp+1+pclath+cstack]
  8886  0000' 1683               	bsf	3,5	;RP0=1, select bank1
  8887  0001' 1303               	bcf	3,6	;RP1=0, select bank1
  8888  0002' 0800'              	movf	(log10@x+3)^(0+128),w
  8889  0003' 0080'              	movwf	(log@x+3)^(0+128)
  8890  0004' 0800'              	movf	(log10@x+2)^(0+128),w
  8891  0005' 0080'              	movwf	(log@x+2)^(0+128)
  8892  0006' 0800'              	movf	(log10@x+1)^(0+128),w
  8893  0007' 0080'              	movwf	(log@x+1)^(0+128)
  8894  0008' 0800'              	movf	log10@x^(0+128),w
  8895  0009' 0080'              	movwf	log@x^(0+128)
  8896  000A' 120A' 118A' 2000' 120A' 118A' 	fcall	_log
  8897  000F' 1683               	bsf	3,5	;RP0=1, select bank1
  8898  0010' 1303               	bcf	3,6	;RP1=0, select bank1
  8899  0011' 0800'              	movf	(?_log+3)^(0+128),w
  8900  0012' 0080'              	movwf	(_log10$820+3)^(0+128)
  8901  0013' 0800'              	movf	(?_log+2)^(0+128),w
  8902  0014' 0080'              	movwf	(_log10$820+2)^(0+128)
  8903  0015' 0800'              	movf	(?_log+1)^(0+128),w
  8904  0016' 0080'              	movwf	(_log10$820+1)^(0+128)
  8905  0017' 0800'              	movf	?_log^(0+128),w
  8906  0018' 0080'              	movwf	_log10$820^(0+128)
  8907  0019' 303E               	movlw	62
  8908  001A' 1283               	bcf	3,5	;RP0=0, select bank0
  8909  001B' 1303               	bcf	3,6	;RP1=0, select bank0
  8910  001C' 00A1'              	movwf	___flmul@f1+3
  8911  001D' 30DE               	movlw	222
  8912  001E' 00A0'              	movwf	___flmul@f1+2
  8913  001F' 305B               	movlw	91
  8914  0020' 009F'              	movwf	___flmul@f1+1
  8915  0021' 30D9               	movlw	217
  8916  0022' 009E'              	movwf	___flmul@f1
  8917  0023' 1683               	bsf	3,5	;RP0=1, select bank1
  8918  0024' 1303               	bcf	3,6	;RP1=0, select bank1
  8919  0025' 0800'              	movf	(_log10$820+3)^(0+128),w
  8920  0026' 1283               	bcf	3,5	;RP0=0, select bank0
  8921  0027' 1303               	bcf	3,6	;RP1=0, select bank0
  8922  0028' 00A5'              	movwf	___flmul@f2+3
  8923  0029' 1683               	bsf	3,5	;RP0=1, select bank1
  8924  002A' 1303               	bcf	3,6	;RP1=0, select bank1
  8925  002B' 0800'              	movf	(_log10$820+2)^(0+128),w
  8926  002C' 1283               	bcf	3,5	;RP0=0, select bank0
  8927  002D' 1303               	bcf	3,6	;RP1=0, select bank0
  8928  002E' 00A4'              	movwf	___flmul@f2+2
  8929  002F' 1683               	bsf	3,5	;RP0=1, select bank1
  8930  0030' 1303               	bcf	3,6	;RP1=0, select bank1
  8931  0031' 0800'              	movf	(_log10$820+1)^(0+128),w
  8932  0032' 1283               	bcf	3,5	;RP0=0, select bank0
  8933  0033' 1303               	bcf	3,6	;RP1=0, select bank0
  8934  0034' 00A3'              	movwf	___flmul@f2+1
  8935  0035' 1683               	bsf	3,5	;RP0=1, select bank1
  8936  0036' 1303               	bcf	3,6	;RP1=0, select bank1
  8937  0037' 0800'              	movf	_log10$820^(0+128),w
  8938  0038' 1283               	bcf	3,5	;RP0=0, select bank0
  8939  0039' 1303               	bcf	3,6	;RP1=0, select bank0
  8940  003A' 00A2'              	movwf	___flmul@f2
  8941  003B' 120A' 118A' 2000'  	fcall	___flmul
  8942  003E' 1283               	bcf	3,5	;RP0=0, select bank0
  8943  003F' 1303               	bcf	3,6	;RP1=0, select bank0
  8944  0040' 0821'              	movf	?___flmul+3,w
  8945  0041' 1683               	bsf	3,5	;RP0=1, select bank1
  8946  0042' 1303               	bcf	3,6	;RP1=0, select bank1
  8947  0043' 0080'              	movwf	(?_log10+3)^(0+128)
  8948  0044' 1283               	bcf	3,5	;RP0=0, select bank0
  8949  0045' 1303               	bcf	3,6	;RP1=0, select bank0
  8950  0046' 0820'              	movf	?___flmul+2,w
  8951  0047' 1683               	bsf	3,5	;RP0=1, select bank1
  8952  0048' 1303               	bcf	3,6	;RP1=0, select bank1
  8953  0049' 0080'              	movwf	(?_log10+2)^(0+128)
  8954  004A' 1283               	bcf	3,5	;RP0=0, select bank0
  8955  004B' 1303               	bcf	3,6	;RP1=0, select bank0
  8956  004C' 081F'              	movf	?___flmul+1,w
  8957  004D' 1683               	bsf	3,5	;RP0=1, select bank1
  8958  004E' 1303               	bcf	3,6	;RP1=0, select bank1
  8959  004F' 0080'              	movwf	(?_log10+1)^(0+128)
  8960  0050' 1283               	bcf	3,5	;RP0=0, select bank0
  8961  0051' 1303               	bcf	3,6	;RP1=0, select bank0
  8962  0052' 081E'              	movf	?___flmul,w
  8963  0053' 1683               	bsf	3,5	;RP0=1, select bank1
  8964  0054' 1303               	bcf	3,6	;RP1=0, select bank1
  8965  0055' 0080'              	movwf	?_log10^(0+128)
  8966  0056' 0008               	return
  8967  0057'                    __end_of_log10:	
  8968                           
  8969                           	psect	text26
  8970  0000'                    __ptext26:	
  8971 ;; *************** function _log *****************
  8972 ;; Defined at:
  8973 ;;		line 5 in file "/opt/microchip/xc8/v1.34/sources/common/log.c"
  8974 ;; Parameters:    Size  Location     Type
  8975 ;;  x               4    9[BANK1 ] unsigned char 
  8976 ;; Auto vars:     Size  Location     Type
  8977 ;;  exponent        2   78[BANK0 ] int 
  8978 ;; Return value:  Size  Location     Type
  8979 ;;                  4    9[BANK1 ] int 
  8980 ;; Registers used:
  8981 ;;		wreg, fsr0l, fsr0h, status,2, status,0, btemp+1, pclath, cstack
  8982 ;; Tracked objects:
  8983 ;;		On entry : 0/0
  8984 ;;		On exit  : 0/0
  8985 ;;		Unchanged: 0/0
  8986 ;; Data sizes:     COMMON   BANK0   BANK1   BANK3   BANK2
  8987 ;;      Params:         0       0       4       0       0
  8988 ;;      Locals:         0       2       0       0       0
  8989 ;;      Temps:          0       1       0       0       0
  8990 ;;      Totals:         0       3       4       0       0
  8991 ;;Total ram usage:        7 bytes
  8992 ;; Hardware stack levels used:    1
  8993 ;; Hardware stack levels required when called:    4
  8994 ;; This function calls:
  8995 ;;		___awtofl
  8996 ;;		___fladd
  8997 ;;		___flge
  8998 ;;		___flmul
  8999 ;;		_eval_poly
  9000 ;;		_frexp
  9001 ;; This function is called by:
  9002 ;;		_log10
  9003 ;;		_pow
  9004 ;; This function uses a non-reentrant model
  9005 ;;
  9006                           
  9007                           
  9008                           ;psect for function _log
  9009  0000'                    _log:	
  9010                           
  9011                           ;incstack = 0
  9012                           ; Regs used in _log: [wreg-fsr0h+status,2+status,0+btemp+1+pclath+cstack]
  9013  0000' 1683               	bsf	3,5	;RP0=1, select bank1
  9014  0001' 1303               	bcf	3,6	;RP1=0, select bank1
  9015  0002' 0800'              	movf	(log@x+3)^(0+128),w
  9016  0003' 1283               	bcf	3,5	;RP0=0, select bank0
  9017  0004' 1303               	bcf	3,6	;RP1=0, select bank0
  9018  0005' 0083'              	movwf	___flge@ff1+3
  9019  0006' 1683               	bsf	3,5	;RP0=1, select bank1
  9020  0007' 1303               	bcf	3,6	;RP1=0, select bank1
  9021  0008' 0800'              	movf	(log@x+2)^(0+128),w
  9022  0009' 1283               	bcf	3,5	;RP0=0, select bank0
  9023  000A' 1303               	bcf	3,6	;RP1=0, select bank0
  9024  000B' 0082'              	movwf	___flge@ff1+2
  9025  000C' 1683               	bsf	3,5	;RP0=1, select bank1
  9026  000D' 1303               	bcf	3,6	;RP1=0, select bank1
  9027  000E' 0800'              	movf	(log@x+1)^(0+128),w
  9028  000F' 1283               	bcf	3,5	;RP0=0, select bank0
  9029  0010' 1303               	bcf	3,6	;RP1=0, select bank0
  9030  0011' 0081'              	movwf	___flge@ff1+1
  9031  0012' 1683               	bsf	3,5	;RP0=1, select bank1
  9032  0013' 1303               	bcf	3,6	;RP1=0, select bank1
  9033  0014' 0800'              	movf	log@x^(0+128),w
  9034  0015' 1283               	bcf	3,5	;RP0=0, select bank0
  9035  0016' 1303               	bcf	3,6	;RP1=0, select bank0
  9036  0017' 0080'              	movwf	___flge@ff1
  9037  0018' 3000               	movlw	0
  9038  0019' 0087'              	movwf	___flge@ff2+3
  9039  001A' 3000               	movlw	0
  9040  001B' 0086'              	movwf	___flge@ff2+2
  9041  001C' 3000               	movlw	0
  9042  001D' 0085'              	movwf	___flge@ff2+1
  9043  001E' 3000               	movlw	0
  9044  001F' 0084'              	movwf	___flge@ff2
  9045  0020' 120A' 118A' 2000' 120A' 118A' 	fcall	___flge
  9046  0025' 1803               	btfsc	3,0
  9047  0026' 2800'              	goto	l3714
  9048  0027' 3021               	movlw	33
  9049  0028' 1683               	bsf	3,5	;RP0=1, select bank3
  9050  0029' 1703               	bsf	3,6	;RP1=1, select bank3
  9051  002A' 0080'              	movwf	_errno^(0+384)
  9052  002B' 3000               	movlw	0
  9053  002C' 0081'              	movwf	(_errno^(0+384)+1)
  9054  002D' 3000               	movlw	0
  9055  002E' 1683               	bsf	3,5	;RP0=1, select bank1
  9056  002F' 1303               	bcf	3,6	;RP1=0, select bank1
  9057  0030' 0080'              	movwf	(?_log+3)^(0+128)
  9058  0031' 3000               	movlw	0
  9059  0032' 0080'              	movwf	(?_log+2)^(0+128)
  9060  0033' 3000               	movlw	0
  9061  0034' 0080'              	movwf	(?_log+1)^(0+128)
  9062  0035' 3000               	movlw	0
  9063  0036' 0080'              	movwf	?_log^(0+128)
  9064  0037' 0008               	return
  9065  0038'                    l3714:	
  9066  0038' 1683               	bsf	3,5	;RP0=1, select bank1
  9067  0039' 1303               	bcf	3,6	;RP1=0, select bank1
  9068  003A' 0800'              	movf	(log@x+3)^(0+128),w
  9069  003B' 0400'              	iorwf	(log@x+2)^(0+128),w
  9070  003C' 0400'              	iorwf	(log@x+1)^(0+128),w
  9071  003D' 0400'              	iorwf	log@x^(0+128),w
  9072  003E' 1D03               	skipz
  9073  003F' 2800'              	goto	l3720
  9074  0040' 3022               	movlw	34
  9075  0041' 1683               	bsf	3,5	;RP0=1, select bank3
  9076  0042' 1703               	bsf	3,6	;RP1=1, select bank3
  9077  0043' 0080'              	movwf	_errno^(0+384)
  9078  0044' 3000               	movlw	0
  9079  0045' 0081'              	movwf	(_errno^(0+384)+1)
  9080  0046' 3000               	movlw	0
  9081  0047' 1683               	bsf	3,5	;RP0=1, select bank1
  9082  0048' 1303               	bcf	3,6	;RP1=0, select bank1
  9083  0049' 0080'              	movwf	(?_log+3)^(0+128)
  9084  004A' 3000               	movlw	0
  9085  004B' 0080'              	movwf	(?_log+2)^(0+128)
  9086  004C' 3000               	movlw	0
  9087  004D' 0080'              	movwf	(?_log+1)^(0+128)
  9088  004E' 3000               	movlw	0
  9089  004F' 0080'              	movwf	?_log^(0+128)
  9090  0050' 0008               	return
  9091  0051'                    l3720:	
  9092  0051' 30BF               	movlw	191
  9093  0052' 1283               	bcf	3,5	;RP0=0, select bank0
  9094  0053' 1303               	bcf	3,6	;RP1=0, select bank0
  9095  0054' 00B9'              	movwf	___fladd@f1+3
  9096  0055' 3080               	movlw	128
  9097  0056' 00B8'              	movwf	___fladd@f1+2
  9098  0057' 3000               	movlw	0
  9099  0058' 00B7'              	movwf	___fladd@f1+1
  9100  0059' 3000               	movlw	0
  9101  005A' 00B6'              	movwf	___fladd@f1
  9102  005B' 3040               	movlw	64
  9103  005C' 00A1'              	movwf	___flmul@f1+3
  9104  005D' 3000               	movlw	0
  9105  005E' 00A0'              	movwf	___flmul@f1+2
  9106  005F' 3000               	movlw	0
  9107  0060' 009F'              	movwf	___flmul@f1+1
  9108  0061' 3000               	movlw	0
  9109  0062' 009E'              	movwf	___flmul@f1
  9110  0063' 3000'              	movlw	(low (log@exponent| 0))& (0+255)
  9111  0064' 00CD'              	movwf	??_log
  9112  0065' 084D'              	movf	??_log,w
  9113  0066' 0084'              	movwf	frexp@eptr
  9114  0067' 1683               	bsf	3,5	;RP0=1, select bank1
  9115  0068' 1303               	bcf	3,6	;RP1=0, select bank1
  9116  0069' 0800'              	movf	(log@x+3)^(0+128),w
  9117  006A' 1283               	bcf	3,5	;RP0=0, select bank0
  9118  006B' 1303               	bcf	3,6	;RP1=0, select bank0
  9119  006C' 0083'              	movwf	frexp@value+3
  9120  006D' 1683               	bsf	3,5	;RP0=1, select bank1
  9121  006E' 1303               	bcf	3,6	;RP1=0, select bank1
  9122  006F' 0800'              	movf	(log@x+2)^(0+128),w
  9123  0070' 1283               	bcf	3,5	;RP0=0, select bank0
  9124  0071' 1303               	bcf	3,6	;RP1=0, select bank0
  9125  0072' 0082'              	movwf	frexp@value+2
  9126  0073' 1683               	bsf	3,5	;RP0=1, select bank1
  9127  0074' 1303               	bcf	3,6	;RP1=0, select bank1
  9128  0075' 0800'              	movf	(log@x+1)^(0+128),w
  9129  0076' 1283               	bcf	3,5	;RP0=0, select bank0
  9130  0077' 1303               	bcf	3,6	;RP1=0, select bank0
  9131  0078' 0081'              	movwf	frexp@value+1
  9132  0079' 1683               	bsf	3,5	;RP0=1, select bank1
  9133  007A' 1303               	bcf	3,6	;RP1=0, select bank1
  9134  007B' 0800'              	movf	log@x^(0+128),w
  9135  007C' 1283               	bcf	3,5	;RP0=0, select bank0
  9136  007D' 1303               	bcf	3,6	;RP1=0, select bank0
  9137  007E' 0080'              	movwf	frexp@value
  9138  007F' 120A' 118A' 2000' 120A' 118A' 	fcall	_frexp
  9139  0084' 1283               	bcf	3,5	;RP0=0, select bank0
  9140  0085' 1303               	bcf	3,6	;RP1=0, select bank0
  9141  0086' 0803'              	movf	?_frexp+3,w
  9142  0087' 00A5'              	movwf	___flmul@f2+3
  9143  0088' 0802'              	movf	?_frexp+2,w
  9144  0089' 00A4'              	movwf	___flmul@f2+2
  9145  008A' 0801'              	movf	?_frexp+1,w
  9146  008B' 00A3'              	movwf	___flmul@f2+1
  9147  008C' 0800'              	movf	?_frexp,w
  9148  008D' 00A2'              	movwf	___flmul@f2
  9149  008E' 120A' 118A' 2000' 120A' 118A' 	fcall	___flmul
  9150  0093' 1283               	bcf	3,5	;RP0=0, select bank0
  9151  0094' 1303               	bcf	3,6	;RP1=0, select bank0
  9152  0095' 0821'              	movf	?___flmul+3,w
  9153  0096' 00BD'              	movwf	___fladd@f2+3
  9154  0097' 0820'              	movf	?___flmul+2,w
  9155  0098' 00BC'              	movwf	___fladd@f2+2
  9156  0099' 081F'              	movf	?___flmul+1,w
  9157  009A' 00BB'              	movwf	___fladd@f2+1
  9158  009B' 081E'              	movf	?___flmul,w
  9159  009C' 00BA'              	movwf	___fladd@f2
  9160  009D' 120A' 118A' 2000' 120A' 118A' 	fcall	___fladd
  9161  00A2' 1283               	bcf	3,5	;RP0=0, select bank0
  9162  00A3' 1303               	bcf	3,6	;RP1=0, select bank0
  9163  00A4' 0839'              	movf	?___fladd+3,w
  9164  00A5' 1683               	bsf	3,5	;RP0=1, select bank1
  9165  00A6' 1303               	bcf	3,6	;RP1=0, select bank1
  9166  00A7' 0080'              	movwf	(log@x+3)^(0+128)
  9167  00A8' 1283               	bcf	3,5	;RP0=0, select bank0
  9168  00A9' 1303               	bcf	3,6	;RP1=0, select bank0
  9169  00AA' 0838'              	movf	?___fladd+2,w
  9170  00AB' 1683               	bsf	3,5	;RP0=1, select bank1
  9171  00AC' 1303               	bcf	3,6	;RP1=0, select bank1
  9172  00AD' 0080'              	movwf	(log@x+2)^(0+128)
  9173  00AE' 1283               	bcf	3,5	;RP0=0, select bank0
  9174  00AF' 1303               	bcf	3,6	;RP1=0, select bank0
  9175  00B0' 0837'              	movf	?___fladd+1,w
  9176  00B1' 1683               	bsf	3,5	;RP0=1, select bank1
  9177  00B2' 1303               	bcf	3,6	;RP1=0, select bank1
  9178  00B3' 0080'              	movwf	(log@x+1)^(0+128)
  9179  00B4' 1283               	bcf	3,5	;RP0=0, select bank0
  9180  00B5' 1303               	bcf	3,6	;RP1=0, select bank0
  9181  00B6' 0836'              	movf	?___fladd,w
  9182  00B7' 1683               	bsf	3,5	;RP0=1, select bank1
  9183  00B8' 1303               	bcf	3,6	;RP1=0, select bank1
  9184  00B9' 0080'              	movwf	log@x^(0+128)
  9185  00BA' 30FF               	movlw	255
  9186  00BB' 1283               	bcf	3,5	;RP0=0, select bank0
  9187  00BC' 1303               	bcf	3,6	;RP1=0, select bank0
  9188  00BD' 07CE'              	addwf	log@exponent,f
  9189  00BE' 1803               	skipnc
  9190  00BF' 0ACF'              	incf	log@exponent+1,f
  9191  00C0' 30FF               	movlw	255
  9192  00C1' 07CF'              	addwf	log@exponent+1,f
  9193  00C2' 1683               	bsf	3,5	;RP0=1, select bank1
  9194  00C3' 1303               	bcf	3,6	;RP1=0, select bank1
  9195  00C4' 0800'              	movf	(log@x+3)^(0+128),w
  9196  00C5' 1283               	bcf	3,5	;RP0=0, select bank0
  9197  00C6' 1303               	bcf	3,6	;RP1=0, select bank0
  9198  00C7' 00C9'              	movwf	eval_poly@x+3
  9199  00C8' 1683               	bsf	3,5	;RP0=1, select bank1
  9200  00C9' 1303               	bcf	3,6	;RP1=0, select bank1
  9201  00CA' 0800'              	movf	(log@x+2)^(0+128),w
  9202  00CB' 1283               	bcf	3,5	;RP0=0, select bank0
  9203  00CC' 1303               	bcf	3,6	;RP1=0, select bank0
  9204  00CD' 00C8'              	movwf	eval_poly@x+2
  9205  00CE' 1683               	bsf	3,5	;RP0=1, select bank1
  9206  00CF' 1303               	bcf	3,6	;RP1=0, select bank1
  9207  00D0' 0800'              	movf	(log@x+1)^(0+128),w
  9208  00D1' 1283               	bcf	3,5	;RP0=0, select bank0
  9209  00D2' 1303               	bcf	3,6	;RP1=0, select bank0
  9210  00D3' 00C7'              	movwf	eval_poly@x+1
  9211  00D4' 1683               	bsf	3,5	;RP0=1, select bank1
  9212  00D5' 1303               	bcf	3,6	;RP1=0, select bank1
  9213  00D6' 0800'              	movf	log@x^(0+128),w
  9214  00D7' 1283               	bcf	3,5	;RP0=0, select bank0
  9215  00D8' 1303               	bcf	3,6	;RP1=0, select bank0
  9216  00D9' 00C6'              	movwf	eval_poly@x
  9217  00DA' 3029               	movlw	(low ((log@coeff-__stringbase)| (0+32768)))& (0+255)
  9218  00DB' 00CD'              	movwf	??_log
  9219  00DC' 084D'              	movf	??_log,w
  9220  00DD' 00CA'              	movwf	eval_poly@d
  9221  00DE' 3008               	movlw	8
  9222  00DF' 00CB'              	movwf	eval_poly@n
  9223  00E0' 3000               	movlw	0
  9224  00E1' 00CC'              	movwf	eval_poly@n+1
  9225  00E2' 120A' 118A' 2000' 120A' 118A' 	fcall	_eval_poly
  9226  00E7' 1283               	bcf	3,5	;RP0=0, select bank0
  9227  00E8' 1303               	bcf	3,6	;RP1=0, select bank0
  9228  00E9' 0849'              	movf	?_eval_poly+3,w
  9229  00EA' 1683               	bsf	3,5	;RP0=1, select bank1
  9230  00EB' 1303               	bcf	3,6	;RP1=0, select bank1
  9231  00EC' 0080'              	movwf	(log@x+3)^(0+128)
  9232  00ED' 1283               	bcf	3,5	;RP0=0, select bank0
  9233  00EE' 1303               	bcf	3,6	;RP1=0, select bank0
  9234  00EF' 0848'              	movf	?_eval_poly+2,w
  9235  00F0' 1683               	bsf	3,5	;RP0=1, select bank1
  9236  00F1' 1303               	bcf	3,6	;RP1=0, select bank1
  9237  00F2' 0080'              	movwf	(log@x+2)^(0+128)
  9238  00F3' 1283               	bcf	3,5	;RP0=0, select bank0
  9239  00F4' 1303               	bcf	3,6	;RP1=0, select bank0
  9240  00F5' 0847'              	movf	?_eval_poly+1,w
  9241  00F6' 1683               	bsf	3,5	;RP0=1, select bank1
  9242  00F7' 1303               	bcf	3,6	;RP1=0, select bank1
  9243  00F8' 0080'              	movwf	(log@x+1)^(0+128)
  9244  00F9' 1283               	bcf	3,5	;RP0=0, select bank0
  9245  00FA' 1303               	bcf	3,6	;RP1=0, select bank0
  9246  00FB' 0846'              	movf	?_eval_poly,w
  9247  00FC' 1683               	bsf	3,5	;RP0=1, select bank1
  9248  00FD' 1303               	bcf	3,6	;RP1=0, select bank1
  9249  00FE' 0080'              	movwf	log@x^(0+128)
  9250  00FF' 0800'              	movf	(log@x+3)^(0+128),w
  9251  0100' 1283               	bcf	3,5	;RP0=0, select bank0
  9252  0101' 1303               	bcf	3,6	;RP1=0, select bank0
  9253  0102' 00B9'              	movwf	___fladd@f1+3
  9254  0103' 1683               	bsf	3,5	;RP0=1, select bank1
  9255  0104' 1303               	bcf	3,6	;RP1=0, select bank1
  9256  0105' 0800'              	movf	(log@x+2)^(0+128),w
  9257  0106' 1283               	bcf	3,5	;RP0=0, select bank0
  9258  0107' 1303               	bcf	3,6	;RP1=0, select bank0
  9259  0108' 00B8'              	movwf	___fladd@f1+2
  9260  0109' 1683               	bsf	3,5	;RP0=1, select bank1
  9261  010A' 1303               	bcf	3,6	;RP1=0, select bank1
  9262  010B' 0800'              	movf	(log@x+1)^(0+128),w
  9263  010C' 1283               	bcf	3,5	;RP0=0, select bank0
  9264  010D' 1303               	bcf	3,6	;RP1=0, select bank0
  9265  010E' 00B7'              	movwf	___fladd@f1+1
  9266  010F' 1683               	bsf	3,5	;RP0=1, select bank1
  9267  0110' 1303               	bcf	3,6	;RP1=0, select bank1
  9268  0111' 0800'              	movf	log@x^(0+128),w
  9269  0112' 1283               	bcf	3,5	;RP0=0, select bank0
  9270  0113' 1303               	bcf	3,6	;RP1=0, select bank0
  9271  0114' 00B6'              	movwf	___fladd@f1
  9272  0115' 303F               	movlw	63
  9273  0116' 00A1'              	movwf	___flmul@f1+3
  9274  0117' 3031               	movlw	49
  9275  0118' 00A0'              	movwf	___flmul@f1+2
  9276  0119' 3072               	movlw	114
  9277  011A' 009F'              	movwf	___flmul@f1+1
  9278  011B' 3018               	movlw	24
  9279  011C' 009E'              	movwf	___flmul@f1
  9280  011D' 084F'              	movf	log@exponent+1,w
  9281  011E' 008B'              	movwf	___awtofl@c+1
  9282  011F' 084E'              	movf	log@exponent,w
  9283  0120' 008A'              	movwf	___awtofl@c
  9284  0121' 120A' 118A' 2000' 120A' 118A' 	fcall	___awtofl
  9285  0126' 1283               	bcf	3,5	;RP0=0, select bank0
  9286  0127' 1303               	bcf	3,6	;RP1=0, select bank0
  9287  0128' 080D'              	movf	?___awtofl+3,w
  9288  0129' 00A5'              	movwf	___flmul@f2+3
  9289  012A' 080C'              	movf	?___awtofl+2,w
  9290  012B' 00A4'              	movwf	___flmul@f2+2
  9291  012C' 080B'              	movf	?___awtofl+1,w
  9292  012D' 00A3'              	movwf	___flmul@f2+1
  9293  012E' 080A'              	movf	?___awtofl,w
  9294  012F' 00A2'              	movwf	___flmul@f2
  9295  0130' 120A' 118A' 2000' 120A' 118A' 	fcall	___flmul
  9296  0135' 1283               	bcf	3,5	;RP0=0, select bank0
  9297  0136' 1303               	bcf	3,6	;RP1=0, select bank0
  9298  0137' 0821'              	movf	?___flmul+3,w
  9299  0138' 00BD'              	movwf	___fladd@f2+3
  9300  0139' 0820'              	movf	?___flmul+2,w
  9301  013A' 00BC'              	movwf	___fladd@f2+2
  9302  013B' 081F'              	movf	?___flmul+1,w
  9303  013C' 00BB'              	movwf	___fladd@f2+1
  9304  013D' 081E'              	movf	?___flmul,w
  9305  013E' 00BA'              	movwf	___fladd@f2
  9306  013F' 120A' 118A' 2000'  	fcall	___fladd
  9307  0142' 1283               	bcf	3,5	;RP0=0, select bank0
  9308  0143' 1303               	bcf	3,6	;RP1=0, select bank0
  9309  0144' 0839'              	movf	?___fladd+3,w
  9310  0145' 1683               	bsf	3,5	;RP0=1, select bank1
  9311  0146' 1303               	bcf	3,6	;RP1=0, select bank1
  9312  0147' 0080'              	movwf	(?_log+3)^(0+128)
  9313  0148' 1283               	bcf	3,5	;RP0=0, select bank0
  9314  0149' 1303               	bcf	3,6	;RP1=0, select bank0
  9315  014A' 0838'              	movf	?___fladd+2,w
  9316  014B' 1683               	bsf	3,5	;RP0=1, select bank1
  9317  014C' 1303               	bcf	3,6	;RP1=0, select bank1
  9318  014D' 0080'              	movwf	(?_log+2)^(0+128)
  9319  014E' 1283               	bcf	3,5	;RP0=0, select bank0
  9320  014F' 1303               	bcf	3,6	;RP1=0, select bank0
  9321  0150' 0837'              	movf	?___fladd+1,w
  9322  0151' 1683               	bsf	3,5	;RP0=1, select bank1
  9323  0152' 1303               	bcf	3,6	;RP1=0, select bank1
  9324  0153' 0080'              	movwf	(?_log+1)^(0+128)
  9325  0154' 1283               	bcf	3,5	;RP0=0, select bank0
  9326  0155' 1303               	bcf	3,6	;RP1=0, select bank0
  9327  0156' 0836'              	movf	?___fladd,w
  9328  0157' 1683               	bsf	3,5	;RP0=1, select bank1
  9329  0158' 1303               	bcf	3,6	;RP1=0, select bank1
  9330  0159' 0080'              	movwf	?_log^(0+128)
  9331  015A' 0008               	return
  9332  015B'                    __end_of_log:	
  9333                           
  9334                           	psect	text27
  9335  0000'                    __ptext27:	
  9336 ;; *************** function _frexp *****************
  9337 ;; Defined at:
  9338 ;;		line 254 in file "/opt/microchip/xc8/v1.34/sources/common/frexp.c"
  9339 ;; Parameters:    Size  Location     Type
  9340 ;;  value           4    0[BANK0 ] int 
  9341 ;;  eptr            1    4[BANK0 ] PTR int 
  9342 ;;		 -> log@exponent(2), floor@expon(2), 
  9343 ;; Auto vars:     Size  Location     Type
  9344 ;;		None
  9345 ;; Return value:  Size  Location     Type
  9346 ;;                  4    0[BANK0 ] PTR int 
  9347 ;; Registers used:
  9348 ;;		wreg, fsr0l, fsr0h, status,2, status,0, btemp+1
  9349 ;; Tracked objects:
  9350 ;;		On entry : 0/0
  9351 ;;		On exit  : 0/0
  9352 ;;		Unchanged: 0/0
  9353 ;; Data sizes:     COMMON   BANK0   BANK1   BANK3   BANK2
  9354 ;;      Params:         0       5       0       0       0
  9355 ;;      Locals:         0       0       0       0       0
  9356 ;;      Temps:          0       2       0       0       0
  9357 ;;      Totals:         0       7       0       0       0
  9358 ;;Total ram usage:        7 bytes
  9359 ;; Hardware stack levels used:    1
  9360 ;; Hardware stack levels required when called:    1
  9361 ;; This function calls:
  9362 ;;		Nothing
  9363 ;; This function is called by:
  9364 ;;		_floor
  9365 ;;		_log
  9366 ;; This function uses a non-reentrant model
  9367 ;;
  9368                           
  9369                           
  9370                           ;psect for function _frexp
  9371  0000'                    _frexp:	
  9372                           
  9373                           ;incstack = 0
  9374                           ; Regs used in _frexp: [wreg-fsr0h+status,2+status,0+btemp+1]
  9375  0000' 1283               	bcf	3,5	;RP0=0, select bank0
  9376  0001' 1303               	bcf	3,6	;RP1=0, select bank0
  9377  0002' 0803'              	movf	frexp@value+3,w
  9378  0003' 0402'              	iorwf	frexp@value+2,w
  9379  0004' 0401'              	iorwf	frexp@value+1,w
  9380  0005' 0400'              	iorwf	frexp@value,w
  9381  0006' 1D03               	skipz
  9382  0007' 2800'              	goto	l3534
  9383  0008' 0804'              	movf	frexp@eptr,w
  9384  0009' 0084               	movwf	4
  9385  000A' 1383               	bcf	3,7	;select IRP bank0
  9386  000B' 0180               	clrf	0
  9387  000C' 0A84               	incf	4,f
  9388  000D' 0180               	clrf	0
  9389  000E' 3000               	movlw	0
  9390  000F' 0083'              	movwf	?_frexp+3
  9391  0010' 3000               	movlw	0
  9392  0011' 0082'              	movwf	?_frexp+2
  9393  0012' 3000               	movlw	0
  9394  0013' 0081'              	movwf	?_frexp+1
  9395  0014' 3000               	movlw	0
  9396  0015' 0080'              	movwf	?_frexp
  9397  0016' 0008               	return
  9398  0017'                    l3534:	
  9399  0017' 0803'              	movf	frexp@value+3,w
  9400  0018' 397F               	andlw	127
  9401  0019' 0085'              	movwf	??_frexp
  9402  001A' 0186'              	clrf	??_frexp+1
  9403  001B' 1003               	clrc
  9404  001C' 0D85'              	rlf	??_frexp,f
  9405  001D' 0D86'              	rlf	??_frexp+1,f
  9406  001E' 0804'              	movf	frexp@eptr,w
  9407  001F' 0084               	movwf	4
  9408  0020' 0805'              	movf	??_frexp,w
  9409  0021' 1383               	bcf	3,7	;select IRP bank0
  9410  0022' 0080               	movwf	0
  9411  0023' 0A84               	incf	4,f
  9412  0024' 0806'              	movf	??_frexp+1,w
  9413  0025' 0080               	movwf	0
  9414  0026' 0D02'              	rlf	frexp@value+2,w
  9415  0027' 0D02'              	rlf	frexp@value+2,w
  9416  0028' 3901               	andlw	1
  9417  0029' 0085'              	movwf	??_frexp
  9418  002A' 0186'              	clrf	??_frexp+1
  9419  002B' 0804'              	movf	frexp@eptr,w
  9420  002C' 0084               	movwf	4
  9421  002D' 0805'              	movf	??_frexp,w
  9422  002E' 0480               	iorwf	0,f
  9423  002F' 0A84               	incf	4,f
  9424  0030' 0806'              	movf	??_frexp+1,w
  9425  0031' 0480               	iorwf	0,f
  9426  0032' 0804'              	movf	frexp@eptr,w
  9427  0033' 0084               	movwf	4
  9428  0034' 3082               	movlw	130
  9429  0035' 0780               	addwf	0,f
  9430  0036' 0F84               	incfsz	4,f
  9431  0037' 0800               	movf	0,w
  9432  0038' 1803               	skipnc
  9433  0039' 0A00               	incf	0,w
  9434  003A' 00FF               	movwf	127
  9435  003B' 30FF               	movlw	255
  9436  003C' 077F               	addwf	127,w
  9437  003D' 0080               	movwf	0
  9438  003E' 0384               	decf	4,f
  9439  003F' 0803'              	movf	frexp@value+3,w
  9440  0040' 3980               	andlw	-128
  9441  0041' 383F               	iorlw	63
  9442  0042' 0083'              	movwf	frexp@value+3
  9443  0043' 1382'              	bcf	frexp@value+2,7
  9444  0044' 0008               	return
  9445  0045'                    __end_of_frexp:	
  9446                           
  9447                           	psect	text28
  9448  0000'                    __ptext28:	
  9449 ;; *************** function _eval_poly *****************
  9450 ;; Defined at:
  9451 ;;		line 4 in file "/opt/microchip/xc8/v1.34/sources/common/evalpoly.c"
  9452 ;; Parameters:    Size  Location     Type
  9453 ;;  x               4   70[BANK0 ] PTR int 
  9454 ;;  d               1   74[BANK0 ] PTR const 
  9455 ;;		 -> exp@coeff(40), log@coeff(36), 
  9456 ;;  n               2   75[BANK0 ] int 
  9457 ;; Auto vars:     Size  Location     Type
  9458 ;;  res             4    5[BANK1 ] int 
  9459 ;; Return value:  Size  Location     Type
  9460 ;;                  4   70[BANK0 ] int 
  9461 ;; Registers used:
  9462 ;;		wreg, fsr0l, fsr0h, status,2, status,0, pclath, cstack
  9463 ;; Tracked objects:
  9464 ;;		On entry : 0/0
  9465 ;;		On exit  : 0/0
  9466 ;;		Unchanged: 0/0
  9467 ;; Data sizes:     COMMON   BANK0   BANK1   BANK3   BANK2
  9468 ;;      Params:         0       7       0       0       0
  9469 ;;      Locals:         0       0       4       0       0
  9470 ;;      Temps:          0       0       5       0       0
  9471 ;;      Totals:         0       7       9       0       0
  9472 ;;Total ram usage:       16 bytes
  9473 ;; Hardware stack levels used:    1
  9474 ;; Hardware stack levels required when called:    3
  9475 ;; This function calls:
  9476 ;;		___fladd
  9477 ;;		___flmul
  9478 ;; This function is called by:
  9479 ;;		_log
  9480 ;;		_exp
  9481 ;; This function uses a non-reentrant model
  9482 ;;
  9483                           
  9484                           
  9485                           ;psect for function _eval_poly
  9486  0000'                    _eval_poly:	
  9487                           
  9488                           ;incstack = 0
  9489 ;; using string table level
  9490                           ; Regs used in _eval_poly: [wreg-fsr0h+status,2+status,0+pclath+cstack]
  9491  0000' 1283               	bcf	3,5	;RP0=0, select bank0
  9492  0001' 1303               	bcf	3,6	;RP1=0, select bank0
  9493  0002' 084B'              	movf	eval_poly@n,w
  9494  0003' 1683               	bsf	3,5	;RP0=1, select bank1
  9495  0004' 1303               	bcf	3,6	;RP1=0, select bank1
  9496  0005' 0080'              	movwf	??_eval_poly^(0+128)
  9497  0006' 3001               	movlw	1
  9498  0007'                    u4565:	
  9499  0007' 1003               	clrc
  9500  0008' 0D80'              	rlf	??_eval_poly^(0+128),f
  9501  0009' 3EFF               	addlw	-1
  9502  000A' 1D03               	skipz
  9503  000B' 2800'              	goto	u4565
  9504  000C' 1003               	clrc
  9505  000D' 0D00'              	rlf	??_eval_poly^(0+128),w
  9506  000E' 1283               	bcf	3,5	;RP0=0, select bank0
  9507  000F' 1303               	bcf	3,6	;RP1=0, select bank0
  9508  0010' 074A'              	addwf	eval_poly@d,w
  9509  0011' 0084               	movwf	4
  9510  0012' 120A' 118A' 2000' 120A' 118A' 	fcall	stringdir
  9511  0017' 1683               	bsf	3,5	;RP0=1, select bank1
  9512  0018' 1303               	bcf	3,6	;RP1=0, select bank1
  9513  0019' 0080'              	movwf	(??_eval_poly+1)^(0+128)
  9514  001A' 120A' 118A' 2000' 120A' 118A' 	fcall	stringdir
  9515  001F' 0081'              	movwf	((??_eval_poly+1)^(0+128)+1)
  9516  0020' 120A' 118A' 2000' 120A' 118A' 	fcall	stringdir
  9517  0025' 0082'              	movwf	((??_eval_poly+1)^(0+128)+2)
  9518  0026' 120A' 118A' 2000' 120A' 118A' 	fcall	stringdir
  9519  002B' 0083'              	movwf	((??_eval_poly+1)^(0+128)+3)
  9520  002C' 0800'              	movf	(??_eval_poly+4)^(0+128),w
  9521  002D' 0080'              	movwf	(eval_poly@res+3)^(0+128)
  9522  002E' 0800'              	movf	(??_eval_poly+3)^(0+128),w
  9523  002F' 0080'              	movwf	(eval_poly@res+2)^(0+128)
  9524  0030' 0800'              	movf	(??_eval_poly+2)^(0+128),w
  9525  0031' 0080'              	movwf	(eval_poly@res+1)^(0+128)
  9526  0032' 0800'              	movf	(??_eval_poly+1)^(0+128),w
  9527  0033'                    L8:	
  9528  0033' 0080'              	movwf	eval_poly@res^(0+128)
  9529  0034' 1283               	bcf	3,5	;RP0=0, select bank0
  9530  0035' 1303               	bcf	3,6	;RP1=0, select bank0
  9531  0036' 084B'              	movf	eval_poly@n,w
  9532  0037' 044C'              	iorwf	eval_poly@n+1,w
  9533  0038' 1903               	btfsc	3,2
  9534  0039' 2800'              	goto	l3696
  9535  003A' 30FF               	movlw	255
  9536  003B' 1283               	bcf	3,5	;RP0=0, select bank0
  9537  003C' 07CB'              	addwf	eval_poly@n,f
  9538  003D' 1803               	skipnc
  9539  003E' 0ACC'              	incf	eval_poly@n+1,f
  9540  003F' 30FF               	movlw	255
  9541  0040' 07CC'              	addwf	eval_poly@n+1,f
  9542  0041' 084B'              	movf	eval_poly@n,w
  9543  0042' 1683               	bsf	3,5	;RP0=1, select bank1
  9544  0043' 1303               	bcf	3,6	;RP1=0, select bank1
  9545  0044' 0080'              	movwf	??_eval_poly^(0+128)
  9546  0045' 3001               	movlw	1
  9547  0046'                    u4575:	
  9548  0046' 1003               	clrc
  9549  0047' 0D80'              	rlf	??_eval_poly^(0+128),f
  9550  0048' 3EFF               	addlw	-1
  9551  0049' 1D03               	skipz
  9552  004A' 2800'              	goto	u4575
  9553  004B' 1003               	clrc
  9554  004C' 0D00'              	rlf	??_eval_poly^(0+128),w
  9555  004D' 1283               	bcf	3,5	;RP0=0, select bank0
  9556  004E' 1303               	bcf	3,6	;RP1=0, select bank0
  9557  004F' 074A'              	addwf	eval_poly@d,w
  9558  0050' 0084               	movwf	4
  9559  0051' 120A' 118A' 2000' 120A' 118A' 	fcall	stringdir
  9560  0056' 1683               	bsf	3,5	;RP0=1, select bank1
  9561  0057' 1303               	bcf	3,6	;RP1=0, select bank1
  9562  0058' 0080'              	movwf	(??_eval_poly+1)^(0+128)
  9563  0059' 120A' 118A' 2000' 120A' 118A' 	fcall	stringdir
  9564  005E' 0081'              	movwf	((??_eval_poly+1)^(0+128)+1)
  9565  005F' 120A' 118A' 2000' 120A' 118A' 	fcall	stringdir
  9566  0064' 0082'              	movwf	((??_eval_poly+1)^(0+128)+2)
  9567  0065' 120A' 118A' 2000' 120A' 118A' 	fcall	stringdir
  9568  006A' 0083'              	movwf	((??_eval_poly+1)^(0+128)+3)
  9569  006B' 0800'              	movf	(??_eval_poly+4)^(0+128),w
  9570  006C' 1283               	bcf	3,5	;RP0=0, select bank0
  9571  006D' 1303               	bcf	3,6	;RP1=0, select bank0
  9572  006E' 00B9'              	movwf	___fladd@f1+3
  9573  006F' 1683               	bsf	3,5	;RP0=1, select bank1
  9574  0070' 1303               	bcf	3,6	;RP1=0, select bank1
  9575  0071' 0800'              	movf	(??_eval_poly+3)^(0+128),w
  9576  0072' 1283               	bcf	3,5	;RP0=0, select bank0
  9577  0073' 1303               	bcf	3,6	;RP1=0, select bank0
  9578  0074' 00B8'              	movwf	___fladd@f1+2
  9579  0075' 1683               	bsf	3,5	;RP0=1, select bank1
  9580  0076' 1303               	bcf	3,6	;RP1=0, select bank1
  9581  0077' 0800'              	movf	(??_eval_poly+2)^(0+128),w
  9582  0078' 1283               	bcf	3,5	;RP0=0, select bank0
  9583  0079' 1303               	bcf	3,6	;RP1=0, select bank0
  9584  007A' 00B7'              	movwf	___fladd@f1+1
  9585  007B' 1683               	bsf	3,5	;RP0=1, select bank1
  9586  007C' 1303               	bcf	3,6	;RP1=0, select bank1
  9587  007D' 0800'              	movf	(??_eval_poly+1)^(0+128),w
  9588  007E' 1283               	bcf	3,5	;RP0=0, select bank0
  9589  007F' 1303               	bcf	3,6	;RP1=0, select bank0
  9590  0080' 00B6'              	movwf	___fladd@f1
  9591  0081' 1683               	bsf	3,5	;RP0=1, select bank1
  9592  0082' 1303               	bcf	3,6	;RP1=0, select bank1
  9593  0083' 0800'              	movf	(eval_poly@res+3)^(0+128),w
  9594  0084' 1283               	bcf	3,5	;RP0=0, select bank0
  9595  0085' 1303               	bcf	3,6	;RP1=0, select bank0
  9596  0086' 00A1'              	movwf	___flmul@f1+3
  9597  0087' 1683               	bsf	3,5	;RP0=1, select bank1
  9598  0088' 1303               	bcf	3,6	;RP1=0, select bank1
  9599  0089' 0800'              	movf	(eval_poly@res+2)^(0+128),w
  9600  008A' 1283               	bcf	3,5	;RP0=0, select bank0
  9601  008B' 1303               	bcf	3,6	;RP1=0, select bank0
  9602  008C' 00A0'              	movwf	___flmul@f1+2
  9603  008D' 1683               	bsf	3,5	;RP0=1, select bank1
  9604  008E' 1303               	bcf	3,6	;RP1=0, select bank1
  9605  008F' 0800'              	movf	(eval_poly@res+1)^(0+128),w
  9606  0090' 1283               	bcf	3,5	;RP0=0, select bank0
  9607  0091' 1303               	bcf	3,6	;RP1=0, select bank0
  9608  0092' 009F'              	movwf	___flmul@f1+1
  9609  0093' 1683               	bsf	3,5	;RP0=1, select bank1
  9610  0094' 1303               	bcf	3,6	;RP1=0, select bank1
  9611  0095' 0800'              	movf	eval_poly@res^(0+128),w
  9612  0096' 1283               	bcf	3,5	;RP0=0, select bank0
  9613  0097' 1303               	bcf	3,6	;RP1=0, select bank0
  9614  0098' 009E'              	movwf	___flmul@f1
  9615  0099' 0849'              	movf	eval_poly@x+3,w
  9616  009A' 00A5'              	movwf	___flmul@f2+3
  9617  009B' 0848'              	movf	eval_poly@x+2,w
  9618  009C' 00A4'              	movwf	___flmul@f2+2
  9619  009D' 0847'              	movf	eval_poly@x+1,w
  9620  009E' 00A3'              	movwf	___flmul@f2+1
  9621  009F' 0846'              	movf	eval_poly@x,w
  9622  00A0' 00A2'              	movwf	___flmul@f2
  9623  00A1' 120A' 118A' 2000' 120A' 118A' 	fcall	___flmul
  9624  00A6' 1283               	bcf	3,5	;RP0=0, select bank0
  9625  00A7' 1303               	bcf	3,6	;RP1=0, select bank0
  9626  00A8' 0821'              	movf	?___flmul+3,w
  9627  00A9' 00BD'              	movwf	___fladd@f2+3
  9628  00AA' 0820'              	movf	?___flmul+2,w
  9629  00AB' 00BC'              	movwf	___fladd@f2+2
  9630  00AC' 081F'              	movf	?___flmul+1,w
  9631  00AD' 00BB'              	movwf	___fladd@f2+1
  9632  00AE' 081E'              	movf	?___flmul,w
  9633  00AF' 00BA'              	movwf	___fladd@f2
  9634  00B0' 120A' 118A' 2000' 120A' 118A' 	fcall	___fladd
  9635  00B5' 1283               	bcf	3,5	;RP0=0, select bank0
  9636  00B6' 1303               	bcf	3,6	;RP1=0, select bank0
  9637  00B7' 0839'              	movf	?___fladd+3,w
  9638  00B8' 1683               	bsf	3,5	;RP0=1, select bank1
  9639  00B9' 1303               	bcf	3,6	;RP1=0, select bank1
  9640  00BA' 0080'              	movwf	(eval_poly@res+3)^(0+128)
  9641  00BB' 1283               	bcf	3,5	;RP0=0, select bank0
  9642  00BC' 1303               	bcf	3,6	;RP1=0, select bank0
  9643  00BD' 0838'              	movf	?___fladd+2,w
  9644  00BE' 1683               	bsf	3,5	;RP0=1, select bank1
  9645  00BF' 1303               	bcf	3,6	;RP1=0, select bank1
  9646  00C0' 0080'              	movwf	(eval_poly@res+2)^(0+128)
  9647  00C1' 1283               	bcf	3,5	;RP0=0, select bank0
  9648  00C2' 1303               	bcf	3,6	;RP1=0, select bank0
  9649  00C3' 0837'              	movf	?___fladd+1,w
  9650  00C4' 1683               	bsf	3,5	;RP0=1, select bank1
  9651  00C5' 1303               	bcf	3,6	;RP1=0, select bank1
  9652  00C6' 0080'              	movwf	(eval_poly@res+1)^(0+128)
  9653  00C7' 1283               	bcf	3,5	;RP0=0, select bank0
  9654  00C8' 1303               	bcf	3,6	;RP1=0, select bank0
  9655  00C9' 0836'              	movf	?___fladd,w
  9656  00CA' 1683               	bsf	3,5	;RP0=1, select bank1
  9657  00CB' 1303               	bcf	3,6	;RP1=0, select bank1
  9658  00CC' 2800'              	goto	L8
  9659  00CD'                    l3696:	
  9660  00CD' 1683               	bsf	3,5	;RP0=1, select bank1
  9661  00CE' 1303               	bcf	3,6	;RP1=0, select bank1
  9662  00CF' 0800'              	movf	(eval_poly@res+3)^(0+128),w
  9663  00D0' 1283               	bcf	3,5	;RP0=0, select bank0
  9664  00D1' 1303               	bcf	3,6	;RP1=0, select bank0
  9665  00D2' 00C9'              	movwf	?_eval_poly+3
  9666  00D3' 1683               	bsf	3,5	;RP0=1, select bank1
  9667  00D4' 1303               	bcf	3,6	;RP1=0, select bank1
  9668  00D5' 0800'              	movf	(eval_poly@res+2)^(0+128),w
  9669  00D6' 1283               	bcf	3,5	;RP0=0, select bank0
  9670  00D7' 1303               	bcf	3,6	;RP1=0, select bank0
  9671  00D8' 00C8'              	movwf	?_eval_poly+2
  9672  00D9' 1683               	bsf	3,5	;RP0=1, select bank1
  9673  00DA' 1303               	bcf	3,6	;RP1=0, select bank1
  9674  00DB' 0800'              	movf	(eval_poly@res+1)^(0+128),w
  9675  00DC' 1283               	bcf	3,5	;RP0=0, select bank0
  9676  00DD' 1303               	bcf	3,6	;RP1=0, select bank0
  9677  00DE' 00C7'              	movwf	?_eval_poly+1
  9678  00DF' 1683               	bsf	3,5	;RP0=1, select bank1
  9679  00E0' 1303               	bcf	3,6	;RP1=0, select bank1
  9680  00E1' 0800'              	movf	eval_poly@res^(0+128),w
  9681  00E2' 1283               	bcf	3,5	;RP0=0, select bank0
  9682  00E3' 1303               	bcf	3,6	;RP1=0, select bank0
  9683  00E4' 00C6'              	movwf	?_eval_poly
  9684  00E5' 0008               	return
  9685  00E6'                    __end_of_eval_poly:	
  9686                           
  9687                           	psect	text29
  9688  0000'                    __ptext29:	
  9689 ;; *************** function ___flmul *****************
  9690 ;; Defined at:
  9691 ;;		line 62 in file "/opt/microchip/xc8/v1.34/sources/common/flmul.c"
  9692 ;; Parameters:    Size  Location     Type
  9693 ;;  f1              4   30[BANK0 ] int 
  9694 ;;  f2              4   34[BANK0 ] int 
  9695 ;; Auto vars:     Size  Location     Type
  9696 ;;  f3_as_produc    4   44[BANK0 ] unsigned long 
  9697 ;;  sign            1   49[BANK0 ] unsigned char 
  9698 ;;  cntr            1   48[BANK0 ] unsigned char 
  9699 ;;  exp             1   43[BANK0 ] unsigned char 
  9700 ;; Return value:  Size  Location     Type
  9701 ;;                  4   30[BANK0 ] unsigned char 
  9702 ;; Registers used:
  9703 ;;		wreg, status,2, status,0, pclath, cstack
  9704 ;; Tracked objects:
  9705 ;;		On entry : 0/0
  9706 ;;		On exit  : 0/0
  9707 ;;		Unchanged: 0/0
  9708 ;; Data sizes:     COMMON   BANK0   BANK1   BANK3   BANK2
  9709 ;;      Params:         0       8       0       0       0
  9710 ;;      Locals:         0       7       0       0       0
  9711 ;;      Temps:          0       5       0       0       0
  9712 ;;      Totals:         0      20       0       0       0
  9713 ;;Total ram usage:       20 bytes
  9714 ;; Hardware stack levels used:    1
  9715 ;; Hardware stack levels required when called:    2
  9716 ;; This function calls:
  9717 ;;		___flpack
  9718 ;; This function is called by:
  9719 ;;		_format_double
  9720 ;;		_measure_capacitance
  9721 ;;		_measure_inductance
  9722 ;;		_log
  9723 ;;		_log10
  9724 ;;		_pow
  9725 ;;		_eval_poly
  9726 ;;		_exp
  9727 ;;		_format_float
  9728 ;; This function uses a non-reentrant model
  9729 ;;
  9730                           
  9731                           
  9732                           ;psect for function ___flmul
  9733  0000'                    ___flmul:	
  9734                           
  9735                           ;incstack = 0
  9736                           ; Regs used in ___flmul: [wreg+status,2+status,0+pclath+cstack]
  9737  0000' 1283               	bcf	3,5	;RP0=0, select bank0
  9738  0001' 1303               	bcf	3,6	;RP1=0, select bank0
  9739  0002' 081E'              	movf	___flmul@f1,w
  9740  0003' 00A6'              	movwf	??___flmul
  9741  0004' 081F'              	movf	___flmul@f1+1,w
  9742  0005' 00A7'              	movwf	??___flmul+1
  9743  0006' 0820'              	movf	___flmul@f1+2,w
  9744  0007' 00A8'              	movwf	??___flmul+2
  9745  0008' 0821'              	movf	___flmul@f1+3,w
  9746  0009' 00A9'              	movwf	??___flmul+3
  9747  000A' 1003               	clrc
  9748  000B' 0D28'              	rlf	??___flmul+2,w
  9749  000C' 0D29'              	rlf	??___flmul+3,w
  9750  000D' 00AA'              	movwf	??___flmul+4
  9751  000E' 082A'              	movf	??___flmul+4,w
  9752  000F' 00AB'              	movwf	___flmul@exp
  9753  0010' 082B'              	movf	___flmul@exp,w
  9754  0011' 1D03               	btfss	3,2
  9755  0012' 2800'              	goto	l3474
  9756  0013' 3000               	movlw	0
  9757  0014' 00A1'              	movwf	?___flmul+3
  9758  0015' 3000               	movlw	0
  9759  0016' 00A0'              	movwf	?___flmul+2
  9760  0017' 3000               	movlw	0
  9761  0018' 009F'              	movwf	?___flmul+1
  9762  0019' 3000               	movlw	0
  9763  001A' 009E'              	movwf	?___flmul
  9764  001B' 0008               	return
  9765  001C'                    l3474:	
  9766  001C' 0822'              	movf	___flmul@f2,w
  9767  001D' 00A6'              	movwf	??___flmul
  9768  001E' 0823'              	movf	___flmul@f2+1,w
  9769  001F' 00A7'              	movwf	??___flmul+1
  9770  0020' 0824'              	movf	___flmul@f2+2,w
  9771  0021' 00A8'              	movwf	??___flmul+2
  9772  0022' 0825'              	movf	___flmul@f2+3,w
  9773  0023' 00A9'              	movwf	??___flmul+3
  9774  0024' 1003               	clrc
  9775  0025' 0D28'              	rlf	??___flmul+2,w
  9776  0026' 0D29'              	rlf	??___flmul+3,w
  9777  0027' 00AA'              	movwf	??___flmul+4
  9778  0028' 082A'              	movf	??___flmul+4,w
  9779  0029' 00B1'              	movwf	___flmul@sign
  9780  002A' 0831'              	movf	___flmul@sign,w
  9781  002B' 1D03               	btfss	3,2
  9782  002C' 2800'              	goto	l3480
  9783  002D' 3000               	movlw	0
  9784  002E' 00A1'              	movwf	?___flmul+3
  9785  002F' 3000               	movlw	0
  9786  0030' 00A0'              	movwf	?___flmul+2
  9787  0031' 3000               	movlw	0
  9788  0032' 009F'              	movwf	?___flmul+1
  9789  0033' 3000               	movlw	0
  9790  0034' 009E'              	movwf	?___flmul
  9791  0035' 0008               	return
  9792  0036'                    l3480:	
  9793  0036' 0831'              	movf	___flmul@sign,w
  9794  0037' 3E7B               	addlw	123
  9795  0038' 00A6'              	movwf	??___flmul
  9796  0039' 0826'              	movf	??___flmul,w
  9797  003A' 07AB'              	addwf	___flmul@exp,f
  9798  003B' 081E'              	movf	___flmul@f1,w
  9799  003C' 00A6'              	movwf	??___flmul
  9800  003D' 081F'              	movf	___flmul@f1+1,w
  9801  003E' 00A7'              	movwf	??___flmul+1
  9802  003F' 0820'              	movf	___flmul@f1+2,w
  9803  0040' 00A8'              	movwf	??___flmul+2
  9804  0041' 0821'              	movf	___flmul@f1+3,w
  9805  0042' 00A9'              	movwf	??___flmul+3
  9806  0043' 3018               	movlw	24
  9807  0044'                    u4235:	
  9808  0044' 1003               	clrc
  9809  0045' 0CA9'              	rrf	??___flmul+3,f
  9810  0046' 0CA8'              	rrf	??___flmul+2,f
  9811  0047' 0CA7'              	rrf	??___flmul+1,f
  9812  0048' 0CA6'              	rrf	??___flmul,f
  9813  0049' 3EFF               	addlw	-1
  9814  004A' 1D03               	skipz
  9815  004B' 2800'              	goto	u4235
  9816  004C' 0826'              	movf	??___flmul,w
  9817  004D' 00AA'              	movwf	??___flmul+4
  9818  004E' 082A'              	movf	??___flmul+4,w
  9819  004F' 00B1'              	movwf	___flmul@sign
  9820  0050' 0822'              	movf	___flmul@f2,w
  9821  0051' 00A6'              	movwf	??___flmul
  9822  0052' 0823'              	movf	___flmul@f2+1,w
  9823  0053' 00A7'              	movwf	??___flmul+1
  9824  0054' 0824'              	movf	___flmul@f2+2,w
  9825  0055' 00A8'              	movwf	??___flmul+2
  9826  0056' 0825'              	movf	___flmul@f2+3,w
  9827  0057' 00A9'              	movwf	??___flmul+3
  9828  0058' 3018               	movlw	24
  9829  0059'                    u4245:	
  9830  0059' 1003               	clrc
  9831  005A' 0CA9'              	rrf	??___flmul+3,f
  9832  005B' 0CA8'              	rrf	??___flmul+2,f
  9833  005C' 0CA7'              	rrf	??___flmul+1,f
  9834  005D' 0CA6'              	rrf	??___flmul,f
  9835  005E' 3EFF               	addlw	-1
  9836  005F' 1D03               	skipz
  9837  0060' 2800'              	goto	u4245
  9838  0061' 0826'              	movf	??___flmul,w
  9839  0062' 00AA'              	movwf	??___flmul+4
  9840  0063' 082A'              	movf	??___flmul+4,w
  9841  0064' 06B1'              	xorwf	___flmul@sign,f
  9842  0065' 3080               	movlw	128
  9843  0066' 00A6'              	movwf	??___flmul
  9844  0067' 0826'              	movf	??___flmul,w
  9845  0068' 05B1'              	andwf	___flmul@sign,f
  9846  0069' 17A0'              	bsf	___flmul@f1+2,7
  9847  006A' 17A4'              	bsf	___flmul@f2+2,7
  9848  006B' 30FF               	movlw	255
  9849  006C' 05A2'              	andwf	___flmul@f2,f
  9850  006D' 30FF               	movlw	255
  9851  006E' 05A3'              	andwf	___flmul@f2+1,f
  9852  006F' 30FF               	movlw	255
  9853  0070' 05A4'              	andwf	___flmul@f2+2,f
  9854  0071' 3000               	movlw	0
  9855  0072' 05A5'              	andwf	___flmul@f2+3,f
  9856  0073' 3000               	movlw	0
  9857  0074' 00AF'              	movwf	___flmul@f3_as_product+3
  9858  0075' 3000               	movlw	0
  9859  0076' 00AE'              	movwf	___flmul@f3_as_product+2
  9860  0077' 3000               	movlw	0
  9861  0078' 00AD'              	movwf	___flmul@f3_as_product+1
  9862  0079' 3000               	movlw	0
  9863  007A' 00AC'              	movwf	___flmul@f3_as_product
  9864  007B' 3007               	movlw	7
  9865  007C' 00A6'              	movwf	??___flmul
  9866  007D' 0826'              	movf	??___flmul,w
  9867  007E' 00B0'              	movwf	___flmul@cntr
  9868  007F'                    l3492:	
  9869  007F' 1C1E'              	btfss	___flmul@f1,0
  9870  0080' 2800'              	goto	l3496
  9871  0081' 0822'              	movf	___flmul@f2,w
  9872  0082' 07AC'              	addwf	___flmul@f3_as_product,f
  9873  0083' 0823'              	movf	___flmul@f2+1,w
  9874  0084' 1103               	clrz
  9875  0085' 1803               	skipnc
  9876  0086' 3E01               	addlw	1
  9877  0087' 1D03               	btfss	3,2
  9878  0088' 07AD'              	addwf	___flmul@f3_as_product+1,f
  9879  0089' 0824'              	movf	___flmul@f2+2,w
  9880  008A' 1103               	clrz
  9881  008B' 1803               	skipnc
  9882  008C' 3E01               	addlw	1
  9883  008D' 1D03               	btfss	3,2
  9884  008E' 07AE'              	addwf	___flmul@f3_as_product+2,f
  9885  008F' 0825'              	movf	___flmul@f2+3,w
  9886  0090' 1103               	clrz
  9887  0091' 1803               	skipnc
  9888  0092' 3E01               	addlw	1
  9889  0093' 1D03               	btfss	3,2
  9890  0094' 07AF'              	addwf	___flmul@f3_as_product+3,f
  9891  0095'                    l3496:	
  9892  0095' 3001               	movlw	1
  9893  0096'                    u4275:	
  9894  0096' 1003               	clrc
  9895  0097' 0CA1'              	rrf	___flmul@f1+3,f
  9896  0098' 0CA0'              	rrf	___flmul@f1+2,f
  9897  0099' 0C9F'              	rrf	___flmul@f1+1,f
  9898  009A' 0C9E'              	rrf	___flmul@f1,f
  9899  009B' 3EFF               	addlw	-1
  9900  009C' 1D03               	skipz
  9901  009D' 2800'              	goto	u4275
  9902  009E' 3001               	movlw	1
  9903  009F' 00A6'              	movwf	??___flmul
  9904  00A0'                    u4285:	
  9905  00A0' 1003               	clrc
  9906  00A1' 0DA2'              	rlf	___flmul@f2,f
  9907  00A2' 0DA3'              	rlf	___flmul@f2+1,f
  9908  00A3' 0DA4'              	rlf	___flmul@f2+2,f
  9909  00A4' 0DA5'              	rlf	___flmul@f2+3,f
  9910  00A5' 0BA6'              	decfsz	??___flmul,f
  9911  00A6' 2800'              	goto	u4285
  9912  00A7' 3001               	movlw	1
  9913  00A8' 02B0'              	subwf	___flmul@cntr,f
  9914  00A9' 1D03               	btfss	3,2
  9915  00AA' 2800'              	goto	l3492
  9916  00AB' 3011               	movlw	17
  9917  00AC' 00A6'              	movwf	??___flmul
  9918  00AD' 0826'              	movf	??___flmul,w
  9919  00AE' 00B0'              	movwf	___flmul@cntr
  9920  00AF'                    l3504:	
  9921  00AF' 1C1E'              	btfss	___flmul@f1,0
  9922  00B0' 2800'              	goto	l3508
  9923  00B1' 0822'              	movf	___flmul@f2,w
  9924  00B2' 07AC'              	addwf	___flmul@f3_as_product,f
  9925  00B3' 0823'              	movf	___flmul@f2+1,w
  9926  00B4' 1103               	clrz
  9927  00B5' 1803               	skipnc
  9928  00B6' 3E01               	addlw	1
  9929  00B7' 1D03               	btfss	3,2
  9930  00B8' 07AD'              	addwf	___flmul@f3_as_product+1,f
  9931  00B9' 0824'              	movf	___flmul@f2+2,w
  9932  00BA' 1103               	clrz
  9933  00BB' 1803               	skipnc
  9934  00BC' 3E01               	addlw	1
  9935  00BD' 1D03               	btfss	3,2
  9936  00BE' 07AE'              	addwf	___flmul@f3_as_product+2,f
  9937  00BF' 0825'              	movf	___flmul@f2+3,w
  9938  00C0' 1103               	clrz
  9939  00C1' 1803               	skipnc
  9940  00C2' 3E01               	addlw	1
  9941  00C3' 1D03               	btfss	3,2
  9942  00C4' 07AF'              	addwf	___flmul@f3_as_product+3,f
  9943  00C5'                    l3508:	
  9944  00C5' 3001               	movlw	1
  9945  00C6'                    u4325:	
  9946  00C6' 1003               	clrc
  9947  00C7' 0CA1'              	rrf	___flmul@f1+3,f
  9948  00C8' 0CA0'              	rrf	___flmul@f1+2,f
  9949  00C9' 0C9F'              	rrf	___flmul@f1+1,f
  9950  00CA' 0C9E'              	rrf	___flmul@f1,f
  9951  00CB' 3EFF               	addlw	-1
  9952  00CC' 1D03               	skipz
  9953  00CD' 2800'              	goto	u4325
  9954  00CE' 3001               	movlw	1
  9955  00CF'                    u4335:	
  9956  00CF' 1003               	clrc
  9957  00D0' 0CAF'              	rrf	___flmul@f3_as_product+3,f
  9958  00D1' 0CAE'              	rrf	___flmul@f3_as_product+2,f
  9959  00D2' 0CAD'              	rrf	___flmul@f3_as_product+1,f
  9960  00D3' 0CAC'              	rrf	___flmul@f3_as_product,f
  9961  00D4' 3EFF               	addlw	-1
  9962  00D5' 1D03               	skipz
  9963  00D6' 2800'              	goto	u4335
  9964  00D7' 3001               	movlw	1
  9965  00D8' 02B0'              	subwf	___flmul@cntr,f
  9966  00D9' 1D03               	btfss	3,2
  9967  00DA' 2800'              	goto	l3504
  9968  00DB' 082F'              	movf	___flmul@f3_as_product+3,w
  9969  00DC' 0083'              	movwf	___flpack@arg+3
  9970  00DD' 082E'              	movf	___flmul@f3_as_product+2,w
  9971  00DE' 0082'              	movwf	___flpack@arg+2
  9972  00DF' 082D'              	movf	___flmul@f3_as_product+1,w
  9973  00E0' 0081'              	movwf	___flpack@arg+1
  9974  00E1' 082C'              	movf	___flmul@f3_as_product,w
  9975  00E2' 0080'              	movwf	___flpack@arg
  9976  00E3' 082B'              	movf	___flmul@exp,w
  9977  00E4' 00A6'              	movwf	??___flmul
  9978  00E5' 0826'              	movf	??___flmul,w
  9979  00E6' 0084'              	movwf	___flpack@exp
  9980  00E7' 0831'              	movf	___flmul@sign,w
  9981  00E8' 00A7'              	movwf	??___flmul+1
  9982  00E9' 0827'              	movf	??___flmul+1,w
  9983  00EA' 0085'              	movwf	___flpack@sign
  9984  00EB' 120A' 118A' 2000'  	fcall	___flpack
  9985  00EE' 1283               	bcf	3,5	;RP0=0, select bank0
  9986  00EF' 1303               	bcf	3,6	;RP1=0, select bank0
  9987  00F0' 0803'              	movf	?___flpack+3,w
  9988  00F1' 00A1'              	movwf	?___flmul+3
  9989  00F2' 0802'              	movf	?___flpack+2,w
  9990  00F3' 00A0'              	movwf	?___flmul+2
  9991  00F4' 0801'              	movf	?___flpack+1,w
  9992  00F5' 009F'              	movwf	?___flmul+1
  9993  00F6' 0800'              	movf	?___flpack,w
  9994  00F7' 009E'              	movwf	?___flmul
  9995  00F8' 0008               	return
  9996  00F9'                    __end_of___flmul:	
  9997                           
  9998                           	psect	text30
  9999  0000'                    __ptext30:	
 10000 ;; *************** function ___fladd *****************
 10001 ;; Defined at:
 10002 ;;		line 88 in file "/opt/microchip/xc8/v1.34/sources/common/fladd.c"
 10003 ;; Parameters:    Size  Location     Type
 10004 ;;  f1              4   54[BANK0 ] unsigned char 
 10005 ;;  f2              4   58[BANK0 ] unsigned char 
 10006 ;; Auto vars:     Size  Location     Type
 10007 ;;  exp1            1   69[BANK0 ] unsigned char 
 10008 ;;  exp2            1   68[BANK0 ] unsigned char 
 10009 ;;  sign            1   67[BANK0 ] unsigned char 
 10010 ;; Return value:  Size  Location     Type
 10011 ;;                  4   54[BANK0 ] unsigned char 
 10012 ;; Registers used:
 10013 ;;		wreg, status,2, status,0, pclath, cstack
 10014 ;; Tracked objects:
 10015 ;;		On entry : 0/0
 10016 ;;		On exit  : 0/0
 10017 ;;		Unchanged: 0/0
 10018 ;; Data sizes:     COMMON   BANK0   BANK1   BANK3   BANK2
 10019 ;;      Params:         0       8       0       0       0
 10020 ;;      Locals:         0       3       0       0       0
 10021 ;;      Temps:          0       5       0       0       0
 10022 ;;      Totals:         0      16       0       0       0
 10023 ;;Total ram usage:       16 bytes
 10024 ;; Hardware stack levels used:    1
 10025 ;; Hardware stack levels required when called:    2
 10026 ;; This function calls:
 10027 ;;		___flpack
 10028 ;; This function is called by:
 10029 ;;		_measure_capacitance
 10030 ;;		_measure_inductance
 10031 ;;		_floor
 10032 ;;		___flsub
 10033 ;;		_log
 10034 ;;		_eval_poly
 10035 ;; This function uses a non-reentrant model
 10036 ;;
 10037                           
 10038                           
 10039                           ;psect for function ___fladd
 10040  0000'                    ___fladd:	
 10041                           
 10042                           ;incstack = 0
 10043                           ; Regs used in ___fladd: [wreg+status,2+status,0+pclath+cstack]
 10044  0000' 1283               	bcf	3,5	;RP0=0, select bank0
 10045  0001' 1303               	bcf	3,6	;RP1=0, select bank0
 10046  0002' 0836'              	movf	___fladd@f1,w
 10047  0003' 00BE'              	movwf	??___fladd
 10048  0004' 0837'              	movf	___fladd@f1+1,w
 10049  0005' 00BF'              	movwf	??___fladd+1
 10050  0006' 0838'              	movf	___fladd@f1+2,w
 10051  0007' 00C0'              	movwf	??___fladd+2
 10052  0008' 0839'              	movf	___fladd@f1+3,w
 10053  0009' 00C1'              	movwf	??___fladd+3
 10054  000A' 1003               	clrc
 10055  000B' 0D40'              	rlf	??___fladd+2,w
 10056  000C' 0D41'              	rlf	??___fladd+3,w
 10057  000D' 00C2'              	movwf	??___fladd+4
 10058  000E' 0842'              	movf	??___fladd+4,w
 10059  000F' 00C5'              	movwf	___fladd@exp1
 10060  0010' 083A'              	movf	___fladd@f2,w
 10061  0011' 00BE'              	movwf	??___fladd
 10062  0012' 083B'              	movf	___fladd@f2+1,w
 10063  0013' 00BF'              	movwf	??___fladd+1
 10064  0014' 083C'              	movf	___fladd@f2+2,w
 10065  0015' 00C0'              	movwf	??___fladd+2
 10066  0016' 083D'              	movf	___fladd@f2+3,w
 10067  0017' 00C1'              	movwf	??___fladd+3
 10068  0018' 1003               	clrc
 10069  0019' 0D40'              	rlf	??___fladd+2,w
 10070  001A' 0D41'              	rlf	??___fladd+3,w
 10071  001B' 00C2'              	movwf	??___fladd+4
 10072  001C' 0842'              	movf	??___fladd+4,w
 10073  001D' 00C4'              	movwf	___fladd@exp2
 10074  001E' 0845'              	movf	___fladd@exp1,w
 10075  001F' 1903               	btfsc	3,2
 10076  0020' 2800'              	goto	l3384
 10077  0021' 0844'              	movf	___fladd@exp2,w
 10078  0022' 0245'              	subwf	___fladd@exp1,w
 10079  0023' 1803               	skipnc
 10080  0024' 2800'              	goto	l3388
 10081  0025' 0345'              	decf	___fladd@exp1,w
 10082  0026' 3AFF               	xorlw	255
 10083  0027' 0744'              	addwf	___fladd@exp2,w
 10084  0028' 00BE'              	movwf	??___fladd
 10085  0029' 3021               	movlw	33
 10086  002A' 023E'              	subwf	??___fladd,w
 10087  002B' 1C03               	skipc
 10088  002C' 2800'              	goto	l3388
 10089  002D'                    l3384:	
 10090  002D' 083D'              	movf	___fladd@f2+3,w
 10091  002E' 00B9'              	movwf	?___fladd+3
 10092  002F' 083C'              	movf	___fladd@f2+2,w
 10093  0030' 00B8'              	movwf	?___fladd+2
 10094  0031' 083B'              	movf	___fladd@f2+1,w
 10095  0032' 00B7'              	movwf	?___fladd+1
 10096  0033' 083A'              	movf	___fladd@f2,w
 10097  0034' 00B6'              	movwf	?___fladd
 10098  0035' 0008               	return
 10099  0036'                    l3388:	
 10100  0036' 0844'              	movf	___fladd@exp2,w
 10101  0037' 1903               	btfsc	3,2
 10102  0038' 0008               	return
 10103  0039' 0845'              	movf	___fladd@exp1,w
 10104  003A' 0244'              	subwf	___fladd@exp2,w
 10105  003B' 1803               	skipnc
 10106  003C' 2800'              	goto	l3394
 10107  003D' 0344'              	decf	___fladd@exp2,w
 10108  003E' 3AFF               	xorlw	255
 10109  003F' 0745'              	addwf	___fladd@exp1,w
 10110  0040' 00BE'              	movwf	??___fladd
 10111  0041' 3021               	movlw	33
 10112  0042' 023E'              	subwf	??___fladd,w
 10113  0043' 1803               	btfsc	3,0
 10114  0044' 0008               	return
 10115  0045'                    l3394:	
 10116  0045' 3006               	movlw	6
 10117  0046' 00BE'              	movwf	??___fladd
 10118  0047' 083E'              	movf	??___fladd,w
 10119  0048' 00C3'              	movwf	___fladd@sign
 10120  0049' 1BB9'              	btfsc	___fladd@f1+3,7
 10121  004A' 17C3'              	bsf	___fladd@sign,7
 10122  004B' 1BBD'              	btfsc	___fladd@f2+3,7
 10123  004C' 1743'              	bsf	___fladd@sign,6
 10124  004D' 17B8'              	bsf	___fladd@f1+2,7
 10125  004E' 30FF               	movlw	255
 10126  004F' 05B6'              	andwf	___fladd@f1,f
 10127  0050' 30FF               	movlw	255
 10128  0051' 05B7'              	andwf	___fladd@f1+1,f
 10129  0052' 30FF               	movlw	255
 10130  0053' 05B8'              	andwf	___fladd@f1+2,f
 10131  0054' 3000               	movlw	0
 10132  0055' 05B9'              	andwf	___fladd@f1+3,f
 10133  0056' 17BC'              	bsf	___fladd@f2+2,7
 10134  0057' 30FF               	movlw	255
 10135  0058' 05BA'              	andwf	___fladd@f2,f
 10136  0059' 30FF               	movlw	255
 10137  005A' 05BB'              	andwf	___fladd@f2+1,f
 10138  005B' 30FF               	movlw	255
 10139  005C' 05BC'              	andwf	___fladd@f2+2,f
 10140  005D' 3000               	movlw	0
 10141  005E' 05BD'              	andwf	___fladd@f2+3,f
 10142  005F' 0844'              	movf	___fladd@exp2,w
 10143  0060' 0245'              	subwf	___fladd@exp1,w
 10144  0061' 1803               	skipnc
 10145  0062' 2800'              	goto	l3416
 10146  0063'                    l3406:	
 10147  0063' 3001               	movlw	1
 10148  0064' 00BE'              	movwf	??___fladd
 10149  0065'                    u4015:	
 10150  0065' 1003               	clrc
 10151  0066' 0DBA'              	rlf	___fladd@f2,f
 10152  0067' 0DBB'              	rlf	___fladd@f2+1,f
 10153  0068' 0DBC'              	rlf	___fladd@f2+2,f
 10154  0069' 0DBD'              	rlf	___fladd@f2+3,f
 10155  006A' 0BBE'              	decfsz	??___fladd,f
 10156  006B' 2800'              	goto	u4015
 10157  006C' 3001               	movlw	1
 10158  006D' 02C4'              	subwf	___fladd@exp2,f
 10159  006E' 0844'              	movf	___fladd@exp2,w
 10160  006F' 0645'              	xorwf	___fladd@exp1,w
 10161  0070' 1903               	skipnz
 10162  0071' 2800'              	goto	l3414
 10163  0072' 3001               	movlw	1
 10164  0073' 02C3'              	subwf	___fladd@sign,f
 10165  0074' 0843'              	movf	___fladd@sign,w
 10166  0075' 3907               	andlw	7
 10167  0076' 1903               	btfsc	3,2
 10168  0077' 2800'              	goto	l3414
 10169  0078' 2800'              	goto	l3406
 10170  0079'                    l3412:	
 10171  0079' 3001               	movlw	1
 10172  007A'                    u4045:	
 10173  007A' 1003               	clrc
 10174  007B' 0CB9'              	rrf	___fladd@f1+3,f
 10175  007C' 0CB8'              	rrf	___fladd@f1+2,f
 10176  007D' 0CB7'              	rrf	___fladd@f1+1,f
 10177  007E' 0CB6'              	rrf	___fladd@f1,f
 10178  007F' 3EFF               	addlw	-1
 10179  0080' 1D03               	skipz
 10180  0081' 2800'              	goto	u4045
 10181  0082' 3001               	movlw	1
 10182  0083' 00BE'              	movwf	??___fladd
 10183  0084' 083E'              	movf	??___fladd,w
 10184  0085' 07C5'              	addwf	___fladd@exp1,f
 10185  0086'                    l3414:	
 10186  0086' 0845'              	movf	___fladd@exp1,w
 10187  0087' 0644'              	xorwf	___fladd@exp2,w
 10188  0088' 1903               	btfsc	3,2
 10189  0089' 2800'              	goto	l648
 10190  008A' 2800'              	goto	l3412
 10191  008B'                    l3416:	
 10192  008B' 0845'              	movf	___fladd@exp1,w
 10193  008C' 0244'              	subwf	___fladd@exp2,w
 10194  008D' 1803               	skipnc
 10195  008E' 2800'              	goto	l648
 10196  008F'                    l3418:	
 10197  008F' 3001               	movlw	1
 10198  0090' 00BE'              	movwf	??___fladd
 10199  0091'                    u4075:	
 10200  0091' 1003               	clrc
 10201  0092' 0DB6'              	rlf	___fladd@f1,f
 10202  0093' 0DB7'              	rlf	___fladd@f1+1,f
 10203  0094' 0DB8'              	rlf	___fladd@f1+2,f
 10204  0095' 0DB9'              	rlf	___fladd@f1+3,f
 10205  0096' 0BBE'              	decfsz	??___fladd,f
 10206  0097' 2800'              	goto	u4075
 10207  0098' 3001               	movlw	1
 10208  0099' 02C5'              	subwf	___fladd@exp1,f
 10209  009A' 0844'              	movf	___fladd@exp2,w
 10210  009B' 0645'              	xorwf	___fladd@exp1,w
 10211  009C' 1903               	skipnz
 10212  009D' 2800'              	goto	l3426
 10213  009E' 3001               	movlw	1
 10214  009F' 02C3'              	subwf	___fladd@sign,f
 10215  00A0' 0843'              	movf	___fladd@sign,w
 10216  00A1' 3907               	andlw	7
 10217  00A2' 1903               	btfsc	3,2
 10218  00A3' 2800'              	goto	l3426
 10219  00A4' 2800'              	goto	l3418
 10220  00A5'                    l3424:	
 10221  00A5' 3001               	movlw	1
 10222  00A6'                    u4105:	
 10223  00A6' 1003               	clrc
 10224  00A7' 0CBD'              	rrf	___fladd@f2+3,f
 10225  00A8' 0CBC'              	rrf	___fladd@f2+2,f
 10226  00A9' 0CBB'              	rrf	___fladd@f2+1,f
 10227  00AA' 0CBA'              	rrf	___fladd@f2,f
 10228  00AB' 3EFF               	addlw	-1
 10229  00AC' 1D03               	skipz
 10230  00AD' 2800'              	goto	u4105
 10231  00AE' 3001               	movlw	1
 10232  00AF' 00BE'              	movwf	??___fladd
 10233  00B0' 083E'              	movf	??___fladd,w
 10234  00B1' 07C4'              	addwf	___fladd@exp2,f
 10235  00B2'                    l3426:	
 10236  00B2' 0845'              	movf	___fladd@exp1,w
 10237  00B3' 0644'              	xorwf	___fladd@exp2,w
 10238  00B4' 1D03               	skipz
 10239  00B5' 2800'              	goto	l3424
 10240  00B6'                    l648:	
 10241  00B6' 1FC3'              	btfss	___fladd@sign,7
 10242  00B7' 2800'              	goto	l3430
 10243  00B8' 30FF               	movlw	255
 10244  00B9' 06B6'              	xorwf	___fladd@f1,f
 10245  00BA' 30FF               	movlw	255
 10246  00BB' 06B7'              	xorwf	___fladd@f1+1,f
 10247  00BC' 30FF               	movlw	255
 10248  00BD' 06B8'              	xorwf	___fladd@f1+2,f
 10249  00BE' 30FF               	movlw	255
 10250  00BF' 06B9'              	xorwf	___fladd@f1+3,f
 10251  00C0' 3001               	movlw	1
 10252  00C1' 07B6'              	addwf	___fladd@f1,f
 10253  00C2' 3000               	movlw	0
 10254  00C3' 1803               	skipnc
 10255  00C4' 3001               	movlw	1
 10256  00C5' 07B7'              	addwf	___fladd@f1+1,f
 10257  00C6' 3000               	movlw	0
 10258  00C7' 1803               	skipnc
 10259  00C8' 3001               	movlw	1
 10260  00C9' 07B8'              	addwf	___fladd@f1+2,f
 10261  00CA' 3000               	movlw	0
 10262  00CB' 1803               	skipnc
 10263  00CC' 3001               	movlw	1
 10264  00CD' 07B9'              	addwf	___fladd@f1+3,f
 10265  00CE'                    l3430:	
 10266  00CE' 1F43'              	btfss	___fladd@sign,6
 10267  00CF' 2800'              	goto	l3434
 10268  00D0' 30FF               	movlw	255
 10269  00D1' 06BA'              	xorwf	___fladd@f2,f
 10270  00D2' 30FF               	movlw	255
 10271  00D3' 06BB'              	xorwf	___fladd@f2+1,f
 10272  00D4' 30FF               	movlw	255
 10273  00D5' 06BC'              	xorwf	___fladd@f2+2,f
 10274  00D6' 30FF               	movlw	255
 10275  00D7' 06BD'              	xorwf	___fladd@f2+3,f
 10276  00D8' 3001               	movlw	1
 10277  00D9' 07BA'              	addwf	___fladd@f2,f
 10278  00DA' 3000               	movlw	0
 10279  00DB' 1803               	skipnc
 10280  00DC' 3001               	movlw	1
 10281  00DD' 07BB'              	addwf	___fladd@f2+1,f
 10282  00DE' 3000               	movlw	0
 10283  00DF' 1803               	skipnc
 10284  00E0' 3001               	movlw	1
 10285  00E1' 07BC'              	addwf	___fladd@f2+2,f
 10286  00E2' 3000               	movlw	0
 10287  00E3' 1803               	skipnc
 10288  00E4' 3001               	movlw	1
 10289  00E5' 07BD'              	addwf	___fladd@f2+3,f
 10290  00E6'                    l3434:	
 10291  00E6' 01C3'              	clrf	___fladd@sign
 10292  00E7' 0836'              	movf	___fladd@f1,w
 10293  00E8' 07BA'              	addwf	___fladd@f2,f
 10294  00E9' 0837'              	movf	___fladd@f1+1,w
 10295  00EA' 1103               	clrz
 10296  00EB' 1803               	skipnc
 10297  00EC' 3E01               	addlw	1
 10298  00ED' 1D03               	btfss	3,2
 10299  00EE' 07BB'              	addwf	___fladd@f2+1,f
 10300  00EF' 0838'              	movf	___fladd@f1+2,w
 10301  00F0' 1103               	clrz
 10302  00F1' 1803               	skipnc
 10303  00F2' 3E01               	addlw	1
 10304  00F3' 1D03               	btfss	3,2
 10305  00F4' 07BC'              	addwf	___fladd@f2+2,f
 10306  00F5' 0839'              	movf	___fladd@f1+3,w
 10307  00F6' 1103               	clrz
 10308  00F7' 1803               	skipnc
 10309  00F8' 3E01               	addlw	1
 10310  00F9' 1D03               	btfss	3,2
 10311  00FA' 07BD'              	addwf	___fladd@f2+3,f
 10312  00FB' 1FBD'              	btfss	___fladd@f2+3,7
 10313  00FC' 2800'              	goto	l3444
 10314  00FD' 30FF               	movlw	255
 10315  00FE' 06BA'              	xorwf	___fladd@f2,f
 10316  00FF' 30FF               	movlw	255
 10317  0100' 06BB'              	xorwf	___fladd@f2+1,f
 10318  0101' 30FF               	movlw	255
 10319  0102' 06BC'              	xorwf	___fladd@f2+2,f
 10320  0103' 30FF               	movlw	255
 10321  0104' 06BD'              	xorwf	___fladd@f2+3,f
 10322  0105' 3001               	movlw	1
 10323  0106' 07BA'              	addwf	___fladd@f2,f
 10324  0107' 3000               	movlw	0
 10325  0108' 1803               	skipnc
 10326  0109' 3001               	movlw	1
 10327  010A' 07BB'              	addwf	___fladd@f2+1,f
 10328  010B' 3000               	movlw	0
 10329  010C' 1803               	skipnc
 10330  010D' 3001               	movlw	1
 10331  010E' 07BC'              	addwf	___fladd@f2+2,f
 10332  010F' 3000               	movlw	0
 10333  0110' 1803               	skipnc
 10334  0111' 3001               	movlw	1
 10335  0112' 07BD'              	addwf	___fladd@f2+3,f
 10336  0113' 01C3'              	clrf	___fladd@sign
 10337  0114' 0AC3'              	incf	___fladd@sign,f
 10338  0115'                    l3444:	
 10339  0115' 083D'              	movf	___fladd@f2+3,w
 10340  0116' 0083'              	movwf	___flpack@arg+3
 10341  0117' 083C'              	movf	___fladd@f2+2,w
 10342  0118' 0082'              	movwf	___flpack@arg+2
 10343  0119' 083B'              	movf	___fladd@f2+1,w
 10344  011A' 0081'              	movwf	___flpack@arg+1
 10345  011B' 083A'              	movf	___fladd@f2,w
 10346  011C' 0080'              	movwf	___flpack@arg
 10347  011D' 0845'              	movf	___fladd@exp1,w
 10348  011E' 00BE'              	movwf	??___fladd
 10349  011F' 083E'              	movf	??___fladd,w
 10350  0120' 0084'              	movwf	___flpack@exp
 10351  0121' 0843'              	movf	___fladd@sign,w
 10352  0122' 00BF'              	movwf	??___fladd+1
 10353  0123' 083F'              	movf	??___fladd+1,w
 10354  0124' 0085'              	movwf	___flpack@sign
 10355  0125' 120A' 118A' 2000'  	fcall	___flpack
 10356  0128' 1283               	bcf	3,5	;RP0=0, select bank0
 10357  0129' 1303               	bcf	3,6	;RP1=0, select bank0
 10358  012A' 0803'              	movf	?___flpack+3,w
 10359  012B' 00B9'              	movwf	?___fladd+3
 10360  012C' 0802'              	movf	?___flpack+2,w
 10361  012D' 00B8'              	movwf	?___fladd+2
 10362  012E' 0801'              	movf	?___flpack+1,w
 10363  012F' 00B7'              	movwf	?___fladd+1
 10364  0130' 0800'              	movf	?___flpack,w
 10365  0131' 00B6'              	movwf	?___fladd
 10366  0132' 0008               	return
 10367  0133'                    __end_of___fladd:	
 10368                           
 10369                           	psect	text31
 10370  0000'                    __ptext31:	
 10371 ;; *************** function ___flge *****************
 10372 ;; Defined at:
 10373 ;;		line 4 in file "/opt/microchip/xc8/v1.34/sources/common/flge.c"
 10374 ;; Parameters:    Size  Location     Type
 10375 ;;  ff1             4    0[BANK0 ] unsigned char 
 10376 ;;  ff2             4    4[BANK0 ] unsigned char 
 10377 ;; Auto vars:     Size  Location     Type
 10378 ;;		None
 10379 ;; Return value:  Size  Location     Type
 10380 ;;		None               void
 10381 ;; Registers used:
 10382 ;;		wreg, status,2, status,0
 10383 ;; Tracked objects:
 10384 ;;		On entry : 0/0
 10385 ;;		On exit  : 0/0
 10386 ;;		Unchanged: 0/0
 10387 ;; Data sizes:     COMMON   BANK0   BANK1   BANK3   BANK2
 10388 ;;      Params:         0       8       0       0       0
 10389 ;;      Locals:         0       0       0       0       0
 10390 ;;      Temps:          0       8       0       0       0
 10391 ;;      Totals:         0      16       0       0       0
 10392 ;;Total ram usage:       16 bytes
 10393 ;; Hardware stack levels used:    1
 10394 ;; Hardware stack levels required when called:    1
 10395 ;; This function calls:
 10396 ;;		Nothing
 10397 ;; This function is called by:
 10398 ;;		_format_double
 10399 ;;		_measure_capacitance
 10400 ;;		_measure_inductance
 10401 ;;		_floor
 10402 ;;		_ldexp
 10403 ;;		_log
 10404 ;;		_pow
 10405 ;;		_exp
 10406 ;;		_format_float
 10407 ;; This function uses a non-reentrant model
 10408 ;;
 10409                           
 10410                           
 10411                           ;psect for function ___flge
 10412  0000'                    ___flge:	
 10413                           
 10414                           ;incstack = 0
 10415                           ; Regs used in ___flge: [wreg+status,2+status,0]
 10416  0000' 1283               	bcf	3,5	;RP0=0, select bank0
 10417  0001' 1303               	bcf	3,6	;RP1=0, select bank0
 10418  0002' 1F83'              	btfss	___flge@ff1+3,7
 10419  0003' 2800'              	goto	l3452
 10420  0004' 3000               	movlw	0
 10421  0005' 0088'              	movwf	??___flge
 10422  0006' 3000               	movlw	0
 10423  0007' 0089'              	movwf	??___flge+1
 10424  0008' 3000               	movlw	0
 10425  0009' 008A'              	movwf	??___flge+2
 10426  000A' 3080               	movlw	128
 10427  000B' 008B'              	movwf	??___flge+3
 10428  000C' 0900'              	comf	___flge@ff1,w
 10429  000D' 008C'              	movwf	??___flge+4
 10430  000E' 0901'              	comf	___flge@ff1+1,w
 10431  000F' 008D'              	movwf	??___flge+5
 10432  0010' 0902'              	comf	___flge@ff1+2,w
 10433  0011' 008E'              	movwf	??___flge+6
 10434  0012' 0903'              	comf	___flge@ff1+3,w
 10435  0013' 008F'              	movwf	??___flge+7
 10436  0014' 0A8C'              	incf	??___flge+4,f
 10437  0015' 1903               	skipnz
 10438  0016' 0A8D'              	incf	??___flge+5,f
 10439  0017' 1903               	skipnz
 10440  0018' 0A8E'              	incf	??___flge+6,f
 10441  0019' 1903               	skipnz
 10442  001A' 0A8F'              	incf	??___flge+7,f
 10443  001B' 080C'              	movf	??___flge+4,w
 10444  001C' 0788'              	addwf	??___flge,f
 10445  001D' 080D'              	movf	??___flge+5,w
 10446  001E' 1803               	skipnc
 10447  001F' 0F0D'              	incfsz	??___flge+5,w
 10448  0020' 2800'              	goto	u4170
 10449  0021' 2800'              	goto	u4171
 10450  0022'                    u4170:	
 10451  0022' 0789'              	addwf	??___flge+1,f
 10452  0023'                    u4171:	
 10453  0023' 080E'              	movf	??___flge+6,w
 10454  0024' 1803               	skipnc
 10455  0025' 0F0E'              	incfsz	??___flge+6,w
 10456  0026' 2800'              	goto	u4172
 10457  0027' 2800'              	goto	u4173
 10458  0028'                    u4172:	
 10459  0028' 078A'              	addwf	??___flge+2,f
 10460  0029'                    u4173:	
 10461  0029' 080F'              	movf	??___flge+7,w
 10462  002A' 1803               	skipnc
 10463  002B' 0A0F'              	incf	??___flge+7,w
 10464  002C' 078B'              	addwf	??___flge+3,f
 10465  002D' 080B'              	movf	??___flge+3,w
 10466  002E' 0083'              	movwf	___flge@ff1+3
 10467  002F' 080A'              	movf	??___flge+2,w
 10468  0030' 0082'              	movwf	___flge@ff1+2
 10469  0031' 0809'              	movf	??___flge+1,w
 10470  0032' 0081'              	movwf	___flge@ff1+1
 10471  0033' 0808'              	movf	??___flge,w
 10472  0034' 0080'              	movwf	___flge@ff1
 10473  0035'                    l3452:	
 10474  0035' 1F87'              	btfss	___flge@ff2+3,7
 10475  0036' 2800'              	goto	l3456
 10476  0037' 3000               	movlw	0
 10477  0038' 0088'              	movwf	??___flge
 10478  0039' 3000               	movlw	0
 10479  003A' 0089'              	movwf	??___flge+1
 10480  003B' 3000               	movlw	0
 10481  003C' 008A'              	movwf	??___flge+2
 10482  003D' 3080               	movlw	128
 10483  003E' 008B'              	movwf	??___flge+3
 10484  003F' 0904'              	comf	___flge@ff2,w
 10485  0040' 008C'              	movwf	??___flge+4
 10486  0041' 0905'              	comf	___flge@ff2+1,w
 10487  0042' 008D'              	movwf	??___flge+5
 10488  0043' 0906'              	comf	___flge@ff2+2,w
 10489  0044' 008E'              	movwf	??___flge+6
 10490  0045' 0907'              	comf	___flge@ff2+3,w
 10491  0046' 008F'              	movwf	??___flge+7
 10492  0047' 0A8C'              	incf	??___flge+4,f
 10493  0048' 1903               	skipnz
 10494  0049' 0A8D'              	incf	??___flge+5,f
 10495  004A' 1903               	skipnz
 10496  004B' 0A8E'              	incf	??___flge+6,f
 10497  004C' 1903               	skipnz
 10498  004D' 0A8F'              	incf	??___flge+7,f
 10499  004E' 080C'              	movf	??___flge+4,w
 10500  004F' 0788'              	addwf	??___flge,f
 10501  0050' 080D'              	movf	??___flge+5,w
 10502  0051' 1803               	skipnc
 10503  0052' 0F0D'              	incfsz	??___flge+5,w
 10504  0053' 2800'              	goto	u4190
 10505  0054' 2800'              	goto	u4191
 10506  0055'                    u4190:	
 10507  0055' 0789'              	addwf	??___flge+1,f
 10508  0056'                    u4191:	
 10509  0056' 080E'              	movf	??___flge+6,w
 10510  0057' 1803               	skipnc
 10511  0058' 0F0E'              	incfsz	??___flge+6,w
 10512  0059' 2800'              	goto	u4192
 10513  005A' 2800'              	goto	u4193
 10514  005B'                    u4192:	
 10515  005B' 078A'              	addwf	??___flge+2,f
 10516  005C'                    u4193:	
 10517  005C' 080F'              	movf	??___flge+7,w
 10518  005D' 1803               	skipnc
 10519  005E' 0A0F'              	incf	??___flge+7,w
 10520  005F' 078B'              	addwf	??___flge+3,f
 10521  0060' 080B'              	movf	??___flge+3,w
 10522  0061' 0087'              	movwf	___flge@ff2+3
 10523  0062' 080A'              	movf	??___flge+2,w
 10524  0063' 0086'              	movwf	___flge@ff2+2
 10525  0064' 0809'              	movf	??___flge+1,w
 10526  0065' 0085'              	movwf	___flge@ff2+1
 10527  0066' 0808'              	movf	??___flge,w
 10528  0067' 0084'              	movwf	___flge@ff2
 10529  0068'                    l3456:	
 10530  0068' 3080               	movlw	128
 10531  0069' 0683'              	xorwf	___flge@ff1+3,f
 10532  006A' 3080               	movlw	128
 10533  006B' 0687'              	xorwf	___flge@ff2+3,f
 10534  006C' 0807'              	movf	___flge@ff2+3,w
 10535  006D' 0203'              	subwf	___flge@ff1+3,w
 10536  006E' 1D03               	skipz
 10537  006F' 0008               	return
 10538  0070' 0806'              	movf	___flge@ff2+2,w
 10539  0071' 0202'              	subwf	___flge@ff1+2,w
 10540  0072' 1D03               	skipz
 10541  0073' 0008               	return
 10542  0074' 0805'              	movf	___flge@ff2+1,w
 10543  0075' 0201'              	subwf	___flge@ff1+1,w
 10544  0076' 1D03               	skipz
 10545  0077' 0008               	return
 10546  0078' 0804'              	movf	___flge@ff2,w
 10547  0079' 0200'              	subwf	___flge@ff1,w
 10548  007A' 0008               	return
 10549  007B'                    __end_of___flge:	
 10550                           
 10551                           	psect	text32
 10552  0000'                    __ptext32:	
 10553 ;; *************** function ___awtofl *****************
 10554 ;; Defined at:
 10555 ;;		line 31 in file "/opt/microchip/xc8/v1.34/sources/common/awtofl.c"
 10556 ;; Parameters:    Size  Location     Type
 10557 ;;  c               2   10[BANK0 ] int 
 10558 ;; Auto vars:     Size  Location     Type
 10559 ;;  f1              4    0        int 
 10560 ;;  sign            1   16[BANK0 ] unsigned char 
 10561 ;; Return value:  Size  Location     Type
 10562 ;;                  4   10[BANK0 ] unsigned char 
 10563 ;; Registers used:
 10564 ;;		wreg, status,2, status,0, pclath, cstack
 10565 ;; Tracked objects:
 10566 ;;		On entry : 0/0
 10567 ;;		On exit  : 0/0
 10568 ;;		Unchanged: 0/0
 10569 ;; Data sizes:     COMMON   BANK0   BANK1   BANK3   BANK2
 10570 ;;      Params:         0       4       0       0       0
 10571 ;;      Locals:         0       1       0       0       0
 10572 ;;      Temps:          0       2       0       0       0
 10573 ;;      Totals:         0       7       0       0       0
 10574 ;;Total ram usage:        7 bytes
 10575 ;; Hardware stack levels used:    1
 10576 ;; Hardware stack levels required when called:    2
 10577 ;; This function calls:
 10578 ;;		___flpack
 10579 ;; This function is called by:
 10580 ;;		_format_double
 10581 ;;		_log
 10582 ;;		_exp
 10583 ;;		_format_float
 10584 ;; This function uses a non-reentrant model
 10585 ;;
 10586                           
 10587                           
 10588                           ;psect for function ___awtofl
 10589  0000'                    ___awtofl:	
 10590                           
 10591                           ;incstack = 0
 10592                           ; Regs used in ___awtofl: [wreg+status,2+status,0+pclath+cstack]
 10593  0000' 1283               	bcf	3,5	;RP0=0, select bank0
 10594  0001' 1303               	bcf	3,6	;RP1=0, select bank0
 10595  0002' 0190'              	clrf	___awtofl@sign
 10596  0003' 1F8B'              	btfss	___awtofl@c+1,7
 10597  0004' 2800'              	goto	l3594
 10598  0005' 098A'              	comf	___awtofl@c,f
 10599  0006' 098B'              	comf	___awtofl@c+1,f
 10600  0007' 0A8A'              	incf	___awtofl@c,f
 10601  0008' 1903               	skipnz
 10602  0009' 0A8B'              	incf	___awtofl@c+1,f
 10603  000A' 3001               	movlw	1
 10604  000B' 008E'              	movwf	??___awtofl
 10605  000C' 080E'              	movf	??___awtofl,w
 10606  000D' 0790'              	addwf	___awtofl@sign,f
 10607  000E'                    l3594:	
 10608  000E' 080A'              	movf	___awtofl@c,w
 10609  000F' 0080'              	movwf	___flpack@arg
 10610  0010' 080B'              	movf	___awtofl@c+1,w
 10611  0011' 0081'              	movwf	___flpack@arg+1
 10612  0012' 0182'              	clrf	___flpack@arg+2
 10613  0013' 0183'              	clrf	___flpack@arg+3
 10614  0014' 3096               	movlw	150
 10615  0015' 008E'              	movwf	??___awtofl
 10616  0016' 080E'              	movf	??___awtofl,w
 10617  0017' 0084'              	movwf	___flpack@exp
 10618  0018' 0810'              	movf	___awtofl@sign,w
 10619  0019' 008F'              	movwf	??___awtofl+1
 10620  001A' 080F'              	movf	??___awtofl+1,w
 10621  001B' 0085'              	movwf	___flpack@sign
 10622  001C' 120A' 118A' 2000'  	fcall	___flpack
 10623  001F' 1283               	bcf	3,5	;RP0=0, select bank0
 10624  0020' 1303               	bcf	3,6	;RP1=0, select bank0
 10625  0021' 0803'              	movf	?___flpack+3,w
 10626  0022' 008D'              	movwf	?___awtofl+3
 10627  0023' 0802'              	movf	?___flpack+2,w
 10628  0024' 008C'              	movwf	?___awtofl+2
 10629  0025' 0801'              	movf	?___flpack+1,w
 10630  0026' 008B'              	movwf	?___awtofl+1
 10631  0027' 0800'              	movf	?___flpack,w
 10632  0028' 008A'              	movwf	?___awtofl
 10633  0029' 0008               	return
 10634  002A'                    __end_of___awtofl:	
 10635                           
 10636                           	psect	text33
 10637  0000'                    __ptext33:	
 10638 ;; *************** function _indicator *****************
 10639 ;; Defined at:
 10640 ;;		line 469 in file "../../../src/print.c"
 10641 ;; Parameters:    Size  Location     Type
 10642 ;;  indicate        1    wreg     unsigned char 
 10643 ;; Auto vars:     Size  Location     Type
 10644 ;;  indicate        1    0[COMMON] unsigned char 
 10645 ;; Return value:  Size  Location     Type
 10646 ;;		None               void
 10647 ;; Registers used:
 10648 ;;		wreg
 10649 ;; Tracked objects:
 10650 ;;		On entry : 0/0
 10651 ;;		On exit  : 0/0
 10652 ;;		Unchanged: 0/0
 10653 ;; Data sizes:     COMMON   BANK0   BANK1   BANK3   BANK2
 10654 ;;      Params:         0       0       0       0       0
 10655 ;;      Locals:         0       0       0       0       0
 10656 ;;      Temps:          0       0       0       0       0
 10657 ;;      Totals:         0       0       0       0       0
 10658 ;;Total ram usage:        0 bytes
 10659 ;; Hardware stack levels used:    1
 10660 ;; Hardware stack levels required when called:    1
 10661 ;; This function calls:
 10662 ;;		Nothing
 10663 ;; This function is called by:
 10664 ;;		_main
 10665 ;; This function uses a non-reentrant model
 10666 ;;
 10667                           
 10668                           
 10669                           ;psect for function _indicator
 10670  0000'                    _indicator:	
 10671                           
 10672                           ;incstack = 0
 10673                           ; Regs used in _indicator: [wreg]
 10674  0000' 0008               	return
 10675  0001'                    __end_of_indicator:	
 10676                           
 10677                           	psect	text34
 10678  0000'                    __ptext34:	
 10679 ;; *************** function _calibrate *****************
 10680 ;; Defined at:
 10681 ;;		line 347 in file "../../../src/LC-meter.c"
 10682 ;; Parameters:    Size  Location     Type
 10683 ;;		None
 10684 ;; Auto vars:     Size  Location     Type
 10685 ;;  i               1    0        unsigned char 
 10686 ;; Return value:  Size  Location     Type
 10687 ;;		None               void
 10688 ;; Registers used:
 10689 ;;		wreg, fsr0l, fsr0h, status,2, status,0, btemp+1, pclath, cstack
 10690 ;; Tracked objects:
 10691 ;;		On entry : 0/0
 10692 ;;		On exit  : 0/0
 10693 ;;		Unchanged: 0/0
 10694 ;; Data sizes:     COMMON   BANK0   BANK1   BANK3   BANK2
 10695 ;;      Params:         0       0       0       0       0
 10696 ;;      Locals:         0       0       0       0       0
 10697 ;;      Temps:          0       0       0       0       0
 10698 ;;      Totals:         0       0       0       0       0
 10699 ;;Total ram usage:        0 bytes
 10700 ;; Hardware stack levels used:    1
 10701 ;; Hardware stack levels required when called:    3
 10702 ;; This function calls:
 10703 ;;		___lwtofl
 10704 ;;		_delay10ms
 10705 ;;		_measure_freq
 10706 ;;		_ser_puts
 10707 ;; This function is called by:
 10708 ;;		_main
 10709 ;; This function uses a non-reentrant model
 10710 ;;
 10711                           
 10712                           
 10713                           ;psect for function _calibrate
 10714  0000'                    _calibrate:	
 10715                           
 10716                           ;LC-meter.c: 348: unsigned char i;
 10717                           ;LC-meter.c: 361: RC5 = 0;
 10718                           
 10719                           ;incstack = 0
 10720                           ; Regs used in _calibrate: [wreg-fsr0h+status,2+status,0+btemp+1+pclath+cstack]
 10721  0000' 1283               	bcf	3,5	;RP0=0, select bank0
 10722  0001' 1303               	bcf	3,6	;RP1=0, select bank0
 10723  0002' 1287               	bcf	7,5	;volatile
 10724                           
 10725                           ;LC-meter.c: 363: F1 = (double)measure_freq();
 10726  0003' 120A' 118A' 2000' 120A' 118A' 	fcall	_measure_freq
 10727  0008' 1283               	bcf	3,5	;RP0=0, select bank0
 10728  0009' 1303               	bcf	3,6	;RP1=0, select bank0
 10729  000A' 0801'              	movf	?_measure_freq+1,w
 10730  000B' 008D'              	movwf	___lwtofl@c+1
 10731  000C' 0800'              	movf	?_measure_freq,w
 10732  000D' 008C'              	movwf	___lwtofl@c
 10733  000E' 120A' 118A' 2000' 120A' 118A' 	fcall	___lwtofl
 10734  0013' 1283               	bcf	3,5	;RP0=0, select bank0
 10735  0014' 1303               	bcf	3,6	;RP1=0, select bank0
 10736  0015' 080F'              	movf	?___lwtofl+3,w
 10737  0016' 1683               	bsf	3,5	;RP0=1, select bank3
 10738  0017' 1703               	bsf	3,6	;RP1=1, select bank3
 10739  0018' 0080'              	movwf	(_F1+3)^(0+384)
 10740  0019' 1283               	bcf	3,5	;RP0=0, select bank0
 10741  001A' 1303               	bcf	3,6	;RP1=0, select bank0
 10742  001B' 080E'              	movf	?___lwtofl+2,w
 10743  001C' 1683               	bsf	3,5	;RP0=1, select bank3
 10744  001D' 1703               	bsf	3,6	;RP1=1, select bank3
 10745  001E' 0080'              	movwf	(_F1+2)^(0+384)
 10746  001F' 1283               	bcf	3,5	;RP0=0, select bank0
 10747  0020' 1303               	bcf	3,6	;RP1=0, select bank0
 10748  0021' 080D'              	movf	?___lwtofl+1,w
 10749  0022' 1683               	bsf	3,5	;RP0=1, select bank3
 10750  0023' 1703               	bsf	3,6	;RP1=1, select bank3
 10751  0024' 0080'              	movwf	(_F1+1)^(0+384)
 10752  0025' 1283               	bcf	3,5	;RP0=0, select bank0
 10753  0026' 1303               	bcf	3,6	;RP1=0, select bank0
 10754  0027' 080C'              	movf	?___lwtofl,w
 10755  0028' 1683               	bsf	3,5	;RP0=1, select bank3
 10756  0029' 1703               	bsf	3,6	;RP1=1, select bank3
 10757  002A' 0080'              	movwf	_F1^(0+384)
 10758                           
 10759                           ;LC-meter.c: 364: delay10ms(50);
 10760  002B' 3032               	movlw	50
 10761  002C' 1283               	bcf	3,5	;RP0=0, select bank0
 10762  002D' 1303               	bcf	3,6	;RP1=0, select bank0
 10763  002E' 0086'              	movwf	delay10ms@period_10ms
 10764  002F' 3000               	movlw	0
 10765  0030' 0087'              	movwf	delay10ms@period_10ms+1
 10766  0031' 120A' 118A' 2000' 120A' 118A' 	fcall	_delay10ms
 10767                           
 10768                           ;LC-meter.c: 366: F1 = (double)measure_freq();
 10769  0036' 120A' 118A' 2000' 120A' 118A' 	fcall	_measure_freq
 10770  003B' 1283               	bcf	3,5	;RP0=0, select bank0
 10771  003C' 1303               	bcf	3,6	;RP1=0, select bank0
 10772  003D' 0801'              	movf	?_measure_freq+1,w
 10773  003E' 008D'              	movwf	___lwtofl@c+1
 10774  003F' 0800'              	movf	?_measure_freq,w
 10775  0040' 008C'              	movwf	___lwtofl@c
 10776  0041' 120A' 118A' 2000' 120A' 118A' 	fcall	___lwtofl
 10777  0046' 1283               	bcf	3,5	;RP0=0, select bank0
 10778  0047' 1303               	bcf	3,6	;RP1=0, select bank0
 10779  0048' 080F'              	movf	?___lwtofl+3,w
 10780  0049' 1683               	bsf	3,5	;RP0=1, select bank3
 10781  004A' 1703               	bsf	3,6	;RP1=1, select bank3
 10782  004B' 0080'              	movwf	(_F1+3)^(0+384)
 10783  004C' 1283               	bcf	3,5	;RP0=0, select bank0
 10784  004D' 1303               	bcf	3,6	;RP1=0, select bank0
 10785  004E' 080E'              	movf	?___lwtofl+2,w
 10786  004F' 1683               	bsf	3,5	;RP0=1, select bank3
 10787  0050' 1703               	bsf	3,6	;RP1=1, select bank3
 10788  0051' 0080'              	movwf	(_F1+2)^(0+384)
 10789  0052' 1283               	bcf	3,5	;RP0=0, select bank0
 10790  0053' 1303               	bcf	3,6	;RP1=0, select bank0
 10791  0054' 080D'              	movf	?___lwtofl+1,w
 10792  0055' 1683               	bsf	3,5	;RP0=1, select bank3
 10793  0056' 1703               	bsf	3,6	;RP1=1, select bank3
 10794  0057' 0080'              	movwf	(_F1+1)^(0+384)
 10795  0058' 1283               	bcf	3,5	;RP0=0, select bank0
 10796  0059' 1303               	bcf	3,6	;RP1=0, select bank0
 10797  005A' 080C'              	movf	?___lwtofl,w
 10798  005B' 1683               	bsf	3,5	;RP0=1, select bank3
 10799  005C' 1703               	bsf	3,6	;RP1=1, select bank3
 10800  005D' 0080'              	movwf	_F1^(0+384)
 10801                           
 10802                           ;LC-meter.c: 367: RC5 = 1;
 10803  005E' 1283               	bcf	3,5	;RP0=0, select bank0
 10804  005F' 1303               	bcf	3,6	;RP1=0, select bank0
 10805  0060' 1687               	bsf	7,5	;volatile
 10806                           
 10807                           ;LC-meter.c: 369: F2 = (double)measure_freq();
 10808  0061' 120A' 118A' 2000' 120A' 118A' 	fcall	_measure_freq
 10809  0066' 1283               	bcf	3,5	;RP0=0, select bank0
 10810  0067' 1303               	bcf	3,6	;RP1=0, select bank0
 10811  0068' 0801'              	movf	?_measure_freq+1,w
 10812  0069' 008D'              	movwf	___lwtofl@c+1
 10813  006A' 0800'              	movf	?_measure_freq,w
 10814  006B' 008C'              	movwf	___lwtofl@c
 10815  006C' 120A' 118A' 2000' 120A' 118A' 	fcall	___lwtofl
 10816  0071' 1283               	bcf	3,5	;RP0=0, select bank0
 10817  0072' 1303               	bcf	3,6	;RP1=0, select bank0
 10818  0073' 080F'              	movf	?___lwtofl+3,w
 10819  0074' 1683               	bsf	3,5	;RP0=1, select bank3
 10820  0075' 1703               	bsf	3,6	;RP1=1, select bank3
 10821  0076' 0080'              	movwf	(_F2+3)^(0+384)
 10822  0077' 1283               	bcf	3,5	;RP0=0, select bank0
 10823  0078' 1303               	bcf	3,6	;RP1=0, select bank0
 10824  0079' 080E'              	movf	?___lwtofl+2,w
 10825  007A' 1683               	bsf	3,5	;RP0=1, select bank3
 10826  007B' 1703               	bsf	3,6	;RP1=1, select bank3
 10827  007C' 0080'              	movwf	(_F2+2)^(0+384)
 10828  007D' 1283               	bcf	3,5	;RP0=0, select bank0
 10829  007E' 1303               	bcf	3,6	;RP1=0, select bank0
 10830  007F' 080D'              	movf	?___lwtofl+1,w
 10831  0080' 1683               	bsf	3,5	;RP0=1, select bank3
 10832  0081' 1703               	bsf	3,6	;RP1=1, select bank3
 10833  0082' 0080'              	movwf	(_F2+1)^(0+384)
 10834  0083' 1283               	bcf	3,5	;RP0=0, select bank0
 10835  0084' 1303               	bcf	3,6	;RP1=0, select bank0
 10836  0085' 080C'              	movf	?___lwtofl,w
 10837  0086' 1683               	bsf	3,5	;RP0=1, select bank3
 10838  0087' 1703               	bsf	3,6	;RP1=1, select bank3
 10839  0088' 0080'              	movwf	_F2^(0+384)
 10840                           
 10841                           ;LC-meter.c: 370: delay10ms(50);
 10842  0089' 3032               	movlw	50
 10843  008A' 1283               	bcf	3,5	;RP0=0, select bank0
 10844  008B' 1303               	bcf	3,6	;RP1=0, select bank0
 10845  008C' 0086'              	movwf	delay10ms@period_10ms
 10846  008D' 3000               	movlw	0
 10847  008E' 0087'              	movwf	delay10ms@period_10ms+1
 10848  008F' 120A' 118A' 2000' 120A' 118A' 	fcall	_delay10ms
 10849                           
 10850                           ;LC-meter.c: 372: F2 = (double)measure_freq();
 10851  0094' 120A' 118A' 2000' 120A' 118A' 	fcall	_measure_freq
 10852  0099' 1283               	bcf	3,5	;RP0=0, select bank0
 10853  009A' 1303               	bcf	3,6	;RP1=0, select bank0
 10854  009B' 0801'              	movf	?_measure_freq+1,w
 10855  009C' 008D'              	movwf	___lwtofl@c+1
 10856  009D' 0800'              	movf	?_measure_freq,w
 10857  009E' 008C'              	movwf	___lwtofl@c
 10858  009F' 120A' 118A' 2000' 120A' 118A' 	fcall	___lwtofl
 10859  00A4' 1283               	bcf	3,5	;RP0=0, select bank0
 10860  00A5' 1303               	bcf	3,6	;RP1=0, select bank0
 10861  00A6' 080F'              	movf	?___lwtofl+3,w
 10862  00A7' 1683               	bsf	3,5	;RP0=1, select bank3
 10863  00A8' 1703               	bsf	3,6	;RP1=1, select bank3
 10864  00A9' 0080'              	movwf	(_F2+3)^(0+384)
 10865  00AA' 1283               	bcf	3,5	;RP0=0, select bank0
 10866  00AB' 1303               	bcf	3,6	;RP1=0, select bank0
 10867  00AC' 080E'              	movf	?___lwtofl+2,w
 10868  00AD' 1683               	bsf	3,5	;RP0=1, select bank3
 10869  00AE' 1703               	bsf	3,6	;RP1=1, select bank3
 10870  00AF' 0080'              	movwf	(_F2+2)^(0+384)
 10871  00B0' 1283               	bcf	3,5	;RP0=0, select bank0
 10872  00B1' 1303               	bcf	3,6	;RP1=0, select bank0
 10873  00B2' 080D'              	movf	?___lwtofl+1,w
 10874  00B3' 1683               	bsf	3,5	;RP0=1, select bank3
 10875  00B4' 1703               	bsf	3,6	;RP1=1, select bank3
 10876  00B5' 0080'              	movwf	(_F2+1)^(0+384)
 10877  00B6' 1283               	bcf	3,5	;RP0=0, select bank0
 10878  00B7' 1303               	bcf	3,6	;RP1=0, select bank0
 10879  00B8' 080C'              	movf	?___lwtofl,w
 10880  00B9' 1683               	bsf	3,5	;RP0=1, select bank3
 10881  00BA' 1703               	bsf	3,6	;RP1=1, select bank3
 10882  00BB' 0080'              	movwf	_F2^(0+384)
 10883                           
 10884                           ;LC-meter.c: 373: RC5 = 0;
 10885  00BC' 1283               	bcf	3,5	;RP0=0, select bank0
 10886  00BD' 1303               	bcf	3,6	;RP1=0, select bank0
 10887  00BE' 1287               	bcf	7,5	;volatile
 10888                           
 10889                           ;LC-meter.c: 385: ser_puts("\r\n");
 10890  00BF' 3058               	movlw	(low (((STR_1+3)-__stringbase)| (0+32768)))& (0+255)
 10891  00C0' 120A' 118A' 2000'  	fcall	_ser_puts
 10892  00C3' 0008               	return
 10893  00C4'                    __end_of_calibrate:	
 10894                           
 10895                           	psect	text35
 10896  0000'                    __ptext35:	
 10897 ;; *************** function _ser_puts *****************
 10898 ;; Defined at:
 10899 ;;		line 92 in file "../../../lib/ser.c"
 10900 ;; Parameters:    Size  Location     Type
 10901 ;;  s               1    wreg     PTR const unsigned char 
 10902 ;;		 -> STR_11(3), STR_10(5), STR_9(3), STR_8(8), 
 10903 ;;		 -> STR_7(6), STR_6(6), STR_5(6), STR_4(5), 
 10904 ;;		 -> STR_3(3), STR_2(3), STR_1(6), 
 10905 ;; Auto vars:     Size  Location     Type
 10906 ;;  s               1    7[BANK0 ] PTR const unsigned char 
 10907 ;;		 -> STR_11(3), STR_10(5), STR_9(3), STR_8(8), 
 10908 ;;		 -> STR_7(6), STR_6(6), STR_5(6), STR_4(5), 
 10909 ;;		 -> STR_3(3), STR_2(3), STR_1(6), 
 10910 ;; Return value:  Size  Location     Type
 10911 ;;		None               void
 10912 ;; Registers used:
 10913 ;;		wreg, fsr0l, fsr0h, status,2, status,0, pclath, cstack
 10914 ;; Tracked objects:
 10915 ;;		On entry : 0/0
 10916 ;;		On exit  : 0/0
 10917 ;;		Unchanged: 0/0
 10918 ;; Data sizes:     COMMON   BANK0   BANK1   BANK3   BANK2
 10919 ;;      Params:         0       0       0       0       0
 10920 ;;      Locals:         0       1       0       0       0
 10921 ;;      Temps:          0       1       0       0       0
 10922 ;;      Totals:         0       2       0       0       0
 10923 ;;Total ram usage:        2 bytes
 10924 ;; Hardware stack levels used:    1
 10925 ;; Hardware stack levels required when called:    2
 10926 ;; This function calls:
 10927 ;;		_ser_putch
 10928 ;; This function is called by:
 10929 ;;		_main
 10930 ;;		_calibrate
 10931 ;;		_measure_capacitance
 10932 ;;		_testloop
 10933 ;; This function uses a non-reentrant model
 10934 ;;
 10935                           
 10936                           
 10937                           ;psect for function _ser_puts
 10938  0000'                    _ser_puts:	
 10939                           
 10940                           ;incstack = 0
 10941                           ; Regs used in _ser_puts: [wreg-fsr0h+status,2+status,0+pclath+cstack]
 10942                           ;ser_puts@s stored from wreg
 10943  0000' 1283               	bcf	3,5	;RP0=0, select bank0
 10944  0001' 1303               	bcf	3,6	;RP1=0, select bank0
 10945  0002' 0087'              	movwf	ser_puts@s
 10946  0003'                    l3938:	
 10947                           ;ser.c: 93: while(*s) ser_putch(*s++);
 10948                           
 10949  0003' 0807'              	movf	ser_puts@s,w
 10950  0004' 0084               	movwf	4
 10951  0005' 120A' 118A' 2000' 120A' 118A' 	fcall	stringdir
 10952  000A' 3A00               	xorlw	0
 10953  000B' 1903               	btfsc	3,2
 10954  000C' 0008               	return
 10955  000D' 0807'              	movf	ser_puts@s,w
 10956  000E' 0084               	movwf	4
 10957  000F' 120A' 118A' 2000' 120A' 118A' 	fcall	stringdir
 10958  0014' 0086'              	movwf	??_ser_puts
 10959  0015' 0806'              	movf	??_ser_puts,w
 10960  0016' 0084'              	movwf	ser_putch@c
 10961  0017' 120A' 118A' 2000' 120A' 118A' 	fcall	_ser_putch
 10962  001C' 3001               	movlw	1
 10963  001D' 1283               	bcf	3,5	;RP0=0, select bank0
 10964  001E' 1303               	bcf	3,6	;RP1=0, select bank0
 10965  001F' 0086'              	movwf	??_ser_puts
 10966  0020' 0806'              	movf	??_ser_puts,w
 10967  0021' 0787'              	addwf	ser_puts@s,f
 10968  0022' 2800'              	goto	l3938
 10969  0023'                    __end_of_ser_puts:	
 10970                           
 10971                           	psect	text36
 10972  0000'                    __ptext36:	
 10973 ;; *************** function _measure_freq *****************
 10974 ;; Defined at:
 10975 ;;		line 299 in file "../../../src/LC-meter.c"
 10976 ;; Parameters:    Size  Location     Type
 10977 ;;		None
 10978 ;; Auto vars:     Size  Location     Type
 10979 ;;  i               1    9[BANK0 ] unsigned char 
 10980 ;;  count           2   10[BANK0 ] unsigned short 
 10981 ;;  prev            1    8[BANK0 ] unsigned char 
 10982 ;; Return value:  Size  Location     Type
 10983 ;;                  2    0[BANK0 ] unsigned short 
 10984 ;; Registers used:
 10985 ;;		wreg, status,2, status,0, btemp+1
 10986 ;; Tracked objects:
 10987 ;;		On entry : 0/0
 10988 ;;		On exit  : 0/0
 10989 ;;		Unchanged: 0/0
 10990 ;; Data sizes:     COMMON   BANK0   BANK1   BANK3   BANK2
 10991 ;;      Params:         0       2       0       0       0
 10992 ;;      Locals:         0       4       0       0       0
 10993 ;;      Temps:          0       6       0       0       0
 10994 ;;      Totals:         0      12       0       0       0
 10995 ;;Total ram usage:       12 bytes
 10996 ;; Hardware stack levels used:    1
 10997 ;; Hardware stack levels required when called:    1
 10998 ;; This function calls:
 10999 ;;		Nothing
 11000 ;; This function is called by:
 11001 ;;		_calibrate
 11002 ;;		_measure_capacitance
 11003 ;;		_measure_inductance
 11004 ;; This function uses a non-reentrant model
 11005 ;;
 11006                           
 11007                           
 11008                           ;psect for function _measure_freq
 11009  0000'                    _measure_freq:	
 11010                           
 11011                           ;LC-meter.c: 300: unsigned char prev;
 11012                           ;LC-meter.c: 301: unsigned short int count;
 11013                           ;LC-meter.c: 303: TMR0IF = 0;
 11014                           
 11015                           ;incstack = 0
 11016                           ; Regs used in _measure_freq: [wreg+status,2+status,0+btemp+1]
 11017  0000' 110B               	bcf	11,2	;volatile
 11018                           
 11019                           ;LC-meter.c: 305: TRISA &= ~0b00010000;
 11020  0001' 30EF               	movlw	239
 11021  0002' 1283               	bcf	3,5	;RP0=0, select bank0
 11022  0003' 1303               	bcf	3,6	;RP1=0, select bank0
 11023  0004' 0082'              	movwf	??_measure_freq
 11024  0005' 0802'              	movf	??_measure_freq,w
 11025  0006' 1683               	bsf	3,5	;RP0=1, select bank1
 11026  0007' 1303               	bcf	3,6	;RP1=0, select bank1
 11027  0008' 0585               	andwf	5,f	;volatile
 11028                           
 11029                           ;LC-meter.c: 308: _delay((unsigned long)((20)*(20000000/4000.0)));
 11030  0009' 3082               	movlw	130
 11031  000A' 1283               	bcf	3,5	;RP0=0, select bank0
 11032  000B' 1303               	bcf	3,6	;RP1=0, select bank0
 11033  000C' 0083'              	movwf	??_measure_freq+1
 11034  000D' 30DD               	movlw	221
 11035  000E' 0082'              	movwf	??_measure_freq
 11036  000F'                    u5437:	
 11037  000F' 0B82'              	decfsz	??_measure_freq,f
 11038  0010' 2800'              	goto	u5437
 11039  0011' 0B83'              	decfsz	??_measure_freq+1,f
 11040  0012' 2800'              	goto	u5437
 11041  0013' 2800'              	nop2
 11042                           
 11043                           ;LC-meter.c: 310: TMR0 = 0x00;
 11044  0014' 1283               	bcf	3,5	;RP0=0, select bank0
 11045  0015' 1303               	bcf	3,6	;RP1=0, select bank0
 11046  0016' 0181               	clrf	1	;volatile
 11047                           
 11048                           ;LC-meter.c: 312: for(char i = 0; i < 10; i++)
 11049  0017' 0189'              	clrf	measure_freq@i
 11050  0018' 300A               	movlw	10
 11051  0019' 0209'              	subwf	measure_freq@i,w
 11052  001A' 1803               	btfsc	3,0
 11053  001B' 2800'              	goto	l335
 11054  001C'                    l3996:	
 11055                           
 11056                           ;LC-meter.c: 313: _delay((unsigned long)((10)*(20000000/4000.0)));
 11057  001C' 3041               	movlw	65
 11058  001D' 0083'              	movwf	??_measure_freq+1
 11059  001E' 30EE               	movlw	238
 11060  001F' 0082'              	movwf	??_measure_freq
 11061  0020'                    u5447:	
 11062  0020' 0B82'              	decfsz	??_measure_freq,f
 11063  0021' 2800'              	goto	u5447
 11064  0022' 0B83'              	decfsz	??_measure_freq+1,f
 11065  0023' 2800'              	goto	u5447
 11066  0024' 0000               	nop
 11067  0025' 3001               	movlw	1
 11068  0026' 1283               	bcf	3,5	;RP0=0, select bank0
 11069  0027' 1303               	bcf	3,6	;RP1=0, select bank0
 11070  0028' 0082'              	movwf	??_measure_freq
 11071  0029' 0802'              	movf	??_measure_freq,w
 11072  002A' 0789'              	addwf	measure_freq@i,f
 11073  002B' 300A               	movlw	10
 11074  002C' 0209'              	subwf	measure_freq@i,w
 11075  002D' 1C03               	skipc
 11076  002E' 2800'              	goto	l3996
 11077  002F'                    l335:	
 11078                           
 11079                           ;LC-meter.c: 315: TRISA |= 0b00010000;
 11080  002F' 1683               	bsf	3,5	;RP0=1, select bank1
 11081  0030' 1303               	bcf	3,6	;RP1=0, select bank1
 11082  0031' 1605               	bsf	5,4	;volatile
 11083                           
 11084                           ;LC-meter.c: 317: prev = TMR0;
 11085  0032' 1283               	bcf	3,5	;RP0=0, select bank0
 11086  0033' 1303               	bcf	3,6	;RP1=0, select bank0
 11087  0034' 0801               	movf	1,w	;volatile
 11088  0035' 0082'              	movwf	??_measure_freq
 11089  0036' 0802'              	movf	??_measure_freq,w
 11090  0037' 0088'              	movwf	measure_freq@prev
 11091                           
 11092                           ;LC-meter.c: 318: count = 0;
 11093  0038' 018A'              	clrf	measure_freq@count
 11094  0039' 018B'              	clrf	measure_freq@count+1
 11095  003A'                    l4006:	
 11096                           ;LC-meter.c: 320: do {
 11097                           
 11098                           
 11099                           ;LC-meter.c: 322: T0SE = 1;
 11100  003A' 1683               	bsf	3,5	;RP0=1, select bank1
 11101  003B' 1303               	bcf	3,6	;RP1=0, select bank1
 11102  003C' 1601               	bsf	1,4	;volatile
 11103                           
 11104                           ;LC-meter.c: 323: __nop();
 11105  003D' 0000               	nop
 11106                           
 11107                           ;LC-meter.c: 324: __nop();
 11108  003E' 0000               	nop
 11109                           
 11110                           ;LC-meter.c: 326: T0SE = 0;
 11111  003F' 1683               	bsf	3,5	;RP0=1, select bank1
 11112  0040' 1303               	bcf	3,6	;RP1=0, select bank1
 11113  0041' 1201               	bcf	1,4	;volatile
 11114                           
 11115                           ;LC-meter.c: 327: __nop();
 11116  0042' 0000               	nop
 11117                           
 11118                           ;LC-meter.c: 328: __nop();
 11119  0043' 0000               	nop
 11120                           
 11121                           ;LC-meter.c: 329: count++;
 11122  0044' 3001               	movlw	1
 11123  0045' 1283               	bcf	3,5	;RP0=0, select bank0
 11124  0046' 1303               	bcf	3,6	;RP1=0, select bank0
 11125  0047' 078A'              	addwf	measure_freq@count,f
 11126  0048' 1803               	skipnc
 11127  0049' 0A8B'              	incf	measure_freq@count+1,f
 11128  004A' 3000               	movlw	0
 11129  004B' 078B'              	addwf	measure_freq@count+1,f
 11130                           
 11131                           ;LC-meter.c: 330: } while(prev == TMR0 && count <= 255);
 11132  004C' 0808'              	movf	measure_freq@prev,w
 11133  004D' 0601               	xorwf	1,w	;volatile
 11134  004E' 1D03               	skipz
 11135  004F' 2800'              	goto	l4024
 11136  0050' 3001               	movlw	1
 11137  0051' 020B'              	subwf	measure_freq@count+1,w
 11138  0052' 3000               	movlw	0
 11139  0053' 1903               	skipnz
 11140  0054' 020A'              	subwf	measure_freq@count,w
 11141  0055' 1C03               	skipc
 11142  0056' 2800'              	goto	l4006
 11143  0057'                    l4024:	
 11144                           
 11145                           ;LC-meter.c: 333: count = ((prev << 8) + (256 - count));
 11146  0057' 090A'              	comf	measure_freq@count,w
 11147  0058' 0082'              	movwf	??_measure_freq
 11148  0059' 090B'              	comf	measure_freq@count+1,w
 11149  005A' 0083'              	movwf	??_measure_freq+1
 11150  005B' 0A82'              	incf	??_measure_freq,f
 11151  005C' 1903               	skipnz
 11152  005D' 0A83'              	incf	??_measure_freq+1,f
 11153  005E' 0808'              	movf	measure_freq@prev,w
 11154  005F' 0084'              	movwf	??_measure_freq+2
 11155  0060' 0185'              	clrf	??_measure_freq+3
 11156  0061' 0804'              	movf	??_measure_freq+2,w
 11157  0062' 0085'              	movwf	??_measure_freq+3
 11158  0063' 0184'              	clrf	??_measure_freq+2
 11159  0064' 0802'              	movf	??_measure_freq,w
 11160  0065' 0704'              	addwf	??_measure_freq+2,w
 11161  0066' 0086'              	movwf	??_measure_freq+4
 11162  0067' 0803'              	movf	??_measure_freq+1,w
 11163  0068' 1803               	skipnc
 11164  0069' 0A03'              	incf	??_measure_freq+1,w
 11165  006A' 0705'              	addwf	??_measure_freq+3,w
 11166  006B' 0087'              	movwf	??_measure_freq+5
 11167  006C' 0806'              	movf	??_measure_freq+4,w
 11168  006D' 3E00               	addlw	0
 11169  006E' 008A'              	movwf	measure_freq@count
 11170  006F' 0807'              	movf	??_measure_freq+5,w
 11171  0070' 1803               	skipnc
 11172  0071' 3E01               	addlw	1
 11173  0072' 3E01               	addlw	1
 11174  0073' 008B'              	movwf	measure_freq@count+1
 11175                           
 11176                           ;LC-meter.c: 340: return count;
 11177  0074' 080B'              	movf	measure_freq@count+1,w
 11178  0075' 0081'              	movwf	?_measure_freq+1
 11179  0076' 080A'              	movf	measure_freq@count,w
 11180  0077' 0080'              	movwf	?_measure_freq
 11181  0078' 0008               	return
 11182  0079'                    __end_of_measure_freq:	
 11183                           
 11184                           	psect	text37
 11185  0000'                    __ptext37:	
 11186 ;; *************** function _delay10ms *****************
 11187 ;; Defined at:
 11188 ;;		line 533 in file "../../../src/LC-meter.c"
 11189 ;; Parameters:    Size  Location     Type
 11190 ;;  period_10ms     2    6[BANK0 ] unsigned short 
 11191 ;; Auto vars:     Size  Location     Type
 11192 ;;  ms              4   12[BANK0 ] unsigned long 
 11193 ;;  run             1   16[BANK0 ] unsigned char 
 11194 ;; Return value:  Size  Location     Type
 11195 ;;		None               void
 11196 ;; Registers used:
 11197 ;;		wreg, status,2, status,0, pclath, cstack
 11198 ;; Tracked objects:
 11199 ;;		On entry : 0/0
 11200 ;;		On exit  : 0/0
 11201 ;;		Unchanged: 0/0
 11202 ;; Data sizes:     COMMON   BANK0   BANK1   BANK3   BANK2
 11203 ;;      Params:         0       2       0       0       0
 11204 ;;      Locals:         0       5       0       0       0
 11205 ;;      Temps:          0       4       0       0       0
 11206 ;;      Totals:         0      11       0       0       0
 11207 ;;Total ram usage:       11 bytes
 11208 ;; Hardware stack levels used:    1
 11209 ;; Hardware stack levels required when called:    2
 11210 ;; This function calls:
 11211 ;;		___wmul
 11212 ;; This function is called by:
 11213 ;;		_main
 11214 ;;		_calibrate
 11215 ;;		_testloop
 11216 ;; This function uses a non-reentrant model
 11217 ;;
 11218                           
 11219                           
 11220                           ;psect for function _delay10ms
 11221  0000'                    _delay10ms:	
 11222                           
 11223                           ;LC-meter.c: 537: unsigned long int ms;
 11224                           ;LC-meter.c: 538: BOOL run = 1;
 11225                           
 11226                           ;incstack = 0
 11227                           ; Regs used in _delay10ms: [wreg+status,2+status,0+pclath+cstack]
 11228  0000' 1283               	bcf	3,5	;RP0=0, select bank0
 11229  0001' 1303               	bcf	3,6	;RP1=0, select bank0
 11230  0002' 0190'              	clrf	delay10ms@run
 11231  0003' 0A90'              	incf	delay10ms@run,f
 11232                           
 11233                           ;LC-meter.c: 540: GIE = 0, ms = msecs, GIE = 1;
 11234  0004' 138B               	bcf	11,7	;volatile
 11235  0005' 1683               	bsf	3,5	;RP0=1, select bank3
 11236  0006' 1703               	bsf	3,6	;RP1=1, select bank3
 11237  0007' 0800'              	movf	(_msecs+3)^(0+384),w	;volatile
 11238  0008' 1283               	bcf	3,5	;RP0=0, select bank0
 11239  0009' 1303               	bcf	3,6	;RP1=0, select bank0
 11240  000A' 008F'              	movwf	delay10ms@ms+3
 11241  000B' 1683               	bsf	3,5	;RP0=1, select bank3
 11242  000C' 1703               	bsf	3,6	;RP1=1, select bank3
 11243  000D' 0800'              	movf	(_msecs+2)^(0+384),w	;volatile
 11244  000E' 1283               	bcf	3,5	;RP0=0, select bank0
 11245  000F' 1303               	bcf	3,6	;RP1=0, select bank0
 11246  0010' 008E'              	movwf	delay10ms@ms+2
 11247  0011' 1683               	bsf	3,5	;RP0=1, select bank3
 11248  0012' 1703               	bsf	3,6	;RP1=1, select bank3
 11249  0013' 0800'              	movf	(_msecs+1)^(0+384),w	;volatile
 11250  0014' 1283               	bcf	3,5	;RP0=0, select bank0
 11251  0015' 1303               	bcf	3,6	;RP1=0, select bank0
 11252  0016' 008D'              	movwf	delay10ms@ms+1
 11253  0017' 1683               	bsf	3,5	;RP0=1, select bank3
 11254  0018' 1703               	bsf	3,6	;RP1=1, select bank3
 11255  0019' 0800'              	movf	_msecs^(0+384),w	;volatile
 11256  001A' 1283               	bcf	3,5	;RP0=0, select bank0
 11257  001B' 1303               	bcf	3,6	;RP1=0, select bank0
 11258  001C' 008C'              	movwf	delay10ms@ms
 11259  001D' 178B               	bsf	11,7	;volatile
 11260                           
 11261                           ;LC-meter.c: 545: ms += period_10ms * 10;
 11262  001E' 0807'              	movf	delay10ms@period_10ms+1,w
 11263  001F' 0081'              	movwf	___wmul@multiplier+1
 11264  0020' 0806'              	movf	delay10ms@period_10ms,w
 11265  0021' 0080'              	movwf	___wmul@multiplier
 11266  0022' 300A               	movlw	10
 11267  0023' 0082'              	movwf	___wmul@multiplicand
 11268  0024' 3000               	movlw	0
 11269  0025' 0083'              	movwf	___wmul@multiplicand+1
 11270  0026' 120A' 118A' 2000' 120A' 118A' 	fcall	___wmul
 11271  002B' 1283               	bcf	3,5	;RP0=0, select bank0
 11272  002C' 1303               	bcf	3,6	;RP1=0, select bank0
 11273  002D' 0800'              	movf	?___wmul,w
 11274  002E' 0088'              	movwf	??_delay10ms
 11275  002F' 0801'              	movf	?___wmul+1,w
 11276  0030' 0089'              	movwf	??_delay10ms+1
 11277  0031' 018A'              	clrf	??_delay10ms+2
 11278  0032' 018B'              	clrf	??_delay10ms+3
 11279  0033' 0808'              	movf	??_delay10ms,w
 11280  0034' 078C'              	addwf	delay10ms@ms,f
 11281  0035' 0809'              	movf	??_delay10ms+1,w
 11282  0036' 1103               	clrz
 11283  0037' 1803               	skipnc
 11284  0038' 3E01               	addlw	1
 11285  0039' 1D03               	btfss	3,2
 11286  003A' 078D'              	addwf	delay10ms@ms+1,f
 11287  003B' 080A'              	movf	??_delay10ms+2,w
 11288  003C' 1103               	clrz
 11289  003D' 1803               	skipnc
 11290  003E' 3E01               	addlw	1
 11291  003F' 1D03               	btfss	3,2
 11292  0040' 078E'              	addwf	delay10ms@ms+2,f
 11293  0041' 080B'              	movf	??_delay10ms+3,w
 11294  0042' 1103               	clrz
 11295  0043' 1803               	skipnc
 11296  0044' 3E01               	addlw	1
 11297  0045' 1D03               	btfss	3,2
 11298  0046' 078F'              	addwf	delay10ms@ms+3,f
 11299  0047'                    l3972:	
 11300                           ;LC-meter.c: 548: do {
 11301                           
 11302                           
 11303                           ;LC-meter.c: 549: GIE = 0;
 11304  0047' 138B               	bcf	11,7	;volatile
 11305                           
 11306                           ;LC-meter.c: 550: if(ms <= msecs)
 11307  0048' 080F'              	movf	delay10ms@ms+3,w
 11308  0049' 1683               	bsf	3,5	;RP0=1, select bank3
 11309  004A' 1703               	bsf	3,6	;RP1=1, select bank3
 11310  004B' 0200'              	subwf	(_msecs+3)^(0+384),w	;volatile
 11311  004C' 1D03               	skipz
 11312  004D' 2800'              	goto	u5035
 11313  004E' 1283               	bcf	3,5	;RP0=0, select bank0
 11314  004F' 1303               	bcf	3,6	;RP1=0, select bank0
 11315  0050' 080E'              	movf	delay10ms@ms+2,w
 11316  0051' 1683               	bsf	3,5	;RP0=1, select bank3
 11317  0052' 1703               	bsf	3,6	;RP1=1, select bank3
 11318  0053' 0200'              	subwf	(_msecs+2)^(0+384),w	;volatile
 11319  0054' 1D03               	skipz
 11320  0055' 2800'              	goto	u5035
 11321  0056' 1283               	bcf	3,5	;RP0=0, select bank0
 11322  0057' 1303               	bcf	3,6	;RP1=0, select bank0
 11323  0058' 080D'              	movf	delay10ms@ms+1,w
 11324  0059' 1683               	bsf	3,5	;RP0=1, select bank3
 11325  005A' 1703               	bsf	3,6	;RP1=1, select bank3
 11326  005B' 0200'              	subwf	(_msecs+1)^(0+384),w	;volatile
 11327  005C' 1D03               	skipz
 11328  005D' 2800'              	goto	u5035
 11329  005E' 1283               	bcf	3,5	;RP0=0, select bank0
 11330  005F' 1303               	bcf	3,6	;RP1=0, select bank0
 11331  0060' 080C'              	movf	delay10ms@ms,w
 11332  0061' 1683               	bsf	3,5	;RP0=1, select bank3
 11333  0062' 1703               	bsf	3,6	;RP1=1, select bank3
 11334  0063' 0200'              	subwf	_msecs^(0+384),w	;volatile
 11335  0064'                    u5035:	
 11336  0064' 1C03               	skipc
 11337  0065' 2800'              	goto	l3978
 11338                           
 11339                           ;LC-meter.c: 551: run = 0;
 11340  0066' 1283               	bcf	3,5	;RP0=0, select bank0
 11341  0067' 1303               	bcf	3,6	;RP1=0, select bank0
 11342  0068' 0190'              	clrf	delay10ms@run
 11343  0069'                    l3978:	
 11344                           
 11345                           ;LC-meter.c: 552: GIE = 1;
 11346  0069' 178B               	bsf	11,7	;volatile
 11347                           
 11348                           ;LC-meter.c: 553: } while(run);
 11349  006A' 1283               	bcf	3,5	;RP0=0, select bank0
 11350  006B' 1303               	bcf	3,6	;RP1=0, select bank0
 11351  006C' 0810'              	movf	delay10ms@run,w
 11352  006D' 1903               	btfsc	3,2
 11353  006E' 0008               	return
 11354  006F' 2800'              	goto	l3972
 11355  0070'                    __end_of_delay10ms:	
 11356                           
 11357                           	psect	text38
 11358  0000'                    __ptext38:	
 11359 ;; *************** function ___wmul *****************
 11360 ;; Defined at:
 11361 ;;		line 15 in file "/opt/microchip/xc8/v1.34/sources/common/Umul16.c"
 11362 ;; Parameters:    Size  Location     Type
 11363 ;;  multiplier      2    0[BANK0 ] unsigned int 
 11364 ;;  multiplicand    2    2[BANK0 ] unsigned int 
 11365 ;; Auto vars:     Size  Location     Type
 11366 ;;  product         2    4[BANK0 ] unsigned int 
 11367 ;; Return value:  Size  Location     Type
 11368 ;;                  2    0[BANK0 ] unsigned int 
 11369 ;; Registers used:
 11370 ;;		wreg, status,2, status,0
 11371 ;; Tracked objects:
 11372 ;;		On entry : 0/0
 11373 ;;		On exit  : 0/0
 11374 ;;		Unchanged: 0/0
 11375 ;; Data sizes:     COMMON   BANK0   BANK1   BANK3   BANK2
 11376 ;;      Params:         0       4       0       0       0
 11377 ;;      Locals:         0       2       0       0       0
 11378 ;;      Temps:          0       0       0       0       0
 11379 ;;      Totals:         0       6       0       0       0
 11380 ;;Total ram usage:        6 bytes
 11381 ;; Hardware stack levels used:    1
 11382 ;; Hardware stack levels required when called:    1
 11383 ;; This function calls:
 11384 ;;		Nothing
 11385 ;; This function is called by:
 11386 ;;		_delay10ms
 11387 ;; This function uses a non-reentrant model
 11388 ;;
 11389                           
 11390                           
 11391                           ;psect for function ___wmul
 11392  0000'                    ___wmul:	
 11393                           
 11394                           ;incstack = 0
 11395                           ; Regs used in ___wmul: [wreg+status,2+status,0]
 11396  0000' 1283               	bcf	3,5	;RP0=0, select bank0
 11397  0001' 1303               	bcf	3,6	;RP1=0, select bank0
 11398  0002' 0184'              	clrf	___wmul@product
 11399  0003' 0185'              	clrf	___wmul@product+1
 11400  0004'                    l3920:	
 11401  0004' 1C00'              	btfss	___wmul@multiplier,0
 11402  0005' 2800'              	goto	l459
 11403  0006' 0802'              	movf	___wmul@multiplicand,w
 11404  0007' 0784'              	addwf	___wmul@product,f
 11405  0008' 1803               	skipnc
 11406  0009' 0A85'              	incf	___wmul@product+1,f
 11407  000A' 0803'              	movf	___wmul@multiplicand+1,w
 11408  000B' 0785'              	addwf	___wmul@product+1,f
 11409  000C'                    l459:	
 11410  000C' 3001               	movlw	1
 11411  000D'                    u4955:	
 11412  000D' 1003               	clrc
 11413  000E' 0D82'              	rlf	___wmul@multiplicand,f
 11414  000F' 0D83'              	rlf	___wmul@multiplicand+1,f
 11415  0010' 3EFF               	addlw	-1
 11416  0011' 1D03               	skipz
 11417  0012' 2800'              	goto	u4955
 11418  0013' 3001               	movlw	1
 11419  0014'                    u4965:	
 11420  0014' 1003               	clrc
 11421  0015' 0C81'              	rrf	___wmul@multiplier+1,f
 11422  0016' 0C80'              	rrf	___wmul@multiplier,f
 11423  0017' 3EFF               	addlw	-1
 11424  0018' 1D03               	skipz
 11425  0019' 2800'              	goto	u4965
 11426  001A' 0800'              	movf	___wmul@multiplier,w
 11427  001B' 0401'              	iorwf	___wmul@multiplier+1,w
 11428  001C' 1D03               	btfss	3,2
 11429  001D' 2800'              	goto	l3920
 11430  001E' 0805'              	movf	___wmul@product+1,w
 11431  001F' 0081'              	movwf	?___wmul+1
 11432  0020' 0804'              	movf	___wmul@product,w
 11433  0021' 0080'              	movwf	?___wmul
 11434  0022' 0008               	return
 11435  0023'                    __end_of___wmul:	
 11436                           
 11437                           	psect	text39
 11438  0000'                    __ptext39:	
 11439 ;; *************** function ___lwtofl *****************
 11440 ;; Defined at:
 11441 ;;		line 28 in file "/opt/microchip/xc8/v1.34/sources/common/lwtofl.c"
 11442 ;; Parameters:    Size  Location     Type
 11443 ;;  c               2   12[BANK0 ] unsigned int 
 11444 ;; Auto vars:     Size  Location     Type
 11445 ;;		None
 11446 ;; Return value:  Size  Location     Type
 11447 ;;                  4   12[BANK0 ] unsigned int 
 11448 ;; Registers used:
 11449 ;;		wreg, status,2, status,0, pclath, cstack
 11450 ;; Tracked objects:
 11451 ;;		On entry : 0/0
 11452 ;;		On exit  : 0/0
 11453 ;;		Unchanged: 0/0
 11454 ;; Data sizes:     COMMON   BANK0   BANK1   BANK3   BANK2
 11455 ;;      Params:         0       4       0       0       0
 11456 ;;      Locals:         0       0       0       0       0
 11457 ;;      Temps:          0       1       0       0       0
 11458 ;;      Totals:         0       5       0       0       0
 11459 ;;Total ram usage:        5 bytes
 11460 ;; Hardware stack levels used:    1
 11461 ;; Hardware stack levels required when called:    2
 11462 ;; This function calls:
 11463 ;;		___flpack
 11464 ;; This function is called by:
 11465 ;;		_calibrate
 11466 ;;		_measure_capacitance
 11467 ;;		_measure_inductance
 11468 ;; This function uses a non-reentrant model
 11469 ;;
 11470                           
 11471                           
 11472                           ;psect for function ___lwtofl
 11473  0000'                    ___lwtofl:	
 11474                           
 11475                           ;incstack = 0
 11476                           ; Regs used in ___lwtofl: [wreg+status,2+status,0+pclath+cstack]
 11477  0000' 1283               	bcf	3,5	;RP0=0, select bank0
 11478  0001' 1303               	bcf	3,6	;RP1=0, select bank0
 11479  0002' 080C'              	movf	___lwtofl@c,w
 11480  0003' 0080'              	movwf	___flpack@arg
 11481  0004' 080D'              	movf	___lwtofl@c+1,w
 11482  0005' 0081'              	movwf	___flpack@arg+1
 11483  0006' 0182'              	clrf	___flpack@arg+2
 11484  0007' 0183'              	clrf	___flpack@arg+3
 11485  0008' 3096               	movlw	150
 11486  0009' 0090'              	movwf	??___lwtofl
 11487  000A' 0810'              	movf	??___lwtofl,w
 11488  000B' 0084'              	movwf	___flpack@exp
 11489  000C' 0185'              	clrf	___flpack@sign
 11490  000D' 120A' 118A' 2000'  	fcall	___flpack
 11491  0010' 1283               	bcf	3,5	;RP0=0, select bank0
 11492  0011' 1303               	bcf	3,6	;RP1=0, select bank0
 11493  0012' 0803'              	movf	?___flpack+3,w
 11494  0013' 008F'              	movwf	?___lwtofl+3
 11495  0014' 0802'              	movf	?___flpack+2,w
 11496  0015' 008E'              	movwf	?___lwtofl+2
 11497  0016' 0801'              	movf	?___flpack+1,w
 11498  0017' 008D'              	movwf	?___lwtofl+1
 11499  0018' 0800'              	movf	?___flpack,w
 11500  0019' 008C'              	movwf	?___lwtofl
 11501  001A' 0008               	return
 11502  001B'                    __end_of___lwtofl:	
 11503                           
 11504                           	psect	text40
 11505  0000'                    __ptext40:	
 11506 ;; *************** function ___flpack *****************
 11507 ;; Defined at:
 11508 ;;		line 63 in file "/opt/microchip/xc8/v1.34/sources/common/double.c"
 11509 ;; Parameters:    Size  Location     Type
 11510 ;;  arg             4    0[BANK0 ] unsigned long 
 11511 ;;  exp             1    4[BANK0 ] unsigned char 
 11512 ;;  sign            1    5[BANK0 ] unsigned char 
 11513 ;; Auto vars:     Size  Location     Type
 11514 ;;		None
 11515 ;; Return value:  Size  Location     Type
 11516 ;;                  4    0[BANK0 ] unsigned char 
 11517 ;; Registers used:
 11518 ;;		wreg, status,2, status,0
 11519 ;; Tracked objects:
 11520 ;;		On entry : 0/0
 11521 ;;		On exit  : 0/0
 11522 ;;		Unchanged: 0/0
 11523 ;; Data sizes:     COMMON   BANK0   BANK1   BANK3   BANK2
 11524 ;;      Params:         0       6       0       0       0
 11525 ;;      Locals:         0       0       0       0       0
 11526 ;;      Temps:          0       4       0       0       0
 11527 ;;      Totals:         0      10       0       0       0
 11528 ;;Total ram usage:       10 bytes
 11529 ;; Hardware stack levels used:    1
 11530 ;; Hardware stack levels required when called:    1
 11531 ;; This function calls:
 11532 ;;		Nothing
 11533 ;; This function is called by:
 11534 ;;		___altofl
 11535 ;;		___awtofl
 11536 ;;		___fladd
 11537 ;;		___fldiv
 11538 ;;		___flmul
 11539 ;;		___lltofl
 11540 ;;		___lwtofl
 11541 ;; This function uses a non-reentrant model
 11542 ;;
 11543                           
 11544                           
 11545                           ;psect for function ___flpack
 11546  0000'                    ___flpack:	
 11547                           
 11548                           ;incstack = 0
 11549                           ; Regs used in ___flpack: [wreg+status,2+status,0]
 11550  0000' 1283               	bcf	3,5	;RP0=0, select bank0
 11551  0001' 1303               	bcf	3,6	;RP1=0, select bank0
 11552  0002' 0804'              	movf	___flpack@exp,w
 11553  0003' 1903               	btfsc	3,2
 11554  0004' 2800'              	goto	l3340
 11555  0005' 0803'              	movf	___flpack@arg+3,w
 11556  0006' 0402'              	iorwf	___flpack@arg+2,w
 11557  0007' 0401'              	iorwf	___flpack@arg+1,w
 11558  0008' 0400'              	iorwf	___flpack@arg,w
 11559  0009' 1D03               	skipz
 11560  000A' 2800'              	goto	l3346
 11561  000B'                    l3340:	
 11562  000B' 3000               	movlw	0
 11563  000C' 0083'              	movwf	?___flpack+3
 11564  000D' 3000               	movlw	0
 11565  000E' 0082'              	movwf	?___flpack+2
 11566  000F' 3000               	movlw	0
 11567  0010' 0081'              	movwf	?___flpack+1
 11568  0011' 3000               	movlw	0
 11569  0012' 0080'              	movwf	?___flpack
 11570  0013' 0008               	return
 11571  0014'                    l3344:	
 11572  0014' 3001               	movlw	1
 11573  0015' 0086'              	movwf	??___flpack
 11574  0016' 0806'              	movf	??___flpack,w
 11575  0017' 0784'              	addwf	___flpack@exp,f
 11576  0018' 3001               	movlw	1
 11577  0019'                    u3815:	
 11578  0019' 1003               	clrc
 11579  001A' 0C83'              	rrf	___flpack@arg+3,f
 11580  001B' 0C82'              	rrf	___flpack@arg+2,f
 11581  001C' 0C81'              	rrf	___flpack@arg+1,f
 11582  001D' 0C80'              	rrf	___flpack@arg,f
 11583  001E' 3EFF               	addlw	-1
 11584  001F' 1D03               	skipz
 11585  0020' 2800'              	goto	u3815
 11586  0021'                    l3346:	
 11587  0021' 30FE               	movlw	254
 11588  0022' 0503'              	andwf	___flpack@arg+3,w
 11589  0023' 1903               	btfsc	3,2
 11590  0024' 2800'              	goto	l617
 11591  0025' 2800'              	goto	l3344
 11592  0026'                    l3348:	
 11593  0026' 3001               	movlw	1
 11594  0027' 0086'              	movwf	??___flpack
 11595  0028' 0806'              	movf	??___flpack,w
 11596  0029' 0784'              	addwf	___flpack@exp,f
 11597  002A' 3001               	movlw	1
 11598  002B' 0780'              	addwf	___flpack@arg,f
 11599  002C' 3000               	movlw	0
 11600  002D' 1803               	skipnc
 11601  002E' 3001               	movlw	1
 11602  002F' 0781'              	addwf	___flpack@arg+1,f
 11603  0030' 3000               	movlw	0
 11604  0031' 1803               	skipnc
 11605  0032' 3001               	movlw	1
 11606  0033' 0782'              	addwf	___flpack@arg+2,f
 11607  0034' 3000               	movlw	0
 11608  0035' 1803               	skipnc
 11609  0036' 3001               	movlw	1
 11610  0037' 0783'              	addwf	___flpack@arg+3,f
 11611  0038' 3001               	movlw	1
 11612  0039'                    u3835:	
 11613  0039' 1003               	clrc
 11614  003A' 0C83'              	rrf	___flpack@arg+3,f
 11615  003B' 0C82'              	rrf	___flpack@arg+2,f
 11616  003C' 0C81'              	rrf	___flpack@arg+1,f
 11617  003D' 0C80'              	rrf	___flpack@arg,f
 11618  003E' 3EFF               	addlw	-1
 11619  003F' 1D03               	skipz
 11620  0040' 2800'              	goto	u3835
 11621  0041'                    l617:	
 11622  0041' 30FF               	movlw	255
 11623  0042' 0503'              	andwf	___flpack@arg+3,w
 11624  0043' 1903               	btfsc	3,2
 11625  0044' 2800'              	goto	l3356
 11626  0045' 2800'              	goto	l3348
 11627  0046'                    l3358:	
 11628  0046' 3002               	movlw	2
 11629  0047' 0204'              	subwf	___flpack@exp,w
 11630  0048' 1C03               	btfss	3,0
 11631  0049' 2800'              	goto	l624
 11632  004A' 3001               	movlw	1
 11633  004B' 0284'              	subwf	___flpack@exp,f
 11634  004C' 3001               	movlw	1
 11635  004D' 0086'              	movwf	??___flpack
 11636  004E'                    u3855:	
 11637  004E' 1003               	clrc
 11638  004F' 0D80'              	rlf	___flpack@arg,f
 11639  0050' 0D81'              	rlf	___flpack@arg+1,f
 11640  0051' 0D82'              	rlf	___flpack@arg+2,f
 11641  0052' 0D83'              	rlf	___flpack@arg+3,f
 11642  0053' 0B86'              	decfsz	??___flpack,f
 11643  0054' 2800'              	goto	u3855
 11644  0055'                    l3356:	
 11645  0055' 1F82'              	btfss	___flpack@arg+2,7
 11646  0056' 2800'              	goto	l3358
 11647  0057'                    l624:	
 11648  0057' 1804'              	btfsc	___flpack@exp,0
 11649  0058' 2800'              	goto	l625
 11650  0059' 30FF               	movlw	255
 11651  005A' 0580'              	andwf	___flpack@arg,f
 11652  005B' 30FF               	movlw	255
 11653  005C' 0581'              	andwf	___flpack@arg+1,f
 11654  005D' 307F               	movlw	127
 11655  005E' 0582'              	andwf	___flpack@arg+2,f
 11656  005F' 30FF               	movlw	255
 11657  0060' 0583'              	andwf	___flpack@arg+3,f
 11658  0061'                    l625:	
 11659  0061' 1003               	clrc
 11660  0062' 0C84'              	rrf	___flpack@exp,f
 11661  0063' 0804'              	movf	___flpack@exp,w
 11662  0064' 0086'              	movwf	??___flpack
 11663  0065' 0187'              	clrf	??___flpack+1
 11664  0066' 0188'              	clrf	??___flpack+2
 11665  0067' 0189'              	clrf	??___flpack+3
 11666  0068' 3018               	movlw	24
 11667  0069'                    u3895:	
 11668  0069' 1003               	clrc
 11669  006A' 0D86'              	rlf	??___flpack,f
 11670  006B' 0D87'              	rlf	??___flpack+1,f
 11671  006C' 0D88'              	rlf	??___flpack+2,f
 11672  006D' 0D89'              	rlf	??___flpack+3,f
 11673  006E' 3EFF               	addlw	-1
 11674  006F' 1D03               	skipz
 11675  0070' 2800'              	goto	u3895
 11676  0071' 0806'              	movf	??___flpack,w
 11677  0072' 0480'              	iorwf	___flpack@arg,f
 11678  0073' 0807'              	movf	??___flpack+1,w
 11679  0074' 0481'              	iorwf	___flpack@arg+1,f
 11680  0075' 0808'              	movf	??___flpack+2,w
 11681  0076' 0482'              	iorwf	___flpack@arg+2,f
 11682  0077' 0809'              	movf	??___flpack+3,w
 11683  0078' 0483'              	iorwf	___flpack@arg+3,f
 11684  0079' 0805'              	movf	___flpack@sign,w
 11685  007A' 1903               	btfsc	3,2
 11686  007B' 0008               	return
 11687  007C' 1783'              	bsf	___flpack@arg+3,7
 11688  007D' 0008               	return
 11689  007E'                    __end_of___flpack:	
 11690                           
 11691                           	psect	text41
 11692  0000'                    __ptext41:	
 11693 ;; *************** function _isr *****************
 11694 ;; Defined at:
 11695 ;;		line 79 in file "../../../src/LC-meter.c"
 11696 ;; Parameters:    Size  Location     Type
 11697 ;;		None
 11698 ;; Auto vars:     Size  Location     Type
 11699 ;;		None
 11700 ;; Return value:  Size  Location     Type
 11701 ;;                  2  307[None  ] int 
 11702 ;; Registers used:
 11703 ;;		wreg, fsr0l, fsr0h, status,2, status,0
 11704 ;; Tracked objects:
 11705 ;;		On entry : 0/0
 11706 ;;		On exit  : 0/0
 11707 ;;		Unchanged: 0/0
 11708 ;; Data sizes:     COMMON   BANK0   BANK1   BANK3   BANK2
 11709 ;;      Params:         0       0       0       0       0
 11710 ;;      Locals:         0       0       0       0       0
 11711 ;;      Temps:          5       0       0       0       0
 11712 ;;      Totals:         5       0       0       0       0
 11713 ;;Total ram usage:        5 bytes
 11714 ;; Hardware stack levels used:    1
 11715 ;; This function calls:
 11716 ;;		Nothing
 11717 ;; This function is called by:
 11718 ;;		Interrupt level 1
 11719 ;; This function uses a non-reentrant model
 11720 ;;
 11721                           
 11722                           
 11723                           ;psect for function _isr
 11724  0000'                    _isr:	
 11725                           
 11726                           ;LC-meter.c: 81: if(TMR2IF) {
 11727  0000' 1C8C               	btfss	12,1	;volatile
 11728  0001' 2800'              	goto	i1l3212
 11729                           
 11730                           ;LC-meter.c: 83: bres += 256;
 11731  0002' 3000               	movlw	0
 11732  0003' 1683               	bsf	3,5	;RP0=1, select bank3
 11733  0004' 1703               	bsf	3,6	;RP1=1, select bank3
 11734  0005' 0780'              	addwf	_bres^(0+384),f	;volatile
 11735  0006' 1803               	skipnc
 11736  0007' 0A80'              	incf	(_bres+1)^(0+384),f	;volatile
 11737  0008' 3001               	movlw	1
 11738  0009' 0780'              	addwf	(_bres+1)^(0+384),f	;volatile
 11739                           
 11740                           ;LC-meter.c: 85: if(bres >= 5000) {
 11741  000A' 3013               	movlw	19
 11742  000B' 0200'              	subwf	(_bres+1)^(0+384),w	;volatile
 11743  000C' 3088               	movlw	136
 11744  000D' 1903               	skipnz
 11745  000E' 0200'              	subwf	_bres^(0+384),w	;volatile
 11746  000F' 1C03               	skipc
 11747  0010' 2800'              	goto	i1l3210
 11748                           
 11749                           ;LC-meter.c: 86: bres -= 5000;
 11750  0011' 3088               	movlw	136
 11751  0012' 0280'              	subwf	_bres^(0+384),f	;volatile
 11752  0013' 3013               	movlw	19
 11753  0014' 1C03               	skipc
 11754  0015' 0380'              	decf	(_bres+1)^(0+384),f	;volatile
 11755  0016' 0280'              	subwf	(_bres+1)^(0+384),f	;volatile
 11756                           
 11757                           ;LC-meter.c: 87: msecpart++;
 11758  0017' 3001               	movlw	1
 11759  0018' 0780'              	addwf	_msecpart^(0+384),f	;volatile
 11760  0019' 1803               	skipnc
 11761  001A' 0A80'              	incf	(_msecpart+1)^(0+384),f	;volatile
 11762  001B' 3000               	movlw	0
 11763  001C' 0780'              	addwf	(_msecpart+1)^(0+384),f	;volatile
 11764                           
 11765                           ;LC-meter.c: 88: msecs++;
 11766  001D' 3001               	movlw	1
 11767  001E' 0780'              	addwf	_msecs^(0+384),f	;volatile
 11768  001F' 3000               	movlw	0
 11769  0020' 1803               	skipnc
 11770  0021' 3001               	movlw	1
 11771  0022' 0780'              	addwf	(_msecs+1)^(0+384),f	;volatile
 11772  0023' 3000               	movlw	0
 11773  0024' 1803               	skipnc
 11774  0025' 3001               	movlw	1
 11775  0026' 0780'              	addwf	(_msecs+2)^(0+384),f	;volatile
 11776  0027' 3000               	movlw	0
 11777  0028' 1803               	skipnc
 11778  0029' 3001               	movlw	1
 11779  002A' 0780'              	addwf	(_msecs+3)^(0+384),f	;volatile
 11780                           
 11781                           ;LC-meter.c: 90: RC3 = (((blink > 200)) == 0);
 11782  002B' 3000               	movlw	0
 11783  002C' 0200'              	subwf	(_blink+1)^(0+384),w
 11784  002D' 30C9               	movlw	201
 11785  002E' 1903               	skipnz
 11786  002F' 0200'              	subwf	_blink^(0+384),w
 11787  0030' 1803               	btfsc	3,0
 11788  0031' 2800'              	goto	u367_20
 11789  0032' 1283               	bcf	3,5	;RP0=0, select bank0
 11790  0033' 1303               	bcf	3,6	;RP1=0, select bank0
 11791  0034' 1587               	bsf	7,3	;volatile
 11792  0035' 2800'              	goto	u368_24
 11793  0036'                    u367_20:	
 11794  0036' 1283               	bcf	3,5	;RP0=0, select bank0
 11795  0037' 1303               	bcf	3,6	;RP1=0, select bank0
 11796  0038' 1187               	bcf	7,3	;volatile
 11797  0039'                    u368_24:	
 11798                           
 11799                           ;LC-meter.c: 91: if(blink >= 400)
 11800  0039' 3001               	movlw	1
 11801  003A' 1683               	bsf	3,5	;RP0=1, select bank3
 11802  003B' 1703               	bsf	3,6	;RP1=1, select bank3
 11803  003C' 0200'              	subwf	(_blink+1)^(0+384),w
 11804  003D' 3090               	movlw	144
 11805  003E' 1903               	skipnz
 11806  003F' 0200'              	subwf	_blink^(0+384),w
 11807  0040' 1C03               	skipc
 11808  0041' 2800'              	goto	i1l310
 11809                           
 11810                           ;LC-meter.c: 92: blink -= 400;
 11811  0042' 3090               	movlw	144
 11812  0043' 0280'              	subwf	_blink^(0+384),f
 11813  0044' 3001               	movlw	1
 11814  0045' 1C03               	skipc
 11815  0046' 0380'              	decf	(_blink+1)^(0+384),f
 11816  0047' 0280'              	subwf	(_blink+1)^(0+384),f
 11817  0048'                    i1l310:	
 11818                           
 11819                           ;LC-meter.c: 93: ++blink;
 11820  0048' 3001               	movlw	1
 11821  0049' 0780'              	addwf	_blink^(0+384),f
 11822  004A' 1803               	skipnc
 11823  004B' 0A80'              	incf	(_blink+1)^(0+384),f
 11824  004C' 3000               	movlw	0
 11825  004D' 0780'              	addwf	(_blink+1)^(0+384),f
 11826                           
 11827                           ;LC-meter.c: 96: if(msecpart >= 1000) {
 11828  004E' 3003               	movlw	3
 11829  004F' 0200'              	subwf	(_msecpart+1)^(0+384),w	;volatile
 11830  0050' 30E8               	movlw	232
 11831  0051' 1903               	skipnz
 11832  0052' 0200'              	subwf	_msecpart^(0+384),w	;volatile
 11833  0053' 1C03               	skipc
 11834  0054' 2800'              	goto	i1l3210
 11835                           
 11836                           ;LC-meter.c: 98: seconds++;
 11837  0055' 3001               	movlw	1
 11838  0056' 0780'              	addwf	_seconds^(0+384),f	;volatile
 11839  0057' 3000               	movlw	0
 11840  0058' 1803               	skipnc
 11841  0059' 3001               	movlw	1
 11842  005A' 0780'              	addwf	(_seconds+1)^(0+384),f	;volatile
 11843  005B' 3000               	movlw	0
 11844  005C' 1803               	skipnc
 11845  005D' 3001               	movlw	1
 11846  005E' 0780'              	addwf	(_seconds+2)^(0+384),f	;volatile
 11847  005F' 3000               	movlw	0
 11848  0060' 1803               	skipnc
 11849  0061' 3001               	movlw	1
 11850  0062' 0780'              	addwf	(_seconds+3)^(0+384),f	;volatile
 11851                           
 11852                           ;LC-meter.c: 99: msecpart -= 1000;
 11853  0063' 30E8               	movlw	232
 11854  0064' 0280'              	subwf	_msecpart^(0+384),f	;volatile
 11855  0065' 3003               	movlw	3
 11856  0066' 1C03               	skipc
 11857  0067' 0380'              	decf	(_msecpart+1)^(0+384),f	;volatile
 11858  0068' 0280'              	subwf	(_msecpart+1)^(0+384),f	;volatile
 11859  0069'                    i1l3210:	
 11860                           
 11861                           ;LC-meter.c: 100: }
 11862                           ;LC-meter.c: 101: }
 11863                           ;LC-meter.c: 103: TMR2IF = 0;
 11864  0069' 1283               	bcf	3,5	;RP0=0, select bank0
 11865  006A' 1303               	bcf	3,6	;RP1=0, select bank0
 11866  006B' 108C               	bcf	12,1	;volatile
 11867  006C'                    i1l3212:	
 11868                           
 11869                           ;LC-meter.c: 104: }
 11870                           ;LC-meter.c: 106: if(RCIF) { rxfifo[rxiptr] = RCREG; ser_tmp = (rxiptr + 1) & ((unsigned
      +                           char)16 - 1); if(ser_tmp != rxoptr) rxiptr = ser_tmp; }; if(TXIF && TXIE) { TXREG = txf
      +                          ifo[txoptr]; ++txoptr; txoptr &= ((unsigned char)16 - 1); if(txoptr == txiptr) { TXIE = 
      +                          0; }
 11871  006C' 1E8C               	btfss	12,5	;volatile
 11872  006D' 2800'              	goto	i1l3222
 11873  006E' 081A               	movf	26,w	;volatile
 11874  006F' 0080'              	movwf	??_isr
 11875  0070' 0800'              	movf	_rxiptr,w
 11876  0071' 3E00'              	addlw	(low (_rxfifo| (0+256)))& (0+255)
 11877  0072' 0084               	movwf	4
 11878  0073' 0800'              	movf	??_isr,w
 11879  0074' 1783               	bsf	3,7	;select IRP bank2
 11880  0075' 0080               	movwf	0
 11881  0076' 0800'              	movf	_rxiptr,w	;volatile
 11882  0077' 3E01               	addlw	1
 11883  0078' 390F               	andlw	15
 11884  0079' 0080'              	movwf	??_isr
 11885  007A' 0800'              	movf	??_isr,w
 11886  007B' 1683               	bsf	3,5	;RP0=1, select bank1
 11887  007C' 1303               	bcf	3,6	;RP1=0, select bank1
 11888  007D' 0080'              	movwf	_ser_tmp^(0+128)
 11889  007E' 0800'              	movf	_ser_tmp^(0+128),w
 11890  007F' 0601'              	xorwf	_rxoptr,w	;volatile
 11891  0080' 1903               	skipnz
 11892  0081' 2800'              	goto	i1l3222
 11893  0082' 0800'              	movf	_ser_tmp^(0+128),w
 11894  0083' 0080'              	movwf	??_isr
 11895  0084' 0800'              	movf	??_isr,w
 11896  0085' 0080'              	movwf	_rxiptr	;volatile
 11897  0086'                    i1l3222:	
 11898  0086' 1283               	bcf	3,5	;RP0=0, select bank0
 11899  0087' 1E0C               	btfss	12,4	;volatile
 11900  0088' 2800'              	goto	i1l316
 11901  0089' 1683               	bsf	3,5	;RP0=1, select bank1
 11902  008A' 1303               	bcf	3,6	;RP1=0, select bank1
 11903  008B' 1E0C               	btfss	12,4	;volatile
 11904  008C' 2800'              	goto	i1l316
 11905  008D' 0803'              	movf	_txoptr,w
 11906  008E' 3E00'              	addlw	(low (_txfifo| (0+256)))& (0+255)
 11907  008F' 0084               	movwf	4
 11908  0090' 1783               	bsf	3,7	;select IRP bank2
 11909  0091' 0800               	movf	0,w
 11910  0092' 1283               	bcf	3,5	;RP0=0, select bank0
 11911  0093' 1303               	bcf	3,6	;RP1=0, select bank0
 11912  0094' 0099               	movwf	25	;volatile
 11913  0095' 3001               	movlw	1
 11914  0096' 0080'              	movwf	??_isr
 11915  0097' 0800'              	movf	??_isr,w
 11916  0098' 0783'              	addwf	_txoptr,f	;volatile
 11917  0099' 300F               	movlw	15
 11918  009A' 0080'              	movwf	??_isr
 11919  009B' 0800'              	movf	??_isr,w
 11920  009C' 0583'              	andwf	_txoptr,f	;volatile
 11921  009D' 0803'              	movf	_txoptr,w	;volatile
 11922  009E' 0602'              	xorwf	_txiptr,w	;volatile
 11923  009F' 1D03               	skipz
 11924  00A0' 2800'              	goto	i1l315
 11925  00A1' 1683               	bsf	3,5	;RP0=1, select bank1
 11926  00A2' 1303               	bcf	3,6	;RP1=0, select bank1
 11927  00A3' 120C               	bcf	12,4	;volatile
 11928  00A4'                    i1l315:	
 11929  00A4' 1283               	bcf	3,5	;RP0=0, select bank0
 11930  00A5' 120C               	bcf	12,4	;volatile
 11931  00A6'                    i1l316:	
 11932  00A6' 0804'              	movf	??_isr+4,w
 11933  00A7' 1283               	bcf	3,5	;RP0=0, select bank0
 11934  00A8' 00FF               	movwf	127
 11935  00A9' 0803'              	movf	??_isr+3,w
 11936  00AA' 008A               	movwf	10
 11937  00AB' 0802'              	movf	??_isr+2,w
 11938  00AC' 0084               	movwf	4
 11939  00AD' 0E00'              	swapf	(??_isr+1)^(0+-128),w
 11940  00AE' 0083               	movwf	3
 11941  00AF' 0EFE               	swapf	126,f
 11942  00B0' 0E7E               	swapf	126,w
 11943  00B1' 0009               	retfie
 11944  00B2'                    __end_of_isr:	
 11945  0006                     
 11946                           	psect	intentry
 11947  0000'                    __pintentry:	
 11948                           ;incstack = 0
 11949                           ; Regs used in _isr: [wreg-fsr0h+status,2+status,0]
 11950                           
 11951  0000'                    interrupt_function:	
 11952  007E                     saved_w	set	btemp
 11953  0000' 00FE               	movwf	btemp
 11954  0001' 0E03               	swapf	3,w
 11955  0002' 0081'              	movwf	??_isr+1
 11956  0003' 0804               	movf	4,w
 11957  0004' 0082'              	movwf	??_isr+2
 11958  0005' 080A               	movf	10,w
 11959  0006' 0083'              	movwf	??_isr+3
 11960  0007' 1283               	bcf	3,5	;RP0=0, select bank0
 11961  0008' 1303               	bcf	3,6	;RP1=0, select bank0
 11962  0009' 087F               	movf	btemp+1,w
 11963  000A' 0084'              	movwf	??_isr+4
 11964  000B' 120A' 118A' 2800'  	ljmp	_isr
 11965                           
 11966                           	psect	functab
 11967  0000'                    __pfunctab:	
 11968  0000'                    __fptable:	
 11969  0000'                    fptable:	
 11970  0000' 00FF               	movwf	(btemp+1)& (0+127)
 11971  0001' 3000'              	movlw	high fptable
 11972  0002' 008A               	movwf	10
 11973  0003' 087F               	movf	(btemp+1)& (0+127),w
 11974  0004' 0782               	addwf	2,f
 11975  0005'                    fpbase:	
 11976  0005' 2800'              	goto	fpbase	; Call via a null pointer and you will get stuck here.
 11977  0006'                    fp__output_putch:	
 11978  0006'                    entry__output_putch:	
 11979  0006' 120A' 118A' 2800'  	ljmp	_output_putch
 11980  0009'                    fp__ser_putch:	
 11981  0009'                    entry__ser_putch:	
 11982  0009' 120A' 118A' 2800'  	ljmp	_ser_putch
 11983  000C'                    fp__format_putchar:	
 11984  000C' 120A' 118A' 2800'  	ljmp	_format_putchar
 11985  000F'                    __end_of__fptable:	
 11986  007E                     btemp	set	126	;btemp
 11987  007E                     wtemp	set	126
 11988  007E                     wtemp0	set	126
 11989  0080                     wtemp1	set	128
 11990  0082                     wtemp2	set	130
 11991  0084                     wtemp3	set	132
 11992  0086                     wtemp4	set	134
 11993  0088                     wtemp5	set	136
 11994  007F                     wtemp6	set	127
 11995  007E                     ttemp	set	126
 11996  007E                     ttemp0	set	126
 11997  0081                     ttemp1	set	129
 11998  0084                     ttemp2	set	132
 11999  0087                     ttemp3	set	135
 12000  007F                     ttemp4	set	127
 12001  007E                     ltemp	set	126
 12002  007E                     ltemp0	set	126
 12003  0082                     ltemp1	set	130
 12004  0086                     ltemp2	set	134
 12005  0080                     ltemp3	set	128


Data Sizes:
    Strings     42
    Constant    76
    Data        2
    BSS         68
    Persistent  8
    Stack       0

Auto Spaces:
    Space          Size  Autos    Used
    COMMON           14      5      10
    BANK0            80     80      80
    BANK1            80     78      80
    BANK3            96     56      95
    BANK2            96      0      32

Pointer List with Targets:

    eval_poly@d	PTR const  size(1) Largest target is 40
		 -> exp@coeff(CODE[40]), log@coeff(CODE[36]), 

    frexp@eptr	PTR int  size(1) Largest target is 2
		 -> log@exponent(BANK0[2]), floor@expon(BANK1[2]), 

    putchar_ptr	PTR FTN(unsigned char ,)void  size(1) Largest target is 0
		 -> output_putch(), format_putchar(), ser_putch(), 

    ser_puts@s	PTR const unsigned char  size(1) Largest target is 8
		 -> STR_11(CODE[3]), STR_10(CODE[5]), STR_9(CODE[3]), STR_8(CODE[8]), 
		 -> STR_7(CODE[6]), STR_6(CODE[6]), STR_5(CODE[6]), STR_4(CODE[5]), 
		 -> STR_3(CODE[3]), STR_2(CODE[3]), STR_1(CODE[6]), 


Critical Paths under _main in COMMON

    None.

Critical Paths under _isr in COMMON

    None.

Critical Paths under _main in BANK0

    _format_xint32->_format_number
    _format_number->___lwdiv
    _pow->_log
    _exp->_log
    _ldexp->_eval_poly
    ___flneg->___flmul
    ___flsub->___fladd
    ___fldiv->___flpack
    ___lltofl->___flpack
    _log10->_log
    _log->_eval_poly
    _eval_poly->___fladd
    ___flmul->___fldiv
    ___fladd->___flneg
    ___awtofl->___flpack
    _calibrate->___lwtofl
    _calibrate->_delay10ms
    _ser_puts->_ser_putch
    _delay10ms->___wmul
    ___lwtofl->_measure_freq

Critical Paths under _isr in BANK0

    None.

Critical Paths under _main in BANK1

    _main->_measure_capacitance
    _measure_inductance->___fltol
    _measure_capacitance->_format_double
    _format_double->_pow
    _pow->_exp
    _exp->_floor
    _ldexp->_eval_poly
    _floor->___altofl
    ___fltol->_log10
    ___altofl->___fltol
    _log10->_log
    _log->_eval_poly

Critical Paths under _isr in BANK1

    None.

Critical Paths under _main in BANK3

    _main->_measure_capacitance
    _measure_capacitance->_format_double
    _format_double->_pow

Critical Paths under _isr in BANK3

    None.

Critical Paths under _main in BANK2

    None.

Critical Paths under _isr in BANK2

    None.

Call Graph Tables:

 ---------------------------------------------------------------------------------
 (Depth) Function   	        Calls       Base Space   Used Autos Params    Refs
 ---------------------------------------------------------------------------------
 (0) _main                                                 1     1      0  224744
                                             77 BANK1      1     1      0
                          _calibrate
                          _delay10ms
                          _indicator
                _measure_capacitance
                 _measure_inductance
                           _ser_init
                           _ser_puts
                        _timer2_init
 ---------------------------------------------------------------------------------
 (1) _timer2_init                                          4     4      0     223
                                              0 BANK0      4     4      0
 ---------------------------------------------------------------------------------
 (1) _ser_init                                             0     0      0       0
 ---------------------------------------------------------------------------------
 (1) _measure_inductance                                  56    56      0   22963
                                             32 BANK1     44    44      0
                            ___fladd
                            ___fldiv
                             ___flge
                            ___flmul
                            ___flneg
                            ___fltol
                           ___lwtofl
                       _measure_freq
                      _print_reading
                         _print_unit
 ---------------------------------------------------------------------------------
 (1) _measure_capacitance                                 20    20      0  194356
                                             76 BANK1      1     1      0
                                             37 BANK3     19    19      0
                            ___fladd
                            ___fldiv
                             ___flge
                            ___flmul
                            ___flneg
                            ___fltol
                           ___lwtofl
                      _format_double
                      _format_xint32
                       _measure_freq
                      _print_reading
                         _print_unit
                          _ser_putch
                           _ser_puts
 ---------------------------------------------------------------------------------
 (2) _print_unit                                           1     1      0       0
 ---------------------------------------------------------------------------------
 (2) _print_reading                                        2     0      2     130
                                              0 BANK0      2     0      2
 ---------------------------------------------------------------------------------
 (2) _format_xint32                                       10     6      4    6235
                                             52 BANK0     10     6      4
                      _format_number
                     _format_putchar *
                       _output_putch *
                          _ser_putch *
 ---------------------------------------------------------------------------------
 (3) _format_number                                       44    40      4    3880
                                              8 BANK0     44    40      4
                            ___lwdiv
                            ___lwmod
                     _format_putchar *
                       _output_putch *
                          _ser_putch *
 ---------------------------------------------------------------------------------
 (4) ___lwmod                                              6     2      4     362
                                              0 BANK0      6     2      4
 ---------------------------------------------------------------------------------
 (4) ___lwdiv                                              8     4      4     371
                                              0 BANK0      8     4      4
 ---------------------------------------------------------------------------------
 (2) _format_double                                       25    21      4  163714
                                             75 BANK1      1     1      0
                                             13 BANK3     24    20      4
                           ___awtofl
                            ___fldiv
                             ___flge
                            ___flmul
                            ___flsub
                            ___fltol
                              _floor
                     _format_putchar *
                              _log10
                       _output_putch *
                                _pow
                          _ser_putch *
 ---------------------------------------------------------------------------------
 (3) _pow                                                 22    14      8   92309
                                             66 BANK1      9     1      8
                                              0 BANK3     13    13      0
                             ___flge
                            ___flmul
                            ___flneg
                            ___fltol
                           ___lltofl
                                _exp
                                _log
 ---------------------------------------------------------------------------------
 (4) _exp                                                 16    12      4   49835
                                             50 BANK1     16    12      4
                           ___awtofl
                            ___fldiv
                             ___flge
                            ___flmul
                            ___flneg
                            ___flsub
                            ___fltol
                          _eval_poly
                              _floor
                              _ldexp
                                _log (ARG)
 ---------------------------------------------------------------------------------
 (5) _ldexp                                               12     6      6    3779
                                             77 BANK0      2     2      0
                                              9 BANK1     10     4      6
                             ___flge
                            ___flneg
                          _eval_poly (ARG)
 ---------------------------------------------------------------------------------
 (2) ___flneg                                              4     0      4     585
                                             50 BANK0      4     0      4
                            ___flmul (ARG)
 ---------------------------------------------------------------------------------
 (5) _floor                                               11     7      4   11608
                                             39 BANK1     11     7      4
                           ___altofl
                            ___fladd
                            ___fldiv (ARG)
                             ___flge
                            ___fltol
                              _frexp
 ---------------------------------------------------------------------------------
 (2) ___fltol                                             11     7      4     706
                                             21 BANK1     11     7      4
                            ___fldiv (ARG)
                              _log10 (ARG)
 ---------------------------------------------------------------------------------
 (6) ___altofl                                             7     3      4    2446
                                             32 BANK1      7     3      4
                           ___flpack
                            ___fltol (ARG)
 ---------------------------------------------------------------------------------
 (5) ___flsub                                              8     0      8    5129
                                             70 BANK0      8     0      8
                           ___awtofl (ARG)
                            ___fladd
                            ___flmul (ARG)
 ---------------------------------------------------------------------------------
 (2) ___fldiv                                             20    12      8    3965
                                             10 BANK0     20    12      8
                           ___flpack
 ---------------------------------------------------------------------------------
 (4) ___lltofl                                             5     1      4    2344
                                             10 BANK0      5     1      4
                           ___flpack
 ---------------------------------------------------------------------------------
 (3) _output_putch                                         2     1      1    1170
                                              4 BANK0      2     1      1
                          _ser_putch
 ---------------------------------------------------------------------------------
 (3) _log10                                                8     4      4   35589
                                             13 BANK1      8     4      4
                            ___flmul
                                _log
 ---------------------------------------------------------------------------------
 (4) _log                                                  7     3      4   29018
                                             77 BANK0      3     3      0
                                              9 BANK1      4     0      4
                           ___awtofl
                            ___fladd
                             ___flge
                            ___flmul
                          _eval_poly
                              _frexp
 ---------------------------------------------------------------------------------
 (5) _frexp                                                7     2      5     582
                                              0 BANK0      7     2      5
 ---------------------------------------------------------------------------------
 (5) _eval_poly                                           16     9      7   11663
                                             70 BANK0      7     0      7
                                              0 BANK1      9     9      0
                            ___fladd
                            ___flmul
 ---------------------------------------------------------------------------------
 (2) ___flmul                                             20    12      8    6376
                                             30 BANK0     20    12      8
                           ___awtofl (ARG)
                            ___fldiv (ARG)
                           ___flpack
                              _frexp (ARG)
 ---------------------------------------------------------------------------------
 (2) ___fladd                                             16     8      8    4643
                                             54 BANK0     16     8      8
                           ___awtofl (ARG)
                            ___flmul (ARG)
                            ___flneg (ARG)
                           ___flpack
                              _frexp (ARG)
 ---------------------------------------------------------------------------------
 (2) ___flge                                              16     8      8    2668
                                              0 BANK0     16     8      8
 ---------------------------------------------------------------------------------
 (5) ___awtofl                                            11     7      4    2706
                                             10 BANK0      7     3      4
                           ___flpack
 ---------------------------------------------------------------------------------
 (3) _format_putchar                                       1     0      1       0
                                              4 BANK0      1     0      1
 ---------------------------------------------------------------------------------
 (1) _indicator                                            1     1      0       0
 ---------------------------------------------------------------------------------
 (1) _calibrate                                            1     1      0    5053
                           ___lwtofl
                          _delay10ms
                       _measure_freq
                           _ser_puts
 ---------------------------------------------------------------------------------
 (1) _ser_puts                                             2     2      0    1128
                                              6 BANK0      2     2      0
                          _ser_putch
 ---------------------------------------------------------------------------------
 (2) _ser_putch                                            2     1      1     733
                                              4 BANK0      2     1      1
 ---------------------------------------------------------------------------------
 (2) _measure_freq                                        12    10      2     235
                                              0 BANK0     12    10      2
 ---------------------------------------------------------------------------------
 (1) _delay10ms                                           11     9      2    1021
                                              6 BANK0     11     9      2
                             ___wmul
 ---------------------------------------------------------------------------------
 (2) ___wmul                                               6     2      4     266
                                              0 BANK0      6     2      4
 ---------------------------------------------------------------------------------
 (2) ___lwtofl                                             5     1      4    2669
                                             12 BANK0      5     1      4
                           ___flpack
                       _measure_freq (ARG)
 ---------------------------------------------------------------------------------
 (3) ___flpack                                            10     4      6    2248
                                              0 BANK0     10     4      6
 ---------------------------------------------------------------------------------
 Estimated maximum stack depth 6
 ---------------------------------------------------------------------------------
 (Depth) Function   	        Calls       Base Space   Used Autos Params    Refs
 ---------------------------------------------------------------------------------
 (8) _isr                                                  5     5      0       0
                                              0 COMMON     5     5      0
 ---------------------------------------------------------------------------------
 Estimated maximum stack depth 8
 ---------------------------------------------------------------------------------

 Call Graph Graphs:

 _main (ROOT)
   _calibrate
     ___lwtofl
       ___flpack
       _measure_freq (ARG)
     _delay10ms
       ___wmul
     _measure_freq
     _ser_puts
       _ser_putch
   _delay10ms
     ___wmul
   _indicator
   _measure_capacitance
     ___fladd
       ___awtofl (ARG)
         ___flpack
       ___flmul (ARG)
         ___awtofl (ARG)
           ___flpack
         ___fldiv (ARG)
           ___flpack
         ___flpack (ARG)
         _frexp (ARG)
       ___flneg (ARG)
         ___flmul (ARG)
           ___awtofl (ARG)
             ___flpack
           ___fldiv (ARG)
             ___flpack
           ___flpack (ARG)
           _frexp (ARG)
       ___flpack (ARG)
       _frexp (ARG)
     ___fldiv
       ___flpack
     ___flge
     ___flmul
       ___awtofl (ARG)
         ___flpack
       ___fldiv (ARG)
         ___flpack
       ___flpack (ARG)
       _frexp (ARG)
     ___flneg
       ___flmul (ARG)
         ___awtofl (ARG)
           ___flpack
         ___fldiv (ARG)
           ___flpack
         ___flpack (ARG)
         _frexp (ARG)
     ___fltol
       ___fldiv (ARG)
         ___flpack
       _log10 (ARG)
         ___flmul
           ___awtofl (ARG)
             ___flpack
           ___fldiv (ARG)
             ___flpack
           ___flpack (ARG)
           _frexp (ARG)
         _log
           ___awtofl
             ___flpack
           ___fladd
             ___awtofl (ARG)
               ___flpack
             ___flmul (ARG)
               ___awtofl (ARG)
                 ___flpack
               ___fldiv (ARG)
                 ___flpack
               ___flpack (ARG)
               _frexp (ARG)
             ___flneg (ARG)
               ___flmul (ARG)
                 ___awtofl (ARG)
                   ___flpack
                 ___fldiv (ARG)
                   ___flpack
                 ___flpack (ARG)
                 _frexp (ARG)
             ___flpack (ARG)
             _frexp (ARG)
           ___flge
           ___flmul
             ___awtofl (ARG)
               ___flpack
             ___fldiv (ARG)
               ___flpack
             ___flpack (ARG)
             _frexp (ARG)
           _eval_poly
             ___fladd
               ___awtofl (ARG)
                 ___flpack
               ___flmul (ARG)
                 ___awtofl (ARG)
                   ___flpack
                 ___fldiv (ARG)
                   ___flpack
                 ___flpack (ARG)
                 _frexp (ARG)
               ___flneg (ARG)
                 ___flmul (ARG)
                   ___awtofl (ARG)
                     ___flpack
                   ___fldiv (ARG)
                     ___flpack
                   ___flpack (ARG)
                   _frexp (ARG)
               ___flpack (ARG)
               _frexp (ARG)
             ___flmul
               ___awtofl (ARG)
                 ___flpack
               ___fldiv (ARG)
                 ___flpack
               ___flpack (ARG)
               _frexp (ARG)
           _frexp
     ___lwtofl
       ___flpack
       _measure_freq (ARG)
     _format_double
       ___awtofl
         ___flpack
       ___fldiv
         ___flpack
       ___flge
       ___flmul
         ___awtofl (ARG)
           ___flpack
         ___fldiv (ARG)
           ___flpack
         ___flpack (ARG)
         _frexp (ARG)
       ___flsub
         ___awtofl (ARG)
           ___flpack
         ___fladd (ARG)
           ___awtofl (ARG)
             ___flpack
           ___flmul (ARG)
             ___awtofl (ARG)
               ___flpack
             ___fldiv (ARG)
               ___flpack
             ___flpack (ARG)
             _frexp (ARG)
           ___flneg (ARG)
             ___flmul (ARG)
               ___awtofl (ARG)
                 ___flpack
               ___fldiv (ARG)
                 ___flpack
               ___flpack (ARG)
               _frexp (ARG)
           ___flpack (ARG)
           _frexp (ARG)
         ___flmul (ARG)
           ___awtofl (ARG)
             ___flpack
           ___fldiv (ARG)
             ___flpack
           ___flpack (ARG)
           _frexp (ARG)
       ___fltol
         ___fldiv (ARG)
           ___flpack
         _log10 (ARG)
           ___flmul
             ___awtofl (ARG)
               ___flpack
             ___fldiv (ARG)
               ___flpack
             ___flpack (ARG)
             _frexp (ARG)
           _log
             ___awtofl
               ___flpack
             ___fladd
               ___awtofl (ARG)
                 ___flpack
               ___flmul (ARG)
                 ___awtofl (ARG)
                   ___flpack
                 ___fldiv (ARG)
                   ___flpack
                 ___flpack (ARG)
                 _frexp (ARG)
               ___flneg (ARG)
                 ___flmul (ARG)
                   ___awtofl (ARG)
                     ___flpack
                   ___fldiv (ARG)
                     ___flpack
                   ___flpack (ARG)
                   _frexp (ARG)
               ___flpack (ARG)
               _frexp (ARG)
             ___flge
             ___flmul
               ___awtofl (ARG)
                 ___flpack
               ___fldiv (ARG)
                 ___flpack
               ___flpack (ARG)
               _frexp (ARG)
             _eval_poly
               ___fladd
                 ___awtofl (ARG)
                   ___flpack
                 ___flmul (ARG)
                   ___awtofl (ARG)
                     ___flpack
                   ___fldiv (ARG)
                     ___flpack
                   ___flpack (ARG)
                   _frexp (ARG)
                 ___flneg (ARG)
                   ___flmul (ARG)
                     ___awtofl (ARG)
                       ___flpack
                     ___fldiv (ARG)
                       ___flpack
                     ___flpack (ARG)
                     _frexp (ARG)
                 ___flpack (ARG)
                 _frexp (ARG)
               ___flmul
                 ___awtofl (ARG)
                   ___flpack
                 ___fldiv (ARG)
                   ___flpack
                 ___flpack (ARG)
                 _frexp (ARG)
             _frexp
       _floor
         ___altofl
           ___flpack
           ___fltol (ARG)
             ___fldiv (ARG)
               ___flpack
             _log10 (ARG)
               ___flmul
                 ___awtofl (ARG)
                   ___flpack
                 ___fldiv (ARG)
                   ___flpack
                 ___flpack (ARG)
                 _frexp (ARG)
               _log
                 ___awtofl
                   ___flpack
                 ___fladd
                   ___awtofl (ARG)
                     ___flpack
                   ___flmul (ARG)
                     ___awtofl (ARG)
                       ___flpack
                     ___fldiv (ARG)
                       ___flpack
                     ___flpack (ARG)
                     _frexp (ARG)
                   ___flneg (ARG)
                     ___flmul (ARG)
                       ___awtofl (ARG)
                         ___flpack
                       ___fldiv (ARG)
                         ___flpack
                       ___flpack (ARG)
                       _frexp (ARG)
                   ___flpack (ARG)
                   _frexp (ARG)
                 ___flge
                 ___flmul
                   ___awtofl (ARG)
                     ___flpack
                   ___fldiv (ARG)
                     ___flpack
                   ___flpack (ARG)
                   _frexp (ARG)
                 _eval_poly
                   ___fladd
                     ___awtofl (ARG)
                       ___flpack
                     ___flmul (ARG)
                       ___awtofl (ARG)
                         ___flpack
                       ___fldiv (ARG)
                         ___flpack
                       ___flpack (ARG)
                       _frexp (ARG)
                     ___flneg (ARG)
                       ___flmul (ARG)
                         ___awtofl (ARG)
                           ___flpack
                         ___fldiv (ARG)
                           ___flpack
                         ___flpack (ARG)
                         _frexp (ARG)
                     ___flpack (ARG)
                     _frexp (ARG)
                   ___flmul
                     ___awtofl (ARG)
                       ___flpack
                     ___fldiv (ARG)
                       ___flpack
                     ___flpack (ARG)
                     _frexp (ARG)
                 _frexp
         ___fladd
           ___awtofl (ARG)
             ___flpack
           ___flmul (ARG)
             ___awtofl (ARG)
               ___flpack
             ___fldiv (ARG)
               ___flpack
             ___flpack (ARG)
             _frexp (ARG)
           ___flneg (ARG)
             ___flmul (ARG)
               ___awtofl (ARG)
                 ___flpack
               ___fldiv (ARG)
                 ___flpack
               ___flpack (ARG)
               _frexp (ARG)
           ___flpack (ARG)
           _frexp (ARG)
         ___fldiv (ARG)
           ___flpack
         ___flge (ARG)
         ___fltol (ARG)
           ___fldiv (ARG)
             ___flpack
           _log10 (ARG)
             ___flmul
               ___awtofl (ARG)
                 ___flpack
               ___fldiv (ARG)
                 ___flpack
               ___flpack (ARG)
               _frexp (ARG)
             _log
               ___awtofl
                 ___flpack
               ___fladd
                 ___awtofl (ARG)
                   ___flpack
                 ___flmul (ARG)
                   ___awtofl (ARG)
                     ___flpack
                   ___fldiv (ARG)
                     ___flpack
                   ___flpack (ARG)
                   _frexp (ARG)
                 ___flneg (ARG)
                   ___flmul (ARG)
                     ___awtofl (ARG)
                       ___flpack
                     ___fldiv (ARG)
                       ___flpack
                     ___flpack (ARG)
                     _frexp (ARG)
                 ___flpack (ARG)
                 _frexp (ARG)
               ___flge
               ___flmul
                 ___awtofl (ARG)
                   ___flpack
                 ___fldiv (ARG)
                   ___flpack
                 ___flpack (ARG)
                 _frexp (ARG)
               _eval_poly
                 ___fladd
                   ___awtofl (ARG)
                     ___flpack
                   ___flmul (ARG)
                     ___awtofl (ARG)
                       ___flpack
                     ___fldiv (ARG)
                       ___flpack
                     ___flpack (ARG)
                     _frexp (ARG)
                   ___flneg (ARG)
                     ___flmul (ARG)
                       ___awtofl (ARG)
                         ___flpack
                       ___fldiv (ARG)
                         ___flpack
                       ___flpack (ARG)
                       _frexp (ARG)
                   ___flpack (ARG)
                   _frexp (ARG)
                 ___flmul
                   ___awtofl (ARG)
                     ___flpack
                   ___fldiv (ARG)
                     ___flpack
                   ___flpack (ARG)
                   _frexp (ARG)
               _frexp
         _frexp (ARG)
       _format_putchar *
       _log10 *
         ___flmul
           ___awtofl (ARG)
             ___flpack
           ___fldiv (ARG)
             ___flpack
           ___flpack (ARG)
           _frexp (ARG)
         _log
           ___awtofl
             ___flpack
           ___fladd
             ___awtofl (ARG)
               ___flpack
             ___flmul (ARG)
               ___awtofl (ARG)
                 ___flpack
               ___fldiv (ARG)
                 ___flpack
               ___flpack (ARG)
               _frexp (ARG)
             ___flneg (ARG)
               ___flmul (ARG)
                 ___awtofl (ARG)
                   ___flpack
                 ___fldiv (ARG)
                   ___flpack
                 ___flpack (ARG)
                 _frexp (ARG)
             ___flpack (ARG)
             _frexp (ARG)
           ___flge
           ___flmul
             ___awtofl (ARG)
               ___flpack
             ___fldiv (ARG)
               ___flpack
             ___flpack (ARG)
             _frexp (ARG)
           _eval_poly
             ___fladd
               ___awtofl (ARG)
                 ___flpack
               ___flmul (ARG)
                 ___awtofl (ARG)
                   ___flpack
                 ___fldiv (ARG)
                   ___flpack
                 ___flpack (ARG)
                 _frexp (ARG)
               ___flneg (ARG)
                 ___flmul (ARG)
                   ___awtofl (ARG)
                     ___flpack
                   ___fldiv (ARG)
                     ___flpack
                   ___flpack (ARG)
                   _frexp (ARG)
               ___flpack (ARG)
               _frexp (ARG)
             ___flmul
               ___awtofl (ARG)
                 ___flpack
               ___fldiv (ARG)
                 ___flpack
               ___flpack (ARG)
               _frexp (ARG)
           _frexp
       _output_putch *
         _ser_putch
       _pow *
         ___flge
         ___flmul
           ___awtofl (ARG)
             ___flpack
           ___fldiv (ARG)
             ___flpack
           ___flpack (ARG)
           _frexp (ARG)
         ___flneg
           ___flmul (ARG)
             ___awtofl (ARG)
               ___flpack
             ___fldiv (ARG)
               ___flpack
             ___flpack (ARG)
             _frexp (ARG)
         ___fltol
           ___fldiv (ARG)
             ___flpack
           _log10 (ARG)
             ___flmul
               ___awtofl (ARG)
                 ___flpack
               ___fldiv (ARG)
                 ___flpack
               ___flpack (ARG)
               _frexp (ARG)
             _log
               ___awtofl
                 ___flpack
               ___fladd
                 ___awtofl (ARG)
                   ___flpack
                 ___flmul (ARG)
                   ___awtofl (ARG)
                     ___flpack
                   ___fldiv (ARG)
                     ___flpack
                   ___flpack (ARG)
                   _frexp (ARG)
                 ___flneg (ARG)
                   ___flmul (ARG)
                     ___awtofl (ARG)
                       ___flpack
                     ___fldiv (ARG)
                       ___flpack
                     ___flpack (ARG)
                     _frexp (ARG)
                 ___flpack (ARG)
                 _frexp (ARG)
               ___flge
               ___flmul
                 ___awtofl (ARG)
                   ___flpack
                 ___fldiv (ARG)
                   ___flpack
                 ___flpack (ARG)
                 _frexp (ARG)
               _eval_poly
                 ___fladd
                   ___awtofl (ARG)
                     ___flpack
                   ___flmul (ARG)
                     ___awtofl (ARG)
                       ___flpack
                     ___fldiv (ARG)
                       ___flpack
                     ___flpack (ARG)
                     _frexp (ARG)
                   ___flneg (ARG)
                     ___flmul (ARG)
                       ___awtofl (ARG)
                         ___flpack
                       ___fldiv (ARG)
                         ___flpack
                       ___flpack (ARG)
                       _frexp (ARG)
                   ___flpack (ARG)
                   _frexp (ARG)
                 ___flmul
                   ___awtofl (ARG)
                     ___flpack
                   ___fldiv (ARG)
                     ___flpack
                   ___flpack (ARG)
                   _frexp (ARG)
               _frexp
         ___lltofl
           ___flpack
         _exp
           ___awtofl
             ___flpack
           ___fldiv
             ___flpack
           ___flge
           ___flmul
             ___awtofl (ARG)
               ___flpack
             ___fldiv (ARG)
               ___flpack
             ___flpack (ARG)
             _frexp (ARG)
           ___flneg
             ___flmul (ARG)
               ___awtofl (ARG)
                 ___flpack
               ___fldiv (ARG)
                 ___flpack
               ___flpack (ARG)
               _frexp (ARG)
           ___flsub
             ___awtofl (ARG)
               ___flpack
             ___fladd (ARG)
               ___awtofl (ARG)
                 ___flpack
               ___flmul (ARG)
                 ___awtofl (ARG)
                   ___flpack
                 ___fldiv (ARG)
                   ___flpack
                 ___flpack (ARG)
                 _frexp (ARG)
               ___flneg (ARG)
                 ___flmul (ARG)
                   ___awtofl (ARG)
                     ___flpack
                   ___fldiv (ARG)
                     ___flpack
                   ___flpack (ARG)
                   _frexp (ARG)
               ___flpack (ARG)
               _frexp (ARG)
             ___flmul (ARG)
               ___awtofl (ARG)
                 ___flpack
               ___fldiv (ARG)
                 ___flpack
               ___flpack (ARG)
               _frexp (ARG)
           ___fltol
             ___fldiv (ARG)
               ___flpack
             _log10 (ARG)
               ___flmul
                 ___awtofl (ARG)
                   ___flpack
                 ___fldiv (ARG)
                   ___flpack
                 ___flpack (ARG)
                 _frexp (ARG)
               _log
                 ___awtofl
                   ___flpack
                 ___fladd
                   ___awtofl (ARG)
                     ___flpack
                   ___flmul (ARG)
                     ___awtofl (ARG)
                       ___flpack
                     ___fldiv (ARG)
                       ___flpack
                     ___flpack (ARG)
                     _frexp (ARG)
                   ___flneg (ARG)
                     ___flmul (ARG)
                       ___awtofl (ARG)
                         ___flpack
                       ___fldiv (ARG)
                         ___flpack
                       ___flpack (ARG)
                       _frexp (ARG)
                   ___flpack (ARG)
                   _frexp (ARG)
                 ___flge
                 ___flmul
                   ___awtofl (ARG)
                     ___flpack
                   ___fldiv (ARG)
                     ___flpack
                   ___flpack (ARG)
                   _frexp (ARG)
                 _eval_poly
                   ___fladd
                     ___awtofl (ARG)
                       ___flpack
                     ___flmul (ARG)
                       ___awtofl (ARG)
                         ___flpack
                       ___fldiv (ARG)
                         ___flpack
                       ___flpack (ARG)
                       _frexp (ARG)
                     ___flneg (ARG)
                       ___flmul (ARG)
                         ___awtofl (ARG)
                           ___flpack
                         ___fldiv (ARG)
                           ___flpack
                         ___flpack (ARG)
                         _frexp (ARG)
                     ___flpack (ARG)
                     _frexp (ARG)
                   ___flmul
                     ___awtofl (ARG)
                       ___flpack
                     ___fldiv (ARG)
                       ___flpack
                     ___flpack (ARG)
                     _frexp (ARG)
                 _frexp
           _eval_poly
             ___fladd
               ___awtofl (ARG)
                 ___flpack
               ___flmul (ARG)
                 ___awtofl (ARG)
                   ___flpack
                 ___fldiv (ARG)
                   ___flpack
                 ___flpack (ARG)
                 _frexp (ARG)
               ___flneg (ARG)
                 ___flmul (ARG)
                   ___awtofl (ARG)
                     ___flpack
                   ___fldiv (ARG)
                     ___flpack
                   ___flpack (ARG)
                   _frexp (ARG)
               ___flpack (ARG)
               _frexp (ARG)
             ___flmul
               ___awtofl (ARG)
                 ___flpack
               ___fldiv (ARG)
                 ___flpack
               ___flpack (ARG)
               _frexp (ARG)
           _floor
             ___altofl
               ___flpack
               ___fltol (ARG)
                 ___fldiv (ARG)
                   ___flpack
                 _log10 (ARG)
                   ___flmul
                     ___awtofl (ARG)
                       ___flpack
                     ___fldiv (ARG)
                       ___flpack
                     ___flpack (ARG)
                     _frexp (ARG)
                   _log
                     ___awtofl
                       ___flpack
                     ___fladd
                       ___awtofl (ARG)
                         ___flpack
                       ___flmul (ARG)
                         ___awtofl (ARG)
                           ___flpack
                         ___fldiv (ARG)
                           ___flpack
                         ___flpack (ARG)
                         _frexp (ARG)
                       ___flneg (ARG)
                         ___flmul (ARG)
                           ___awtofl (ARG)
                             ___flpack
                           ___fldiv (ARG)
                             ___flpack
                           ___flpack (ARG)
                           _frexp (ARG)
                       ___flpack (ARG)
                       _frexp (ARG)
                     ___flge
                     ___flmul
                       ___awtofl (ARG)
                         ___flpack
                       ___fldiv (ARG)
                         ___flpack
                       ___flpack (ARG)
                       _frexp (ARG)
                     _eval_poly
                       ___fladd
                         ___awtofl (ARG)
                           ___flpack
                         ___flmul (ARG)
                           ___awtofl (ARG)
                             ___flpack
                           ___fldiv (ARG)
                             ___flpack
                           ___flpack (ARG)
                           _frexp (ARG)
                         ___flneg (ARG)
                           ___flmul (ARG)
                             ___awtofl (ARG)
                               ___flpack
                             ___fldiv (ARG)
                               ___flpack
                             ___flpack (ARG)
                             _frexp (ARG)
                         ___flpack (ARG)
                         _frexp (ARG)
                       ___flmul
                         ___awtofl (ARG)
                           ___flpack
                         ___fldiv (ARG)
                           ___flpack
                         ___flpack (ARG)
                         _frexp (ARG)
                     _frexp
             ___fladd
               ___awtofl (ARG)
                 ___flpack
               ___flmul (ARG)
                 ___awtofl (ARG)
                   ___flpack
                 ___fldiv (ARG)
                   ___flpack
                 ___flpack (ARG)
                 _frexp (ARG)
               ___flneg (ARG)
                 ___flmul (ARG)
                   ___awtofl (ARG)
                     ___flpack
                   ___fldiv (ARG)
                     ___flpack
                   ___flpack (ARG)
                   _frexp (ARG)
               ___flpack (ARG)
               _frexp (ARG)
             ___fldiv (ARG)
               ___flpack
             ___flge (ARG)
             ___fltol (ARG)
               ___fldiv (ARG)
                 ___flpack
               _log10 (ARG)
                 ___flmul
                   ___awtofl (ARG)
                     ___flpack
                   ___fldiv (ARG)
                     ___flpack
                   ___flpack (ARG)
                   _frexp (ARG)
                 _log
                   ___awtofl
                     ___flpack
                   ___fladd
                     ___awtofl (ARG)
                       ___flpack
                     ___flmul (ARG)
                       ___awtofl (ARG)
                         ___flpack
                       ___fldiv (ARG)
                         ___flpack
                       ___flpack (ARG)
                       _frexp (ARG)
                     ___flneg (ARG)
                       ___flmul (ARG)
                         ___awtofl (ARG)
                           ___flpack
                         ___fldiv (ARG)
                           ___flpack
                         ___flpack (ARG)
                         _frexp (ARG)
                     ___flpack (ARG)
                     _frexp (ARG)
                   ___flge
                   ___flmul
                     ___awtofl (ARG)
                       ___flpack
                     ___fldiv (ARG)
                       ___flpack
                     ___flpack (ARG)
                     _frexp (ARG)
                   _eval_poly
                     ___fladd
                       ___awtofl (ARG)
                         ___flpack
                       ___flmul (ARG)
                         ___awtofl (ARG)
                           ___flpack
                         ___fldiv (ARG)
                           ___flpack
                         ___flpack (ARG)
                         _frexp (ARG)
                       ___flneg (ARG)
                         ___flmul (ARG)
                           ___awtofl (ARG)
                             ___flpack
                           ___fldiv (ARG)
                             ___flpack
                           ___flpack (ARG)
                           _frexp (ARG)
                       ___flpack (ARG)
                       _frexp (ARG)
                     ___flmul
                       ___awtofl (ARG)
                         ___flpack
                       ___fldiv (ARG)
                         ___flpack
                       ___flpack (ARG)
                       _frexp (ARG)
                   _frexp
             _frexp (ARG)
           _ldexp
             ___flge
             ___flneg
               ___flmul (ARG)
                 ___awtofl (ARG)
                   ___flpack
                 ___fldiv (ARG)
                   ___flpack
                 ___flpack (ARG)
                 _frexp (ARG)
             _eval_poly (ARG)
               ___fladd
                 ___awtofl (ARG)
                   ___flpack
                 ___flmul (ARG)
                   ___awtofl (ARG)
                     ___flpack
                   ___fldiv (ARG)
                     ___flpack
                   ___flpack (ARG)
                   _frexp (ARG)
                 ___flneg (ARG)
                   ___flmul (ARG)
                     ___awtofl (ARG)
                       ___flpack
                     ___fldiv (ARG)
                       ___flpack
                     ___flpack (ARG)
                     _frexp (ARG)
                 ___flpack (ARG)
                 _frexp (ARG)
               ___flmul
                 ___awtofl (ARG)
                   ___flpack
                 ___fldiv (ARG)
                   ___flpack
                 ___flpack (ARG)
                 _frexp (ARG)
           _log (ARG)
             ___awtofl
               ___flpack
             ___fladd
               ___awtofl (ARG)
                 ___flpack
               ___flmul (ARG)
                 ___awtofl (ARG)
                   ___flpack
                 ___fldiv (ARG)
                   ___flpack
                 ___flpack (ARG)
                 _frexp (ARG)
               ___flneg (ARG)
                 ___flmul (ARG)
                   ___awtofl (ARG)
                     ___flpack
                   ___fldiv (ARG)
                     ___flpack
                   ___flpack (ARG)
                   _frexp (ARG)
               ___flpack (ARG)
               _frexp (ARG)
             ___flge
             ___flmul
               ___awtofl (ARG)
                 ___flpack
               ___fldiv (ARG)
                 ___flpack
               ___flpack (ARG)
               _frexp (ARG)
             _eval_poly
               ___fladd
                 ___awtofl (ARG)
                   ___flpack
                 ___flmul (ARG)
                   ___awtofl (ARG)
                     ___flpack
                   ___fldiv (ARG)
                     ___flpack
                   ___flpack (ARG)
                   _frexp (ARG)
                 ___flneg (ARG)
                   ___flmul (ARG)
                     ___awtofl (ARG)
                       ___flpack
                     ___fldiv (ARG)
                       ___flpack
                     ___flpack (ARG)
                     _frexp (ARG)
                 ___flpack (ARG)
                 _frexp (ARG)
               ___flmul
                 ___awtofl (ARG)
                   ___flpack
                 ___fldiv (ARG)
                   ___flpack
                 ___flpack (ARG)
                 _frexp (ARG)
             _frexp
         _log
           ___awtofl
             ___flpack
           ___fladd
             ___awtofl (ARG)
               ___flpack
             ___flmul (ARG)
               ___awtofl (ARG)
                 ___flpack
               ___fldiv (ARG)
                 ___flpack
               ___flpack (ARG)
               _frexp (ARG)
             ___flneg (ARG)
               ___flmul (ARG)
                 ___awtofl (ARG)
                   ___flpack
                 ___fldiv (ARG)
                   ___flpack
                 ___flpack (ARG)
                 _frexp (ARG)
             ___flpack (ARG)
             _frexp (ARG)
           ___flge
           ___flmul
             ___awtofl (ARG)
               ___flpack
             ___fldiv (ARG)
               ___flpack
             ___flpack (ARG)
             _frexp (ARG)
           _eval_poly
             ___fladd
               ___awtofl (ARG)
                 ___flpack
               ___flmul (ARG)
                 ___awtofl (ARG)
                   ___flpack
                 ___fldiv (ARG)
                   ___flpack
                 ___flpack (ARG)
                 _frexp (ARG)
               ___flneg (ARG)
                 ___flmul (ARG)
                   ___awtofl (ARG)
                     ___flpack
                   ___fldiv (ARG)
                     ___flpack
                   ___flpack (ARG)
                   _frexp (ARG)
               ___flpack (ARG)
               _frexp (ARG)
             ___flmul
               ___awtofl (ARG)
                 ___flpack
               ___fldiv (ARG)
                 ___flpack
               ___flpack (ARG)
               _frexp (ARG)
           _frexp
       _ser_putch *
     _format_xint32
       _format_number
         ___lwdiv
         ___lwmod
         _format_putchar *
         _output_putch *
           _ser_putch
         _ser_putch *
       _format_putchar *
       _output_putch *
         _ser_putch
       _ser_putch *
     _measure_freq
     _print_reading
     _print_unit
     _ser_putch
     _ser_puts
       _ser_putch
   _measure_inductance
     ___fladd
       ___awtofl (ARG)
         ___flpack
       ___flmul (ARG)
         ___awtofl (ARG)
           ___flpack
         ___fldiv (ARG)
           ___flpack
         ___flpack (ARG)
         _frexp (ARG)
       ___flneg (ARG)
         ___flmul (ARG)
           ___awtofl (ARG)
             ___flpack
           ___fldiv (ARG)
             ___flpack
           ___flpack (ARG)
           _frexp (ARG)
       ___flpack (ARG)
       _frexp (ARG)
     ___fldiv
       ___flpack
     ___flge
     ___flmul
       ___awtofl (ARG)
         ___flpack
       ___fldiv (ARG)
         ___flpack
       ___flpack (ARG)
       _frexp (ARG)
     ___flneg
       ___flmul (ARG)
         ___awtofl (ARG)
           ___flpack
         ___fldiv (ARG)
           ___flpack
         ___flpack (ARG)
         _frexp (ARG)
     ___fltol
       ___fldiv (ARG)
         ___flpack
       _log10 (ARG)
         ___flmul
           ___awtofl (ARG)
             ___flpack
           ___fldiv (ARG)
             ___flpack
           ___flpack (ARG)
           _frexp (ARG)
         _log
           ___awtofl
             ___flpack
           ___fladd
             ___awtofl (ARG)
               ___flpack
             ___flmul (ARG)
               ___awtofl (ARG)
                 ___flpack
               ___fldiv (ARG)
                 ___flpack
               ___flpack (ARG)
               _frexp (ARG)
             ___flneg (ARG)
               ___flmul (ARG)
                 ___awtofl (ARG)
                   ___flpack
                 ___fldiv (ARG)
                   ___flpack
                 ___flpack (ARG)
                 _frexp (ARG)
             ___flpack (ARG)
             _frexp (ARG)
           ___flge
           ___flmul
             ___awtofl (ARG)
               ___flpack
             ___fldiv (ARG)
               ___flpack
             ___flpack (ARG)
             _frexp (ARG)
           _eval_poly
             ___fladd
               ___awtofl (ARG)
                 ___flpack
               ___flmul (ARG)
                 ___awtofl (ARG)
                   ___flpack
                 ___fldiv (ARG)
                   ___flpack
                 ___flpack (ARG)
                 _frexp (ARG)
               ___flneg (ARG)
                 ___flmul (ARG)
                   ___awtofl (ARG)
                     ___flpack
                   ___fldiv (ARG)
                     ___flpack
                   ___flpack (ARG)
                   _frexp (ARG)
               ___flpack (ARG)
               _frexp (ARG)
             ___flmul
               ___awtofl (ARG)
                 ___flpack
               ___fldiv (ARG)
                 ___flpack
               ___flpack (ARG)
               _frexp (ARG)
           _frexp
     ___lwtofl
       ___flpack
       _measure_freq (ARG)
     _measure_freq
     _print_reading
     _print_unit
   _ser_init
   _ser_puts
     _ser_putch
   _timer2_init

 _isr (ROOT)

 Address spaces:
Name               Size   Autos  Total    Cost      Usage
BANK3               60     38      5F       9       99.0%
BITBANK3            60      0       0       8        0.0%
SFR3                 0      0       0       4        0.0%
BITSFR3              0      0       0       4        0.0%
BANK2               60      0      20      11       33.3%
BITBANK2            60      0       0      10        0.0%
SFR2                 0      0       0       5        0.0%
BITSFR2              0      0       0       5        0.0%
BANK1               50     4E      50       7      100.0%
BITBANK1            50      0       0       6        0.0%
SFR1                 0      0       0       2        0.0%
BITSFR1              0      0       0       2        0.0%
BANK0               50     50      50       5      100.0%
BITBANK0            50      0       0       4        0.0%
SFR0                 0      0       0       1        0.0%
BITSFR0              0      0       0       1        0.0%
COMMON               E      5       A       1       71.4%
BITCOMMON            E      0       0       0        0.0%
CODE                 0      0       0       0        0.0%
DATA                 0      0     129      12        0.0%
ABS                  0      0     129       3        0.0%
NULL                 0      0       0       0        0.0%
STACK                0      0       0       2        0.0%
EEDATA             100      0       0       0        0.0%


Microchip Technology PIC Macro Assembler V1.34 build -361300703 
Symbol Table                                                                                   Thu Aug 29 16:39:28 2019

                ___altofl@sign 0026                   ___fldiv@cntr 001B                              pc 0002  
                 ___fldiv@sign 001D                    __CFG_CP$OFF 0000                             _F1 001B  
                           _F2 0000                             _F3 0004                             fsr 0004  
          ___wmul@multiplicand 0002                   ___flpack@arg 0000                   ___flpack@exp 0004  
                  _putchar_ptr 0000                            l335 002F                            l624 0057  
                          l625 0061                            l617 0041                            l459 000C  
                          l717 0074                            l648 00B6                            l866 003A  
                          _GIE 005F                            _RC3 003B                            _RC4 003C  
                          _RC5 003D                            _RC7 003F                   __CFG_CPD$OFF 0000  
                          _RX9 00C6                            _TX9 04C6                            _exp 0000  
                          _log 0000                            _isr 0000                            _pow 0000  
                          fsr0 0004                            indf 0000                   __CFG_FOSC$HS 0000  
                 ___flmul@cntr 0030                   ___flmul@sign 0031                   __CFG_LVP$OFF 0000  
                ___flpack@sign 0005                   fp__ser_putch 0009                   ___fltol@exp1 001F  
                         l2404 0069                           l4006 003A                           l2406 0077  
                         l4024 0057                           l4200 0077                           l3340 000B  
                         l3412 0079                           l2380 001C                           l3430 00CE  
                         l3414 0086                           l3406 0063                           l4070 0056  
                         l4062 0012                           l3344 0014                           l3424 00A5  
                         l3416 008B                           l3504 00AF                           l4240 05F9  
                         l4064 0023                           l3346 0021                           l3434 00E6  
                         l3426 00B2                           l3418 008F                           l3610 0036  
                         l4146 01A0                           l4066 0034                           l3356 0055  
                         l3348 0026                           l3452 0035                           l3444 0115  
                         l3508 00C5                           l3604 001C                           l2396 004C  
                         l4236 05B7                           l4244 063A                           l4068 0045  
                         l3358 0046                           l3534 0017                           l3622 007F  
                         l3374 0012                           l2398 005C                           l4174 042C  
                         l4182 04AE                           l4246 0640                           l3456 0068  
                         l3384 002D                           l3480 0036                           l3720 0051  
                         l3640 000A                           l3800 0082                           l3394 0045  
                         l3474 001C                           l3714 0038                           l3650 0011  
                         l4178 046D                           l4370 009E                           l3388 0036  
                         l3492 007F                           l3548 0000                           l3628 00A7  
                         l3572 0064                           l3660 004C                           l3740 000A  
                         l4372 00A3                           l4364 008E                           l3582 0104  
                         l3806 00E7                           l3902 00EC                           l3742 0018  
                         l3920 0004                           l3496 0095                           l3568 0059  
                         l3680 00C0                           l3752 0039                           l3594 000E  
                         l3906 012C                           l3770 0024                           l3842 000F  
                         l3684 00CB                           l3828 0214                           l3748 002E  
                         l3764 0008                           l3860 0064                           l3766 0016  
                         l3774 002F                           l3696 00CD                           l3784 0011  
                         l3960 0038                           l3848 002C                           l3938 0003  
                         l3794 004A                           l3858 005A                           l3972 0047  
                         l3956 0204                           ?_exp 0032                           ?_log 0009  
                         l3894 0054                           l3888 0045                           l3978 0069  
                         l3996 001C                           ?_isr 0000                           ?_pow 0042  
                         STR_1 005A                           STR_3 005D                           STR_4 0077  
                         STR_5 0060                           STR_6 0066                           STR_7 006C  
                         STR_8 0052                           STR_9 005D                           _BRGH 04C2  
                         _CREN 00C4                           _T0CS 040D                           _T0SE 040C  
                         _CCal 0000                           u4015 0065                           u4105 00A6  
                         u2505 0025                           u4045 007A                           u2535 004D  
                         u5120 0020                           u4170 0022                           u5210 0053  
                         u5035 0064                           u4171 0023                           u4075 0091  
                         u4235 0044                           u5115 0015                           u4172 0028  
                         u4173 0029                           u4325 00C6                           u4245 0059  
                         u2565 006B                           u5205 0048                           u4190 0055  
                         u5230 005F                           u5150 0031                           u4191 0056  
                         u4335 00CF                           u4192 005B                           u4193 005C  
                         u5145 0026                           u5090 000F                           u4275 0096  
                         _PEIE 005E                           u5180 0042                           u4285 00A0  
                         u3815 0019                           u4455 0044                           u5175 0037  
                         u4465 0059                           u4545 0055                           u4625 000D  
                         u3835 0039                           u4475 0081                           u4715 001C  
                         _RCIF 0065                           u5437 000F                           u4565 0007  
                         u4485 0096                           u4645 0019                           u4725 0025  
                         u3855 004E                           u5447 0020                           u4575 0046  
                         u4495 00A9                           u4815 0209                           u4655 0025  
                         u4665 002F                           u4770 00AB                           u4780 00AC  
                         u4925 00D9                           u3895 0069                           u4695 000B  
                         _OERR 00C1                           u4955 000D                           u4965 0014  
                         u4995 0023                           _TMR0 0001                           _TMR2 0011  
                         _SPEN 00C7                           _TXIE 0464                           _TXEN 04C5  
                         _TXIF 0064                           _SYNC 04C4                   __CFG_WRT$OFF 0000  
                         _bres 0004                           _main 0000                           btemp 007E  
                         exp@x 0032                           log@x 0009          __size_of_output_putch 000A  
                         ltemp 007E                           pow@x 0042                           pow@y 0046  
   __end_of_measure_inductance 06A8                           start 0000*                          ttemp 007E  
                         wtemp 007E              _format_number$126 002F                          ??_exp 0036  
                        ??_log 004D                          ??_isr 0000                          ??_pow 004A  
                ___fltol@sign1 001E                __end_of___fladd 0133                          ?_main 0000  
              __end_of___fldiv 00D2                __end_of___flneg 000B                          STR_10 0072  
                        STR_11 005D                  __CFG_WDTE$OFF 0000                __end_of___flmul 00F9  
              __end_of___flsub 0028                __end_of___fltol 0086                          _CMCON 009C  
              __end_of___lwdiv 003E                          i1l310 0048                          i1l315 00A4  
                        i1l316 00A6                __end_of___lwmod 0034                          _RCREG 001A  
                        _SPBRG 0099                          _TRISA 0085                          _TRISC 0087  
                        _SSPEN 00A5                          _TXREG 0019                  __CFG_PWRTE$ON 0000  
                ___awtofl@sign 0010                          _nRBPU 040F                          _log10 0000  
                        _blink 0014                          _floor 0000                          _ldexp 0000  
                        _frexp 0000                   _output_putch 0000                          _errno 0016  
                        _msecs 0008                          fpbase 0005                          pclath 000A  
                        ltemp0 007E                          ltemp1 0082                          ltemp2 0086  
                        ltemp3 0080                          pow@yi 0009                format_number@di 0032  
                        ttemp0 007E                          ttemp1 0081                          ttemp2 0084  
                        ttemp3 0087                          ttemp4 007F                          status 0003  
                        wtemp0 007E                          wtemp1 0080                          wtemp2 0082  
                        wtemp3 0084                          wtemp4 0086                          wtemp5 0088  
                        wtemp6 007F                ??_print_reading 0002                    exp@exponent 003F  
                  ldexp@newexp 000D                __initialization 0000                format_putchar@c 0004  
                  log@exponent 004E                   __end_of_main 00C6               format_double@num 000D  
                ?_measure_freq 0000         __size_of_format_double 020D                         ??_main 004D  
          format_double@weight 001D         __size_of_format_number 008C         __size_of_format_xint32 004E  
                       ?_log10 000D                         ?_floor 0027                         ?_ldexp 0009  
                       ?_frexp 0000               __end_of___altofl 0054               __end_of___flpack 007E  
             __end_of___awtofl 002A               __end_of___lltofl 001D                         i1l3210 0069  
                       i1l3212 006C                         i1l3222 0086               __end_of___lwtofl 001B  
                       u367_20 0036                         u368_24 0039                         _TMR0IF 005A  
                       _TMR2IE 0461                         _TMR2IF 0061                         _TMR2ON 0092  
           entry__output_putch 0006                         _TRISC0 0438                         _TRISC1 0439  
                       _TRISC2 043A                         _TRISC3 043B                         _TRISC4 043C  
                       _TRISC5 043D                         _TRISC6 043E               __end_of__fptable 000F  
                       ___flge 0000                      ??___fladd 003E                         ___wmul 0000  
                    ??___fldiv 0012                      ??___flneg 0036                      ??___flmul 0026  
                    ??___flsub 004E                      ??___fltol 0019                 ??_measure_freq 0002  
                    ??___lwdiv 0004                   ?_timer2_init 0000                      ??___lwmod 0004  
                       log10@x 000D                         _rxfifo 0000                         _txfifo 0010  
                       _rxiptr 0000                         _rxoptr 0001                         floor@i 002C  
                       _txiptr 0002                         floor@x 0027                         _txoptr 0003  
                       fptable 0000               __end_of_ser_init 0020                   __pdataCOMMON 0000  
                       fptotal 0006               __end_of_ser_puts 0023             timer2_init@ps_mode 0001  
                       saved_w 007E               format_number@buf 000F               format_number@pad 000B  
                   ___fladd@f1 0036                     ___fladd@f2 003A                     ___flge@ff1 0000  
                   ___flge@ff2 0004               __end_ofexp@coeff 002E                  _format_double 0000  
             __end_oflog@coeff 0052                     ___altofl@c 0020                     ___fldiv@f1 000E  
                   ___fldiv@f2 000A                     ___fldiv@f3 0017        __end_of__initialization 0022  
                   ___flneg@f1 0032                  _format_number 0000                  _format_xint32 0000  
                   ___flmul@f1 001E                     ___flmul@f2 0022                   eval_poly@res 0005  
                   ___flsub@f1 004A                     ___flsub@f2 0046                     ___fltol@f1 0015  
                   ___awtofl@c 000A         measure_capacitance@Cin 0034   __size_of_measure_capacitance 0532  
       measure_capacitance@var 0032                 __pcstackCOMMON 0000             __size_of_calibrate 00C4  
                 __pidataBANK1 0000                     ___lltofl@c 000A             __size_of_delay10ms 0070  
                __end_of_log10 0057                  __end_of_floor 010F                  __end_of_ldexp 00F8  
                __end_of_frexp 0045                     ___lwtofl@c 000C                        ??_log10 0050  
                      ??_floor 002B                        ??_ldexp 004D                        ??_frexp 0005  
                   __pbssBANK1 0000                 ?_format_double 000D                     __pbssBANK2 0000  
                   __pbssBANK3 0000             __size_of_eval_poly 00E6             __size_of_indicator 0001  
      __size_of_format_putchar 0001              fp__format_putchar 000C                 ?_format_number 0008  
               ?_format_xint32 0034                 print_unit@unit 0000                     __pmaintext 0000  
                      ?___flge 0000                        ?___wmul 0000                     __pintentry 0000  
                    ?___altofl 0020                      ?___flpack 0000                      ?___awtofl 000A  
                    ?___lltofl 000A             _measure_inductance 0000             __size_of_ser_putch 001C  
                      _T2CKPS0 0090                        _T2CKPS1 0091                      ?___lwtofl 000C  
          ?_measure_inductance 0000                entry__ser_putch 0009              __end_of_calibrate 00C4  
                      _TOUTPS0 0093                        _TOUTPS1 0094                        _TOUTPS2 0095  
            __end_of_delay10ms 0070                     __stringtab 0000           __end_of_measure_freq 0079  
                    ?_ser_init 0000           ??_measure_inductance 0020                      ?_ser_puts 0000  
              __size_of___flge 007B                        ___fladd 0000                        ___fldiv 0000  
                      ___flneg 0000                        ___flmul 0000                        ___flsub 0000  
                      ___fltol 0000                __size_of___wmul 0023                        ___lwdiv 0000  
                      ___lwmod 0000                     ??___altofl 0024                        _exp$823 0037  
                      _exp$592 003B                     ??___flpack 0006                     ??___awtofl 000E  
            __end_of_eval_poly 00E6              __end_of_indicator 0001                     ??___lltofl 000E  
                      __ptext1 0000                        __ptext2 0000                        __ptext3 0000  
                      __ptext4 0000                        __ptext5 0000                        __ptext6 0000  
                      __ptext7 0000                        __ptext8 0000                        __ptext9 0000  
         __size_of_timer2_init 0063                     ??___lwtofl 0010                        _pow$821 0000  
                      _pow$822 0004                   __size_of_exp 024E                   __size_of_log 015B  
                 __size_of_isr 00B2                   __size_of_pow 01FE                        _seconds 000C  
                      _ser_brg 0000                        _ser_tmp 0000                ??_format_double 004B  
                      clrloop0 0001           end_of_initialization 0022                ??_format_number 000C  
              ??_format_xint32 0038                        exp@sign 0041              __end_of_ser_putch 001C  
                      pow@sign 0008  measure_inductance@denominator 0025          __end_of_print_reading 0001  
                   ??_ser_init 0000                     ??_ser_puts 0006                 testloop@prev_s 0018  
            format_number@base 000A                     _print_unit 0000            _measure_capacitance 0000  
                  ___fldiv@exp 001C                 _format_putchar 0000                    ___flmul@exp 002B  
         ?_measure_capacitance 0000        measure_capacitance@unit 0031                 format_double@m 0023  
       measure_inductance@unit 0039                 __end_of___flge 007B                 __end_of___wmul 0023  
                __pidataCOMMON 0000                     floor@expon 0030                fp__output_putch 0006  
                  testloop@led 001A                 format_number@i 0033                 format_number@n 0008  
               format_xint32@x 0034            start_initialization 0000                     eval_poly@d 004A  
                   eval_poly@n 004B                     eval_poly@x 0046          __size_of_measure_freq 0079  
                   ldexp@value 0009                    __end_of_exp 024E                    __end_of_log 015B  
                  __end_of_isr 00B2                    __end_of_pow 01FE         __end_of_format_putchar 0001  
           format_double@digit 0021                     frexp@value 0000          ??_measure_capacitance 004C  
                     ??___flge 0008                       ??___wmul 0004                    __pdataBANK1 0000  
                 _measure_freq 0000                   delay10ms@run 0010         _measure_inductance$813 0029  
       _measure_inductance$814 003A         _measure_inductance$815 003E         _measure_inductance$816 0042  
       _measure_inductance$817 002D         _measure_inductance$818 0031         _measure_inductance$819 0035  
     print_reading@measurement 0000              __size_of___altofl 0054              __size_of___flpack 007E  
            __size_of___awtofl 002A                    ?_print_unit 0000              __size_of___lltofl 001D  
                  __pbssCOMMON 0000                      ___latbits 0002              __size_of___lwtofl 001B  
                __pcstackBANK0 0000                  __pcstackBANK1 0000                  __pcstackBANK3 0000  
            __size_of__fptable 000F                  ?_output_putch 0004                ?_format_putchar 0004  
            measure_freq@count 000A                      _calibrate 0000                      _delay10ms 0000  
                    _log10$820 0011                      __pnvBANK3 0000               ___lwdiv@dividend 0002  
                    __pfunctab 0000                       ?___fladd 0036                       ?___fldiv 000A  
                     ?___flneg 0032                       ?___flmul 001E                       ?___flsub 0046  
                     ?___fltol 0015              __size_of_ser_init 0020                       ?___lwdiv 0000  
                     ?___lwmod 0000              __size_of_ser_puts 0023                      __pstrings 0000  
                    _ldexp$498 000F                      _eval_poly 0000                  output_putch@c 0004  
                    _indicator 0000                 ??_output_putch 0005               ___lwdiv@quotient 0006  
               __size_of_log10 0057                 __size_of_floor 010F                 __size_of_ldexp 00F8  
               __size_of_frexp 0045              interrupt_function 0000                     ?_calibrate 0000  
               ___wmul@product 0004                     ser_putch@c 0004                     ?_delay10ms 0006  
                    clear_ram0 0000                  measure_freq@i 0009            __size_of_print_unit 0001  
                    _ser_putch 0000    __size_of_measure_inductance 06A8                  ??_timer2_init 0000  
            indicator@indicate 0000                    __stringbase 0005              ___wmul@multiplier 0000  
                   ?_eval_poly 0046                     ?_indicator 0000          measure_inductance@Lin 0048  
        measure_inductance@var 0046          __end_of_format_double 020D           format_number@padchar 0031  
        __end_of_format_number 008C          __end_of_format_xint32 004E                      frexp@eptr 0004  
                   ?_ser_putch 0004                    delay10ms@ms 000C               __size_of___fladd 0133  
             __size_of___fldiv 00D2               __size_of___flneg 000B               __size_of___flmul 00F9  
             __size_of___flsub 0028               __size_of___fltol 0086                       ___altofl 0000  
                     ___flpack 0000               __size_of___lwdiv 003E               __size_of___lwmod 0034  
                     ___awtofl 0000             __end_of__stringtab 0006                       ___lltofl 0000  
                timer2_init@ps 0002                       ___lwtofl 0000               measure_freq@prev 0008  
          __end_of_timer2_init 0063                       __fptable 0000                ___lwdiv@divisor 0000  
              ___lwdiv@counter 0005         __size_of_print_reading 0001                       __ptext10 0000  
                     __ptext11 0000                       __ptext20 0000                       __ptext12 0000  
                     __ptext21 0000                       __ptext13 0000                       __ptext30 0000  
                     __ptext22 0000                       __ptext14 0000                       __ptext31 0000  
                     __ptext23 0000                       __ptext15 0000                       __ptext40 0000  
                     __ptext32 0000                       __ptext24 0000                       __ptext16 0000  
                     __ptext41 0000                       __ptext33 0000                       __ptext25 0000  
                     __ptext17 0000                       __ptext34 0000                       __ptext26 0000  
                     __ptext18 0000                       __ptext35 0000                       __ptext27 0000  
                     __ptext19 0000                       __ptext36 0000                       __ptext28 0000  
                     __ptext37 0000                       __ptext29 0000                       __ptext38 0000  
                     __ptext39 0000                    ??_calibrate 0011                  __size_of_main 00C6  
                  ??_delay10ms 0008                      ser_puts@s 0007                       _msecpart 0006  
        timer2_init@postscaler 0003                       _ser_init 0000                       _ser_puts 0000  
                     _timer1of 0010           __end_of_output_putch 000A                       exp@coeff 0006  
        ___flmul@f3_as_product 002C                       log@coeff 002E    measure_inductance@numerator 0021  
             ??_format_putchar 0003                   ??_print_unit 0000                    ??_eval_poly 0000  
                  ??_indicator 0000                       intlevel1 0000*   __end_of_measure_capacitance 0532  
             ___lwmod@dividend 0002                      stringcode 0000                    ??_ser_putch 0001  
           __end_of_print_unit 0001                  _print_reading 0000           delay10ms@period_10ms 0006  
                  _timer2_init 0000                ___lwmod@divisor 0000                ___lwmod@counter 0005  
                     stringdir 0000                       stringtab 0000              _format_double$140 0019  
            _format_double$808 0011              _format_double$809 0015        _measure_capacitance$810 0025  
      _measure_capacitance$811 0029        _measure_capacitance$812 002D                   ___fladd@exp1 0045  
                 ___fladd@exp2 0044                   ___fladd@sign 0043                 ?_print_reading 0000  
