

HI-TECH Software PIC LITE Macro Assembler V9.83 build 10920 
                                                                                               Thu Aug 29 18:49:24 2019

HI-TECH Software Omniscient Code Generator (Lite mode) build 10920
     1  0000                     opt subtitle "HI-TECH Software Omniscient Code Generator (Lite mode) build 10920"
     2                           
     3                           opt pagewidth 120
     4                           
     5                           	opt lm
     6                           
     7                           	processor	16F876A
     8                           clrc	macro
     9                           	bcf	3,0
    10  0000                     	endm
    11                           clrz	macro
    12                           	bcf	3,2
    13  0000                     	endm
    14                           setc	macro
    15                           	bsf	3,0
    16  0000                     	endm
    17                           setz	macro
    18                           	bsf	3,2
    19  0000                     	endm
    20                           skipc	macro
    21                           	btfss	3,0
    22  0000                     	endm
    23                           skipz	macro
    24                           	btfss	3,2
    25  0000                     	endm
    26                           skipnc	macro
    27                           	btfsc	3,0
    28  0000                     	endm
    29                           skipnz	macro
    30                           	btfsc	3,2
    31  0000                     	endm
    32  0000                     indf	equ	0
    33  0000                     indf0	equ	0
    34  0002                     pc	equ	2
    35  0002                     pcl	equ	2
    36  0003                     status	equ	3
    37  0004                     fsr	equ	4
    38  0004                     fsr0	equ	4
    39  0001                     c	equ	1
    40  0000                     z	equ	0
    41  000A                     pclath	equ	10
    42                           # 10 "../../../src/config-16f876a.h"
    43                           	psect config,class=CONFIG,delta=2 ;#
    44                           # 10 "../../../src/config-16f876a.h"
    45  0000' FF72               	dw 0xFFFE& 0xFFFB& 0xFFF7& 0xFF7F& 0xFFFF& 0xFFFF& 0xFFFF ;#
    46                           	FNCALL	_main,_timer2_init
    47                           	FNCALL	_main,_delay10ms
    48                           	FNCALL	_main,_ser_init
    49                           	FNCALL	_main,_calibrate
    50                           	FNCALL	_main,_ser_puts
    51                           	FNCALL	_main,_measure_capacitance
    52                           	FNCALL	_main,_measure_inductance
    53                           	FNCALL	_main,_indicator
    54                           	FNCALL	_measure_capacitance,_measure_freq
    55                           	FNCALL	_measure_capacitance,___lwtofl
    56                           	FNCALL	_measure_capacitance,_ser_puts
    57                           	FNCALL	_measure_capacitance,_format_xint32
    58                           	FNCALL	_measure_capacitance,_format_double
    59                           	FNCALL	_measure_capacitance,_ser_putch
    60                           	FNCALL	_measure_capacitance,___flge
    61                           	FNCALL	_measure_capacitance,___flmul
    62                           	FNCALL	_measure_capacitance,___flneg
    63                           	FNCALL	_measure_capacitance,___fladd
    64                           	FNCALL	_measure_capacitance,___fldiv
    65                           	FNCALL	_measure_capacitance,___fltol
    66                           	FNCALL	_measure_capacitance,_print_reading
    67                           	FNCALL	_measure_capacitance,_print_unit
    68                           	FNCALL	_format_double,_log10
    69                           	FNCALL	_format_double,___fltol
    70                           	FNCALL	_format_double,___awtofl
    71                           	FNCALL	_format_double,_pow
    72                           	FNCALL	_format_double,___fldiv
    73                           	FNCALL	_format_double,_floor
    74                           	FNCALL	_format_double,___flmul
    75                           	FNCALL	_format_double,___flsub
    76                           	FNCALL	_format_double,_output_putch
    77                           	FNCALL	_format_double,_format_putchar
    78                           	FNCALL	_format_double,_ser_putch
    79                           	FNCALL	_format_double,___flge
    80                           	FNCALL	_pow,___flge
    81                           	FNCALL	_pow,___fltol
    82                           	FNCALL	_pow,___lltofl
    83                           	FNCALL	_pow,___flneg
    84                           	FNCALL	_pow,_log
    85                           	FNCALL	_pow,___flmul
    86                           	FNCALL	_pow,_exp
    87                           	FNCALL	_log10,_log
    88                           	FNCALL	_log10,___flmul
    89                           	FNCALL	_exp,___flge
    90                           	FNCALL	_exp,___flneg
    91                           	FNCALL	_exp,___flmul
    92                           	FNCALL	_exp,_floor
    93                           	FNCALL	_exp,___fltol
    94                           	FNCALL	_exp,___awtofl
    95                           	FNCALL	_exp,___flsub
    96                           	FNCALL	_exp,_eval_poly
    97                           	FNCALL	_exp,_ldexp
    98                           	FNCALL	_exp,___fldiv
    99                           	FNCALL	_log,___flge
   100                           	FNCALL	_log,_frexp
   101                           	FNCALL	_log,___flmul
   102                           	FNCALL	_log,___fladd
   103                           	FNCALL	_log,_eval_poly
   104                           	FNCALL	_log,___awtofl
   105                           	FNCALL	_format_xint32,_output_putch
   106                           	FNCALL	_format_xint32,_format_putchar
   107                           	FNCALL	_format_xint32,_ser_putch
   108                           	FNCALL	_format_xint32,_format_number
   109                           	FNCALL	___flsub,___fladd
   110                           	FNCALL	_eval_poly,___flmul
   111                           	FNCALL	_eval_poly,___fladd
   112                           	FNCALL	_measure_inductance,_measure_freq
   113                           	FNCALL	_measure_inductance,___lwtofl
   114                           	FNCALL	_measure_inductance,___flge
   115                           	FNCALL	_measure_inductance,___flneg
   116                           	FNCALL	_measure_inductance,___fladd
   117                           	FNCALL	_measure_inductance,___flmul
   118                           	FNCALL	_measure_inductance,___fldiv
   119                           	FNCALL	_measure_inductance,___fltol
   120                           	FNCALL	_measure_inductance,_print_reading
   121                           	FNCALL	_measure_inductance,_print_unit
   122                           	FNCALL	_calibrate,_measure_freq
   123                           	FNCALL	_calibrate,___lwtofl
   124                           	FNCALL	_calibrate,_delay10ms
   125                           	FNCALL	_calibrate,_ser_puts
   126                           	FNCALL	_floor,_frexp
   127                           	FNCALL	_floor,___flge
   128                           	FNCALL	_floor,___fltol
   129                           	FNCALL	_floor,___altofl
   130                           	FNCALL	_floor,___fladd
   131                           	FNCALL	_format_number,___lwmod
   132                           	FNCALL	_format_number,___lwdiv
   133                           	FNCALL	_format_number,_output_putch
   134                           	FNCALL	_format_number,_format_putchar
   135                           	FNCALL	_format_number,_ser_putch
   136                           	FNCALL	___lltofl,___flpack
   137                           	FNCALL	___altofl,___flpack
   138                           	FNCALL	___lwtofl,___flpack
   139                           	FNCALL	___awtofl,___flpack
   140                           	FNCALL	___flmul,___flpack
   141                           	FNCALL	___fldiv,___flpack
   142                           	FNCALL	___fladd,___flpack
   143                           	FNCALL	_ldexp,___flge
   144                           	FNCALL	_ldexp,___flneg
   145                           	FNCALL	_delay10ms,___wmul
   146                           	FNCALL	_output_putch,_ser_putch
   147                           	FNCALL	_ser_puts,_ser_putch
   148                           	FNROOT	_main
   149                           	FNCALL	intlevel1,_isr
   150                           	global	intlevel1
   151                           	FNROOT	intlevel1
   152                           	global	_putchar_ptr
   153                           	global	_ser_brg
   154                           psect	idataCOMMON,class=CODE,space=0,delta=2
   155                           global __pidataCOMMON
   156  0000'                    __pidataCOMMON:
   157                           	file	"../../../lib/format.c"
   158                           	line	10
   159                           
   160                           ;initializer for _putchar_ptr
   161  0000' 3407               	retlw	(fp__format_putchar-fpbase)&0ffh
   162                           psect	idataBANK1,class=CODE,space=0,delta=2
   163                           global __pidataBANK1
   164  0000'                    __pidataBANK1:
   165                           	file	"../../../lib/ser.c"
   166                           	line	49
   167                           
   168                           ;initializer for _ser_brg
   169  0000' 341F               	retlw	01Fh
   170                           	global	exp@coeff
   171                           psect	strings,class=STRING,delta=2
   172                           global __pstrings
   173  0000'                    __pstrings:
   174                           ;	global	stringdir,stringtab,__stringbase
   175  0000'                    stringtab:
   176                           ;	String table - string pointers are 1 byte each
   177  0000'                    stringcode:stringdir:
      + 0000'                    stringdir:	
   178  0000' 3000'              movlw high(stringdir)
   179  0001' 008A               movwf pclath
   180  0002' 0804               movf fsr,w
   181  0003' 0A84               incf fsr
   182  0004' 0782               	addwf pc
   183  0005'                    __stringbase:
   184  0005' 3400               	retlw	0
   185                           psect	strings
   186                           	file	"/opt/hitech/picc/9.83/sources/exp.c"
   187                           	line	17
   188  0006'                    exp@coeff:
   189  0006' 3400               	retlw	0x0
   190  0007' 3400               	retlw	0x0
   191  0008' 3480               	retlw	0x80
   192  0009' 343F               	retlw	0x3f
   193                           
   194  000A' 3418               	retlw	0x18
   195  000B' 3472               	retlw	0x72
   196  000C' 3431               	retlw	0x31
   197  000D' 343F               	retlw	0x3f
   198                           
   199  000E' 34F0               	retlw	0xf0
   200  000F' 34FD               	retlw	0xfd
   201  0010' 3475               	retlw	0x75
   202  0011' 343E               	retlw	0x3e
   203                           
   204  0012' 3447               	retlw	0x47
   205  0013' 3458               	retlw	0x58
   206  0014' 3463               	retlw	0x63
   207  0015' 343D               	retlw	0x3d
   208                           
   209  0016' 3458               	retlw	0x58
   210  0017' 3495               	retlw	0x95
   211  0018' 341D               	retlw	0x1d
   212  0019' 343C               	retlw	0x3c
   213                           
   214  001A' 3482               	retlw	0x82
   215  001B' 34C4               	retlw	0xc4
   216  001C' 34AE               	retlw	0xae
   217  001D' 343A               	retlw	0x3a
   218                           
   219  001E' 34A8               	retlw	0xa8
   220  001F' 3478               	retlw	0x78
   221  0020' 3421               	retlw	0x21
   222  0021' 3439               	retlw	0x39
   223                           
   224  0022' 34EF               	retlw	0xef
   225  0023' 3493               	retlw	0x93
   226  0024' 3480               	retlw	0x80
   227  0025' 3437               	retlw	0x37
   228                           
   229  0026' 34A0               	retlw	0xa0
   230  0027' 3492               	retlw	0x92
   231  0028' 34A7               	retlw	0xa7
   232  0029' 3435               	retlw	0x35
   233                           
   234  002A' 3446               	retlw	0x46
   235  002B' 3456               	retlw	0x56
   236  002C' 3415               	retlw	0x15
   237  002D' 3434               	retlw	0x34
   238                           
   239                           	global	log@coeff
   240                           psect	strings
   241                           	file	"/opt/hitech/picc/9.83/sources/log.c"
   242                           	line	9
   243  002E'                    log@coeff:
   244  002E' 3400               	retlw	0x0
   245  002F' 3400               	retlw	0x0
   246  0030' 3400               	retlw	0x0
   247  0031' 3400               	retlw	0x0
   248                           
   249  0032' 34C4               	retlw	0xc4
   250  0033' 34FF               	retlw	0xff
   251  0034' 347F               	retlw	0x7f
   252  0035' 343F               	retlw	0x3f
   253                           
   254  0036' 3480               	retlw	0x80
   255  0037' 34EF               	retlw	0xef
   256  0038' 34FF               	retlw	0xff
   257  0039' 34BE               	retlw	0xbe
   258                           
   259  003A' 3490               	retlw	0x90
   260  003B' 34E1               	retlw	0xe1
   261  003C' 34A9               	retlw	0xa9
   262  003D' 343E               	retlw	0x3e
   263                           
   264  003E' 34EC               	retlw	0xec
   265  003F' 3482               	retlw	0x82
   266  0040' 3476               	retlw	0x76
   267  0041' 34BE               	retlw	0xbe
   268                           
   269  0042' 3482               	retlw	0x82
   270  0043' 34AD               	retlw	0xad
   271  0044' 342B               	retlw	0x2b
   272  0045' 343E               	retlw	0x3e
   273                           
   274  0046' 340E               	retlw	0xe
   275  0047' 343C               	retlw	0x3c
   276  0048' 34C3               	retlw	0xc3
   277  0049' 34BD               	retlw	0xbd
   278                           
   279  004A' 3487               	retlw	0x87
   280  004B' 34D1               	retlw	0xd1
   281  004C' 3413               	retlw	0x13
   282  004D' 343D               	retlw	0x3d
   283                           
   284  004E' 3441               	retlw	0x41
   285  004F' 3478               	retlw	0x78
   286  0050' 34D3               	retlw	0xd3
   287  0051' 34BB               	retlw	0xbb
   288                           
   289                           	global	exp@coeff
   290                           	global	log@coeff
   291                           	global	_txfifo
   292                           	global	_rxfifo
   293                           	global	_F2
   294                           	global	_F3
   295                           	global	_msecs
   296                           	global	_seconds
   297                           	global	_timer1of
   298                           	global	_errno
   299                           	global	testloop@prev_s
   300                           	global	_rxiptr
   301                           	global	_rxoptr
   302                           	global	_txiptr
   303                           	global	_txoptr
   304                           	global	_blink
   305                           	global	_ser_tmp
   306                           	global	testloop@led
   307                           	global	_F1
   308                           	global	_CCal
   309                           psect	nvBANK3,class=BANK3,space=1
   310                           global __pnvBANK3
   311  0000'                    __pnvBANK3:
   312  0000'                    _CCal:
   313  0000'                           ds      4
   314                           
   315                           	global	_bres
   316  0004'                    _bres:
   317  0004'                           ds      2
   318                           
   319                           	global	_msecpart
   320  0006'                    _msecpart:
   321  0006'                           ds      2
   322                           
   323                           	global	_RCREG
   324  001A                     _RCREG	set	26
   325                           	global	_TMR0
   326  0001                     _TMR0	set	1
   327                           	global	_TMR2
   328  0011                     _TMR2	set	17
   329                           	global	_TXREG
   330  0019                     _TXREG	set	25
   331                           	global	_CARRY
   332  0018                     _CARRY	set	24
   333                           	global	_CREN
   334  00C4                     _CREN	set	196
   335                           	global	_GIE
   336  005F                     _GIE	set	95
   337                           	global	_OERR
   338  00C1                     _OERR	set	193
   339                           	global	_PEIE
   340  005E                     _PEIE	set	94
   341                           	global	_RC3
   342  003B                     _RC3	set	59
   343                           	global	_RC4
   344  003C                     _RC4	set	60
   345                           	global	_RC5
   346  003D                     _RC5	set	61
   347                           	global	_RC7
   348  003F                     _RC7	set	63
   349                           	global	_RCIF
   350  0065                     _RCIF	set	101
   351                           	global	_RX9
   352  00C6                     _RX9	set	198
   353                           	global	_SPEN
   354  00C7                     _SPEN	set	199
   355                           	global	_SSPEN
   356  00A5                     _SSPEN	set	165
   357                           	global	_T2CKPS0
   358  0090                     _T2CKPS0	set	144
   359                           	global	_T2CKPS1
   360  0091                     _T2CKPS1	set	145
   361                           	global	_TMR0IF
   362  005A                     _TMR0IF	set	90
   363                           	global	_TMR2IF
   364  0061                     _TMR2IF	set	97
   365                           	global	_TMR2ON
   366  0092                     _TMR2ON	set	146
   367                           	global	_TOUTPS0
   368  0093                     _TOUTPS0	set	147
   369                           	global	_TOUTPS1
   370  0094                     _TOUTPS1	set	148
   371                           	global	_TOUTPS2
   372  0095                     _TOUTPS2	set	149
   373                           	global	_TXIF
   374  0064                     _TXIF	set	100
   375                           	global	_CMCON
   376  009C                     _CMCON	set	156
   377                           	global	_SPBRG
   378  0099                     _SPBRG	set	153
   379                           	global	_TRISA
   380  0085                     _TRISA	set	133
   381                           	global	_TRISC
   382  0087                     _TRISC	set	135
   383                           	global	_BRGH
   384  04C2                     _BRGH	set	1218
   385                           	global	_SYNC
   386  04C4                     _SYNC	set	1220
   387                           	global	_T0CS
   388  040D                     _T0CS	set	1037
   389                           	global	_T0SE
   390  040C                     _T0SE	set	1036
   391                           	global	_TMR2IE
   392  0461                     _TMR2IE	set	1121
   393                           	global	_TRISC0
   394  0438                     _TRISC0	set	1080
   395                           	global	_TRISC1
   396  0439                     _TRISC1	set	1081
   397                           	global	_TRISC2
   398  043A                     _TRISC2	set	1082
   399                           	global	_TRISC3
   400  043B                     _TRISC3	set	1083
   401                           	global	_TRISC4
   402  043C                     _TRISC4	set	1084
   403                           	global	_TRISC5
   404  043D                     _TRISC5	set	1085
   405                           	global	_TRISC6
   406  043E                     _TRISC6	set	1086
   407                           	global	_TX9
   408  04C6                     _TX9	set	1222
   409                           	global	_TXEN
   410  04C5                     _TXEN	set	1221
   411                           	global	_TXIE
   412  0464                     _TXIE	set	1124
   413                           	global	_nRBPU
   414  040F                     _nRBPU	set	1039
   415                           	global	_EEADR
   416  010D                     _EEADR	set	269
   417                           	global	_EEDATA
   418  010C                     _EEDATA	set	268
   419                           	global	_EECON1
   420  018C                     _EECON1	set	396
   421                           	global	_EECON2
   422  018D                     _EECON2	set	397
   423                           	global	_RD
   424  0C60                     _RD	set	3168
   425                           	global	_WR
   426  0C61                     _WR	set	3169
   427                           	global	_WREN
   428  0C62                     _WREN	set	3170
   429                           psect	strings
   430                           	
   431  0052'                    STR_8:	
   432  0052' 340D               	retlw	13
   433  0053' 340A               	retlw	10
   434  0054' 3443               	retlw	67	;'C'
   435  0055' 3443               	retlw	67	;'C'
   436  0056' 3461               	retlw	97	;'a'
   437  0057' 346C               	retlw	108	;'l'
   438  0058' 343D               	retlw	61	;'='
   439  0059' 3400               	retlw	0
   440                           psect	strings
   441                           	
   442  005A'                    STR_1:	
   443  005A' 342E               	retlw	46	;'.'
   444  005B' 342E               	retlw	46	;'.'
   445  005C' 342E               	retlw	46	;'.'
   446  005D' 340D               	retlw	13
   447  005E' 340A               	retlw	10
   448  005F' 3400               	retlw	0
   449                           psect	strings
   450                           	
   451  0060'                    STR_5:	
   452  0060' 340D               	retlw	13
   453  0061' 340A               	retlw	10
   454  0062' 3446               	retlw	70	;'F'
   455  0063' 3431               	retlw	49	;'1'
   456  0064' 343D               	retlw	61	;'='
   457  0065' 3400               	retlw	0
   458                           psect	strings
   459                           	
   460  0066'                    STR_6:	
   461  0066' 340D               	retlw	13
   462  0067' 340A               	retlw	10
   463  0068' 3446               	retlw	70	;'F'
   464  0069' 3432               	retlw	50	;'2'
   465  006A' 343D               	retlw	61	;'='
   466  006B' 3400               	retlw	0
   467                           psect	strings
   468                           	
   469  006C'                    STR_7:	
   470  006C' 340D               	retlw	13
   471  006D' 340A               	retlw	10
   472  006E' 3446               	retlw	70	;'F'
   473  006F' 3433               	retlw	51	;'3'
   474  0070' 343D               	retlw	61	;'='
   475  0071' 3400               	retlw	0
   476                           psect	strings
   477                           	
   478  0072'                    STR_10:	
   479  0072' 3443               	retlw	67	;'C'
   480  0073' 3469               	retlw	105	;'i'
   481  0074' 346E               	retlw	110	;'n'
   482  0075' 343D               	retlw	61	;'='
   483  0076' 3400               	retlw	0
   484                           psect	strings
   485                           	
   486  0077'                    STR_4:	
   487  0077' 3476               	retlw	118	;'v'
   488  0078' 3461               	retlw	97	;'a'
   489  0079' 3472               	retlw	114	;'r'
   490  007A' 343D               	retlw	61	;'='
   491  007B' 3400               	retlw	0
   492                           psect	strings
   493  005D'                    STR_2	equ	STR_1+3
   494  005D'                    STR_3	equ	STR_1+3
   495  005D'                    STR_9	equ	STR_1+3
   496  005D'                    STR_11	equ	STR_1+3
   497                           	file	"/tmp/cgtJxrQRr"
   498                           	line	#
   499                           psect cinit,class=CODE,delta=2
   500                           global start_initialization
   501  0000'                    start_initialization:
   502                           
   503                           psect	bssCOMMON,class=COMMON,space=1
   504                           global __pbssCOMMON
   505  0000'                    __pbssCOMMON:
   506  0000'                    _rxiptr:
   507  0000'                           ds      1
   508                           
   509  0001'                    _rxoptr:
   510  0001'                           ds      1
   511                           
   512  0002'                    _txiptr:
   513  0002'                           ds      1
   514                           
   515  0003'                    _txoptr:
   516  0003'                           ds      1
   517                           
   518                           psect	dataCOMMON,class=COMMON,space=1
   519                           global __pdataCOMMON
   520  0000'                    __pdataCOMMON:
   521                           	file	"../../../lib/format.c"
   522                           	line	10
   523  0000'                    _putchar_ptr:
   524  0000'                           ds      1
   525                           
   526                           psect	bssBANK1,class=BANK1,space=1
   527                           global __pbssBANK1
   528  0000'                    __pbssBANK1:
   529  0000'                    _blink:
   530  0000'                           ds      2
   531                           
   532  0002'                    _ser_tmp:
   533  0002'                           ds      1
   534                           
   535  0003'                    testloop@led:
   536  0003'                           ds      1
   537                           
   538                           psect	dataBANK1,class=BANK1,space=1
   539                           global __pdataBANK1
   540  0000'                    __pdataBANK1:
   541                           	file	"../../../lib/ser.c"
   542                           	line	49
   543  0000'                    _ser_brg:
   544  0000'                           ds      1
   545                           
   546                           psect	bssBANK3,class=BANK3,space=1
   547                           global __pbssBANK3
   548  0000'                    __pbssBANK3:
   549  0000'                    _rxfifo:
   550  0000'                           ds      16
   551                           
   552  0010'                    _F2:
   553  0010'                           ds      4
   554                           
   555  0014'                    _F3:
   556  0014'                           ds      4
   557                           
   558  0018'                    _msecs:
   559  0018'                           ds      4
   560                           
   561  001C'                    _seconds:
   562  001C'                           ds      4
   563                           
   564  0020'                    _timer1of:
   565  0020'                           ds      4
   566                           
   567  0024'                    _errno:
   568  0024'                           ds      2
   569                           
   570  0026'                    testloop@prev_s:
   571  0026'                           ds      2
   572                           
   573  0028'                    _F1:
   574  0028'                           ds      4
   575                           
   576                           psect	bssBANK2,class=BANK2,space=1
   577                           global __pbssBANK2
   578  0000'                    __pbssBANK2:
   579  0000'                    _txfifo:
   580  0000'                           ds      16
   581                           
   582                           psect clrtext,class=CODE,delta=2
   583                           global clear_ram
   584                           ;	Called with FSR containing the base address, and
   585                           ;	W with the last address+1
   586  0000'                    clear_ram:
   587  0000' 0064               	clrwdt			;clear the watchdog before getting into this loop
   588  0001'                    clrloop:
   589  0001' 0180               	clrf	indf		;clear RAM location pointed to by FSR
   590  0002' 0A84               	incf	fsr,f		;increment pointer
   591  0003' 0604               	xorwf	fsr,w		;XOR with final address
   592  0004' 1903               	btfsc	status,2	;have we reached the end yet?
   593  0005' 3400               	retlw	0		;all done for this memory range, return
   594  0006' 0604               	xorwf	fsr,w		;XOR again to restore value
   595  0007' 2800'              	goto	clrloop		;do the next byte
   596                           
   597                           ; Clear objects allocated to COMMON
   598                           psect cinit,class=CODE,delta=2
   599  0000' 0180'              	clrf	((__pbssCOMMON)+0)&07Fh
   600  0001' 0180'              	clrf	((__pbssCOMMON)+1)&07Fh
   601  0002' 0180'              	clrf	((__pbssCOMMON)+2)&07Fh
   602  0003' 0180'              	clrf	((__pbssCOMMON)+3)&07Fh
   603                           ; Clear objects allocated to BANK1
   604                           psect cinit,class=CODE,delta=2
   605  0004' 1683               	bsf	status, 5	;RP0=1, select bank1
   606  0005' 1303               	bcf	status, 6	;RP1=0, select bank1
   607  0006' 0180'              	clrf	((__pbssBANK1)+0)&07Fh
   608  0007' 0180'              	clrf	((__pbssBANK1)+1)&07Fh
   609  0008' 0180'              	clrf	((__pbssBANK1)+2)&07Fh
   610  0009' 0180'              	clrf	((__pbssBANK1)+3)&07Fh
   611                           ; Clear objects allocated to BANK3
   612                           psect cinit,class=CODE,delta=2
   613  000A' 1783               	bsf	status, 7	;select IRP bank2
   614  000B' 3000'              	movlw	low(__pbssBANK3)
   615  000C' 0084               	movwf	fsr
   616  000D' 3000'              	movlw	low((__pbssBANK3)+02Ch)
   617  000E' 120A' 118A' 2000'  	fcall	clear_ram
              120A' 118A'        
   618                           ; Clear objects allocated to BANK2
   619                           psect cinit,class=CODE,delta=2
   620  0013' 3000'              	movlw	low(__pbssBANK2)
   621  0014' 0084               	movwf	fsr
   622  0015' 3000'              	movlw	low((__pbssBANK2)+010h)
   623  0016' 120A' 118A' 2000'  	fcall	clear_ram
              120A' 118A'        
   624                           ; Initialize objects allocated to BANK1
   625                           	global __pidataBANK1
   626                           psect cinit,class=CODE,delta=2
   627  001B' 120A' 118A' 2000'  	fcall	__pidataBANK1+0		;fetch initializer
              120A' 118A'        
   628  0020' 0080'              	movwf	__pdataBANK1+0&07fh		
   629                           ; Initialize objects allocated to COMMON
   630                           	global __pidataCOMMON
   631                           psect cinit,class=CODE,delta=2
   632  0021' 120A' 118A' 2000'  	fcall	__pidataCOMMON+0		;fetch initializer
              120A' 118A'        
   633  0026' 0080'              	movwf	__pdataCOMMON+0&07fh		
   634                           psect cinit,class=CODE,delta=2
   635                           global end_of_initialization
   636                           
   637                           ;End of C runtime variable initialization code
   638                           
   639  0027'                    end_of_initialization:
   640  0027' 0183               clrf status
   641  0028' 120A' 118A' 2800'  ljmp _main	;jump to C main() function
   642                           psect	cstackBANK3,class=BANK3,space=1
   643                           global __pcstackBANK3
   644  0000'                    __pcstackBANK3:
   645                           	global	_format_double$5203
   646  0000'                    _format_double$5203:	; 4 bytes @ 0x0
   647  0000'                    	ds	4
   648                           	global	_format_double$3447
   649  0004'                    _format_double$3447:	; 4 bytes @ 0x4
   650  0004'                    	ds	4
   651                           	global	format_double@weight
   652  0008'                    format_double@weight:	; 4 bytes @ 0x8
   653  0008'                    	ds	4
   654                           	global	format_double@digit
   655  000C'                    format_double@digit:	; 2 bytes @ 0xC
   656  000C'                    	ds	2
   657                           	global	format_double@m
   658  000E'                    format_double@m:	; 2 bytes @ 0xE
   659  000E'                    	ds	2
   660                           	global	_measure_capacitance$5204
   661  0010'                    _measure_capacitance$5204:	; 4 bytes @ 0x10
   662  0010'                    	ds	4
   663                           	global	_measure_capacitance$5205
   664  0014'                    _measure_capacitance$5205:	; 4 bytes @ 0x14
   665  0014'                    	ds	4
   666                           	global	measure_capacitance@unit
   667  0018'                    measure_capacitance@unit:	; 1 bytes @ 0x18
   668  0018'                    	ds	1
   669                           	global	measure_capacitance@var
   670  0019'                    measure_capacitance@var:	; 2 bytes @ 0x19
   671  0019'                    	ds	2
   672                           	global	measure_capacitance@Cin
   673  001B'                    measure_capacitance@Cin:	; 4 bytes @ 0x1B
   674  001B'                    	ds	4
   675                           psect	cstackBANK1,class=BANK1,space=1
   676                           global __pcstackBANK1
   677  0000'                    __pcstackBANK1:
   678                           	global	___fladd@sign
   679  0000'                    ___fladd@sign:	; 1 bytes @ 0x0
   680  0000'                    	ds	1
   681                           	global	___fladd@exp2
   682  0001'                    ___fladd@exp2:	; 1 bytes @ 0x1
   683  0001'                    	ds	1
   684                           	global	___fladd@exp1
   685  0002'                    ___fladd@exp1:	; 1 bytes @ 0x2
   686  0002'                    	ds	1
   687                           	global	??_measure_inductance
   688  0003'                    ??_measure_inductance:	; 0 bytes @ 0x3
   689                           	global	?_floor
   690  0003'                    ?_floor:	; 4 bytes @ 0x3
   691                           	global	?_ldexp
   692  0003'                    ?_ldexp:	; 4 bytes @ 0x3
   693                           	global	?___flsub
   694  0003'                    ?___flsub:	; 4 bytes @ 0x3
   695                           	global	floor@x
   696  0003'                    floor@x:	; 4 bytes @ 0x3
   697                           	global	ldexp@value
   698  0003'                    ldexp@value:	; 4 bytes @ 0x3
   699                           	global	___flsub@f2
   700  0003'                    ___flsub@f2:	; 4 bytes @ 0x3
   701  0003'                    	ds	1
   702                           	global	measure_inductance@numerator
   703  0004'                    measure_inductance@numerator:	; 4 bytes @ 0x4
   704  0004'                    	ds	3
   705                           	global	??_floor
   706  0007'                    ??_floor:	; 0 bytes @ 0x7
   707                           	global	ldexp@newexp
   708  0007'                    ldexp@newexp:	; 2 bytes @ 0x7
   709                           	global	___flsub@f1
   710  0007'                    ___flsub@f1:	; 4 bytes @ 0x7
   711  0007'                    	ds	1
   712                           	global	measure_inductance@denominator
   713  0008'                    measure_inductance@denominator:	; 4 bytes @ 0x8
   714                           	global	floor@i
   715  0008'                    floor@i:	; 4 bytes @ 0x8
   716  0008'                    	ds	1
   717                           	global	??_ldexp
   718  0009'                    ??_ldexp:	; 0 bytes @ 0x9
   719  0009'                    	ds	2
   720                           	global	_ldexp$4680
   721  000B'                    _ldexp$4680:	; 4 bytes @ 0xB
   722  000B'                    	ds	1
   723                           	global	floor@expon
   724  000C'                    floor@expon:	; 2 bytes @ 0xC
   725                           	global	_measure_inductance$5208
   726  000C'                    _measure_inductance$5208:	; 4 bytes @ 0xC
   727  000C'                    	ds	3
   728                           	global	?_eval_poly
   729  000F'                    ?_eval_poly:	; 4 bytes @ 0xF
   730                           	global	eval_poly@x
   731  000F'                    eval_poly@x:	; 4 bytes @ 0xF
   732  000F'                    	ds	1
   733                           	global	_measure_inductance$5209
   734  0010'                    _measure_inductance$5209:	; 4 bytes @ 0x10
   735  0010'                    	ds	3
   736                           	global	eval_poly@d
   737  0013'                    eval_poly@d:	; 1 bytes @ 0x13
   738  0013'                    	ds	1
   739                           	global	eval_poly@n
   740  0014'                    eval_poly@n:	; 2 bytes @ 0x14
   741                           	global	_measure_inductance$5210
   742  0014'                    _measure_inductance$5210:	; 4 bytes @ 0x14
   743  0014'                    	ds	2
   744                           	global	??_eval_poly
   745  0016'                    ??_eval_poly:	; 0 bytes @ 0x16
   746  0016'                    	ds	2
   747                           	global	_measure_inductance$5211
   748  0018'                    _measure_inductance$5211:	; 4 bytes @ 0x18
   749  0018'                    	ds	3
   750                           	global	eval_poly@res
   751  001B'                    eval_poly@res:	; 4 bytes @ 0x1B
   752  001B'                    	ds	1
   753                           	global	measure_inductance@unit
   754  001C'                    measure_inductance@unit:	; 1 bytes @ 0x1C
   755  001C'                    	ds	1
   756                           	global	_measure_inductance$5206
   757  001D'                    _measure_inductance$5206:	; 4 bytes @ 0x1D
   758  001D'                    	ds	2
   759                           	global	?_log
   760  001F'                    ?_log:	; 4 bytes @ 0x1F
   761                           	global	log@x
   762  001F'                    log@x:	; 4 bytes @ 0x1F
   763  001F'                    	ds	2
   764                           	global	_measure_inductance$5207
   765  0021'                    _measure_inductance$5207:	; 4 bytes @ 0x21
   766  0021'                    	ds	2
   767                           	global	??_log
   768  0023'                    ??_log:	; 0 bytes @ 0x23
   769  0023'                    	ds	1
   770                           	global	log@exp
   771  0024'                    log@exp:	; 2 bytes @ 0x24
   772  0024'                    	ds	1
   773                           	global	measure_inductance@var
   774  0025'                    measure_inductance@var:	; 2 bytes @ 0x25
   775  0025'                    	ds	1
   776                           	global	?_log10
   777  0026'                    ?_log10:	; 4 bytes @ 0x26
   778                           	global	?_exp
   779  0026'                    ?_exp:	; 4 bytes @ 0x26
   780                           	global	log10@x
   781  0026'                    log10@x:	; 4 bytes @ 0x26
   782                           	global	exp@x
   783  0026'                    exp@x:	; 4 bytes @ 0x26
   784  0026'                    	ds	1
   785                           	global	measure_inductance@Lin
   786  0027'                    measure_inductance@Lin:	; 4 bytes @ 0x27
   787  0027'                    	ds	3
   788                           	global	??_exp
   789  002A'                    ??_exp:	; 0 bytes @ 0x2A
   790                           	global	_log10$5212
   791  002A'                    _log10$5212:	; 4 bytes @ 0x2A
   792  002A'                    	ds	1
   793                           	global	_exp$4864
   794  002B'                    _exp$4864:	; 4 bytes @ 0x2B
   795  002B'                    	ds	4
   796                           	global	exp@exp
   797  002F'                    exp@exp:	; 2 bytes @ 0x2F
   798  002F'                    	ds	2
   799                           	global	exp@sign
   800  0031'                    exp@sign:	; 1 bytes @ 0x31
   801  0031'                    	ds	1
   802                           	global	?_pow
   803  0032'                    ?_pow:	; 4 bytes @ 0x32
   804                           	global	pow@x
   805  0032'                    pow@x:	; 4 bytes @ 0x32
   806  0032'                    	ds	4
   807                           	global	pow@y
   808  0036'                    pow@y:	; 4 bytes @ 0x36
   809  0036'                    	ds	4
   810                           	global	??_pow
   811  003A'                    ??_pow:	; 0 bytes @ 0x3A
   812  003A'                    	ds	1
   813                           	global	_pow$5213
   814  003B'                    _pow$5213:	; 4 bytes @ 0x3B
   815  003B'                    	ds	4
   816                           	global	pow@sign
   817  003F'                    pow@sign:	; 1 bytes @ 0x3F
   818  003F'                    	ds	1
   819                           	global	pow@yi
   820  0040'                    pow@yi:	; 4 bytes @ 0x40
   821  0040'                    	ds	4
   822                           	global	?_format_double
   823  0044'                    ?_format_double:	; 0 bytes @ 0x44
   824                           	global	format_double@num
   825  0044'                    format_double@num:	; 4 bytes @ 0x44
   826  0044'                    	ds	4
   827                           	global	??_format_double
   828  0048'                    ??_format_double:	; 0 bytes @ 0x48
   829  0048'                    	ds	1
   830                           	global	??_measure_capacitance
   831  0049'                    ??_measure_capacitance:	; 0 bytes @ 0x49
   832  0049'                    	ds	1
   833                           	global	??_main
   834  004A'                    ??_main:	; 0 bytes @ 0x4A
   835  004A'                    	ds	1
   836                           psect	cstackCOMMON,class=COMMON,space=1
   837                           global __pcstackCOMMON
   838  0000'                    __pcstackCOMMON:
   839                           	global	?_calibrate
   840  0000'                    ?_calibrate:	; 0 bytes @ 0x0
   841                           	global	?_measure_capacitance
   842  0000'                    ?_measure_capacitance:	; 0 bytes @ 0x0
   843                           	global	?_measure_inductance
   844  0000'                    ?_measure_inductance:	; 0 bytes @ 0x0
   845                           	global	?_print_unit
   846  0000'                    ?_print_unit:	; 0 bytes @ 0x0
   847                           	global	?_indicator
   848  0000'                    ?_indicator:	; 0 bytes @ 0x0
   849                           	global	?_ser_puts
   850  0000'                    ?_ser_puts:	; 0 bytes @ 0x0
   851                           	global	?_ser_init
   852  0000'                    ?_ser_init:	; 0 bytes @ 0x0
   853                           	global	?_timer2_init
   854  0000'                    ?_timer2_init:	; 0 bytes @ 0x0
   855                           	global	??_isr
   856  0000'                    ??_isr:	; 0 bytes @ 0x0
   857                           	global	?_main
   858  0000'                    ?_main:	; 0 bytes @ 0x0
   859                           	global	?_isr
   860  0000'                    ?_isr:	; 2 bytes @ 0x0
   861  0000'                    	ds	5
   862                           psect	cstackBANK0,class=BANK0,space=1
   863                           global __pcstackBANK0
   864  0000'                    __pcstackBANK0:
   865                           	global	??_print_unit
   866  0000'                    ??_print_unit:	; 0 bytes @ 0x0
   867                           	global	?_print_reading
   868  0000'                    ?_print_reading:	; 0 bytes @ 0x0
   869                           	global	??_indicator
   870  0000'                    ??_indicator:	; 0 bytes @ 0x0
   871                           	global	??_ser_init
   872  0000'                    ??_ser_init:	; 0 bytes @ 0x0
   873                           	global	??_timer2_init
   874  0000'                    ??_timer2_init:	; 0 bytes @ 0x0
   875                           	global	?___flge
   876  0000'                    ?___flge:	; 1 bit 
   877                           	global	?_measure_freq
   878  0000'                    ?_measure_freq:	; 2 bytes @ 0x0
   879                           	global	?___wmul
   880  0000'                    ?___wmul:	; 2 bytes @ 0x0
   881                           	global	?___lwdiv
   882  0000'                    ?___lwdiv:	; 2 bytes @ 0x0
   883                           	global	?___lwmod
   884  0000'                    ?___lwmod:	; 2 bytes @ 0x0
   885                           	global	?_frexp
   886  0000'                    ?_frexp:	; 4 bytes @ 0x0
   887                           	global	?___flpack
   888  0000'                    ?___flpack:	; 4 bytes @ 0x0
   889                           	global	print_reading@measurement
   890  0000'                    print_reading@measurement:	; 2 bytes @ 0x0
   891                           	global	___wmul@multiplier
   892  0000'                    ___wmul@multiplier:	; 2 bytes @ 0x0
   893                           	global	___lwdiv@divisor
   894  0000'                    ___lwdiv@divisor:	; 2 bytes @ 0x0
   895                           	global	___lwmod@divisor
   896  0000'                    ___lwmod@divisor:	; 2 bytes @ 0x0
   897                           	global	frexp@value
   898  0000'                    frexp@value:	; 4 bytes @ 0x0
   899                           	global	___flge@ff1
   900  0000'                    ___flge@ff1:	; 4 bytes @ 0x0
   901                           	global	___flpack@arg
   902  0000'                    ___flpack@arg:	; 4 bytes @ 0x0
   903  0000'                    	ds	1
   904                           	global	??_ser_putch
   905  0001'                    ??_ser_putch:	; 0 bytes @ 0x1
   906                           	global	timer2_init@ps_mode
   907  0001'                    timer2_init@ps_mode:	; 1 bytes @ 0x1
   908  0001'                    	ds	1
   909                           	global	??_print_reading
   910  0002'                    ??_print_reading:	; 0 bytes @ 0x2
   911                           	global	??_ser_puts
   912  0002'                    ??_ser_puts:	; 0 bytes @ 0x2
   913                           	global	??_measure_freq
   914  0002'                    ??_measure_freq:	; 0 bytes @ 0x2
   915                           	global	timer2_init@ps
   916  0002'                    timer2_init@ps:	; 1 bytes @ 0x2
   917                           	global	___wmul@multiplicand
   918  0002'                    ___wmul@multiplicand:	; 2 bytes @ 0x2
   919                           	global	___lwdiv@dividend
   920  0002'                    ___lwdiv@dividend:	; 2 bytes @ 0x2
   921                           	global	___lwmod@dividend
   922  0002'                    ___lwmod@dividend:	; 2 bytes @ 0x2
   923  0002'                    	ds	1
   924                           	global	??_format_putchar
   925  0003'                    ??_format_putchar:	; 0 bytes @ 0x3
   926                           	global	ser_puts@s
   927  0003'                    ser_puts@s:	; 1 bytes @ 0x3
   928                           	global	timer2_init@postscaler
   929  0003'                    timer2_init@postscaler:	; 1 bytes @ 0x3
   930  0003'                    	ds	1
   931                           	global	?_ser_putch
   932  0004'                    ?_ser_putch:	; 0 bytes @ 0x4
   933                           	global	?_format_putchar
   934  0004'                    ?_format_putchar:	; 0 bytes @ 0x4
   935                           	global	?_output_putch
   936  0004'                    ?_output_putch:	; 0 bytes @ 0x4
   937                           	global	??___wmul
   938  0004'                    ??___wmul:	; 0 bytes @ 0x4
   939                           	global	??___lwdiv
   940  0004'                    ??___lwdiv:	; 0 bytes @ 0x4
   941                           	global	??___lwmod
   942  0004'                    ??___lwmod:	; 0 bytes @ 0x4
   943                           	global	ser_putch@c
   944  0004'                    ser_putch@c:	; 1 bytes @ 0x4
   945                           	global	format_putchar@c
   946  0004'                    format_putchar@c:	; 1 bytes @ 0x4
   947                           	global	output_putch@c
   948  0004'                    output_putch@c:	; 1 bytes @ 0x4
   949                           	global	frexp@eptr
   950  0004'                    frexp@eptr:	; 1 bytes @ 0x4
   951                           	global	___flpack@exp
   952  0004'                    ___flpack@exp:	; 1 bytes @ 0x4
   953                           	global	___wmul@product
   954  0004'                    ___wmul@product:	; 2 bytes @ 0x4
   955                           	global	___flge@ff2
   956  0004'                    ___flge@ff2:	; 4 bytes @ 0x4
   957  0004'                    	ds	1
   958                           	global	??_frexp
   959  0005'                    ??_frexp:	; 0 bytes @ 0x5
   960                           	global	??_output_putch
   961  0005'                    ??_output_putch:	; 0 bytes @ 0x5
   962                           	global	___lwdiv@counter
   963  0005'                    ___lwdiv@counter:	; 1 bytes @ 0x5
   964                           	global	___lwmod@counter
   965  0005'                    ___lwmod@counter:	; 1 bytes @ 0x5
   966                           	global	___flpack@sign
   967  0005'                    ___flpack@sign:	; 1 bytes @ 0x5
   968  0005'                    	ds	1
   969                           	global	?_delay10ms
   970  0006'                    ?_delay10ms:	; 0 bytes @ 0x6
   971                           	global	??___flpack
   972  0006'                    ??___flpack:	; 0 bytes @ 0x6
   973                           	global	delay10ms@period_10ms
   974  0006'                    delay10ms@period_10ms:	; 2 bytes @ 0x6
   975                           	global	___lwdiv@quotient
   976  0006'                    ___lwdiv@quotient:	; 2 bytes @ 0x6
   977  0006'                    	ds	2
   978                           	global	??_delay10ms
   979  0008'                    ??_delay10ms:	; 0 bytes @ 0x8
   980                           	global	?_format_number
   981  0008'                    ?_format_number:	; 0 bytes @ 0x8
   982                           	global	??___flge
   983  0008'                    ??___flge:	; 0 bytes @ 0x8
   984                           	global	measure_freq@prev
   985  0008'                    measure_freq@prev:	; 1 bytes @ 0x8
   986                           	global	format_number@n
   987  0008'                    format_number@n:	; 2 bytes @ 0x8
   988  0008'                    	ds	1
   989                           	global	measure_freq@i
   990  0009'                    measure_freq@i:	; 1 bytes @ 0x9
   991  0009'                    	ds	1
   992                           	global	?___flneg
   993  000A'                    ?___flneg:	; 4 bytes @ 0xA
   994                           	global	?___lltofl
   995  000A'                    ?___lltofl:	; 4 bytes @ 0xA
   996                           	global	format_number@base
   997  000A'                    format_number@base:	; 1 bytes @ 0xA
   998                           	global	measure_freq@count
   999  000A'                    measure_freq@count:	; 2 bytes @ 0xA
  1000                           	global	___flneg@f1
  1001  000A'                    ___flneg@f1:	; 4 bytes @ 0xA
  1002                           	global	___lltofl@c
  1003  000A'                    ___lltofl@c:	; 4 bytes @ 0xA
  1004  000A'                    	ds	1
  1005                           	global	format_number@pad
  1006  000B'                    format_number@pad:	; 1 bytes @ 0xB
  1007  000B'                    	ds	1
  1008                           	global	??_format_number
  1009  000C'                    ??_format_number:	; 0 bytes @ 0xC
  1010                           	global	?___lwtofl
  1011  000C'                    ?___lwtofl:	; 4 bytes @ 0xC
  1012                           	global	___lwtofl@c
  1013  000C'                    ___lwtofl@c:	; 2 bytes @ 0xC
  1014                           	global	delay10ms@ms
  1015  000C'                    delay10ms@ms:	; 4 bytes @ 0xC
  1016  000C'                    	ds	2
  1017                           	global	??___flneg
  1018  000E'                    ??___flneg:	; 0 bytes @ 0xE
  1019                           	global	??___lltofl
  1020  000E'                    ??___lltofl:	; 0 bytes @ 0xE
  1021  000E'                    	ds	1
  1022                           	global	format_number@buf
  1023  000F'                    format_number@buf:	; 32 bytes @ 0xF
  1024  000F'                    	ds	1
  1025                           	global	??___lwtofl
  1026  0010'                    ??___lwtofl:	; 0 bytes @ 0x10
  1027                           	global	?___fltol
  1028  0010'                    ?___fltol:	; 4 bytes @ 0x10
  1029                           	global	delay10ms@run
  1030  0010'                    delay10ms@run:	; 1 bytes @ 0x10
  1031                           	global	___fltol@f1
  1032  0010'                    ___fltol@f1:	; 4 bytes @ 0x10
  1033  0010'                    	ds	1
  1034                           	global	??_calibrate
  1035  0011'                    ??_calibrate:	; 0 bytes @ 0x11
  1036  0011'                    	ds	3
  1037                           	global	??___fltol
  1038  0014'                    ??___fltol:	; 0 bytes @ 0x14
  1039  0014'                    	ds	5
  1040                           	global	___fltol@sign1
  1041  0019'                    ___fltol@sign1:	; 1 bytes @ 0x19
  1042  0019'                    	ds	1
  1043                           	global	___fltol@exp1
  1044  001A'                    ___fltol@exp1:	; 1 bytes @ 0x1A
  1045  001A'                    	ds	1
  1046                           	global	?___fldiv
  1047  001B'                    ?___fldiv:	; 4 bytes @ 0x1B
  1048                           	global	?___awtofl
  1049  001B'                    ?___awtofl:	; 4 bytes @ 0x1B
  1050                           	global	?___altofl
  1051  001B'                    ?___altofl:	; 4 bytes @ 0x1B
  1052                           	global	___awtofl@c
  1053  001B'                    ___awtofl@c:	; 2 bytes @ 0x1B
  1054                           	global	___fldiv@f2
  1055  001B'                    ___fldiv@f2:	; 4 bytes @ 0x1B
  1056                           	global	___altofl@c
  1057  001B'                    ___altofl@c:	; 4 bytes @ 0x1B
  1058  001B'                    	ds	4
  1059                           	global	??___awtofl
  1060  001F'                    ??___awtofl:	; 0 bytes @ 0x1F
  1061                           	global	??___altofl
  1062  001F'                    ??___altofl:	; 0 bytes @ 0x1F
  1063                           	global	___fldiv@f1
  1064  001F'                    ___fldiv@f1:	; 4 bytes @ 0x1F
  1065  001F'                    	ds	2
  1066                           	global	___awtofl@sign
  1067  0021'                    ___awtofl@sign:	; 1 bytes @ 0x21
  1068                           	global	___altofl@sign
  1069  0021'                    ___altofl@sign:	; 1 bytes @ 0x21
  1070  0021'                    	ds	2
  1071                           	global	??___fldiv
  1072  0023'                    ??___fldiv:	; 0 bytes @ 0x23
  1073  0023'                    	ds	5
  1074                           	global	___fldiv@f3
  1075  0028'                    ___fldiv@f3:	; 4 bytes @ 0x28
  1076  0028'                    	ds	4
  1077                           	global	___fldiv@cntr
  1078  002C'                    ___fldiv@cntr:	; 1 bytes @ 0x2C
  1079  002C'                    	ds	1
  1080                           	global	___fldiv@exp
  1081  002D'                    ___fldiv@exp:	; 1 bytes @ 0x2D
  1082  002D'                    	ds	1
  1083                           	global	___fldiv@sign
  1084  002E'                    ___fldiv@sign:	; 1 bytes @ 0x2E
  1085  002E'                    	ds	1
  1086                           	global	?___flmul
  1087  002F'                    ?___flmul:	; 4 bytes @ 0x2F
  1088                           	global	_format_number$3434
  1089  002F'                    _format_number$3434:	; 2 bytes @ 0x2F
  1090                           	global	___flmul@f1
  1091  002F'                    ___flmul@f1:	; 4 bytes @ 0x2F
  1092  002F'                    	ds	2
  1093                           	global	format_number@padchar
  1094  0031'                    format_number@padchar:	; 1 bytes @ 0x31
  1095  0031'                    	ds	1
  1096                           	global	format_number@di
  1097  0032'                    format_number@di:	; 1 bytes @ 0x32
  1098  0032'                    	ds	1
  1099                           	global	format_number@i
  1100  0033'                    format_number@i:	; 1 bytes @ 0x33
  1101                           	global	___flmul@f2
  1102  0033'                    ___flmul@f2:	; 4 bytes @ 0x33
  1103  0033'                    	ds	1
  1104                           	global	?_format_xint32
  1105  0034'                    ?_format_xint32:	; 0 bytes @ 0x34
  1106                           	global	format_xint32@x
  1107  0034'                    format_xint32@x:	; 4 bytes @ 0x34
  1108  0034'                    	ds	3
  1109                           	global	??___flmul
  1110  0037'                    ??___flmul:	; 0 bytes @ 0x37
  1111  0037'                    	ds	1
  1112                           	global	??_format_xint32
  1113  0038'                    ??_format_xint32:	; 0 bytes @ 0x38
  1114  0038'                    	ds	4
  1115                           	global	___flmul@exp
  1116  003C'                    ___flmul@exp:	; 1 bytes @ 0x3C
  1117  003C'                    	ds	1
  1118                           	global	___flmul@f3_as_product
  1119  003D'                    ___flmul@f3_as_product:	; 4 bytes @ 0x3D
  1120  003D'                    	ds	4
  1121                           	global	___flmul@cntr
  1122  0041'                    ___flmul@cntr:	; 1 bytes @ 0x41
  1123  0041'                    	ds	1
  1124                           	global	___flmul@sign
  1125  0042'                    ___flmul@sign:	; 1 bytes @ 0x42
  1126  0042'                    	ds	1
  1127                           	global	?___fladd
  1128  0043'                    ?___fladd:	; 4 bytes @ 0x43
  1129                           	global	___fladd@f1
  1130  0043'                    ___fladd@f1:	; 4 bytes @ 0x43
  1131  0043'                    	ds	4
  1132                           	global	___fladd@f2
  1133  0047'                    ___fladd@f2:	; 4 bytes @ 0x47
  1134  0047'                    	ds	4
  1135                           	global	??___fladd
  1136  004B'                    ??___fladd:	; 0 bytes @ 0x4B
  1137  004B'                    	ds	5
  1138                           	global	??_log10
  1139  0050'                    ??_log10:	; 0 bytes @ 0x50
  1140                           	global	??___flsub
  1141  0050'                    ??___flsub:	; 0 bytes @ 0x50
  1142 ;;Data sizes: Strings 42, constant 76, data 2, bss 68, persistent 8 stack 0
  1143 ;;Auto spaces:   Size  Autos    Used
  1144 ;; COMMON          14      5      10
  1145 ;; BANK0           80     80      80
  1146 ;; BANK1           80     75      80
  1147 ;; BANK3           96     31      83
  1148 ;; BANK2           96      0      16
  1149                           
  1150 ;;
  1151 ;; Pointer list with targets:
  1152                           
  1153 ;; ?___flpack	 size(1) Largest target is 0
  1154 ;;
  1155 ;; ?_ldexp	 size(1) Largest target is 0
  1156 ;;
  1157 ;; ?_exp	 size(1) Largest target is 0
  1158 ;;
  1159 ;; ?___lltofl	 size(1) Largest target is 0
  1160 ;;
  1161 ;; ?_log	 size(1) Largest target is 0
  1162 ;;
  1163 ;; ?_eval_poly	 size(1) Largest target is 0
  1164 ;;
  1165 ;; ?___altofl	 size(1) Largest target is 0
  1166 ;;
  1167 ;; ?_frexp	 size(1) Largest target is 0
  1168 ;;
  1169 ;; ?___wmul	unsigned int  size(1) Largest target is 0
  1170 ;;
  1171 ;; ?___fladd	unsigned int  size(1) Largest target is 0
  1172 ;;
  1173 ;; ?___flneg	unsigned int  size(1) Largest target is 0
  1174 ;;
  1175 ;; ?___lwtofl	unsigned int  size(1) Largest target is 0
  1176 ;;
  1177 ;; ?_measure_freq	unsigned int  size(1) Largest target is 0
  1178 ;;
  1179 ;; ?___flsub	unsigned int  size(1) Largest target is 0
  1180 ;;
  1181 ;; ?___flmul	unsigned int  size(1) Largest target is 0
  1182 ;;
  1183 ;; ?___fldiv	unsigned int  size(1) Largest target is 0
  1184 ;;
  1185 ;; ?_floor	unsigned int  size(1) Largest target is 0
  1186 ;;
  1187 ;; ?___awtofl	unsigned int  size(1) Largest target is 0
  1188 ;;
  1189 ;; ?_pow	unsigned int  size(1) Largest target is 0
  1190 ;;
  1191 ;; ?___fltol	long  size(1) Largest target is 0
  1192 ;;
  1193 ;; ?_log10	long  size(1) Largest target is 0
  1194 ;;
  1195 ;; ?___lwdiv	unsigned int  size(1) Largest target is 0
  1196 ;;
  1197 ;; ?___lwmod	unsigned int  size(1) Largest target is 0
  1198 ;;
  1199 ;; eval_poly@d	PTR const  size(1) Largest target is 40
  1200 ;;		 -> exp@coeff(CODE[40]), log@coeff(CODE[36]), 
  1201 ;;
  1202 ;; frexp@eptr	PTR int  size(1) Largest target is 2
  1203 ;;		 -> log@exp(BANK1[2]), floor@expon(BANK1[2]), 
  1204 ;;
  1205 ;; putchar_ptr	PTR FTN(unsigned char ,)void  size(1) Largest target is 0
  1206 ;;		 -> output_putch(), format_putchar(), ser_putch(), 
  1207 ;;
  1208 ;; ser_puts@s	PTR const unsigned char  size(1) Largest target is 8
  1209 ;;		 -> STR_11(CODE[3]), STR_10(CODE[5]), STR_9(CODE[3]), STR_8(CODE[8]), 
  1210 ;;		 -> STR_7(CODE[6]), STR_6(CODE[6]), STR_5(CODE[6]), STR_4(CODE[5]), 
  1211 ;;		 -> STR_3(CODE[3]), STR_2(CODE[3]), STR_1(CODE[6]), 
  1212 ;;
  1213                           
  1214                           
  1215 ;;
  1216 ;; Critical Paths under _main in COMMON
  1217 ;;
  1218 ;;   None.
  1219 ;;
  1220 ;; Critical Paths under _isr in COMMON
  1221 ;;
  1222 ;;   None.
  1223 ;;
  1224 ;; Critical Paths under _main in BANK0
  1225 ;;
  1226 ;;   _measure_capacitance->___fladd
  1227 ;;   _log->___fladd
  1228 ;;   _format_xint32->_format_number
  1229 ;;   ___flsub->___fladd
  1230 ;;   _eval_poly->___fladd
  1231 ;;   _measure_inductance->___fladd
  1232 ;;   _calibrate->___lwtofl
  1233 ;;   _calibrate->_delay10ms
  1234 ;;   _floor->___fladd
  1235 ;;   _format_number->___lwdiv
  1236 ;;   ___lltofl->___flpack
  1237 ;;   ___altofl->___fltol
  1238 ;;   ___lwtofl->_measure_freq
  1239 ;;   ___awtofl->___fltol
  1240 ;;   ___flmul->___fldiv
  1241 ;;   ___fldiv->___fltol
  1242 ;;   ___fladd->___flmul
  1243 ;;   _ldexp->___fladd
  1244 ;;   _delay10ms->___wmul
  1245 ;;   ___fltol->___flge
  1246 ;;   ___flneg->___flpack
  1247 ;;
  1248 ;; Critical Paths under _isr in BANK0
  1249 ;;
  1250 ;;   None.
  1251 ;;
  1252 ;; Critical Paths under _main in BANK1
  1253 ;;
  1254 ;;   _main->_measure_capacitance
  1255 ;;   _measure_capacitance->_format_double
  1256 ;;   _format_double->_pow
  1257 ;;   _pow->_exp
  1258 ;;   _log10->_log
  1259 ;;   _exp->_log
  1260 ;;   _log->_eval_poly
  1261 ;;   ___flsub->___fladd
  1262 ;;   _eval_poly->_ldexp
  1263 ;;   _measure_inductance->___fladd
  1264 ;;   _floor->___fladd
  1265 ;;   _ldexp->___fladd
  1266 ;;
  1267 ;; Critical Paths under _isr in BANK1
  1268 ;;
  1269 ;;   None.
  1270 ;;
  1271 ;; Critical Paths under _main in BANK3
  1272 ;;
  1273 ;;   _main->_measure_capacitance
  1274 ;;   _measure_capacitance->_format_double
  1275 ;;
  1276 ;; Critical Paths under _isr in BANK3
  1277 ;;
  1278 ;;   None.
  1279 ;;
  1280 ;; Critical Paths under _main in BANK2
  1281 ;;
  1282 ;;   None.
  1283 ;;
  1284 ;; Critical Paths under _isr in BANK2
  1285 ;;
  1286 ;;   None.
  1287                           
  1288 ;;
  1289 ;;Main: autosize = 0, tempsize = 1, incstack = 0, save=0
  1290 ;;
  1291                           
  1292 ;;
  1293 ;;Call Graph Tables:
  1294 ;;
  1295 ;; ---------------------------------------------------------------------------------
  1296 ;; (Depth) Function   	        Calls       Base Space   Used Autos Params    Refs
  1297 ;; ---------------------------------------------------------------------------------
  1298 ;; (0) _main                                                 1     1      0   45847
  1299 ;;                                             74 BANK1      1     1      0
  1300 ;;                        _timer2_init
  1301 ;;                          _delay10ms
  1302 ;;                           _ser_init
  1303 ;;                          _calibrate
  1304 ;;                           _ser_puts
  1305 ;;                _measure_capacitance
  1306 ;;                 _measure_inductance
  1307 ;;                          _indicator
  1308 ;; ---------------------------------------------------------------------------------
  1309 ;; (1) _measure_capacitance                                 16    16      0   39448
  1310 ;;                                             73 BANK1      1     1      0
  1311 ;;                                             16 BANK3     15    15      0
  1312 ;;                       _measure_freq
  1313 ;;                           ___lwtofl
  1314 ;;                           _ser_puts
  1315 ;;                      _format_xint32
  1316 ;;                      _format_double
  1317 ;;                          _ser_putch
  1318 ;;                             ___flge
  1319 ;;                            ___flmul
  1320 ;;                            ___flneg
  1321 ;;                            ___fladd
  1322 ;;                            ___fldiv
  1323 ;;                            ___fltol
  1324 ;;                      _print_reading
  1325 ;;                         _print_unit
  1326 ;; ---------------------------------------------------------------------------------
  1327 ;; (2) _format_double                                       21    17      4   33332
  1328 ;;                                             68 BANK1      5     1      4
  1329 ;;                                              0 BANK3     16    16      0
  1330 ;;                              _log10
  1331 ;;                            ___fltol
  1332 ;;                           ___awtofl
  1333 ;;                                _pow
  1334 ;;                            ___fldiv
  1335 ;;                              _floor
  1336 ;;                            ___flmul
  1337 ;;                            ___flsub
  1338 ;;                       _output_putch
  1339 ;;                     _format_putchar
  1340 ;;                          _ser_putch
  1341 ;;                             ___flge
  1342 ;; ---------------------------------------------------------------------------------
  1343 ;; (3) _pow                                                 18    10      8   18919
  1344 ;;                                             50 BANK1     18    10      8
  1345 ;;                             ___flge
  1346 ;;                            ___fltol
  1347 ;;                           ___lltofl
  1348 ;;                            ___flneg
  1349 ;;                                _log
  1350 ;;                            ___flmul
  1351 ;;                                _exp
  1352 ;; ---------------------------------------------------------------------------------
  1353 ;; (3) _log10                                                8     4      4    6946
  1354 ;;                                             38 BANK1      8     4      4
  1355 ;;                                _log
  1356 ;;                            ___flmul
  1357 ;;                            ___fltol (ARG)
  1358 ;; ---------------------------------------------------------------------------------
  1359 ;; (4) _exp                                                 12     8      4   10782
  1360 ;;                                             38 BANK1     12     8      4
  1361 ;;                             ___flge
  1362 ;;                            ___flneg
  1363 ;;                            ___flmul
  1364 ;;                              _floor
  1365 ;;                            ___fltol
  1366 ;;                           ___awtofl
  1367 ;;                            ___flsub
  1368 ;;                          _eval_poly
  1369 ;;                              _ldexp
  1370 ;;                            ___fldiv
  1371 ;;                                _log (ARG)
  1372 ;; ---------------------------------------------------------------------------------
  1373 ;; (4) _log                                                  7     3      4    6081
  1374 ;;                                             31 BANK1      7     3      4
  1375 ;;                             ___flge
  1376 ;;                              _frexp
  1377 ;;                            ___flmul
  1378 ;;                            ___fladd
  1379 ;;                          _eval_poly
  1380 ;;                           ___awtofl
  1381 ;;                            ___fltol (ARG)
  1382 ;; ---------------------------------------------------------------------------------
  1383 ;; (2) _format_xint32                                       10     6      4    1380
  1384 ;;                                             52 BANK0     10     6      4
  1385 ;;                       _output_putch
  1386 ;;                     _format_putchar
  1387 ;;                          _ser_putch
  1388 ;;                      _format_number
  1389 ;; ---------------------------------------------------------------------------------
  1390 ;; (3) ___flsub                                              8     0      8    1602
  1391 ;;                                              3 BANK1      8     0      8
  1392 ;;                            ___fladd
  1393 ;;                            ___flmul (ARG)
  1394 ;;                           ___awtofl (ARG)
  1395 ;; ---------------------------------------------------------------------------------
  1396 ;; (5) _eval_poly                                           16     9      7    2591
  1397 ;;                                             15 BANK1     16     9      7
  1398 ;;                            ___flmul
  1399 ;;                            ___fladd
  1400 ;;                            ___fltol (ARG)
  1401 ;;                              _ldexp (ARG)
  1402 ;; ---------------------------------------------------------------------------------
  1403 ;; (1) _measure_inductance                                  48    48      0    4924
  1404 ;;                                              3 BANK1     40    40      0
  1405 ;;                       _measure_freq
  1406 ;;                           ___lwtofl
  1407 ;;                             ___flge
  1408 ;;                            ___flneg
  1409 ;;                            ___fladd
  1410 ;;                            ___flmul
  1411 ;;                            ___fldiv
  1412 ;;                            ___fltol
  1413 ;;                      _print_reading
  1414 ;;                         _print_unit
  1415 ;; ---------------------------------------------------------------------------------
  1416 ;; (1) _calibrate                                            1     1      0     915
  1417 ;;                       _measure_freq
  1418 ;;                           ___lwtofl
  1419 ;;                          _delay10ms
  1420 ;;                           _ser_puts
  1421 ;; ---------------------------------------------------------------------------------
  1422 ;; (3) _floor                                               11     7      4    3037
  1423 ;;                                              3 BANK1     11     7      4
  1424 ;;                              _frexp
  1425 ;;                             ___flge
  1426 ;;                            ___fltol
  1427 ;;                           ___altofl
  1428 ;;                            ___fladd
  1429 ;;                            ___fldiv (ARG)
  1430 ;; ---------------------------------------------------------------------------------
  1431 ;; (3) _format_number                                       44    40      4    1225
  1432 ;;                                              8 BANK0     44    40      4
  1433 ;;                            ___lwmod
  1434 ;;                            ___lwdiv
  1435 ;;                       _output_putch
  1436 ;;                     _format_putchar
  1437 ;;                          _ser_putch
  1438 ;; ---------------------------------------------------------------------------------
  1439 ;; (4) ___lltofl                                             5     1      4     343
  1440 ;;                                             10 BANK0      5     1      4
  1441 ;;                           ___flpack
  1442 ;; ---------------------------------------------------------------------------------
  1443 ;; (4) ___altofl                                             7     3      4     445
  1444 ;;                                             27 BANK0      7     3      4
  1445 ;;                           ___flpack
  1446 ;;                            ___fltol (ARG)
  1447 ;; ---------------------------------------------------------------------------------
  1448 ;; (2) ___lwtofl                                             5     1      4     343
  1449 ;;                                             12 BANK0      5     1      4
  1450 ;;                           ___flpack
  1451 ;;                       _measure_freq (ARG)
  1452 ;; ---------------------------------------------------------------------------------
  1453 ;; (5) ___awtofl                                            11     7      4     445
  1454 ;;                                             27 BANK0      7     3      4
  1455 ;;                           ___flpack
  1456 ;;                            ___fltol (ARG)
  1457 ;; ---------------------------------------------------------------------------------
  1458 ;; (2) ___flmul                                             20    12      8     800
  1459 ;;                                             47 BANK0     20    12      8
  1460 ;;                           ___flpack
  1461 ;;                            ___flneg (ARG)
  1462 ;;                            ___fltol (ARG)
  1463 ;;                           ___awtofl (ARG)
  1464 ;;                              _frexp (ARG)
  1465 ;;                            ___fldiv (ARG)
  1466 ;; ---------------------------------------------------------------------------------
  1467 ;; (2) ___fldiv                                             20    12      8     729
  1468 ;;                                             27 BANK0     20    12      8
  1469 ;;                           ___flpack
  1470 ;;                            ___fltol (ARG)
  1471 ;; ---------------------------------------------------------------------------------
  1472 ;; (2) ___fladd                                             16     8      8    1537
  1473 ;;                                             67 BANK0     13     5      8
  1474 ;;                                              0 BANK1      3     3      0
  1475 ;;                           ___flpack
  1476 ;;                            ___flneg (ARG)
  1477 ;;                            ___flmul (ARG)
  1478 ;;                            ___fltol (ARG)
  1479 ;;                              _frexp (ARG)
  1480 ;;                           ___awtofl (ARG)
  1481 ;; ---------------------------------------------------------------------------------
  1482 ;; (5) _ldexp                                               12     6      6     597
  1483 ;;                                              3 BANK1     12     6      6
  1484 ;;                             ___flge
  1485 ;;                            ___flneg
  1486 ;;                            ___flmul (ARG)
  1487 ;;                            ___fladd (ARG)
  1488 ;; ---------------------------------------------------------------------------------
  1489 ;; (2) _measure_freq                                        12    10      2     235
  1490 ;;                                              0 BANK0     12    10      2
  1491 ;; ---------------------------------------------------------------------------------
  1492 ;; (2) _delay10ms                                           11     9      2     241
  1493 ;;                                              6 BANK0     11     9      2
  1494 ;;                             ___wmul
  1495 ;; ---------------------------------------------------------------------------------
  1496 ;; (3) _output_putch                                         2     1      1      62
  1497 ;;                                              4 BANK0      2     1      1
  1498 ;;                          _ser_putch
  1499 ;; ---------------------------------------------------------------------------------
  1500 ;; (2) _ser_puts                                             2     2      0      96
  1501 ;;                                              2 BANK0      2     2      0
  1502 ;;                          _ser_putch
  1503 ;; ---------------------------------------------------------------------------------
  1504 ;; (2) ___flge                                              16     8      8     136
  1505 ;;                                              0 BANK0     16     8      8
  1506 ;; ---------------------------------------------------------------------------------
  1507 ;; (2) ___fltol                                             11     7      4     229
  1508 ;;                                             16 BANK0     11     7      4
  1509 ;;                             ___flge (ARG)
  1510 ;;                              _frexp (ARG)
  1511 ;;                           ___flpack (ARG)
  1512 ;; ---------------------------------------------------------------------------------
  1513 ;; (2) ___flneg                                              4     0      4      65
  1514 ;;                                             10 BANK0      4     0      4
  1515 ;;                           ___flpack (ARG)
  1516 ;; ---------------------------------------------------------------------------------
  1517 ;; (3) ___flpack                                            10     4      6     312
  1518 ;;                                              0 BANK0     10     4      6
  1519 ;; ---------------------------------------------------------------------------------
  1520 ;; (4) ___lwmod                                              6     2      4     232
  1521 ;;                                              0 BANK0      6     2      4
  1522 ;; ---------------------------------------------------------------------------------
  1523 ;; (4) ___lwdiv                                              8     4      4     241
  1524 ;;                                              0 BANK0      8     4      4
  1525 ;; ---------------------------------------------------------------------------------
  1526 ;; (3) ___wmul                                               6     2      4     136
  1527 ;;                                              0 BANK0      6     2      4
  1528 ;; ---------------------------------------------------------------------------------
  1529 ;; (4) _frexp                                                7     2      5     322
  1530 ;;                                              0 BANK0      7     2      5
  1531 ;; ---------------------------------------------------------------------------------
  1532 ;; (3) _format_putchar                                       1     0      1       0
  1533 ;;                                              4 BANK0      1     0      1
  1534 ;; ---------------------------------------------------------------------------------
  1535 ;; (1) _timer2_init                                          4     4      0     223
  1536 ;;                                              0 BANK0      4     4      0
  1537 ;; ---------------------------------------------------------------------------------
  1538 ;; (1) _ser_init                                             1     1      0       0
  1539 ;;                                              0 BANK0      1     1      0
  1540 ;; ---------------------------------------------------------------------------------
  1541 ;; (2) _ser_putch                                            2     1      1      31
  1542 ;;                                              4 BANK0      2     1      1
  1543 ;; ---------------------------------------------------------------------------------
  1544 ;; (1) _indicator                                            0     0      0       0
  1545 ;; ---------------------------------------------------------------------------------
  1546 ;; (2) _print_reading                                        2     0      2       0
  1547 ;;                                              0 BANK0      2     0      2
  1548 ;; ---------------------------------------------------------------------------------
  1549 ;; (2) _print_unit                                           0     0      0       0
  1550 ;; ---------------------------------------------------------------------------------
  1551 ;; Estimated maximum stack depth 5
  1552 ;; ---------------------------------------------------------------------------------
  1553 ;; (Depth) Function   	        Calls       Base Space   Used Autos Params    Refs
  1554 ;; ---------------------------------------------------------------------------------
  1555 ;; (8) _isr                                                  5     5      0       0
  1556 ;;                                              0 COMMON     5     5      0
  1557 ;; ---------------------------------------------------------------------------------
  1558 ;; Estimated maximum stack depth 8
  1559 ;; ---------------------------------------------------------------------------------
  1560                           
  1561 ;; Call Graph Graphs:
  1562                           
  1563 ;; _main (ROOT)
  1564 ;;   _timer2_init
  1565 ;;   _delay10ms
  1566 ;;     ___wmul
  1567 ;;   _ser_init
  1568 ;;   _calibrate
  1569 ;;     _measure_freq
  1570 ;;     ___lwtofl
  1571 ;;       ___flpack
  1572 ;;       _measure_freq (ARG)
  1573 ;;     _delay10ms
  1574 ;;       ___wmul
  1575 ;;     _ser_puts
  1576 ;;       _ser_putch
  1577 ;;   _ser_puts
  1578 ;;     _ser_putch
  1579 ;;   _measure_capacitance
  1580 ;;     _measure_freq
  1581 ;;     ___lwtofl
  1582 ;;       ___flpack
  1583 ;;       _measure_freq (ARG)
  1584 ;;     _ser_puts
  1585 ;;       _ser_putch
  1586 ;;     _format_xint32
  1587 ;;       _output_putch
  1588 ;;         _ser_putch
  1589 ;;       _format_putchar
  1590 ;;       _ser_putch
  1591 ;;       _format_number
  1592 ;;         ___lwmod
  1593 ;;         ___lwdiv
  1594 ;;         _output_putch
  1595 ;;           _ser_putch
  1596 ;;         _format_putchar
  1597 ;;         _ser_putch
  1598 ;;     _format_double
  1599 ;;       _log10
  1600 ;;         _log
  1601 ;;           ___flge
  1602 ;;           _frexp
  1603 ;;           ___flmul
  1604 ;;             ___flpack
  1605 ;;             ___flneg (ARG)
  1606 ;;               ___flpack (ARG)
  1607 ;;             ___fltol (ARG)
  1608 ;;               ___flge (ARG)
  1609 ;;               _frexp (ARG)
  1610 ;;               ___flpack (ARG)
  1611 ;;             ___awtofl (ARG)
  1612 ;;               ___flpack
  1613 ;;               ___fltol (ARG)
  1614 ;;                 ___flge (ARG)
  1615 ;;                 _frexp (ARG)
  1616 ;;                 ___flpack (ARG)
  1617 ;;             _frexp (ARG)
  1618 ;;             ___fldiv (ARG)
  1619 ;;               ___flpack
  1620 ;;               ___fltol (ARG)
  1621 ;;                 ___flge (ARG)
  1622 ;;                 _frexp (ARG)
  1623 ;;                 ___flpack (ARG)
  1624 ;;           ___fladd
  1625 ;;             ___flpack
  1626 ;;             ___flneg (ARG)
  1627 ;;               ___flpack (ARG)
  1628 ;;             ___flmul (ARG)
  1629 ;;               ___flpack
  1630 ;;               ___flneg (ARG)
  1631 ;;                 ___flpack (ARG)
  1632 ;;               ___fltol (ARG)
  1633 ;;                 ___flge (ARG)
  1634 ;;                 _frexp (ARG)
  1635 ;;                 ___flpack (ARG)
  1636 ;;               ___awtofl (ARG)
  1637 ;;                 ___flpack
  1638 ;;                 ___fltol (ARG)
  1639 ;;                   ___flge (ARG)
  1640 ;;                   _frexp (ARG)
  1641 ;;                   ___flpack (ARG)
  1642 ;;               _frexp (ARG)
  1643 ;;               ___fldiv (ARG)
  1644 ;;                 ___flpack
  1645 ;;                 ___fltol (ARG)
  1646 ;;                   ___flge (ARG)
  1647 ;;                   _frexp (ARG)
  1648 ;;                   ___flpack (ARG)
  1649 ;;             ___fltol (ARG)
  1650 ;;               ___flge (ARG)
  1651 ;;               _frexp (ARG)
  1652 ;;               ___flpack (ARG)
  1653 ;;             _frexp (ARG)
  1654 ;;             ___awtofl (ARG)
  1655 ;;               ___flpack
  1656 ;;               ___fltol (ARG)
  1657 ;;                 ___flge (ARG)
  1658 ;;                 _frexp (ARG)
  1659 ;;                 ___flpack (ARG)
  1660 ;;           _eval_poly
  1661 ;;             ___flmul
  1662 ;;               ___flpack
  1663 ;;               ___flneg (ARG)
  1664 ;;                 ___flpack (ARG)
  1665 ;;               ___fltol (ARG)
  1666 ;;                 ___flge (ARG)
  1667 ;;                 _frexp (ARG)
  1668 ;;                 ___flpack (ARG)
  1669 ;;               ___awtofl (ARG)
  1670 ;;                 ___flpack
  1671 ;;                 ___fltol (ARG)
  1672 ;;                   ___flge (ARG)
  1673 ;;                   _frexp (ARG)
  1674 ;;                   ___flpack (ARG)
  1675 ;;               _frexp (ARG)
  1676 ;;               ___fldiv (ARG)
  1677 ;;                 ___flpack
  1678 ;;                 ___fltol (ARG)
  1679 ;;                   ___flge (ARG)
  1680 ;;                   _frexp (ARG)
  1681 ;;                   ___flpack (ARG)
  1682 ;;             ___fladd
  1683 ;;               ___flpack
  1684 ;;               ___flneg (ARG)
  1685 ;;                 ___flpack (ARG)
  1686 ;;               ___flmul (ARG)
  1687 ;;                 ___flpack
  1688 ;;                 ___flneg (ARG)
  1689 ;;                   ___flpack (ARG)
  1690 ;;                 ___fltol (ARG)
  1691 ;;                   ___flge (ARG)
  1692 ;;                   _frexp (ARG)
  1693 ;;                   ___flpack (ARG)
  1694 ;;                 ___awtofl (ARG)
  1695 ;;                   ___flpack
  1696 ;;                   ___fltol (ARG)
  1697 ;;                     ___flge (ARG)
  1698 ;;                     _frexp (ARG)
  1699 ;;                     ___flpack (ARG)
  1700 ;;                 _frexp (ARG)
  1701 ;;                 ___fldiv (ARG)
  1702 ;;                   ___flpack
  1703 ;;                   ___fltol (ARG)
  1704 ;;                     ___flge (ARG)
  1705 ;;                     _frexp (ARG)
  1706 ;;                     ___flpack (ARG)
  1707 ;;               ___fltol (ARG)
  1708 ;;                 ___flge (ARG)
  1709 ;;                 _frexp (ARG)
  1710 ;;                 ___flpack (ARG)
  1711 ;;               _frexp (ARG)
  1712 ;;               ___awtofl (ARG)
  1713 ;;                 ___flpack
  1714 ;;                 ___fltol (ARG)
  1715 ;;                   ___flge (ARG)
  1716 ;;                   _frexp (ARG)
  1717 ;;                   ___flpack (ARG)
  1718 ;;             ___fltol (ARG)
  1719 ;;               ___flge (ARG)
  1720 ;;               _frexp (ARG)
  1721 ;;               ___flpack (ARG)
  1722 ;;             _ldexp (ARG)
  1723 ;;               ___flge
  1724 ;;               ___flneg
  1725 ;;                 ___flpack (ARG)
  1726 ;;               ___flmul (ARG)
  1727 ;;                 ___flpack
  1728 ;;                 ___flneg (ARG)
  1729 ;;                   ___flpack (ARG)
  1730 ;;                 ___fltol (ARG)
  1731 ;;                   ___flge (ARG)
  1732 ;;                   _frexp (ARG)
  1733 ;;                   ___flpack (ARG)
  1734 ;;                 ___awtofl (ARG)
  1735 ;;                   ___flpack
  1736 ;;                   ___fltol (ARG)
  1737 ;;                     ___flge (ARG)
  1738 ;;                     _frexp (ARG)
  1739 ;;                     ___flpack (ARG)
  1740 ;;                 _frexp (ARG)
  1741 ;;                 ___fldiv (ARG)
  1742 ;;                   ___flpack
  1743 ;;                   ___fltol (ARG)
  1744 ;;                     ___flge (ARG)
  1745 ;;                     _frexp (ARG)
  1746 ;;                     ___flpack (ARG)
  1747 ;;               ___fladd (ARG)
  1748 ;;                 ___flpack
  1749 ;;                 ___flneg (ARG)
  1750 ;;                   ___flpack (ARG)
  1751 ;;                 ___flmul (ARG)
  1752 ;;                   ___flpack
  1753 ;;                   ___flneg (ARG)
  1754 ;;                     ___flpack (ARG)
  1755 ;;                   ___fltol (ARG)
  1756 ;;                     ___flge (ARG)
  1757 ;;                     _frexp (ARG)
  1758 ;;                     ___flpack (ARG)
  1759 ;;                   ___awtofl (ARG)
  1760 ;;                     ___flpack
  1761 ;;                     ___fltol (ARG)
  1762 ;;                       ___flge (ARG)
  1763 ;;                       _frexp (ARG)
  1764 ;;                       ___flpack (ARG)
  1765 ;;                   _frexp (ARG)
  1766 ;;                   ___fldiv (ARG)
  1767 ;;                     ___flpack
  1768 ;;                     ___fltol (ARG)
  1769 ;;                       ___flge (ARG)
  1770 ;;                       _frexp (ARG)
  1771 ;;                       ___flpack (ARG)
  1772 ;;                 ___fltol (ARG)
  1773 ;;                   ___flge (ARG)
  1774 ;;                   _frexp (ARG)
  1775 ;;                   ___flpack (ARG)
  1776 ;;                 _frexp (ARG)
  1777 ;;                 ___awtofl (ARG)
  1778 ;;                   ___flpack
  1779 ;;                   ___fltol (ARG)
  1780 ;;                     ___flge (ARG)
  1781 ;;                     _frexp (ARG)
  1782 ;;                     ___flpack (ARG)
  1783 ;;           ___awtofl
  1784 ;;             ___flpack
  1785 ;;             ___fltol (ARG)
  1786 ;;               ___flge (ARG)
  1787 ;;               _frexp (ARG)
  1788 ;;               ___flpack (ARG)
  1789 ;;           ___fltol (ARG)
  1790 ;;             ___flge (ARG)
  1791 ;;             _frexp (ARG)
  1792 ;;             ___flpack (ARG)
  1793 ;;         ___flmul
  1794 ;;           ___flpack
  1795 ;;           ___flneg (ARG)
  1796 ;;             ___flpack (ARG)
  1797 ;;           ___fltol (ARG)
  1798 ;;             ___flge (ARG)
  1799 ;;             _frexp (ARG)
  1800 ;;             ___flpack (ARG)
  1801 ;;           ___awtofl (ARG)
  1802 ;;             ___flpack
  1803 ;;             ___fltol (ARG)
  1804 ;;               ___flge (ARG)
  1805 ;;               _frexp (ARG)
  1806 ;;               ___flpack (ARG)
  1807 ;;           _frexp (ARG)
  1808 ;;           ___fldiv (ARG)
  1809 ;;             ___flpack
  1810 ;;             ___fltol (ARG)
  1811 ;;               ___flge (ARG)
  1812 ;;               _frexp (ARG)
  1813 ;;               ___flpack (ARG)
  1814 ;;         ___fltol (ARG)
  1815 ;;           ___flge (ARG)
  1816 ;;           _frexp (ARG)
  1817 ;;           ___flpack (ARG)
  1818 ;;       ___fltol
  1819 ;;         ___flge (ARG)
  1820 ;;         _frexp (ARG)
  1821 ;;         ___flpack (ARG)
  1822 ;;       ___awtofl
  1823 ;;         ___flpack
  1824 ;;         ___fltol (ARG)
  1825 ;;           ___flge (ARG)
  1826 ;;           _frexp (ARG)
  1827 ;;           ___flpack (ARG)
  1828 ;;       _pow
  1829 ;;         ___flge
  1830 ;;         ___fltol
  1831 ;;           ___flge (ARG)
  1832 ;;           _frexp (ARG)
  1833 ;;           ___flpack (ARG)
  1834 ;;         ___lltofl
  1835 ;;           ___flpack
  1836 ;;         ___flneg
  1837 ;;           ___flpack (ARG)
  1838 ;;         _log
  1839 ;;           ___flge
  1840 ;;           _frexp
  1841 ;;           ___flmul
  1842 ;;             ___flpack
  1843 ;;             ___flneg (ARG)
  1844 ;;               ___flpack (ARG)
  1845 ;;             ___fltol (ARG)
  1846 ;;               ___flge (ARG)
  1847 ;;               _frexp (ARG)
  1848 ;;               ___flpack (ARG)
  1849 ;;             ___awtofl (ARG)
  1850 ;;               ___flpack
  1851 ;;               ___fltol (ARG)
  1852 ;;                 ___flge (ARG)
  1853 ;;                 _frexp (ARG)
  1854 ;;                 ___flpack (ARG)
  1855 ;;             _frexp (ARG)
  1856 ;;             ___fldiv (ARG)
  1857 ;;               ___flpack
  1858 ;;               ___fltol (ARG)
  1859 ;;                 ___flge (ARG)
  1860 ;;                 _frexp (ARG)
  1861 ;;                 ___flpack (ARG)
  1862 ;;           ___fladd
  1863 ;;             ___flpack
  1864 ;;             ___flneg (ARG)
  1865 ;;               ___flpack (ARG)
  1866 ;;             ___flmul (ARG)
  1867 ;;               ___flpack
  1868 ;;               ___flneg (ARG)
  1869 ;;                 ___flpack (ARG)
  1870 ;;               ___fltol (ARG)
  1871 ;;                 ___flge (ARG)
  1872 ;;                 _frexp (ARG)
  1873 ;;                 ___flpack (ARG)
  1874 ;;               ___awtofl (ARG)
  1875 ;;                 ___flpack
  1876 ;;                 ___fltol (ARG)
  1877 ;;                   ___flge (ARG)
  1878 ;;                   _frexp (ARG)
  1879 ;;                   ___flpack (ARG)
  1880 ;;               _frexp (ARG)
  1881 ;;               ___fldiv (ARG)
  1882 ;;                 ___flpack
  1883 ;;                 ___fltol (ARG)
  1884 ;;                   ___flge (ARG)
  1885 ;;                   _frexp (ARG)
  1886 ;;                   ___flpack (ARG)
  1887 ;;             ___fltol (ARG)
  1888 ;;               ___flge (ARG)
  1889 ;;               _frexp (ARG)
  1890 ;;               ___flpack (ARG)
  1891 ;;             _frexp (ARG)
  1892 ;;             ___awtofl (ARG)
  1893 ;;               ___flpack
  1894 ;;               ___fltol (ARG)
  1895 ;;                 ___flge (ARG)
  1896 ;;                 _frexp (ARG)
  1897 ;;                 ___flpack (ARG)
  1898 ;;           _eval_poly
  1899 ;;             ___flmul
  1900 ;;               ___flpack
  1901 ;;               ___flneg (ARG)
  1902 ;;                 ___flpack (ARG)
  1903 ;;               ___fltol (ARG)
  1904 ;;                 ___flge (ARG)
  1905 ;;                 _frexp (ARG)
  1906 ;;                 ___flpack (ARG)
  1907 ;;               ___awtofl (ARG)
  1908 ;;                 ___flpack
  1909 ;;                 ___fltol (ARG)
  1910 ;;                   ___flge (ARG)
  1911 ;;                   _frexp (ARG)
  1912 ;;                   ___flpack (ARG)
  1913 ;;               _frexp (ARG)
  1914 ;;               ___fldiv (ARG)
  1915 ;;                 ___flpack
  1916 ;;                 ___fltol (ARG)
  1917 ;;                   ___flge (ARG)
  1918 ;;                   _frexp (ARG)
  1919 ;;                   ___flpack (ARG)
  1920 ;;             ___fladd
  1921 ;;               ___flpack
  1922 ;;               ___flneg (ARG)
  1923 ;;                 ___flpack (ARG)
  1924 ;;               ___flmul (ARG)
  1925 ;;                 ___flpack
  1926 ;;                 ___flneg (ARG)
  1927 ;;                   ___flpack (ARG)
  1928 ;;                 ___fltol (ARG)
  1929 ;;                   ___flge (ARG)
  1930 ;;                   _frexp (ARG)
  1931 ;;                   ___flpack (ARG)
  1932 ;;                 ___awtofl (ARG)
  1933 ;;                   ___flpack
  1934 ;;                   ___fltol (ARG)
  1935 ;;                     ___flge (ARG)
  1936 ;;                     _frexp (ARG)
  1937 ;;                     ___flpack (ARG)
  1938 ;;                 _frexp (ARG)
  1939 ;;                 ___fldiv (ARG)
  1940 ;;                   ___flpack
  1941 ;;                   ___fltol (ARG)
  1942 ;;                     ___flge (ARG)
  1943 ;;                     _frexp (ARG)
  1944 ;;                     ___flpack (ARG)
  1945 ;;               ___fltol (ARG)
  1946 ;;                 ___flge (ARG)
  1947 ;;                 _frexp (ARG)
  1948 ;;                 ___flpack (ARG)
  1949 ;;               _frexp (ARG)
  1950 ;;               ___awtofl (ARG)
  1951 ;;                 ___flpack
  1952 ;;                 ___fltol (ARG)
  1953 ;;                   ___flge (ARG)
  1954 ;;                   _frexp (ARG)
  1955 ;;                   ___flpack (ARG)
  1956 ;;             ___fltol (ARG)
  1957 ;;               ___flge (ARG)
  1958 ;;               _frexp (ARG)
  1959 ;;               ___flpack (ARG)
  1960 ;;             _ldexp (ARG)
  1961 ;;               ___flge
  1962 ;;               ___flneg
  1963 ;;                 ___flpack (ARG)
  1964 ;;               ___flmul (ARG)
  1965 ;;                 ___flpack
  1966 ;;                 ___flneg (ARG)
  1967 ;;                   ___flpack (ARG)
  1968 ;;                 ___fltol (ARG)
  1969 ;;                   ___flge (ARG)
  1970 ;;                   _frexp (ARG)
  1971 ;;                   ___flpack (ARG)
  1972 ;;                 ___awtofl (ARG)
  1973 ;;                   ___flpack
  1974 ;;                   ___fltol (ARG)
  1975 ;;                     ___flge (ARG)
  1976 ;;                     _frexp (ARG)
  1977 ;;                     ___flpack (ARG)
  1978 ;;                 _frexp (ARG)
  1979 ;;                 ___fldiv (ARG)
  1980 ;;                   ___flpack
  1981 ;;                   ___fltol (ARG)
  1982 ;;                     ___flge (ARG)
  1983 ;;                     _frexp (ARG)
  1984 ;;                     ___flpack (ARG)
  1985 ;;               ___fladd (ARG)
  1986 ;;                 ___flpack
  1987 ;;                 ___flneg (ARG)
  1988 ;;                   ___flpack (ARG)
  1989 ;;                 ___flmul (ARG)
  1990 ;;                   ___flpack
  1991 ;;                   ___flneg (ARG)
  1992 ;;                     ___flpack (ARG)
  1993 ;;                   ___fltol (ARG)
  1994 ;;                     ___flge (ARG)
  1995 ;;                     _frexp (ARG)
  1996 ;;                     ___flpack (ARG)
  1997 ;;                   ___awtofl (ARG)
  1998 ;;                     ___flpack
  1999 ;;                     ___fltol (ARG)
  2000 ;;                       ___flge (ARG)
  2001 ;;                       _frexp (ARG)
  2002 ;;                       ___flpack (ARG)
  2003 ;;                   _frexp (ARG)
  2004 ;;                   ___fldiv (ARG)
  2005 ;;                     ___flpack
  2006 ;;                     ___fltol (ARG)
  2007 ;;                       ___flge (ARG)
  2008 ;;                       _frexp (ARG)
  2009 ;;                       ___flpack (ARG)
  2010 ;;                 ___fltol (ARG)
  2011 ;;                   ___flge (ARG)
  2012 ;;                   _frexp (ARG)
  2013 ;;                   ___flpack (ARG)
  2014 ;;                 _frexp (ARG)
  2015 ;;                 ___awtofl (ARG)
  2016 ;;                   ___flpack
  2017 ;;                   ___fltol (ARG)
  2018 ;;                     ___flge (ARG)
  2019 ;;                     _frexp (ARG)
  2020 ;;                     ___flpack (ARG)
  2021 ;;           ___awtofl
  2022 ;;             ___flpack
  2023 ;;             ___fltol (ARG)
  2024 ;;               ___flge (ARG)
  2025 ;;               _frexp (ARG)
  2026 ;;               ___flpack (ARG)
  2027 ;;           ___fltol (ARG)
  2028 ;;             ___flge (ARG)
  2029 ;;             _frexp (ARG)
  2030 ;;             ___flpack (ARG)
  2031 ;;         ___flmul
  2032 ;;           ___flpack
  2033 ;;           ___flneg (ARG)
  2034 ;;             ___flpack (ARG)
  2035 ;;           ___fltol (ARG)
  2036 ;;             ___flge (ARG)
  2037 ;;             _frexp (ARG)
  2038 ;;             ___flpack (ARG)
  2039 ;;           ___awtofl (ARG)
  2040 ;;             ___flpack
  2041 ;;             ___fltol (ARG)
  2042 ;;               ___flge (ARG)
  2043 ;;               _frexp (ARG)
  2044 ;;               ___flpack (ARG)
  2045 ;;           _frexp (ARG)
  2046 ;;           ___fldiv (ARG)
  2047 ;;             ___flpack
  2048 ;;             ___fltol (ARG)
  2049 ;;               ___flge (ARG)
  2050 ;;               _frexp (ARG)
  2051 ;;               ___flpack (ARG)
  2052 ;;         _exp
  2053 ;;           ___flge
  2054 ;;           ___flneg
  2055 ;;             ___flpack (ARG)
  2056 ;;           ___flmul
  2057 ;;             ___flpack
  2058 ;;             ___flneg (ARG)
  2059 ;;               ___flpack (ARG)
  2060 ;;             ___fltol (ARG)
  2061 ;;               ___flge (ARG)
  2062 ;;               _frexp (ARG)
  2063 ;;               ___flpack (ARG)
  2064 ;;             ___awtofl (ARG)
  2065 ;;               ___flpack
  2066 ;;               ___fltol (ARG)
  2067 ;;                 ___flge (ARG)
  2068 ;;                 _frexp (ARG)
  2069 ;;                 ___flpack (ARG)
  2070 ;;             _frexp (ARG)
  2071 ;;             ___fldiv (ARG)
  2072 ;;               ___flpack
  2073 ;;               ___fltol (ARG)
  2074 ;;                 ___flge (ARG)
  2075 ;;                 _frexp (ARG)
  2076 ;;                 ___flpack (ARG)
  2077 ;;           _floor
  2078 ;;             _frexp
  2079 ;;             ___flge
  2080 ;;             ___fltol
  2081 ;;               ___flge (ARG)
  2082 ;;               _frexp (ARG)
  2083 ;;               ___flpack (ARG)
  2084 ;;             ___altofl
  2085 ;;               ___flpack
  2086 ;;               ___fltol (ARG)
  2087 ;;                 ___flge (ARG)
  2088 ;;                 _frexp (ARG)
  2089 ;;                 ___flpack (ARG)
  2090 ;;             ___fladd
  2091 ;;               ___flpack
  2092 ;;               ___flneg (ARG)
  2093 ;;                 ___flpack (ARG)
  2094 ;;               ___flmul (ARG)
  2095 ;;                 ___flpack
  2096 ;;                 ___flneg (ARG)
  2097 ;;                   ___flpack (ARG)
  2098 ;;                 ___fltol (ARG)
  2099 ;;                   ___flge (ARG)
  2100 ;;                   _frexp (ARG)
  2101 ;;                   ___flpack (ARG)
  2102 ;;                 ___awtofl (ARG)
  2103 ;;                   ___flpack
  2104 ;;                   ___fltol (ARG)
  2105 ;;                     ___flge (ARG)
  2106 ;;                     _frexp (ARG)
  2107 ;;                     ___flpack (ARG)
  2108 ;;                 _frexp (ARG)
  2109 ;;                 ___fldiv (ARG)
  2110 ;;                   ___flpack
  2111 ;;                   ___fltol (ARG)
  2112 ;;                     ___flge (ARG)
  2113 ;;                     _frexp (ARG)
  2114 ;;                     ___flpack (ARG)
  2115 ;;               ___fltol (ARG)
  2116 ;;                 ___flge (ARG)
  2117 ;;                 _frexp (ARG)
  2118 ;;                 ___flpack (ARG)
  2119 ;;               _frexp (ARG)
  2120 ;;               ___awtofl (ARG)
  2121 ;;                 ___flpack
  2122 ;;                 ___fltol (ARG)
  2123 ;;                   ___flge (ARG)
  2124 ;;                   _frexp (ARG)
  2125 ;;                   ___flpack (ARG)
  2126 ;;             ___fldiv (ARG)
  2127 ;;               ___flpack
  2128 ;;               ___fltol (ARG)
  2129 ;;                 ___flge (ARG)
  2130 ;;                 _frexp (ARG)
  2131 ;;                 ___flpack (ARG)
  2132 ;;           ___fltol
  2133 ;;             ___flge (ARG)
  2134 ;;             _frexp (ARG)
  2135 ;;             ___flpack (ARG)
  2136 ;;           ___awtofl
  2137 ;;             ___flpack
  2138 ;;             ___fltol (ARG)
  2139 ;;               ___flge (ARG)
  2140 ;;               _frexp (ARG)
  2141 ;;               ___flpack (ARG)
  2142 ;;           ___flsub
  2143 ;;             ___fladd
  2144 ;;               ___flpack
  2145 ;;               ___flneg (ARG)
  2146 ;;                 ___flpack (ARG)
  2147 ;;               ___flmul (ARG)
  2148 ;;                 ___flpack
  2149 ;;                 ___flneg (ARG)
  2150 ;;                   ___flpack (ARG)
  2151 ;;                 ___fltol (ARG)
  2152 ;;                   ___flge (ARG)
  2153 ;;                   _frexp (ARG)
  2154 ;;                   ___flpack (ARG)
  2155 ;;                 ___awtofl (ARG)
  2156 ;;                   ___flpack
  2157 ;;                   ___fltol (ARG)
  2158 ;;                     ___flge (ARG)
  2159 ;;                     _frexp (ARG)
  2160 ;;                     ___flpack (ARG)
  2161 ;;                 _frexp (ARG)
  2162 ;;                 ___fldiv (ARG)
  2163 ;;                   ___flpack
  2164 ;;                   ___fltol (ARG)
  2165 ;;                     ___flge (ARG)
  2166 ;;                     _frexp (ARG)
  2167 ;;                     ___flpack (ARG)
  2168 ;;               ___fltol (ARG)
  2169 ;;                 ___flge (ARG)
  2170 ;;                 _frexp (ARG)
  2171 ;;                 ___flpack (ARG)
  2172 ;;               _frexp (ARG)
  2173 ;;               ___awtofl (ARG)
  2174 ;;                 ___flpack
  2175 ;;                 ___fltol (ARG)
  2176 ;;                   ___flge (ARG)
  2177 ;;                   _frexp (ARG)
  2178 ;;                   ___flpack (ARG)
  2179 ;;             ___flmul (ARG)
  2180 ;;               ___flpack
  2181 ;;               ___flneg (ARG)
  2182 ;;                 ___flpack (ARG)
  2183 ;;               ___fltol (ARG)
  2184 ;;                 ___flge (ARG)
  2185 ;;                 _frexp (ARG)
  2186 ;;                 ___flpack (ARG)
  2187 ;;               ___awtofl (ARG)
  2188 ;;                 ___flpack
  2189 ;;                 ___fltol (ARG)
  2190 ;;                   ___flge (ARG)
  2191 ;;                   _frexp (ARG)
  2192 ;;                   ___flpack (ARG)
  2193 ;;               _frexp (ARG)
  2194 ;;               ___fldiv (ARG)
  2195 ;;                 ___flpack
  2196 ;;                 ___fltol (ARG)
  2197 ;;                   ___flge (ARG)
  2198 ;;                   _frexp (ARG)
  2199 ;;                   ___flpack (ARG)
  2200 ;;             ___awtofl (ARG)
  2201 ;;               ___flpack
  2202 ;;               ___fltol (ARG)
  2203 ;;                 ___flge (ARG)
  2204 ;;                 _frexp (ARG)
  2205 ;;                 ___flpack (ARG)
  2206 ;;           _eval_poly
  2207 ;;             ___flmul
  2208 ;;               ___flpack
  2209 ;;               ___flneg (ARG)
  2210 ;;                 ___flpack (ARG)
  2211 ;;               ___fltol (ARG)
  2212 ;;                 ___flge (ARG)
  2213 ;;                 _frexp (ARG)
  2214 ;;                 ___flpack (ARG)
  2215 ;;               ___awtofl (ARG)
  2216 ;;                 ___flpack
  2217 ;;                 ___fltol (ARG)
  2218 ;;                   ___flge (ARG)
  2219 ;;                   _frexp (ARG)
  2220 ;;                   ___flpack (ARG)
  2221 ;;               _frexp (ARG)
  2222 ;;               ___fldiv (ARG)
  2223 ;;                 ___flpack
  2224 ;;                 ___fltol (ARG)
  2225 ;;                   ___flge (ARG)
  2226 ;;                   _frexp (ARG)
  2227 ;;                   ___flpack (ARG)
  2228 ;;             ___fladd
  2229 ;;               ___flpack
  2230 ;;               ___flneg (ARG)
  2231 ;;                 ___flpack (ARG)
  2232 ;;               ___flmul (ARG)
  2233 ;;                 ___flpack
  2234 ;;                 ___flneg (ARG)
  2235 ;;                   ___flpack (ARG)
  2236 ;;                 ___fltol (ARG)
  2237 ;;                   ___flge (ARG)
  2238 ;;                   _frexp (ARG)
  2239 ;;                   ___flpack (ARG)
  2240 ;;                 ___awtofl (ARG)
  2241 ;;                   ___flpack
  2242 ;;                   ___fltol (ARG)
  2243 ;;                     ___flge (ARG)
  2244 ;;                     _frexp (ARG)
  2245 ;;                     ___flpack (ARG)
  2246 ;;                 _frexp (ARG)
  2247 ;;                 ___fldiv (ARG)
  2248 ;;                   ___flpack
  2249 ;;                   ___fltol (ARG)
  2250 ;;                     ___flge (ARG)
  2251 ;;                     _frexp (ARG)
  2252 ;;                     ___flpack (ARG)
  2253 ;;               ___fltol (ARG)
  2254 ;;                 ___flge (ARG)
  2255 ;;                 _frexp (ARG)
  2256 ;;                 ___flpack (ARG)
  2257 ;;               _frexp (ARG)
  2258 ;;               ___awtofl (ARG)
  2259 ;;                 ___flpack
  2260 ;;                 ___fltol (ARG)
  2261 ;;                   ___flge (ARG)
  2262 ;;                   _frexp (ARG)
  2263 ;;                   ___flpack (ARG)
  2264 ;;             ___fltol (ARG)
  2265 ;;               ___flge (ARG)
  2266 ;;               _frexp (ARG)
  2267 ;;               ___flpack (ARG)
  2268 ;;             _ldexp (ARG)
  2269 ;;               ___flge
  2270 ;;               ___flneg
  2271 ;;                 ___flpack (ARG)
  2272 ;;               ___flmul (ARG)
  2273 ;;                 ___flpack
  2274 ;;                 ___flneg (ARG)
  2275 ;;                   ___flpack (ARG)
  2276 ;;                 ___fltol (ARG)
  2277 ;;                   ___flge (ARG)
  2278 ;;                   _frexp (ARG)
  2279 ;;                   ___flpack (ARG)
  2280 ;;                 ___awtofl (ARG)
  2281 ;;                   ___flpack
  2282 ;;                   ___fltol (ARG)
  2283 ;;                     ___flge (ARG)
  2284 ;;                     _frexp (ARG)
  2285 ;;                     ___flpack (ARG)
  2286 ;;                 _frexp (ARG)
  2287 ;;                 ___fldiv (ARG)
  2288 ;;                   ___flpack
  2289 ;;                   ___fltol (ARG)
  2290 ;;                     ___flge (ARG)
  2291 ;;                     _frexp (ARG)
  2292 ;;                     ___flpack (ARG)
  2293 ;;               ___fladd (ARG)
  2294 ;;                 ___flpack
  2295 ;;                 ___flneg (ARG)
  2296 ;;                   ___flpack (ARG)
  2297 ;;                 ___flmul (ARG)
  2298 ;;                   ___flpack
  2299 ;;                   ___flneg (ARG)
  2300 ;;                     ___flpack (ARG)
  2301 ;;                   ___fltol (ARG)
  2302 ;;                     ___flge (ARG)
  2303 ;;                     _frexp (ARG)
  2304 ;;                     ___flpack (ARG)
  2305 ;;                   ___awtofl (ARG)
  2306 ;;                     ___flpack
  2307 ;;                     ___fltol (ARG)
  2308 ;;                       ___flge (ARG)
  2309 ;;                       _frexp (ARG)
  2310 ;;                       ___flpack (ARG)
  2311 ;;                   _frexp (ARG)
  2312 ;;                   ___fldiv (ARG)
  2313 ;;                     ___flpack
  2314 ;;                     ___fltol (ARG)
  2315 ;;                       ___flge (ARG)
  2316 ;;                       _frexp (ARG)
  2317 ;;                       ___flpack (ARG)
  2318 ;;                 ___fltol (ARG)
  2319 ;;                   ___flge (ARG)
  2320 ;;                   _frexp (ARG)
  2321 ;;                   ___flpack (ARG)
  2322 ;;                 _frexp (ARG)
  2323 ;;                 ___awtofl (ARG)
  2324 ;;                   ___flpack
  2325 ;;                   ___fltol (ARG)
  2326 ;;                     ___flge (ARG)
  2327 ;;                     _frexp (ARG)
  2328 ;;                     ___flpack (ARG)
  2329 ;;           _ldexp
  2330 ;;             ___flge
  2331 ;;             ___flneg
  2332 ;;               ___flpack (ARG)
  2333 ;;             ___flmul (ARG)
  2334 ;;               ___flpack
  2335 ;;               ___flneg (ARG)
  2336 ;;                 ___flpack (ARG)
  2337 ;;               ___fltol (ARG)
  2338 ;;                 ___flge (ARG)
  2339 ;;                 _frexp (ARG)
  2340 ;;                 ___flpack (ARG)
  2341 ;;               ___awtofl (ARG)
  2342 ;;                 ___flpack
  2343 ;;                 ___fltol (ARG)
  2344 ;;                   ___flge (ARG)
  2345 ;;                   _frexp (ARG)
  2346 ;;                   ___flpack (ARG)
  2347 ;;               _frexp (ARG)
  2348 ;;               ___fldiv (ARG)
  2349 ;;                 ___flpack
  2350 ;;                 ___fltol (ARG)
  2351 ;;                   ___flge (ARG)
  2352 ;;                   _frexp (ARG)
  2353 ;;                   ___flpack (ARG)
  2354 ;;             ___fladd (ARG)
  2355 ;;               ___flpack
  2356 ;;               ___flneg (ARG)
  2357 ;;                 ___flpack (ARG)
  2358 ;;               ___flmul (ARG)
  2359 ;;                 ___flpack
  2360 ;;                 ___flneg (ARG)
  2361 ;;                   ___flpack (ARG)
  2362 ;;                 ___fltol (ARG)
  2363 ;;                   ___flge (ARG)
  2364 ;;                   _frexp (ARG)
  2365 ;;                   ___flpack (ARG)
  2366 ;;                 ___awtofl (ARG)
  2367 ;;                   ___flpack
  2368 ;;                   ___fltol (ARG)
  2369 ;;                     ___flge (ARG)
  2370 ;;                     _frexp (ARG)
  2371 ;;                     ___flpack (ARG)
  2372 ;;                 _frexp (ARG)
  2373 ;;                 ___fldiv (ARG)
  2374 ;;                   ___flpack
  2375 ;;                   ___fltol (ARG)
  2376 ;;                     ___flge (ARG)
  2377 ;;                     _frexp (ARG)
  2378 ;;                     ___flpack (ARG)
  2379 ;;               ___fltol (ARG)
  2380 ;;                 ___flge (ARG)
  2381 ;;                 _frexp (ARG)
  2382 ;;                 ___flpack (ARG)
  2383 ;;               _frexp (ARG)
  2384 ;;               ___awtofl (ARG)
  2385 ;;                 ___flpack
  2386 ;;                 ___fltol (ARG)
  2387 ;;                   ___flge (ARG)
  2388 ;;                   _frexp (ARG)
  2389 ;;                   ___flpack (ARG)
  2390 ;;           ___fldiv
  2391 ;;             ___flpack
  2392 ;;             ___fltol (ARG)
  2393 ;;               ___flge (ARG)
  2394 ;;               _frexp (ARG)
  2395 ;;               ___flpack (ARG)
  2396 ;;           _log (ARG)
  2397 ;;             ___flge
  2398 ;;             _frexp
  2399 ;;             ___flmul
  2400 ;;               ___flpack
  2401 ;;               ___flneg (ARG)
  2402 ;;                 ___flpack (ARG)
  2403 ;;               ___fltol (ARG)
  2404 ;;                 ___flge (ARG)
  2405 ;;                 _frexp (ARG)
  2406 ;;                 ___flpack (ARG)
  2407 ;;               ___awtofl (ARG)
  2408 ;;                 ___flpack
  2409 ;;                 ___fltol (ARG)
  2410 ;;                   ___flge (ARG)
  2411 ;;                   _frexp (ARG)
  2412 ;;                   ___flpack (ARG)
  2413 ;;               _frexp (ARG)
  2414 ;;               ___fldiv (ARG)
  2415 ;;                 ___flpack
  2416 ;;                 ___fltol (ARG)
  2417 ;;                   ___flge (ARG)
  2418 ;;                   _frexp (ARG)
  2419 ;;                   ___flpack (ARG)
  2420 ;;             ___fladd
  2421 ;;               ___flpack
  2422 ;;               ___flneg (ARG)
  2423 ;;                 ___flpack (ARG)
  2424 ;;               ___flmul (ARG)
  2425 ;;                 ___flpack
  2426 ;;                 ___flneg (ARG)
  2427 ;;                   ___flpack (ARG)
  2428 ;;                 ___fltol (ARG)
  2429 ;;                   ___flge (ARG)
  2430 ;;                   _frexp (ARG)
  2431 ;;                   ___flpack (ARG)
  2432 ;;                 ___awtofl (ARG)
  2433 ;;                   ___flpack
  2434 ;;                   ___fltol (ARG)
  2435 ;;                     ___flge (ARG)
  2436 ;;                     _frexp (ARG)
  2437 ;;                     ___flpack (ARG)
  2438 ;;                 _frexp (ARG)
  2439 ;;                 ___fldiv (ARG)
  2440 ;;                   ___flpack
  2441 ;;                   ___fltol (ARG)
  2442 ;;                     ___flge (ARG)
  2443 ;;                     _frexp (ARG)
  2444 ;;                     ___flpack (ARG)
  2445 ;;               ___fltol (ARG)
  2446 ;;                 ___flge (ARG)
  2447 ;;                 _frexp (ARG)
  2448 ;;                 ___flpack (ARG)
  2449 ;;               _frexp (ARG)
  2450 ;;               ___awtofl (ARG)
  2451 ;;                 ___flpack
  2452 ;;                 ___fltol (ARG)
  2453 ;;                   ___flge (ARG)
  2454 ;;                   _frexp (ARG)
  2455 ;;                   ___flpack (ARG)
  2456 ;;             _eval_poly
  2457 ;;               ___flmul
  2458 ;;                 ___flpack
  2459 ;;                 ___flneg (ARG)
  2460 ;;                   ___flpack (ARG)
  2461 ;;                 ___fltol (ARG)
  2462 ;;                   ___flge (ARG)
  2463 ;;                   _frexp (ARG)
  2464 ;;                   ___flpack (ARG)
  2465 ;;                 ___awtofl (ARG)
  2466 ;;                   ___flpack
  2467 ;;                   ___fltol (ARG)
  2468 ;;                     ___flge (ARG)
  2469 ;;                     _frexp (ARG)
  2470 ;;                     ___flpack (ARG)
  2471 ;;                 _frexp (ARG)
  2472 ;;                 ___fldiv (ARG)
  2473 ;;                   ___flpack
  2474 ;;                   ___fltol (ARG)
  2475 ;;                     ___flge (ARG)
  2476 ;;                     _frexp (ARG)
  2477 ;;                     ___flpack (ARG)
  2478 ;;               ___fladd
  2479 ;;                 ___flpack
  2480 ;;                 ___flneg (ARG)
  2481 ;;                   ___flpack (ARG)
  2482 ;;                 ___flmul (ARG)
  2483 ;;                   ___flpack
  2484 ;;                   ___flneg (ARG)
  2485 ;;                     ___flpack (ARG)
  2486 ;;                   ___fltol (ARG)
  2487 ;;                     ___flge (ARG)
  2488 ;;                     _frexp (ARG)
  2489 ;;                     ___flpack (ARG)
  2490 ;;                   ___awtofl (ARG)
  2491 ;;                     ___flpack
  2492 ;;                     ___fltol (ARG)
  2493 ;;                       ___flge (ARG)
  2494 ;;                       _frexp (ARG)
  2495 ;;                       ___flpack (ARG)
  2496 ;;                   _frexp (ARG)
  2497 ;;                   ___fldiv (ARG)
  2498 ;;                     ___flpack
  2499 ;;                     ___fltol (ARG)
  2500 ;;                       ___flge (ARG)
  2501 ;;                       _frexp (ARG)
  2502 ;;                       ___flpack (ARG)
  2503 ;;                 ___fltol (ARG)
  2504 ;;                   ___flge (ARG)
  2505 ;;                   _frexp (ARG)
  2506 ;;                   ___flpack (ARG)
  2507 ;;                 _frexp (ARG)
  2508 ;;                 ___awtofl (ARG)
  2509 ;;                   ___flpack
  2510 ;;                   ___fltol (ARG)
  2511 ;;                     ___flge (ARG)
  2512 ;;                     _frexp (ARG)
  2513 ;;                     ___flpack (ARG)
  2514 ;;               ___fltol (ARG)
  2515 ;;                 ___flge (ARG)
  2516 ;;                 _frexp (ARG)
  2517 ;;                 ___flpack (ARG)
  2518 ;;               _ldexp (ARG)
  2519 ;;                 ___flge
  2520 ;;                 ___flneg
  2521 ;;                   ___flpack (ARG)
  2522 ;;                 ___flmul (ARG)
  2523 ;;                   ___flpack
  2524 ;;                   ___flneg (ARG)
  2525 ;;                     ___flpack (ARG)
  2526 ;;                   ___fltol (ARG)
  2527 ;;                     ___flge (ARG)
  2528 ;;                     _frexp (ARG)
  2529 ;;                     ___flpack (ARG)
  2530 ;;                   ___awtofl (ARG)
  2531 ;;                     ___flpack
  2532 ;;                     ___fltol (ARG)
  2533 ;;                       ___flge (ARG)
  2534 ;;                       _frexp (ARG)
  2535 ;;                       ___flpack (ARG)
  2536 ;;                   _frexp (ARG)
  2537 ;;                   ___fldiv (ARG)
  2538 ;;                     ___flpack
  2539 ;;                     ___fltol (ARG)
  2540 ;;                       ___flge (ARG)
  2541 ;;                       _frexp (ARG)
  2542 ;;                       ___flpack (ARG)
  2543 ;;                 ___fladd (ARG)
  2544 ;;                   ___flpack
  2545 ;;                   ___flneg (ARG)
  2546 ;;                     ___flpack (ARG)
  2547 ;;                   ___flmul (ARG)
  2548 ;;                     ___flpack
  2549 ;;                     ___flneg (ARG)
  2550 ;;                       ___flpack (ARG)
  2551 ;;                     ___fltol (ARG)
  2552 ;;                       ___flge (ARG)
  2553 ;;                       _frexp (ARG)
  2554 ;;                       ___flpack (ARG)
  2555 ;;                     ___awtofl (ARG)
  2556 ;;                       ___flpack
  2557 ;;                       ___fltol (ARG)
  2558 ;;                         ___flge (ARG)
  2559 ;;                         _frexp (ARG)
  2560 ;;                         ___flpack (ARG)
  2561 ;;                     _frexp (ARG)
  2562 ;;                     ___fldiv (ARG)
  2563 ;;                       ___flpack
  2564 ;;                       ___fltol (ARG)
  2565 ;;                         ___flge (ARG)
  2566 ;;                         _frexp (ARG)
  2567 ;;                         ___flpack (ARG)
  2568 ;;                   ___fltol (ARG)
  2569 ;;                     ___flge (ARG)
  2570 ;;                     _frexp (ARG)
  2571 ;;                     ___flpack (ARG)
  2572 ;;                   _frexp (ARG)
  2573 ;;                   ___awtofl (ARG)
  2574 ;;                     ___flpack
  2575 ;;                     ___fltol (ARG)
  2576 ;;                       ___flge (ARG)
  2577 ;;                       _frexp (ARG)
  2578 ;;                       ___flpack (ARG)
  2579 ;;             ___awtofl
  2580 ;;               ___flpack
  2581 ;;               ___fltol (ARG)
  2582 ;;                 ___flge (ARG)
  2583 ;;                 _frexp (ARG)
  2584 ;;                 ___flpack (ARG)
  2585 ;;             ___fltol (ARG)
  2586 ;;               ___flge (ARG)
  2587 ;;               _frexp (ARG)
  2588 ;;               ___flpack (ARG)
  2589 ;;       ___fldiv
  2590 ;;         ___flpack
  2591 ;;         ___fltol (ARG)
  2592 ;;           ___flge (ARG)
  2593 ;;           _frexp (ARG)
  2594 ;;           ___flpack (ARG)
  2595 ;;       _floor
  2596 ;;         _frexp
  2597 ;;         ___flge
  2598 ;;         ___fltol
  2599 ;;           ___flge (ARG)
  2600 ;;           _frexp (ARG)
  2601 ;;           ___flpack (ARG)
  2602 ;;         ___altofl
  2603 ;;           ___flpack
  2604 ;;           ___fltol (ARG)
  2605 ;;             ___flge (ARG)
  2606 ;;             _frexp (ARG)
  2607 ;;             ___flpack (ARG)
  2608 ;;         ___fladd
  2609 ;;           ___flpack
  2610 ;;           ___flneg (ARG)
  2611 ;;             ___flpack (ARG)
  2612 ;;           ___flmul (ARG)
  2613 ;;             ___flpack
  2614 ;;             ___flneg (ARG)
  2615 ;;               ___flpack (ARG)
  2616 ;;             ___fltol (ARG)
  2617 ;;               ___flge (ARG)
  2618 ;;               _frexp (ARG)
  2619 ;;               ___flpack (ARG)
  2620 ;;             ___awtofl (ARG)
  2621 ;;               ___flpack
  2622 ;;               ___fltol (ARG)
  2623 ;;                 ___flge (ARG)
  2624 ;;                 _frexp (ARG)
  2625 ;;                 ___flpack (ARG)
  2626 ;;             _frexp (ARG)
  2627 ;;             ___fldiv (ARG)
  2628 ;;               ___flpack
  2629 ;;               ___fltol (ARG)
  2630 ;;                 ___flge (ARG)
  2631 ;;                 _frexp (ARG)
  2632 ;;                 ___flpack (ARG)
  2633 ;;           ___fltol (ARG)
  2634 ;;             ___flge (ARG)
  2635 ;;             _frexp (ARG)
  2636 ;;             ___flpack (ARG)
  2637 ;;           _frexp (ARG)
  2638 ;;           ___awtofl (ARG)
  2639 ;;             ___flpack
  2640 ;;             ___fltol (ARG)
  2641 ;;               ___flge (ARG)
  2642 ;;               _frexp (ARG)
  2643 ;;               ___flpack (ARG)
  2644 ;;         ___fldiv (ARG)
  2645 ;;           ___flpack
  2646 ;;           ___fltol (ARG)
  2647 ;;             ___flge (ARG)
  2648 ;;             _frexp (ARG)
  2649 ;;             ___flpack (ARG)
  2650 ;;       ___flmul
  2651 ;;         ___flpack
  2652 ;;         ___flneg (ARG)
  2653 ;;           ___flpack (ARG)
  2654 ;;         ___fltol (ARG)
  2655 ;;           ___flge (ARG)
  2656 ;;           _frexp (ARG)
  2657 ;;           ___flpack (ARG)
  2658 ;;         ___awtofl (ARG)
  2659 ;;           ___flpack
  2660 ;;           ___fltol (ARG)
  2661 ;;             ___flge (ARG)
  2662 ;;             _frexp (ARG)
  2663 ;;             ___flpack (ARG)
  2664 ;;         _frexp (ARG)
  2665 ;;         ___fldiv (ARG)
  2666 ;;           ___flpack
  2667 ;;           ___fltol (ARG)
  2668 ;;             ___flge (ARG)
  2669 ;;             _frexp (ARG)
  2670 ;;             ___flpack (ARG)
  2671 ;;       ___flsub
  2672 ;;         ___fladd
  2673 ;;           ___flpack
  2674 ;;           ___flneg (ARG)
  2675 ;;             ___flpack (ARG)
  2676 ;;           ___flmul (ARG)
  2677 ;;             ___flpack
  2678 ;;             ___flneg (ARG)
  2679 ;;               ___flpack (ARG)
  2680 ;;             ___fltol (ARG)
  2681 ;;               ___flge (ARG)
  2682 ;;               _frexp (ARG)
  2683 ;;               ___flpack (ARG)
  2684 ;;             ___awtofl (ARG)
  2685 ;;               ___flpack
  2686 ;;               ___fltol (ARG)
  2687 ;;                 ___flge (ARG)
  2688 ;;                 _frexp (ARG)
  2689 ;;                 ___flpack (ARG)
  2690 ;;             _frexp (ARG)
  2691 ;;             ___fldiv (ARG)
  2692 ;;               ___flpack
  2693 ;;               ___fltol (ARG)
  2694 ;;                 ___flge (ARG)
  2695 ;;                 _frexp (ARG)
  2696 ;;                 ___flpack (ARG)
  2697 ;;           ___fltol (ARG)
  2698 ;;             ___flge (ARG)
  2699 ;;             _frexp (ARG)
  2700 ;;             ___flpack (ARG)
  2701 ;;           _frexp (ARG)
  2702 ;;           ___awtofl (ARG)
  2703 ;;             ___flpack
  2704 ;;             ___fltol (ARG)
  2705 ;;               ___flge (ARG)
  2706 ;;               _frexp (ARG)
  2707 ;;               ___flpack (ARG)
  2708 ;;         ___flmul (ARG)
  2709 ;;           ___flpack
  2710 ;;           ___flneg (ARG)
  2711 ;;             ___flpack (ARG)
  2712 ;;           ___fltol (ARG)
  2713 ;;             ___flge (ARG)
  2714 ;;             _frexp (ARG)
  2715 ;;             ___flpack (ARG)
  2716 ;;           ___awtofl (ARG)
  2717 ;;             ___flpack
  2718 ;;             ___fltol (ARG)
  2719 ;;               ___flge (ARG)
  2720 ;;               _frexp (ARG)
  2721 ;;               ___flpack (ARG)
  2722 ;;           _frexp (ARG)
  2723 ;;           ___fldiv (ARG)
  2724 ;;             ___flpack
  2725 ;;             ___fltol (ARG)
  2726 ;;               ___flge (ARG)
  2727 ;;               _frexp (ARG)
  2728 ;;               ___flpack (ARG)
  2729 ;;         ___awtofl (ARG)
  2730 ;;           ___flpack
  2731 ;;           ___fltol (ARG)
  2732 ;;             ___flge (ARG)
  2733 ;;             _frexp (ARG)
  2734 ;;             ___flpack (ARG)
  2735 ;;       _output_putch
  2736 ;;         _ser_putch
  2737 ;;       _format_putchar
  2738 ;;       _ser_putch
  2739 ;;       ___flge
  2740 ;;     _ser_putch
  2741 ;;     ___flge
  2742 ;;     ___flmul
  2743 ;;       ___flpack
  2744 ;;       ___flneg (ARG)
  2745 ;;         ___flpack (ARG)
  2746 ;;       ___fltol (ARG)
  2747 ;;         ___flge (ARG)
  2748 ;;         _frexp (ARG)
  2749 ;;         ___flpack (ARG)
  2750 ;;       ___awtofl (ARG)
  2751 ;;         ___flpack
  2752 ;;         ___fltol (ARG)
  2753 ;;           ___flge (ARG)
  2754 ;;           _frexp (ARG)
  2755 ;;           ___flpack (ARG)
  2756 ;;       _frexp (ARG)
  2757 ;;       ___fldiv (ARG)
  2758 ;;         ___flpack
  2759 ;;         ___fltol (ARG)
  2760 ;;           ___flge (ARG)
  2761 ;;           _frexp (ARG)
  2762 ;;           ___flpack (ARG)
  2763 ;;     ___flneg
  2764 ;;       ___flpack (ARG)
  2765 ;;     ___fladd
  2766 ;;       ___flpack
  2767 ;;       ___flneg (ARG)
  2768 ;;         ___flpack (ARG)
  2769 ;;       ___flmul (ARG)
  2770 ;;         ___flpack
  2771 ;;         ___flneg (ARG)
  2772 ;;           ___flpack (ARG)
  2773 ;;         ___fltol (ARG)
  2774 ;;           ___flge (ARG)
  2775 ;;           _frexp (ARG)
  2776 ;;           ___flpack (ARG)
  2777 ;;         ___awtofl (ARG)
  2778 ;;           ___flpack
  2779 ;;           ___fltol (ARG)
  2780 ;;             ___flge (ARG)
  2781 ;;             _frexp (ARG)
  2782 ;;             ___flpack (ARG)
  2783 ;;         _frexp (ARG)
  2784 ;;         ___fldiv (ARG)
  2785 ;;           ___flpack
  2786 ;;           ___fltol (ARG)
  2787 ;;             ___flge (ARG)
  2788 ;;             _frexp (ARG)
  2789 ;;             ___flpack (ARG)
  2790 ;;       ___fltol (ARG)
  2791 ;;         ___flge (ARG)
  2792 ;;         _frexp (ARG)
  2793 ;;         ___flpack (ARG)
  2794 ;;       _frexp (ARG)
  2795 ;;       ___awtofl (ARG)
  2796 ;;         ___flpack
  2797 ;;         ___fltol (ARG)
  2798 ;;           ___flge (ARG)
  2799 ;;           _frexp (ARG)
  2800 ;;           ___flpack (ARG)
  2801 ;;     ___fldiv
  2802 ;;       ___flpack
  2803 ;;       ___fltol (ARG)
  2804 ;;         ___flge (ARG)
  2805 ;;         _frexp (ARG)
  2806 ;;         ___flpack (ARG)
  2807 ;;     ___fltol
  2808 ;;       ___flge (ARG)
  2809 ;;       _frexp (ARG)
  2810 ;;       ___flpack (ARG)
  2811 ;;     _print_reading
  2812 ;;     _print_unit
  2813 ;;   _measure_inductance
  2814 ;;     _measure_freq
  2815 ;;     ___lwtofl
  2816 ;;       ___flpack
  2817 ;;       _measure_freq (ARG)
  2818 ;;     ___flge
  2819 ;;     ___flneg
  2820 ;;       ___flpack (ARG)
  2821 ;;     ___fladd
  2822 ;;       ___flpack
  2823 ;;       ___flneg (ARG)
  2824 ;;         ___flpack (ARG)
  2825 ;;       ___flmul (ARG)
  2826 ;;         ___flpack
  2827 ;;         ___flneg (ARG)
  2828 ;;           ___flpack (ARG)
  2829 ;;         ___fltol (ARG)
  2830 ;;           ___flge (ARG)
  2831 ;;           _frexp (ARG)
  2832 ;;           ___flpack (ARG)
  2833 ;;         ___awtofl (ARG)
  2834 ;;           ___flpack
  2835 ;;           ___fltol (ARG)
  2836 ;;             ___flge (ARG)
  2837 ;;             _frexp (ARG)
  2838 ;;             ___flpack (ARG)
  2839 ;;         _frexp (ARG)
  2840 ;;         ___fldiv (ARG)
  2841 ;;           ___flpack
  2842 ;;           ___fltol (ARG)
  2843 ;;             ___flge (ARG)
  2844 ;;             _frexp (ARG)
  2845 ;;             ___flpack (ARG)
  2846 ;;       ___fltol (ARG)
  2847 ;;         ___flge (ARG)
  2848 ;;         _frexp (ARG)
  2849 ;;         ___flpack (ARG)
  2850 ;;       _frexp (ARG)
  2851 ;;       ___awtofl (ARG)
  2852 ;;         ___flpack
  2853 ;;         ___fltol (ARG)
  2854 ;;           ___flge (ARG)
  2855 ;;           _frexp (ARG)
  2856 ;;           ___flpack (ARG)
  2857 ;;     ___flmul
  2858 ;;       ___flpack
  2859 ;;       ___flneg (ARG)
  2860 ;;         ___flpack (ARG)
  2861 ;;       ___fltol (ARG)
  2862 ;;         ___flge (ARG)
  2863 ;;         _frexp (ARG)
  2864 ;;         ___flpack (ARG)
  2865 ;;       ___awtofl (ARG)
  2866 ;;         ___flpack
  2867 ;;         ___fltol (ARG)
  2868 ;;           ___flge (ARG)
  2869 ;;           _frexp (ARG)
  2870 ;;           ___flpack (ARG)
  2871 ;;       _frexp (ARG)
  2872 ;;       ___fldiv (ARG)
  2873 ;;         ___flpack
  2874 ;;         ___fltol (ARG)
  2875 ;;           ___flge (ARG)
  2876 ;;           _frexp (ARG)
  2877 ;;           ___flpack (ARG)
  2878 ;;     ___fldiv
  2879 ;;       ___flpack
  2880 ;;       ___fltol (ARG)
  2881 ;;         ___flge (ARG)
  2882 ;;         _frexp (ARG)
  2883 ;;         ___flpack (ARG)
  2884 ;;     ___fltol
  2885 ;;       ___flge (ARG)
  2886 ;;       _frexp (ARG)
  2887 ;;       ___flpack (ARG)
  2888 ;;     _print_reading
  2889 ;;     _print_unit
  2890 ;;   _indicator
  2891 ;;
  2892 ;; _isr (ROOT)
  2893 ;;
  2894                           
  2895 ;; Address spaces:
  2896                           
  2897 ;;Name               Size   Autos  Total    Cost      Usage
  2898 ;;BANK3               60     1F      53       9       86.5%
  2899 ;;BITBANK3            60      0       0       8        0.0%
  2900 ;;SFR3                 0      0       0       4        0.0%
  2901 ;;BITSFR3              0      0       0       4        0.0%
  2902 ;;BANK2               60      0      10      11       16.7%
  2903 ;;BITBANK2            60      0       0      10        0.0%
  2904 ;;SFR2                 0      0       0       5        0.0%
  2905 ;;BITSFR2              0      0       0       5        0.0%
  2906 ;;SFR1                 0      0       0       2        0.0%
  2907 ;;BITSFR1              0      0       0       2        0.0%
  2908 ;;BANK1               50     4B      50       7      100.0%
  2909 ;;BITBANK1            50      0       0       6        0.0%
  2910 ;;CODE                 0      0       0       0        0.0%
  2911 ;;DATA                 0      0     114      12        0.0%
  2912 ;;ABS                  0      0     10D       3        0.0%
  2913 ;;NULL                 0      0       0       0        0.0%
  2914 ;;STACK                0      0       7       2        0.0%
  2915 ;;BANK0               50     50      50       5      100.0%
  2916 ;;BITBANK0            50      0       0       4        0.0%
  2917 ;;SFR0                 0      0       0       1        0.0%
  2918 ;;BITSFR0              0      0       0       1        0.0%
  2919 ;;COMMON               E      5       A       1       71.4%
  2920 ;;BITCOMMON            E      0       0       0        0.0%
  2921 ;;EEDATA             100      0       0       0        0.0%
  2922                           
  2923                           	global	_main
  2924                           psect	maintext,global,class=CODE,delta=2
  2925                           global __pmaintext
  2926  0000'                    __pmaintext:
  2927                           
  2928 ;; *************** function _main *****************
  2929 ;; Defined at:
  2930 ;;		line 115 in file "../../../src/LC-meter.c"
  2931 ;; Parameters:    Size  Location     Type
  2932 ;;		None
  2933 ;; Auto vars:     Size  Location     Type
  2934 ;;		None
  2935 ;; Return value:  Size  Location     Type
  2936 ;;		None               void
  2937 ;; Registers used:
  2938 ;;		wreg, fsr0l, fsr0h, status,2, status,0, btemp+1, pclath, cstack
  2939 ;; Tracked objects:
  2940 ;;		On entry : 17F/0
  2941 ;;		On exit  : 0/0
  2942 ;;		Unchanged: 0/0
  2943 ;; Data sizes:     COMMON   BANK0   BANK1   BANK3   BANK2
  2944 ;;      Params:         0       0       0       0       0
  2945 ;;      Locals:         0       0       0       0       0
  2946 ;;      Temps:          0       0       1       0       0
  2947 ;;      Totals:         0       0       1       0       0
  2948 ;;Total ram usage:        1 bytes
  2949 ;; Hardware stack levels required when called:    8
  2950 ;; This function calls:
  2951 ;;		_timer2_init
  2952 ;;		_delay10ms
  2953 ;;		_ser_init
  2954 ;;		_calibrate
  2955 ;;		_ser_puts
  2956 ;;		_measure_capacitance
  2957 ;;		_measure_inductance
  2958 ;;		_indicator
  2959 ;; This function is called by:
  2960 ;;		Startup code after reset
  2961 ;; This function uses a non-reentrant model
  2962 ;;
  2963                           psect	maintext
  2964                           	file	"../../../src/LC-meter.c"
  2965                           	line	115
  2966                           	global	__size_of_main
  2967  00D1                     	__size_of_main	equ	__end_of_main-_main
  2968                           	
  2969  0000'                    _main:	
  2970                           	opt	stack 0
  2971                           ; Regs used in _main: [wreg-fsr0h+status,2+status,0+btemp+1+pclath+cstack]
  2972                           	line	116
  2973                           	
  2974  0000'                    l10151:	
  2975                           ;LC-meter.c: 116: bres = msecpart = msecs = seconds = 0;
  2976  0000' 3000               	movlw	0
  2977  0001' 1683               	bsf	status, 5	;RP0=1, select bank3
  2978  0002' 1703               	bsf	status, 6	;RP1=1, select bank3
  2979  0003' 0080'              	movwf	(_seconds+3)^0180h	;volatile
  2980  0004' 3000               	movlw	0
  2981  0005' 0080'              	movwf	(_seconds+2)^0180h	;volatile
  2982  0006' 3000               	movlw	0
  2983  0007' 0080'              	movwf	(_seconds+1)^0180h	;volatile
  2984  0008' 3000               	movlw	0
  2985  0009' 0080'              	movwf	(_seconds)^0180h	;volatile
  2986                           
  2987  000A' 0800'              	movf	((_seconds+3)^0180h),w	;volatile
  2988  000B' 0080'              	movwf	(_msecs+3)^0180h	;volatile
  2989  000C' 0800'              	movf	((_seconds+2)^0180h),w	;volatile
  2990  000D' 0080'              	movwf	(_msecs+2)^0180h	;volatile
  2991  000E' 0800'              	movf	((_seconds+1)^0180h),w	;volatile
  2992  000F' 0080'              	movwf	(_msecs+1)^0180h	;volatile
  2993  0010' 0800'              	movf	((_seconds)^0180h),w	;volatile
  2994  0011' 0080'              	movwf	(_msecs)^0180h	;volatile
  2995                           
  2996  0012' 0801'              	movf	1+((((_msecs)^0180h))),w	;volatile
  2997  0013' 0180'              	clrf	(_msecpart+1)^0180h	;volatile
  2998  0014' 0780'              	addwf	(_msecpart+1)^0180h	;volatile
  2999  0015' 0800'              	movf	0+((((_msecs)^0180h))),w	;volatile
  3000  0016' 0180'              	clrf	(_msecpart)^0180h	;volatile
  3001  0017' 0780'              	addwf	(_msecpart)^0180h	;volatile
  3002                           
  3003  0018' 0800'              	movf	((_msecpart+1)^0180h),w	;volatile
  3004  0019' 0180'              	clrf	(_bres+1)^0180h	;volatile
  3005  001A' 0780'              	addwf	(_bres+1)^0180h	;volatile
  3006  001B' 0800'              	movf	((_msecpart)^0180h),w	;volatile
  3007  001C' 0180'              	clrf	(_bres)^0180h	;volatile
  3008  001D' 0780'              	addwf	(_bres)^0180h	;volatile
  3009                           
  3010                           	line	118
  3011                           	
  3012  001E'                    l10153:	
  3013                           ;LC-meter.c: 118: CCal = 1000;
  3014  001E' 3044               	movlw	0x44
  3015  001F' 0080'              	movwf	(_CCal+3)^0180h
  3016  0020' 307A               	movlw	0x7a
  3017  0021' 0080'              	movwf	(_CCal+2)^0180h
  3018  0022' 3000               	movlw	0x0
  3019  0023' 0080'              	movwf	(_CCal+1)^0180h
  3020  0024' 3000               	movlw	0x0
  3021  0025' 0080'              	movwf	(_CCal)^0180h
  3022                           
  3023                           	line	125
  3024                           	
  3025  0026'                    l10155:	
  3026                           ;LC-meter.c: 125: CMCON = 0b00000101;
  3027  0026' 3005               	movlw	(05h)
  3028  0027' 1683               	bsf	status, 5	;RP0=1, select bank1
  3029  0028' 1303               	bcf	status, 6	;RP1=0, select bank1
  3030  0029' 009C               	movwf	(156)^080h	;volatile
  3031                           	line	127
  3032                           	
  3033  002A'                    l10157:	
  3034                           ;LC-meter.c: 127: TRISA = 0b11001111;
  3035  002A' 30CF               	movlw	(0CFh)
  3036  002B' 0085               	movwf	(133)^080h	;volatile
  3037                           	line	129
  3038                           	
  3039  002C'                    l10159:	
  3040                           ;LC-meter.c: 129: T0CS = 1;
  3041  002C' 1681               	bsf	(1037/8)^080h,(1037)&7
  3042                           	line	130
  3043                           	
  3044  002D'                    l10161:	
  3045                           ;LC-meter.c: 130: T0SE = 1;
  3046  002D' 1601               	bsf	(1036/8)^080h,(1036)&7
  3047                           	line	141
  3048                           	
  3049  002E'                    l10163:	
  3050                           ;LC-meter.c: 141: nRBPU = 0;
  3051  002E' 1381               	bcf	(1039/8)^080h,(1039)&7
  3052                           	line	144
  3053                           	
  3054  002F'                    l10165:	
  3055                           ;LC-meter.c: 144: TRISC3 = 0;
  3056  002F' 1187               	bcf	(1083/8)^080h,(1083)&7
  3057                           	line	145
  3058                           	
  3059  0030'                    l10167:	
  3060                           ;LC-meter.c: 145: RC3 = ((1) == 0);
  3061  0030' 1283               	bcf	status, 5	;RP0=0, select bank0
  3062  0031' 1303               	bcf	status, 6	;RP1=0, select bank0
  3063  0032' 1187               	bcf	(59/8),(59)&7
  3064                           	line	147
  3065                           	
  3066  0033'                    l10169:	
  3067                           ;LC-meter.c: 147: SSPEN = 0;
  3068  0033' 1294               	bcf	(165/8),(165)&7
  3069                           	line	152
  3070                           	
  3071  0034'                    l10171:	
  3072                           ;LC-meter.c: 152: timer2_init(0b000 | 0x80);
  3073  0034' 3080               	movlw	(080h)
  3074  0035' 120A' 118A' 2000'  	fcall	_timer2_init
              120A' 118A'        
  3075                           	line	157
  3076                           	
  3077  003A'                    l10173:	
  3078                           ;LC-meter.c: 157: TRISC1 = 0;
  3079  003A' 1683               	bsf	status, 5	;RP0=1, select bank1
  3080  003B' 1303               	bcf	status, 6	;RP1=0, select bank1
  3081  003C' 1087               	bcf	(1081/8)^080h,(1081)&7
  3082                           	line	160
  3083                           	
  3084  003D'                    l10175:	
  3085                           ;LC-meter.c: 160: TRISC3 = 0;
  3086  003D' 1187               	bcf	(1083/8)^080h,(1083)&7
  3087                           	line	162
  3088                           	
  3089  003E'                    l10177:	
  3090                           ;LC-meter.c: 162: TRISC0 = 1;
  3091  003E' 1407               	bsf	(1080/8)^080h,(1080)&7
  3092                           	line	163
  3093                           	
  3094  003F'                    l10179:	
  3095                           ;LC-meter.c: 163: TRISC2 = 1;
  3096  003F' 1507               	bsf	(1082/8)^080h,(1082)&7
  3097                           	line	173
  3098                           	
  3099  0040'                    l10181:	
  3100                           ;LC-meter.c: 173: TRISC4 = 1;
  3101  0040' 1607               	bsf	(1084/8)^080h,(1084)&7
  3102                           	line	174
  3103                           	
  3104  0041'                    l10183:	
  3105                           ;LC-meter.c: 174: TRISC5 = 0;
  3106  0041' 1287               	bcf	(1085/8)^080h,(1085)&7
  3107                           	line	176
  3108                           	
  3109  0042'                    l10185:	
  3110                           ;LC-meter.c: 176: RC5 = 0;
  3111  0042' 1283               	bcf	status, 5	;RP0=0, select bank0
  3112  0043' 1303               	bcf	status, 6	;RP1=0, select bank0
  3113  0044' 1287               	bcf	(61/8),(61)&7
  3114                           	line	177
  3115                           	
  3116  0045'                    l10187:	
  3117                           ;LC-meter.c: 177: delay10ms(50);
  3118  0045' 3032               	movlw	low(032h)
  3119  0046' 0086'              	movwf	(?_delay10ms)
  3120  0047' 3000               	movlw	high(032h)
  3121  0048' 0087'              	movwf	((?_delay10ms))+1
  3122  0049' 120A' 118A' 2000'  	fcall	_delay10ms
              120A' 118A'        
  3123                           	line	178
  3124                           	
  3125  004E'                    l10189:	
  3126                           ;LC-meter.c: 178: RC5 = 1;
  3127  004E' 1283               	bcf	status, 5	;RP0=0, select bank0
  3128  004F' 1303               	bcf	status, 6	;RP1=0, select bank0
  3129  0050' 1687               	bsf	(61/8),(61)&7
  3130                           	line	179
  3131                           	
  3132  0051'                    l10191:	
  3133                           ;LC-meter.c: 179: delay10ms(50);
  3134  0051' 3032               	movlw	low(032h)
  3135  0052' 0086'              	movwf	(?_delay10ms)
  3136  0053' 3000               	movlw	high(032h)
  3137  0054' 0087'              	movwf	((?_delay10ms))+1
  3138  0055' 120A' 118A' 2000'  	fcall	_delay10ms
              120A' 118A'        
  3139                           	line	180
  3140                           	
  3141  005A'                    l10193:	
  3142                           ;LC-meter.c: 180: RC5 = 0;
  3143  005A' 1283               	bcf	status, 5	;RP0=0, select bank0
  3144  005B' 1303               	bcf	status, 6	;RP1=0, select bank0
  3145  005C' 1287               	bcf	(61/8),(61)&7
  3146                           	line	181
  3147                           	
  3148  005D'                    l10195:	
  3149                           ;LC-meter.c: 181: delay10ms(50);
  3150  005D' 3032               	movlw	low(032h)
  3151  005E' 0086'              	movwf	(?_delay10ms)
  3152  005F' 3000               	movlw	high(032h)
  3153  0060' 0087'              	movwf	((?_delay10ms))+1
  3154  0061' 120A' 118A' 2000'  	fcall	_delay10ms
              120A' 118A'        
  3155                           	line	182
  3156                           	
  3157  0066'                    l10197:	
  3158                           ;LC-meter.c: 182: RC5 = 1;
  3159  0066' 1283               	bcf	status, 5	;RP0=0, select bank0
  3160  0067' 1303               	bcf	status, 6	;RP1=0, select bank0
  3161  0068' 1687               	bsf	(61/8),(61)&7
  3162                           	line	183
  3163                           	
  3164  0069'                    l10199:	
  3165                           ;LC-meter.c: 183: delay10ms(50);
  3166  0069' 3032               	movlw	low(032h)
  3167  006A' 0086'              	movwf	(?_delay10ms)
  3168  006B' 3000               	movlw	high(032h)
  3169  006C' 0087'              	movwf	((?_delay10ms))+1
  3170  006D' 120A' 118A' 2000'  	fcall	_delay10ms
              120A' 118A'        
  3171                           	line	184
  3172                           	
  3173  0072'                    l10201:	
  3174                           ;LC-meter.c: 184: RC5 = 0;
  3175  0072' 1283               	bcf	status, 5	;RP0=0, select bank0
  3176  0073' 1303               	bcf	status, 6	;RP1=0, select bank0
  3177  0074' 1287               	bcf	(61/8),(61)&7
  3178                           	line	187
  3179                           	
  3180  0075'                    l10203:	
  3181                           ;LC-meter.c: 187: ser_init();
  3182  0075' 120A' 118A' 2000'  	fcall	_ser_init
              120A' 118A'        
  3183                           	line	192
  3184                           	
  3185  007A'                    l10205:	
  3186                           ;LC-meter.c: 192: TRISC &= ~0b01000000;
  3187  007A' 30BF               	movlw	(0BFh)
  3188  007B' 1683               	bsf	status, 5	;RP0=1, select bank1
  3189  007C' 1303               	bcf	status, 6	;RP1=0, select bank1
  3190  007D' 0080'              	movwf	(??_main+0)^080h+0
  3191  007E' 0800'              	movf	(??_main+0)^080h+0,w
  3192  007F' 0587               	andwf	(135)^080h,f	;volatile
  3193                           	line	194
  3194                           	
  3195  0080'                    l10207:	
  3196                           ;LC-meter.c: 194: PEIE = 1;
  3197  0080' 170B               	bsf	(94/8),(94)&7
  3198                           	line	195
  3199                           	
  3200  0081'                    l10209:	
  3201                           ;LC-meter.c: 195: GIE = 1;
  3202  0081' 178B               	bsf	(95/8),(95)&7
  3203                           	line	214
  3204                           	
  3205  0082'                    l10211:	
  3206                           ;LC-meter.c: 214: delay10ms(200);
  3207  0082' 30C8               	movlw	low(0C8h)
  3208  0083' 1283               	bcf	status, 5	;RP0=0, select bank0
  3209  0084' 1303               	bcf	status, 6	;RP1=0, select bank0
  3210  0085' 0086'              	movwf	(?_delay10ms)
  3211  0086' 3000               	movlw	high(0C8h)
  3212  0087' 0087'              	movwf	((?_delay10ms))+1
  3213  0088' 120A' 118A' 2000'  	fcall	_delay10ms
              120A' 118A'        
  3214                           	line	217
  3215                           	
  3216  008D'                    l10213:	
  3217                           ;LC-meter.c: 217: calibrate();
  3218  008D' 120A' 118A' 2000'  	fcall	_calibrate
              120A' 118A'        
  3219  0092' 2800'              	goto	l10215
  3220                           	line	228
  3221                           ;LC-meter.c: 228: for(;;) {
  3222                           	
  3223  0093'                    l3271:	
  3224                           	line	230
  3225                           	
  3226  0093'                    l10215:	
  3227                           ;LC-meter.c: 230: ser_puts("...\r\n");
  3228  0093' 3055               	movlw	((STR_1-__stringbase))&0ffh
  3229  0094' 120A' 118A' 2000'  	fcall	_ser_puts
              120A' 118A'        
  3230                           	line	231
  3231                           	
  3232  0099'                    l10217:	
  3233                           ;LC-meter.c: 231: if(RC4)
  3234  0099' 1283               	bcf	status, 5	;RP0=0, select bank0
  3235  009A' 1303               	bcf	status, 6	;RP1=0, select bank0
  3236  009B' 1E07               	btfss	(60/8),(60)&7
  3237  009C' 2800'              	goto	u6641
  3238  009D' 2800'              	goto	u6640
  3239  009E'                    u6641:
  3240  009E' 2800'              	goto	l10221
  3241  009F'                    u6640:
  3242                           	line	232
  3243                           	
  3244  009F'                    l10219:	
  3245                           ;LC-meter.c: 232: measure_capacitance();
  3246  009F' 120A' 118A' 2000'  	fcall	_measure_capacitance
              120A' 118A'        
  3247  00A4' 2800'              	goto	l10223
  3248                           	line	233
  3249                           	
  3250  00A5'                    l3272:	
  3251                           	line	234
  3252                           	
  3253  00A5'                    l10221:	
  3254                           ;LC-meter.c: 233: else
  3255                           ;LC-meter.c: 234: measure_inductance();
  3256  00A5' 120A' 118A' 2000'  	fcall	_measure_inductance
              120A' 118A'        
  3257  00AA' 2800'              	goto	l10223
  3258                           	
  3259  00AB'                    l3273:	
  3260                           	line	236
  3261                           	
  3262  00AB'                    l10223:	
  3263                           ;LC-meter.c: 236: indicator(1);
  3264  00AB' 3001               	movlw	(01h)
  3265  00AC' 120A' 118A' 2000'  	fcall	_indicator
              120A' 118A'        
  3266                           	line	237
  3267                           	
  3268  00B1'                    l10225:	
  3269                           ;LC-meter.c: 237: delay10ms(30);
  3270  00B1' 301E               	movlw	low(01Eh)
  3271  00B2' 1283               	bcf	status, 5	;RP0=0, select bank0
  3272  00B3' 1303               	bcf	status, 6	;RP1=0, select bank0
  3273  00B4' 0086'              	movwf	(?_delay10ms)
  3274  00B5' 3000               	movlw	high(01Eh)
  3275  00B6' 0087'              	movwf	((?_delay10ms))+1
  3276  00B7' 120A' 118A' 2000'  	fcall	_delay10ms
              120A' 118A'        
  3277                           	line	238
  3278                           	
  3279  00BC'                    l10227:	
  3280                           ;LC-meter.c: 238: indicator(0);
  3281  00BC' 3000               	movlw	(0)
  3282  00BD' 120A' 118A' 2000'  	fcall	_indicator
              120A' 118A'        
  3283                           	line	239
  3284                           	
  3285  00C2'                    l10229:	
  3286                           ;LC-meter.c: 239: delay10ms(20);
  3287  00C2' 3014               	movlw	low(014h)
  3288  00C3' 1283               	bcf	status, 5	;RP0=0, select bank0
  3289  00C4' 1303               	bcf	status, 6	;RP1=0, select bank0
  3290  00C5' 0086'              	movwf	(?_delay10ms)
  3291  00C6' 3000               	movlw	high(014h)
  3292  00C7' 0087'              	movwf	((?_delay10ms))+1
  3293  00C8' 120A' 118A' 2000'  	fcall	_delay10ms
              120A' 118A'        
  3294                           	line	240
  3295                           ;LC-meter.c: 240: }
  3296  00CD' 2800'              	goto	l10215
  3297                           	
  3298  00CE'                    l3274:	
  3299                           	line	241
  3300                           	
  3301  00CE'                    l3275:	
  3302                           	global	start
  3303  00CE' 120A' 118A' 2800'  	ljmp	start
  3304                           	opt stack 0
  3305                           GLOBAL	__end_of_main
  3306  00D1'                    	__end_of_main:
  3307 ;; =============== function _main ends ============
  3308                           
  3309                           	signat	_main,88
  3310                           	global	_measure_capacitance
  3311                           psect	text1438,local,class=CODE,delta=2
  3312                           global __ptext1438
  3313  0000'                    __ptext1438:
  3314                           
  3315 ;; *************** function _measure_capacitance *****************
  3316 ;; Defined at:
  3317 ;;		line 392 in file "../../../src/LC-meter.c"
  3318 ;; Parameters:    Size  Location     Type
  3319 ;;		None
  3320 ;; Auto vars:     Size  Location     Type
  3321 ;;  Cin             4   27[BANK3 ] PTR const unsigned char 
  3322 ;;  var             2   25[BANK3 ] unsigned int 
  3323 ;;  unit            1   24[BANK3 ] unsigned char 
  3324 ;; Return value:  Size  Location     Type
  3325 ;;		None               void
  3326 ;; Registers used:
  3327 ;;		wreg, fsr0l, fsr0h, status,2, status,0, btemp+1, pclath, cstack
  3328 ;; Tracked objects:
  3329 ;;		On entry : 0/0
  3330 ;;		On exit  : 0/0
  3331 ;;		Unchanged: 0/0
  3332 ;; Data sizes:     COMMON   BANK0   BANK1   BANK3   BANK2
  3333 ;;      Params:         0       0       0       0       0
  3334 ;;      Locals:         0       0       0      15       0
  3335 ;;      Temps:          0       0       1       0       0
  3336 ;;      Totals:         0       0       1      15       0
  3337 ;;Total ram usage:       16 bytes
  3338 ;; Hardware stack levels used:    1
  3339 ;; Hardware stack levels required when called:    7
  3340 ;; This function calls:
  3341 ;;		_measure_freq
  3342 ;;		___lwtofl
  3343 ;;		_ser_puts
  3344 ;;		_format_xint32
  3345 ;;		_format_double
  3346 ;;		_ser_putch
  3347 ;;		___flge
  3348 ;;		___flmul
  3349 ;;		___flneg
  3350 ;;		___fladd
  3351 ;;		___fldiv
  3352 ;;		___fltol
  3353 ;;		_print_reading
  3354 ;;		_print_unit
  3355 ;; This function is called by:
  3356 ;;		_main
  3357 ;; This function uses a non-reentrant model
  3358 ;;
  3359                           psect	text1438
  3360                           	file	"../../../src/LC-meter.c"
  3361                           	line	392
  3362                           	global	__size_of_measure_capacitance
  3363  057F                     	__size_of_measure_capacitance	equ	__end_of_measure_capacitance-_measure_capacitance
  3364                           	
  3365  0000'                    _measure_capacitance:	
  3366                           	opt	stack 0
  3367                           ; Regs used in _measure_capacitance: [wreg-fsr0h+status,2+status,0+btemp+1+pclath+cstack
                                 ]
  3368                           	line	403
  3369                           	
  3370  0000'                    l10057:	
  3371                           ;LC-meter.c: 393: uint8_t unit;
  3372                           ;LC-meter.c: 394: uint16_t var;
  3373                           ;LC-meter.c: 396: double Cin;
  3374                           ;LC-meter.c: 403: var = measure_freq();
  3375  0000' 120A' 118A' 2000'  	fcall	_measure_freq
              120A' 118A'        
  3376  0005' 1283               	bcf	status, 5	;RP0=0, select bank0
  3377  0006' 1303               	bcf	status, 6	;RP1=0, select bank0
  3378  0007' 0801'              	movf	(1+(?_measure_freq)),w
  3379  0008' 1683               	bsf	status, 5	;RP0=1, select bank3
  3380  0009' 1703               	bsf	status, 6	;RP1=1, select bank3
  3381  000A' 0180'              	clrf	(measure_capacitance@var+1)^0180h
  3382  000B' 0780'              	addwf	(measure_capacitance@var+1)^0180h
  3383  000C' 1283               	bcf	status, 5	;RP0=0, select bank0
  3384  000D' 1303               	bcf	status, 6	;RP1=0, select bank0
  3385  000E' 0800'              	movf	(0+(?_measure_freq)),w
  3386  000F' 1683               	bsf	status, 5	;RP0=1, select bank3
  3387  0010' 1703               	bsf	status, 6	;RP1=1, select bank3
  3388  0011' 0180'              	clrf	(measure_capacitance@var)^0180h
  3389  0012' 0780'              	addwf	(measure_capacitance@var)^0180h
  3390                           
  3391                           	line	405
  3392                           	
  3393  0013'                    l10059:	
  3394                           ;LC-meter.c: 405: F3 = (double)var;
  3395  0013' 0800'              	movf	(measure_capacitance@var+1)^0180h,w
  3396  0014' 1283               	bcf	status, 5	;RP0=0, select bank0
  3397  0015' 1303               	bcf	status, 6	;RP1=0, select bank0
  3398  0016' 018D'              	clrf	(?___lwtofl+1)
  3399  0017' 078D'              	addwf	(?___lwtofl+1)
  3400  0018' 1683               	bsf	status, 5	;RP0=1, select bank3
  3401  0019' 1703               	bsf	status, 6	;RP1=1, select bank3
  3402  001A' 0800'              	movf	(measure_capacitance@var)^0180h,w
  3403  001B' 1283               	bcf	status, 5	;RP0=0, select bank0
  3404  001C' 1303               	bcf	status, 6	;RP1=0, select bank0
  3405  001D' 018C'              	clrf	(?___lwtofl)
  3406  001E' 078C'              	addwf	(?___lwtofl)
  3407                           
  3408  001F' 120A' 118A' 2000'  	fcall	___lwtofl
              120A' 118A'        
  3409  0024' 1283               	bcf	status, 5	;RP0=0, select bank0
  3410  0025' 1303               	bcf	status, 6	;RP1=0, select bank0
  3411  0026' 080F'              	movf	(3+(?___lwtofl)),w
  3412  0027' 1683               	bsf	status, 5	;RP0=1, select bank3
  3413  0028' 1703               	bsf	status, 6	;RP1=1, select bank3
  3414  0029' 0080'              	movwf	(_F3+3)^0180h
  3415  002A' 1283               	bcf	status, 5	;RP0=0, select bank0
  3416  002B' 1303               	bcf	status, 6	;RP1=0, select bank0
  3417  002C' 080E'              	movf	(2+(?___lwtofl)),w
  3418  002D' 1683               	bsf	status, 5	;RP0=1, select bank3
  3419  002E' 1703               	bsf	status, 6	;RP1=1, select bank3
  3420  002F' 0080'              	movwf	(_F3+2)^0180h
  3421  0030' 1283               	bcf	status, 5	;RP0=0, select bank0
  3422  0031' 1303               	bcf	status, 6	;RP1=0, select bank0
  3423  0032' 080D'              	movf	(1+(?___lwtofl)),w
  3424  0033' 1683               	bsf	status, 5	;RP0=1, select bank3
  3425  0034' 1703               	bsf	status, 6	;RP1=1, select bank3
  3426  0035' 0080'              	movwf	(_F3+1)^0180h
  3427  0036' 1283               	bcf	status, 5	;RP0=0, select bank0
  3428  0037' 1303               	bcf	status, 6	;RP1=0, select bank0
  3429  0038' 080C'              	movf	(0+(?___lwtofl)),w
  3430  0039' 1683               	bsf	status, 5	;RP0=1, select bank3
  3431  003A' 1703               	bsf	status, 6	;RP1=1, select bank3
  3432  003B' 0080'              	movwf	(_F3)^0180h
  3433                           
  3434                           	line	407
  3435                           	
  3436  003C'                    l10061:	
  3437                           ;LC-meter.c: 407: putchar_ptr = &ser_putch;
  3438  003C' 3004               	movlw	((fp__ser_putch-fpbase))&0ffh
  3439  003D' 1683               	bsf	status, 5	;RP0=1, select bank1
  3440  003E' 1303               	bcf	status, 6	;RP1=0, select bank1
  3441  003F' 0080'              	movwf	(??_measure_capacitance+0)^080h+0
  3442  0040' 0800'              	movf	(??_measure_capacitance+0)^080h+0,w
  3443  0041' 0080'              	movwf	(_putchar_ptr)
  3444                           	line	408
  3445                           	
  3446  0042'                    l10063:	
  3447                           ;LC-meter.c: 408: ser_puts("var=");
  3448  0042' 3072               	movlw	((STR_4-__stringbase))&0ffh
  3449  0043' 120A' 118A' 2000'  	fcall	_ser_puts
              120A' 118A'        
  3450                           	line	409
  3451                           	
  3452  0048'                    l10065:	
  3453                           ;LC-meter.c: 409: format_xint32( var);
  3454  0048' 1683               	bsf	status, 5	;RP0=1, select bank3
  3455  0049' 1703               	bsf	status, 6	;RP1=1, select bank3
  3456  004A' 0800'              	movf	(measure_capacitance@var)^0180h,w
  3457  004B' 1283               	bcf	status, 5	;RP0=0, select bank0
  3458  004C' 1303               	bcf	status, 6	;RP1=0, select bank0
  3459  004D' 00B4'              	movwf	(?_format_xint32)
  3460  004E' 1683               	bsf	status, 5	;RP0=1, select bank3
  3461  004F' 1703               	bsf	status, 6	;RP1=1, select bank3
  3462  0050' 0800'              	movf	(measure_capacitance@var+1)^0180h,w
  3463  0051' 1283               	bcf	status, 5	;RP0=0, select bank0
  3464  0052' 1303               	bcf	status, 6	;RP1=0, select bank0
  3465  0053' 00B5'              	movwf	((?_format_xint32))+1
  3466  0054' 01B6'              	clrf	2+((?_format_xint32))
  3467  0055' 01B7'              	clrf	3+((?_format_xint32))
  3468  0056' 120A' 118A' 2000'  	fcall	_format_xint32
              120A' 118A'        
  3469                           	line	410
  3470                           	
  3471  005B'                    l10067:	
  3472                           ;LC-meter.c: 410: ser_puts("\r\nF1=");
  3473  005B' 305B               	movlw	((STR_5-__stringbase))&0ffh
  3474  005C' 120A' 118A' 2000'  	fcall	_ser_puts
              120A' 118A'        
  3475                           	line	411
  3476                           	
  3477  0061'                    l10069:	
  3478                           ;LC-meter.c: 411: format_double( F1);
  3479  0061' 1683               	bsf	status, 5	;RP0=1, select bank3
  3480  0062' 1703               	bsf	status, 6	;RP1=1, select bank3
  3481  0063' 0800'              	movf	(_F1+3)^0180h,w
  3482  0064' 1683               	bsf	status, 5	;RP0=1, select bank1
  3483  0065' 1303               	bcf	status, 6	;RP1=0, select bank1
  3484  0066' 0080'              	movwf	(?_format_double+3)^080h
  3485  0067' 1683               	bsf	status, 5	;RP0=1, select bank3
  3486  0068' 1703               	bsf	status, 6	;RP1=1, select bank3
  3487  0069' 0800'              	movf	(_F1+2)^0180h,w
  3488  006A' 1683               	bsf	status, 5	;RP0=1, select bank1
  3489  006B' 1303               	bcf	status, 6	;RP1=0, select bank1
  3490  006C' 0080'              	movwf	(?_format_double+2)^080h
  3491  006D' 1683               	bsf	status, 5	;RP0=1, select bank3
  3492  006E' 1703               	bsf	status, 6	;RP1=1, select bank3
  3493  006F' 0800'              	movf	(_F1+1)^0180h,w
  3494  0070' 1683               	bsf	status, 5	;RP0=1, select bank1
  3495  0071' 1303               	bcf	status, 6	;RP1=0, select bank1
  3496  0072' 0080'              	movwf	(?_format_double+1)^080h
  3497  0073' 1683               	bsf	status, 5	;RP0=1, select bank3
  3498  0074' 1703               	bsf	status, 6	;RP1=1, select bank3
  3499  0075' 0800'              	movf	(_F1)^0180h,w
  3500  0076' 1683               	bsf	status, 5	;RP0=1, select bank1
  3501  0077' 1303               	bcf	status, 6	;RP1=0, select bank1
  3502  0078' 0080'              	movwf	(?_format_double)^080h
  3503                           
  3504  0079' 120A' 118A' 2000'  	fcall	_format_double
              120A' 118A'        
  3505                           	line	412
  3506                           	
  3507  007E'                    l10071:	
  3508                           ;LC-meter.c: 412: ser_putch(' ');
  3509  007E' 3020               	movlw	(020h)
  3510  007F' 1683               	bsf	status, 5	;RP0=1, select bank1
  3511  0080' 1303               	bcf	status, 6	;RP1=0, select bank1
  3512  0081' 0080'              	movwf	(??_measure_capacitance+0)^080h+0
  3513  0082' 0800'              	movf	(??_measure_capacitance+0)^080h+0,w
  3514  0083' 1283               	bcf	status, 5	;RP0=0, select bank0
  3515  0084' 1303               	bcf	status, 6	;RP1=0, select bank0
  3516  0085' 0084'              	movwf	(?_ser_putch)
  3517  0086' 120A' 118A' 2000'  	fcall	_ser_putch
              120A' 118A'        
  3518                           	line	413
  3519                           	
  3520  008B'                    l10073:	
  3521                           ;LC-meter.c: 413: format_xint32( *(uint32_t*)&F1);
  3522  008B' 1683               	bsf	status, 5	;RP0=1, select bank3
  3523  008C' 1703               	bsf	status, 6	;RP1=1, select bank3
  3524  008D' 0800'              	movf	(_F1+3)^0180h,w
  3525  008E' 1283               	bcf	status, 5	;RP0=0, select bank0
  3526  008F' 1303               	bcf	status, 6	;RP1=0, select bank0
  3527  0090' 00B7'              	movwf	(?_format_xint32+3)
  3528  0091' 1683               	bsf	status, 5	;RP0=1, select bank3
  3529  0092' 1703               	bsf	status, 6	;RP1=1, select bank3
  3530  0093' 0800'              	movf	(_F1+2)^0180h,w
  3531  0094' 1283               	bcf	status, 5	;RP0=0, select bank0
  3532  0095' 1303               	bcf	status, 6	;RP1=0, select bank0
  3533  0096' 00B6'              	movwf	(?_format_xint32+2)
  3534  0097' 1683               	bsf	status, 5	;RP0=1, select bank3
  3535  0098' 1703               	bsf	status, 6	;RP1=1, select bank3
  3536  0099' 0800'              	movf	(_F1+1)^0180h,w
  3537  009A' 1283               	bcf	status, 5	;RP0=0, select bank0
  3538  009B' 1303               	bcf	status, 6	;RP1=0, select bank0
  3539  009C' 00B5'              	movwf	(?_format_xint32+1)
  3540  009D' 1683               	bsf	status, 5	;RP0=1, select bank3
  3541  009E' 1703               	bsf	status, 6	;RP1=1, select bank3
  3542  009F' 0800'              	movf	(_F1)^0180h,w
  3543  00A0' 1283               	bcf	status, 5	;RP0=0, select bank0
  3544  00A1' 1303               	bcf	status, 6	;RP1=0, select bank0
  3545  00A2' 00B4'              	movwf	(?_format_xint32)
  3546                           
  3547  00A3' 120A' 118A' 2000'  	fcall	_format_xint32
              120A' 118A'        
  3548                           	line	414
  3549                           	
  3550  00A8'                    l10075:	
  3551                           ;LC-meter.c: 414: ser_puts("\r\nF2=");
  3552  00A8' 3061               	movlw	((STR_6-__stringbase))&0ffh
  3553  00A9' 120A' 118A' 2000'  	fcall	_ser_puts
              120A' 118A'        
  3554                           	line	415
  3555                           	
  3556  00AE'                    l10077:	
  3557                           ;LC-meter.c: 415: format_double( F2);
  3558  00AE' 1683               	bsf	status, 5	;RP0=1, select bank3
  3559  00AF' 1703               	bsf	status, 6	;RP1=1, select bank3
  3560  00B0' 0800'              	movf	(_F2+3)^0180h,w
  3561  00B1' 1683               	bsf	status, 5	;RP0=1, select bank1
  3562  00B2' 1303               	bcf	status, 6	;RP1=0, select bank1
  3563  00B3' 0080'              	movwf	(?_format_double+3)^080h
  3564  00B4' 1683               	bsf	status, 5	;RP0=1, select bank3
  3565  00B5' 1703               	bsf	status, 6	;RP1=1, select bank3
  3566  00B6' 0800'              	movf	(_F2+2)^0180h,w
  3567  00B7' 1683               	bsf	status, 5	;RP0=1, select bank1
  3568  00B8' 1303               	bcf	status, 6	;RP1=0, select bank1
  3569  00B9' 0080'              	movwf	(?_format_double+2)^080h
  3570  00BA' 1683               	bsf	status, 5	;RP0=1, select bank3
  3571  00BB' 1703               	bsf	status, 6	;RP1=1, select bank3
  3572  00BC' 0800'              	movf	(_F2+1)^0180h,w
  3573  00BD' 1683               	bsf	status, 5	;RP0=1, select bank1
  3574  00BE' 1303               	bcf	status, 6	;RP1=0, select bank1
  3575  00BF' 0080'              	movwf	(?_format_double+1)^080h
  3576  00C0' 1683               	bsf	status, 5	;RP0=1, select bank3
  3577  00C1' 1703               	bsf	status, 6	;RP1=1, select bank3
  3578  00C2' 0800'              	movf	(_F2)^0180h,w
  3579  00C3' 1683               	bsf	status, 5	;RP0=1, select bank1
  3580  00C4' 1303               	bcf	status, 6	;RP1=0, select bank1
  3581  00C5' 0080'              	movwf	(?_format_double)^080h
  3582                           
  3583  00C6' 120A' 118A' 2000'  	fcall	_format_double
              120A' 118A'        
  3584                           	line	416
  3585                           	
  3586  00CB'                    l10079:	
  3587                           ;LC-meter.c: 416: ser_putch(' ');
  3588  00CB' 3020               	movlw	(020h)
  3589  00CC' 1683               	bsf	status, 5	;RP0=1, select bank1
  3590  00CD' 1303               	bcf	status, 6	;RP1=0, select bank1
  3591  00CE' 0080'              	movwf	(??_measure_capacitance+0)^080h+0
  3592  00CF' 0800'              	movf	(??_measure_capacitance+0)^080h+0,w
  3593  00D0' 1283               	bcf	status, 5	;RP0=0, select bank0
  3594  00D1' 1303               	bcf	status, 6	;RP1=0, select bank0
  3595  00D2' 0084'              	movwf	(?_ser_putch)
  3596  00D3' 120A' 118A' 2000'  	fcall	_ser_putch
              120A' 118A'        
  3597                           	line	417
  3598                           	
  3599  00D8'                    l10081:	
  3600                           ;LC-meter.c: 417: format_xint32( *(uint32_t*)&F2);
  3601  00D8' 1683               	bsf	status, 5	;RP0=1, select bank3
  3602  00D9' 1703               	bsf	status, 6	;RP1=1, select bank3
  3603  00DA' 0800'              	movf	(_F2+3)^0180h,w
  3604  00DB' 1283               	bcf	status, 5	;RP0=0, select bank0
  3605  00DC' 1303               	bcf	status, 6	;RP1=0, select bank0
  3606  00DD' 00B7'              	movwf	(?_format_xint32+3)
  3607  00DE' 1683               	bsf	status, 5	;RP0=1, select bank3
  3608  00DF' 1703               	bsf	status, 6	;RP1=1, select bank3
  3609  00E0' 0800'              	movf	(_F2+2)^0180h,w
  3610  00E1' 1283               	bcf	status, 5	;RP0=0, select bank0
  3611  00E2' 1303               	bcf	status, 6	;RP1=0, select bank0
  3612  00E3' 00B6'              	movwf	(?_format_xint32+2)
  3613  00E4' 1683               	bsf	status, 5	;RP0=1, select bank3
  3614  00E5' 1703               	bsf	status, 6	;RP1=1, select bank3
  3615  00E6' 0800'              	movf	(_F2+1)^0180h,w
  3616  00E7' 1283               	bcf	status, 5	;RP0=0, select bank0
  3617  00E8' 1303               	bcf	status, 6	;RP1=0, select bank0
  3618  00E9' 00B5'              	movwf	(?_format_xint32+1)
  3619  00EA' 1683               	bsf	status, 5	;RP0=1, select bank3
  3620  00EB' 1703               	bsf	status, 6	;RP1=1, select bank3
  3621  00EC' 0800'              	movf	(_F2)^0180h,w
  3622  00ED' 1283               	bcf	status, 5	;RP0=0, select bank0
  3623  00EE' 1303               	bcf	status, 6	;RP1=0, select bank0
  3624  00EF' 00B4'              	movwf	(?_format_xint32)
  3625                           
  3626  00F0' 120A' 118A' 2000'  	fcall	_format_xint32
              120A' 118A'        
  3627                           	line	418
  3628                           	
  3629  00F5'                    l10083:	
  3630                           ;LC-meter.c: 418: ser_puts("\r\nF3=");
  3631  00F5' 3067               	movlw	((STR_7-__stringbase))&0ffh
  3632  00F6' 120A' 118A' 2000'  	fcall	_ser_puts
              120A' 118A'        
  3633                           	line	419
  3634                           	
  3635  00FB'                    l10085:	
  3636                           ;LC-meter.c: 419: format_double( F3);
  3637  00FB' 1683               	bsf	status, 5	;RP0=1, select bank3
  3638  00FC' 1703               	bsf	status, 6	;RP1=1, select bank3
  3639  00FD' 0800'              	movf	(_F3+3)^0180h,w
  3640  00FE' 1683               	bsf	status, 5	;RP0=1, select bank1
  3641  00FF' 1303               	bcf	status, 6	;RP1=0, select bank1
  3642  0100' 0080'              	movwf	(?_format_double+3)^080h
  3643  0101' 1683               	bsf	status, 5	;RP0=1, select bank3
  3644  0102' 1703               	bsf	status, 6	;RP1=1, select bank3
  3645  0103' 0800'              	movf	(_F3+2)^0180h,w
  3646  0104' 1683               	bsf	status, 5	;RP0=1, select bank1
  3647  0105' 1303               	bcf	status, 6	;RP1=0, select bank1
  3648  0106' 0080'              	movwf	(?_format_double+2)^080h
  3649  0107' 1683               	bsf	status, 5	;RP0=1, select bank3
  3650  0108' 1703               	bsf	status, 6	;RP1=1, select bank3
  3651  0109' 0800'              	movf	(_F3+1)^0180h,w
  3652  010A' 1683               	bsf	status, 5	;RP0=1, select bank1
  3653  010B' 1303               	bcf	status, 6	;RP1=0, select bank1
  3654  010C' 0080'              	movwf	(?_format_double+1)^080h
  3655  010D' 1683               	bsf	status, 5	;RP0=1, select bank3
  3656  010E' 1703               	bsf	status, 6	;RP1=1, select bank3
  3657  010F' 0800'              	movf	(_F3)^0180h,w
  3658  0110' 1683               	bsf	status, 5	;RP0=1, select bank1
  3659  0111' 1303               	bcf	status, 6	;RP1=0, select bank1
  3660  0112' 0080'              	movwf	(?_format_double)^080h
  3661                           
  3662  0113' 120A' 118A' 2000'  	fcall	_format_double
              120A' 118A'        
  3663                           	line	420
  3664                           	
  3665  0118'                    l10087:	
  3666                           ;LC-meter.c: 420: ser_putch(' ');
  3667  0118' 3020               	movlw	(020h)
  3668  0119' 1683               	bsf	status, 5	;RP0=1, select bank1
  3669  011A' 1303               	bcf	status, 6	;RP1=0, select bank1
  3670  011B' 0080'              	movwf	(??_measure_capacitance+0)^080h+0
  3671  011C' 0800'              	movf	(??_measure_capacitance+0)^080h+0,w
  3672  011D' 1283               	bcf	status, 5	;RP0=0, select bank0
  3673  011E' 1303               	bcf	status, 6	;RP1=0, select bank0
  3674  011F' 0084'              	movwf	(?_ser_putch)
  3675  0120' 120A' 118A' 2000'  	fcall	_ser_putch
              120A' 118A'        
  3676                           	line	421
  3677                           	
  3678  0125'                    l10089:	
  3679                           ;LC-meter.c: 421: format_xint32( *(uint32_t*)&F3);
  3680  0125' 1683               	bsf	status, 5	;RP0=1, select bank3
  3681  0126' 1703               	bsf	status, 6	;RP1=1, select bank3
  3682  0127' 0800'              	movf	(_F3+3)^0180h,w
  3683  0128' 1283               	bcf	status, 5	;RP0=0, select bank0
  3684  0129' 1303               	bcf	status, 6	;RP1=0, select bank0
  3685  012A' 00B7'              	movwf	(?_format_xint32+3)
  3686  012B' 1683               	bsf	status, 5	;RP0=1, select bank3
  3687  012C' 1703               	bsf	status, 6	;RP1=1, select bank3
  3688  012D' 0800'              	movf	(_F3+2)^0180h,w
  3689  012E' 1283               	bcf	status, 5	;RP0=0, select bank0
  3690  012F' 1303               	bcf	status, 6	;RP1=0, select bank0
  3691  0130' 00B6'              	movwf	(?_format_xint32+2)
  3692  0131' 1683               	bsf	status, 5	;RP0=1, select bank3
  3693  0132' 1703               	bsf	status, 6	;RP1=1, select bank3
  3694  0133' 0800'              	movf	(_F3+1)^0180h,w
  3695  0134' 1283               	bcf	status, 5	;RP0=0, select bank0
  3696  0135' 1303               	bcf	status, 6	;RP1=0, select bank0
  3697  0136' 00B5'              	movwf	(?_format_xint32+1)
  3698  0137' 1683               	bsf	status, 5	;RP0=1, select bank3
  3699  0138' 1703               	bsf	status, 6	;RP1=1, select bank3
  3700  0139' 0800'              	movf	(_F3)^0180h,w
  3701  013A' 1283               	bcf	status, 5	;RP0=0, select bank0
  3702  013B' 1303               	bcf	status, 6	;RP1=0, select bank0
  3703  013C' 00B4'              	movwf	(?_format_xint32)
  3704                           
  3705  013D' 120A' 118A' 2000'  	fcall	_format_xint32
              120A' 118A'        
  3706                           	line	422
  3707                           	
  3708  0142'                    l10091:	
  3709                           ;LC-meter.c: 422: ser_puts("\r\nCCal=");
  3710  0142' 304D               	movlw	((STR_8-__stringbase))&0ffh
  3711  0143' 120A' 118A' 2000'  	fcall	_ser_puts
              120A' 118A'        
  3712                           	line	423
  3713                           	
  3714  0148'                    l10093:	
  3715                           ;LC-meter.c: 423: format_double( CCal);
  3716  0148' 1683               	bsf	status, 5	;RP0=1, select bank3
  3717  0149' 1703               	bsf	status, 6	;RP1=1, select bank3
  3718  014A' 0800'              	movf	(_CCal+3)^0180h,w
  3719  014B' 1683               	bsf	status, 5	;RP0=1, select bank1
  3720  014C' 1303               	bcf	status, 6	;RP1=0, select bank1
  3721  014D' 0080'              	movwf	(?_format_double+3)^080h
  3722  014E' 1683               	bsf	status, 5	;RP0=1, select bank3
  3723  014F' 1703               	bsf	status, 6	;RP1=1, select bank3
  3724  0150' 0800'              	movf	(_CCal+2)^0180h,w
  3725  0151' 1683               	bsf	status, 5	;RP0=1, select bank1
  3726  0152' 1303               	bcf	status, 6	;RP1=0, select bank1
  3727  0153' 0080'              	movwf	(?_format_double+2)^080h
  3728  0154' 1683               	bsf	status, 5	;RP0=1, select bank3
  3729  0155' 1703               	bsf	status, 6	;RP1=1, select bank3
  3730  0156' 0800'              	movf	(_CCal+1)^0180h,w
  3731  0157' 1683               	bsf	status, 5	;RP0=1, select bank1
  3732  0158' 1303               	bcf	status, 6	;RP1=0, select bank1
  3733  0159' 0080'              	movwf	(?_format_double+1)^080h
  3734  015A' 1683               	bsf	status, 5	;RP0=1, select bank3
  3735  015B' 1703               	bsf	status, 6	;RP1=1, select bank3
  3736  015C' 0800'              	movf	(_CCal)^0180h,w
  3737  015D' 1683               	bsf	status, 5	;RP0=1, select bank1
  3738  015E' 1303               	bcf	status, 6	;RP1=0, select bank1
  3739  015F' 0080'              	movwf	(?_format_double)^080h
  3740                           
  3741  0160' 120A' 118A' 2000'  	fcall	_format_double
              120A' 118A'        
  3742                           	line	424
  3743                           	
  3744  0165'                    l10095:	
  3745                           ;LC-meter.c: 424: ser_putch(' ');
  3746  0165' 3020               	movlw	(020h)
  3747  0166' 1683               	bsf	status, 5	;RP0=1, select bank1
  3748  0167' 1303               	bcf	status, 6	;RP1=0, select bank1
  3749  0168' 0080'              	movwf	(??_measure_capacitance+0)^080h+0
  3750  0169' 0800'              	movf	(??_measure_capacitance+0)^080h+0,w
  3751  016A' 1283               	bcf	status, 5	;RP0=0, select bank0
  3752  016B' 1303               	bcf	status, 6	;RP1=0, select bank0
  3753  016C' 0084'              	movwf	(?_ser_putch)
  3754  016D' 120A' 118A' 2000'  	fcall	_ser_putch
              120A' 118A'        
  3755                           	line	425
  3756                           	
  3757  0172'                    l10097:	
  3758                           ;LC-meter.c: 425: format_xint32( *(uint32_t*)&CCal);
  3759  0172' 1683               	bsf	status, 5	;RP0=1, select bank3
  3760  0173' 1703               	bsf	status, 6	;RP1=1, select bank3
  3761  0174' 0800'              	movf	(_CCal+3)^0180h,w
  3762  0175' 1283               	bcf	status, 5	;RP0=0, select bank0
  3763  0176' 1303               	bcf	status, 6	;RP1=0, select bank0
  3764  0177' 00B7'              	movwf	(?_format_xint32+3)
  3765  0178' 1683               	bsf	status, 5	;RP0=1, select bank3
  3766  0179' 1703               	bsf	status, 6	;RP1=1, select bank3
  3767  017A' 0800'              	movf	(_CCal+2)^0180h,w
  3768  017B' 1283               	bcf	status, 5	;RP0=0, select bank0
  3769  017C' 1303               	bcf	status, 6	;RP1=0, select bank0
  3770  017D' 00B6'              	movwf	(?_format_xint32+2)
  3771  017E' 1683               	bsf	status, 5	;RP0=1, select bank3
  3772  017F' 1703               	bsf	status, 6	;RP1=1, select bank3
  3773  0180' 0800'              	movf	(_CCal+1)^0180h,w
  3774  0181' 1283               	bcf	status, 5	;RP0=0, select bank0
  3775  0182' 1303               	bcf	status, 6	;RP1=0, select bank0
  3776  0183' 00B5'              	movwf	(?_format_xint32+1)
  3777  0184' 1683               	bsf	status, 5	;RP0=1, select bank3
  3778  0185' 1703               	bsf	status, 6	;RP1=1, select bank3
  3779  0186' 0800'              	movf	(_CCal)^0180h,w
  3780  0187' 1283               	bcf	status, 5	;RP0=0, select bank0
  3781  0188' 1303               	bcf	status, 6	;RP1=0, select bank0
  3782  0189' 00B4'              	movwf	(?_format_xint32)
  3783                           
  3784  018A' 120A' 118A' 2000'  	fcall	_format_xint32
              120A' 118A'        
  3785                           	line	426
  3786                           	
  3787  018F'                    l10099:	
  3788                           ;LC-meter.c: 426: ser_puts("\r\n");
  3789  018F' 3058               	movlw	((STR_9-__stringbase))&0ffh
  3790  0190' 120A' 118A' 2000'  	fcall	_ser_puts
              120A' 118A'        
  3791                           	line	428
  3792                           	
  3793  0195'                    l10101:	
  3794                           ;LC-meter.c: 428: putchar_ptr = &output_putch;
  3795  0195' 3001               	movlw	((fp__output_putch-fpbase))&0ffh
  3796  0196' 1683               	bsf	status, 5	;RP0=1, select bank1
  3797  0197' 1303               	bcf	status, 6	;RP1=0, select bank1
  3798  0198' 0080'              	movwf	(??_measure_capacitance+0)^080h+0
  3799  0199' 0800'              	movf	(??_measure_capacitance+0)^080h+0,w
  3800  019A' 0080'              	movwf	(_putchar_ptr)
  3801                           	line	430
  3802                           	
  3803  019B'                    l10103:	
  3804                           ;LC-meter.c: 430: if(F3 > F1)
  3805  019B' 1683               	bsf	status, 5	;RP0=1, select bank3
  3806  019C' 1703               	bsf	status, 6	;RP1=1, select bank3
  3807  019D' 0800'              	movf	(_F1+3)^0180h,w
  3808  019E' 1283               	bcf	status, 5	;RP0=0, select bank0
  3809  019F' 1303               	bcf	status, 6	;RP1=0, select bank0
  3810  01A0' 0083'              	movwf	(?___flge+3)
  3811  01A1' 1683               	bsf	status, 5	;RP0=1, select bank3
  3812  01A2' 1703               	bsf	status, 6	;RP1=1, select bank3
  3813  01A3' 0800'              	movf	(_F1+2)^0180h,w
  3814  01A4' 1283               	bcf	status, 5	;RP0=0, select bank0
  3815  01A5' 1303               	bcf	status, 6	;RP1=0, select bank0
  3816  01A6' 0082'              	movwf	(?___flge+2)
  3817  01A7' 1683               	bsf	status, 5	;RP0=1, select bank3
  3818  01A8' 1703               	bsf	status, 6	;RP1=1, select bank3
  3819  01A9' 0800'              	movf	(_F1+1)^0180h,w
  3820  01AA' 1283               	bcf	status, 5	;RP0=0, select bank0
  3821  01AB' 1303               	bcf	status, 6	;RP1=0, select bank0
  3822  01AC' 0081'              	movwf	(?___flge+1)
  3823  01AD' 1683               	bsf	status, 5	;RP0=1, select bank3
  3824  01AE' 1703               	bsf	status, 6	;RP1=1, select bank3
  3825  01AF' 0800'              	movf	(_F1)^0180h,w
  3826  01B0' 1283               	bcf	status, 5	;RP0=0, select bank0
  3827  01B1' 1303               	bcf	status, 6	;RP1=0, select bank0
  3828  01B2' 0080'              	movwf	(?___flge)
  3829                           
  3830  01B3' 1683               	bsf	status, 5	;RP0=1, select bank3
  3831  01B4' 1703               	bsf	status, 6	;RP1=1, select bank3
  3832  01B5' 0800'              	movf	(_F3+3)^0180h,w
  3833  01B6' 1283               	bcf	status, 5	;RP0=0, select bank0
  3834  01B7' 1303               	bcf	status, 6	;RP1=0, select bank0
  3835  01B8' 0087'              	movwf	3+(?___flge)+04h
  3836  01B9' 1683               	bsf	status, 5	;RP0=1, select bank3
  3837  01BA' 1703               	bsf	status, 6	;RP1=1, select bank3
  3838  01BB' 0800'              	movf	(_F3+2)^0180h,w
  3839  01BC' 1283               	bcf	status, 5	;RP0=0, select bank0
  3840  01BD' 1303               	bcf	status, 6	;RP1=0, select bank0
  3841  01BE' 0086'              	movwf	2+(?___flge)+04h
  3842  01BF' 1683               	bsf	status, 5	;RP0=1, select bank3
  3843  01C0' 1703               	bsf	status, 6	;RP1=1, select bank3
  3844  01C1' 0800'              	movf	(_F3+1)^0180h,w
  3845  01C2' 1283               	bcf	status, 5	;RP0=0, select bank0
  3846  01C3' 1303               	bcf	status, 6	;RP1=0, select bank0
  3847  01C4' 0085'              	movwf	1+(?___flge)+04h
  3848  01C5' 1683               	bsf	status, 5	;RP0=1, select bank3
  3849  01C6' 1703               	bsf	status, 6	;RP1=1, select bank3
  3850  01C7' 0800'              	movf	(_F3)^0180h,w
  3851  01C8' 1283               	bcf	status, 5	;RP0=0, select bank0
  3852  01C9' 1303               	bcf	status, 6	;RP1=0, select bank0
  3853  01CA' 0084'              	movwf	0+(?___flge)+04h
  3854                           
  3855  01CB' 120A' 118A' 2000'  	fcall	___flge
              120A' 118A'        
  3856  01D0' 1803               	btfsc	status,0
  3857  01D1' 2800'              	goto	u6601
  3858  01D2' 2800'              	goto	u6600
  3859  01D3'                    u6601:
  3860  01D3' 2800'              	goto	l10107
  3861  01D4'                    u6600:
  3862                           	line	431
  3863                           	
  3864  01D4'                    l10105:	
  3865                           ;LC-meter.c: 431: F3 = F1;
  3866  01D4' 1683               	bsf	status, 5	;RP0=1, select bank3
  3867  01D5' 1703               	bsf	status, 6	;RP1=1, select bank3
  3868  01D6' 0800'              	movf	(_F1+3)^0180h,w
  3869  01D7' 0080'              	movwf	(_F3+3)^0180h
  3870  01D8' 0800'              	movf	(_F1+2)^0180h,w
  3871  01D9' 0080'              	movwf	(_F3+2)^0180h
  3872  01DA' 0800'              	movf	(_F1+1)^0180h,w
  3873  01DB' 0080'              	movwf	(_F3+1)^0180h
  3874  01DC' 0800'              	movf	(_F1)^0180h,w
  3875  01DD' 0080'              	movwf	(_F3)^0180h
  3876                           
  3877  01DE' 2800'              	goto	l10107
  3878                           	
  3879  01DF'                    l3298:	
  3880                           	line	433
  3881                           	
  3882  01DF'                    l10107:	
  3883                           ;LC-meter.c: 433: Cin = F2 * F2 * (F1 * F1 - F3 * F3) * CCal;
  3884  01DF' 1683               	bsf	status, 5	;RP0=1, select bank3
  3885  01E0' 1703               	bsf	status, 6	;RP1=1, select bank3
  3886  01E1' 0800'              	movf	(_F3+3)^0180h,w
  3887  01E2' 1283               	bcf	status, 5	;RP0=0, select bank0
  3888  01E3' 1303               	bcf	status, 6	;RP1=0, select bank0
  3889  01E4' 00B6'              	movwf	3+(?___flmul)+04h
  3890  01E5' 1683               	bsf	status, 5	;RP0=1, select bank3
  3891  01E6' 1703               	bsf	status, 6	;RP1=1, select bank3
  3892  01E7' 0800'              	movf	(_F3+2)^0180h,w
  3893  01E8' 1283               	bcf	status, 5	;RP0=0, select bank0
  3894  01E9' 1303               	bcf	status, 6	;RP1=0, select bank0
  3895  01EA' 00B5'              	movwf	2+(?___flmul)+04h
  3896  01EB' 1683               	bsf	status, 5	;RP0=1, select bank3
  3897  01EC' 1703               	bsf	status, 6	;RP1=1, select bank3
  3898  01ED' 0800'              	movf	(_F3+1)^0180h,w
  3899  01EE' 1283               	bcf	status, 5	;RP0=0, select bank0
  3900  01EF' 1303               	bcf	status, 6	;RP1=0, select bank0
  3901  01F0' 00B4'              	movwf	1+(?___flmul)+04h
  3902  01F1' 1683               	bsf	status, 5	;RP0=1, select bank3
  3903  01F2' 1703               	bsf	status, 6	;RP1=1, select bank3
  3904  01F3' 0800'              	movf	(_F3)^0180h,w
  3905  01F4' 1283               	bcf	status, 5	;RP0=0, select bank0
  3906  01F5' 1303               	bcf	status, 6	;RP1=0, select bank0
  3907  01F6' 00B3'              	movwf	0+(?___flmul)+04h
  3908                           
  3909  01F7' 1683               	bsf	status, 5	;RP0=1, select bank3
  3910  01F8' 1703               	bsf	status, 6	;RP1=1, select bank3
  3911  01F9' 0800'              	movf	(_F3+3)^0180h,w
  3912  01FA' 1283               	bcf	status, 5	;RP0=0, select bank0
  3913  01FB' 1303               	bcf	status, 6	;RP1=0, select bank0
  3914  01FC' 00B2'              	movwf	(?___flmul+3)
  3915  01FD' 1683               	bsf	status, 5	;RP0=1, select bank3
  3916  01FE' 1703               	bsf	status, 6	;RP1=1, select bank3
  3917  01FF' 0800'              	movf	(_F3+2)^0180h,w
  3918  0200' 1283               	bcf	status, 5	;RP0=0, select bank0
  3919  0201' 1303               	bcf	status, 6	;RP1=0, select bank0
  3920  0202' 00B1'              	movwf	(?___flmul+2)
  3921  0203' 1683               	bsf	status, 5	;RP0=1, select bank3
  3922  0204' 1703               	bsf	status, 6	;RP1=1, select bank3
  3923  0205' 0800'              	movf	(_F3+1)^0180h,w
  3924  0206' 1283               	bcf	status, 5	;RP0=0, select bank0
  3925  0207' 1303               	bcf	status, 6	;RP1=0, select bank0
  3926  0208' 00B0'              	movwf	(?___flmul+1)
  3927  0209' 1683               	bsf	status, 5	;RP0=1, select bank3
  3928  020A' 1703               	bsf	status, 6	;RP1=1, select bank3
  3929  020B' 0800'              	movf	(_F3)^0180h,w
  3930  020C' 1283               	bcf	status, 5	;RP0=0, select bank0
  3931  020D' 1303               	bcf	status, 6	;RP1=0, select bank0
  3932  020E' 00AF'              	movwf	(?___flmul)
  3933                           
  3934  020F' 120A' 118A' 2000'  	fcall	___flmul
              120A' 118A'        
  3935  0214' 1283               	bcf	status, 5	;RP0=0, select bank0
  3936  0215' 1303               	bcf	status, 6	;RP1=0, select bank0
  3937  0216' 0832'              	movf	(3+(?___flmul)),w
  3938  0217' 008D'              	movwf	(?___flneg+3)
  3939  0218' 0831'              	movf	(2+(?___flmul)),w
  3940  0219' 008C'              	movwf	(?___flneg+2)
  3941  021A' 0830'              	movf	(1+(?___flmul)),w
  3942  021B' 008B'              	movwf	(?___flneg+1)
  3943  021C' 082F'              	movf	(0+(?___flmul)),w
  3944  021D' 008A'              	movwf	(?___flneg)
  3945                           
  3946  021E' 120A' 118A' 2000'  	fcall	___flneg
              120A' 118A'        
  3947  0223' 1283               	bcf	status, 5	;RP0=0, select bank0
  3948  0224' 1303               	bcf	status, 6	;RP1=0, select bank0
  3949  0225' 080D'              	movf	(3+(?___flneg)),w
  3950  0226' 00C6'              	movwf	(?___fladd+3)
  3951  0227' 080C'              	movf	(2+(?___flneg)),w
  3952  0228' 00C5'              	movwf	(?___fladd+2)
  3953  0229' 080B'              	movf	(1+(?___flneg)),w
  3954  022A' 00C4'              	movwf	(?___fladd+1)
  3955  022B' 080A'              	movf	(0+(?___flneg)),w
  3956  022C' 00C3'              	movwf	(?___fladd)
  3957                           
  3958  022D' 1683               	bsf	status, 5	;RP0=1, select bank3
  3959  022E' 1703               	bsf	status, 6	;RP1=1, select bank3
  3960  022F' 0800'              	movf	(_F1+3)^0180h,w
  3961  0230' 1283               	bcf	status, 5	;RP0=0, select bank0
  3962  0231' 1303               	bcf	status, 6	;RP1=0, select bank0
  3963  0232' 00B2'              	movwf	(?___flmul+3)
  3964  0233' 1683               	bsf	status, 5	;RP0=1, select bank3
  3965  0234' 1703               	bsf	status, 6	;RP1=1, select bank3
  3966  0235' 0800'              	movf	(_F1+2)^0180h,w
  3967  0236' 1283               	bcf	status, 5	;RP0=0, select bank0
  3968  0237' 1303               	bcf	status, 6	;RP1=0, select bank0
  3969  0238' 00B1'              	movwf	(?___flmul+2)
  3970  0239' 1683               	bsf	status, 5	;RP0=1, select bank3
  3971  023A' 1703               	bsf	status, 6	;RP1=1, select bank3
  3972  023B' 0800'              	movf	(_F1+1)^0180h,w
  3973  023C' 1283               	bcf	status, 5	;RP0=0, select bank0
  3974  023D' 1303               	bcf	status, 6	;RP1=0, select bank0
  3975  023E' 00B0'              	movwf	(?___flmul+1)
  3976  023F' 1683               	bsf	status, 5	;RP0=1, select bank3
  3977  0240' 1703               	bsf	status, 6	;RP1=1, select bank3
  3978  0241' 0800'              	movf	(_F1)^0180h,w
  3979  0242' 1283               	bcf	status, 5	;RP0=0, select bank0
  3980  0243' 1303               	bcf	status, 6	;RP1=0, select bank0
  3981  0244' 00AF'              	movwf	(?___flmul)
  3982                           
  3983  0245' 1683               	bsf	status, 5	;RP0=1, select bank3
  3984  0246' 1703               	bsf	status, 6	;RP1=1, select bank3
  3985  0247' 0800'              	movf	(_F1+3)^0180h,w
  3986  0248' 1283               	bcf	status, 5	;RP0=0, select bank0
  3987  0249' 1303               	bcf	status, 6	;RP1=0, select bank0
  3988  024A' 00B6'              	movwf	3+(?___flmul)+04h
  3989  024B' 1683               	bsf	status, 5	;RP0=1, select bank3
  3990  024C' 1703               	bsf	status, 6	;RP1=1, select bank3
  3991  024D' 0800'              	movf	(_F1+2)^0180h,w
  3992  024E' 1283               	bcf	status, 5	;RP0=0, select bank0
  3993  024F' 1303               	bcf	status, 6	;RP1=0, select bank0
  3994  0250' 00B5'              	movwf	2+(?___flmul)+04h
  3995  0251' 1683               	bsf	status, 5	;RP0=1, select bank3
  3996  0252' 1703               	bsf	status, 6	;RP1=1, select bank3
  3997  0253' 0800'              	movf	(_F1+1)^0180h,w
  3998  0254' 1283               	bcf	status, 5	;RP0=0, select bank0
  3999  0255' 1303               	bcf	status, 6	;RP1=0, select bank0
  4000  0256' 00B4'              	movwf	1+(?___flmul)+04h
  4001  0257' 1683               	bsf	status, 5	;RP0=1, select bank3
  4002  0258' 1703               	bsf	status, 6	;RP1=1, select bank3
  4003  0259' 0800'              	movf	(_F1)^0180h,w
  4004  025A' 1283               	bcf	status, 5	;RP0=0, select bank0
  4005  025B' 1303               	bcf	status, 6	;RP1=0, select bank0
  4006  025C' 00B3'              	movwf	0+(?___flmul)+04h
  4007                           
  4008  025D' 120A' 118A' 2000'  	fcall	___flmul
              120A' 118A'        
  4009  0262' 1283               	bcf	status, 5	;RP0=0, select bank0
  4010  0263' 1303               	bcf	status, 6	;RP1=0, select bank0
  4011  0264' 0832'              	movf	(3+(?___flmul)),w
  4012  0265' 00CA'              	movwf	3+(?___fladd)+04h
  4013  0266' 0831'              	movf	(2+(?___flmul)),w
  4014  0267' 00C9'              	movwf	2+(?___fladd)+04h
  4015  0268' 0830'              	movf	(1+(?___flmul)),w
  4016  0269' 00C8'              	movwf	1+(?___fladd)+04h
  4017  026A' 082F'              	movf	(0+(?___flmul)),w
  4018  026B' 00C7'              	movwf	0+(?___fladd)+04h
  4019                           
  4020  026C' 120A' 118A' 2000'  	fcall	___fladd
              120A' 118A'        
  4021  0271' 1283               	bcf	status, 5	;RP0=0, select bank0
  4022  0272' 1303               	bcf	status, 6	;RP1=0, select bank0
  4023  0273' 0846'              	movf	(3+(?___fladd)),w
  4024  0274' 1683               	bsf	status, 5	;RP0=1, select bank3
  4025  0275' 1703               	bsf	status, 6	;RP1=1, select bank3
  4026  0276' 0080'              	movwf	(_measure_capacitance$5204+3)^0180h
  4027  0277' 1283               	bcf	status, 5	;RP0=0, select bank0
  4028  0278' 1303               	bcf	status, 6	;RP1=0, select bank0
  4029  0279' 0845'              	movf	(2+(?___fladd)),w
  4030  027A' 1683               	bsf	status, 5	;RP0=1, select bank3
  4031  027B' 1703               	bsf	status, 6	;RP1=1, select bank3
  4032  027C' 0080'              	movwf	(_measure_capacitance$5204+2)^0180h
  4033  027D' 1283               	bcf	status, 5	;RP0=0, select bank0
  4034  027E' 1303               	bcf	status, 6	;RP1=0, select bank0
  4035  027F' 0844'              	movf	(1+(?___fladd)),w
  4036  0280' 1683               	bsf	status, 5	;RP0=1, select bank3
  4037  0281' 1703               	bsf	status, 6	;RP1=1, select bank3
  4038  0282' 0080'              	movwf	(_measure_capacitance$5204+1)^0180h
  4039  0283' 1283               	bcf	status, 5	;RP0=0, select bank0
  4040  0284' 1303               	bcf	status, 6	;RP1=0, select bank0
  4041  0285' 0843'              	movf	(0+(?___fladd)),w
  4042  0286' 1683               	bsf	status, 5	;RP0=1, select bank3
  4043  0287' 1703               	bsf	status, 6	;RP1=1, select bank3
  4044  0288' 0080'              	movwf	(_measure_capacitance$5204)^0180h
  4045                           
  4046                           	
  4047  0289'                    l10109:	
  4048                           ;LC-meter.c: 433: Cin = F2 * F2 * (F1 * F1 - F3 * F3) * CCal;
  4049  0289' 0800'              	movf	(_F2+3)^0180h,w
  4050  028A' 1283               	bcf	status, 5	;RP0=0, select bank0
  4051  028B' 1303               	bcf	status, 6	;RP1=0, select bank0
  4052  028C' 00B2'              	movwf	(?___flmul+3)
  4053  028D' 1683               	bsf	status, 5	;RP0=1, select bank3
  4054  028E' 1703               	bsf	status, 6	;RP1=1, select bank3
  4055  028F' 0800'              	movf	(_F2+2)^0180h,w
  4056  0290' 1283               	bcf	status, 5	;RP0=0, select bank0
  4057  0291' 1303               	bcf	status, 6	;RP1=0, select bank0
  4058  0292' 00B1'              	movwf	(?___flmul+2)
  4059  0293' 1683               	bsf	status, 5	;RP0=1, select bank3
  4060  0294' 1703               	bsf	status, 6	;RP1=1, select bank3
  4061  0295' 0800'              	movf	(_F2+1)^0180h,w
  4062  0296' 1283               	bcf	status, 5	;RP0=0, select bank0
  4063  0297' 1303               	bcf	status, 6	;RP1=0, select bank0
  4064  0298' 00B0'              	movwf	(?___flmul+1)
  4065  0299' 1683               	bsf	status, 5	;RP0=1, select bank3
  4066  029A' 1703               	bsf	status, 6	;RP1=1, select bank3
  4067  029B' 0800'              	movf	(_F2)^0180h,w
  4068  029C' 1283               	bcf	status, 5	;RP0=0, select bank0
  4069  029D' 1303               	bcf	status, 6	;RP1=0, select bank0
  4070  029E' 00AF'              	movwf	(?___flmul)
  4071                           
  4072  029F' 1683               	bsf	status, 5	;RP0=1, select bank3
  4073  02A0' 1703               	bsf	status, 6	;RP1=1, select bank3
  4074  02A1' 0800'              	movf	(_F2+3)^0180h,w
  4075  02A2' 1283               	bcf	status, 5	;RP0=0, select bank0
  4076  02A3' 1303               	bcf	status, 6	;RP1=0, select bank0
  4077  02A4' 00B6'              	movwf	3+(?___flmul)+04h
  4078  02A5' 1683               	bsf	status, 5	;RP0=1, select bank3
  4079  02A6' 1703               	bsf	status, 6	;RP1=1, select bank3
  4080  02A7' 0800'              	movf	(_F2+2)^0180h,w
  4081  02A8' 1283               	bcf	status, 5	;RP0=0, select bank0
  4082  02A9' 1303               	bcf	status, 6	;RP1=0, select bank0
  4083  02AA' 00B5'              	movwf	2+(?___flmul)+04h
  4084  02AB' 1683               	bsf	status, 5	;RP0=1, select bank3
  4085  02AC' 1703               	bsf	status, 6	;RP1=1, select bank3
  4086  02AD' 0800'              	movf	(_F2+1)^0180h,w
  4087  02AE' 1283               	bcf	status, 5	;RP0=0, select bank0
  4088  02AF' 1303               	bcf	status, 6	;RP1=0, select bank0
  4089  02B0' 00B4'              	movwf	1+(?___flmul)+04h
  4090  02B1' 1683               	bsf	status, 5	;RP0=1, select bank3
  4091  02B2' 1703               	bsf	status, 6	;RP1=1, select bank3
  4092  02B3' 0800'              	movf	(_F2)^0180h,w
  4093  02B4' 1283               	bcf	status, 5	;RP0=0, select bank0
  4094  02B5' 1303               	bcf	status, 6	;RP1=0, select bank0
  4095  02B6' 00B3'              	movwf	0+(?___flmul)+04h
  4096                           
  4097  02B7' 120A' 118A' 2000'  	fcall	___flmul
              120A' 118A'        
  4098  02BC' 1283               	bcf	status, 5	;RP0=0, select bank0
  4099  02BD' 1303               	bcf	status, 6	;RP1=0, select bank0
  4100  02BE' 0832'              	movf	(3+(?___flmul)),w
  4101  02BF' 00B2'              	movwf	(?___flmul+3)
  4102  02C0' 0831'              	movf	(2+(?___flmul)),w
  4103  02C1' 00B1'              	movwf	(?___flmul+2)
  4104  02C2' 0830'              	movf	(1+(?___flmul)),w
  4105  02C3' 00B0'              	movwf	(?___flmul+1)
  4106  02C4' 082F'              	movf	(0+(?___flmul)),w
  4107  02C5' 00AF'              	movwf	(?___flmul)
  4108                           
  4109  02C6' 1683               	bsf	status, 5	;RP0=1, select bank3
  4110  02C7' 1703               	bsf	status, 6	;RP1=1, select bank3
  4111  02C8' 0800'              	movf	(_measure_capacitance$5204+3)^0180h,w
  4112  02C9' 1283               	bcf	status, 5	;RP0=0, select bank0
  4113  02CA' 1303               	bcf	status, 6	;RP1=0, select bank0
  4114  02CB' 00B6'              	movwf	3+(?___flmul)+04h
  4115  02CC' 1683               	bsf	status, 5	;RP0=1, select bank3
  4116  02CD' 1703               	bsf	status, 6	;RP1=1, select bank3
  4117  02CE' 0800'              	movf	(_measure_capacitance$5204+2)^0180h,w
  4118  02CF' 1283               	bcf	status, 5	;RP0=0, select bank0
  4119  02D0' 1303               	bcf	status, 6	;RP1=0, select bank0
  4120  02D1' 00B5'              	movwf	2+(?___flmul)+04h
  4121  02D2' 1683               	bsf	status, 5	;RP0=1, select bank3
  4122  02D3' 1703               	bsf	status, 6	;RP1=1, select bank3
  4123  02D4' 0800'              	movf	(_measure_capacitance$5204+1)^0180h,w
  4124  02D5' 1283               	bcf	status, 5	;RP0=0, select bank0
  4125  02D6' 1303               	bcf	status, 6	;RP1=0, select bank0
  4126  02D7' 00B4'              	movwf	1+(?___flmul)+04h
  4127  02D8' 1683               	bsf	status, 5	;RP0=1, select bank3
  4128  02D9' 1703               	bsf	status, 6	;RP1=1, select bank3
  4129  02DA' 0800'              	movf	(_measure_capacitance$5204)^0180h,w
  4130  02DB' 1283               	bcf	status, 5	;RP0=0, select bank0
  4131  02DC' 1303               	bcf	status, 6	;RP1=0, select bank0
  4132  02DD' 00B3'              	movwf	0+(?___flmul)+04h
  4133                           
  4134  02DE' 120A' 118A' 2000'  	fcall	___flmul
              120A' 118A'        
  4135  02E3' 1283               	bcf	status, 5	;RP0=0, select bank0
  4136  02E4' 1303               	bcf	status, 6	;RP1=0, select bank0
  4137  02E5' 0832'              	movf	(3+(?___flmul)),w
  4138  02E6' 1683               	bsf	status, 5	;RP0=1, select bank3
  4139  02E7' 1703               	bsf	status, 6	;RP1=1, select bank3
  4140  02E8' 0080'              	movwf	(_measure_capacitance$5205+3)^0180h
  4141  02E9' 1283               	bcf	status, 5	;RP0=0, select bank0
  4142  02EA' 1303               	bcf	status, 6	;RP1=0, select bank0
  4143  02EB' 0831'              	movf	(2+(?___flmul)),w
  4144  02EC' 1683               	bsf	status, 5	;RP0=1, select bank3
  4145  02ED' 1703               	bsf	status, 6	;RP1=1, select bank3
  4146  02EE' 0080'              	movwf	(_measure_capacitance$5205+2)^0180h
  4147  02EF' 1283               	bcf	status, 5	;RP0=0, select bank0
  4148  02F0' 1303               	bcf	status, 6	;RP1=0, select bank0
  4149  02F1' 0830'              	movf	(1+(?___flmul)),w
  4150  02F2' 1683               	bsf	status, 5	;RP0=1, select bank3
  4151  02F3' 1703               	bsf	status, 6	;RP1=1, select bank3
  4152  02F4' 0080'              	movwf	(_measure_capacitance$5205+1)^0180h
  4153  02F5' 1283               	bcf	status, 5	;RP0=0, select bank0
  4154  02F6' 1303               	bcf	status, 6	;RP1=0, select bank0
  4155  02F7' 082F'              	movf	(0+(?___flmul)),w
  4156  02F8' 1683               	bsf	status, 5	;RP0=1, select bank3
  4157  02F9' 1703               	bsf	status, 6	;RP1=1, select bank3
  4158  02FA' 0080'              	movwf	(_measure_capacitance$5205)^0180h
  4159                           
  4160                           	
  4161  02FB'                    l10111:	
  4162                           ;LC-meter.c: 433: Cin = F2 * F2 * (F1 * F1 - F3 * F3) * CCal;
  4163  02FB' 0800'              	movf	(_CCal+3)^0180h,w
  4164  02FC' 1283               	bcf	status, 5	;RP0=0, select bank0
  4165  02FD' 1303               	bcf	status, 6	;RP1=0, select bank0
  4166  02FE' 00B2'              	movwf	(?___flmul+3)
  4167  02FF' 1683               	bsf	status, 5	;RP0=1, select bank3
  4168  0300' 1703               	bsf	status, 6	;RP1=1, select bank3
  4169  0301' 0800'              	movf	(_CCal+2)^0180h,w
  4170  0302' 1283               	bcf	status, 5	;RP0=0, select bank0
  4171  0303' 1303               	bcf	status, 6	;RP1=0, select bank0
  4172  0304' 00B1'              	movwf	(?___flmul+2)
  4173  0305' 1683               	bsf	status, 5	;RP0=1, select bank3
  4174  0306' 1703               	bsf	status, 6	;RP1=1, select bank3
  4175  0307' 0800'              	movf	(_CCal+1)^0180h,w
  4176  0308' 1283               	bcf	status, 5	;RP0=0, select bank0
  4177  0309' 1303               	bcf	status, 6	;RP1=0, select bank0
  4178  030A' 00B0'              	movwf	(?___flmul+1)
  4179  030B' 1683               	bsf	status, 5	;RP0=1, select bank3
  4180  030C' 1703               	bsf	status, 6	;RP1=1, select bank3
  4181  030D' 0800'              	movf	(_CCal)^0180h,w
  4182  030E' 1283               	bcf	status, 5	;RP0=0, select bank0
  4183  030F' 1303               	bcf	status, 6	;RP1=0, select bank0
  4184  0310' 00AF'              	movwf	(?___flmul)
  4185                           
  4186  0311' 1683               	bsf	status, 5	;RP0=1, select bank3
  4187  0312' 1703               	bsf	status, 6	;RP1=1, select bank3
  4188  0313' 0800'              	movf	(_measure_capacitance$5205+3)^0180h,w
  4189  0314' 1283               	bcf	status, 5	;RP0=0, select bank0
  4190  0315' 1303               	bcf	status, 6	;RP1=0, select bank0
  4191  0316' 00B6'              	movwf	3+(?___flmul)+04h
  4192  0317' 1683               	bsf	status, 5	;RP0=1, select bank3
  4193  0318' 1703               	bsf	status, 6	;RP1=1, select bank3
  4194  0319' 0800'              	movf	(_measure_capacitance$5205+2)^0180h,w
  4195  031A' 1283               	bcf	status, 5	;RP0=0, select bank0
  4196  031B' 1303               	bcf	status, 6	;RP1=0, select bank0
  4197  031C' 00B5'              	movwf	2+(?___flmul)+04h
  4198  031D' 1683               	bsf	status, 5	;RP0=1, select bank3
  4199  031E' 1703               	bsf	status, 6	;RP1=1, select bank3
  4200  031F' 0800'              	movf	(_measure_capacitance$5205+1)^0180h,w
  4201  0320' 1283               	bcf	status, 5	;RP0=0, select bank0
  4202  0321' 1303               	bcf	status, 6	;RP1=0, select bank0
  4203  0322' 00B4'              	movwf	1+(?___flmul)+04h
  4204  0323' 1683               	bsf	status, 5	;RP0=1, select bank3
  4205  0324' 1703               	bsf	status, 6	;RP1=1, select bank3
  4206  0325' 0800'              	movf	(_measure_capacitance$5205)^0180h,w
  4207  0326' 1283               	bcf	status, 5	;RP0=0, select bank0
  4208  0327' 1303               	bcf	status, 6	;RP1=0, select bank0
  4209  0328' 00B3'              	movwf	0+(?___flmul)+04h
  4210                           
  4211  0329' 120A' 118A' 2000'  	fcall	___flmul
              120A' 118A'        
  4212  032E' 1283               	bcf	status, 5	;RP0=0, select bank0
  4213  032F' 1303               	bcf	status, 6	;RP1=0, select bank0
  4214  0330' 0832'              	movf	(3+(?___flmul)),w
  4215  0331' 1683               	bsf	status, 5	;RP0=1, select bank3
  4216  0332' 1703               	bsf	status, 6	;RP1=1, select bank3
  4217  0333' 0080'              	movwf	(measure_capacitance@Cin+3)^0180h
  4218  0334' 1283               	bcf	status, 5	;RP0=0, select bank0
  4219  0335' 1303               	bcf	status, 6	;RP1=0, select bank0
  4220  0336' 0831'              	movf	(2+(?___flmul)),w
  4221  0337' 1683               	bsf	status, 5	;RP0=1, select bank3
  4222  0338' 1703               	bsf	status, 6	;RP1=1, select bank3
  4223  0339' 0080'              	movwf	(measure_capacitance@Cin+2)^0180h
  4224  033A' 1283               	bcf	status, 5	;RP0=0, select bank0
  4225  033B' 1303               	bcf	status, 6	;RP1=0, select bank0
  4226  033C' 0830'              	movf	(1+(?___flmul)),w
  4227  033D' 1683               	bsf	status, 5	;RP0=1, select bank3
  4228  033E' 1703               	bsf	status, 6	;RP1=1, select bank3
  4229  033F' 0080'              	movwf	(measure_capacitance@Cin+1)^0180h
  4230  0340' 1283               	bcf	status, 5	;RP0=0, select bank0
  4231  0341' 1303               	bcf	status, 6	;RP1=0, select bank0
  4232  0342' 082F'              	movf	(0+(?___flmul)),w
  4233  0343' 1683               	bsf	status, 5	;RP0=1, select bank3
  4234  0344' 1703               	bsf	status, 6	;RP1=1, select bank3
  4235  0345' 0080'              	movwf	(measure_capacitance@Cin)^0180h
  4236                           
  4237                           	line	437
  4238                           	
  4239  0346'                    l10113:	
  4240                           ;LC-meter.c: 437: ser_puts("Cin=");
  4241  0346' 306D               	movlw	((STR_10-__stringbase))&0ffh
  4242  0347' 120A' 118A' 2000'  	fcall	_ser_puts
              120A' 118A'        
  4243                           	line	438
  4244                           	
  4245  034C'                    l10115:	
  4246                           ;LC-meter.c: 438: format_double( Cin);
  4247  034C' 1683               	bsf	status, 5	;RP0=1, select bank3
  4248  034D' 1703               	bsf	status, 6	;RP1=1, select bank3
  4249  034E' 0800'              	movf	(measure_capacitance@Cin+3)^0180h,w
  4250  034F' 1683               	bsf	status, 5	;RP0=1, select bank1
  4251  0350' 1303               	bcf	status, 6	;RP1=0, select bank1
  4252  0351' 0080'              	movwf	(?_format_double+3)^080h
  4253  0352' 1683               	bsf	status, 5	;RP0=1, select bank3
  4254  0353' 1703               	bsf	status, 6	;RP1=1, select bank3
  4255  0354' 0800'              	movf	(measure_capacitance@Cin+2)^0180h,w
  4256  0355' 1683               	bsf	status, 5	;RP0=1, select bank1
  4257  0356' 1303               	bcf	status, 6	;RP1=0, select bank1
  4258  0357' 0080'              	movwf	(?_format_double+2)^080h
  4259  0358' 1683               	bsf	status, 5	;RP0=1, select bank3
  4260  0359' 1703               	bsf	status, 6	;RP1=1, select bank3
  4261  035A' 0800'              	movf	(measure_capacitance@Cin+1)^0180h,w
  4262  035B' 1683               	bsf	status, 5	;RP0=1, select bank1
  4263  035C' 1303               	bcf	status, 6	;RP1=0, select bank1
  4264  035D' 0080'              	movwf	(?_format_double+1)^080h
  4265  035E' 1683               	bsf	status, 5	;RP0=1, select bank3
  4266  035F' 1703               	bsf	status, 6	;RP1=1, select bank3
  4267  0360' 0800'              	movf	(measure_capacitance@Cin)^0180h,w
  4268  0361' 1683               	bsf	status, 5	;RP0=1, select bank1
  4269  0362' 1303               	bcf	status, 6	;RP1=0, select bank1
  4270  0363' 0080'              	movwf	(?_format_double)^080h
  4271                           
  4272  0364' 120A' 118A' 2000'  	fcall	_format_double
              120A' 118A'        
  4273                           	line	439
  4274                           	
  4275  0369'                    l10117:	
  4276                           ;LC-meter.c: 439: ser_putch(' ');
  4277  0369' 3020               	movlw	(020h)
  4278  036A' 1683               	bsf	status, 5	;RP0=1, select bank1
  4279  036B' 1303               	bcf	status, 6	;RP1=0, select bank1
  4280  036C' 0080'              	movwf	(??_measure_capacitance+0)^080h+0
  4281  036D' 0800'              	movf	(??_measure_capacitance+0)^080h+0,w
  4282  036E' 1283               	bcf	status, 5	;RP0=0, select bank0
  4283  036F' 1303               	bcf	status, 6	;RP1=0, select bank0
  4284  0370' 0084'              	movwf	(?_ser_putch)
  4285  0371' 120A' 118A' 2000'  	fcall	_ser_putch
              120A' 118A'        
  4286                           	line	440
  4287                           	
  4288  0376'                    l10119:	
  4289                           ;LC-meter.c: 440: format_xint32( *(uint32_t*)&Cin);
  4290  0376' 1683               	bsf	status, 5	;RP0=1, select bank3
  4291  0377' 1703               	bsf	status, 6	;RP1=1, select bank3
  4292  0378' 0800'              	movf	(measure_capacitance@Cin+3)^0180h,w
  4293  0379' 1283               	bcf	status, 5	;RP0=0, select bank0
  4294  037A' 1303               	bcf	status, 6	;RP1=0, select bank0
  4295  037B' 00B7'              	movwf	(?_format_xint32+3)
  4296  037C' 1683               	bsf	status, 5	;RP0=1, select bank3
  4297  037D' 1703               	bsf	status, 6	;RP1=1, select bank3
  4298  037E' 0800'              	movf	(measure_capacitance@Cin+2)^0180h,w
  4299  037F' 1283               	bcf	status, 5	;RP0=0, select bank0
  4300  0380' 1303               	bcf	status, 6	;RP1=0, select bank0
  4301  0381' 00B6'              	movwf	(?_format_xint32+2)
  4302  0382' 1683               	bsf	status, 5	;RP0=1, select bank3
  4303  0383' 1703               	bsf	status, 6	;RP1=1, select bank3
  4304  0384' 0800'              	movf	(measure_capacitance@Cin+1)^0180h,w
  4305  0385' 1283               	bcf	status, 5	;RP0=0, select bank0
  4306  0386' 1303               	bcf	status, 6	;RP1=0, select bank0
  4307  0387' 00B5'              	movwf	(?_format_xint32+1)
  4308  0388' 1683               	bsf	status, 5	;RP0=1, select bank3
  4309  0389' 1703               	bsf	status, 6	;RP1=1, select bank3
  4310  038A' 0800'              	movf	(measure_capacitance@Cin)^0180h,w
  4311  038B' 1283               	bcf	status, 5	;RP0=0, select bank0
  4312  038C' 1303               	bcf	status, 6	;RP1=0, select bank0
  4313  038D' 00B4'              	movwf	(?_format_xint32)
  4314                           
  4315  038E' 120A' 118A' 2000'  	fcall	_format_xint32
              120A' 118A'        
  4316                           	line	441
  4317                           	
  4318  0393'                    l10121:	
  4319                           ;LC-meter.c: 441: ser_puts("\r\n");
  4320  0393' 3058               	movlw	((STR_11-__stringbase))&0ffh
  4321  0394' 120A' 118A' 2000'  	fcall	_ser_puts
              120A' 118A'        
  4322                           	line	443
  4323                           	
  4324  0399'                    l10123:	
  4325                           ;LC-meter.c: 443: if(Cin > 999) {
  4326  0399' 3044               	movlw	0x44
  4327  039A' 1283               	bcf	status, 5	;RP0=0, select bank0
  4328  039B' 1303               	bcf	status, 6	;RP1=0, select bank0
  4329  039C' 0083'              	movwf	(?___flge+3)
  4330  039D' 3079               	movlw	0x79
  4331  039E' 0082'              	movwf	(?___flge+2)
  4332  039F' 30C0               	movlw	0xc0
  4333  03A0' 0081'              	movwf	(?___flge+1)
  4334  03A1' 3000               	movlw	0x0
  4335  03A2' 0080'              	movwf	(?___flge)
  4336                           
  4337  03A3' 1683               	bsf	status, 5	;RP0=1, select bank3
  4338  03A4' 1703               	bsf	status, 6	;RP1=1, select bank3
  4339  03A5' 0800'              	movf	(measure_capacitance@Cin+3)^0180h,w
  4340  03A6' 1283               	bcf	status, 5	;RP0=0, select bank0
  4341  03A7' 1303               	bcf	status, 6	;RP1=0, select bank0
  4342  03A8' 0087'              	movwf	3+(?___flge)+04h
  4343  03A9' 1683               	bsf	status, 5	;RP0=1, select bank3
  4344  03AA' 1703               	bsf	status, 6	;RP1=1, select bank3
  4345  03AB' 0800'              	movf	(measure_capacitance@Cin+2)^0180h,w
  4346  03AC' 1283               	bcf	status, 5	;RP0=0, select bank0
  4347  03AD' 1303               	bcf	status, 6	;RP1=0, select bank0
  4348  03AE' 0086'              	movwf	2+(?___flge)+04h
  4349  03AF' 1683               	bsf	status, 5	;RP0=1, select bank3
  4350  03B0' 1703               	bsf	status, 6	;RP1=1, select bank3
  4351  03B1' 0800'              	movf	(measure_capacitance@Cin+1)^0180h,w
  4352  03B2' 1283               	bcf	status, 5	;RP0=0, select bank0
  4353  03B3' 1303               	bcf	status, 6	;RP1=0, select bank0
  4354  03B4' 0085'              	movwf	1+(?___flge)+04h
  4355  03B5' 1683               	bsf	status, 5	;RP0=1, select bank3
  4356  03B6' 1703               	bsf	status, 6	;RP1=1, select bank3
  4357  03B7' 0800'              	movf	(measure_capacitance@Cin)^0180h,w
  4358  03B8' 1283               	bcf	status, 5	;RP0=0, select bank0
  4359  03B9' 1303               	bcf	status, 6	;RP1=0, select bank0
  4360  03BA' 0084'              	movwf	0+(?___flge)+04h
  4361                           
  4362  03BB' 120A' 118A' 2000'  	fcall	___flge
              120A' 118A'        
  4363  03C0' 1803               	btfsc	status,0
  4364  03C1' 2800'              	goto	u6611
  4365  03C2' 2800'              	goto	u6610
  4366  03C3'                    u6611:
  4367  03C3' 2800'              	goto	l10141
  4368  03C4'                    u6610:
  4369                           	line	444
  4370                           	
  4371  03C4'                    l10125:	
  4372                           ;LC-meter.c: 444: if(Cin > (999e+03l)) {
  4373  03C4' 3049               	movlw	0x49
  4374  03C5' 1283               	bcf	status, 5	;RP0=0, select bank0
  4375  03C6' 1303               	bcf	status, 6	;RP1=0, select bank0
  4376  03C7' 0083'              	movwf	(?___flge+3)
  4377  03C8' 3073               	movlw	0x73
  4378  03C9' 0082'              	movwf	(?___flge+2)
  4379  03CA' 30E5               	movlw	0xe5
  4380  03CB' 0081'              	movwf	(?___flge+1)
  4381  03CC' 3080               	movlw	0x80
  4382  03CD' 0080'              	movwf	(?___flge)
  4383                           
  4384  03CE' 1683               	bsf	status, 5	;RP0=1, select bank3
  4385  03CF' 1703               	bsf	status, 6	;RP1=1, select bank3
  4386  03D0' 0800'              	movf	(measure_capacitance@Cin+3)^0180h,w
  4387  03D1' 1283               	bcf	status, 5	;RP0=0, select bank0
  4388  03D2' 1303               	bcf	status, 6	;RP1=0, select bank0
  4389  03D3' 0087'              	movwf	3+(?___flge)+04h
  4390  03D4' 1683               	bsf	status, 5	;RP0=1, select bank3
  4391  03D5' 1703               	bsf	status, 6	;RP1=1, select bank3
  4392  03D6' 0800'              	movf	(measure_capacitance@Cin+2)^0180h,w
  4393  03D7' 1283               	bcf	status, 5	;RP0=0, select bank0
  4394  03D8' 1303               	bcf	status, 6	;RP1=0, select bank0
  4395  03D9' 0086'              	movwf	2+(?___flge)+04h
  4396  03DA' 1683               	bsf	status, 5	;RP0=1, select bank3
  4397  03DB' 1703               	bsf	status, 6	;RP1=1, select bank3
  4398  03DC' 0800'              	movf	(measure_capacitance@Cin+1)^0180h,w
  4399  03DD' 1283               	bcf	status, 5	;RP0=0, select bank0
  4400  03DE' 1303               	bcf	status, 6	;RP1=0, select bank0
  4401  03DF' 0085'              	movwf	1+(?___flge)+04h
  4402  03E0' 1683               	bsf	status, 5	;RP0=1, select bank3
  4403  03E1' 1703               	bsf	status, 6	;RP1=1, select bank3
  4404  03E2' 0800'              	movf	(measure_capacitance@Cin)^0180h,w
  4405  03E3' 1283               	bcf	status, 5	;RP0=0, select bank0
  4406  03E4' 1303               	bcf	status, 6	;RP1=0, select bank0
  4407  03E5' 0084'              	movwf	0+(?___flge)+04h
  4408                           
  4409  03E6' 120A' 118A' 2000'  	fcall	___flge
              120A' 118A'        
  4410  03EB' 1803               	btfsc	status,0
  4411  03EC' 2800'              	goto	u6621
  4412  03ED' 2800'              	goto	u6620
  4413  03EE'                    u6621:
  4414  03EE' 2800'              	goto	l10137
  4415  03EF'                    u6620:
  4416                           	line	445
  4417                           	
  4418  03EF'                    l10127:	
  4419                           ;LC-meter.c: 445: if(Cin > (999e+06l)) {
  4420  03EF' 304E               	movlw	0x4e
  4421  03F0' 1283               	bcf	status, 5	;RP0=0, select bank0
  4422  03F1' 1303               	bcf	status, 6	;RP1=0, select bank0
  4423  03F2' 0083'              	movwf	(?___flge+3)
  4424  03F3' 306E               	movlw	0x6e
  4425  03F4' 0082'              	movwf	(?___flge+2)
  4426  03F5' 302E               	movlw	0x2e
  4427  03F6' 0081'              	movwf	(?___flge+1)
  4428  03F7' 301F               	movlw	0x1f
  4429  03F8' 0080'              	movwf	(?___flge)
  4430                           
  4431  03F9' 1683               	bsf	status, 5	;RP0=1, select bank3
  4432  03FA' 1703               	bsf	status, 6	;RP1=1, select bank3
  4433  03FB' 0800'              	movf	(measure_capacitance@Cin+3)^0180h,w
  4434  03FC' 1283               	bcf	status, 5	;RP0=0, select bank0
  4435  03FD' 1303               	bcf	status, 6	;RP1=0, select bank0
  4436  03FE' 0087'              	movwf	3+(?___flge)+04h
  4437  03FF' 1683               	bsf	status, 5	;RP0=1, select bank3
  4438  0400' 1703               	bsf	status, 6	;RP1=1, select bank3
  4439  0401' 0800'              	movf	(measure_capacitance@Cin+2)^0180h,w
  4440  0402' 1283               	bcf	status, 5	;RP0=0, select bank0
  4441  0403' 1303               	bcf	status, 6	;RP1=0, select bank0
  4442  0404' 0086'              	movwf	2+(?___flge)+04h
  4443  0405' 1683               	bsf	status, 5	;RP0=1, select bank3
  4444  0406' 1703               	bsf	status, 6	;RP1=1, select bank3
  4445  0407' 0800'              	movf	(measure_capacitance@Cin+1)^0180h,w
  4446  0408' 1283               	bcf	status, 5	;RP0=0, select bank0
  4447  0409' 1303               	bcf	status, 6	;RP1=0, select bank0
  4448  040A' 0085'              	movwf	1+(?___flge)+04h
  4449  040B' 1683               	bsf	status, 5	;RP0=1, select bank3
  4450  040C' 1703               	bsf	status, 6	;RP1=1, select bank3
  4451  040D' 0800'              	movf	(measure_capacitance@Cin)^0180h,w
  4452  040E' 1283               	bcf	status, 5	;RP0=0, select bank0
  4453  040F' 1303               	bcf	status, 6	;RP1=0, select bank0
  4454  0410' 0084'              	movwf	0+(?___flge)+04h
  4455                           
  4456  0411' 120A' 118A' 2000'  	fcall	___flge
              120A' 118A'        
  4457  0416' 1803               	btfsc	status,0
  4458  0417' 2800'              	goto	u6631
  4459  0418' 2800'              	goto	u6630
  4460  0419'                    u6631:
  4461  0419' 2800'              	goto	l10133
  4462  041A'                    u6630:
  4463                           	line	446
  4464                           	
  4465  041A'                    l10129:	
  4466                           ;LC-meter.c: 446: Cin = Cin / (1e+09l);
  4467  041A' 304E               	movlw	0x4e
  4468  041B' 1283               	bcf	status, 5	;RP0=0, select bank0
  4469  041C' 1303               	bcf	status, 6	;RP1=0, select bank0
  4470  041D' 009E'              	movwf	(?___fldiv+3)
  4471  041E' 306E               	movlw	0x6e
  4472  041F' 009D'              	movwf	(?___fldiv+2)
  4473  0420' 306B               	movlw	0x6b
  4474  0421' 009C'              	movwf	(?___fldiv+1)
  4475  0422' 3028               	movlw	0x28
  4476  0423' 009B'              	movwf	(?___fldiv)
  4477                           
  4478  0424' 1683               	bsf	status, 5	;RP0=1, select bank3
  4479  0425' 1703               	bsf	status, 6	;RP1=1, select bank3
  4480  0426' 0800'              	movf	(measure_capacitance@Cin+3)^0180h,w
  4481  0427' 1283               	bcf	status, 5	;RP0=0, select bank0
  4482  0428' 1303               	bcf	status, 6	;RP1=0, select bank0
  4483  0429' 00A2'              	movwf	3+(?___fldiv)+04h
  4484  042A' 1683               	bsf	status, 5	;RP0=1, select bank3
  4485  042B' 1703               	bsf	status, 6	;RP1=1, select bank3
  4486  042C' 0800'              	movf	(measure_capacitance@Cin+2)^0180h,w
  4487  042D' 1283               	bcf	status, 5	;RP0=0, select bank0
  4488  042E' 1303               	bcf	status, 6	;RP1=0, select bank0
  4489  042F' 00A1'              	movwf	2+(?___fldiv)+04h
  4490  0430' 1683               	bsf	status, 5	;RP0=1, select bank3
  4491  0431' 1703               	bsf	status, 6	;RP1=1, select bank3
  4492  0432' 0800'              	movf	(measure_capacitance@Cin+1)^0180h,w
  4493  0433' 1283               	bcf	status, 5	;RP0=0, select bank0
  4494  0434' 1303               	bcf	status, 6	;RP1=0, select bank0
  4495  0435' 00A0'              	movwf	1+(?___fldiv)+04h
  4496  0436' 1683               	bsf	status, 5	;RP0=1, select bank3
  4497  0437' 1703               	bsf	status, 6	;RP1=1, select bank3
  4498  0438' 0800'              	movf	(measure_capacitance@Cin)^0180h,w
  4499  0439' 1283               	bcf	status, 5	;RP0=0, select bank0
  4500  043A' 1303               	bcf	status, 6	;RP1=0, select bank0
  4501  043B' 009F'              	movwf	0+(?___fldiv)+04h
  4502                           
  4503  043C' 120A' 118A' 2000'  	fcall	___fldiv
              120A' 118A'        
  4504  0441' 1283               	bcf	status, 5	;RP0=0, select bank0
  4505  0442' 1303               	bcf	status, 6	;RP1=0, select bank0
  4506  0443' 081E'              	movf	(3+(?___fldiv)),w
  4507  0444' 1683               	bsf	status, 5	;RP0=1, select bank3
  4508  0445' 1703               	bsf	status, 6	;RP1=1, select bank3
  4509  0446' 0080'              	movwf	(measure_capacitance@Cin+3)^0180h
  4510  0447' 1283               	bcf	status, 5	;RP0=0, select bank0
  4511  0448' 1303               	bcf	status, 6	;RP1=0, select bank0
  4512  0449' 081D'              	movf	(2+(?___fldiv)),w
  4513  044A' 1683               	bsf	status, 5	;RP0=1, select bank3
  4514  044B' 1703               	bsf	status, 6	;RP1=1, select bank3
  4515  044C' 0080'              	movwf	(measure_capacitance@Cin+2)^0180h
  4516  044D' 1283               	bcf	status, 5	;RP0=0, select bank0
  4517  044E' 1303               	bcf	status, 6	;RP1=0, select bank0
  4518  044F' 081C'              	movf	(1+(?___fldiv)),w
  4519  0450' 1683               	bsf	status, 5	;RP0=1, select bank3
  4520  0451' 1703               	bsf	status, 6	;RP1=1, select bank3
  4521  0452' 0080'              	movwf	(measure_capacitance@Cin+1)^0180h
  4522  0453' 1283               	bcf	status, 5	;RP0=0, select bank0
  4523  0454' 1303               	bcf	status, 6	;RP1=0, select bank0
  4524  0455' 081B'              	movf	(0+(?___fldiv)),w
  4525  0456' 1683               	bsf	status, 5	;RP0=1, select bank3
  4526  0457' 1703               	bsf	status, 6	;RP1=1, select bank3
  4527  0458' 0080'              	movwf	(measure_capacitance@Cin)^0180h
  4528                           
  4529                           	line	447
  4530                           	
  4531  0459'                    l10131:	
  4532                           ;LC-meter.c: 447: unit = 4;
  4533  0459' 3004               	movlw	(04h)
  4534  045A' 1683               	bsf	status, 5	;RP0=1, select bank1
  4535  045B' 1303               	bcf	status, 6	;RP1=0, select bank1
  4536  045C' 0080'              	movwf	(??_measure_capacitance+0)^080h+0
  4537  045D' 0800'              	movf	(??_measure_capacitance+0)^080h+0,w
  4538  045E' 1683               	bsf	status, 5	;RP0=1, select bank3
  4539  045F' 1703               	bsf	status, 6	;RP1=1, select bank3
  4540  0460' 0080'              	movwf	(measure_capacitance@unit)^0180h
  4541                           	line	448
  4542                           ;LC-meter.c: 448: } else {
  4543  0461' 2800'              	goto	l10143
  4544                           	
  4545  0462'                    l3301:	
  4546                           	line	449
  4547                           	
  4548  0462'                    l10133:	
  4549                           ;LC-meter.c: 449: Cin = Cin / (1e+06l);
  4550  0462' 3049               	movlw	0x49
  4551  0463' 1283               	bcf	status, 5	;RP0=0, select bank0
  4552  0464' 1303               	bcf	status, 6	;RP1=0, select bank0
  4553  0465' 009E'              	movwf	(?___fldiv+3)
  4554  0466' 3074               	movlw	0x74
  4555  0467' 009D'              	movwf	(?___fldiv+2)
  4556  0468' 3024               	movlw	0x24
  4557  0469' 009C'              	movwf	(?___fldiv+1)
  4558  046A' 3000               	movlw	0x0
  4559  046B' 009B'              	movwf	(?___fldiv)
  4560                           
  4561  046C' 1683               	bsf	status, 5	;RP0=1, select bank3
  4562  046D' 1703               	bsf	status, 6	;RP1=1, select bank3
  4563  046E' 0800'              	movf	(measure_capacitance@Cin+3)^0180h,w
  4564  046F' 1283               	bcf	status, 5	;RP0=0, select bank0
  4565  0470' 1303               	bcf	status, 6	;RP1=0, select bank0
  4566  0471' 00A2'              	movwf	3+(?___fldiv)+04h
  4567  0472' 1683               	bsf	status, 5	;RP0=1, select bank3
  4568  0473' 1703               	bsf	status, 6	;RP1=1, select bank3
  4569  0474' 0800'              	movf	(measure_capacitance@Cin+2)^0180h,w
  4570  0475' 1283               	bcf	status, 5	;RP0=0, select bank0
  4571  0476' 1303               	bcf	status, 6	;RP1=0, select bank0
  4572  0477' 00A1'              	movwf	2+(?___fldiv)+04h
  4573  0478' 1683               	bsf	status, 5	;RP0=1, select bank3
  4574  0479' 1703               	bsf	status, 6	;RP1=1, select bank3
  4575  047A' 0800'              	movf	(measure_capacitance@Cin+1)^0180h,w
  4576  047B' 1283               	bcf	status, 5	;RP0=0, select bank0
  4577  047C' 1303               	bcf	status, 6	;RP1=0, select bank0
  4578  047D' 00A0'              	movwf	1+(?___fldiv)+04h
  4579  047E' 1683               	bsf	status, 5	;RP0=1, select bank3
  4580  047F' 1703               	bsf	status, 6	;RP1=1, select bank3
  4581  0480' 0800'              	movf	(measure_capacitance@Cin)^0180h,w
  4582  0481' 1283               	bcf	status, 5	;RP0=0, select bank0
  4583  0482' 1303               	bcf	status, 6	;RP1=0, select bank0
  4584  0483' 009F'              	movwf	0+(?___fldiv)+04h
  4585                           
  4586  0484' 120A' 118A' 2000'  	fcall	___fldiv
              120A' 118A'        
  4587  0489' 1283               	bcf	status, 5	;RP0=0, select bank0
  4588  048A' 1303               	bcf	status, 6	;RP1=0, select bank0
  4589  048B' 081E'              	movf	(3+(?___fldiv)),w
  4590  048C' 1683               	bsf	status, 5	;RP0=1, select bank3
  4591  048D' 1703               	bsf	status, 6	;RP1=1, select bank3
  4592  048E' 0080'              	movwf	(measure_capacitance@Cin+3)^0180h
  4593  048F' 1283               	bcf	status, 5	;RP0=0, select bank0
  4594  0490' 1303               	bcf	status, 6	;RP1=0, select bank0
  4595  0491' 081D'              	movf	(2+(?___fldiv)),w
  4596  0492' 1683               	bsf	status, 5	;RP0=1, select bank3
  4597  0493' 1703               	bsf	status, 6	;RP1=1, select bank3
  4598  0494' 0080'              	movwf	(measure_capacitance@Cin+2)^0180h
  4599  0495' 1283               	bcf	status, 5	;RP0=0, select bank0
  4600  0496' 1303               	bcf	status, 6	;RP1=0, select bank0
  4601  0497' 081C'              	movf	(1+(?___fldiv)),w
  4602  0498' 1683               	bsf	status, 5	;RP0=1, select bank3
  4603  0499' 1703               	bsf	status, 6	;RP1=1, select bank3
  4604  049A' 0080'              	movwf	(measure_capacitance@Cin+1)^0180h
  4605  049B' 1283               	bcf	status, 5	;RP0=0, select bank0
  4606  049C' 1303               	bcf	status, 6	;RP1=0, select bank0
  4607  049D' 081B'              	movf	(0+(?___fldiv)),w
  4608  049E' 1683               	bsf	status, 5	;RP0=1, select bank3
  4609  049F' 1703               	bsf	status, 6	;RP1=1, select bank3
  4610  04A0' 0080'              	movwf	(measure_capacitance@Cin)^0180h
  4611                           
  4612                           	line	450
  4613                           	
  4614  04A1'                    l10135:	
  4615                           ;LC-meter.c: 450: unit = 5;
  4616  04A1' 3005               	movlw	(05h)
  4617  04A2' 1683               	bsf	status, 5	;RP0=1, select bank1
  4618  04A3' 1303               	bcf	status, 6	;RP1=0, select bank1
  4619  04A4' 0080'              	movwf	(??_measure_capacitance+0)^080h+0
  4620  04A5' 0800'              	movf	(??_measure_capacitance+0)^080h+0,w
  4621  04A6' 1683               	bsf	status, 5	;RP0=1, select bank3
  4622  04A7' 1703               	bsf	status, 6	;RP1=1, select bank3
  4623  04A8' 0080'              	movwf	(measure_capacitance@unit)^0180h
  4624  04A9' 2800'              	goto	l10143
  4625                           	line	451
  4626                           	
  4627  04AA'                    l3302:	
  4628                           	line	452
  4629                           ;LC-meter.c: 451: }
  4630                           ;LC-meter.c: 452: } else {
  4631  04AA' 2800'              	goto	l10143
  4632                           	
  4633  04AB'                    l3300:	
  4634                           	line	453
  4635                           	
  4636  04AB'                    l10137:	
  4637                           ;LC-meter.c: 453: Cin = Cin / 1e+03l;
  4638  04AB' 3044               	movlw	0x44
  4639  04AC' 1283               	bcf	status, 5	;RP0=0, select bank0
  4640  04AD' 1303               	bcf	status, 6	;RP1=0, select bank0
  4641  04AE' 009E'              	movwf	(?___fldiv+3)
  4642  04AF' 307A               	movlw	0x7a
  4643  04B0' 009D'              	movwf	(?___fldiv+2)
  4644  04B1' 3000               	movlw	0x0
  4645  04B2' 009C'              	movwf	(?___fldiv+1)
  4646  04B3' 3000               	movlw	0x0
  4647  04B4' 009B'              	movwf	(?___fldiv)
  4648                           
  4649  04B5' 1683               	bsf	status, 5	;RP0=1, select bank3
  4650  04B6' 1703               	bsf	status, 6	;RP1=1, select bank3
  4651  04B7' 0800'              	movf	(measure_capacitance@Cin+3)^0180h,w
  4652  04B8' 1283               	bcf	status, 5	;RP0=0, select bank0
  4653  04B9' 1303               	bcf	status, 6	;RP1=0, select bank0
  4654  04BA' 00A2'              	movwf	3+(?___fldiv)+04h
  4655  04BB' 1683               	bsf	status, 5	;RP0=1, select bank3
  4656  04BC' 1703               	bsf	status, 6	;RP1=1, select bank3
  4657  04BD' 0800'              	movf	(measure_capacitance@Cin+2)^0180h,w
  4658  04BE' 1283               	bcf	status, 5	;RP0=0, select bank0
  4659  04BF' 1303               	bcf	status, 6	;RP1=0, select bank0
  4660  04C0' 00A1'              	movwf	2+(?___fldiv)+04h
  4661  04C1' 1683               	bsf	status, 5	;RP0=1, select bank3
  4662  04C2' 1703               	bsf	status, 6	;RP1=1, select bank3
  4663  04C3' 0800'              	movf	(measure_capacitance@Cin+1)^0180h,w
  4664  04C4' 1283               	bcf	status, 5	;RP0=0, select bank0
  4665  04C5' 1303               	bcf	status, 6	;RP1=0, select bank0
  4666  04C6' 00A0'              	movwf	1+(?___fldiv)+04h
  4667  04C7' 1683               	bsf	status, 5	;RP0=1, select bank3
  4668  04C8' 1703               	bsf	status, 6	;RP1=1, select bank3
  4669  04C9' 0800'              	movf	(measure_capacitance@Cin)^0180h,w
  4670  04CA' 1283               	bcf	status, 5	;RP0=0, select bank0
  4671  04CB' 1303               	bcf	status, 6	;RP1=0, select bank0
  4672  04CC' 009F'              	movwf	0+(?___fldiv)+04h
  4673                           
  4674  04CD' 120A' 118A' 2000'  	fcall	___fldiv
              120A' 118A'        
  4675  04D2' 1283               	bcf	status, 5	;RP0=0, select bank0
  4676  04D3' 1303               	bcf	status, 6	;RP1=0, select bank0
  4677  04D4' 081E'              	movf	(3+(?___fldiv)),w
  4678  04D5' 1683               	bsf	status, 5	;RP0=1, select bank3
  4679  04D6' 1703               	bsf	status, 6	;RP1=1, select bank3
  4680  04D7' 0080'              	movwf	(measure_capacitance@Cin+3)^0180h
  4681  04D8' 1283               	bcf	status, 5	;RP0=0, select bank0
  4682  04D9' 1303               	bcf	status, 6	;RP1=0, select bank0
  4683  04DA' 081D'              	movf	(2+(?___fldiv)),w
  4684  04DB' 1683               	bsf	status, 5	;RP0=1, select bank3
  4685  04DC' 1703               	bsf	status, 6	;RP1=1, select bank3
  4686  04DD' 0080'              	movwf	(measure_capacitance@Cin+2)^0180h
  4687  04DE' 1283               	bcf	status, 5	;RP0=0, select bank0
  4688  04DF' 1303               	bcf	status, 6	;RP1=0, select bank0
  4689  04E0' 081C'              	movf	(1+(?___fldiv)),w
  4690  04E1' 1683               	bsf	status, 5	;RP0=1, select bank3
  4691  04E2' 1703               	bsf	status, 6	;RP1=1, select bank3
  4692  04E3' 0080'              	movwf	(measure_capacitance@Cin+1)^0180h
  4693  04E4' 1283               	bcf	status, 5	;RP0=0, select bank0
  4694  04E5' 1303               	bcf	status, 6	;RP1=0, select bank0
  4695  04E6' 081B'              	movf	(0+(?___fldiv)),w
  4696  04E7' 1683               	bsf	status, 5	;RP0=1, select bank3
  4697  04E8' 1703               	bsf	status, 6	;RP1=1, select bank3
  4698  04E9' 0080'              	movwf	(measure_capacitance@Cin)^0180h
  4699                           
  4700                           	line	454
  4701                           	
  4702  04EA'                    l10139:	
  4703                           ;LC-meter.c: 454: unit = 6;
  4704  04EA' 3006               	movlw	(06h)
  4705  04EB' 1683               	bsf	status, 5	;RP0=1, select bank1
  4706  04EC' 1303               	bcf	status, 6	;RP1=0, select bank1
  4707  04ED' 0080'              	movwf	(??_measure_capacitance+0)^080h+0
  4708  04EE' 0800'              	movf	(??_measure_capacitance+0)^080h+0,w
  4709  04EF' 1683               	bsf	status, 5	;RP0=1, select bank3
  4710  04F0' 1703               	bsf	status, 6	;RP1=1, select bank3
  4711  04F1' 0080'              	movwf	(measure_capacitance@unit)^0180h
  4712  04F2' 2800'              	goto	l10143
  4713                           	line	455
  4714                           	
  4715  04F3'                    l3303:	
  4716                           	line	456
  4717                           ;LC-meter.c: 455: }
  4718                           ;LC-meter.c: 456: } else
  4719  04F3' 2800'              	goto	l10143
  4720                           	
  4721  04F4'                    l3299:	
  4722                           	line	457
  4723                           	
  4724  04F4'                    l10141:	
  4725                           ;LC-meter.c: 457: unit = 7;
  4726  04F4' 3007               	movlw	(07h)
  4727  04F5' 1683               	bsf	status, 5	;RP0=1, select bank1
  4728  04F6' 1303               	bcf	status, 6	;RP1=0, select bank1
  4729  04F7' 0080'              	movwf	(??_measure_capacitance+0)^080h+0
  4730  04F8' 0800'              	movf	(??_measure_capacitance+0)^080h+0,w
  4731  04F9' 1683               	bsf	status, 5	;RP0=1, select bank3
  4732  04FA' 1703               	bsf	status, 6	;RP1=1, select bank3
  4733  04FB' 0080'              	movwf	(measure_capacitance@unit)^0180h
  4734  04FC' 2800'              	goto	l10143
  4735                           	
  4736  04FD'                    l3304:	
  4737                           	line	459
  4738                           	
  4739  04FD'                    l10143:	
  4740                           ;LC-meter.c: 459: Cin = Cin * 100;
  4741  04FD' 3042               	movlw	0x42
  4742  04FE' 1283               	bcf	status, 5	;RP0=0, select bank0
  4743  04FF' 1303               	bcf	status, 6	;RP1=0, select bank0
  4744  0500' 00B2'              	movwf	(?___flmul+3)
  4745  0501' 30C8               	movlw	0xc8
  4746  0502' 00B1'              	movwf	(?___flmul+2)
  4747  0503' 3000               	movlw	0x0
  4748  0504' 00B0'              	movwf	(?___flmul+1)
  4749  0505' 3000               	movlw	0x0
  4750  0506' 00AF'              	movwf	(?___flmul)
  4751                           
  4752  0507' 1683               	bsf	status, 5	;RP0=1, select bank3
  4753  0508' 1703               	bsf	status, 6	;RP1=1, select bank3
  4754  0509' 0800'              	movf	(measure_capacitance@Cin+3)^0180h,w
  4755  050A' 1283               	bcf	status, 5	;RP0=0, select bank0
  4756  050B' 1303               	bcf	status, 6	;RP1=0, select bank0
  4757  050C' 00B6'              	movwf	3+(?___flmul)+04h
  4758  050D' 1683               	bsf	status, 5	;RP0=1, select bank3
  4759  050E' 1703               	bsf	status, 6	;RP1=1, select bank3
  4760  050F' 0800'              	movf	(measure_capacitance@Cin+2)^0180h,w
  4761  0510' 1283               	bcf	status, 5	;RP0=0, select bank0
  4762  0511' 1303               	bcf	status, 6	;RP1=0, select bank0
  4763  0512' 00B5'              	movwf	2+(?___flmul)+04h
  4764  0513' 1683               	bsf	status, 5	;RP0=1, select bank3
  4765  0514' 1703               	bsf	status, 6	;RP1=1, select bank3
  4766  0515' 0800'              	movf	(measure_capacitance@Cin+1)^0180h,w
  4767  0516' 1283               	bcf	status, 5	;RP0=0, select bank0
  4768  0517' 1303               	bcf	status, 6	;RP1=0, select bank0
  4769  0518' 00B4'              	movwf	1+(?___flmul)+04h
  4770  0519' 1683               	bsf	status, 5	;RP0=1, select bank3
  4771  051A' 1703               	bsf	status, 6	;RP1=1, select bank3
  4772  051B' 0800'              	movf	(measure_capacitance@Cin)^0180h,w
  4773  051C' 1283               	bcf	status, 5	;RP0=0, select bank0
  4774  051D' 1303               	bcf	status, 6	;RP1=0, select bank0
  4775  051E' 00B3'              	movwf	0+(?___flmul)+04h
  4776                           
  4777  051F' 120A' 118A' 2000'  	fcall	___flmul
              120A' 118A'        
  4778  0524' 1283               	bcf	status, 5	;RP0=0, select bank0
  4779  0525' 1303               	bcf	status, 6	;RP1=0, select bank0
  4780  0526' 0832'              	movf	(3+(?___flmul)),w
  4781  0527' 1683               	bsf	status, 5	;RP0=1, select bank3
  4782  0528' 1703               	bsf	status, 6	;RP1=1, select bank3
  4783  0529' 0080'              	movwf	(measure_capacitance@Cin+3)^0180h
  4784  052A' 1283               	bcf	status, 5	;RP0=0, select bank0
  4785  052B' 1303               	bcf	status, 6	;RP1=0, select bank0
  4786  052C' 0831'              	movf	(2+(?___flmul)),w
  4787  052D' 1683               	bsf	status, 5	;RP0=1, select bank3
  4788  052E' 1703               	bsf	status, 6	;RP1=1, select bank3
  4789  052F' 0080'              	movwf	(measure_capacitance@Cin+2)^0180h
  4790  0530' 1283               	bcf	status, 5	;RP0=0, select bank0
  4791  0531' 1303               	bcf	status, 6	;RP1=0, select bank0
  4792  0532' 0830'              	movf	(1+(?___flmul)),w
  4793  0533' 1683               	bsf	status, 5	;RP0=1, select bank3
  4794  0534' 1703               	bsf	status, 6	;RP1=1, select bank3
  4795  0535' 0080'              	movwf	(measure_capacitance@Cin+1)^0180h
  4796  0536' 1283               	bcf	status, 5	;RP0=0, select bank0
  4797  0537' 1303               	bcf	status, 6	;RP1=0, select bank0
  4798  0538' 082F'              	movf	(0+(?___flmul)),w
  4799  0539' 1683               	bsf	status, 5	;RP0=1, select bank3
  4800  053A' 1703               	bsf	status, 6	;RP1=1, select bank3
  4801  053B' 0080'              	movwf	(measure_capacitance@Cin)^0180h
  4802                           
  4803                           	line	460
  4804                           	
  4805  053C'                    l10145:	
  4806                           ;LC-meter.c: 460: var = (uint16_t)Cin;
  4807  053C' 0800'              	movf	(measure_capacitance@Cin+3)^0180h,w
  4808  053D' 1283               	bcf	status, 5	;RP0=0, select bank0
  4809  053E' 1303               	bcf	status, 6	;RP1=0, select bank0
  4810  053F' 0093'              	movwf	(?___fltol+3)
  4811  0540' 1683               	bsf	status, 5	;RP0=1, select bank3
  4812  0541' 1703               	bsf	status, 6	;RP1=1, select bank3
  4813  0542' 0800'              	movf	(measure_capacitance@Cin+2)^0180h,w
  4814  0543' 1283               	bcf	status, 5	;RP0=0, select bank0
  4815  0544' 1303               	bcf	status, 6	;RP1=0, select bank0
  4816  0545' 0092'              	movwf	(?___fltol+2)
  4817  0546' 1683               	bsf	status, 5	;RP0=1, select bank3
  4818  0547' 1703               	bsf	status, 6	;RP1=1, select bank3
  4819  0548' 0800'              	movf	(measure_capacitance@Cin+1)^0180h,w
  4820  0549' 1283               	bcf	status, 5	;RP0=0, select bank0
  4821  054A' 1303               	bcf	status, 6	;RP1=0, select bank0
  4822  054B' 0091'              	movwf	(?___fltol+1)
  4823  054C' 1683               	bsf	status, 5	;RP0=1, select bank3
  4824  054D' 1703               	bsf	status, 6	;RP1=1, select bank3
  4825  054E' 0800'              	movf	(measure_capacitance@Cin)^0180h,w
  4826  054F' 1283               	bcf	status, 5	;RP0=0, select bank0
  4827  0550' 1303               	bcf	status, 6	;RP1=0, select bank0
  4828  0551' 0090'              	movwf	(?___fltol)
  4829                           
  4830  0552' 120A' 118A' 2000'  	fcall	___fltol
              120A' 118A'        
  4831  0557' 1283               	bcf	status, 5	;RP0=0, select bank0
  4832  0558' 1303               	bcf	status, 6	;RP1=0, select bank0
  4833  0559' 0811'              	movf	1+(((0+(?___fltol)))),w
  4834  055A' 1683               	bsf	status, 5	;RP0=1, select bank3
  4835  055B' 1703               	bsf	status, 6	;RP1=1, select bank3
  4836  055C' 0180'              	clrf	(measure_capacitance@var+1)^0180h
  4837  055D' 0780'              	addwf	(measure_capacitance@var+1)^0180h
  4838  055E' 1283               	bcf	status, 5	;RP0=0, select bank0
  4839  055F' 1303               	bcf	status, 6	;RP1=0, select bank0
  4840  0560' 0810'              	movf	0+(((0+(?___fltol)))),w
  4841  0561' 1683               	bsf	status, 5	;RP0=1, select bank3
  4842  0562' 1703               	bsf	status, 6	;RP1=1, select bank3
  4843  0563' 0180'              	clrf	(measure_capacitance@var)^0180h
  4844  0564' 0780'              	addwf	(measure_capacitance@var)^0180h
  4845                           
  4846                           	line	462
  4847                           	
  4848  0565'                    l10147:	
  4849                           ;LC-meter.c: 462: print_reading(var);
  4850  0565' 0800'              	movf	(measure_capacitance@var+1)^0180h,w
  4851  0566' 1283               	bcf	status, 5	;RP0=0, select bank0
  4852  0567' 1303               	bcf	status, 6	;RP1=0, select bank0
  4853  0568' 0181'              	clrf	(?_print_reading+1)
  4854  0569' 0781'              	addwf	(?_print_reading+1)
  4855  056A' 1683               	bsf	status, 5	;RP0=1, select bank3
  4856  056B' 1703               	bsf	status, 6	;RP1=1, select bank3
  4857  056C' 0800'              	movf	(measure_capacitance@var)^0180h,w
  4858  056D' 1283               	bcf	status, 5	;RP0=0, select bank0
  4859  056E' 1303               	bcf	status, 6	;RP1=0, select bank0
  4860  056F' 0180'              	clrf	(?_print_reading)
  4861  0570' 0780'              	addwf	(?_print_reading)
  4862                           
  4863  0571' 120A' 118A' 2000'  	fcall	_print_reading
              120A' 118A'        
  4864                           	line	463
  4865                           	
  4866  0576'                    l10149:	
  4867                           ;LC-meter.c: 463: print_unit(unit);
  4868  0576' 1683               	bsf	status, 5	;RP0=1, select bank3
  4869  0577' 1703               	bsf	status, 6	;RP1=1, select bank3
  4870  0578' 0800'              	movf	(measure_capacitance@unit)^0180h,w
  4871  0579' 120A' 118A' 2000'  	fcall	_print_unit
              120A' 118A'        
  4872                           	line	464
  4873                           	
  4874  057E'                    l3305:	
  4875  057E' 0008               	return
  4876                           	opt stack 0
  4877                           GLOBAL	__end_of_measure_capacitance
  4878  057F'                    	__end_of_measure_capacitance:
  4879 ;; =============== function _measure_capacitance ends ============
  4880                           
  4881                           	signat	_measure_capacitance,88
  4882                           	global	_format_double
  4883                           psect	text1439,local,class=CODE,delta=2
  4884                           global __ptext1439
  4885  0000'                    __ptext1439:
  4886                           
  4887 ;; *************** function _format_double *****************
  4888 ;; Defined at:
  4889 ;;		line 74 in file "../../../lib/format.c"
  4890 ;; Parameters:    Size  Location     Type
  4891 ;;  num             4   68[BANK1 ] unsigned char 
  4892 ;; Auto vars:     Size  Location     Type
  4893 ;;  weight          4    8[BANK3 ] unsigned char 
  4894 ;;  m               2   14[BANK3 ] short 
  4895 ;;  digit           2   12[BANK3 ] short 
  4896 ;; Return value:  Size  Location     Type
  4897 ;;		None               void
  4898 ;; Registers used:
  4899 ;;		wreg, fsr0l, fsr0h, status,2, status,0, btemp+1, pclath, cstack
  4900 ;; Tracked objects:
  4901 ;;		On entry : 0/0
  4902 ;;		On exit  : 0/0
  4903 ;;		Unchanged: 0/0
  4904 ;; Data sizes:     COMMON   BANK0   BANK1   BANK3   BANK2
  4905 ;;      Params:         0       0       4       0       0
  4906 ;;      Locals:         0       0       0      16       0
  4907 ;;      Temps:          0       0       1       0       0
  4908 ;;      Totals:         0       0       5      16       0
  4909 ;;Total ram usage:       21 bytes
  4910 ;; Hardware stack levels used:    1
  4911 ;; Hardware stack levels required when called:    6
  4912 ;; This function calls:
  4913 ;;		_log10
  4914 ;;		___fltol
  4915 ;;		___awtofl
  4916 ;;		_pow
  4917 ;;		___fldiv
  4918 ;;		_floor
  4919 ;;		___flmul
  4920 ;;		___flsub
  4921 ;;		_output_putch
  4922 ;;		_format_putchar
  4923 ;;		_ser_putch
  4924 ;;		___flge
  4925 ;; This function is called by:
  4926 ;;		_measure_capacitance
  4927 ;; This function uses a non-reentrant model
  4928 ;;
  4929                           psect	text1439
  4930                           	file	"../../../lib/format.c"
  4931                           	line	74
  4932                           	global	__size_of_format_double
  4933  0206                     	__size_of_format_double	equ	__end_of_format_double-_format_double
  4934                           	
  4935  0000'                    _format_double:	
  4936                           	opt	stack 0
  4937                           ; Regs used in _format_double: [wreg-fsr0h+status,2+status,0+btemp+1+pclath+cstack]
  4938                           	line	75
  4939                           	
  4940  0000'                    l10035:	
  4941                           ;format.c: 75: short m = (short)log10(num);
  4942  0000' 1683               	bsf	status, 5	;RP0=1, select bank1
  4943  0001' 1303               	bcf	status, 6	;RP1=0, select bank1
  4944  0002' 0800'              	movf	(format_double@num+3)^080h,w
  4945  0003' 0080'              	movwf	(?_log10+3)^080h
  4946  0004' 0800'              	movf	(format_double@num+2)^080h,w
  4947  0005' 0080'              	movwf	(?_log10+2)^080h
  4948  0006' 0800'              	movf	(format_double@num+1)^080h,w
  4949  0007' 0080'              	movwf	(?_log10+1)^080h
  4950  0008' 0800'              	movf	(format_double@num)^080h,w
  4951  0009' 0080'              	movwf	(?_log10)^080h
  4952                           
  4953  000A' 120A' 118A' 2000'  	fcall	_log10
              120A' 118A'        
  4954  000F' 1683               	bsf	status, 5	;RP0=1, select bank1
  4955  0010' 1303               	bcf	status, 6	;RP1=0, select bank1
  4956  0011' 0800'              	movf	(3+(?_log10))^080h,w
  4957  0012' 1283               	bcf	status, 5	;RP0=0, select bank0
  4958  0013' 1303               	bcf	status, 6	;RP1=0, select bank0
  4959  0014' 0093'              	movwf	(?___fltol+3)
  4960  0015' 1683               	bsf	status, 5	;RP0=1, select bank1
  4961  0016' 1303               	bcf	status, 6	;RP1=0, select bank1
  4962  0017' 0800'              	movf	(2+(?_log10))^080h,w
  4963  0018' 1283               	bcf	status, 5	;RP0=0, select bank0
  4964  0019' 1303               	bcf	status, 6	;RP1=0, select bank0
  4965  001A' 0092'              	movwf	(?___fltol+2)
  4966  001B' 1683               	bsf	status, 5	;RP0=1, select bank1
  4967  001C' 1303               	bcf	status, 6	;RP1=0, select bank1
  4968  001D' 0800'              	movf	(1+(?_log10))^080h,w
  4969  001E' 1283               	bcf	status, 5	;RP0=0, select bank0
  4970  001F' 1303               	bcf	status, 6	;RP1=0, select bank0
  4971  0020' 0091'              	movwf	(?___fltol+1)
  4972  0021' 1683               	bsf	status, 5	;RP0=1, select bank1
  4973  0022' 1303               	bcf	status, 6	;RP1=0, select bank1
  4974  0023' 0800'              	movf	(0+(?_log10))^080h,w
  4975  0024' 1283               	bcf	status, 5	;RP0=0, select bank0
  4976  0025' 1303               	bcf	status, 6	;RP1=0, select bank0
  4977  0026' 0090'              	movwf	(?___fltol)
  4978                           
  4979  0027' 120A' 118A' 2000'  	fcall	___fltol
              120A' 118A'        
  4980  002C' 1283               	bcf	status, 5	;RP0=0, select bank0
  4981  002D' 1303               	bcf	status, 6	;RP1=0, select bank0
  4982  002E' 0811'              	movf	1+(((0+(?___fltol)))),w
  4983  002F' 1683               	bsf	status, 5	;RP0=1, select bank3
  4984  0030' 1703               	bsf	status, 6	;RP1=1, select bank3
  4985  0031' 0180'              	clrf	(format_double@m+1)^0180h
  4986  0032' 0780'              	addwf	(format_double@m+1)^0180h
  4987  0033' 1283               	bcf	status, 5	;RP0=0, select bank0
  4988  0034' 1303               	bcf	status, 6	;RP1=0, select bank0
  4989  0035' 0810'              	movf	0+(((0+(?___fltol)))),w
  4990  0036' 1683               	bsf	status, 5	;RP0=1, select bank3
  4991  0037' 1703               	bsf	status, 6	;RP1=1, select bank3
  4992  0038' 0180'              	clrf	(format_double@m)^0180h
  4993  0039' 0780'              	addwf	(format_double@m)^0180h
  4994                           
  4995                           	line	79
  4996                           ;format.c: 76: short digit;
  4997                           ;format.c: 79: while(num > 0 + (sizeof(double) == sizeof(float) ? 3.05176e-05 : 1.192092
                                 90e-07)) {
  4998  003A' 2800'              	goto	l10053
  4999                           	
  5000  003B'                    l2569:	
  5001                           	line	80
  5002                           	
  5003  003B'                    l10037:	
  5004                           ;format.c: 80: double weight = pow(10.0l, m);
  5005  003B' 1683               	bsf	status, 5	;RP0=1, select bank3
  5006  003C' 1703               	bsf	status, 6	;RP1=1, select bank3
  5007  003D' 0800'              	movf	(format_double@m+1)^0180h,w
  5008  003E' 1283               	bcf	status, 5	;RP0=0, select bank0
  5009  003F' 1303               	bcf	status, 6	;RP1=0, select bank0
  5010  0040' 019C'              	clrf	(?___awtofl+1)
  5011  0041' 079C'              	addwf	(?___awtofl+1)
  5012  0042' 1683               	bsf	status, 5	;RP0=1, select bank3
  5013  0043' 1703               	bsf	status, 6	;RP1=1, select bank3
  5014  0044' 0800'              	movf	(format_double@m)^0180h,w
  5015  0045' 1283               	bcf	status, 5	;RP0=0, select bank0
  5016  0046' 1303               	bcf	status, 6	;RP1=0, select bank0
  5017  0047' 019B'              	clrf	(?___awtofl)
  5018  0048' 079B'              	addwf	(?___awtofl)
  5019                           
  5020  0049' 120A' 118A' 2000'  	fcall	___awtofl
              120A' 118A'        
  5021  004E' 1283               	bcf	status, 5	;RP0=0, select bank0
  5022  004F' 1303               	bcf	status, 6	;RP1=0, select bank0
  5023  0050' 081E'              	movf	(3+(?___awtofl)),w
  5024  0051' 1683               	bsf	status, 5	;RP0=1, select bank3
  5025  0052' 1703               	bsf	status, 6	;RP1=1, select bank3
  5026  0053' 0080'              	movwf	(_format_double$5203+3)^0180h
  5027  0054' 1283               	bcf	status, 5	;RP0=0, select bank0
  5028  0055' 1303               	bcf	status, 6	;RP1=0, select bank0
  5029  0056' 081D'              	movf	(2+(?___awtofl)),w
  5030  0057' 1683               	bsf	status, 5	;RP0=1, select bank3
  5031  0058' 1703               	bsf	status, 6	;RP1=1, select bank3
  5032  0059' 0080'              	movwf	(_format_double$5203+2)^0180h
  5033  005A' 1283               	bcf	status, 5	;RP0=0, select bank0
  5034  005B' 1303               	bcf	status, 6	;RP1=0, select bank0
  5035  005C' 081C'              	movf	(1+(?___awtofl)),w
  5036  005D' 1683               	bsf	status, 5	;RP0=1, select bank3
  5037  005E' 1703               	bsf	status, 6	;RP1=1, select bank3
  5038  005F' 0080'              	movwf	(_format_double$5203+1)^0180h
  5039  0060' 1283               	bcf	status, 5	;RP0=0, select bank0
  5040  0061' 1303               	bcf	status, 6	;RP1=0, select bank0
  5041  0062' 081B'              	movf	(0+(?___awtofl)),w
  5042  0063' 1683               	bsf	status, 5	;RP0=1, select bank3
  5043  0064' 1703               	bsf	status, 6	;RP1=1, select bank3
  5044  0065' 0080'              	movwf	(_format_double$5203)^0180h
  5045                           
  5046                           	
  5047  0066'                    l10039:	
  5048                           ;format.c: 80: double weight = pow(10.0l, m);
  5049  0066' 3041               	movlw	0x41
  5050  0067' 1683               	bsf	status, 5	;RP0=1, select bank1
  5051  0068' 1303               	bcf	status, 6	;RP1=0, select bank1
  5052  0069' 0080'              	movwf	(?_pow+3)^080h
  5053  006A' 3020               	movlw	0x20
  5054  006B' 0080'              	movwf	(?_pow+2)^080h
  5055  006C' 3000               	movlw	0x0
  5056  006D' 0080'              	movwf	(?_pow+1)^080h
  5057  006E' 3000               	movlw	0x0
  5058  006F' 0080'              	movwf	(?_pow)^080h
  5059                           
  5060  0070' 1683               	bsf	status, 5	;RP0=1, select bank3
  5061  0071' 1703               	bsf	status, 6	;RP1=1, select bank3
  5062  0072' 0800'              	movf	(_format_double$5203+3)^0180h,w
  5063  0073' 1683               	bsf	status, 5	;RP0=1, select bank1
  5064  0074' 1303               	bcf	status, 6	;RP1=0, select bank1
  5065  0075' 0084'              	movwf	3+(?_pow)^080h+04h
  5066  0076' 1683               	bsf	status, 5	;RP0=1, select bank3
  5067  0077' 1703               	bsf	status, 6	;RP1=1, select bank3
  5068  0078' 0800'              	movf	(_format_double$5203+2)^0180h,w
  5069  0079' 1683               	bsf	status, 5	;RP0=1, select bank1
  5070  007A' 1303               	bcf	status, 6	;RP1=0, select bank1
  5071  007B' 0084'              	movwf	2+(?_pow)^080h+04h
  5072  007C' 1683               	bsf	status, 5	;RP0=1, select bank3
  5073  007D' 1703               	bsf	status, 6	;RP1=1, select bank3
  5074  007E' 0800'              	movf	(_format_double$5203+1)^0180h,w
  5075  007F' 1683               	bsf	status, 5	;RP0=1, select bank1
  5076  0080' 1303               	bcf	status, 6	;RP1=0, select bank1
  5077  0081' 0084'              	movwf	1+(?_pow)^080h+04h
  5078  0082' 1683               	bsf	status, 5	;RP0=1, select bank3
  5079  0083' 1703               	bsf	status, 6	;RP1=1, select bank3
  5080  0084' 0800'              	movf	(_format_double$5203)^0180h,w
  5081  0085' 1683               	bsf	status, 5	;RP0=1, select bank1
  5082  0086' 1303               	bcf	status, 6	;RP1=0, select bank1
  5083  0087' 0084'              	movwf	0+(?_pow)^080h+04h
  5084                           
  5085  0088' 120A' 118A' 2000'  	fcall	_pow
              120A' 118A'        
  5086  008D' 1683               	bsf	status, 5	;RP0=1, select bank1
  5087  008E' 1303               	bcf	status, 6	;RP1=0, select bank1
  5088  008F' 0800'              	movf	(3+(?_pow))^080h,w
  5089  0090' 1683               	bsf	status, 5	;RP0=1, select bank3
  5090  0091' 1703               	bsf	status, 6	;RP1=1, select bank3
  5091  0092' 0080'              	movwf	(format_double@weight+3)^0180h
  5092  0093' 1683               	bsf	status, 5	;RP0=1, select bank1
  5093  0094' 1303               	bcf	status, 6	;RP1=0, select bank1
  5094  0095' 0800'              	movf	(2+(?_pow))^080h,w
  5095  0096' 1683               	bsf	status, 5	;RP0=1, select bank3
  5096  0097' 1703               	bsf	status, 6	;RP1=1, select bank3
  5097  0098' 0080'              	movwf	(format_double@weight+2)^0180h
  5098  0099' 1683               	bsf	status, 5	;RP0=1, select bank1
  5099  009A' 1303               	bcf	status, 6	;RP1=0, select bank1
  5100  009B' 0800'              	movf	(1+(?_pow))^080h,w
  5101  009C' 1683               	bsf	status, 5	;RP0=1, select bank3
  5102  009D' 1703               	bsf	status, 6	;RP1=1, select bank3
  5103  009E' 0080'              	movwf	(format_double@weight+1)^0180h
  5104  009F' 1683               	bsf	status, 5	;RP0=1, select bank1
  5105  00A0' 1303               	bcf	status, 6	;RP1=0, select bank1
  5106  00A1' 0800'              	movf	(0+(?_pow))^080h,w
  5107  00A2' 1683               	bsf	status, 5	;RP0=1, select bank3
  5108  00A3' 1703               	bsf	status, 6	;RP1=1, select bank3
  5109  00A4' 0080'              	movwf	(format_double@weight)^0180h
  5110                           
  5111                           	line	81
  5112                           	
  5113  00A5'                    l10041:	
  5114                           ;format.c: 81: digit = (short)floor(num / weight);
  5115  00A5' 1683               	bsf	status, 5	;RP0=1, select bank1
  5116  00A6' 1303               	bcf	status, 6	;RP1=0, select bank1
  5117  00A7' 0800'              	movf	(format_double@num+3)^080h,w
  5118  00A8' 1283               	bcf	status, 5	;RP0=0, select bank0
  5119  00A9' 1303               	bcf	status, 6	;RP1=0, select bank0
  5120  00AA' 00A2'              	movwf	3+(?___fldiv)+04h
  5121  00AB' 1683               	bsf	status, 5	;RP0=1, select bank1
  5122  00AC' 1303               	bcf	status, 6	;RP1=0, select bank1
  5123  00AD' 0800'              	movf	(format_double@num+2)^080h,w
  5124  00AE' 1283               	bcf	status, 5	;RP0=0, select bank0
  5125  00AF' 1303               	bcf	status, 6	;RP1=0, select bank0
  5126  00B0' 00A1'              	movwf	2+(?___fldiv)+04h
  5127  00B1' 1683               	bsf	status, 5	;RP0=1, select bank1
  5128  00B2' 1303               	bcf	status, 6	;RP1=0, select bank1
  5129  00B3' 0800'              	movf	(format_double@num+1)^080h,w
  5130  00B4' 1283               	bcf	status, 5	;RP0=0, select bank0
  5131  00B5' 1303               	bcf	status, 6	;RP1=0, select bank0
  5132  00B6' 00A0'              	movwf	1+(?___fldiv)+04h
  5133  00B7' 1683               	bsf	status, 5	;RP0=1, select bank1
  5134  00B8' 1303               	bcf	status, 6	;RP1=0, select bank1
  5135  00B9' 0800'              	movf	(format_double@num)^080h,w
  5136  00BA' 1283               	bcf	status, 5	;RP0=0, select bank0
  5137  00BB' 1303               	bcf	status, 6	;RP1=0, select bank0
  5138  00BC' 009F'              	movwf	0+(?___fldiv)+04h
  5139                           
  5140  00BD' 1683               	bsf	status, 5	;RP0=1, select bank3
  5141  00BE' 1703               	bsf	status, 6	;RP1=1, select bank3
  5142  00BF' 0800'              	movf	(format_double@weight+3)^0180h,w
  5143  00C0' 1283               	bcf	status, 5	;RP0=0, select bank0
  5144  00C1' 1303               	bcf	status, 6	;RP1=0, select bank0
  5145  00C2' 009E'              	movwf	(?___fldiv+3)
  5146  00C3' 1683               	bsf	status, 5	;RP0=1, select bank3
  5147  00C4' 1703               	bsf	status, 6	;RP1=1, select bank3
  5148  00C5' 0800'              	movf	(format_double@weight+2)^0180h,w
  5149  00C6' 1283               	bcf	status, 5	;RP0=0, select bank0
  5150  00C7' 1303               	bcf	status, 6	;RP1=0, select bank0
  5151  00C8' 009D'              	movwf	(?___fldiv+2)
  5152  00C9' 1683               	bsf	status, 5	;RP0=1, select bank3
  5153  00CA' 1703               	bsf	status, 6	;RP1=1, select bank3
  5154  00CB' 0800'              	movf	(format_double@weight+1)^0180h,w
  5155  00CC' 1283               	bcf	status, 5	;RP0=0, select bank0
  5156  00CD' 1303               	bcf	status, 6	;RP1=0, select bank0
  5157  00CE' 009C'              	movwf	(?___fldiv+1)
  5158  00CF' 1683               	bsf	status, 5	;RP0=1, select bank3
  5159  00D0' 1703               	bsf	status, 6	;RP1=1, select bank3
  5160  00D1' 0800'              	movf	(format_double@weight)^0180h,w
  5161  00D2' 1283               	bcf	status, 5	;RP0=0, select bank0
  5162  00D3' 1303               	bcf	status, 6	;RP1=0, select bank0
  5163  00D4' 009B'              	movwf	(?___fldiv)
  5164                           
  5165  00D5' 120A' 118A' 2000'  	fcall	___fldiv
              120A' 118A'        
  5166  00DA' 1283               	bcf	status, 5	;RP0=0, select bank0
  5167  00DB' 1303               	bcf	status, 6	;RP1=0, select bank0
  5168  00DC' 081E'              	movf	(3+(?___fldiv)),w
  5169  00DD' 1683               	bsf	status, 5	;RP0=1, select bank1
  5170  00DE' 1303               	bcf	status, 6	;RP1=0, select bank1
  5171  00DF' 0080'              	movwf	(?_floor+3)^080h
  5172  00E0' 1283               	bcf	status, 5	;RP0=0, select bank0
  5173  00E1' 1303               	bcf	status, 6	;RP1=0, select bank0
  5174  00E2' 081D'              	movf	(2+(?___fldiv)),w
  5175  00E3' 1683               	bsf	status, 5	;RP0=1, select bank1
  5176  00E4' 1303               	bcf	status, 6	;RP1=0, select bank1
  5177  00E5' 0080'              	movwf	(?_floor+2)^080h
  5178  00E6' 1283               	bcf	status, 5	;RP0=0, select bank0
  5179  00E7' 1303               	bcf	status, 6	;RP1=0, select bank0
  5180  00E8' 081C'              	movf	(1+(?___fldiv)),w
  5181  00E9' 1683               	bsf	status, 5	;RP0=1, select bank1
  5182  00EA' 1303               	bcf	status, 6	;RP1=0, select bank1
  5183  00EB' 0080'              	movwf	(?_floor+1)^080h
  5184  00EC' 1283               	bcf	status, 5	;RP0=0, select bank0
  5185  00ED' 1303               	bcf	status, 6	;RP1=0, select bank0
  5186  00EE' 081B'              	movf	(0+(?___fldiv)),w
  5187  00EF' 1683               	bsf	status, 5	;RP0=1, select bank1
  5188  00F0' 1303               	bcf	status, 6	;RP1=0, select bank1
  5189  00F1' 0080'              	movwf	(?_floor)^080h
  5190                           
  5191  00F2' 120A' 118A' 2000'  	fcall	_floor
              120A' 118A'        
  5192  00F7' 1683               	bsf	status, 5	;RP0=1, select bank1
  5193  00F8' 1303               	bcf	status, 6	;RP1=0, select bank1
  5194  00F9' 0800'              	movf	(3+(?_floor))^080h,w
  5195  00FA' 1283               	bcf	status, 5	;RP0=0, select bank0
  5196  00FB' 1303               	bcf	status, 6	;RP1=0, select bank0
  5197  00FC' 0093'              	movwf	(?___fltol+3)
  5198  00FD' 1683               	bsf	status, 5	;RP0=1, select bank1
  5199  00FE' 1303               	bcf	status, 6	;RP1=0, select bank1
  5200  00FF' 0800'              	movf	(2+(?_floor))^080h,w
  5201  0100' 1283               	bcf	status, 5	;RP0=0, select bank0
  5202  0101' 1303               	bcf	status, 6	;RP1=0, select bank0
  5203  0102' 0092'              	movwf	(?___fltol+2)
  5204  0103' 1683               	bsf	status, 5	;RP0=1, select bank1
  5205  0104' 1303               	bcf	status, 6	;RP1=0, select bank1
  5206  0105' 0800'              	movf	(1+(?_floor))^080h,w
  5207  0106' 1283               	bcf	status, 5	;RP0=0, select bank0
  5208  0107' 1303               	bcf	status, 6	;RP1=0, select bank0
  5209  0108' 0091'              	movwf	(?___fltol+1)
  5210  0109' 1683               	bsf	status, 5	;RP0=1, select bank1
  5211  010A' 1303               	bcf	status, 6	;RP1=0, select bank1
  5212  010B' 0800'              	movf	(0+(?_floor))^080h,w
  5213  010C' 1283               	bcf	status, 5	;RP0=0, select bank0
  5214  010D' 1303               	bcf	status, 6	;RP1=0, select bank0
  5215  010E' 0090'              	movwf	(?___fltol)
  5216                           
  5217  010F' 120A' 118A' 2000'  	fcall	___fltol
              120A' 118A'        
  5218  0114' 1283               	bcf	status, 5	;RP0=0, select bank0
  5219  0115' 1303               	bcf	status, 6	;RP1=0, select bank0
  5220  0116' 0811'              	movf	1+(((0+(?___fltol)))),w
  5221  0117' 1683               	bsf	status, 5	;RP0=1, select bank3
  5222  0118' 1703               	bsf	status, 6	;RP1=1, select bank3
  5223  0119' 0180'              	clrf	(format_double@digit+1)^0180h
  5224  011A' 0780'              	addwf	(format_double@digit+1)^0180h
  5225  011B' 1283               	bcf	status, 5	;RP0=0, select bank0
  5226  011C' 1303               	bcf	status, 6	;RP1=0, select bank0
  5227  011D' 0810'              	movf	0+(((0+(?___fltol)))),w
  5228  011E' 1683               	bsf	status, 5	;RP0=1, select bank3
  5229  011F' 1703               	bsf	status, 6	;RP1=1, select bank3
  5230  0120' 0180'              	clrf	(format_double@digit)^0180h
  5231  0121' 0780'              	addwf	(format_double@digit)^0180h
  5232                           
  5233                           	line	82
  5234                           ;format.c: 82: num -= (digit * weight);
  5235  0122' 0800'              	movf	(format_double@digit+1)^0180h,w
  5236  0123' 1283               	bcf	status, 5	;RP0=0, select bank0
  5237  0124' 1303               	bcf	status, 6	;RP1=0, select bank0
  5238  0125' 019C'              	clrf	(?___awtofl+1)
  5239  0126' 079C'              	addwf	(?___awtofl+1)
  5240  0127' 1683               	bsf	status, 5	;RP0=1, select bank3
  5241  0128' 1703               	bsf	status, 6	;RP1=1, select bank3
  5242  0129' 0800'              	movf	(format_double@digit)^0180h,w
  5243  012A' 1283               	bcf	status, 5	;RP0=0, select bank0
  5244  012B' 1303               	bcf	status, 6	;RP1=0, select bank0
  5245  012C' 019B'              	clrf	(?___awtofl)
  5246  012D' 079B'              	addwf	(?___awtofl)
  5247                           
  5248  012E' 120A' 118A' 2000'  	fcall	___awtofl
              120A' 118A'        
  5249  0133' 1283               	bcf	status, 5	;RP0=0, select bank0
  5250  0134' 1303               	bcf	status, 6	;RP1=0, select bank0
  5251  0135' 081E'              	movf	(3+(?___awtofl)),w
  5252  0136' 00B6'              	movwf	3+(?___flmul)+04h
  5253  0137' 081D'              	movf	(2+(?___awtofl)),w
  5254  0138' 00B5'              	movwf	2+(?___flmul)+04h
  5255  0139' 081C'              	movf	(1+(?___awtofl)),w
  5256  013A' 00B4'              	movwf	1+(?___flmul)+04h
  5257  013B' 081B'              	movf	(0+(?___awtofl)),w
  5258  013C' 00B3'              	movwf	0+(?___flmul)+04h
  5259                           
  5260  013D' 1683               	bsf	status, 5	;RP0=1, select bank3
  5261  013E' 1703               	bsf	status, 6	;RP1=1, select bank3
  5262  013F' 0800'              	movf	(format_double@weight+3)^0180h,w
  5263  0140' 1283               	bcf	status, 5	;RP0=0, select bank0
  5264  0141' 1303               	bcf	status, 6	;RP1=0, select bank0
  5265  0142' 00B2'              	movwf	(?___flmul+3)
  5266  0143' 1683               	bsf	status, 5	;RP0=1, select bank3
  5267  0144' 1703               	bsf	status, 6	;RP1=1, select bank3
  5268  0145' 0800'              	movf	(format_double@weight+2)^0180h,w
  5269  0146' 1283               	bcf	status, 5	;RP0=0, select bank0
  5270  0147' 1303               	bcf	status, 6	;RP1=0, select bank0
  5271  0148' 00B1'              	movwf	(?___flmul+2)
  5272  0149' 1683               	bsf	status, 5	;RP0=1, select bank3
  5273  014A' 1703               	bsf	status, 6	;RP1=1, select bank3
  5274  014B' 0800'              	movf	(format_double@weight+1)^0180h,w
  5275  014C' 1283               	bcf	status, 5	;RP0=0, select bank0
  5276  014D' 1303               	bcf	status, 6	;RP1=0, select bank0
  5277  014E' 00B0'              	movwf	(?___flmul+1)
  5278  014F' 1683               	bsf	status, 5	;RP0=1, select bank3
  5279  0150' 1703               	bsf	status, 6	;RP1=1, select bank3
  5280  0151' 0800'              	movf	(format_double@weight)^0180h,w
  5281  0152' 1283               	bcf	status, 5	;RP0=0, select bank0
  5282  0153' 1303               	bcf	status, 6	;RP1=0, select bank0
  5283  0154' 00AF'              	movwf	(?___flmul)
  5284                           
  5285  0155' 120A' 118A' 2000'  	fcall	___flmul
              120A' 118A'        
  5286  015A' 1283               	bcf	status, 5	;RP0=0, select bank0
  5287  015B' 1303               	bcf	status, 6	;RP1=0, select bank0
  5288  015C' 0832'              	movf	(3+(?___flmul)),w
  5289  015D' 1683               	bsf	status, 5	;RP0=1, select bank1
  5290  015E' 1303               	bcf	status, 6	;RP1=0, select bank1
  5291  015F' 0080'              	movwf	(?___flsub+3)^080h
  5292  0160' 1283               	bcf	status, 5	;RP0=0, select bank0
  5293  0161' 1303               	bcf	status, 6	;RP1=0, select bank0
  5294  0162' 0831'              	movf	(2+(?___flmul)),w
  5295  0163' 1683               	bsf	status, 5	;RP0=1, select bank1
  5296  0164' 1303               	bcf	status, 6	;RP1=0, select bank1
  5297  0165' 0080'              	movwf	(?___flsub+2)^080h
  5298  0166' 1283               	bcf	status, 5	;RP0=0, select bank0
  5299  0167' 1303               	bcf	status, 6	;RP1=0, select bank0
  5300  0168' 0830'              	movf	(1+(?___flmul)),w
  5301  0169' 1683               	bsf	status, 5	;RP0=1, select bank1
  5302  016A' 1303               	bcf	status, 6	;RP1=0, select bank1
  5303  016B' 0080'              	movwf	(?___flsub+1)^080h
  5304  016C' 1283               	bcf	status, 5	;RP0=0, select bank0
  5305  016D' 1303               	bcf	status, 6	;RP1=0, select bank0
  5306  016E' 082F'              	movf	(0+(?___flmul)),w
  5307  016F' 1683               	bsf	status, 5	;RP0=1, select bank1
  5308  0170' 1303               	bcf	status, 6	;RP1=0, select bank1
  5309  0171' 0080'              	movwf	(?___flsub)^080h
  5310                           
  5311  0172' 0800'              	movf	(format_double@num+3)^080h,w
  5312  0173' 0084'              	movwf	3+(?___flsub)^080h+04h
  5313  0174' 0800'              	movf	(format_double@num+2)^080h,w
  5314  0175' 0084'              	movwf	2+(?___flsub)^080h+04h
  5315  0176' 0800'              	movf	(format_double@num+1)^080h,w
  5316  0177' 0084'              	movwf	1+(?___flsub)^080h+04h
  5317  0178' 0800'              	movf	(format_double@num)^080h,w
  5318  0179' 0084'              	movwf	0+(?___flsub)^080h+04h
  5319                           
  5320  017A' 120A' 118A' 2000'  	fcall	___flsub
              120A' 118A'        
  5321  017F' 1683               	bsf	status, 5	;RP0=1, select bank1
  5322  0180' 1303               	bcf	status, 6	;RP1=0, select bank1
  5323  0181' 0800'              	movf	(3+(?___flsub))^080h,w
  5324  0182' 0080'              	movwf	(format_double@num+3)^080h
  5325  0183' 0800'              	movf	(2+(?___flsub))^080h,w
  5326  0184' 0080'              	movwf	(format_double@num+2)^080h
  5327  0185' 0800'              	movf	(1+(?___flsub))^080h,w
  5328  0186' 0080'              	movwf	(format_double@num+1)^080h
  5329  0187' 0800'              	movf	(0+(?___flsub))^080h,w
  5330  0188' 0080'              	movwf	(format_double@num)^080h
  5331                           
  5332                           	line	83
  5333                           	
  5334  0189'                    l10043:	
  5335                           ;format.c: 83: putchar_ptr((char)('0' + digit));
  5336  0189' 1683               	bsf	status, 5	;RP0=1, select bank3
  5337  018A' 1703               	bsf	status, 6	;RP1=1, select bank3
  5338  018B' 0800'              	movf	(format_double@digit)^0180h,w
  5339  018C' 3E30               	addlw	030h
  5340  018D' 1683               	bsf	status, 5	;RP0=1, select bank1
  5341  018E' 1303               	bcf	status, 6	;RP1=0, select bank1
  5342  018F' 0080'              	movwf	(??_format_double+0)^080h+0
  5343  0190' 0800'              	movf	(??_format_double+0)^080h+0,w
  5344  0191' 1283               	bcf	status, 5	;RP0=0, select bank0
  5345  0192' 1303               	bcf	status, 6	;RP1=0, select bank0
  5346  0193' 0084'              	movwf	(?_output_putch)
  5347  0194' 0800'              	movf	(_putchar_ptr),w
  5348  0195' 120A' 118A' 2000'  	fcall	fptable
              120A' 118A'        
  5349                           	line	84
  5350                           	
  5351  019A'                    l10045:	
  5352                           ;format.c: 84: if(m == 0)
  5353  019A' 1683               	bsf	status, 5	;RP0=1, select bank3
  5354  019B' 1703               	bsf	status, 6	;RP1=1, select bank3
  5355  019C' 0800'              	movf	((format_double@m+1)^0180h),w
  5356  019D' 0400'              	iorwf	((format_double@m)^0180h),w
  5357  019E' 1D03               	skipz
  5358  019F' 2800'              	goto	u6581
  5359  01A0' 2800'              	goto	u6580
  5360  01A1'                    u6581:
  5361  01A1' 2800'              	goto	l10049
  5362  01A2'                    u6580:
  5363                           	line	85
  5364                           	
  5365  01A2'                    l10047:	
  5366                           ;format.c: 85: putchar_ptr('.');
  5367  01A2' 302E               	movlw	(02Eh)
  5368  01A3' 1683               	bsf	status, 5	;RP0=1, select bank1
  5369  01A4' 1303               	bcf	status, 6	;RP1=0, select bank1
  5370  01A5' 0080'              	movwf	(??_format_double+0)^080h+0
  5371  01A6' 0800'              	movf	(??_format_double+0)^080h+0,w
  5372  01A7' 1283               	bcf	status, 5	;RP0=0, select bank0
  5373  01A8' 1303               	bcf	status, 6	;RP1=0, select bank0
  5374  01A9' 0084'              	movwf	(?_output_putch)
  5375  01AA' 0800'              	movf	(_putchar_ptr),w
  5376  01AB' 120A' 118A' 2000'  	fcall	fptable
              120A' 118A'        
  5377  01B0' 2800'              	goto	l10049
  5378                           	
  5379  01B1'                    l2570:	
  5380                           	line	86
  5381                           	
  5382  01B1'                    l10049:	
  5383                           ;format.c: 86: m--;
  5384  01B1' 30FF               	movlw	low(-1)
  5385  01B2' 1683               	bsf	status, 5	;RP0=1, select bank3
  5386  01B3' 1703               	bsf	status, 6	;RP1=1, select bank3
  5387  01B4' 0780'              	addwf	(format_double@m)^0180h,f
  5388  01B5' 1803               	skipnc
  5389  01B6' 0A80'              	incf	(format_double@m+1)^0180h,f
  5390  01B7' 30FF               	movlw	high(-1)
  5391  01B8' 0780'              	addwf	(format_double@m+1)^0180h,f
  5392  01B9' 2800'              	goto	l10053
  5393                           	line	87
  5394                           	
  5395  01BA'                    l2568:	
  5396                           	line	79
  5397  01BA' 2800'              	goto	l10053
  5398                           	
  5399  01BB'                    l10051:	
  5400  01BB' 3034               	movlw	0x34
  5401  01BC' 0080'              	movwf	(_format_double$3447+3)^0180h
  5402  01BD' 3000               	movlw	0x0
  5403  01BE' 0080'              	movwf	(_format_double$3447+2)^0180h
  5404  01BF' 3000               	movlw	0x0
  5405  01C0' 0080'              	movwf	(_format_double$3447+1)^0180h
  5406  01C1' 3000               	movlw	0x0
  5407  01C2' 0080'              	movwf	(_format_double$3447)^0180h
  5408                           
  5409  01C3' 2800'              	goto	l10055
  5410                           	
  5411  01C4'                    l2572:	
  5412                           	
  5413  01C4'                    l10053:	
  5414  01C4' 3038               	movlw	0x38
  5415  01C5' 0080'              	movwf	(_format_double$3447+3)^0180h
  5416  01C6' 3000               	movlw	0x0
  5417  01C7' 0080'              	movwf	(_format_double$3447+2)^0180h
  5418  01C8' 3000               	movlw	0x0
  5419  01C9' 0080'              	movwf	(_format_double$3447+1)^0180h
  5420  01CA' 3006               	movlw	0x6
  5421  01CB' 0080'              	movwf	(_format_double$3447)^0180h
  5422                           
  5423  01CC' 2800'              	goto	l10055
  5424                           	
  5425  01CD'                    l2574:	
  5426                           	
  5427  01CD'                    l10055:	
  5428  01CD' 0800'              	movf	(_format_double$3447+3)^0180h,w
  5429  01CE' 1283               	bcf	status, 5	;RP0=0, select bank0
  5430  01CF' 1303               	bcf	status, 6	;RP1=0, select bank0
  5431  01D0' 0083'              	movwf	(?___flge+3)
  5432  01D1' 1683               	bsf	status, 5	;RP0=1, select bank3
  5433  01D2' 1703               	bsf	status, 6	;RP1=1, select bank3
  5434  01D3' 0800'              	movf	(_format_double$3447+2)^0180h,w
  5435  01D4' 1283               	bcf	status, 5	;RP0=0, select bank0
  5436  01D5' 1303               	bcf	status, 6	;RP1=0, select bank0
  5437  01D6' 0082'              	movwf	(?___flge+2)
  5438  01D7' 1683               	bsf	status, 5	;RP0=1, select bank3
  5439  01D8' 1703               	bsf	status, 6	;RP1=1, select bank3
  5440  01D9' 0800'              	movf	(_format_double$3447+1)^0180h,w
  5441  01DA' 1283               	bcf	status, 5	;RP0=0, select bank0
  5442  01DB' 1303               	bcf	status, 6	;RP1=0, select bank0
  5443  01DC' 0081'              	movwf	(?___flge+1)
  5444  01DD' 1683               	bsf	status, 5	;RP0=1, select bank3
  5445  01DE' 1703               	bsf	status, 6	;RP1=1, select bank3
  5446  01DF' 0800'              	movf	(_format_double$3447)^0180h,w
  5447  01E0' 1283               	bcf	status, 5	;RP0=0, select bank0
  5448  01E1' 1303               	bcf	status, 6	;RP1=0, select bank0
  5449  01E2' 0080'              	movwf	(?___flge)
  5450                           
  5451  01E3' 1683               	bsf	status, 5	;RP0=1, select bank1
  5452  01E4' 1303               	bcf	status, 6	;RP1=0, select bank1
  5453  01E5' 0800'              	movf	(format_double@num+3)^080h,w
  5454  01E6' 1283               	bcf	status, 5	;RP0=0, select bank0
  5455  01E7' 1303               	bcf	status, 6	;RP1=0, select bank0
  5456  01E8' 0087'              	movwf	3+(?___flge)+04h
  5457  01E9' 1683               	bsf	status, 5	;RP0=1, select bank1
  5458  01EA' 1303               	bcf	status, 6	;RP1=0, select bank1
  5459  01EB' 0800'              	movf	(format_double@num+2)^080h,w
  5460  01EC' 1283               	bcf	status, 5	;RP0=0, select bank0
  5461  01ED' 1303               	bcf	status, 6	;RP1=0, select bank0
  5462  01EE' 0086'              	movwf	2+(?___flge)+04h
  5463  01EF' 1683               	bsf	status, 5	;RP0=1, select bank1
  5464  01F0' 1303               	bcf	status, 6	;RP1=0, select bank1
  5465  01F1' 0800'              	movf	(format_double@num+1)^080h,w
  5466  01F2' 1283               	bcf	status, 5	;RP0=0, select bank0
  5467  01F3' 1303               	bcf	status, 6	;RP1=0, select bank0
  5468  01F4' 0085'              	movwf	1+(?___flge)+04h
  5469  01F5' 1683               	bsf	status, 5	;RP0=1, select bank1
  5470  01F6' 1303               	bcf	status, 6	;RP1=0, select bank1
  5471  01F7' 0800'              	movf	(format_double@num)^080h,w
  5472  01F8' 1283               	bcf	status, 5	;RP0=0, select bank0
  5473  01F9' 1303               	bcf	status, 6	;RP1=0, select bank0
  5474  01FA' 0084'              	movwf	0+(?___flge)+04h
  5475                           
  5476  01FB' 120A' 118A' 2000'  	fcall	___flge
              120A' 118A'        
  5477  0200' 1C03               	btfss	status,0
  5478  0201' 2800'              	goto	u6591
  5479  0202' 2800'              	goto	u6590
  5480  0203'                    u6591:
  5481  0203' 2800'              	goto	l10037
  5482  0204'                    u6590:
  5483  0204' 2800'              	goto	l2576
  5484                           	
  5485  0205'                    l2575:	
  5486                           	line	88
  5487                           	
  5488  0205'                    l2576:	
  5489  0205' 0008               	return
  5490                           	opt stack 0
  5491                           GLOBAL	__end_of_format_double
  5492  0206'                    	__end_of_format_double:
  5493 ;; =============== function _format_double ends ============
  5494                           
  5495                           	signat	_format_double,4216
  5496                           	global	_pow
  5497                           psect	text1440,local,class=CODE,delta=2
  5498                           global __ptext1440
  5499  0000'                    __ptext1440:
  5500                           
  5501 ;; *************** function _pow *****************
  5502 ;; Defined at:
  5503 ;;		line 6 in file "/opt/hitech/picc/9.83/sources/pow.c"
  5504 ;; Parameters:    Size  Location     Type
  5505 ;;  x               4   50[BANK1 ] short 
  5506 ;;  y               4   54[BANK1 ] short 
  5507 ;; Auto vars:     Size  Location     Type
  5508 ;;  yi              4   64[BANK1 ] unsigned long 
  5509 ;;  sign            1   63[BANK1 ] unsigned char 
  5510 ;; Return value:  Size  Location     Type
  5511 ;;                  4   50[BANK1 ] unsigned char 
  5512 ;; Registers used:
  5513 ;;		wreg, fsr0l, fsr0h, status,2, status,0, btemp+1, pclath, cstack
  5514 ;; Tracked objects:
  5515 ;;		On entry : 0/0
  5516 ;;		On exit  : 0/0
  5517 ;;		Unchanged: 0/0
  5518 ;; Data sizes:     COMMON   BANK0   BANK1   BANK3   BANK2
  5519 ;;      Params:         0       0       8       0       0
  5520 ;;      Locals:         0       0       9       0       0
  5521 ;;      Temps:          0       0       1       0       0
  5522 ;;      Totals:         0       0      18       0       0
  5523 ;;Total ram usage:       18 bytes
  5524 ;; Hardware stack levels used:    1
  5525 ;; Hardware stack levels required when called:    5
  5526 ;; This function calls:
  5527 ;;		___flge
  5528 ;;		___fltol
  5529 ;;		___lltofl
  5530 ;;		___flneg
  5531 ;;		_log
  5532 ;;		___flmul
  5533 ;;		_exp
  5534 ;; This function is called by:
  5535 ;;		_format_double
  5536 ;;		_format_float
  5537 ;; This function uses a non-reentrant model
  5538 ;;
  5539                           psect	text1440
  5540                           	file	"/opt/hitech/picc/9.83/sources/pow.c"
  5541                           	line	6
  5542                           	global	__size_of_pow
  5543  01ED                     	__size_of_pow	equ	__end_of_pow-_pow
  5544                           	
  5545  0000'                    _pow:	
  5546                           	opt	stack 0
  5547                           ; Regs used in _pow: [wreg-fsr0h+status,2+status,0+btemp+1+pclath+cstack]
  5548                           	line	7
  5549                           	
  5550  0000'                    l9997:	
  5551  0000' 1683               	bsf	status, 5	;RP0=1, select bank1
  5552  0001' 1303               	bcf	status, 6	;RP1=0, select bank1
  5553  0002' 0180'              	clrf	(pow@sign)^080h
  5554                           	line	10
  5555                           	
  5556  0003'                    l9999:	
  5557  0003' 0800'              	movf	(pow@x+3)^080h,w
  5558  0004' 0400'              	iorwf	(pow@x+2)^080h,w
  5559  0005' 0400'              	iorwf	(pow@x+1)^080h,w
  5560  0006' 0400'              	iorwf	(pow@x)^080h,w
  5561  0007' 1D03               	skipz
  5562  0008' 2800'              	goto	u6521
  5563  0009' 2800'              	goto	u6520
  5564  000A'                    u6521:
  5565  000A' 2800'              	goto	l10007
  5566  000B'                    u6520:
  5567                           	line	11
  5568                           	
  5569  000B'                    l10001:	
  5570  000B' 3000               	movlw	0x0
  5571  000C' 1283               	bcf	status, 5	;RP0=0, select bank0
  5572  000D' 1303               	bcf	status, 6	;RP1=0, select bank0
  5573  000E' 0083'              	movwf	(?___flge+3)
  5574  000F' 3000               	movlw	0x0
  5575  0010' 0082'              	movwf	(?___flge+2)
  5576  0011' 3000               	movlw	0x0
  5577  0012' 0081'              	movwf	(?___flge+1)
  5578  0013' 3000               	movlw	0x0
  5579  0014' 0080'              	movwf	(?___flge)
  5580                           
  5581  0015' 1683               	bsf	status, 5	;RP0=1, select bank1
  5582  0016' 1303               	bcf	status, 6	;RP1=0, select bank1
  5583  0017' 0800'              	movf	(pow@y+3)^080h,w
  5584  0018' 1283               	bcf	status, 5	;RP0=0, select bank0
  5585  0019' 1303               	bcf	status, 6	;RP1=0, select bank0
  5586  001A' 0087'              	movwf	3+(?___flge)+04h
  5587  001B' 1683               	bsf	status, 5	;RP0=1, select bank1
  5588  001C' 1303               	bcf	status, 6	;RP1=0, select bank1
  5589  001D' 0800'              	movf	(pow@y+2)^080h,w
  5590  001E' 1283               	bcf	status, 5	;RP0=0, select bank0
  5591  001F' 1303               	bcf	status, 6	;RP1=0, select bank0
  5592  0020' 0086'              	movwf	2+(?___flge)+04h
  5593  0021' 1683               	bsf	status, 5	;RP0=1, select bank1
  5594  0022' 1303               	bcf	status, 6	;RP1=0, select bank1
  5595  0023' 0800'              	movf	(pow@y+1)^080h,w
  5596  0024' 1283               	bcf	status, 5	;RP0=0, select bank0
  5597  0025' 1303               	bcf	status, 6	;RP1=0, select bank0
  5598  0026' 0085'              	movwf	1+(?___flge)+04h
  5599  0027' 1683               	bsf	status, 5	;RP0=1, select bank1
  5600  0028' 1303               	bcf	status, 6	;RP1=0, select bank1
  5601  0029' 0800'              	movf	(pow@y)^080h,w
  5602  002A' 1283               	bcf	status, 5	;RP0=0, select bank0
  5603  002B' 1303               	bcf	status, 6	;RP1=0, select bank0
  5604  002C' 0084'              	movwf	0+(?___flge)+04h
  5605                           
  5606  002D' 120A' 118A' 2000'  	fcall	___flge
              120A' 118A'        
  5607  0032' 1C03               	btfss	status,0
  5608  0033' 2800'              	goto	u6531
  5609  0034' 2800'              	goto	u6530
  5610  0035'                    u6531:
  5611  0035' 2800'              	goto	l3972
  5612  0036'                    u6530:
  5613                           	line	12
  5614                           	
  5615  0036'                    l10003:	
  5616  0036' 3021               	movlw	low(021h)
  5617  0037' 1683               	bsf	status, 5	;RP0=1, select bank3
  5618  0038' 1703               	bsf	status, 6	;RP1=1, select bank3
  5619  0039' 0080'              	movwf	(_errno)^0180h
  5620  003A' 3000               	movlw	high(021h)
  5621  003B' 0081'              	movwf	((_errno)^0180h)+1
  5622                           	line	13
  5623                           	
  5624  003C'                    l3972:	
  5625                           	line	14
  5626  003C' 3000               	movlw	0x0
  5627  003D' 1683               	bsf	status, 5	;RP0=1, select bank1
  5628  003E' 1303               	bcf	status, 6	;RP1=0, select bank1
  5629  003F' 0080'              	movwf	(?_pow+3)^080h
  5630  0040' 3000               	movlw	0x0
  5631  0041' 0080'              	movwf	(?_pow+2)^080h
  5632  0042' 3000               	movlw	0x0
  5633  0043' 0080'              	movwf	(?_pow+1)^080h
  5634  0044' 3000               	movlw	0x0
  5635  0045' 0080'              	movwf	(?_pow)^080h
  5636                           
  5637  0046' 2800'              	goto	l3973
  5638                           	
  5639  0047'                    l10005:	
  5640  0047' 2800'              	goto	l3973
  5641                           	line	15
  5642                           	
  5643  0048'                    l3971:	
  5644                           	line	16
  5645                           	
  5646  0048'                    l10007:	
  5647  0048' 0800'              	movf	(pow@y+3)^080h,w
  5648  0049' 0400'              	iorwf	(pow@y+2)^080h,w
  5649  004A' 0400'              	iorwf	(pow@y+1)^080h,w
  5650  004B' 0400'              	iorwf	(pow@y)^080h,w
  5651  004C' 1D03               	skipz
  5652  004D' 2800'              	goto	u6541
  5653  004E' 2800'              	goto	u6540
  5654  004F'                    u6541:
  5655  004F' 2800'              	goto	l10013
  5656  0050'                    u6540:
  5657                           	line	17
  5658                           	
  5659  0050'                    l10009:	
  5660  0050' 303F               	movlw	0x3f
  5661  0051' 0080'              	movwf	(?_pow+3)^080h
  5662  0052' 3080               	movlw	0x80
  5663  0053' 0080'              	movwf	(?_pow+2)^080h
  5664  0054' 3000               	movlw	0x0
  5665  0055' 0080'              	movwf	(?_pow+1)^080h
  5666  0056' 3000               	movlw	0x0
  5667  0057' 0080'              	movwf	(?_pow)^080h
  5668                           
  5669  0058' 2800'              	goto	l3973
  5670                           	
  5671  0059'                    l10011:	
  5672  0059' 2800'              	goto	l3973
  5673                           	
  5674  005A'                    l3974:	
  5675                           	line	18
  5676                           	
  5677  005A'                    l10013:	
  5678  005A' 0800'              	movf	(pow@x+3)^080h,w
  5679  005B' 1283               	bcf	status, 5	;RP0=0, select bank0
  5680  005C' 1303               	bcf	status, 6	;RP1=0, select bank0
  5681  005D' 0083'              	movwf	(?___flge+3)
  5682  005E' 1683               	bsf	status, 5	;RP0=1, select bank1
  5683  005F' 1303               	bcf	status, 6	;RP1=0, select bank1
  5684  0060' 0800'              	movf	(pow@x+2)^080h,w
  5685  0061' 1283               	bcf	status, 5	;RP0=0, select bank0
  5686  0062' 1303               	bcf	status, 6	;RP1=0, select bank0
  5687  0063' 0082'              	movwf	(?___flge+2)
  5688  0064' 1683               	bsf	status, 5	;RP0=1, select bank1
  5689  0065' 1303               	bcf	status, 6	;RP1=0, select bank1
  5690  0066' 0800'              	movf	(pow@x+1)^080h,w
  5691  0067' 1283               	bcf	status, 5	;RP0=0, select bank0
  5692  0068' 1303               	bcf	status, 6	;RP1=0, select bank0
  5693  0069' 0081'              	movwf	(?___flge+1)
  5694  006A' 1683               	bsf	status, 5	;RP0=1, select bank1
  5695  006B' 1303               	bcf	status, 6	;RP1=0, select bank1
  5696  006C' 0800'              	movf	(pow@x)^080h,w
  5697  006D' 1283               	bcf	status, 5	;RP0=0, select bank0
  5698  006E' 1303               	bcf	status, 6	;RP1=0, select bank0
  5699  006F' 0080'              	movwf	(?___flge)
  5700                           
  5701  0070' 3000               	movlw	0x0
  5702  0071' 0087'              	movwf	3+(?___flge)+04h
  5703  0072' 3000               	movlw	0x0
  5704  0073' 0086'              	movwf	2+(?___flge)+04h
  5705  0074' 3000               	movlw	0x0
  5706  0075' 0085'              	movwf	1+(?___flge)+04h
  5707  0076' 3000               	movlw	0x0
  5708  0077' 0084'              	movwf	0+(?___flge)+04h
  5709                           
  5710  0078' 120A' 118A' 2000'  	fcall	___flge
              120A' 118A'        
  5711  007D' 1803               	btfsc	status,0
  5712  007E' 2800'              	goto	u6551
  5713  007F' 2800'              	goto	u6550
  5714  0080'                    u6551:
  5715  0080' 2800'              	goto	l10025
  5716  0081'                    u6550:
  5717                           	line	19
  5718                           	
  5719  0081'                    l10015:	
  5720  0081' 1683               	bsf	status, 5	;RP0=1, select bank1
  5721  0082' 1303               	bcf	status, 6	;RP1=0, select bank1
  5722  0083' 0800'              	movf	(pow@y+3)^080h,w
  5723  0084' 1283               	bcf	status, 5	;RP0=0, select bank0
  5724  0085' 1303               	bcf	status, 6	;RP1=0, select bank0
  5725  0086' 0093'              	movwf	(?___fltol+3)
  5726  0087' 1683               	bsf	status, 5	;RP0=1, select bank1
  5727  0088' 1303               	bcf	status, 6	;RP1=0, select bank1
  5728  0089' 0800'              	movf	(pow@y+2)^080h,w
  5729  008A' 1283               	bcf	status, 5	;RP0=0, select bank0
  5730  008B' 1303               	bcf	status, 6	;RP1=0, select bank0
  5731  008C' 0092'              	movwf	(?___fltol+2)
  5732  008D' 1683               	bsf	status, 5	;RP0=1, select bank1
  5733  008E' 1303               	bcf	status, 6	;RP1=0, select bank1
  5734  008F' 0800'              	movf	(pow@y+1)^080h,w
  5735  0090' 1283               	bcf	status, 5	;RP0=0, select bank0
  5736  0091' 1303               	bcf	status, 6	;RP1=0, select bank0
  5737  0092' 0091'              	movwf	(?___fltol+1)
  5738  0093' 1683               	bsf	status, 5	;RP0=1, select bank1
  5739  0094' 1303               	bcf	status, 6	;RP1=0, select bank1
  5740  0095' 0800'              	movf	(pow@y)^080h,w
  5741  0096' 1283               	bcf	status, 5	;RP0=0, select bank0
  5742  0097' 1303               	bcf	status, 6	;RP1=0, select bank0
  5743  0098' 0090'              	movwf	(?___fltol)
  5744                           
  5745  0099' 120A' 118A' 2000'  	fcall	___fltol
              120A' 118A'        
  5746  009E' 1283               	bcf	status, 5	;RP0=0, select bank0
  5747  009F' 1303               	bcf	status, 6	;RP1=0, select bank0
  5748  00A0' 0813'              	movf	(3+(?___fltol)),w
  5749  00A1' 1683               	bsf	status, 5	;RP0=1, select bank1
  5750  00A2' 1303               	bcf	status, 6	;RP1=0, select bank1
  5751  00A3' 0080'              	movwf	(pow@yi+3)^080h
  5752  00A4' 1283               	bcf	status, 5	;RP0=0, select bank0
  5753  00A5' 1303               	bcf	status, 6	;RP1=0, select bank0
  5754  00A6' 0812'              	movf	(2+(?___fltol)),w
  5755  00A7' 1683               	bsf	status, 5	;RP0=1, select bank1
  5756  00A8' 1303               	bcf	status, 6	;RP1=0, select bank1
  5757  00A9' 0080'              	movwf	(pow@yi+2)^080h
  5758  00AA' 1283               	bcf	status, 5	;RP0=0, select bank0
  5759  00AB' 1303               	bcf	status, 6	;RP1=0, select bank0
  5760  00AC' 0811'              	movf	(1+(?___fltol)),w
  5761  00AD' 1683               	bsf	status, 5	;RP0=1, select bank1
  5762  00AE' 1303               	bcf	status, 6	;RP1=0, select bank1
  5763  00AF' 0080'              	movwf	(pow@yi+1)^080h
  5764  00B0' 1283               	bcf	status, 5	;RP0=0, select bank0
  5765  00B1' 1303               	bcf	status, 6	;RP1=0, select bank0
  5766  00B2' 0810'              	movf	(0+(?___fltol)),w
  5767  00B3' 1683               	bsf	status, 5	;RP0=1, select bank1
  5768  00B4' 1303               	bcf	status, 6	;RP1=0, select bank1
  5769  00B5' 0080'              	movwf	(pow@yi)^080h
  5770                           
  5771                           	line	20
  5772  00B6' 0800'              	movf	(pow@yi+3)^080h,w
  5773  00B7' 1283               	bcf	status, 5	;RP0=0, select bank0
  5774  00B8' 1303               	bcf	status, 6	;RP1=0, select bank0
  5775  00B9' 008D'              	movwf	(?___lltofl+3)
  5776  00BA' 1683               	bsf	status, 5	;RP0=1, select bank1
  5777  00BB' 1303               	bcf	status, 6	;RP1=0, select bank1
  5778  00BC' 0800'              	movf	(pow@yi+2)^080h,w
  5779  00BD' 1283               	bcf	status, 5	;RP0=0, select bank0
  5780  00BE' 1303               	bcf	status, 6	;RP1=0, select bank0
  5781  00BF' 008C'              	movwf	(?___lltofl+2)
  5782  00C0' 1683               	bsf	status, 5	;RP0=1, select bank1
  5783  00C1' 1303               	bcf	status, 6	;RP1=0, select bank1
  5784  00C2' 0800'              	movf	(pow@yi+1)^080h,w
  5785  00C3' 1283               	bcf	status, 5	;RP0=0, select bank0
  5786  00C4' 1303               	bcf	status, 6	;RP1=0, select bank0
  5787  00C5' 008B'              	movwf	(?___lltofl+1)
  5788  00C6' 1683               	bsf	status, 5	;RP0=1, select bank1
  5789  00C7' 1303               	bcf	status, 6	;RP1=0, select bank1
  5790  00C8' 0800'              	movf	(pow@yi)^080h,w
  5791  00C9' 1283               	bcf	status, 5	;RP0=0, select bank0
  5792  00CA' 1303               	bcf	status, 6	;RP1=0, select bank0
  5793  00CB' 008A'              	movwf	(?___lltofl)
  5794                           
  5795  00CC' 120A' 118A' 2000'  	fcall	___lltofl
              120A' 118A'        
  5796  00D1' 1683               	bsf	status, 5	;RP0=1, select bank1
  5797  00D2' 1303               	bcf	status, 6	;RP1=0, select bank1
  5798  00D3' 0800'              	movf	(pow@y+3)^080h,w
  5799  00D4' 1283               	bcf	status, 5	;RP0=0, select bank0
  5800  00D5' 1303               	bcf	status, 6	;RP1=0, select bank0
  5801  00D6' 060D'              	xorwf	(3+(?___lltofl)),w
  5802  00D7' 1D03               	skipz
  5803  00D8' 2800'              	goto	u6565
  5804  00D9' 1683               	bsf	status, 5	;RP0=1, select bank1
  5805  00DA' 1303               	bcf	status, 6	;RP1=0, select bank1
  5806  00DB' 0800'              	movf	(pow@y+2)^080h,w
  5807  00DC' 1283               	bcf	status, 5	;RP0=0, select bank0
  5808  00DD' 1303               	bcf	status, 6	;RP1=0, select bank0
  5809  00DE' 060C'              	xorwf	(2+(?___lltofl)),w
  5810  00DF' 1D03               	skipz
  5811  00E0' 2800'              	goto	u6565
  5812  00E1' 1683               	bsf	status, 5	;RP0=1, select bank1
  5813  00E2' 1303               	bcf	status, 6	;RP1=0, select bank1
  5814  00E3' 0800'              	movf	(pow@y+1)^080h,w
  5815  00E4' 1283               	bcf	status, 5	;RP0=0, select bank0
  5816  00E5' 1303               	bcf	status, 6	;RP1=0, select bank0
  5817  00E6' 060B'              	xorwf	(1+(?___lltofl)),w
  5818  00E7' 1D03               	skipz
  5819  00E8' 2800'              	goto	u6565
  5820  00E9' 1683               	bsf	status, 5	;RP0=1, select bank1
  5821  00EA' 1303               	bcf	status, 6	;RP1=0, select bank1
  5822  00EB' 0800'              	movf	(pow@y)^080h,w
  5823  00EC' 1283               	bcf	status, 5	;RP0=0, select bank0
  5824  00ED' 1303               	bcf	status, 6	;RP1=0, select bank0
  5825  00EE' 060A'              	xorwf	(0+(?___lltofl)),w
  5826  00EF'                    u6565:
  5827  00EF' 1903               	skipnz
  5828  00F0' 2800'              	goto	u6561
  5829  00F1' 2800'              	goto	u6560
  5830  00F2'                    u6561:
  5831  00F2' 2800'              	goto	l10021
  5832  00F3'                    u6560:
  5833                           	line	21
  5834                           	
  5835  00F3'                    l10017:	
  5836  00F3' 3021               	movlw	low(021h)
  5837  00F4' 1683               	bsf	status, 5	;RP0=1, select bank3
  5838  00F5' 1703               	bsf	status, 6	;RP1=1, select bank3
  5839  00F6' 0080'              	movwf	(_errno)^0180h
  5840  00F7' 3000               	movlw	high(021h)
  5841  00F8' 0081'              	movwf	((_errno)^0180h)+1
  5842                           	line	22
  5843  00F9' 3000               	movlw	0x0
  5844  00FA' 1683               	bsf	status, 5	;RP0=1, select bank1
  5845  00FB' 1303               	bcf	status, 6	;RP1=0, select bank1
  5846  00FC' 0080'              	movwf	(?_pow+3)^080h
  5847  00FD' 3000               	movlw	0x0
  5848  00FE' 0080'              	movwf	(?_pow+2)^080h
  5849  00FF' 3000               	movlw	0x0
  5850  0100' 0080'              	movwf	(?_pow+1)^080h
  5851  0101' 3000               	movlw	0x0
  5852  0102' 0080'              	movwf	(?_pow)^080h
  5853                           
  5854  0103' 2800'              	goto	l3973
  5855                           	
  5856  0104'                    l10019:	
  5857  0104' 2800'              	goto	l3973
  5858                           	line	23
  5859                           	
  5860  0105'                    l3976:	
  5861                           	line	24
  5862                           	
  5863  0105'                    l10021:	
  5864  0105' 1683               	bsf	status, 5	;RP0=1, select bank1
  5865  0106' 1303               	bcf	status, 6	;RP1=0, select bank1
  5866  0107' 0800'              	movf	(pow@yi)^080h,w
  5867  0108' 3901               	andlw	01h
  5868  0109' 0080'              	movwf	(??_pow+0)^080h+0
  5869  010A' 0800'              	movf	(??_pow+0)^080h+0,w
  5870  010B' 0080'              	movwf	(pow@sign)^080h
  5871                           	line	25
  5872                           	
  5873  010C'                    l10023:	
  5874  010C' 0800'              	movf	(pow@x+3)^080h,w
  5875  010D' 1283               	bcf	status, 5	;RP0=0, select bank0
  5876  010E' 1303               	bcf	status, 6	;RP1=0, select bank0
  5877  010F' 008D'              	movwf	(?___flneg+3)
  5878  0110' 1683               	bsf	status, 5	;RP0=1, select bank1
  5879  0111' 1303               	bcf	status, 6	;RP1=0, select bank1
  5880  0112' 0800'              	movf	(pow@x+2)^080h,w
  5881  0113' 1283               	bcf	status, 5	;RP0=0, select bank0
  5882  0114' 1303               	bcf	status, 6	;RP1=0, select bank0
  5883  0115' 008C'              	movwf	(?___flneg+2)
  5884  0116' 1683               	bsf	status, 5	;RP0=1, select bank1
  5885  0117' 1303               	bcf	status, 6	;RP1=0, select bank1
  5886  0118' 0800'              	movf	(pow@x+1)^080h,w
  5887  0119' 1283               	bcf	status, 5	;RP0=0, select bank0
  5888  011A' 1303               	bcf	status, 6	;RP1=0, select bank0
  5889  011B' 008B'              	movwf	(?___flneg+1)
  5890  011C' 1683               	bsf	status, 5	;RP0=1, select bank1
  5891  011D' 1303               	bcf	status, 6	;RP1=0, select bank1
  5892  011E' 0800'              	movf	(pow@x)^080h,w
  5893  011F' 1283               	bcf	status, 5	;RP0=0, select bank0
  5894  0120' 1303               	bcf	status, 6	;RP1=0, select bank0
  5895  0121' 008A'              	movwf	(?___flneg)
  5896                           
  5897  0122' 120A' 118A' 2000'  	fcall	___flneg
              120A' 118A'        
  5898  0127' 1283               	bcf	status, 5	;RP0=0, select bank0
  5899  0128' 1303               	bcf	status, 6	;RP1=0, select bank0
  5900  0129' 080D'              	movf	(3+(?___flneg)),w
  5901  012A' 1683               	bsf	status, 5	;RP0=1, select bank1
  5902  012B' 1303               	bcf	status, 6	;RP1=0, select bank1
  5903  012C' 0080'              	movwf	(pow@x+3)^080h
  5904  012D' 1283               	bcf	status, 5	;RP0=0, select bank0
  5905  012E' 1303               	bcf	status, 6	;RP1=0, select bank0
  5906  012F' 080C'              	movf	(2+(?___flneg)),w
  5907  0130' 1683               	bsf	status, 5	;RP0=1, select bank1
  5908  0131' 1303               	bcf	status, 6	;RP1=0, select bank1
  5909  0132' 0080'              	movwf	(pow@x+2)^080h
  5910  0133' 1283               	bcf	status, 5	;RP0=0, select bank0
  5911  0134' 1303               	bcf	status, 6	;RP1=0, select bank0
  5912  0135' 080B'              	movf	(1+(?___flneg)),w
  5913  0136' 1683               	bsf	status, 5	;RP0=1, select bank1
  5914  0137' 1303               	bcf	status, 6	;RP1=0, select bank1
  5915  0138' 0080'              	movwf	(pow@x+1)^080h
  5916  0139' 1283               	bcf	status, 5	;RP0=0, select bank0
  5917  013A' 1303               	bcf	status, 6	;RP1=0, select bank0
  5918  013B' 080A'              	movf	(0+(?___flneg)),w
  5919  013C' 1683               	bsf	status, 5	;RP0=1, select bank1
  5920  013D' 1303               	bcf	status, 6	;RP1=0, select bank1
  5921  013E' 0080'              	movwf	(pow@x)^080h
  5922                           
  5923  013F' 2800'              	goto	l10025
  5924                           	line	26
  5925                           	
  5926  0140'                    l3975:	
  5927                           	line	27
  5928                           	
  5929  0140'                    l10025:	
  5930  0140' 1683               	bsf	status, 5	;RP0=1, select bank1
  5931  0141' 1303               	bcf	status, 6	;RP1=0, select bank1
  5932  0142' 0800'              	movf	(pow@x+3)^080h,w
  5933  0143' 0080'              	movwf	(?_log+3)^080h
  5934  0144' 0800'              	movf	(pow@x+2)^080h,w
  5935  0145' 0080'              	movwf	(?_log+2)^080h
  5936  0146' 0800'              	movf	(pow@x+1)^080h,w
  5937  0147' 0080'              	movwf	(?_log+1)^080h
  5938  0148' 0800'              	movf	(pow@x)^080h,w
  5939  0149' 0080'              	movwf	(?_log)^080h
  5940                           
  5941  014A' 120A' 118A' 2000'  	fcall	_log
              120A' 118A'        
  5942  014F' 1683               	bsf	status, 5	;RP0=1, select bank1
  5943  0150' 1303               	bcf	status, 6	;RP1=0, select bank1
  5944  0151' 0800'              	movf	(3+(?_log))^080h,w
  5945  0152' 0080'              	movwf	(_pow$5213+3)^080h
  5946  0153' 0800'              	movf	(2+(?_log))^080h,w
  5947  0154' 0080'              	movwf	(_pow$5213+2)^080h
  5948  0155' 0800'              	movf	(1+(?_log))^080h,w
  5949  0156' 0080'              	movwf	(_pow$5213+1)^080h
  5950  0157' 0800'              	movf	(0+(?_log))^080h,w
  5951  0158' 0080'              	movwf	(_pow$5213)^080h
  5952                           
  5953                           	
  5954  0159'                    l10027:	
  5955  0159' 0800'              	movf	(pow@y+3)^080h,w
  5956  015A' 1283               	bcf	status, 5	;RP0=0, select bank0
  5957  015B' 1303               	bcf	status, 6	;RP1=0, select bank0
  5958  015C' 00B2'              	movwf	(?___flmul+3)
  5959  015D' 1683               	bsf	status, 5	;RP0=1, select bank1
  5960  015E' 1303               	bcf	status, 6	;RP1=0, select bank1
  5961  015F' 0800'              	movf	(pow@y+2)^080h,w
  5962  0160' 1283               	bcf	status, 5	;RP0=0, select bank0
  5963  0161' 1303               	bcf	status, 6	;RP1=0, select bank0
  5964  0162' 00B1'              	movwf	(?___flmul+2)
  5965  0163' 1683               	bsf	status, 5	;RP0=1, select bank1
  5966  0164' 1303               	bcf	status, 6	;RP1=0, select bank1
  5967  0165' 0800'              	movf	(pow@y+1)^080h,w
  5968  0166' 1283               	bcf	status, 5	;RP0=0, select bank0
  5969  0167' 1303               	bcf	status, 6	;RP1=0, select bank0
  5970  0168' 00B0'              	movwf	(?___flmul+1)
  5971  0169' 1683               	bsf	status, 5	;RP0=1, select bank1
  5972  016A' 1303               	bcf	status, 6	;RP1=0, select bank1
  5973  016B' 0800'              	movf	(pow@y)^080h,w
  5974  016C' 1283               	bcf	status, 5	;RP0=0, select bank0
  5975  016D' 1303               	bcf	status, 6	;RP1=0, select bank0
  5976  016E' 00AF'              	movwf	(?___flmul)
  5977                           
  5978  016F' 1683               	bsf	status, 5	;RP0=1, select bank1
  5979  0170' 1303               	bcf	status, 6	;RP1=0, select bank1
  5980  0171' 0800'              	movf	(_pow$5213+3)^080h,w
  5981  0172' 1283               	bcf	status, 5	;RP0=0, select bank0
  5982  0173' 1303               	bcf	status, 6	;RP1=0, select bank0
  5983  0174' 00B6'              	movwf	3+(?___flmul)+04h
  5984  0175' 1683               	bsf	status, 5	;RP0=1, select bank1
  5985  0176' 1303               	bcf	status, 6	;RP1=0, select bank1
  5986  0177' 0800'              	movf	(_pow$5213+2)^080h,w
  5987  0178' 1283               	bcf	status, 5	;RP0=0, select bank0
  5988  0179' 1303               	bcf	status, 6	;RP1=0, select bank0
  5989  017A' 00B5'              	movwf	2+(?___flmul)+04h
  5990  017B' 1683               	bsf	status, 5	;RP0=1, select bank1
  5991  017C' 1303               	bcf	status, 6	;RP1=0, select bank1
  5992  017D' 0800'              	movf	(_pow$5213+1)^080h,w
  5993  017E' 1283               	bcf	status, 5	;RP0=0, select bank0
  5994  017F' 1303               	bcf	status, 6	;RP1=0, select bank0
  5995  0180' 00B4'              	movwf	1+(?___flmul)+04h
  5996  0181' 1683               	bsf	status, 5	;RP0=1, select bank1
  5997  0182' 1303               	bcf	status, 6	;RP1=0, select bank1
  5998  0183' 0800'              	movf	(_pow$5213)^080h,w
  5999  0184' 1283               	bcf	status, 5	;RP0=0, select bank0
  6000  0185' 1303               	bcf	status, 6	;RP1=0, select bank0
  6001  0186' 00B3'              	movwf	0+(?___flmul)+04h
  6002                           
  6003  0187' 120A' 118A' 2000'  	fcall	___flmul
              120A' 118A'        
  6004  018C' 1283               	bcf	status, 5	;RP0=0, select bank0
  6005  018D' 1303               	bcf	status, 6	;RP1=0, select bank0
  6006  018E' 0832'              	movf	(3+(?___flmul)),w
  6007  018F' 1683               	bsf	status, 5	;RP0=1, select bank1
  6008  0190' 1303               	bcf	status, 6	;RP1=0, select bank1
  6009  0191' 0080'              	movwf	(?_exp+3)^080h
  6010  0192' 1283               	bcf	status, 5	;RP0=0, select bank0
  6011  0193' 1303               	bcf	status, 6	;RP1=0, select bank0
  6012  0194' 0831'              	movf	(2+(?___flmul)),w
  6013  0195' 1683               	bsf	status, 5	;RP0=1, select bank1
  6014  0196' 1303               	bcf	status, 6	;RP1=0, select bank1
  6015  0197' 0080'              	movwf	(?_exp+2)^080h
  6016  0198' 1283               	bcf	status, 5	;RP0=0, select bank0
  6017  0199' 1303               	bcf	status, 6	;RP1=0, select bank0
  6018  019A' 0830'              	movf	(1+(?___flmul)),w
  6019  019B' 1683               	bsf	status, 5	;RP0=1, select bank1
  6020  019C' 1303               	bcf	status, 6	;RP1=0, select bank1
  6021  019D' 0080'              	movwf	(?_exp+1)^080h
  6022  019E' 1283               	bcf	status, 5	;RP0=0, select bank0
  6023  019F' 1303               	bcf	status, 6	;RP1=0, select bank0
  6024  01A0' 082F'              	movf	(0+(?___flmul)),w
  6025  01A1' 1683               	bsf	status, 5	;RP0=1, select bank1
  6026  01A2' 1303               	bcf	status, 6	;RP1=0, select bank1
  6027  01A3' 0080'              	movwf	(?_exp)^080h
  6028                           
  6029  01A4' 120A' 118A' 2000'  	fcall	_exp
              120A' 118A'        
  6030  01A9' 1683               	bsf	status, 5	;RP0=1, select bank1
  6031  01AA' 1303               	bcf	status, 6	;RP1=0, select bank1
  6032  01AB' 0800'              	movf	(3+(?_exp))^080h,w
  6033  01AC' 0080'              	movwf	(pow@x+3)^080h
  6034  01AD' 0800'              	movf	(2+(?_exp))^080h,w
  6035  01AE' 0080'              	movwf	(pow@x+2)^080h
  6036  01AF' 0800'              	movf	(1+(?_exp))^080h,w
  6037  01B0' 0080'              	movwf	(pow@x+1)^080h
  6038  01B1' 0800'              	movf	(0+(?_exp))^080h,w
  6039  01B2' 0080'              	movwf	(pow@x)^080h
  6040                           
  6041                           	line	28
  6042                           	
  6043  01B3'                    l10029:	
  6044  01B3' 0800'              	movf	(pow@sign)^080h,w
  6045  01B4' 1D03               	skipz
  6046  01B5' 2800'              	goto	u6570
  6047  01B6' 2800'              	goto	l3977
  6048  01B7'                    u6570:
  6049                           	line	29
  6050                           	
  6051  01B7'                    l10031:	
  6052  01B7' 0800'              	movf	(pow@x+3)^080h,w
  6053  01B8' 1283               	bcf	status, 5	;RP0=0, select bank0
  6054  01B9' 1303               	bcf	status, 6	;RP1=0, select bank0
  6055  01BA' 008D'              	movwf	(?___flneg+3)
  6056  01BB' 1683               	bsf	status, 5	;RP0=1, select bank1
  6057  01BC' 1303               	bcf	status, 6	;RP1=0, select bank1
  6058  01BD' 0800'              	movf	(pow@x+2)^080h,w
  6059  01BE' 1283               	bcf	status, 5	;RP0=0, select bank0
  6060  01BF' 1303               	bcf	status, 6	;RP1=0, select bank0
  6061  01C0' 008C'              	movwf	(?___flneg+2)
  6062  01C1' 1683               	bsf	status, 5	;RP0=1, select bank1
  6063  01C2' 1303               	bcf	status, 6	;RP1=0, select bank1
  6064  01C3' 0800'              	movf	(pow@x+1)^080h,w
  6065  01C4' 1283               	bcf	status, 5	;RP0=0, select bank0
  6066  01C5' 1303               	bcf	status, 6	;RP1=0, select bank0
  6067  01C6' 008B'              	movwf	(?___flneg+1)
  6068  01C7' 1683               	bsf	status, 5	;RP0=1, select bank1
  6069  01C8' 1303               	bcf	status, 6	;RP1=0, select bank1
  6070  01C9' 0800'              	movf	(pow@x)^080h,w
  6071  01CA' 1283               	bcf	status, 5	;RP0=0, select bank0
  6072  01CB' 1303               	bcf	status, 6	;RP1=0, select bank0
  6073  01CC' 008A'              	movwf	(?___flneg)
  6074                           
  6075  01CD' 120A' 118A' 2000'  	fcall	___flneg
              120A' 118A'        
  6076  01D2' 1283               	bcf	status, 5	;RP0=0, select bank0
  6077  01D3' 1303               	bcf	status, 6	;RP1=0, select bank0
  6078  01D4' 080D'              	movf	(3+(?___flneg)),w
  6079  01D5' 1683               	bsf	status, 5	;RP0=1, select bank1
  6080  01D6' 1303               	bcf	status, 6	;RP1=0, select bank1
  6081  01D7' 0080'              	movwf	(?_pow+3)^080h
  6082  01D8' 1283               	bcf	status, 5	;RP0=0, select bank0
  6083  01D9' 1303               	bcf	status, 6	;RP1=0, select bank0
  6084  01DA' 080C'              	movf	(2+(?___flneg)),w
  6085  01DB' 1683               	bsf	status, 5	;RP0=1, select bank1
  6086  01DC' 1303               	bcf	status, 6	;RP1=0, select bank1
  6087  01DD' 0080'              	movwf	(?_pow+2)^080h
  6088  01DE' 1283               	bcf	status, 5	;RP0=0, select bank0
  6089  01DF' 1303               	bcf	status, 6	;RP1=0, select bank0
  6090  01E0' 080B'              	movf	(1+(?___flneg)),w
  6091  01E1' 1683               	bsf	status, 5	;RP0=1, select bank1
  6092  01E2' 1303               	bcf	status, 6	;RP1=0, select bank1
  6093  01E3' 0080'              	movwf	(?_pow+1)^080h
  6094  01E4' 1283               	bcf	status, 5	;RP0=0, select bank0
  6095  01E5' 1303               	bcf	status, 6	;RP1=0, select bank0
  6096  01E6' 080A'              	movf	(0+(?___flneg)),w
  6097  01E7' 1683               	bsf	status, 5	;RP0=1, select bank1
  6098  01E8' 1303               	bcf	status, 6	;RP1=0, select bank1
  6099  01E9' 0080'              	movwf	(?_pow)^080h
  6100                           
  6101  01EA' 2800'              	goto	l3973
  6102                           	
  6103  01EB'                    l10033:	
  6104  01EB' 2800'              	goto	l3973
  6105                           	
  6106  01EC'                    l3977:	
  6107                           	line	30
  6108                           	line	31
  6109                           	
  6110  01EC'                    l3973:	
  6111  01EC' 0008               	return
  6112                           	opt stack 0
  6113                           GLOBAL	__end_of_pow
  6114  01ED'                    	__end_of_pow:
  6115 ;; =============== function _pow ends ============
  6116                           
  6117                           	signat	_pow,8316
  6118                           	global	_log10
  6119                           psect	text1441,local,class=CODE,delta=2
  6120                           global __ptext1441
  6121  0000'                    __ptext1441:
  6122                           
  6123 ;; *************** function _log10 *****************
  6124 ;; Defined at:
  6125 ;;		line 40 in file "/opt/hitech/picc/9.83/sources/log.c"
  6126 ;; Parameters:    Size  Location     Type
  6127 ;;  x               4   38[BANK1 ] unsigned char 
  6128 ;; Auto vars:     Size  Location     Type
  6129 ;;		None
  6130 ;; Return value:  Size  Location     Type
  6131 ;;                  4   38[BANK1 ] unsigned char 
  6132 ;; Registers used:
  6133 ;;		wreg, fsr0l, fsr0h, status,2, status,0, btemp+1, pclath, cstack
  6134 ;; Tracked objects:
  6135 ;;		On entry : 0/0
  6136 ;;		On exit  : 0/0
  6137 ;;		Unchanged: 0/0
  6138 ;; Data sizes:     COMMON   BANK0   BANK1   BANK3   BANK2
  6139 ;;      Params:         0       0       4       0       0
  6140 ;;      Locals:         0       0       4       0       0
  6141 ;;      Temps:          0       0       0       0       0
  6142 ;;      Totals:         0       0       8       0       0
  6143 ;;Total ram usage:        8 bytes
  6144 ;; Hardware stack levels used:    1
  6145 ;; Hardware stack levels required when called:    5
  6146 ;; This function calls:
  6147 ;;		_log
  6148 ;;		___flmul
  6149 ;; This function is called by:
  6150 ;;		_format_double
  6151 ;;		_format_float
  6152 ;; This function uses a non-reentrant model
  6153 ;;
  6154                           psect	text1441
  6155                           	file	"/opt/hitech/picc/9.83/sources/log.c"
  6156                           	line	40
  6157                           	global	__size_of_log10
  6158  005A                     	__size_of_log10	equ	__end_of_log10-_log10
  6159                           	
  6160  0000'                    _log10:	
  6161                           	opt	stack 0
  6162                           ; Regs used in _log10: [wreg-fsr0h+status,2+status,0+btemp+1+pclath+cstack]
  6163                           	line	41
  6164                           	
  6165  0000'                    l9991:	
  6166  0000' 1683               	bsf	status, 5	;RP0=1, select bank1
  6167  0001' 1303               	bcf	status, 6	;RP1=0, select bank1
  6168  0002' 0800'              	movf	(log10@x+3)^080h,w
  6169  0003' 0080'              	movwf	(?_log+3)^080h
  6170  0004' 0800'              	movf	(log10@x+2)^080h,w
  6171  0005' 0080'              	movwf	(?_log+2)^080h
  6172  0006' 0800'              	movf	(log10@x+1)^080h,w
  6173  0007' 0080'              	movwf	(?_log+1)^080h
  6174  0008' 0800'              	movf	(log10@x)^080h,w
  6175  0009' 0080'              	movwf	(?_log)^080h
  6176                           
  6177  000A' 120A' 118A' 2000'  	fcall	_log
              120A' 118A'        
  6178  000F' 1683               	bsf	status, 5	;RP0=1, select bank1
  6179  0010' 1303               	bcf	status, 6	;RP1=0, select bank1
  6180  0011' 0800'              	movf	(3+(?_log))^080h,w
  6181  0012' 0080'              	movwf	(_log10$5212+3)^080h
  6182  0013' 0800'              	movf	(2+(?_log))^080h,w
  6183  0014' 0080'              	movwf	(_log10$5212+2)^080h
  6184  0015' 0800'              	movf	(1+(?_log))^080h,w
  6185  0016' 0080'              	movwf	(_log10$5212+1)^080h
  6186  0017' 0800'              	movf	(0+(?_log))^080h,w
  6187  0018' 0080'              	movwf	(_log10$5212)^080h
  6188                           
  6189                           	
  6190  0019'                    l9993:	
  6191  0019' 303E               	movlw	0x3e
  6192  001A' 1283               	bcf	status, 5	;RP0=0, select bank0
  6193  001B' 1303               	bcf	status, 6	;RP1=0, select bank0
  6194  001C' 00B2'              	movwf	(?___flmul+3)
  6195  001D' 30DE               	movlw	0xde
  6196  001E' 00B1'              	movwf	(?___flmul+2)
  6197  001F' 305B               	movlw	0x5b
  6198  0020' 00B0'              	movwf	(?___flmul+1)
  6199  0021' 30D9               	movlw	0xd9
  6200  0022' 00AF'              	movwf	(?___flmul)
  6201                           
  6202  0023' 1683               	bsf	status, 5	;RP0=1, select bank1
  6203  0024' 1303               	bcf	status, 6	;RP1=0, select bank1
  6204  0025' 0800'              	movf	(_log10$5212+3)^080h,w
  6205  0026' 1283               	bcf	status, 5	;RP0=0, select bank0
  6206  0027' 1303               	bcf	status, 6	;RP1=0, select bank0
  6207  0028' 00B6'              	movwf	3+(?___flmul)+04h
  6208  0029' 1683               	bsf	status, 5	;RP0=1, select bank1
  6209  002A' 1303               	bcf	status, 6	;RP1=0, select bank1
  6210  002B' 0800'              	movf	(_log10$5212+2)^080h,w
  6211  002C' 1283               	bcf	status, 5	;RP0=0, select bank0
  6212  002D' 1303               	bcf	status, 6	;RP1=0, select bank0
  6213  002E' 00B5'              	movwf	2+(?___flmul)+04h
  6214  002F' 1683               	bsf	status, 5	;RP0=1, select bank1
  6215  0030' 1303               	bcf	status, 6	;RP1=0, select bank1
  6216  0031' 0800'              	movf	(_log10$5212+1)^080h,w
  6217  0032' 1283               	bcf	status, 5	;RP0=0, select bank0
  6218  0033' 1303               	bcf	status, 6	;RP1=0, select bank0
  6219  0034' 00B4'              	movwf	1+(?___flmul)+04h
  6220  0035' 1683               	bsf	status, 5	;RP0=1, select bank1
  6221  0036' 1303               	bcf	status, 6	;RP1=0, select bank1
  6222  0037' 0800'              	movf	(_log10$5212)^080h,w
  6223  0038' 1283               	bcf	status, 5	;RP0=0, select bank0
  6224  0039' 1303               	bcf	status, 6	;RP1=0, select bank0
  6225  003A' 00B3'              	movwf	0+(?___flmul)+04h
  6226                           
  6227  003B' 120A' 118A' 2000'  	fcall	___flmul
              120A' 118A'        
  6228  0040' 1283               	bcf	status, 5	;RP0=0, select bank0
  6229  0041' 1303               	bcf	status, 6	;RP1=0, select bank0
  6230  0042' 0832'              	movf	(3+(?___flmul)),w
  6231  0043' 1683               	bsf	status, 5	;RP0=1, select bank1
  6232  0044' 1303               	bcf	status, 6	;RP1=0, select bank1
  6233  0045' 0080'              	movwf	(?_log10+3)^080h
  6234  0046' 1283               	bcf	status, 5	;RP0=0, select bank0
  6235  0047' 1303               	bcf	status, 6	;RP1=0, select bank0
  6236  0048' 0831'              	movf	(2+(?___flmul)),w
  6237  0049' 1683               	bsf	status, 5	;RP0=1, select bank1
  6238  004A' 1303               	bcf	status, 6	;RP1=0, select bank1
  6239  004B' 0080'              	movwf	(?_log10+2)^080h
  6240  004C' 1283               	bcf	status, 5	;RP0=0, select bank0
  6241  004D' 1303               	bcf	status, 6	;RP1=0, select bank0
  6242  004E' 0830'              	movf	(1+(?___flmul)),w
  6243  004F' 1683               	bsf	status, 5	;RP0=1, select bank1
  6244  0050' 1303               	bcf	status, 6	;RP1=0, select bank1
  6245  0051' 0080'              	movwf	(?_log10+1)^080h
  6246  0052' 1283               	bcf	status, 5	;RP0=0, select bank0
  6247  0053' 1303               	bcf	status, 6	;RP1=0, select bank0
  6248  0054' 082F'              	movf	(0+(?___flmul)),w
  6249  0055' 1683               	bsf	status, 5	;RP0=1, select bank1
  6250  0056' 1303               	bcf	status, 6	;RP1=0, select bank1
  6251  0057' 0080'              	movwf	(?_log10)^080h
  6252                           
  6253  0058' 2800'              	goto	l3962
  6254                           	
  6255  0059'                    l9995:	
  6256                           	line	42
  6257                           	
  6258  0059'                    l3962:	
  6259  0059' 0008               	return
  6260                           	opt stack 0
  6261                           GLOBAL	__end_of_log10
  6262  005A'                    	__end_of_log10:
  6263 ;; =============== function _log10 ends ============
  6264                           
  6265                           	signat	_log10,4220
  6266                           	global	_exp
  6267                           psect	text1442,local,class=CODE,delta=2
  6268                           global __ptext1442
  6269  0000'                    __ptext1442:
  6270                           
  6271 ;; *************** function _exp *****************
  6272 ;; Defined at:
  6273 ;;		line 13 in file "/opt/hitech/picc/9.83/sources/exp.c"
  6274 ;; Parameters:    Size  Location     Type
  6275 ;;  x               4   38[BANK1 ] unsigned char 
  6276 ;; Auto vars:     Size  Location     Type
  6277 ;;  exp             2   47[BANK1 ] int 
  6278 ;;  sign            1   49[BANK1 ] unsigned char 
  6279 ;; Return value:  Size  Location     Type
  6280 ;;                  4   38[BANK1 ] unsigned char 
  6281 ;; Registers used:
  6282 ;;		wreg, fsr0l, fsr0h, status,2, status,0, btemp+1, pclath, cstack
  6283 ;; Tracked objects:
  6284 ;;		On entry : 0/0
  6285 ;;		On exit  : 0/0
  6286 ;;		Unchanged: 0/0
  6287 ;; Data sizes:     COMMON   BANK0   BANK1   BANK3   BANK2
  6288 ;;      Params:         0       0       4       0       0
  6289 ;;      Locals:         0       0       7       0       0
  6290 ;;      Temps:          0       0       1       0       0
  6291 ;;      Totals:         0       0      12       0       0
  6292 ;;Total ram usage:       12 bytes
  6293 ;; Hardware stack levels used:    1
  6294 ;; Hardware stack levels required when called:    4
  6295 ;; This function calls:
  6296 ;;		___flge
  6297 ;;		___flneg
  6298 ;;		___flmul
  6299 ;;		_floor
  6300 ;;		___fltol
  6301 ;;		___awtofl
  6302 ;;		___flsub
  6303 ;;		_eval_poly
  6304 ;;		_ldexp
  6305 ;;		___fldiv
  6306 ;; This function is called by:
  6307 ;;		_pow
  6308 ;; This function uses a non-reentrant model
  6309 ;;
  6310                           psect	text1442
  6311                           	file	"/opt/hitech/picc/9.83/sources/exp.c"
  6312                           	line	13
  6313                           	global	__size_of_exp
  6314  0259                     	__size_of_exp	equ	__end_of_exp-_exp
  6315                           	
  6316  0000'                    _exp:	
  6317                           	opt	stack 0
  6318                           ; Regs used in _exp: [wreg-fsr0h+status,2+status,0+btemp+1+pclath+cstack]
  6319                           	line	31
  6320                           	
  6321  0000'                    l9939:	
  6322  0000' 1683               	bsf	status, 5	;RP0=1, select bank1
  6323  0001' 1303               	bcf	status, 6	;RP1=0, select bank1
  6324  0002' 0800'              	movf	(exp@x+3)^080h,w
  6325  0003' 0400'              	iorwf	(exp@x+2)^080h,w
  6326  0004' 0400'              	iorwf	(exp@x+1)^080h,w
  6327  0005' 0400'              	iorwf	(exp@x)^080h,w
  6328  0006' 1D03               	skipz
  6329  0007' 2800'              	goto	u6461
  6330  0008' 2800'              	goto	u6460
  6331  0009'                    u6461:
  6332  0009' 2800'              	goto	l9945
  6333  000A'                    u6460:
  6334                           	line	32
  6335                           	
  6336  000A'                    l9941:	
  6337  000A' 303F               	movlw	0x3f
  6338  000B' 0080'              	movwf	(?_exp+3)^080h
  6339  000C' 3080               	movlw	0x80
  6340  000D' 0080'              	movwf	(?_exp+2)^080h
  6341  000E' 3000               	movlw	0x0
  6342  000F' 0080'              	movwf	(?_exp+1)^080h
  6343  0010' 3000               	movlw	0x0
  6344  0011' 0080'              	movwf	(?_exp)^080h
  6345                           
  6346  0012' 2800'              	goto	l4355
  6347                           	
  6348  0013'                    l9943:	
  6349  0013' 2800'              	goto	l4355
  6350                           	
  6351  0014'                    l4354:	
  6352                           	line	34
  6353                           	
  6354  0014'                    l9945:	
  6355  0014' 3044               	movlw	0x44
  6356  0015' 1283               	bcf	status, 5	;RP0=0, select bank0
  6357  0016' 1303               	bcf	status, 6	;RP1=0, select bank0
  6358  0017' 0083'              	movwf	(?___flge+3)
  6359  0018' 3031               	movlw	0x31
  6360  0019' 0082'              	movwf	(?___flge+2)
  6361  001A' 3072               	movlw	0x72
  6362  001B' 0081'              	movwf	(?___flge+1)
  6363  001C' 3018               	movlw	0x18
  6364  001D' 0080'              	movwf	(?___flge)
  6365                           
  6366  001E' 1683               	bsf	status, 5	;RP0=1, select bank1
  6367  001F' 1303               	bcf	status, 6	;RP1=0, select bank1
  6368  0020' 0800'              	movf	(exp@x+3)^080h,w
  6369  0021' 1283               	bcf	status, 5	;RP0=0, select bank0
  6370  0022' 1303               	bcf	status, 6	;RP1=0, select bank0
  6371  0023' 0087'              	movwf	3+(?___flge)+04h
  6372  0024' 1683               	bsf	status, 5	;RP0=1, select bank1
  6373  0025' 1303               	bcf	status, 6	;RP1=0, select bank1
  6374  0026' 0800'              	movf	(exp@x+2)^080h,w
  6375  0027' 1283               	bcf	status, 5	;RP0=0, select bank0
  6376  0028' 1303               	bcf	status, 6	;RP1=0, select bank0
  6377  0029' 0086'              	movwf	2+(?___flge)+04h
  6378  002A' 1683               	bsf	status, 5	;RP0=1, select bank1
  6379  002B' 1303               	bcf	status, 6	;RP1=0, select bank1
  6380  002C' 0800'              	movf	(exp@x+1)^080h,w
  6381  002D' 1283               	bcf	status, 5	;RP0=0, select bank0
  6382  002E' 1303               	bcf	status, 6	;RP1=0, select bank0
  6383  002F' 0085'              	movwf	1+(?___flge)+04h
  6384  0030' 1683               	bsf	status, 5	;RP0=1, select bank1
  6385  0031' 1303               	bcf	status, 6	;RP1=0, select bank1
  6386  0032' 0800'              	movf	(exp@x)^080h,w
  6387  0033' 1283               	bcf	status, 5	;RP0=0, select bank0
  6388  0034' 1303               	bcf	status, 6	;RP1=0, select bank0
  6389  0035' 0084'              	movwf	0+(?___flge)+04h
  6390                           
  6391  0036' 120A' 118A' 2000'  	fcall	___flge
              120A' 118A'        
  6392  003B' 1803               	btfsc	status,0
  6393  003C' 2800'              	goto	u6471
  6394  003D' 2800'              	goto	u6470
  6395  003E'                    u6471:
  6396  003E' 2800'              	goto	l9955
  6397  003F'                    u6470:
  6398                           	line	35
  6399                           	
  6400  003F'                    l9947:	
  6401  003F' 3022               	movlw	low(022h)
  6402  0040' 1683               	bsf	status, 5	;RP0=1, select bank3
  6403  0041' 1703               	bsf	status, 6	;RP1=1, select bank3
  6404  0042' 0080'              	movwf	(_errno)^0180h
  6405  0043' 3000               	movlw	high(022h)
  6406  0044' 0081'              	movwf	((_errno)^0180h)+1
  6407                           	line	36
  6408  0045' 2800'              	goto	l9951
  6409                           	
  6410  0046'                    l9949:	
  6411  0046' 307F               	movlw	0x7f
  6412  0047' 1683               	bsf	status, 5	;RP0=1, select bank1
  6413  0048' 1303               	bcf	status, 6	;RP1=0, select bank1
  6414  0049' 0080'              	movwf	(?_exp+3)^080h
  6415  004A' 307F               	movlw	0x7f
  6416  004B' 0080'              	movwf	(?_exp+2)^080h
  6417  004C' 30FF               	movlw	0xff
  6418  004D' 0080'              	movwf	(?_exp+1)^080h
  6419  004E' 30FF               	movlw	0xff
  6420  004F' 0080'              	movwf	(?_exp)^080h
  6421                           
  6422  0050' 2800'              	goto	l4355
  6423                           	
  6424  0051'                    l4358:	
  6425                           	
  6426  0051'                    l9951:	
  6427  0051' 307F               	movlw	0x7f
  6428  0052' 1303               	bcf	status, 6	;RP1=0, select bank1
  6429  0053' 0080'              	movwf	(?_exp+3)^080h
  6430  0054' 307F               	movlw	0x7f
  6431  0055' 0080'              	movwf	(?_exp+2)^080h
  6432  0056' 30FE               	movlw	0xfe
  6433  0057' 0080'              	movwf	(?_exp+1)^080h
  6434  0058' 30F7               	movlw	0xf7
  6435  0059' 0080'              	movwf	(?_exp)^080h
  6436                           
  6437  005A' 2800'              	goto	l4355
  6438                           	
  6439  005B'                    l4360:	
  6440  005B' 2800'              	goto	l4355
  6441                           	
  6442  005C'                    l9953:	
  6443  005C' 2800'              	goto	l4355
  6444                           	line	37
  6445                           	
  6446  005D'                    l4356:	
  6447                           	line	38
  6448                           	
  6449  005D'                    l9955:	
  6450  005D' 1683               	bsf	status, 5	;RP0=1, select bank1
  6451  005E' 1303               	bcf	status, 6	;RP1=0, select bank1
  6452  005F' 0800'              	movf	(exp@x+3)^080h,w
  6453  0060' 1283               	bcf	status, 5	;RP0=0, select bank0
  6454  0061' 1303               	bcf	status, 6	;RP1=0, select bank0
  6455  0062' 0083'              	movwf	(?___flge+3)
  6456  0063' 1683               	bsf	status, 5	;RP0=1, select bank1
  6457  0064' 1303               	bcf	status, 6	;RP1=0, select bank1
  6458  0065' 0800'              	movf	(exp@x+2)^080h,w
  6459  0066' 1283               	bcf	status, 5	;RP0=0, select bank0
  6460  0067' 1303               	bcf	status, 6	;RP1=0, select bank0
  6461  0068' 0082'              	movwf	(?___flge+2)
  6462  0069' 1683               	bsf	status, 5	;RP0=1, select bank1
  6463  006A' 1303               	bcf	status, 6	;RP1=0, select bank1
  6464  006B' 0800'              	movf	(exp@x+1)^080h,w
  6465  006C' 1283               	bcf	status, 5	;RP0=0, select bank0
  6466  006D' 1303               	bcf	status, 6	;RP1=0, select bank0
  6467  006E' 0081'              	movwf	(?___flge+1)
  6468  006F' 1683               	bsf	status, 5	;RP0=1, select bank1
  6469  0070' 1303               	bcf	status, 6	;RP1=0, select bank1
  6470  0071' 0800'              	movf	(exp@x)^080h,w
  6471  0072' 1283               	bcf	status, 5	;RP0=0, select bank0
  6472  0073' 1303               	bcf	status, 6	;RP1=0, select bank0
  6473  0074' 0080'              	movwf	(?___flge)
  6474                           
  6475  0075' 30C4               	movlw	0xc4
  6476  0076' 0087'              	movwf	3+(?___flge)+04h
  6477  0077' 303A               	movlw	0x3a
  6478  0078' 0086'              	movwf	2+(?___flge)+04h
  6479  0079' 3048               	movlw	0x48
  6480  007A' 0085'              	movwf	1+(?___flge)+04h
  6481  007B' 3087               	movlw	0x87
  6482  007C' 0084'              	movwf	0+(?___flge)+04h
  6483                           
  6484  007D' 120A' 118A' 2000'  	fcall	___flge
              120A' 118A'        
  6485  0082' 1803               	btfsc	status,0
  6486  0083' 2800'              	goto	u6481
  6487  0084' 2800'              	goto	u6480
  6488  0085'                    u6481:
  6489  0085' 2800'              	goto	l9961
  6490  0086'                    u6480:
  6491                           	line	39
  6492                           	
  6493  0086'                    l9957:	
  6494  0086' 3022               	movlw	low(022h)
  6495  0087' 1683               	bsf	status, 5	;RP0=1, select bank3
  6496  0088' 1703               	bsf	status, 6	;RP1=1, select bank3
  6497  0089' 0080'              	movwf	(_errno)^0180h
  6498  008A' 3000               	movlw	high(022h)
  6499  008B' 0081'              	movwf	((_errno)^0180h)+1
  6500                           	line	40
  6501  008C' 3000               	movlw	0x0
  6502  008D' 1683               	bsf	status, 5	;RP0=1, select bank1
  6503  008E' 1303               	bcf	status, 6	;RP1=0, select bank1
  6504  008F' 0080'              	movwf	(?_exp+3)^080h
  6505  0090' 3000               	movlw	0x0
  6506  0091' 0080'              	movwf	(?_exp+2)^080h
  6507  0092' 3000               	movlw	0x0
  6508  0093' 0080'              	movwf	(?_exp+1)^080h
  6509  0094' 3000               	movlw	0x0
  6510  0095' 0080'              	movwf	(?_exp)^080h
  6511                           
  6512  0096' 2800'              	goto	l4355
  6513                           	
  6514  0097'                    l9959:	
  6515  0097' 2800'              	goto	l4355
  6516                           	line	41
  6517                           	
  6518  0098'                    l4361:	
  6519                           	line	43
  6520                           	
  6521  0098'                    l9961:	
  6522  0098' 1683               	bsf	status, 5	;RP0=1, select bank1
  6523  0099' 1303               	bcf	status, 6	;RP1=0, select bank1
  6524  009A' 0800'              	movf	(exp@x+3)^080h,w
  6525  009B' 1283               	bcf	status, 5	;RP0=0, select bank0
  6526  009C' 1303               	bcf	status, 6	;RP1=0, select bank0
  6527  009D' 0083'              	movwf	(?___flge+3)
  6528  009E' 1683               	bsf	status, 5	;RP0=1, select bank1
  6529  009F' 1303               	bcf	status, 6	;RP1=0, select bank1
  6530  00A0' 0800'              	movf	(exp@x+2)^080h,w
  6531  00A1' 1283               	bcf	status, 5	;RP0=0, select bank0
  6532  00A2' 1303               	bcf	status, 6	;RP1=0, select bank0
  6533  00A3' 0082'              	movwf	(?___flge+2)
  6534  00A4' 1683               	bsf	status, 5	;RP0=1, select bank1
  6535  00A5' 1303               	bcf	status, 6	;RP1=0, select bank1
  6536  00A6' 0800'              	movf	(exp@x+1)^080h,w
  6537  00A7' 1283               	bcf	status, 5	;RP0=0, select bank0
  6538  00A8' 1303               	bcf	status, 6	;RP1=0, select bank0
  6539  00A9' 0081'              	movwf	(?___flge+1)
  6540  00AA' 1683               	bsf	status, 5	;RP0=1, select bank1
  6541  00AB' 1303               	bcf	status, 6	;RP1=0, select bank1
  6542  00AC' 0800'              	movf	(exp@x)^080h,w
  6543  00AD' 1283               	bcf	status, 5	;RP0=0, select bank0
  6544  00AE' 1303               	bcf	status, 6	;RP1=0, select bank0
  6545  00AF' 0080'              	movwf	(?___flge)
  6546                           
  6547  00B0' 3000               	movlw	0x0
  6548  00B1' 0087'              	movwf	3+(?___flge)+04h
  6549  00B2' 3000               	movlw	0x0
  6550  00B3' 0086'              	movwf	2+(?___flge)+04h
  6551  00B4' 3000               	movlw	0x0
  6552  00B5' 0085'              	movwf	1+(?___flge)+04h
  6553  00B6' 3000               	movlw	0x0
  6554  00B7' 0084'              	movwf	0+(?___flge)+04h
  6555                           
  6556  00B8' 120A' 118A' 2000'  	fcall	___flge
              120A' 118A'        
  6557  00BD' 3000               	movlw	0
  6558  00BE' 1C03               	btfss	status,0
  6559  00BF' 3001               	movlw	1
  6560  00C0' 1683               	bsf	status, 5	;RP0=1, select bank1
  6561  00C1' 1303               	bcf	status, 6	;RP1=0, select bank1
  6562  00C2' 0080'              	movwf	(??_exp+0)^080h+0
  6563  00C3' 0800'              	movf	(??_exp+0)^080h+0,w
  6564  00C4' 0080'              	movwf	(exp@sign)^080h
  6565                           	line	44
  6566                           	
  6567  00C5'                    l9963:	
  6568  00C5' 0800'              	movf	(exp@sign)^080h,w
  6569  00C6' 1D03               	skipz
  6570  00C7' 2800'              	goto	u6490
  6571  00C8' 2800'              	goto	l9967
  6572  00C9'                    u6490:
  6573                           	line	45
  6574                           	
  6575  00C9'                    l9965:	
  6576  00C9' 0800'              	movf	(exp@x+3)^080h,w
  6577  00CA' 1283               	bcf	status, 5	;RP0=0, select bank0
  6578  00CB' 1303               	bcf	status, 6	;RP1=0, select bank0
  6579  00CC' 008D'              	movwf	(?___flneg+3)
  6580  00CD' 1683               	bsf	status, 5	;RP0=1, select bank1
  6581  00CE' 1303               	bcf	status, 6	;RP1=0, select bank1
  6582  00CF' 0800'              	movf	(exp@x+2)^080h,w
  6583  00D0' 1283               	bcf	status, 5	;RP0=0, select bank0
  6584  00D1' 1303               	bcf	status, 6	;RP1=0, select bank0
  6585  00D2' 008C'              	movwf	(?___flneg+2)
  6586  00D3' 1683               	bsf	status, 5	;RP0=1, select bank1
  6587  00D4' 1303               	bcf	status, 6	;RP1=0, select bank1
  6588  00D5' 0800'              	movf	(exp@x+1)^080h,w
  6589  00D6' 1283               	bcf	status, 5	;RP0=0, select bank0
  6590  00D7' 1303               	bcf	status, 6	;RP1=0, select bank0
  6591  00D8' 008B'              	movwf	(?___flneg+1)
  6592  00D9' 1683               	bsf	status, 5	;RP0=1, select bank1
  6593  00DA' 1303               	bcf	status, 6	;RP1=0, select bank1
  6594  00DB' 0800'              	movf	(exp@x)^080h,w
  6595  00DC' 1283               	bcf	status, 5	;RP0=0, select bank0
  6596  00DD' 1303               	bcf	status, 6	;RP1=0, select bank0
  6597  00DE' 008A'              	movwf	(?___flneg)
  6598                           
  6599  00DF' 120A' 118A' 2000'  	fcall	___flneg
              120A' 118A'        
  6600  00E4' 1283               	bcf	status, 5	;RP0=0, select bank0
  6601  00E5' 1303               	bcf	status, 6	;RP1=0, select bank0
  6602  00E6' 080D'              	movf	(3+(?___flneg)),w
  6603  00E7' 1683               	bsf	status, 5	;RP0=1, select bank1
  6604  00E8' 1303               	bcf	status, 6	;RP1=0, select bank1
  6605  00E9' 0080'              	movwf	(exp@x+3)^080h
  6606  00EA' 1283               	bcf	status, 5	;RP0=0, select bank0
  6607  00EB' 1303               	bcf	status, 6	;RP1=0, select bank0
  6608  00EC' 080C'              	movf	(2+(?___flneg)),w
  6609  00ED' 1683               	bsf	status, 5	;RP0=1, select bank1
  6610  00EE' 1303               	bcf	status, 6	;RP1=0, select bank1
  6611  00EF' 0080'              	movwf	(exp@x+2)^080h
  6612  00F0' 1283               	bcf	status, 5	;RP0=0, select bank0
  6613  00F1' 1303               	bcf	status, 6	;RP1=0, select bank0
  6614  00F2' 080B'              	movf	(1+(?___flneg)),w
  6615  00F3' 1683               	bsf	status, 5	;RP0=1, select bank1
  6616  00F4' 1303               	bcf	status, 6	;RP1=0, select bank1
  6617  00F5' 0080'              	movwf	(exp@x+1)^080h
  6618  00F6' 1283               	bcf	status, 5	;RP0=0, select bank0
  6619  00F7' 1303               	bcf	status, 6	;RP1=0, select bank0
  6620  00F8' 080A'              	movf	(0+(?___flneg)),w
  6621  00F9' 1683               	bsf	status, 5	;RP0=1, select bank1
  6622  00FA' 1303               	bcf	status, 6	;RP1=0, select bank1
  6623  00FB' 0080'              	movwf	(exp@x)^080h
  6624                           
  6625  00FC' 2800'              	goto	l9967
  6626                           	
  6627  00FD'                    l4362:	
  6628                           	line	46
  6629                           	
  6630  00FD'                    l9967:	
  6631  00FD' 303F               	movlw	0x3f
  6632  00FE' 1283               	bcf	status, 5	;RP0=0, select bank0
  6633  00FF' 1303               	bcf	status, 6	;RP1=0, select bank0
  6634  0100' 00B2'              	movwf	(?___flmul+3)
  6635  0101' 30B8               	movlw	0xb8
  6636  0102' 00B1'              	movwf	(?___flmul+2)
  6637  0103' 30AA               	movlw	0xaa
  6638  0104' 00B0'              	movwf	(?___flmul+1)
  6639  0105' 303B               	movlw	0x3b
  6640  0106' 00AF'              	movwf	(?___flmul)
  6641                           
  6642  0107' 1683               	bsf	status, 5	;RP0=1, select bank1
  6643  0108' 1303               	bcf	status, 6	;RP1=0, select bank1
  6644  0109' 0800'              	movf	(exp@x+3)^080h,w
  6645  010A' 1283               	bcf	status, 5	;RP0=0, select bank0
  6646  010B' 1303               	bcf	status, 6	;RP1=0, select bank0
  6647  010C' 00B6'              	movwf	3+(?___flmul)+04h
  6648  010D' 1683               	bsf	status, 5	;RP0=1, select bank1
  6649  010E' 1303               	bcf	status, 6	;RP1=0, select bank1
  6650  010F' 0800'              	movf	(exp@x+2)^080h,w
  6651  0110' 1283               	bcf	status, 5	;RP0=0, select bank0
  6652  0111' 1303               	bcf	status, 6	;RP1=0, select bank0
  6653  0112' 00B5'              	movwf	2+(?___flmul)+04h
  6654  0113' 1683               	bsf	status, 5	;RP0=1, select bank1
  6655  0114' 1303               	bcf	status, 6	;RP1=0, select bank1
  6656  0115' 0800'              	movf	(exp@x+1)^080h,w
  6657  0116' 1283               	bcf	status, 5	;RP0=0, select bank0
  6658  0117' 1303               	bcf	status, 6	;RP1=0, select bank0
  6659  0118' 00B4'              	movwf	1+(?___flmul)+04h
  6660  0119' 1683               	bsf	status, 5	;RP0=1, select bank1
  6661  011A' 1303               	bcf	status, 6	;RP1=0, select bank1
  6662  011B' 0800'              	movf	(exp@x)^080h,w
  6663  011C' 1283               	bcf	status, 5	;RP0=0, select bank0
  6664  011D' 1303               	bcf	status, 6	;RP1=0, select bank0
  6665  011E' 00B3'              	movwf	0+(?___flmul)+04h
  6666                           
  6667  011F' 120A' 118A' 2000'  	fcall	___flmul
              120A' 118A'        
  6668  0124' 1283               	bcf	status, 5	;RP0=0, select bank0
  6669  0125' 1303               	bcf	status, 6	;RP1=0, select bank0
  6670  0126' 0832'              	movf	(3+(?___flmul)),w
  6671  0127' 1683               	bsf	status, 5	;RP0=1, select bank1
  6672  0128' 1303               	bcf	status, 6	;RP1=0, select bank1
  6673  0129' 0080'              	movwf	(exp@x+3)^080h
  6674  012A' 1283               	bcf	status, 5	;RP0=0, select bank0
  6675  012B' 1303               	bcf	status, 6	;RP1=0, select bank0
  6676  012C' 0831'              	movf	(2+(?___flmul)),w
  6677  012D' 1683               	bsf	status, 5	;RP0=1, select bank1
  6678  012E' 1303               	bcf	status, 6	;RP1=0, select bank1
  6679  012F' 0080'              	movwf	(exp@x+2)^080h
  6680  0130' 1283               	bcf	status, 5	;RP0=0, select bank0
  6681  0131' 1303               	bcf	status, 6	;RP1=0, select bank0
  6682  0132' 0830'              	movf	(1+(?___flmul)),w
  6683  0133' 1683               	bsf	status, 5	;RP0=1, select bank1
  6684  0134' 1303               	bcf	status, 6	;RP1=0, select bank1
  6685  0135' 0080'              	movwf	(exp@x+1)^080h
  6686  0136' 1283               	bcf	status, 5	;RP0=0, select bank0
  6687  0137' 1303               	bcf	status, 6	;RP1=0, select bank0
  6688  0138' 082F'              	movf	(0+(?___flmul)),w
  6689  0139' 1683               	bsf	status, 5	;RP0=1, select bank1
  6690  013A' 1303               	bcf	status, 6	;RP1=0, select bank1
  6691  013B' 0080'              	movwf	(exp@x)^080h
  6692                           
  6693                           	line	47
  6694                           	
  6695  013C'                    l9969:	
  6696  013C' 0800'              	movf	(exp@x+3)^080h,w
  6697  013D' 0080'              	movwf	(?_floor+3)^080h
  6698  013E' 0800'              	movf	(exp@x+2)^080h,w
  6699  013F' 0080'              	movwf	(?_floor+2)^080h
  6700  0140' 0800'              	movf	(exp@x+1)^080h,w
  6701  0141' 0080'              	movwf	(?_floor+1)^080h
  6702  0142' 0800'              	movf	(exp@x)^080h,w
  6703  0143' 0080'              	movwf	(?_floor)^080h
  6704                           
  6705  0144' 120A' 118A' 2000'  	fcall	_floor
              120A' 118A'        
  6706  0149' 1683               	bsf	status, 5	;RP0=1, select bank1
  6707  014A' 1303               	bcf	status, 6	;RP1=0, select bank1
  6708  014B' 0800'              	movf	(3+(?_floor))^080h,w
  6709  014C' 1283               	bcf	status, 5	;RP0=0, select bank0
  6710  014D' 1303               	bcf	status, 6	;RP1=0, select bank0
  6711  014E' 0093'              	movwf	(?___fltol+3)
  6712  014F' 1683               	bsf	status, 5	;RP0=1, select bank1
  6713  0150' 1303               	bcf	status, 6	;RP1=0, select bank1
  6714  0151' 0800'              	movf	(2+(?_floor))^080h,w
  6715  0152' 1283               	bcf	status, 5	;RP0=0, select bank0
  6716  0153' 1303               	bcf	status, 6	;RP1=0, select bank0
  6717  0154' 0092'              	movwf	(?___fltol+2)
  6718  0155' 1683               	bsf	status, 5	;RP0=1, select bank1
  6719  0156' 1303               	bcf	status, 6	;RP1=0, select bank1
  6720  0157' 0800'              	movf	(1+(?_floor))^080h,w
  6721  0158' 1283               	bcf	status, 5	;RP0=0, select bank0
  6722  0159' 1303               	bcf	status, 6	;RP1=0, select bank0
  6723  015A' 0091'              	movwf	(?___fltol+1)
  6724  015B' 1683               	bsf	status, 5	;RP0=1, select bank1
  6725  015C' 1303               	bcf	status, 6	;RP1=0, select bank1
  6726  015D' 0800'              	movf	(0+(?_floor))^080h,w
  6727  015E' 1283               	bcf	status, 5	;RP0=0, select bank0
  6728  015F' 1303               	bcf	status, 6	;RP1=0, select bank0
  6729  0160' 0090'              	movwf	(?___fltol)
  6730                           
  6731  0161' 120A' 118A' 2000'  	fcall	___fltol
              120A' 118A'        
  6732  0166' 1283               	bcf	status, 5	;RP0=0, select bank0
  6733  0167' 1303               	bcf	status, 6	;RP1=0, select bank0
  6734  0168' 0811'              	movf	1+(((0+(?___fltol)))),w
  6735  0169' 1683               	bsf	status, 5	;RP0=1, select bank1
  6736  016A' 1303               	bcf	status, 6	;RP1=0, select bank1
  6737  016B' 0180'              	clrf	(exp@exp+1)^080h
  6738  016C' 0780'              	addwf	(exp@exp+1)^080h
  6739  016D' 1283               	bcf	status, 5	;RP0=0, select bank0
  6740  016E' 1303               	bcf	status, 6	;RP1=0, select bank0
  6741  016F' 0810'              	movf	0+(((0+(?___fltol)))),w
  6742  0170' 1683               	bsf	status, 5	;RP0=1, select bank1
  6743  0171' 1303               	bcf	status, 6	;RP1=0, select bank1
  6744  0172' 0180'              	clrf	(exp@exp)^080h
  6745  0173' 0780'              	addwf	(exp@exp)^080h
  6746                           
  6747                           	line	48
  6748                           	
  6749  0174'                    l9971:	
  6750  0174' 0800'              	movf	(exp@exp+1)^080h,w
  6751  0175' 1283               	bcf	status, 5	;RP0=0, select bank0
  6752  0176' 1303               	bcf	status, 6	;RP1=0, select bank0
  6753  0177' 019C'              	clrf	(?___awtofl+1)
  6754  0178' 079C'              	addwf	(?___awtofl+1)
  6755  0179' 1683               	bsf	status, 5	;RP0=1, select bank1
  6756  017A' 1303               	bcf	status, 6	;RP1=0, select bank1
  6757  017B' 0800'              	movf	(exp@exp)^080h,w
  6758  017C' 1283               	bcf	status, 5	;RP0=0, select bank0
  6759  017D' 1303               	bcf	status, 6	;RP1=0, select bank0
  6760  017E' 019B'              	clrf	(?___awtofl)
  6761  017F' 079B'              	addwf	(?___awtofl)
  6762                           
  6763  0180' 120A' 118A' 2000'  	fcall	___awtofl
              120A' 118A'        
  6764  0185' 1283               	bcf	status, 5	;RP0=0, select bank0
  6765  0186' 1303               	bcf	status, 6	;RP1=0, select bank0
  6766  0187' 081E'              	movf	(3+(?___awtofl)),w
  6767  0188' 1683               	bsf	status, 5	;RP0=1, select bank1
  6768  0189' 1303               	bcf	status, 6	;RP1=0, select bank1
  6769  018A' 0080'              	movwf	(?___flsub+3)^080h
  6770  018B' 1283               	bcf	status, 5	;RP0=0, select bank0
  6771  018C' 1303               	bcf	status, 6	;RP1=0, select bank0
  6772  018D' 081D'              	movf	(2+(?___awtofl)),w
  6773  018E' 1683               	bsf	status, 5	;RP0=1, select bank1
  6774  018F' 1303               	bcf	status, 6	;RP1=0, select bank1
  6775  0190' 0080'              	movwf	(?___flsub+2)^080h
  6776  0191' 1283               	bcf	status, 5	;RP0=0, select bank0
  6777  0192' 1303               	bcf	status, 6	;RP1=0, select bank0
  6778  0193' 081C'              	movf	(1+(?___awtofl)),w
  6779  0194' 1683               	bsf	status, 5	;RP0=1, select bank1
  6780  0195' 1303               	bcf	status, 6	;RP1=0, select bank1
  6781  0196' 0080'              	movwf	(?___flsub+1)^080h
  6782  0197' 1283               	bcf	status, 5	;RP0=0, select bank0
  6783  0198' 1303               	bcf	status, 6	;RP1=0, select bank0
  6784  0199' 081B'              	movf	(0+(?___awtofl)),w
  6785  019A' 1683               	bsf	status, 5	;RP0=1, select bank1
  6786  019B' 1303               	bcf	status, 6	;RP1=0, select bank1
  6787  019C' 0080'              	movwf	(?___flsub)^080h
  6788                           
  6789  019D' 0800'              	movf	(exp@x+3)^080h,w
  6790  019E' 0084'              	movwf	3+(?___flsub)^080h+04h
  6791  019F' 0800'              	movf	(exp@x+2)^080h,w
  6792  01A0' 0084'              	movwf	2+(?___flsub)^080h+04h
  6793  01A1' 0800'              	movf	(exp@x+1)^080h,w
  6794  01A2' 0084'              	movwf	1+(?___flsub)^080h+04h
  6795  01A3' 0800'              	movf	(exp@x)^080h,w
  6796  01A4' 0084'              	movwf	0+(?___flsub)^080h+04h
  6797                           
  6798  01A5' 120A' 118A' 2000'  	fcall	___flsub
              120A' 118A'        
  6799  01AA' 1683               	bsf	status, 5	;RP0=1, select bank1
  6800  01AB' 1303               	bcf	status, 6	;RP1=0, select bank1
  6801  01AC' 0800'              	movf	(3+(?___flsub))^080h,w
  6802  01AD' 0080'              	movwf	(exp@x+3)^080h
  6803  01AE' 0800'              	movf	(2+(?___flsub))^080h,w
  6804  01AF' 0080'              	movwf	(exp@x+2)^080h
  6805  01B0' 0800'              	movf	(1+(?___flsub))^080h,w
  6806  01B1' 0080'              	movwf	(exp@x+1)^080h
  6807  01B2' 0800'              	movf	(0+(?___flsub))^080h,w
  6808  01B3' 0080'              	movwf	(exp@x)^080h
  6809                           
  6810                           	line	49
  6811                           	
  6812  01B4'                    l9973:	
  6813  01B4' 0800'              	movf	(exp@x+3)^080h,w
  6814  01B5' 0080'              	movwf	(?_eval_poly+3)^080h
  6815  01B6' 0800'              	movf	(exp@x+2)^080h,w
  6816  01B7' 0080'              	movwf	(?_eval_poly+2)^080h
  6817  01B8' 0800'              	movf	(exp@x+1)^080h,w
  6818  01B9' 0080'              	movwf	(?_eval_poly+1)^080h
  6819  01BA' 0800'              	movf	(exp@x)^080h,w
  6820  01BB' 0080'              	movwf	(?_eval_poly)^080h
  6821                           
  6822  01BC' 3001               	movlw	((exp@coeff-__stringbase))&0ffh
  6823  01BD' 0080'              	movwf	(??_exp+0)^080h+0
  6824  01BE' 0800'              	movf	(??_exp+0)^080h+0,w
  6825  01BF' 0080'              	movwf	(0+?_eval_poly+04h)^080h
  6826  01C0' 3009               	movlw	low(09h)
  6827  01C1' 0085'              	movwf	0+(?_eval_poly)^080h+05h
  6828  01C2' 3000               	movlw	high(09h)
  6829  01C3' 0086'              	movwf	(0+(?_eval_poly)^080h+05h)+1
  6830  01C4' 120A' 118A' 2000'  	fcall	_eval_poly
              120A' 118A'        
  6831  01C9' 1683               	bsf	status, 5	;RP0=1, select bank1
  6832  01CA' 1303               	bcf	status, 6	;RP1=0, select bank1
  6833  01CB' 0800'              	movf	(3+(?_eval_poly))^080h,w
  6834  01CC' 0080'              	movwf	(?_ldexp+3)^080h
  6835  01CD' 0800'              	movf	(2+(?_eval_poly))^080h,w
  6836  01CE' 0080'              	movwf	(?_ldexp+2)^080h
  6837  01CF' 0800'              	movf	(1+(?_eval_poly))^080h,w
  6838  01D0' 0080'              	movwf	(?_ldexp+1)^080h
  6839  01D1' 0800'              	movf	(0+(?_eval_poly))^080h,w
  6840  01D2' 0080'              	movwf	(?_ldexp)^080h
  6841                           
  6842  01D3' 0800'              	movf	(exp@exp+1)^080h,w
  6843  01D4' 0184'              	clrf	1+(?_ldexp)^080h+04h
  6844  01D5' 0784'              	addwf	1+(?_ldexp)^080h+04h
  6845  01D6' 0800'              	movf	(exp@exp)^080h,w
  6846  01D7' 0184'              	clrf	0+(?_ldexp)^080h+04h
  6847  01D8' 0784'              	addwf	0+(?_ldexp)^080h+04h
  6848                           
  6849  01D9' 120A' 118A' 2000'  	fcall	_ldexp
              120A' 118A'        
  6850  01DE' 1683               	bsf	status, 5	;RP0=1, select bank1
  6851  01DF' 1303               	bcf	status, 6	;RP1=0, select bank1
  6852  01E0' 0800'              	movf	(3+(?_ldexp))^080h,w
  6853  01E1' 0080'              	movwf	(exp@x+3)^080h
  6854  01E2' 0800'              	movf	(2+(?_ldexp))^080h,w
  6855  01E3' 0080'              	movwf	(exp@x+2)^080h
  6856  01E4' 0800'              	movf	(1+(?_ldexp))^080h,w
  6857  01E5' 0080'              	movwf	(exp@x+1)^080h
  6858  01E6' 0800'              	movf	(0+(?_ldexp))^080h,w
  6859  01E7' 0080'              	movwf	(exp@x)^080h
  6860                           
  6861                           	line	50
  6862                           	
  6863  01E8'                    l9975:	
  6864  01E8' 0800'              	movf	(exp@sign)^080h,w
  6865  01E9' 1D03               	skipz
  6866  01EA' 2800'              	goto	u6500
  6867  01EB' 2800'              	goto	l4363
  6868  01EC'                    u6500:
  6869  01EC' 2800'              	goto	l9981
  6870                           	line	52
  6871                           	
  6872  01ED'                    l9977:	
  6873  01ED' 2800'              	goto	l9981
  6874                           	
  6875  01EE'                    l9979:	
  6876  01EE' 307F               	movlw	0x7f
  6877  01EF' 0080'              	movwf	(_exp$4864+3)^080h
  6878  01F0' 307F               	movlw	0x7f
  6879  01F1' 0080'              	movwf	(_exp$4864+2)^080h
  6880  01F2' 30FF               	movlw	0xff
  6881  01F3' 0080'              	movwf	(_exp$4864+1)^080h
  6882  01F4' 30FF               	movlw	0xff
  6883  01F5' 0080'              	movwf	(_exp$4864)^080h
  6884                           
  6885  01F6' 2800'              	goto	l4368
  6886                           	
  6887  01F7'                    l4366:	
  6888                           	
  6889  01F7'                    l9981:	
  6890  01F7' 307F               	movlw	0x7f
  6891  01F8' 0080'              	movwf	(_exp$4864+3)^080h
  6892  01F9' 307F               	movlw	0x7f
  6893  01FA' 0080'              	movwf	(_exp$4864+2)^080h
  6894  01FB' 30FE               	movlw	0xfe
  6895  01FC' 0080'              	movwf	(_exp$4864+1)^080h
  6896  01FD' 30F7               	movlw	0xf7
  6897  01FE' 0080'              	movwf	(_exp$4864)^080h
  6898                           
  6899                           	
  6900  01FF'                    l4368:	
  6901  01FF' 0800'              	movf	(exp@x+3)^080h,w
  6902  0200' 0600'              	xorwf	(_exp$4864+3)^080h,w
  6903  0201' 1D03               	skipz
  6904  0202' 2800'              	goto	u6515
  6905  0203' 0800'              	movf	(exp@x+2)^080h,w
  6906  0204' 0600'              	xorwf	(_exp$4864+2)^080h,w
  6907  0205' 1D03               	skipz
  6908  0206' 2800'              	goto	u6515
  6909  0207' 0800'              	movf	(exp@x+1)^080h,w
  6910  0208' 0600'              	xorwf	(_exp$4864+1)^080h,w
  6911  0209' 1D03               	skipz
  6912  020A' 2800'              	goto	u6515
  6913  020B' 0800'              	movf	(exp@x)^080h,w
  6914  020C' 0600'              	xorwf	(_exp$4864)^080h,w
  6915  020D'                    u6515:
  6916  020D' 1D03               	skipz
  6917  020E' 2800'              	goto	u6511
  6918  020F' 2800'              	goto	u6510
  6919  0210'                    u6511:
  6920  0210' 2800'              	goto	l9987
  6921  0211'                    u6510:
  6922                           	line	53
  6923                           	
  6924  0211'                    l9983:	
  6925  0211' 3000               	movlw	0x0
  6926  0212' 0080'              	movwf	(?_exp+3)^080h
  6927  0213' 3000               	movlw	0x0
  6928  0214' 0080'              	movwf	(?_exp+2)^080h
  6929  0215' 3000               	movlw	0x0
  6930  0216' 0080'              	movwf	(?_exp+1)^080h
  6931  0217' 3000               	movlw	0x0
  6932  0218' 0080'              	movwf	(?_exp)^080h
  6933                           
  6934  0219' 2800'              	goto	l4355
  6935                           	
  6936  021A'                    l9985:	
  6937  021A' 2800'              	goto	l4355
  6938                           	
  6939  021B'                    l4364:	
  6940                           	line	54
  6941                           	
  6942  021B'                    l9987:	
  6943  021B' 0800'              	movf	(exp@x+3)^080h,w
  6944  021C' 1283               	bcf	status, 5	;RP0=0, select bank0
  6945  021D' 1303               	bcf	status, 6	;RP1=0, select bank0
  6946  021E' 009E'              	movwf	(?___fldiv+3)
  6947  021F' 1683               	bsf	status, 5	;RP0=1, select bank1
  6948  0220' 1303               	bcf	status, 6	;RP1=0, select bank1
  6949  0221' 0800'              	movf	(exp@x+2)^080h,w
  6950  0222' 1283               	bcf	status, 5	;RP0=0, select bank0
  6951  0223' 1303               	bcf	status, 6	;RP1=0, select bank0
  6952  0224' 009D'              	movwf	(?___fldiv+2)
  6953  0225' 1683               	bsf	status, 5	;RP0=1, select bank1
  6954  0226' 1303               	bcf	status, 6	;RP1=0, select bank1
  6955  0227' 0800'              	movf	(exp@x+1)^080h,w
  6956  0228' 1283               	bcf	status, 5	;RP0=0, select bank0
  6957  0229' 1303               	bcf	status, 6	;RP1=0, select bank0
  6958  022A' 009C'              	movwf	(?___fldiv+1)
  6959  022B' 1683               	bsf	status, 5	;RP0=1, select bank1
  6960  022C' 1303               	bcf	status, 6	;RP1=0, select bank1
  6961  022D' 0800'              	movf	(exp@x)^080h,w
  6962  022E' 1283               	bcf	status, 5	;RP0=0, select bank0
  6963  022F' 1303               	bcf	status, 6	;RP1=0, select bank0
  6964  0230' 009B'              	movwf	(?___fldiv)
  6965                           
  6966  0231' 303F               	movlw	0x3f
  6967  0232' 00A2'              	movwf	3+(?___fldiv)+04h
  6968  0233' 3080               	movlw	0x80
  6969  0234' 00A1'              	movwf	2+(?___fldiv)+04h
  6970  0235' 3000               	movlw	0x0
  6971  0236' 00A0'              	movwf	1+(?___fldiv)+04h
  6972  0237' 3000               	movlw	0x0
  6973  0238' 009F'              	movwf	0+(?___fldiv)+04h
  6974                           
  6975  0239' 120A' 118A' 2000'  	fcall	___fldiv
              120A' 118A'        
  6976  023E' 1283               	bcf	status, 5	;RP0=0, select bank0
  6977  023F' 1303               	bcf	status, 6	;RP1=0, select bank0
  6978  0240' 081E'              	movf	(3+(?___fldiv)),w
  6979  0241' 1683               	bsf	status, 5	;RP0=1, select bank1
  6980  0242' 1303               	bcf	status, 6	;RP1=0, select bank1
  6981  0243' 0080'              	movwf	(?_exp+3)^080h
  6982  0244' 1283               	bcf	status, 5	;RP0=0, select bank0
  6983  0245' 1303               	bcf	status, 6	;RP1=0, select bank0
  6984  0246' 081D'              	movf	(2+(?___fldiv)),w
  6985  0247' 1683               	bsf	status, 5	;RP0=1, select bank1
  6986  0248' 1303               	bcf	status, 6	;RP1=0, select bank1
  6987  0249' 0080'              	movwf	(?_exp+2)^080h
  6988  024A' 1283               	bcf	status, 5	;RP0=0, select bank0
  6989  024B' 1303               	bcf	status, 6	;RP1=0, select bank0
  6990  024C' 081C'              	movf	(1+(?___fldiv)),w
  6991  024D' 1683               	bsf	status, 5	;RP0=1, select bank1
  6992  024E' 1303               	bcf	status, 6	;RP1=0, select bank1
  6993  024F' 0080'              	movwf	(?_exp+1)^080h
  6994  0250' 1283               	bcf	status, 5	;RP0=0, select bank0
  6995  0251' 1303               	bcf	status, 6	;RP1=0, select bank0
  6996  0252' 081B'              	movf	(0+(?___fldiv)),w
  6997  0253' 1683               	bsf	status, 5	;RP0=1, select bank1
  6998  0254' 1303               	bcf	status, 6	;RP1=0, select bank1
  6999  0255' 0080'              	movwf	(?_exp)^080h
  7000                           
  7001  0256' 2800'              	goto	l4355
  7002                           	
  7003  0257'                    l9989:	
  7004  0257' 2800'              	goto	l4355
  7005                           	line	55
  7006                           	
  7007  0258'                    l4363:	
  7008                           	line	56
  7009                           	line	57
  7010                           	
  7011  0258'                    l4355:	
  7012  0258' 0008               	return
  7013                           	opt stack 0
  7014                           GLOBAL	__end_of_exp
  7015  0259'                    	__end_of_exp:
  7016 ;; =============== function _exp ends ============
  7017                           
  7018                           	signat	_exp,4220
  7019                           	global	_log
  7020                           psect	text1443,local,class=CODE,delta=2
  7021                           global __ptext1443
  7022  0000'                    __ptext1443:
  7023                           
  7024 ;; *************** function _log *****************
  7025 ;; Defined at:
  7026 ;;		line 6 in file "/opt/hitech/picc/9.83/sources/log.c"
  7027 ;; Parameters:    Size  Location     Type
  7028 ;;  x               4   31[BANK1 ] unsigned char 
  7029 ;; Auto vars:     Size  Location     Type
  7030 ;;  exp             2   36[BANK1 ] int 
  7031 ;; Return value:  Size  Location     Type
  7032 ;;                  4   31[BANK1 ] int 
  7033 ;; Registers used:
  7034 ;;		wreg, fsr0l, fsr0h, status,2, status,0, btemp+1, pclath, cstack
  7035 ;; Tracked objects:
  7036 ;;		On entry : 0/0
  7037 ;;		On exit  : 0/0
  7038 ;;		Unchanged: 0/0
  7039 ;; Data sizes:     COMMON   BANK0   BANK1   BANK3   BANK2
  7040 ;;      Params:         0       0       4       0       0
  7041 ;;      Locals:         0       0       2       0       0
  7042 ;;      Temps:          0       0       1       0       0
  7043 ;;      Totals:         0       0       7       0       0
  7044 ;;Total ram usage:        7 bytes
  7045 ;; Hardware stack levels used:    1
  7046 ;; Hardware stack levels required when called:    4
  7047 ;; This function calls:
  7048 ;;		___flge
  7049 ;;		_frexp
  7050 ;;		___flmul
  7051 ;;		___fladd
  7052 ;;		_eval_poly
  7053 ;;		___awtofl
  7054 ;; This function is called by:
  7055 ;;		_log10
  7056 ;;		_pow
  7057 ;; This function uses a non-reentrant model
  7058 ;;
  7059                           psect	text1443
  7060                           	file	"/opt/hitech/picc/9.83/sources/log.c"
  7061                           	line	6
  7062                           	global	__size_of_log
  7063  0152                     	__size_of_log	equ	__end_of_log-_log
  7064                           	
  7065  0000'                    _log:	
  7066                           	opt	stack 0
  7067                           ; Regs used in _log: [wreg-fsr0h+status,2+status,0+btemp+1+pclath+cstack]
  7068                           	line	24
  7069                           	
  7070  0000'                    l9917:	
  7071  0000' 1683               	bsf	status, 5	;RP0=1, select bank1
  7072  0001' 1303               	bcf	status, 6	;RP1=0, select bank1
  7073  0002' 0800'              	movf	(log@x+3)^080h,w
  7074  0003' 1283               	bcf	status, 5	;RP0=0, select bank0
  7075  0004' 1303               	bcf	status, 6	;RP1=0, select bank0
  7076  0005' 0083'              	movwf	(?___flge+3)
  7077  0006' 1683               	bsf	status, 5	;RP0=1, select bank1
  7078  0007' 1303               	bcf	status, 6	;RP1=0, select bank1
  7079  0008' 0800'              	movf	(log@x+2)^080h,w
  7080  0009' 1283               	bcf	status, 5	;RP0=0, select bank0
  7081  000A' 1303               	bcf	status, 6	;RP1=0, select bank0
  7082  000B' 0082'              	movwf	(?___flge+2)
  7083  000C' 1683               	bsf	status, 5	;RP0=1, select bank1
  7084  000D' 1303               	bcf	status, 6	;RP1=0, select bank1
  7085  000E' 0800'              	movf	(log@x+1)^080h,w
  7086  000F' 1283               	bcf	status, 5	;RP0=0, select bank0
  7087  0010' 1303               	bcf	status, 6	;RP1=0, select bank0
  7088  0011' 0081'              	movwf	(?___flge+1)
  7089  0012' 1683               	bsf	status, 5	;RP0=1, select bank1
  7090  0013' 1303               	bcf	status, 6	;RP1=0, select bank1
  7091  0014' 0800'              	movf	(log@x)^080h,w
  7092  0015' 1283               	bcf	status, 5	;RP0=0, select bank0
  7093  0016' 1303               	bcf	status, 6	;RP1=0, select bank0
  7094  0017' 0080'              	movwf	(?___flge)
  7095                           
  7096  0018' 3000               	movlw	0x0
  7097  0019' 0087'              	movwf	3+(?___flge)+04h
  7098  001A' 3000               	movlw	0x0
  7099  001B' 0086'              	movwf	2+(?___flge)+04h
  7100  001C' 3000               	movlw	0x0
  7101  001D' 0085'              	movwf	1+(?___flge)+04h
  7102  001E' 3000               	movlw	0x0
  7103  001F' 0084'              	movwf	0+(?___flge)+04h
  7104                           
  7105  0020' 120A' 118A' 2000'  	fcall	___flge
              120A' 118A'        
  7106  0025' 1803               	btfsc	status,0
  7107  0026' 2800'              	goto	u6441
  7108  0027' 2800'              	goto	u6440
  7109  0028'                    u6441:
  7110  0028' 2800'              	goto	l9923
  7111  0029'                    u6440:
  7112                           	line	25
  7113                           	
  7114  0029'                    l9919:	
  7115  0029' 3021               	movlw	low(021h)
  7116  002A' 1683               	bsf	status, 5	;RP0=1, select bank3
  7117  002B' 1703               	bsf	status, 6	;RP1=1, select bank3
  7118  002C' 0080'              	movwf	(_errno)^0180h
  7119  002D' 3000               	movlw	high(021h)
  7120  002E' 0081'              	movwf	((_errno)^0180h)+1
  7121                           	line	26
  7122  002F' 3000               	movlw	0x0
  7123  0030' 1683               	bsf	status, 5	;RP0=1, select bank1
  7124  0031' 1303               	bcf	status, 6	;RP1=0, select bank1
  7125  0032' 0080'              	movwf	(?_log+3)^080h
  7126  0033' 3000               	movlw	0x0
  7127  0034' 0080'              	movwf	(?_log+2)^080h
  7128  0035' 3000               	movlw	0x0
  7129  0036' 0080'              	movwf	(?_log+1)^080h
  7130  0037' 3000               	movlw	0x0
  7131  0038' 0080'              	movwf	(?_log)^080h
  7132                           
  7133  0039' 2800'              	goto	l3958
  7134                           	
  7135  003A'                    l9921:	
  7136  003A' 2800'              	goto	l3958
  7137                           	line	27
  7138                           	
  7139  003B'                    l3957:	
  7140                           	line	28
  7141                           	
  7142  003B'                    l9923:	
  7143  003B' 1683               	bsf	status, 5	;RP0=1, select bank1
  7144  003C' 1303               	bcf	status, 6	;RP1=0, select bank1
  7145  003D' 0800'              	movf	(log@x+3)^080h,w
  7146  003E' 0400'              	iorwf	(log@x+2)^080h,w
  7147  003F' 0400'              	iorwf	(log@x+1)^080h,w
  7148  0040' 0400'              	iorwf	(log@x)^080h,w
  7149  0041' 1D03               	skipz
  7150  0042' 2800'              	goto	u6451
  7151  0043' 2800'              	goto	u6450
  7152  0044'                    u6451:
  7153  0044' 2800'              	goto	l9929
  7154  0045'                    u6450:
  7155                           	line	29
  7156                           	
  7157  0045'                    l9925:	
  7158  0045' 3022               	movlw	low(022h)
  7159  0046' 1683               	bsf	status, 5	;RP0=1, select bank3
  7160  0047' 1703               	bsf	status, 6	;RP1=1, select bank3
  7161  0048' 0080'              	movwf	(_errno)^0180h
  7162  0049' 3000               	movlw	high(022h)
  7163  004A' 0081'              	movwf	((_errno)^0180h)+1
  7164                           	line	30
  7165  004B' 3000               	movlw	0x0
  7166  004C' 1683               	bsf	status, 5	;RP0=1, select bank1
  7167  004D' 1303               	bcf	status, 6	;RP1=0, select bank1
  7168  004E' 0080'              	movwf	(?_log+3)^080h
  7169  004F' 3000               	movlw	0x0
  7170  0050' 0080'              	movwf	(?_log+2)^080h
  7171  0051' 3000               	movlw	0x0
  7172  0052' 0080'              	movwf	(?_log+1)^080h
  7173  0053' 3000               	movlw	0x0
  7174  0054' 0080'              	movwf	(?_log)^080h
  7175                           
  7176  0055' 2800'              	goto	l3958
  7177                           	
  7178  0056'                    l9927:	
  7179  0056' 2800'              	goto	l3958
  7180                           	line	31
  7181                           	
  7182  0057'                    l3959:	
  7183                           	line	32
  7184                           	
  7185  0057'                    l9929:	
  7186  0057' 30BF               	movlw	0xbf
  7187  0058' 1283               	bcf	status, 5	;RP0=0, select bank0
  7188  0059' 1303               	bcf	status, 6	;RP1=0, select bank0
  7189  005A' 00C6'              	movwf	(?___fladd+3)
  7190  005B' 3080               	movlw	0x80
  7191  005C' 00C5'              	movwf	(?___fladd+2)
  7192  005D' 3000               	movlw	0x0
  7193  005E' 00C4'              	movwf	(?___fladd+1)
  7194  005F' 3000               	movlw	0x0
  7195  0060' 00C3'              	movwf	(?___fladd)
  7196                           
  7197  0061' 3040               	movlw	0x40
  7198  0062' 00B2'              	movwf	(?___flmul+3)
  7199  0063' 3000               	movlw	0x0
  7200  0064' 00B1'              	movwf	(?___flmul+2)
  7201  0065' 3000               	movlw	0x0
  7202  0066' 00B0'              	movwf	(?___flmul+1)
  7203  0067' 3000               	movlw	0x0
  7204  0068' 00AF'              	movwf	(?___flmul)
  7205                           
  7206  0069' 3000'              	movlw	(log@exp)&0ffh
  7207  006A' 1683               	bsf	status, 5	;RP0=1, select bank1
  7208  006B' 1303               	bcf	status, 6	;RP1=0, select bank1
  7209  006C' 0080'              	movwf	(??_log+0)^080h+0
  7210  006D' 0800'              	movf	(??_log+0)^080h+0,w
  7211  006E' 1283               	bcf	status, 5	;RP0=0, select bank0
  7212  006F' 1303               	bcf	status, 6	;RP1=0, select bank0
  7213  0070' 0084'              	movwf	(0+?_frexp+04h)
  7214  0071' 1683               	bsf	status, 5	;RP0=1, select bank1
  7215  0072' 1303               	bcf	status, 6	;RP1=0, select bank1
  7216  0073' 0800'              	movf	(log@x+3)^080h,w
  7217  0074' 1283               	bcf	status, 5	;RP0=0, select bank0
  7218  0075' 1303               	bcf	status, 6	;RP1=0, select bank0
  7219  0076' 0083'              	movwf	(?_frexp+3)
  7220  0077' 1683               	bsf	status, 5	;RP0=1, select bank1
  7221  0078' 1303               	bcf	status, 6	;RP1=0, select bank1
  7222  0079' 0800'              	movf	(log@x+2)^080h,w
  7223  007A' 1283               	bcf	status, 5	;RP0=0, select bank0
  7224  007B' 1303               	bcf	status, 6	;RP1=0, select bank0
  7225  007C' 0082'              	movwf	(?_frexp+2)
  7226  007D' 1683               	bsf	status, 5	;RP0=1, select bank1
  7227  007E' 1303               	bcf	status, 6	;RP1=0, select bank1
  7228  007F' 0800'              	movf	(log@x+1)^080h,w
  7229  0080' 1283               	bcf	status, 5	;RP0=0, select bank0
  7230  0081' 1303               	bcf	status, 6	;RP1=0, select bank0
  7231  0082' 0081'              	movwf	(?_frexp+1)
  7232  0083' 1683               	bsf	status, 5	;RP0=1, select bank1
  7233  0084' 1303               	bcf	status, 6	;RP1=0, select bank1
  7234  0085' 0800'              	movf	(log@x)^080h,w
  7235  0086' 1283               	bcf	status, 5	;RP0=0, select bank0
  7236  0087' 1303               	bcf	status, 6	;RP1=0, select bank0
  7237  0088' 0080'              	movwf	(?_frexp)
  7238                           
  7239  0089' 120A' 118A' 2000'  	fcall	_frexp
              120A' 118A'        
  7240  008E' 1283               	bcf	status, 5	;RP0=0, select bank0
  7241  008F' 1303               	bcf	status, 6	;RP1=0, select bank0
  7242  0090' 0803'              	movf	(3+(?_frexp)),w
  7243  0091' 00B6'              	movwf	3+(?___flmul)+04h
  7244  0092' 0802'              	movf	(2+(?_frexp)),w
  7245  0093' 00B5'              	movwf	2+(?___flmul)+04h
  7246  0094' 0801'              	movf	(1+(?_frexp)),w
  7247  0095' 00B4'              	movwf	1+(?___flmul)+04h
  7248  0096' 0800'              	movf	(0+(?_frexp)),w
  7249  0097' 00B3'              	movwf	0+(?___flmul)+04h
  7250                           
  7251  0098' 120A' 118A' 2000'  	fcall	___flmul
              120A' 118A'        
  7252  009D' 1283               	bcf	status, 5	;RP0=0, select bank0
  7253  009E' 1303               	bcf	status, 6	;RP1=0, select bank0
  7254  009F' 0832'              	movf	(3+(?___flmul)),w
  7255  00A0' 00CA'              	movwf	3+(?___fladd)+04h
  7256  00A1' 0831'              	movf	(2+(?___flmul)),w
  7257  00A2' 00C9'              	movwf	2+(?___fladd)+04h
  7258  00A3' 0830'              	movf	(1+(?___flmul)),w
  7259  00A4' 00C8'              	movwf	1+(?___fladd)+04h
  7260  00A5' 082F'              	movf	(0+(?___flmul)),w
  7261  00A6' 00C7'              	movwf	0+(?___fladd)+04h
  7262                           
  7263  00A7' 120A' 118A' 2000'  	fcall	___fladd
              120A' 118A'        
  7264  00AC' 1283               	bcf	status, 5	;RP0=0, select bank0
  7265  00AD' 1303               	bcf	status, 6	;RP1=0, select bank0
  7266  00AE' 0846'              	movf	(3+(?___fladd)),w
  7267  00AF' 1683               	bsf	status, 5	;RP0=1, select bank1
  7268  00B0' 1303               	bcf	status, 6	;RP1=0, select bank1
  7269  00B1' 0080'              	movwf	(log@x+3)^080h
  7270  00B2' 1283               	bcf	status, 5	;RP0=0, select bank0
  7271  00B3' 1303               	bcf	status, 6	;RP1=0, select bank0
  7272  00B4' 0845'              	movf	(2+(?___fladd)),w
  7273  00B5' 1683               	bsf	status, 5	;RP0=1, select bank1
  7274  00B6' 1303               	bcf	status, 6	;RP1=0, select bank1
  7275  00B7' 0080'              	movwf	(log@x+2)^080h
  7276  00B8' 1283               	bcf	status, 5	;RP0=0, select bank0
  7277  00B9' 1303               	bcf	status, 6	;RP1=0, select bank0
  7278  00BA' 0844'              	movf	(1+(?___fladd)),w
  7279  00BB' 1683               	bsf	status, 5	;RP0=1, select bank1
  7280  00BC' 1303               	bcf	status, 6	;RP1=0, select bank1
  7281  00BD' 0080'              	movwf	(log@x+1)^080h
  7282  00BE' 1283               	bcf	status, 5	;RP0=0, select bank0
  7283  00BF' 1303               	bcf	status, 6	;RP1=0, select bank0
  7284  00C0' 0843'              	movf	(0+(?___fladd)),w
  7285  00C1' 1683               	bsf	status, 5	;RP0=1, select bank1
  7286  00C2' 1303               	bcf	status, 6	;RP1=0, select bank1
  7287  00C3' 0080'              	movwf	(log@x)^080h
  7288                           
  7289                           	line	33
  7290                           	
  7291  00C4'                    l9931:	
  7292  00C4' 30FF               	movlw	low(-1)
  7293  00C5' 0780'              	addwf	(log@exp)^080h,f
  7294  00C6' 1803               	skipnc
  7295  00C7' 0A80'              	incf	(log@exp+1)^080h,f
  7296  00C8' 30FF               	movlw	high(-1)
  7297  00C9' 0780'              	addwf	(log@exp+1)^080h,f
  7298                           	line	34
  7299                           	
  7300  00CA'                    l9933:	
  7301  00CA' 0800'              	movf	(log@x+3)^080h,w
  7302  00CB' 0080'              	movwf	(?_eval_poly+3)^080h
  7303  00CC' 0800'              	movf	(log@x+2)^080h,w
  7304  00CD' 0080'              	movwf	(?_eval_poly+2)^080h
  7305  00CE' 0800'              	movf	(log@x+1)^080h,w
  7306  00CF' 0080'              	movwf	(?_eval_poly+1)^080h
  7307  00D0' 0800'              	movf	(log@x)^080h,w
  7308  00D1' 0080'              	movwf	(?_eval_poly)^080h
  7309                           
  7310  00D2' 3029               	movlw	((log@coeff-__stringbase))&0ffh
  7311  00D3' 0080'              	movwf	(??_log+0)^080h+0
  7312  00D4' 0800'              	movf	(??_log+0)^080h+0,w
  7313  00D5' 0080'              	movwf	(0+?_eval_poly+04h)^080h
  7314  00D6' 3008               	movlw	low(08h)
  7315  00D7' 0085'              	movwf	0+(?_eval_poly)^080h+05h
  7316  00D8' 3000               	movlw	high(08h)
  7317  00D9' 0086'              	movwf	(0+(?_eval_poly)^080h+05h)+1
  7318  00DA' 120A' 118A' 2000'  	fcall	_eval_poly
              120A' 118A'        
  7319  00DF' 1683               	bsf	status, 5	;RP0=1, select bank1
  7320  00E0' 1303               	bcf	status, 6	;RP1=0, select bank1
  7321  00E1' 0800'              	movf	(3+(?_eval_poly))^080h,w
  7322  00E2' 0080'              	movwf	(log@x+3)^080h
  7323  00E3' 0800'              	movf	(2+(?_eval_poly))^080h,w
  7324  00E4' 0080'              	movwf	(log@x+2)^080h
  7325  00E5' 0800'              	movf	(1+(?_eval_poly))^080h,w
  7326  00E6' 0080'              	movwf	(log@x+1)^080h
  7327  00E7' 0800'              	movf	(0+(?_eval_poly))^080h,w
  7328  00E8' 0080'              	movwf	(log@x)^080h
  7329                           
  7330                           	line	35
  7331                           	
  7332  00E9'                    l9935:	
  7333  00E9' 0800'              	movf	(log@x+3)^080h,w
  7334  00EA' 1283               	bcf	status, 5	;RP0=0, select bank0
  7335  00EB' 1303               	bcf	status, 6	;RP1=0, select bank0
  7336  00EC' 00C6'              	movwf	(?___fladd+3)
  7337  00ED' 1683               	bsf	status, 5	;RP0=1, select bank1
  7338  00EE' 1303               	bcf	status, 6	;RP1=0, select bank1
  7339  00EF' 0800'              	movf	(log@x+2)^080h,w
  7340  00F0' 1283               	bcf	status, 5	;RP0=0, select bank0
  7341  00F1' 1303               	bcf	status, 6	;RP1=0, select bank0
  7342  00F2' 00C5'              	movwf	(?___fladd+2)
  7343  00F3' 1683               	bsf	status, 5	;RP0=1, select bank1
  7344  00F4' 1303               	bcf	status, 6	;RP1=0, select bank1
  7345  00F5' 0800'              	movf	(log@x+1)^080h,w
  7346  00F6' 1283               	bcf	status, 5	;RP0=0, select bank0
  7347  00F7' 1303               	bcf	status, 6	;RP1=0, select bank0
  7348  00F8' 00C4'              	movwf	(?___fladd+1)
  7349  00F9' 1683               	bsf	status, 5	;RP0=1, select bank1
  7350  00FA' 1303               	bcf	status, 6	;RP1=0, select bank1
  7351  00FB' 0800'              	movf	(log@x)^080h,w
  7352  00FC' 1283               	bcf	status, 5	;RP0=0, select bank0
  7353  00FD' 1303               	bcf	status, 6	;RP1=0, select bank0
  7354  00FE' 00C3'              	movwf	(?___fladd)
  7355                           
  7356  00FF' 303F               	movlw	0x3f
  7357  0100' 00B2'              	movwf	(?___flmul+3)
  7358  0101' 3031               	movlw	0x31
  7359  0102' 00B1'              	movwf	(?___flmul+2)
  7360  0103' 3072               	movlw	0x72
  7361  0104' 00B0'              	movwf	(?___flmul+1)
  7362  0105' 3018               	movlw	0x18
  7363  0106' 00AF'              	movwf	(?___flmul)
  7364                           
  7365  0107' 1683               	bsf	status, 5	;RP0=1, select bank1
  7366  0108' 1303               	bcf	status, 6	;RP1=0, select bank1
  7367  0109' 0800'              	movf	(log@exp+1)^080h,w
  7368  010A' 1283               	bcf	status, 5	;RP0=0, select bank0
  7369  010B' 1303               	bcf	status, 6	;RP1=0, select bank0
  7370  010C' 019C'              	clrf	(?___awtofl+1)
  7371  010D' 079C'              	addwf	(?___awtofl+1)
  7372  010E' 1683               	bsf	status, 5	;RP0=1, select bank1
  7373  010F' 1303               	bcf	status, 6	;RP1=0, select bank1
  7374  0110' 0800'              	movf	(log@exp)^080h,w
  7375  0111' 1283               	bcf	status, 5	;RP0=0, select bank0
  7376  0112' 1303               	bcf	status, 6	;RP1=0, select bank0
  7377  0113' 019B'              	clrf	(?___awtofl)
  7378  0114' 079B'              	addwf	(?___awtofl)
  7379                           
  7380  0115' 120A' 118A' 2000'  	fcall	___awtofl
              120A' 118A'        
  7381  011A' 1283               	bcf	status, 5	;RP0=0, select bank0
  7382  011B' 1303               	bcf	status, 6	;RP1=0, select bank0
  7383  011C' 081E'              	movf	(3+(?___awtofl)),w
  7384  011D' 00B6'              	movwf	3+(?___flmul)+04h
  7385  011E' 081D'              	movf	(2+(?___awtofl)),w
  7386  011F' 00B5'              	movwf	2+(?___flmul)+04h
  7387  0120' 081C'              	movf	(1+(?___awtofl)),w
  7388  0121' 00B4'              	movwf	1+(?___flmul)+04h
  7389  0122' 081B'              	movf	(0+(?___awtofl)),w
  7390  0123' 00B3'              	movwf	0+(?___flmul)+04h
  7391                           
  7392  0124' 120A' 118A' 2000'  	fcall	___flmul
              120A' 118A'        
  7393  0129' 1283               	bcf	status, 5	;RP0=0, select bank0
  7394  012A' 1303               	bcf	status, 6	;RP1=0, select bank0
  7395  012B' 0832'              	movf	(3+(?___flmul)),w
  7396  012C' 00CA'              	movwf	3+(?___fladd)+04h
  7397  012D' 0831'              	movf	(2+(?___flmul)),w
  7398  012E' 00C9'              	movwf	2+(?___fladd)+04h
  7399  012F' 0830'              	movf	(1+(?___flmul)),w
  7400  0130' 00C8'              	movwf	1+(?___fladd)+04h
  7401  0131' 082F'              	movf	(0+(?___flmul)),w
  7402  0132' 00C7'              	movwf	0+(?___fladd)+04h
  7403                           
  7404  0133' 120A' 118A' 2000'  	fcall	___fladd
              120A' 118A'        
  7405  0138' 1283               	bcf	status, 5	;RP0=0, select bank0
  7406  0139' 1303               	bcf	status, 6	;RP1=0, select bank0
  7407  013A' 0846'              	movf	(3+(?___fladd)),w
  7408  013B' 1683               	bsf	status, 5	;RP0=1, select bank1
  7409  013C' 1303               	bcf	status, 6	;RP1=0, select bank1
  7410  013D' 0080'              	movwf	(?_log+3)^080h
  7411  013E' 1283               	bcf	status, 5	;RP0=0, select bank0
  7412  013F' 1303               	bcf	status, 6	;RP1=0, select bank0
  7413  0140' 0845'              	movf	(2+(?___fladd)),w
  7414  0141' 1683               	bsf	status, 5	;RP0=1, select bank1
  7415  0142' 1303               	bcf	status, 6	;RP1=0, select bank1
  7416  0143' 0080'              	movwf	(?_log+2)^080h
  7417  0144' 1283               	bcf	status, 5	;RP0=0, select bank0
  7418  0145' 1303               	bcf	status, 6	;RP1=0, select bank0
  7419  0146' 0844'              	movf	(1+(?___fladd)),w
  7420  0147' 1683               	bsf	status, 5	;RP0=1, select bank1
  7421  0148' 1303               	bcf	status, 6	;RP1=0, select bank1
  7422  0149' 0080'              	movwf	(?_log+1)^080h
  7423  014A' 1283               	bcf	status, 5	;RP0=0, select bank0
  7424  014B' 1303               	bcf	status, 6	;RP1=0, select bank0
  7425  014C' 0843'              	movf	(0+(?___fladd)),w
  7426  014D' 1683               	bsf	status, 5	;RP0=1, select bank1
  7427  014E' 1303               	bcf	status, 6	;RP1=0, select bank1
  7428  014F' 0080'              	movwf	(?_log)^080h
  7429                           
  7430  0150' 2800'              	goto	l3958
  7431                           	
  7432  0151'                    l9937:	
  7433                           	line	36
  7434                           	
  7435  0151'                    l3958:	
  7436  0151' 0008               	return
  7437                           	opt stack 0
  7438                           GLOBAL	__end_of_log
  7439  0152'                    	__end_of_log:
  7440 ;; =============== function _log ends ============
  7441                           
  7442                           	signat	_log,4220
  7443                           	global	_format_xint32
  7444                           psect	text1444,local,class=CODE,delta=2
  7445                           global __ptext1444
  7446  0000'                    __ptext1444:
  7447                           
  7448 ;; *************** function _format_xint32 *****************
  7449 ;; Defined at:
  7450 ;;		line 48 in file "../../../lib/format.c"
  7451 ;; Parameters:    Size  Location     Type
  7452 ;;  x               4   52[BANK0 ] unsigned long 
  7453 ;; Auto vars:     Size  Location     Type
  7454 ;;		None
  7455 ;; Return value:  Size  Location     Type
  7456 ;;		None               void
  7457 ;; Registers used:
  7458 ;;		wreg, fsr0l, fsr0h, status,2, status,0, pclath, cstack
  7459 ;; Tracked objects:
  7460 ;;		On entry : 0/0
  7461 ;;		On exit  : 0/0
  7462 ;;		Unchanged: 0/0
  7463 ;; Data sizes:     COMMON   BANK0   BANK1   BANK3   BANK2
  7464 ;;      Params:         0       4       0       0       0
  7465 ;;      Locals:         0       0       0       0       0
  7466 ;;      Temps:          0       6       0       0       0
  7467 ;;      Totals:         0      10       0       0       0
  7468 ;;Total ram usage:       10 bytes
  7469 ;; Hardware stack levels used:    1
  7470 ;; Hardware stack levels required when called:    4
  7471 ;; This function calls:
  7472 ;;		_output_putch
  7473 ;;		_format_putchar
  7474 ;;		_ser_putch
  7475 ;;		_format_number
  7476 ;; This function is called by:
  7477 ;;		_measure_capacitance
  7478 ;; This function uses a non-reentrant model
  7479 ;;
  7480                           psect	text1444
  7481                           	file	"../../../lib/format.c"
  7482                           	line	48
  7483                           	global	__size_of_format_xint32
  7484  0054                     	__size_of_format_xint32	equ	__end_of_format_xint32-_format_xint32
  7485                           	
  7486  0000'                    _format_xint32:	
  7487                           	opt	stack 2
  7488                           ; Regs used in _format_xint32: [wreg-fsr0h+status,2+status,0+pclath+cstack]
  7489                           	line	49
  7490                           	
  7491  0000'                    l9915:	
  7492                           ;format.c: 49: putchar_ptr('0');
  7493  0000' 3030               	movlw	(030h)
  7494  0001' 1283               	bcf	status, 5	;RP0=0, select bank0
  7495  0002' 1303               	bcf	status, 6	;RP1=0, select bank0
  7496  0003' 00B8'              	movwf	(??_format_xint32+0)+0
  7497  0004' 0838'              	movf	(??_format_xint32+0)+0,w
  7498  0005' 0084'              	movwf	(?_output_putch)
  7499  0006' 0800'              	movf	(_putchar_ptr),w
  7500  0007' 120A' 118A' 2000'  	fcall	fptable
              120A' 118A'        
  7501                           	line	50
  7502                           ;format.c: 50: putchar_ptr('x');
  7503  000C' 3078               	movlw	(078h)
  7504  000D' 1283               	bcf	status, 5	;RP0=0, select bank0
  7505  000E' 1303               	bcf	status, 6	;RP1=0, select bank0
  7506  000F' 00B8'              	movwf	(??_format_xint32+0)+0
  7507  0010' 0838'              	movf	(??_format_xint32+0)+0,w
  7508  0011' 0084'              	movwf	(?_output_putch)
  7509  0012' 0800'              	movf	(_putchar_ptr),w
  7510  0013' 120A' 118A' 2000'  	fcall	fptable
              120A' 118A'        
  7511                           	line	51
  7512                           ;format.c: 51: format_number((uint16_t)(x >> 16), 16, -4);
  7513  0018' 1283               	bcf	status, 5	;RP0=0, select bank0
  7514  0019' 1303               	bcf	status, 6	;RP1=0, select bank0
  7515  001A' 0834'              	movf	(format_xint32@x),w
  7516  001B' 00B8'              	movwf	(??_format_xint32+0)+0
  7517  001C' 0835'              	movf	(format_xint32@x+1),w
  7518  001D' 00B9'              	movwf	((??_format_xint32+0)+0+1)
  7519  001E' 0836'              	movf	(format_xint32@x+2),w
  7520  001F' 00BA'              	movwf	((??_format_xint32+0)+0+2)
  7521  0020' 0837'              	movf	(format_xint32@x+3),w
  7522  0021' 00BB'              	movwf	((??_format_xint32+0)+0+3)
  7523  0022' 3010               	movlw	010h
  7524  0023'                    u6435:
  7525  0023' 1003               	clrc
  7526  0024' 0CBB'              	rrf	(??_format_xint32+0)+3,f
  7527  0025' 0CBA'              	rrf	(??_format_xint32+0)+2,f
  7528  0026' 0CB9'              	rrf	(??_format_xint32+0)+1,f
  7529  0027' 0CB8'              	rrf	(??_format_xint32+0)+0,f
  7530  0028'                    u6430:
  7531  0028' 3EFF               	addlw	-1
  7532  0029' 1D03               	skipz
  7533  002A' 2800'              	goto	u6435
  7534  002B' 0839'              	movf	1+(??_format_xint32+0)+0,w
  7535  002C' 0189'              	clrf	(?_format_number+1)
  7536  002D' 0789'              	addwf	(?_format_number+1)
  7537  002E' 0838'              	movf	0+(??_format_xint32+0)+0,w
  7538  002F' 0188'              	clrf	(?_format_number)
  7539  0030' 0788'              	addwf	(?_format_number)
  7540                           
  7541  0031' 3010               	movlw	(010h)
  7542  0032' 00BC'              	movwf	(??_format_xint32+4)+0
  7543  0033' 083C'              	movf	(??_format_xint32+4)+0,w
  7544  0034' 008A'              	movwf	0+(?_format_number)+02h
  7545  0035' 30FC               	movlw	(-4)
  7546  0036' 00BD'              	movwf	(??_format_xint32+5)+0
  7547  0037' 083D'              	movf	(??_format_xint32+5)+0,w
  7548  0038' 008B'              	movwf	0+(?_format_number)+03h
  7549  0039' 120A' 118A' 2000'  	fcall	_format_number
              120A' 118A'        
  7550                           	line	52
  7551                           ;format.c: 52: format_number((uint16_t)(x & 0xffff), 16, -4);
  7552  003E' 1283               	bcf	status, 5	;RP0=0, select bank0
  7553  003F' 1303               	bcf	status, 6	;RP1=0, select bank0
  7554  0040' 0835'              	movf	(format_xint32@x+1),w
  7555  0041' 0189'              	clrf	(?_format_number+1)
  7556  0042' 0789'              	addwf	(?_format_number+1)
  7557  0043' 0834'              	movf	(format_xint32@x),w
  7558  0044' 0188'              	clrf	(?_format_number)
  7559  0045' 0788'              	addwf	(?_format_number)
  7560                           
  7561  0046' 3010               	movlw	(010h)
  7562  0047' 00B8'              	movwf	(??_format_xint32+0)+0
  7563  0048' 0838'              	movf	(??_format_xint32+0)+0,w
  7564  0049' 008A'              	movwf	0+(?_format_number)+02h
  7565  004A' 30FC               	movlw	(-4)
  7566  004B' 00B9'              	movwf	(??_format_xint32+1)+0
  7567  004C' 0839'              	movf	(??_format_xint32+1)+0,w
  7568  004D' 008B'              	movwf	0+(?_format_number)+03h
  7569  004E' 120A' 118A' 2000'  	fcall	_format_number
              120A' 118A'        
  7570                           	line	53
  7571                           	
  7572  0053'                    l2558:	
  7573  0053' 0008               	return
  7574                           	opt stack 0
  7575                           GLOBAL	__end_of_format_xint32
  7576  0054'                    	__end_of_format_xint32:
  7577 ;; =============== function _format_xint32 ends ============
  7578                           
  7579                           	signat	_format_xint32,4216
  7580                           	global	___flsub
  7581                           psect	text1445,local,class=CODE,delta=2
  7582                           global __ptext1445
  7583  0000'                    __ptext1445:
  7584                           
  7585 ;; *************** function ___flsub *****************
  7586 ;; Defined at:
  7587 ;;		line 17 in file "/opt/hitech/picc/9.83/sources/flsub.c"
  7588 ;; Parameters:    Size  Location     Type
  7589 ;;  f2              4    3[BANK1 ] unsigned long 
  7590 ;;  f1              4    7[BANK1 ] unsigned long 
  7591 ;; Auto vars:     Size  Location     Type
  7592 ;;		None
  7593 ;; Return value:  Size  Location     Type
  7594 ;;                  4    3[BANK1 ] unsigned long 
  7595 ;; Registers used:
  7596 ;;		wreg, status,2, status,0, pclath, cstack
  7597 ;; Tracked objects:
  7598 ;;		On entry : 0/0
  7599 ;;		On exit  : 0/0
  7600 ;;		Unchanged: 0/0
  7601 ;; Data sizes:     COMMON   BANK0   BANK1   BANK3   BANK2
  7602 ;;      Params:         0       0       8       0       0
  7603 ;;      Locals:         0       0       0       0       0
  7604 ;;      Temps:          0       0       0       0       0
  7605 ;;      Totals:         0       0       8       0       0
  7606 ;;Total ram usage:        8 bytes
  7607 ;; Hardware stack levels used:    1
  7608 ;; Hardware stack levels required when called:    3
  7609 ;; This function calls:
  7610 ;;		___fladd
  7611 ;; This function is called by:
  7612 ;;		_format_double
  7613 ;;		_exp
  7614 ;;		_format_float
  7615 ;; This function uses a non-reentrant model
  7616 ;;
  7617                           psect	text1445
  7618                           	file	"/opt/hitech/picc/9.83/sources/flsub.c"
  7619                           	line	17
  7620                           	global	__size_of___flsub
  7621  0051                     	__size_of___flsub	equ	__end_of___flsub-___flsub
  7622                           	
  7623  0000'                    ___flsub:	
  7624                           	opt	stack 2
  7625                           ; Regs used in ___flsub: [wreg+status,2+status,0+pclath+cstack]
  7626                           	line	18
  7627                           	
  7628  0000'                    l9909:	
  7629  0000' 3080               	movlw	080h
  7630  0001' 1683               	bsf	status, 5	;RP0=1, select bank1
  7631  0002' 1303               	bcf	status, 6	;RP1=0, select bank1
  7632  0003' 0680'              	xorwf	(___flsub@f2+3)^080h,f
  7633                           	line	19
  7634                           	
  7635  0004'                    l9911:	
  7636  0004' 0800'              	movf	(___flsub@f2+3)^080h,w
  7637  0005' 1283               	bcf	status, 5	;RP0=0, select bank0
  7638  0006' 1303               	bcf	status, 6	;RP1=0, select bank0
  7639  0007' 00C6'              	movwf	(?___fladd+3)
  7640  0008' 1683               	bsf	status, 5	;RP0=1, select bank1
  7641  0009' 1303               	bcf	status, 6	;RP1=0, select bank1
  7642  000A' 0800'              	movf	(___flsub@f2+2)^080h,w
  7643  000B' 1283               	bcf	status, 5	;RP0=0, select bank0
  7644  000C' 1303               	bcf	status, 6	;RP1=0, select bank0
  7645  000D' 00C5'              	movwf	(?___fladd+2)
  7646  000E' 1683               	bsf	status, 5	;RP0=1, select bank1
  7647  000F' 1303               	bcf	status, 6	;RP1=0, select bank1
  7648  0010' 0800'              	movf	(___flsub@f2+1)^080h,w
  7649  0011' 1283               	bcf	status, 5	;RP0=0, select bank0
  7650  0012' 1303               	bcf	status, 6	;RP1=0, select bank0
  7651  0013' 00C4'              	movwf	(?___fladd+1)
  7652  0014' 1683               	bsf	status, 5	;RP0=1, select bank1
  7653  0015' 1303               	bcf	status, 6	;RP1=0, select bank1
  7654  0016' 0800'              	movf	(___flsub@f2)^080h,w
  7655  0017' 1283               	bcf	status, 5	;RP0=0, select bank0
  7656  0018' 1303               	bcf	status, 6	;RP1=0, select bank0
  7657  0019' 00C3'              	movwf	(?___fladd)
  7658                           
  7659  001A' 1683               	bsf	status, 5	;RP0=1, select bank1
  7660  001B' 1303               	bcf	status, 6	;RP1=0, select bank1
  7661  001C' 0800'              	movf	(___flsub@f1+3)^080h,w
  7662  001D' 1283               	bcf	status, 5	;RP0=0, select bank0
  7663  001E' 1303               	bcf	status, 6	;RP1=0, select bank0
  7664  001F' 00CA'              	movwf	3+(?___fladd)+04h
  7665  0020' 1683               	bsf	status, 5	;RP0=1, select bank1
  7666  0021' 1303               	bcf	status, 6	;RP1=0, select bank1
  7667  0022' 0800'              	movf	(___flsub@f1+2)^080h,w
  7668  0023' 1283               	bcf	status, 5	;RP0=0, select bank0
  7669  0024' 1303               	bcf	status, 6	;RP1=0, select bank0
  7670  0025' 00C9'              	movwf	2+(?___fladd)+04h
  7671  0026' 1683               	bsf	status, 5	;RP0=1, select bank1
  7672  0027' 1303               	bcf	status, 6	;RP1=0, select bank1
  7673  0028' 0800'              	movf	(___flsub@f1+1)^080h,w
  7674  0029' 1283               	bcf	status, 5	;RP0=0, select bank0
  7675  002A' 1303               	bcf	status, 6	;RP1=0, select bank0
  7676  002B' 00C8'              	movwf	1+(?___fladd)+04h
  7677  002C' 1683               	bsf	status, 5	;RP0=1, select bank1
  7678  002D' 1303               	bcf	status, 6	;RP1=0, select bank1
  7679  002E' 0800'              	movf	(___flsub@f1)^080h,w
  7680  002F' 1283               	bcf	status, 5	;RP0=0, select bank0
  7681  0030' 1303               	bcf	status, 6	;RP1=0, select bank0
  7682  0031' 00C7'              	movwf	0+(?___fladd)+04h
  7683                           
  7684  0032' 120A' 118A' 2000'  	fcall	___fladd
              120A' 118A'        
  7685  0037' 1283               	bcf	status, 5	;RP0=0, select bank0
  7686  0038' 1303               	bcf	status, 6	;RP1=0, select bank0
  7687  0039' 0846'              	movf	(3+(?___fladd)),w
  7688  003A' 1683               	bsf	status, 5	;RP0=1, select bank1
  7689  003B' 1303               	bcf	status, 6	;RP1=0, select bank1
  7690  003C' 0080'              	movwf	(?___flsub+3)^080h
  7691  003D' 1283               	bcf	status, 5	;RP0=0, select bank0
  7692  003E' 1303               	bcf	status, 6	;RP1=0, select bank0
  7693  003F' 0845'              	movf	(2+(?___fladd)),w
  7694  0040' 1683               	bsf	status, 5	;RP0=1, select bank1
  7695  0041' 1303               	bcf	status, 6	;RP1=0, select bank1
  7696  0042' 0080'              	movwf	(?___flsub+2)^080h
  7697  0043' 1283               	bcf	status, 5	;RP0=0, select bank0
  7698  0044' 1303               	bcf	status, 6	;RP1=0, select bank0
  7699  0045' 0844'              	movf	(1+(?___fladd)),w
  7700  0046' 1683               	bsf	status, 5	;RP0=1, select bank1
  7701  0047' 1303               	bcf	status, 6	;RP1=0, select bank1
  7702  0048' 0080'              	movwf	(?___flsub+1)^080h
  7703  0049' 1283               	bcf	status, 5	;RP0=0, select bank0
  7704  004A' 1303               	bcf	status, 6	;RP1=0, select bank0
  7705  004B' 0843'              	movf	(0+(?___fladd)),w
  7706  004C' 1683               	bsf	status, 5	;RP0=1, select bank1
  7707  004D' 1303               	bcf	status, 6	;RP1=0, select bank1
  7708  004E' 0080'              	movwf	(?___flsub)^080h
  7709                           
  7710  004F' 2800'              	goto	l4095
  7711                           	
  7712  0050'                    l9913:	
  7713                           	line	20
  7714                           	
  7715  0050'                    l4095:	
  7716  0050' 0008               	return
  7717                           	opt stack 0
  7718                           GLOBAL	__end_of___flsub
  7719  0051'                    	__end_of___flsub:
  7720 ;; =============== function ___flsub ends ============
  7721                           
  7722                           	signat	___flsub,8316
  7723                           	global	_eval_poly
  7724                           psect	text1446,local,class=CODE,delta=2
  7725                           global __ptext1446
  7726  0000'                    __ptext1446:
  7727                           
  7728 ;; *************** function _eval_poly *****************
  7729 ;; Defined at:
  7730 ;;		line 5 in file "/opt/hitech/picc/9.83/sources/evalpoly.c"
  7731 ;; Parameters:    Size  Location     Type
  7732 ;;  x               4   15[BANK1 ] unsigned long 
  7733 ;;  d               1   19[BANK1 ] PTR const 
  7734 ;;		 -> exp@coeff(40), log@coeff(36), 
  7735 ;;  n               2   20[BANK1 ] int 
  7736 ;; Auto vars:     Size  Location     Type
  7737 ;;  res             4   27[BANK1 ] int 
  7738 ;; Return value:  Size  Location     Type
  7739 ;;                  4   15[BANK1 ] int 
  7740 ;; Registers used:
  7741 ;;		wreg, fsr0l, fsr0h, status,2, status,0, pclath, cstack
  7742 ;; Tracked objects:
  7743 ;;		On entry : 0/0
  7744 ;;		On exit  : 0/0
  7745 ;;		Unchanged: 0/0
  7746 ;; Data sizes:     COMMON   BANK0   BANK1   BANK3   BANK2
  7747 ;;      Params:         0       0       7       0       0
  7748 ;;      Locals:         0       0       4       0       0
  7749 ;;      Temps:          0       0       5       0       0
  7750 ;;      Totals:         0       0      16       0       0
  7751 ;;Total ram usage:       16 bytes
  7752 ;; Hardware stack levels used:    1
  7753 ;; Hardware stack levels required when called:    3
  7754 ;; This function calls:
  7755 ;;		___flmul
  7756 ;;		___fladd
  7757 ;; This function is called by:
  7758 ;;		_log
  7759 ;;		_exp
  7760 ;; This function uses a non-reentrant model
  7761 ;;
  7762                           psect	text1446
  7763                           	file	"/opt/hitech/picc/9.83/sources/evalpoly.c"
  7764                           	line	5
  7765                           	global	__size_of_eval_poly
  7766  00DD                     	__size_of_eval_poly	equ	__end_of_eval_poly-_eval_poly
  7767                           	
  7768  0000'                    _eval_poly:	
  7769 ;; using string table level
  7770                           	opt	stack 1
  7771                           ; Regs used in _eval_poly: [wreg-fsr0h+status,2+status,0+pclath+cstack]
  7772                           	line	8
  7773                           	
  7774  0000'                    l9899:	
  7775  0000' 1683               	bsf	status, 5	;RP0=1, select bank1
  7776  0001' 1303               	bcf	status, 6	;RP1=0, select bank1
  7777  0002' 0800'              	movf	(eval_poly@n)^080h,w
  7778  0003' 0080'              	movwf	(??_eval_poly+0)^080h+0
  7779  0004' 3001               	movlw	(02h)-1
  7780  0005'                    u6405:
  7781  0005' 1003               	clrc
  7782  0006' 0D80'              	rlf	(??_eval_poly+0)^080h+0,f
  7783  0007' 3EFF               	addlw	-1
  7784  0008' 1D03               	skipz
  7785  0009' 2800'              	goto	u6405
  7786  000A' 1003               	clrc
  7787  000B' 0D00'              	rlf	(??_eval_poly+0)^080h+0,w
  7788  000C' 0700'              	addwf	(eval_poly@d)^080h,w
  7789  000D' 0084               	movwf	fsr0
  7790  000E' 120A' 118A' 2000'  	fcall	stringdir
              120A' 118A'        
  7791  0013' 0080'              	movwf	((??_eval_poly+1)^080h+0)
  7792  0014' 120A' 118A' 2000'  	fcall	stringdir
              120A' 118A'        
  7793  0019' 0081'              	movwf	((??_eval_poly+1)^080h+0+1)
  7794  001A' 120A' 118A' 2000'  	fcall	stringdir
              120A' 118A'        
  7795  001F' 0082'              	movwf	((??_eval_poly+1)^080h+0+2)
  7796  0020' 120A' 118A' 2000'  	fcall	stringdir
              120A' 118A'        
  7797  0025' 0083'              	movwf	((??_eval_poly+1)^080h+0+3)
  7798  0026' 0800'              	movf	3+(??_eval_poly+1)^080h+0,w
  7799  0027' 0080'              	movwf	(eval_poly@res+3)^080h
  7800  0028' 0800'              	movf	2+(??_eval_poly+1)^080h+0,w
  7801  0029' 0080'              	movwf	(eval_poly@res+2)^080h
  7802  002A' 0800'              	movf	1+(??_eval_poly+1)^080h+0,w
  7803  002B' 0080'              	movwf	(eval_poly@res+1)^080h
  7804  002C' 0800'              	movf	0+(??_eval_poly+1)^080h+0,w
  7805  002D' 0080'              	movwf	(eval_poly@res)^080h
  7806                           
  7807                           	line	9
  7808  002E' 2800'              	goto	l9903
  7809                           	
  7810  002F'                    l4339:	
  7811                           	line	10
  7812                           	
  7813  002F'                    l9901:	
  7814  002F' 30FF               	movlw	low(-1)
  7815  0030' 0780'              	addwf	(eval_poly@n)^080h,f
  7816  0031' 1803               	skipnc
  7817  0032' 0A80'              	incf	(eval_poly@n+1)^080h,f
  7818  0033' 30FF               	movlw	high(-1)
  7819  0034' 0780'              	addwf	(eval_poly@n+1)^080h,f
  7820  0035' 0800'              	movf	((eval_poly@n)^080h),w
  7821  0036' 0080'              	movwf	(??_eval_poly+0)^080h+0
  7822  0037' 3001               	movlw	(02h)-1
  7823  0038'                    u6415:
  7824  0038' 1003               	clrc
  7825  0039' 0D80'              	rlf	(??_eval_poly+0)^080h+0,f
  7826  003A' 3EFF               	addlw	-1
  7827  003B' 1D03               	skipz
  7828  003C' 2800'              	goto	u6415
  7829  003D' 1003               	clrc
  7830  003E' 0D00'              	rlf	(??_eval_poly+0)^080h+0,w
  7831  003F' 0700'              	addwf	(eval_poly@d)^080h,w
  7832  0040' 0084               	movwf	fsr0
  7833  0041' 120A' 118A' 2000'  	fcall	stringdir
              120A' 118A'        
  7834  0046' 0080'              	movwf	((??_eval_poly+1)^080h+0)
  7835  0047' 120A' 118A' 2000'  	fcall	stringdir
              120A' 118A'        
  7836  004C' 0081'              	movwf	((??_eval_poly+1)^080h+0+1)
  7837  004D' 120A' 118A' 2000'  	fcall	stringdir
              120A' 118A'        
  7838  0052' 0082'              	movwf	((??_eval_poly+1)^080h+0+2)
  7839  0053' 120A' 118A' 2000'  	fcall	stringdir
              120A' 118A'        
  7840  0058' 0083'              	movwf	((??_eval_poly+1)^080h+0+3)
  7841  0059' 0800'              	movf	3+(??_eval_poly+1)^080h+0,w
  7842  005A' 1283               	bcf	status, 5	;RP0=0, select bank0
  7843  005B' 1303               	bcf	status, 6	;RP1=0, select bank0
  7844  005C' 00C6'              	movwf	(?___fladd+3)
  7845  005D' 1683               	bsf	status, 5	;RP0=1, select bank1
  7846  005E' 1303               	bcf	status, 6	;RP1=0, select bank1
  7847  005F' 0800'              	movf	2+(??_eval_poly+1)^080h+0,w
  7848  0060' 1283               	bcf	status, 5	;RP0=0, select bank0
  7849  0061' 1303               	bcf	status, 6	;RP1=0, select bank0
  7850  0062' 00C5'              	movwf	(?___fladd+2)
  7851  0063' 1683               	bsf	status, 5	;RP0=1, select bank1
  7852  0064' 1303               	bcf	status, 6	;RP1=0, select bank1
  7853  0065' 0800'              	movf	1+(??_eval_poly+1)^080h+0,w
  7854  0066' 1283               	bcf	status, 5	;RP0=0, select bank0
  7855  0067' 1303               	bcf	status, 6	;RP1=0, select bank0
  7856  0068' 00C4'              	movwf	(?___fladd+1)
  7857  0069' 1683               	bsf	status, 5	;RP0=1, select bank1
  7858  006A' 1303               	bcf	status, 6	;RP1=0, select bank1
  7859  006B' 0800'              	movf	0+(??_eval_poly+1)^080h+0,w
  7860  006C' 1283               	bcf	status, 5	;RP0=0, select bank0
  7861  006D' 1303               	bcf	status, 6	;RP1=0, select bank0
  7862  006E' 00C3'              	movwf	(?___fladd)
  7863                           
  7864  006F' 1683               	bsf	status, 5	;RP0=1, select bank1
  7865  0070' 1303               	bcf	status, 6	;RP1=0, select bank1
  7866  0071' 0800'              	movf	(eval_poly@res+3)^080h,w
  7867  0072' 1283               	bcf	status, 5	;RP0=0, select bank0
  7868  0073' 1303               	bcf	status, 6	;RP1=0, select bank0
  7869  0074' 00B2'              	movwf	(?___flmul+3)
  7870  0075' 1683               	bsf	status, 5	;RP0=1, select bank1
  7871  0076' 1303               	bcf	status, 6	;RP1=0, select bank1
  7872  0077' 0800'              	movf	(eval_poly@res+2)^080h,w
  7873  0078' 1283               	bcf	status, 5	;RP0=0, select bank0
  7874  0079' 1303               	bcf	status, 6	;RP1=0, select bank0
  7875  007A' 00B1'              	movwf	(?___flmul+2)
  7876  007B' 1683               	bsf	status, 5	;RP0=1, select bank1
  7877  007C' 1303               	bcf	status, 6	;RP1=0, select bank1
  7878  007D' 0800'              	movf	(eval_poly@res+1)^080h,w
  7879  007E' 1283               	bcf	status, 5	;RP0=0, select bank0
  7880  007F' 1303               	bcf	status, 6	;RP1=0, select bank0
  7881  0080' 00B0'              	movwf	(?___flmul+1)
  7882  0081' 1683               	bsf	status, 5	;RP0=1, select bank1
  7883  0082' 1303               	bcf	status, 6	;RP1=0, select bank1
  7884  0083' 0800'              	movf	(eval_poly@res)^080h,w
  7885  0084' 1283               	bcf	status, 5	;RP0=0, select bank0
  7886  0085' 1303               	bcf	status, 6	;RP1=0, select bank0
  7887  0086' 00AF'              	movwf	(?___flmul)
  7888                           
  7889  0087' 1683               	bsf	status, 5	;RP0=1, select bank1
  7890  0088' 1303               	bcf	status, 6	;RP1=0, select bank1
  7891  0089' 0800'              	movf	(eval_poly@x+3)^080h,w
  7892  008A' 1283               	bcf	status, 5	;RP0=0, select bank0
  7893  008B' 1303               	bcf	status, 6	;RP1=0, select bank0
  7894  008C' 00B6'              	movwf	3+(?___flmul)+04h
  7895  008D' 1683               	bsf	status, 5	;RP0=1, select bank1
  7896  008E' 1303               	bcf	status, 6	;RP1=0, select bank1
  7897  008F' 0800'              	movf	(eval_poly@x+2)^080h,w
  7898  0090' 1283               	bcf	status, 5	;RP0=0, select bank0
  7899  0091' 1303               	bcf	status, 6	;RP1=0, select bank0
  7900  0092' 00B5'              	movwf	2+(?___flmul)+04h
  7901  0093' 1683               	bsf	status, 5	;RP0=1, select bank1
  7902  0094' 1303               	bcf	status, 6	;RP1=0, select bank1
  7903  0095' 0800'              	movf	(eval_poly@x+1)^080h,w
  7904  0096' 1283               	bcf	status, 5	;RP0=0, select bank0
  7905  0097' 1303               	bcf	status, 6	;RP1=0, select bank0
  7906  0098' 00B4'              	movwf	1+(?___flmul)+04h
  7907  0099' 1683               	bsf	status, 5	;RP0=1, select bank1
  7908  009A' 1303               	bcf	status, 6	;RP1=0, select bank1
  7909  009B' 0800'              	movf	(eval_poly@x)^080h,w
  7910  009C' 1283               	bcf	status, 5	;RP0=0, select bank0
  7911  009D' 1303               	bcf	status, 6	;RP1=0, select bank0
  7912  009E' 00B3'              	movwf	0+(?___flmul)+04h
  7913                           
  7914  009F' 120A' 118A' 2000'  	fcall	___flmul
              120A' 118A'        
  7915  00A4' 1283               	bcf	status, 5	;RP0=0, select bank0
  7916  00A5' 1303               	bcf	status, 6	;RP1=0, select bank0
  7917  00A6' 0832'              	movf	(3+(?___flmul)),w
  7918  00A7' 00CA'              	movwf	3+(?___fladd)+04h
  7919  00A8' 0831'              	movf	(2+(?___flmul)),w
  7920  00A9' 00C9'              	movwf	2+(?___fladd)+04h
  7921  00AA' 0830'              	movf	(1+(?___flmul)),w
  7922  00AB' 00C8'              	movwf	1+(?___fladd)+04h
  7923  00AC' 082F'              	movf	(0+(?___flmul)),w
  7924  00AD' 00C7'              	movwf	0+(?___fladd)+04h
  7925                           
  7926  00AE' 120A' 118A' 2000'  	fcall	___fladd
              120A' 118A'        
  7927  00B3' 1283               	bcf	status, 5	;RP0=0, select bank0
  7928  00B4' 1303               	bcf	status, 6	;RP1=0, select bank0
  7929  00B5' 0846'              	movf	(3+(?___fladd)),w
  7930  00B6' 1683               	bsf	status, 5	;RP0=1, select bank1
  7931  00B7' 1303               	bcf	status, 6	;RP1=0, select bank1
  7932  00B8' 0080'              	movwf	(eval_poly@res+3)^080h
  7933  00B9' 1283               	bcf	status, 5	;RP0=0, select bank0
  7934  00BA' 1303               	bcf	status, 6	;RP1=0, select bank0
  7935  00BB' 0845'              	movf	(2+(?___fladd)),w
  7936  00BC' 1683               	bsf	status, 5	;RP0=1, select bank1
  7937  00BD' 1303               	bcf	status, 6	;RP1=0, select bank1
  7938  00BE' 0080'              	movwf	(eval_poly@res+2)^080h
  7939  00BF' 1283               	bcf	status, 5	;RP0=0, select bank0
  7940  00C0' 1303               	bcf	status, 6	;RP1=0, select bank0
  7941  00C1' 0844'              	movf	(1+(?___fladd)),w
  7942  00C2' 1683               	bsf	status, 5	;RP0=1, select bank1
  7943  00C3' 1303               	bcf	status, 6	;RP1=0, select bank1
  7944  00C4' 0080'              	movwf	(eval_poly@res+1)^080h
  7945  00C5' 1283               	bcf	status, 5	;RP0=0, select bank0
  7946  00C6' 1303               	bcf	status, 6	;RP1=0, select bank0
  7947  00C7' 0843'              	movf	(0+(?___fladd)),w
  7948  00C8' 1683               	bsf	status, 5	;RP0=1, select bank1
  7949  00C9' 1303               	bcf	status, 6	;RP1=0, select bank1
  7950  00CA' 0080'              	movwf	(eval_poly@res)^080h
  7951                           
  7952  00CB' 2800'              	goto	l9903
  7953                           	
  7954  00CC'                    l4338:	
  7955                           	line	9
  7956                           	
  7957  00CC'                    l9903:	
  7958  00CC' 0800'              	movf	((eval_poly@n+1)^080h),w
  7959  00CD' 0400'              	iorwf	((eval_poly@n)^080h),w
  7960  00CE' 1D03               	skipz
  7961  00CF' 2800'              	goto	u6421
  7962  00D0' 2800'              	goto	u6420
  7963  00D1'                    u6421:
  7964  00D1' 2800'              	goto	l9901
  7965  00D2'                    u6420:
  7966  00D2' 2800'              	goto	l9905
  7967                           	
  7968  00D3'                    l4340:	
  7969                           	line	11
  7970                           	
  7971  00D3'                    l9905:	
  7972  00D3' 0800'              	movf	(eval_poly@res+3)^080h,w
  7973  00D4' 0080'              	movwf	(?_eval_poly+3)^080h
  7974  00D5' 0800'              	movf	(eval_poly@res+2)^080h,w
  7975  00D6' 0080'              	movwf	(?_eval_poly+2)^080h
  7976  00D7' 0800'              	movf	(eval_poly@res+1)^080h,w
  7977  00D8' 0080'              	movwf	(?_eval_poly+1)^080h
  7978  00D9' 0800'              	movf	(eval_poly@res)^080h,w
  7979  00DA' 0080'              	movwf	(?_eval_poly)^080h
  7980                           
  7981  00DB' 2800'              	goto	l4341
  7982                           	
  7983  00DC'                    l9907:	
  7984                           	line	12
  7985                           	
  7986  00DC'                    l4341:	
  7987  00DC' 0008               	return
  7988                           	opt stack 0
  7989                           GLOBAL	__end_of_eval_poly
  7990  00DD'                    	__end_of_eval_poly:
  7991 ;; =============== function _eval_poly ends ============
  7992                           
  7993                           	signat	_eval_poly,12412
  7994                           	global	_measure_inductance
  7995                           psect	text1447,local,class=CODE,delta=2
  7996                           global __ptext1447
  7997  0000'                    __ptext1447:
  7998                           
  7999 ;; *************** function _measure_inductance *****************
  8000 ;; Defined at:
  8001 ;;		line 470 in file "../../../src/LC-meter.c"
  8002 ;; Parameters:    Size  Location     Type
  8003 ;;		None
  8004 ;; Auto vars:     Size  Location     Type
  8005 ;;  Lin             4   39[BANK1 ] int 
  8006 ;;  denominator     4    8[BANK1 ] int 
  8007 ;;  numerator       4    4[BANK1 ] int 
  8008 ;;  var             2   37[BANK1 ] unsigned int 
  8009 ;;  unit            1   28[BANK1 ] unsigned char 
  8010 ;; Return value:  Size  Location     Type
  8011 ;;		None               void
  8012 ;; Registers used:
  8013 ;;		wreg, status,2, status,0, btemp+1, pclath, cstack
  8014 ;; Tracked objects:
  8015 ;;		On entry : 0/0
  8016 ;;		On exit  : 0/0
  8017 ;;		Unchanged: 0/0
  8018 ;; Data sizes:     COMMON   BANK0   BANK1   BANK3   BANK2
  8019 ;;      Params:         0       0       0       0       0
  8020 ;;      Locals:         0       0      39       0       0
  8021 ;;      Temps:          0       0       1       0       0
  8022 ;;      Totals:         0       0      40       0       0
  8023 ;;Total ram usage:       40 bytes
  8024 ;; Hardware stack levels used:    1
  8025 ;; Hardware stack levels required when called:    3
  8026 ;; This function calls:
  8027 ;;		_measure_freq
  8028 ;;		___lwtofl
  8029 ;;		___flge
  8030 ;;		___flneg
  8031 ;;		___fladd
  8032 ;;		___flmul
  8033 ;;		___fldiv
  8034 ;;		___fltol
  8035 ;;		_print_reading
  8036 ;;		_print_unit
  8037 ;; This function is called by:
  8038 ;;		_main
  8039 ;; This function uses a non-reentrant model
  8040 ;;
  8041                           psect	text1447
  8042                           	file	"../../../src/LC-meter.c"
  8043                           	line	470
  8044                           	global	__size_of_measure_inductance
  8045  068E                     	__size_of_measure_inductance	equ	__end_of_measure_inductance-_measure_inductance
  8046                           	
  8047  0000'                    _measure_inductance:	
  8048                           	opt	stack 4
  8049                           ; Regs used in _measure_inductance: [wreg+status,2+status,0+btemp+1+pclath+cstack]
  8050                           	line	480
  8051                           	
  8052  0000'                    l9841:	
  8053                           ;LC-meter.c: 471: uint8_t unit;
  8054                           ;LC-meter.c: 472: uint16_t var;
  8055                           ;LC-meter.c: 474: double Lin, numerator, denominator;
  8056                           ;LC-meter.c: 480: var = measure_freq();
  8057  0000' 120A' 118A' 2000'  	fcall	_measure_freq
              120A' 118A'        
  8058  0005' 1283               	bcf	status, 5	;RP0=0, select bank0
  8059  0006' 1303               	bcf	status, 6	;RP1=0, select bank0
  8060  0007' 0801'              	movf	(1+(?_measure_freq)),w
  8061  0008' 1683               	bsf	status, 5	;RP0=1, select bank1
  8062  0009' 1303               	bcf	status, 6	;RP1=0, select bank1
  8063  000A' 0180'              	clrf	(measure_inductance@var+1)^080h
  8064  000B' 0780'              	addwf	(measure_inductance@var+1)^080h
  8065  000C' 1283               	bcf	status, 5	;RP0=0, select bank0
  8066  000D' 1303               	bcf	status, 6	;RP1=0, select bank0
  8067  000E' 0800'              	movf	(0+(?_measure_freq)),w
  8068  000F' 1683               	bsf	status, 5	;RP0=1, select bank1
  8069  0010' 1303               	bcf	status, 6	;RP1=0, select bank1
  8070  0011' 0180'              	clrf	(measure_inductance@var)^080h
  8071  0012' 0780'              	addwf	(measure_inductance@var)^080h
  8072                           
  8073                           	line	482
  8074                           	
  8075  0013'                    l9843:	
  8076                           ;LC-meter.c: 482: F3 = (double)var;
  8077  0013' 0800'              	movf	(measure_inductance@var+1)^080h,w
  8078  0014' 1283               	bcf	status, 5	;RP0=0, select bank0
  8079  0015' 1303               	bcf	status, 6	;RP1=0, select bank0
  8080  0016' 018D'              	clrf	(?___lwtofl+1)
  8081  0017' 078D'              	addwf	(?___lwtofl+1)
  8082  0018' 1683               	bsf	status, 5	;RP0=1, select bank1
  8083  0019' 1303               	bcf	status, 6	;RP1=0, select bank1
  8084  001A' 0800'              	movf	(measure_inductance@var)^080h,w
  8085  001B' 1283               	bcf	status, 5	;RP0=0, select bank0
  8086  001C' 1303               	bcf	status, 6	;RP1=0, select bank0
  8087  001D' 018C'              	clrf	(?___lwtofl)
  8088  001E' 078C'              	addwf	(?___lwtofl)
  8089                           
  8090  001F' 120A' 118A' 2000'  	fcall	___lwtofl
              120A' 118A'        
  8091  0024' 1283               	bcf	status, 5	;RP0=0, select bank0
  8092  0025' 1303               	bcf	status, 6	;RP1=0, select bank0
  8093  0026' 080F'              	movf	(3+(?___lwtofl)),w
  8094  0027' 1683               	bsf	status, 5	;RP0=1, select bank3
  8095  0028' 1703               	bsf	status, 6	;RP1=1, select bank3
  8096  0029' 0080'              	movwf	(_F3+3)^0180h
  8097  002A' 1283               	bcf	status, 5	;RP0=0, select bank0
  8098  002B' 1303               	bcf	status, 6	;RP1=0, select bank0
  8099  002C' 080E'              	movf	(2+(?___lwtofl)),w
  8100  002D' 1683               	bsf	status, 5	;RP0=1, select bank3
  8101  002E' 1703               	bsf	status, 6	;RP1=1, select bank3
  8102  002F' 0080'              	movwf	(_F3+2)^0180h
  8103  0030' 1283               	bcf	status, 5	;RP0=0, select bank0
  8104  0031' 1303               	bcf	status, 6	;RP1=0, select bank0
  8105  0032' 080D'              	movf	(1+(?___lwtofl)),w
  8106  0033' 1683               	bsf	status, 5	;RP0=1, select bank3
  8107  0034' 1703               	bsf	status, 6	;RP1=1, select bank3
  8108  0035' 0080'              	movwf	(_F3+1)^0180h
  8109  0036' 1283               	bcf	status, 5	;RP0=0, select bank0
  8110  0037' 1303               	bcf	status, 6	;RP1=0, select bank0
  8111  0038' 080C'              	movf	(0+(?___lwtofl)),w
  8112  0039' 1683               	bsf	status, 5	;RP0=1, select bank3
  8113  003A' 1703               	bsf	status, 6	;RP1=1, select bank3
  8114  003B' 0080'              	movwf	(_F3)^0180h
  8115                           
  8116                           	line	483
  8117                           	
  8118  003C'                    l9845:	
  8119                           ;LC-meter.c: 483: if(F3 > F1)
  8120  003C' 0800'              	movf	(_F1+3)^0180h,w
  8121  003D' 1283               	bcf	status, 5	;RP0=0, select bank0
  8122  003E' 1303               	bcf	status, 6	;RP1=0, select bank0
  8123  003F' 0083'              	movwf	(?___flge+3)
  8124  0040' 1683               	bsf	status, 5	;RP0=1, select bank3
  8125  0041' 1703               	bsf	status, 6	;RP1=1, select bank3
  8126  0042' 0800'              	movf	(_F1+2)^0180h,w
  8127  0043' 1283               	bcf	status, 5	;RP0=0, select bank0
  8128  0044' 1303               	bcf	status, 6	;RP1=0, select bank0
  8129  0045' 0082'              	movwf	(?___flge+2)
  8130  0046' 1683               	bsf	status, 5	;RP0=1, select bank3
  8131  0047' 1703               	bsf	status, 6	;RP1=1, select bank3
  8132  0048' 0800'              	movf	(_F1+1)^0180h,w
  8133  0049' 1283               	bcf	status, 5	;RP0=0, select bank0
  8134  004A' 1303               	bcf	status, 6	;RP1=0, select bank0
  8135  004B' 0081'              	movwf	(?___flge+1)
  8136  004C' 1683               	bsf	status, 5	;RP0=1, select bank3
  8137  004D' 1703               	bsf	status, 6	;RP1=1, select bank3
  8138  004E' 0800'              	movf	(_F1)^0180h,w
  8139  004F' 1283               	bcf	status, 5	;RP0=0, select bank0
  8140  0050' 1303               	bcf	status, 6	;RP1=0, select bank0
  8141  0051' 0080'              	movwf	(?___flge)
  8142                           
  8143  0052' 1683               	bsf	status, 5	;RP0=1, select bank3
  8144  0053' 1703               	bsf	status, 6	;RP1=1, select bank3
  8145  0054' 0800'              	movf	(_F3+3)^0180h,w
  8146  0055' 1283               	bcf	status, 5	;RP0=0, select bank0
  8147  0056' 1303               	bcf	status, 6	;RP1=0, select bank0
  8148  0057' 0087'              	movwf	3+(?___flge)+04h
  8149  0058' 1683               	bsf	status, 5	;RP0=1, select bank3
  8150  0059' 1703               	bsf	status, 6	;RP1=1, select bank3
  8151  005A' 0800'              	movf	(_F3+2)^0180h,w
  8152  005B' 1283               	bcf	status, 5	;RP0=0, select bank0
  8153  005C' 1303               	bcf	status, 6	;RP1=0, select bank0
  8154  005D' 0086'              	movwf	2+(?___flge)+04h
  8155  005E' 1683               	bsf	status, 5	;RP0=1, select bank3
  8156  005F' 1703               	bsf	status, 6	;RP1=1, select bank3
  8157  0060' 0800'              	movf	(_F3+1)^0180h,w
  8158  0061' 1283               	bcf	status, 5	;RP0=0, select bank0
  8159  0062' 1303               	bcf	status, 6	;RP1=0, select bank0
  8160  0063' 0085'              	movwf	1+(?___flge)+04h
  8161  0064' 1683               	bsf	status, 5	;RP0=1, select bank3
  8162  0065' 1703               	bsf	status, 6	;RP1=1, select bank3
  8163  0066' 0800'              	movf	(_F3)^0180h,w
  8164  0067' 1283               	bcf	status, 5	;RP0=0, select bank0
  8165  0068' 1303               	bcf	status, 6	;RP1=0, select bank0
  8166  0069' 0084'              	movwf	0+(?___flge)+04h
  8167                           
  8168  006A' 120A' 118A' 2000'  	fcall	___flge
              120A' 118A'        
  8169  006F' 1803               	btfsc	status,0
  8170  0070' 2800'              	goto	u6361
  8171  0071' 2800'              	goto	u6360
  8172  0072'                    u6361:
  8173  0072' 2800'              	goto	l9849
  8174  0073'                    u6360:
  8175                           	line	484
  8176                           	
  8177  0073'                    l9847:	
  8178                           ;LC-meter.c: 484: F3 = F1;
  8179  0073' 1683               	bsf	status, 5	;RP0=1, select bank3
  8180  0074' 1703               	bsf	status, 6	;RP1=1, select bank3
  8181  0075' 0800'              	movf	(_F1+3)^0180h,w
  8182  0076' 0080'              	movwf	(_F3+3)^0180h
  8183  0077' 0800'              	movf	(_F1+2)^0180h,w
  8184  0078' 0080'              	movwf	(_F3+2)^0180h
  8185  0079' 0800'              	movf	(_F1+1)^0180h,w
  8186  007A' 0080'              	movwf	(_F3+1)^0180h
  8187  007B' 0800'              	movf	(_F1)^0180h,w
  8188  007C' 0080'              	movwf	(_F3)^0180h
  8189                           
  8190  007D' 2800'              	goto	l9849
  8191                           	
  8192  007E'                    l3308:	
  8193                           	line	486
  8194                           	
  8195  007E'                    l9849:	
  8196                           ;LC-meter.c: 486: numerator = ((F1 * F1) - (F3 * F3)) * ((F1 * F1) - (F2 - F2)) * (100 *
                                  100);
  8197  007E' 1683               	bsf	status, 5	;RP0=1, select bank3
  8198  007F' 1703               	bsf	status, 6	;RP1=1, select bank3
  8199  0080' 0800'              	movf	(_F3+3)^0180h,w
  8200  0081' 1283               	bcf	status, 5	;RP0=0, select bank0
  8201  0082' 1303               	bcf	status, 6	;RP1=0, select bank0
  8202  0083' 00B6'              	movwf	3+(?___flmul)+04h
  8203  0084' 1683               	bsf	status, 5	;RP0=1, select bank3
  8204  0085' 1703               	bsf	status, 6	;RP1=1, select bank3
  8205  0086' 0800'              	movf	(_F3+2)^0180h,w
  8206  0087' 1283               	bcf	status, 5	;RP0=0, select bank0
  8207  0088' 1303               	bcf	status, 6	;RP1=0, select bank0
  8208  0089' 00B5'              	movwf	2+(?___flmul)+04h
  8209  008A' 1683               	bsf	status, 5	;RP0=1, select bank3
  8210  008B' 1703               	bsf	status, 6	;RP1=1, select bank3
  8211  008C' 0800'              	movf	(_F3+1)^0180h,w
  8212  008D' 1283               	bcf	status, 5	;RP0=0, select bank0
  8213  008E' 1303               	bcf	status, 6	;RP1=0, select bank0
  8214  008F' 00B4'              	movwf	1+(?___flmul)+04h
  8215  0090' 1683               	bsf	status, 5	;RP0=1, select bank3
  8216  0091' 1703               	bsf	status, 6	;RP1=1, select bank3
  8217  0092' 0800'              	movf	(_F3)^0180h,w
  8218  0093' 1283               	bcf	status, 5	;RP0=0, select bank0
  8219  0094' 1303               	bcf	status, 6	;RP1=0, select bank0
  8220  0095' 00B3'              	movwf	0+(?___flmul)+04h
  8221                           
  8222  0096' 1683               	bsf	status, 5	;RP0=1, select bank3
  8223  0097' 1703               	bsf	status, 6	;RP1=1, select bank3
  8224  0098' 0800'              	movf	(_F3+3)^0180h,w
  8225  0099' 1283               	bcf	status, 5	;RP0=0, select bank0
  8226  009A' 1303               	bcf	status, 6	;RP1=0, select bank0
  8227  009B' 00B2'              	movwf	(?___flmul+3)
  8228  009C' 1683               	bsf	status, 5	;RP0=1, select bank3
  8229  009D' 1703               	bsf	status, 6	;RP1=1, select bank3
  8230  009E' 0800'              	movf	(_F3+2)^0180h,w
  8231  009F' 1283               	bcf	status, 5	;RP0=0, select bank0
  8232  00A0' 1303               	bcf	status, 6	;RP1=0, select bank0
  8233  00A1' 00B1'              	movwf	(?___flmul+2)
  8234  00A2' 1683               	bsf	status, 5	;RP0=1, select bank3
  8235  00A3' 1703               	bsf	status, 6	;RP1=1, select bank3
  8236  00A4' 0800'              	movf	(_F3+1)^0180h,w
  8237  00A5' 1283               	bcf	status, 5	;RP0=0, select bank0
  8238  00A6' 1303               	bcf	status, 6	;RP1=0, select bank0
  8239  00A7' 00B0'              	movwf	(?___flmul+1)
  8240  00A8' 1683               	bsf	status, 5	;RP0=1, select bank3
  8241  00A9' 1703               	bsf	status, 6	;RP1=1, select bank3
  8242  00AA' 0800'              	movf	(_F3)^0180h,w
  8243  00AB' 1283               	bcf	status, 5	;RP0=0, select bank0
  8244  00AC' 1303               	bcf	status, 6	;RP1=0, select bank0
  8245  00AD' 00AF'              	movwf	(?___flmul)
  8246                           
  8247  00AE' 120A' 118A' 2000'  	fcall	___flmul
              120A' 118A'        
  8248  00B3' 1283               	bcf	status, 5	;RP0=0, select bank0
  8249  00B4' 1303               	bcf	status, 6	;RP1=0, select bank0
  8250  00B5' 0832'              	movf	(3+(?___flmul)),w
  8251  00B6' 008D'              	movwf	(?___flneg+3)
  8252  00B7' 0831'              	movf	(2+(?___flmul)),w
  8253  00B8' 008C'              	movwf	(?___flneg+2)
  8254  00B9' 0830'              	movf	(1+(?___flmul)),w
  8255  00BA' 008B'              	movwf	(?___flneg+1)
  8256  00BB' 082F'              	movf	(0+(?___flmul)),w
  8257  00BC' 008A'              	movwf	(?___flneg)
  8258                           
  8259  00BD' 120A' 118A' 2000'  	fcall	___flneg
              120A' 118A'        
  8260  00C2' 1283               	bcf	status, 5	;RP0=0, select bank0
  8261  00C3' 1303               	bcf	status, 6	;RP1=0, select bank0
  8262  00C4' 080D'              	movf	(3+(?___flneg)),w
  8263  00C5' 00C6'              	movwf	(?___fladd+3)
  8264  00C6' 080C'              	movf	(2+(?___flneg)),w
  8265  00C7' 00C5'              	movwf	(?___fladd+2)
  8266  00C8' 080B'              	movf	(1+(?___flneg)),w
  8267  00C9' 00C4'              	movwf	(?___fladd+1)
  8268  00CA' 080A'              	movf	(0+(?___flneg)),w
  8269  00CB' 00C3'              	movwf	(?___fladd)
  8270                           
  8271  00CC' 1683               	bsf	status, 5	;RP0=1, select bank3
  8272  00CD' 1703               	bsf	status, 6	;RP1=1, select bank3
  8273  00CE' 0800'              	movf	(_F1+3)^0180h,w
  8274  00CF' 1283               	bcf	status, 5	;RP0=0, select bank0
  8275  00D0' 1303               	bcf	status, 6	;RP1=0, select bank0
  8276  00D1' 00B2'              	movwf	(?___flmul+3)
  8277  00D2' 1683               	bsf	status, 5	;RP0=1, select bank3
  8278  00D3' 1703               	bsf	status, 6	;RP1=1, select bank3
  8279  00D4' 0800'              	movf	(_F1+2)^0180h,w
  8280  00D5' 1283               	bcf	status, 5	;RP0=0, select bank0
  8281  00D6' 1303               	bcf	status, 6	;RP1=0, select bank0
  8282  00D7' 00B1'              	movwf	(?___flmul+2)
  8283  00D8' 1683               	bsf	status, 5	;RP0=1, select bank3
  8284  00D9' 1703               	bsf	status, 6	;RP1=1, select bank3
  8285  00DA' 0800'              	movf	(_F1+1)^0180h,w
  8286  00DB' 1283               	bcf	status, 5	;RP0=0, select bank0
  8287  00DC' 1303               	bcf	status, 6	;RP1=0, select bank0
  8288  00DD' 00B0'              	movwf	(?___flmul+1)
  8289  00DE' 1683               	bsf	status, 5	;RP0=1, select bank3
  8290  00DF' 1703               	bsf	status, 6	;RP1=1, select bank3
  8291  00E0' 0800'              	movf	(_F1)^0180h,w
  8292  00E1' 1283               	bcf	status, 5	;RP0=0, select bank0
  8293  00E2' 1303               	bcf	status, 6	;RP1=0, select bank0
  8294  00E3' 00AF'              	movwf	(?___flmul)
  8295                           
  8296  00E4' 1683               	bsf	status, 5	;RP0=1, select bank3
  8297  00E5' 1703               	bsf	status, 6	;RP1=1, select bank3
  8298  00E6' 0800'              	movf	(_F1+3)^0180h,w
  8299  00E7' 1283               	bcf	status, 5	;RP0=0, select bank0
  8300  00E8' 1303               	bcf	status, 6	;RP1=0, select bank0
  8301  00E9' 00B6'              	movwf	3+(?___flmul)+04h
  8302  00EA' 1683               	bsf	status, 5	;RP0=1, select bank3
  8303  00EB' 1703               	bsf	status, 6	;RP1=1, select bank3
  8304  00EC' 0800'              	movf	(_F1+2)^0180h,w
  8305  00ED' 1283               	bcf	status, 5	;RP0=0, select bank0
  8306  00EE' 1303               	bcf	status, 6	;RP1=0, select bank0
  8307  00EF' 00B5'              	movwf	2+(?___flmul)+04h
  8308  00F0' 1683               	bsf	status, 5	;RP0=1, select bank3
  8309  00F1' 1703               	bsf	status, 6	;RP1=1, select bank3
  8310  00F2' 0800'              	movf	(_F1+1)^0180h,w
  8311  00F3' 1283               	bcf	status, 5	;RP0=0, select bank0
  8312  00F4' 1303               	bcf	status, 6	;RP1=0, select bank0
  8313  00F5' 00B4'              	movwf	1+(?___flmul)+04h
  8314  00F6' 1683               	bsf	status, 5	;RP0=1, select bank3
  8315  00F7' 1703               	bsf	status, 6	;RP1=1, select bank3
  8316  00F8' 0800'              	movf	(_F1)^0180h,w
  8317  00F9' 1283               	bcf	status, 5	;RP0=0, select bank0
  8318  00FA' 1303               	bcf	status, 6	;RP1=0, select bank0
  8319  00FB' 00B3'              	movwf	0+(?___flmul)+04h
  8320                           
  8321  00FC' 120A' 118A' 2000'  	fcall	___flmul
              120A' 118A'        
  8322  0101' 1283               	bcf	status, 5	;RP0=0, select bank0
  8323  0102' 1303               	bcf	status, 6	;RP1=0, select bank0
  8324  0103' 0832'              	movf	(3+(?___flmul)),w
  8325  0104' 00CA'              	movwf	3+(?___fladd)+04h
  8326  0105' 0831'              	movf	(2+(?___flmul)),w
  8327  0106' 00C9'              	movwf	2+(?___fladd)+04h
  8328  0107' 0830'              	movf	(1+(?___flmul)),w
  8329  0108' 00C8'              	movwf	1+(?___fladd)+04h
  8330  0109' 082F'              	movf	(0+(?___flmul)),w
  8331  010A' 00C7'              	movwf	0+(?___fladd)+04h
  8332                           
  8333  010B' 120A' 118A' 2000'  	fcall	___fladd
              120A' 118A'        
  8334  0110' 1283               	bcf	status, 5	;RP0=0, select bank0
  8335  0111' 1303               	bcf	status, 6	;RP1=0, select bank0
  8336  0112' 0846'              	movf	(3+(?___fladd)),w
  8337  0113' 1683               	bsf	status, 5	;RP0=1, select bank1
  8338  0114' 1303               	bcf	status, 6	;RP1=0, select bank1
  8339  0115' 0080'              	movwf	(_measure_inductance$5206+3)^080h
  8340  0116' 1283               	bcf	status, 5	;RP0=0, select bank0
  8341  0117' 1303               	bcf	status, 6	;RP1=0, select bank0
  8342  0118' 0845'              	movf	(2+(?___fladd)),w
  8343  0119' 1683               	bsf	status, 5	;RP0=1, select bank1
  8344  011A' 1303               	bcf	status, 6	;RP1=0, select bank1
  8345  011B' 0080'              	movwf	(_measure_inductance$5206+2)^080h
  8346  011C' 1283               	bcf	status, 5	;RP0=0, select bank0
  8347  011D' 1303               	bcf	status, 6	;RP1=0, select bank0
  8348  011E' 0844'              	movf	(1+(?___fladd)),w
  8349  011F' 1683               	bsf	status, 5	;RP0=1, select bank1
  8350  0120' 1303               	bcf	status, 6	;RP1=0, select bank1
  8351  0121' 0080'              	movwf	(_measure_inductance$5206+1)^080h
  8352  0122' 1283               	bcf	status, 5	;RP0=0, select bank0
  8353  0123' 1303               	bcf	status, 6	;RP1=0, select bank0
  8354  0124' 0843'              	movf	(0+(?___fladd)),w
  8355  0125' 1683               	bsf	status, 5	;RP0=1, select bank1
  8356  0126' 1303               	bcf	status, 6	;RP1=0, select bank1
  8357  0127' 0080'              	movwf	(_measure_inductance$5206)^080h
  8358                           
  8359                           	
  8360  0128'                    l9851:	
  8361                           ;LC-meter.c: 486: numerator = ((F1 * F1) - (F3 * F3)) * ((F1 * F1) - (F2 - F2)) * (100 *
                                  100);
  8362  0128' 1683               	bsf	status, 5	;RP0=1, select bank3
  8363  0129' 1703               	bsf	status, 6	;RP1=1, select bank3
  8364  012A' 0800'              	movf	(_F2+3)^0180h,w
  8365  012B' 1283               	bcf	status, 5	;RP0=0, select bank0
  8366  012C' 1303               	bcf	status, 6	;RP1=0, select bank0
  8367  012D' 008D'              	movwf	(?___flneg+3)
  8368  012E' 1683               	bsf	status, 5	;RP0=1, select bank3
  8369  012F' 1703               	bsf	status, 6	;RP1=1, select bank3
  8370  0130' 0800'              	movf	(_F2+2)^0180h,w
  8371  0131' 1283               	bcf	status, 5	;RP0=0, select bank0
  8372  0132' 1303               	bcf	status, 6	;RP1=0, select bank0
  8373  0133' 008C'              	movwf	(?___flneg+2)
  8374  0134' 1683               	bsf	status, 5	;RP0=1, select bank3
  8375  0135' 1703               	bsf	status, 6	;RP1=1, select bank3
  8376  0136' 0800'              	movf	(_F2+1)^0180h,w
  8377  0137' 1283               	bcf	status, 5	;RP0=0, select bank0
  8378  0138' 1303               	bcf	status, 6	;RP1=0, select bank0
  8379  0139' 008B'              	movwf	(?___flneg+1)
  8380  013A' 1683               	bsf	status, 5	;RP0=1, select bank3
  8381  013B' 1703               	bsf	status, 6	;RP1=1, select bank3
  8382  013C' 0800'              	movf	(_F2)^0180h,w
  8383  013D' 1283               	bcf	status, 5	;RP0=0, select bank0
  8384  013E' 1303               	bcf	status, 6	;RP1=0, select bank0
  8385  013F' 008A'              	movwf	(?___flneg)
  8386                           
  8387  0140' 120A' 118A' 2000'  	fcall	___flneg
              120A' 118A'        
  8388  0145' 1283               	bcf	status, 5	;RP0=0, select bank0
  8389  0146' 1303               	bcf	status, 6	;RP1=0, select bank0
  8390  0147' 080D'              	movf	(3+(?___flneg)),w
  8391  0148' 00CA'              	movwf	3+(?___fladd)+04h
  8392  0149' 080C'              	movf	(2+(?___flneg)),w
  8393  014A' 00C9'              	movwf	2+(?___fladd)+04h
  8394  014B' 080B'              	movf	(1+(?___flneg)),w
  8395  014C' 00C8'              	movwf	1+(?___fladd)+04h
  8396  014D' 080A'              	movf	(0+(?___flneg)),w
  8397  014E' 00C7'              	movwf	0+(?___fladd)+04h
  8398                           
  8399  014F' 1683               	bsf	status, 5	;RP0=1, select bank3
  8400  0150' 1703               	bsf	status, 6	;RP1=1, select bank3
  8401  0151' 0800'              	movf	(_F2+3)^0180h,w
  8402  0152' 1283               	bcf	status, 5	;RP0=0, select bank0
  8403  0153' 1303               	bcf	status, 6	;RP1=0, select bank0
  8404  0154' 00C6'              	movwf	(?___fladd+3)
  8405  0155' 1683               	bsf	status, 5	;RP0=1, select bank3
  8406  0156' 1703               	bsf	status, 6	;RP1=1, select bank3
  8407  0157' 0800'              	movf	(_F2+2)^0180h,w
  8408  0158' 1283               	bcf	status, 5	;RP0=0, select bank0
  8409  0159' 1303               	bcf	status, 6	;RP1=0, select bank0
  8410  015A' 00C5'              	movwf	(?___fladd+2)
  8411  015B' 1683               	bsf	status, 5	;RP0=1, select bank3
  8412  015C' 1703               	bsf	status, 6	;RP1=1, select bank3
  8413  015D' 0800'              	movf	(_F2+1)^0180h,w
  8414  015E' 1283               	bcf	status, 5	;RP0=0, select bank0
  8415  015F' 1303               	bcf	status, 6	;RP1=0, select bank0
  8416  0160' 00C4'              	movwf	(?___fladd+1)
  8417  0161' 1683               	bsf	status, 5	;RP0=1, select bank3
  8418  0162' 1703               	bsf	status, 6	;RP1=1, select bank3
  8419  0163' 0800'              	movf	(_F2)^0180h,w
  8420  0164' 1283               	bcf	status, 5	;RP0=0, select bank0
  8421  0165' 1303               	bcf	status, 6	;RP1=0, select bank0
  8422  0166' 00C3'              	movwf	(?___fladd)
  8423                           
  8424  0167' 120A' 118A' 2000'  	fcall	___fladd
              120A' 118A'        
  8425  016C' 1283               	bcf	status, 5	;RP0=0, select bank0
  8426  016D' 1303               	bcf	status, 6	;RP1=0, select bank0
  8427  016E' 0846'              	movf	(3+(?___fladd)),w
  8428  016F' 008D'              	movwf	(?___flneg+3)
  8429  0170' 0845'              	movf	(2+(?___fladd)),w
  8430  0171' 008C'              	movwf	(?___flneg+2)
  8431  0172' 0844'              	movf	(1+(?___fladd)),w
  8432  0173' 008B'              	movwf	(?___flneg+1)
  8433  0174' 0843'              	movf	(0+(?___fladd)),w
  8434  0175' 008A'              	movwf	(?___flneg)
  8435                           
  8436  0176' 120A' 118A' 2000'  	fcall	___flneg
              120A' 118A'        
  8437  017B' 1283               	bcf	status, 5	;RP0=0, select bank0
  8438  017C' 1303               	bcf	status, 6	;RP1=0, select bank0
  8439  017D' 080D'              	movf	(3+(?___flneg)),w
  8440  017E' 00C6'              	movwf	(?___fladd+3)
  8441  017F' 080C'              	movf	(2+(?___flneg)),w
  8442  0180' 00C5'              	movwf	(?___fladd+2)
  8443  0181' 080B'              	movf	(1+(?___flneg)),w
  8444  0182' 00C4'              	movwf	(?___fladd+1)
  8445  0183' 080A'              	movf	(0+(?___flneg)),w
  8446  0184' 00C3'              	movwf	(?___fladd)
  8447                           
  8448  0185' 1683               	bsf	status, 5	;RP0=1, select bank3
  8449  0186' 1703               	bsf	status, 6	;RP1=1, select bank3
  8450  0187' 0800'              	movf	(_F1+3)^0180h,w
  8451  0188' 1283               	bcf	status, 5	;RP0=0, select bank0
  8452  0189' 1303               	bcf	status, 6	;RP1=0, select bank0
  8453  018A' 00B2'              	movwf	(?___flmul+3)
  8454  018B' 1683               	bsf	status, 5	;RP0=1, select bank3
  8455  018C' 1703               	bsf	status, 6	;RP1=1, select bank3
  8456  018D' 0800'              	movf	(_F1+2)^0180h,w
  8457  018E' 1283               	bcf	status, 5	;RP0=0, select bank0
  8458  018F' 1303               	bcf	status, 6	;RP1=0, select bank0
  8459  0190' 00B1'              	movwf	(?___flmul+2)
  8460  0191' 1683               	bsf	status, 5	;RP0=1, select bank3
  8461  0192' 1703               	bsf	status, 6	;RP1=1, select bank3
  8462  0193' 0800'              	movf	(_F1+1)^0180h,w
  8463  0194' 1283               	bcf	status, 5	;RP0=0, select bank0
  8464  0195' 1303               	bcf	status, 6	;RP1=0, select bank0
  8465  0196' 00B0'              	movwf	(?___flmul+1)
  8466  0197' 1683               	bsf	status, 5	;RP0=1, select bank3
  8467  0198' 1703               	bsf	status, 6	;RP1=1, select bank3
  8468  0199' 0800'              	movf	(_F1)^0180h,w
  8469  019A' 1283               	bcf	status, 5	;RP0=0, select bank0
  8470  019B' 1303               	bcf	status, 6	;RP1=0, select bank0
  8471  019C' 00AF'              	movwf	(?___flmul)
  8472                           
  8473  019D' 1683               	bsf	status, 5	;RP0=1, select bank3
  8474  019E' 1703               	bsf	status, 6	;RP1=1, select bank3
  8475  019F' 0800'              	movf	(_F1+3)^0180h,w
  8476  01A0' 1283               	bcf	status, 5	;RP0=0, select bank0
  8477  01A1' 1303               	bcf	status, 6	;RP1=0, select bank0
  8478  01A2' 00B6'              	movwf	3+(?___flmul)+04h
  8479  01A3' 1683               	bsf	status, 5	;RP0=1, select bank3
  8480  01A4' 1703               	bsf	status, 6	;RP1=1, select bank3
  8481  01A5' 0800'              	movf	(_F1+2)^0180h,w
  8482  01A6' 1283               	bcf	status, 5	;RP0=0, select bank0
  8483  01A7' 1303               	bcf	status, 6	;RP1=0, select bank0
  8484  01A8' 00B5'              	movwf	2+(?___flmul)+04h
  8485  01A9' 1683               	bsf	status, 5	;RP0=1, select bank3
  8486  01AA' 1703               	bsf	status, 6	;RP1=1, select bank3
  8487  01AB' 0800'              	movf	(_F1+1)^0180h,w
  8488  01AC' 1283               	bcf	status, 5	;RP0=0, select bank0
  8489  01AD' 1303               	bcf	status, 6	;RP1=0, select bank0
  8490  01AE' 00B4'              	movwf	1+(?___flmul)+04h
  8491  01AF' 1683               	bsf	status, 5	;RP0=1, select bank3
  8492  01B0' 1703               	bsf	status, 6	;RP1=1, select bank3
  8493  01B1' 0800'              	movf	(_F1)^0180h,w
  8494  01B2' 1283               	bcf	status, 5	;RP0=0, select bank0
  8495  01B3' 1303               	bcf	status, 6	;RP1=0, select bank0
  8496  01B4' 00B3'              	movwf	0+(?___flmul)+04h
  8497                           
  8498  01B5' 120A' 118A' 2000'  	fcall	___flmul
              120A' 118A'        
  8499  01BA' 1283               	bcf	status, 5	;RP0=0, select bank0
  8500  01BB' 1303               	bcf	status, 6	;RP1=0, select bank0
  8501  01BC' 0832'              	movf	(3+(?___flmul)),w
  8502  01BD' 00CA'              	movwf	3+(?___fladd)+04h
  8503  01BE' 0831'              	movf	(2+(?___flmul)),w
  8504  01BF' 00C9'              	movwf	2+(?___fladd)+04h
  8505  01C0' 0830'              	movf	(1+(?___flmul)),w
  8506  01C1' 00C8'              	movwf	1+(?___fladd)+04h
  8507  01C2' 082F'              	movf	(0+(?___flmul)),w
  8508  01C3' 00C7'              	movwf	0+(?___fladd)+04h
  8509                           
  8510  01C4' 120A' 118A' 2000'  	fcall	___fladd
              120A' 118A'        
  8511  01C9' 1283               	bcf	status, 5	;RP0=0, select bank0
  8512  01CA' 1303               	bcf	status, 6	;RP1=0, select bank0
  8513  01CB' 0846'              	movf	(3+(?___fladd)),w
  8514  01CC' 00B2'              	movwf	(?___flmul+3)
  8515  01CD' 0845'              	movf	(2+(?___fladd)),w
  8516  01CE' 00B1'              	movwf	(?___flmul+2)
  8517  01CF' 0844'              	movf	(1+(?___fladd)),w
  8518  01D0' 00B0'              	movwf	(?___flmul+1)
  8519  01D1' 0843'              	movf	(0+(?___fladd)),w
  8520  01D2' 00AF'              	movwf	(?___flmul)
  8521                           
  8522  01D3' 1683               	bsf	status, 5	;RP0=1, select bank1
  8523  01D4' 1303               	bcf	status, 6	;RP1=0, select bank1
  8524  01D5' 0800'              	movf	(_measure_inductance$5206+3)^080h,w
  8525  01D6' 1283               	bcf	status, 5	;RP0=0, select bank0
  8526  01D7' 1303               	bcf	status, 6	;RP1=0, select bank0
  8527  01D8' 00B6'              	movwf	3+(?___flmul)+04h
  8528  01D9' 1683               	bsf	status, 5	;RP0=1, select bank1
  8529  01DA' 1303               	bcf	status, 6	;RP1=0, select bank1
  8530  01DB' 0800'              	movf	(_measure_inductance$5206+2)^080h,w
  8531  01DC' 1283               	bcf	status, 5	;RP0=0, select bank0
  8532  01DD' 1303               	bcf	status, 6	;RP1=0, select bank0
  8533  01DE' 00B5'              	movwf	2+(?___flmul)+04h
  8534  01DF' 1683               	bsf	status, 5	;RP0=1, select bank1
  8535  01E0' 1303               	bcf	status, 6	;RP1=0, select bank1
  8536  01E1' 0800'              	movf	(_measure_inductance$5206+1)^080h,w
  8537  01E2' 1283               	bcf	status, 5	;RP0=0, select bank0
  8538  01E3' 1303               	bcf	status, 6	;RP1=0, select bank0
  8539  01E4' 00B4'              	movwf	1+(?___flmul)+04h
  8540  01E5' 1683               	bsf	status, 5	;RP0=1, select bank1
  8541  01E6' 1303               	bcf	status, 6	;RP1=0, select bank1
  8542  01E7' 0800'              	movf	(_measure_inductance$5206)^080h,w
  8543  01E8' 1283               	bcf	status, 5	;RP0=0, select bank0
  8544  01E9' 1303               	bcf	status, 6	;RP1=0, select bank0
  8545  01EA' 00B3'              	movwf	0+(?___flmul)+04h
  8546                           
  8547  01EB' 120A' 118A' 2000'  	fcall	___flmul
              120A' 118A'        
  8548  01F0' 1283               	bcf	status, 5	;RP0=0, select bank0
  8549  01F1' 1303               	bcf	status, 6	;RP1=0, select bank0
  8550  01F2' 0832'              	movf	(3+(?___flmul)),w
  8551  01F3' 1683               	bsf	status, 5	;RP0=1, select bank1
  8552  01F4' 1303               	bcf	status, 6	;RP1=0, select bank1
  8553  01F5' 0080'              	movwf	(_measure_inductance$5207+3)^080h
  8554  01F6' 1283               	bcf	status, 5	;RP0=0, select bank0
  8555  01F7' 1303               	bcf	status, 6	;RP1=0, select bank0
  8556  01F8' 0831'              	movf	(2+(?___flmul)),w
  8557  01F9' 1683               	bsf	status, 5	;RP0=1, select bank1
  8558  01FA' 1303               	bcf	status, 6	;RP1=0, select bank1
  8559  01FB' 0080'              	movwf	(_measure_inductance$5207+2)^080h
  8560  01FC' 1283               	bcf	status, 5	;RP0=0, select bank0
  8561  01FD' 1303               	bcf	status, 6	;RP1=0, select bank0
  8562  01FE' 0830'              	movf	(1+(?___flmul)),w
  8563  01FF' 1683               	bsf	status, 5	;RP0=1, select bank1
  8564  0200' 1303               	bcf	status, 6	;RP1=0, select bank1
  8565  0201' 0080'              	movwf	(_measure_inductance$5207+1)^080h
  8566  0202' 1283               	bcf	status, 5	;RP0=0, select bank0
  8567  0203' 1303               	bcf	status, 6	;RP1=0, select bank0
  8568  0204' 082F'              	movf	(0+(?___flmul)),w
  8569  0205' 1683               	bsf	status, 5	;RP0=1, select bank1
  8570  0206' 1303               	bcf	status, 6	;RP1=0, select bank1
  8571  0207' 0080'              	movwf	(_measure_inductance$5207)^080h
  8572                           
  8573                           	
  8574  0208'                    l9853:	
  8575                           ;LC-meter.c: 486: numerator = ((F1 * F1) - (F3 * F3)) * ((F1 * F1) - (F2 - F2)) * (100 *
                                  100);
  8576  0208' 3046               	movlw	0x46
  8577  0209' 1283               	bcf	status, 5	;RP0=0, select bank0
  8578  020A' 1303               	bcf	status, 6	;RP1=0, select bank0
  8579  020B' 00B2'              	movwf	(?___flmul+3)
  8580  020C' 301C               	movlw	0x1c
  8581  020D' 00B1'              	movwf	(?___flmul+2)
  8582  020E' 3040               	movlw	0x40
  8583  020F' 00B0'              	movwf	(?___flmul+1)
  8584  0210' 3000               	movlw	0x0
  8585  0211' 00AF'              	movwf	(?___flmul)
  8586                           
  8587  0212' 1683               	bsf	status, 5	;RP0=1, select bank1
  8588  0213' 1303               	bcf	status, 6	;RP1=0, select bank1
  8589  0214' 0800'              	movf	(_measure_inductance$5207+3)^080h,w
  8590  0215' 1283               	bcf	status, 5	;RP0=0, select bank0
  8591  0216' 1303               	bcf	status, 6	;RP1=0, select bank0
  8592  0217' 00B6'              	movwf	3+(?___flmul)+04h
  8593  0218' 1683               	bsf	status, 5	;RP0=1, select bank1
  8594  0219' 1303               	bcf	status, 6	;RP1=0, select bank1
  8595  021A' 0800'              	movf	(_measure_inductance$5207+2)^080h,w
  8596  021B' 1283               	bcf	status, 5	;RP0=0, select bank0
  8597  021C' 1303               	bcf	status, 6	;RP1=0, select bank0
  8598  021D' 00B5'              	movwf	2+(?___flmul)+04h
  8599  021E' 1683               	bsf	status, 5	;RP0=1, select bank1
  8600  021F' 1303               	bcf	status, 6	;RP1=0, select bank1
  8601  0220' 0800'              	movf	(_measure_inductance$5207+1)^080h,w
  8602  0221' 1283               	bcf	status, 5	;RP0=0, select bank0
  8603  0222' 1303               	bcf	status, 6	;RP1=0, select bank0
  8604  0223' 00B4'              	movwf	1+(?___flmul)+04h
  8605  0224' 1683               	bsf	status, 5	;RP0=1, select bank1
  8606  0225' 1303               	bcf	status, 6	;RP1=0, select bank1
  8607  0226' 0800'              	movf	(_measure_inductance$5207)^080h,w
  8608  0227' 1283               	bcf	status, 5	;RP0=0, select bank0
  8609  0228' 1303               	bcf	status, 6	;RP1=0, select bank0
  8610  0229' 00B3'              	movwf	0+(?___flmul)+04h
  8611                           
  8612  022A' 120A' 118A' 2000'  	fcall	___flmul
              120A' 118A'        
  8613  022F' 1283               	bcf	status, 5	;RP0=0, select bank0
  8614  0230' 1303               	bcf	status, 6	;RP1=0, select bank0
  8615  0231' 0832'              	movf	(3+(?___flmul)),w
  8616  0232' 1683               	bsf	status, 5	;RP0=1, select bank1
  8617  0233' 1303               	bcf	status, 6	;RP1=0, select bank1
  8618  0234' 0080'              	movwf	(measure_inductance@numerator+3)^080h
  8619  0235' 1283               	bcf	status, 5	;RP0=0, select bank0
  8620  0236' 1303               	bcf	status, 6	;RP1=0, select bank0
  8621  0237' 0831'              	movf	(2+(?___flmul)),w
  8622  0238' 1683               	bsf	status, 5	;RP0=1, select bank1
  8623  0239' 1303               	bcf	status, 6	;RP1=0, select bank1
  8624  023A' 0080'              	movwf	(measure_inductance@numerator+2)^080h
  8625  023B' 1283               	bcf	status, 5	;RP0=0, select bank0
  8626  023C' 1303               	bcf	status, 6	;RP1=0, select bank0
  8627  023D' 0830'              	movf	(1+(?___flmul)),w
  8628  023E' 1683               	bsf	status, 5	;RP0=1, select bank1
  8629  023F' 1303               	bcf	status, 6	;RP1=0, select bank1
  8630  0240' 0080'              	movwf	(measure_inductance@numerator+1)^080h
  8631  0241' 1283               	bcf	status, 5	;RP0=0, select bank0
  8632  0242' 1303               	bcf	status, 6	;RP1=0, select bank0
  8633  0243' 082F'              	movf	(0+(?___flmul)),w
  8634  0244' 1683               	bsf	status, 5	;RP0=1, select bank1
  8635  0245' 1303               	bcf	status, 6	;RP1=0, select bank1
  8636  0246' 0080'              	movwf	(measure_inductance@numerator)^080h
  8637                           
  8638                           	line	488
  8639                           	
  8640  0247'                    l9855:	
  8641                           ;LC-meter.c: 488: denominator = 4 * 3.14159265358979323846l * 3.14159265358979323846l * 
                                 F1 * F1 * F2 * F2 * F3 * F3 * CCal;
  8642  0247' 1683               	bsf	status, 5	;RP0=1, select bank3
  8643  0248' 1703               	bsf	status, 6	;RP1=1, select bank3
  8644  0249' 0800'              	movf	(_F1+3)^0180h,w
  8645  024A' 1283               	bcf	status, 5	;RP0=0, select bank0
  8646  024B' 1303               	bcf	status, 6	;RP1=0, select bank0
  8647  024C' 00B2'              	movwf	(?___flmul+3)
  8648  024D' 1683               	bsf	status, 5	;RP0=1, select bank3
  8649  024E' 1703               	bsf	status, 6	;RP1=1, select bank3
  8650  024F' 0800'              	movf	(_F1+2)^0180h,w
  8651  0250' 1283               	bcf	status, 5	;RP0=0, select bank0
  8652  0251' 1303               	bcf	status, 6	;RP1=0, select bank0
  8653  0252' 00B1'              	movwf	(?___flmul+2)
  8654  0253' 1683               	bsf	status, 5	;RP0=1, select bank3
  8655  0254' 1703               	bsf	status, 6	;RP1=1, select bank3
  8656  0255' 0800'              	movf	(_F1+1)^0180h,w
  8657  0256' 1283               	bcf	status, 5	;RP0=0, select bank0
  8658  0257' 1303               	bcf	status, 6	;RP1=0, select bank0
  8659  0258' 00B0'              	movwf	(?___flmul+1)
  8660  0259' 1683               	bsf	status, 5	;RP0=1, select bank3
  8661  025A' 1703               	bsf	status, 6	;RP1=1, select bank3
  8662  025B' 0800'              	movf	(_F1)^0180h,w
  8663  025C' 1283               	bcf	status, 5	;RP0=0, select bank0
  8664  025D' 1303               	bcf	status, 6	;RP1=0, select bank0
  8665  025E' 00AF'              	movwf	(?___flmul)
  8666                           
  8667  025F' 1683               	bsf	status, 5	;RP0=1, select bank3
  8668  0260' 1703               	bsf	status, 6	;RP1=1, select bank3
  8669  0261' 0800'              	movf	(_F1+3)^0180h,w
  8670  0262' 1283               	bcf	status, 5	;RP0=0, select bank0
  8671  0263' 1303               	bcf	status, 6	;RP1=0, select bank0
  8672  0264' 00B6'              	movwf	3+(?___flmul)+04h
  8673  0265' 1683               	bsf	status, 5	;RP0=1, select bank3
  8674  0266' 1703               	bsf	status, 6	;RP1=1, select bank3
  8675  0267' 0800'              	movf	(_F1+2)^0180h,w
  8676  0268' 1283               	bcf	status, 5	;RP0=0, select bank0
  8677  0269' 1303               	bcf	status, 6	;RP1=0, select bank0
  8678  026A' 00B5'              	movwf	2+(?___flmul)+04h
  8679  026B' 1683               	bsf	status, 5	;RP0=1, select bank3
  8680  026C' 1703               	bsf	status, 6	;RP1=1, select bank3
  8681  026D' 0800'              	movf	(_F1+1)^0180h,w
  8682  026E' 1283               	bcf	status, 5	;RP0=0, select bank0
  8683  026F' 1303               	bcf	status, 6	;RP1=0, select bank0
  8684  0270' 00B4'              	movwf	1+(?___flmul)+04h
  8685  0271' 1683               	bsf	status, 5	;RP0=1, select bank3
  8686  0272' 1703               	bsf	status, 6	;RP1=1, select bank3
  8687  0273' 0800'              	movf	(_F1)^0180h,w
  8688  0274' 1283               	bcf	status, 5	;RP0=0, select bank0
  8689  0275' 1303               	bcf	status, 6	;RP1=0, select bank0
  8690  0276' 00B3'              	movwf	0+(?___flmul)+04h
  8691                           
  8692  0277' 120A' 118A' 2000'  	fcall	___flmul
              120A' 118A'        
  8693  027C' 1283               	bcf	status, 5	;RP0=0, select bank0
  8694  027D' 1303               	bcf	status, 6	;RP1=0, select bank0
  8695  027E' 0832'              	movf	(3+(?___flmul)),w
  8696  027F' 1683               	bsf	status, 5	;RP0=1, select bank1
  8697  0280' 1303               	bcf	status, 6	;RP1=0, select bank1
  8698  0281' 0080'              	movwf	(_measure_inductance$5206+3)^080h
  8699  0282' 1283               	bcf	status, 5	;RP0=0, select bank0
  8700  0283' 1303               	bcf	status, 6	;RP1=0, select bank0
  8701  0284' 0831'              	movf	(2+(?___flmul)),w
  8702  0285' 1683               	bsf	status, 5	;RP0=1, select bank1
  8703  0286' 1303               	bcf	status, 6	;RP1=0, select bank1
  8704  0287' 0080'              	movwf	(_measure_inductance$5206+2)^080h
  8705  0288' 1283               	bcf	status, 5	;RP0=0, select bank0
  8706  0289' 1303               	bcf	status, 6	;RP1=0, select bank0
  8707  028A' 0830'              	movf	(1+(?___flmul)),w
  8708  028B' 1683               	bsf	status, 5	;RP0=1, select bank1
  8709  028C' 1303               	bcf	status, 6	;RP1=0, select bank1
  8710  028D' 0080'              	movwf	(_measure_inductance$5206+1)^080h
  8711  028E' 1283               	bcf	status, 5	;RP0=0, select bank0
  8712  028F' 1303               	bcf	status, 6	;RP1=0, select bank0
  8713  0290' 082F'              	movf	(0+(?___flmul)),w
  8714  0291' 1683               	bsf	status, 5	;RP0=1, select bank1
  8715  0292' 1303               	bcf	status, 6	;RP1=0, select bank1
  8716  0293' 0080'              	movwf	(_measure_inductance$5206)^080h
  8717                           
  8718                           	
  8719  0294'                    l9857:	
  8720                           ;LC-meter.c: 488: denominator = 4 * 3.14159265358979323846l * 3.14159265358979323846l * 
                                 F1 * F1 * F2 * F2 * F3 * F3 * CCal;
  8721  0294' 1683               	bsf	status, 5	;RP0=1, select bank3
  8722  0295' 1703               	bsf	status, 6	;RP1=1, select bank3
  8723  0296' 0800'              	movf	(_F2+3)^0180h,w
  8724  0297' 1283               	bcf	status, 5	;RP0=0, select bank0
  8725  0298' 1303               	bcf	status, 6	;RP1=0, select bank0
  8726  0299' 00B2'              	movwf	(?___flmul+3)
  8727  029A' 1683               	bsf	status, 5	;RP0=1, select bank3
  8728  029B' 1703               	bsf	status, 6	;RP1=1, select bank3
  8729  029C' 0800'              	movf	(_F2+2)^0180h,w
  8730  029D' 1283               	bcf	status, 5	;RP0=0, select bank0
  8731  029E' 1303               	bcf	status, 6	;RP1=0, select bank0
  8732  029F' 00B1'              	movwf	(?___flmul+2)
  8733  02A0' 1683               	bsf	status, 5	;RP0=1, select bank3
  8734  02A1' 1703               	bsf	status, 6	;RP1=1, select bank3
  8735  02A2' 0800'              	movf	(_F2+1)^0180h,w
  8736  02A3' 1283               	bcf	status, 5	;RP0=0, select bank0
  8737  02A4' 1303               	bcf	status, 6	;RP1=0, select bank0
  8738  02A5' 00B0'              	movwf	(?___flmul+1)
  8739  02A6' 1683               	bsf	status, 5	;RP0=1, select bank3
  8740  02A7' 1703               	bsf	status, 6	;RP1=1, select bank3
  8741  02A8' 0800'              	movf	(_F2)^0180h,w
  8742  02A9' 1283               	bcf	status, 5	;RP0=0, select bank0
  8743  02AA' 1303               	bcf	status, 6	;RP1=0, select bank0
  8744  02AB' 00AF'              	movwf	(?___flmul)
  8745                           
  8746  02AC' 1683               	bsf	status, 5	;RP0=1, select bank1
  8747  02AD' 1303               	bcf	status, 6	;RP1=0, select bank1
  8748  02AE' 0800'              	movf	(_measure_inductance$5206+3)^080h,w
  8749  02AF' 1283               	bcf	status, 5	;RP0=0, select bank0
  8750  02B0' 1303               	bcf	status, 6	;RP1=0, select bank0
  8751  02B1' 00B6'              	movwf	3+(?___flmul)+04h
  8752  02B2' 1683               	bsf	status, 5	;RP0=1, select bank1
  8753  02B3' 1303               	bcf	status, 6	;RP1=0, select bank1
  8754  02B4' 0800'              	movf	(_measure_inductance$5206+2)^080h,w
  8755  02B5' 1283               	bcf	status, 5	;RP0=0, select bank0
  8756  02B6' 1303               	bcf	status, 6	;RP1=0, select bank0
  8757  02B7' 00B5'              	movwf	2+(?___flmul)+04h
  8758  02B8' 1683               	bsf	status, 5	;RP0=1, select bank1
  8759  02B9' 1303               	bcf	status, 6	;RP1=0, select bank1
  8760  02BA' 0800'              	movf	(_measure_inductance$5206+1)^080h,w
  8761  02BB' 1283               	bcf	status, 5	;RP0=0, select bank0
  8762  02BC' 1303               	bcf	status, 6	;RP1=0, select bank0
  8763  02BD' 00B4'              	movwf	1+(?___flmul)+04h
  8764  02BE' 1683               	bsf	status, 5	;RP0=1, select bank1
  8765  02BF' 1303               	bcf	status, 6	;RP1=0, select bank1
  8766  02C0' 0800'              	movf	(_measure_inductance$5206)^080h,w
  8767  02C1' 1283               	bcf	status, 5	;RP0=0, select bank0
  8768  02C2' 1303               	bcf	status, 6	;RP1=0, select bank0
  8769  02C3' 00B3'              	movwf	0+(?___flmul)+04h
  8770                           
  8771  02C4' 120A' 118A' 2000'  	fcall	___flmul
              120A' 118A'        
  8772  02C9' 1283               	bcf	status, 5	;RP0=0, select bank0
  8773  02CA' 1303               	bcf	status, 6	;RP1=0, select bank0
  8774  02CB' 0832'              	movf	(3+(?___flmul)),w
  8775  02CC' 1683               	bsf	status, 5	;RP0=1, select bank1
  8776  02CD' 1303               	bcf	status, 6	;RP1=0, select bank1
  8777  02CE' 0080'              	movwf	(_measure_inductance$5207+3)^080h
  8778  02CF' 1283               	bcf	status, 5	;RP0=0, select bank0
  8779  02D0' 1303               	bcf	status, 6	;RP1=0, select bank0
  8780  02D1' 0831'              	movf	(2+(?___flmul)),w
  8781  02D2' 1683               	bsf	status, 5	;RP0=1, select bank1
  8782  02D3' 1303               	bcf	status, 6	;RP1=0, select bank1
  8783  02D4' 0080'              	movwf	(_measure_inductance$5207+2)^080h
  8784  02D5' 1283               	bcf	status, 5	;RP0=0, select bank0
  8785  02D6' 1303               	bcf	status, 6	;RP1=0, select bank0
  8786  02D7' 0830'              	movf	(1+(?___flmul)),w
  8787  02D8' 1683               	bsf	status, 5	;RP0=1, select bank1
  8788  02D9' 1303               	bcf	status, 6	;RP1=0, select bank1
  8789  02DA' 0080'              	movwf	(_measure_inductance$5207+1)^080h
  8790  02DB' 1283               	bcf	status, 5	;RP0=0, select bank0
  8791  02DC' 1303               	bcf	status, 6	;RP1=0, select bank0
  8792  02DD' 082F'              	movf	(0+(?___flmul)),w
  8793  02DE' 1683               	bsf	status, 5	;RP0=1, select bank1
  8794  02DF' 1303               	bcf	status, 6	;RP1=0, select bank1
  8795  02E0' 0080'              	movwf	(_measure_inductance$5207)^080h
  8796                           
  8797                           	
  8798  02E1'                    l9859:	
  8799                           ;LC-meter.c: 488: denominator = 4 * 3.14159265358979323846l * 3.14159265358979323846l * 
                                 F1 * F1 * F2 * F2 * F3 * F3 * CCal;
  8800  02E1' 1683               	bsf	status, 5	;RP0=1, select bank3
  8801  02E2' 1703               	bsf	status, 6	;RP1=1, select bank3
  8802  02E3' 0800'              	movf	(_F2+3)^0180h,w
  8803  02E4' 1283               	bcf	status, 5	;RP0=0, select bank0
  8804  02E5' 1303               	bcf	status, 6	;RP1=0, select bank0
  8805  02E6' 00B2'              	movwf	(?___flmul+3)
  8806  02E7' 1683               	bsf	status, 5	;RP0=1, select bank3
  8807  02E8' 1703               	bsf	status, 6	;RP1=1, select bank3
  8808  02E9' 0800'              	movf	(_F2+2)^0180h,w
  8809  02EA' 1283               	bcf	status, 5	;RP0=0, select bank0
  8810  02EB' 1303               	bcf	status, 6	;RP1=0, select bank0
  8811  02EC' 00B1'              	movwf	(?___flmul+2)
  8812  02ED' 1683               	bsf	status, 5	;RP0=1, select bank3
  8813  02EE' 1703               	bsf	status, 6	;RP1=1, select bank3
  8814  02EF' 0800'              	movf	(_F2+1)^0180h,w
  8815  02F0' 1283               	bcf	status, 5	;RP0=0, select bank0
  8816  02F1' 1303               	bcf	status, 6	;RP1=0, select bank0
  8817  02F2' 00B0'              	movwf	(?___flmul+1)
  8818  02F3' 1683               	bsf	status, 5	;RP0=1, select bank3
  8819  02F4' 1703               	bsf	status, 6	;RP1=1, select bank3
  8820  02F5' 0800'              	movf	(_F2)^0180h,w
  8821  02F6' 1283               	bcf	status, 5	;RP0=0, select bank0
  8822  02F7' 1303               	bcf	status, 6	;RP1=0, select bank0
  8823  02F8' 00AF'              	movwf	(?___flmul)
  8824                           
  8825  02F9' 1683               	bsf	status, 5	;RP0=1, select bank1
  8826  02FA' 1303               	bcf	status, 6	;RP1=0, select bank1
  8827  02FB' 0800'              	movf	(_measure_inductance$5207+3)^080h,w
  8828  02FC' 1283               	bcf	status, 5	;RP0=0, select bank0
  8829  02FD' 1303               	bcf	status, 6	;RP1=0, select bank0
  8830  02FE' 00B6'              	movwf	3+(?___flmul)+04h
  8831  02FF' 1683               	bsf	status, 5	;RP0=1, select bank1
  8832  0300' 1303               	bcf	status, 6	;RP1=0, select bank1
  8833  0301' 0800'              	movf	(_measure_inductance$5207+2)^080h,w
  8834  0302' 1283               	bcf	status, 5	;RP0=0, select bank0
  8835  0303' 1303               	bcf	status, 6	;RP1=0, select bank0
  8836  0304' 00B5'              	movwf	2+(?___flmul)+04h
  8837  0305' 1683               	bsf	status, 5	;RP0=1, select bank1
  8838  0306' 1303               	bcf	status, 6	;RP1=0, select bank1
  8839  0307' 0800'              	movf	(_measure_inductance$5207+1)^080h,w
  8840  0308' 1283               	bcf	status, 5	;RP0=0, select bank0
  8841  0309' 1303               	bcf	status, 6	;RP1=0, select bank0
  8842  030A' 00B4'              	movwf	1+(?___flmul)+04h
  8843  030B' 1683               	bsf	status, 5	;RP0=1, select bank1
  8844  030C' 1303               	bcf	status, 6	;RP1=0, select bank1
  8845  030D' 0800'              	movf	(_measure_inductance$5207)^080h,w
  8846  030E' 1283               	bcf	status, 5	;RP0=0, select bank0
  8847  030F' 1303               	bcf	status, 6	;RP1=0, select bank0
  8848  0310' 00B3'              	movwf	0+(?___flmul)+04h
  8849                           
  8850  0311' 120A' 118A' 2000'  	fcall	___flmul
              120A' 118A'        
  8851  0316' 1283               	bcf	status, 5	;RP0=0, select bank0
  8852  0317' 1303               	bcf	status, 6	;RP1=0, select bank0
  8853  0318' 0832'              	movf	(3+(?___flmul)),w
  8854  0319' 1683               	bsf	status, 5	;RP0=1, select bank1
  8855  031A' 1303               	bcf	status, 6	;RP1=0, select bank1
  8856  031B' 0080'              	movwf	(_measure_inductance$5208+3)^080h
  8857  031C' 1283               	bcf	status, 5	;RP0=0, select bank0
  8858  031D' 1303               	bcf	status, 6	;RP1=0, select bank0
  8859  031E' 0831'              	movf	(2+(?___flmul)),w
  8860  031F' 1683               	bsf	status, 5	;RP0=1, select bank1
  8861  0320' 1303               	bcf	status, 6	;RP1=0, select bank1
  8862  0321' 0080'              	movwf	(_measure_inductance$5208+2)^080h
  8863  0322' 1283               	bcf	status, 5	;RP0=0, select bank0
  8864  0323' 1303               	bcf	status, 6	;RP1=0, select bank0
  8865  0324' 0830'              	movf	(1+(?___flmul)),w
  8866  0325' 1683               	bsf	status, 5	;RP0=1, select bank1
  8867  0326' 1303               	bcf	status, 6	;RP1=0, select bank1
  8868  0327' 0080'              	movwf	(_measure_inductance$5208+1)^080h
  8869  0328' 1283               	bcf	status, 5	;RP0=0, select bank0
  8870  0329' 1303               	bcf	status, 6	;RP1=0, select bank0
  8871  032A' 082F'              	movf	(0+(?___flmul)),w
  8872  032B' 1683               	bsf	status, 5	;RP0=1, select bank1
  8873  032C' 1303               	bcf	status, 6	;RP1=0, select bank1
  8874  032D' 0080'              	movwf	(_measure_inductance$5208)^080h
  8875                           
  8876                           	
  8877  032E'                    l9861:	
  8878                           ;LC-meter.c: 488: denominator = 4 * 3.14159265358979323846l * 3.14159265358979323846l * 
                                 F1 * F1 * F2 * F2 * F3 * F3 * CCal;
  8879  032E' 1683               	bsf	status, 5	;RP0=1, select bank3
  8880  032F' 1703               	bsf	status, 6	;RP1=1, select bank3
  8881  0330' 0800'              	movf	(_F3+3)^0180h,w
  8882  0331' 1283               	bcf	status, 5	;RP0=0, select bank0
  8883  0332' 1303               	bcf	status, 6	;RP1=0, select bank0
  8884  0333' 00B2'              	movwf	(?___flmul+3)
  8885  0334' 1683               	bsf	status, 5	;RP0=1, select bank3
  8886  0335' 1703               	bsf	status, 6	;RP1=1, select bank3
  8887  0336' 0800'              	movf	(_F3+2)^0180h,w
  8888  0337' 1283               	bcf	status, 5	;RP0=0, select bank0
  8889  0338' 1303               	bcf	status, 6	;RP1=0, select bank0
  8890  0339' 00B1'              	movwf	(?___flmul+2)
  8891  033A' 1683               	bsf	status, 5	;RP0=1, select bank3
  8892  033B' 1703               	bsf	status, 6	;RP1=1, select bank3
  8893  033C' 0800'              	movf	(_F3+1)^0180h,w
  8894  033D' 1283               	bcf	status, 5	;RP0=0, select bank0
  8895  033E' 1303               	bcf	status, 6	;RP1=0, select bank0
  8896  033F' 00B0'              	movwf	(?___flmul+1)
  8897  0340' 1683               	bsf	status, 5	;RP0=1, select bank3
  8898  0341' 1703               	bsf	status, 6	;RP1=1, select bank3
  8899  0342' 0800'              	movf	(_F3)^0180h,w
  8900  0343' 1283               	bcf	status, 5	;RP0=0, select bank0
  8901  0344' 1303               	bcf	status, 6	;RP1=0, select bank0
  8902  0345' 00AF'              	movwf	(?___flmul)
  8903                           
  8904  0346' 1683               	bsf	status, 5	;RP0=1, select bank1
  8905  0347' 1303               	bcf	status, 6	;RP1=0, select bank1
  8906  0348' 0800'              	movf	(_measure_inductance$5208+3)^080h,w
  8907  0349' 1283               	bcf	status, 5	;RP0=0, select bank0
  8908  034A' 1303               	bcf	status, 6	;RP1=0, select bank0
  8909  034B' 00B6'              	movwf	3+(?___flmul)+04h
  8910  034C' 1683               	bsf	status, 5	;RP0=1, select bank1
  8911  034D' 1303               	bcf	status, 6	;RP1=0, select bank1
  8912  034E' 0800'              	movf	(_measure_inductance$5208+2)^080h,w
  8913  034F' 1283               	bcf	status, 5	;RP0=0, select bank0
  8914  0350' 1303               	bcf	status, 6	;RP1=0, select bank0
  8915  0351' 00B5'              	movwf	2+(?___flmul)+04h
  8916  0352' 1683               	bsf	status, 5	;RP0=1, select bank1
  8917  0353' 1303               	bcf	status, 6	;RP1=0, select bank1
  8918  0354' 0800'              	movf	(_measure_inductance$5208+1)^080h,w
  8919  0355' 1283               	bcf	status, 5	;RP0=0, select bank0
  8920  0356' 1303               	bcf	status, 6	;RP1=0, select bank0
  8921  0357' 00B4'              	movwf	1+(?___flmul)+04h
  8922  0358' 1683               	bsf	status, 5	;RP0=1, select bank1
  8923  0359' 1303               	bcf	status, 6	;RP1=0, select bank1
  8924  035A' 0800'              	movf	(_measure_inductance$5208)^080h,w
  8925  035B' 1283               	bcf	status, 5	;RP0=0, select bank0
  8926  035C' 1303               	bcf	status, 6	;RP1=0, select bank0
  8927  035D' 00B3'              	movwf	0+(?___flmul)+04h
  8928                           
  8929  035E' 120A' 118A' 2000'  	fcall	___flmul
              120A' 118A'        
  8930  0363' 1283               	bcf	status, 5	;RP0=0, select bank0
  8931  0364' 1303               	bcf	status, 6	;RP1=0, select bank0
  8932  0365' 0832'              	movf	(3+(?___flmul)),w
  8933  0366' 1683               	bsf	status, 5	;RP0=1, select bank1
  8934  0367' 1303               	bcf	status, 6	;RP1=0, select bank1
  8935  0368' 0080'              	movwf	(_measure_inductance$5209+3)^080h
  8936  0369' 1283               	bcf	status, 5	;RP0=0, select bank0
  8937  036A' 1303               	bcf	status, 6	;RP1=0, select bank0
  8938  036B' 0831'              	movf	(2+(?___flmul)),w
  8939  036C' 1683               	bsf	status, 5	;RP0=1, select bank1
  8940  036D' 1303               	bcf	status, 6	;RP1=0, select bank1
  8941  036E' 0080'              	movwf	(_measure_inductance$5209+2)^080h
  8942  036F' 1283               	bcf	status, 5	;RP0=0, select bank0
  8943  0370' 1303               	bcf	status, 6	;RP1=0, select bank0
  8944  0371' 0830'              	movf	(1+(?___flmul)),w
  8945  0372' 1683               	bsf	status, 5	;RP0=1, select bank1
  8946  0373' 1303               	bcf	status, 6	;RP1=0, select bank1
  8947  0374' 0080'              	movwf	(_measure_inductance$5209+1)^080h
  8948  0375' 1283               	bcf	status, 5	;RP0=0, select bank0
  8949  0376' 1303               	bcf	status, 6	;RP1=0, select bank0
  8950  0377' 082F'              	movf	(0+(?___flmul)),w
  8951  0378' 1683               	bsf	status, 5	;RP0=1, select bank1
  8952  0379' 1303               	bcf	status, 6	;RP1=0, select bank1
  8953  037A' 0080'              	movwf	(_measure_inductance$5209)^080h
  8954                           
  8955                           	
  8956  037B'                    l9863:	
  8957                           ;LC-meter.c: 488: denominator = 4 * 3.14159265358979323846l * 3.14159265358979323846l * 
                                 F1 * F1 * F2 * F2 * F3 * F3 * CCal;
  8958  037B' 1683               	bsf	status, 5	;RP0=1, select bank3
  8959  037C' 1703               	bsf	status, 6	;RP1=1, select bank3
  8960  037D' 0800'              	movf	(_F3+3)^0180h,w
  8961  037E' 1283               	bcf	status, 5	;RP0=0, select bank0
  8962  037F' 1303               	bcf	status, 6	;RP1=0, select bank0
  8963  0380' 00B2'              	movwf	(?___flmul+3)
  8964  0381' 1683               	bsf	status, 5	;RP0=1, select bank3
  8965  0382' 1703               	bsf	status, 6	;RP1=1, select bank3
  8966  0383' 0800'              	movf	(_F3+2)^0180h,w
  8967  0384' 1283               	bcf	status, 5	;RP0=0, select bank0
  8968  0385' 1303               	bcf	status, 6	;RP1=0, select bank0
  8969  0386' 00B1'              	movwf	(?___flmul+2)
  8970  0387' 1683               	bsf	status, 5	;RP0=1, select bank3
  8971  0388' 1703               	bsf	status, 6	;RP1=1, select bank3
  8972  0389' 0800'              	movf	(_F3+1)^0180h,w
  8973  038A' 1283               	bcf	status, 5	;RP0=0, select bank0
  8974  038B' 1303               	bcf	status, 6	;RP1=0, select bank0
  8975  038C' 00B0'              	movwf	(?___flmul+1)
  8976  038D' 1683               	bsf	status, 5	;RP0=1, select bank3
  8977  038E' 1703               	bsf	status, 6	;RP1=1, select bank3
  8978  038F' 0800'              	movf	(_F3)^0180h,w
  8979  0390' 1283               	bcf	status, 5	;RP0=0, select bank0
  8980  0391' 1303               	bcf	status, 6	;RP1=0, select bank0
  8981  0392' 00AF'              	movwf	(?___flmul)
  8982                           
  8983  0393' 1683               	bsf	status, 5	;RP0=1, select bank1
  8984  0394' 1303               	bcf	status, 6	;RP1=0, select bank1
  8985  0395' 0800'              	movf	(_measure_inductance$5209+3)^080h,w
  8986  0396' 1283               	bcf	status, 5	;RP0=0, select bank0
  8987  0397' 1303               	bcf	status, 6	;RP1=0, select bank0
  8988  0398' 00B6'              	movwf	3+(?___flmul)+04h
  8989  0399' 1683               	bsf	status, 5	;RP0=1, select bank1
  8990  039A' 1303               	bcf	status, 6	;RP1=0, select bank1
  8991  039B' 0800'              	movf	(_measure_inductance$5209+2)^080h,w
  8992  039C' 1283               	bcf	status, 5	;RP0=0, select bank0
  8993  039D' 1303               	bcf	status, 6	;RP1=0, select bank0
  8994  039E' 00B5'              	movwf	2+(?___flmul)+04h
  8995  039F' 1683               	bsf	status, 5	;RP0=1, select bank1
  8996  03A0' 1303               	bcf	status, 6	;RP1=0, select bank1
  8997  03A1' 0800'              	movf	(_measure_inductance$5209+1)^080h,w
  8998  03A2' 1283               	bcf	status, 5	;RP0=0, select bank0
  8999  03A3' 1303               	bcf	status, 6	;RP1=0, select bank0
  9000  03A4' 00B4'              	movwf	1+(?___flmul)+04h
  9001  03A5' 1683               	bsf	status, 5	;RP0=1, select bank1
  9002  03A6' 1303               	bcf	status, 6	;RP1=0, select bank1
  9003  03A7' 0800'              	movf	(_measure_inductance$5209)^080h,w
  9004  03A8' 1283               	bcf	status, 5	;RP0=0, select bank0
  9005  03A9' 1303               	bcf	status, 6	;RP1=0, select bank0
  9006  03AA' 00B3'              	movwf	0+(?___flmul)+04h
  9007                           
  9008  03AB' 120A' 118A' 2000'  	fcall	___flmul
              120A' 118A'        
  9009  03B0' 1283               	bcf	status, 5	;RP0=0, select bank0
  9010  03B1' 1303               	bcf	status, 6	;RP1=0, select bank0
  9011  03B2' 0832'              	movf	(3+(?___flmul)),w
  9012  03B3' 1683               	bsf	status, 5	;RP0=1, select bank1
  9013  03B4' 1303               	bcf	status, 6	;RP1=0, select bank1
  9014  03B5' 0080'              	movwf	(_measure_inductance$5210+3)^080h
  9015  03B6' 1283               	bcf	status, 5	;RP0=0, select bank0
  9016  03B7' 1303               	bcf	status, 6	;RP1=0, select bank0
  9017  03B8' 0831'              	movf	(2+(?___flmul)),w
  9018  03B9' 1683               	bsf	status, 5	;RP0=1, select bank1
  9019  03BA' 1303               	bcf	status, 6	;RP1=0, select bank1
  9020  03BB' 0080'              	movwf	(_measure_inductance$5210+2)^080h
  9021  03BC' 1283               	bcf	status, 5	;RP0=0, select bank0
  9022  03BD' 1303               	bcf	status, 6	;RP1=0, select bank0
  9023  03BE' 0830'              	movf	(1+(?___flmul)),w
  9024  03BF' 1683               	bsf	status, 5	;RP0=1, select bank1
  9025  03C0' 1303               	bcf	status, 6	;RP1=0, select bank1
  9026  03C1' 0080'              	movwf	(_measure_inductance$5210+1)^080h
  9027  03C2' 1283               	bcf	status, 5	;RP0=0, select bank0
  9028  03C3' 1303               	bcf	status, 6	;RP1=0, select bank0
  9029  03C4' 082F'              	movf	(0+(?___flmul)),w
  9030  03C5' 1683               	bsf	status, 5	;RP0=1, select bank1
  9031  03C6' 1303               	bcf	status, 6	;RP1=0, select bank1
  9032  03C7' 0080'              	movwf	(_measure_inductance$5210)^080h
  9033                           
  9034                           	
  9035  03C8'                    l9865:	
  9036                           ;LC-meter.c: 488: denominator = 4 * 3.14159265358979323846l * 3.14159265358979323846l * 
                                 F1 * F1 * F2 * F2 * F3 * F3 * CCal;
  9037  03C8' 1683               	bsf	status, 5	;RP0=1, select bank3
  9038  03C9' 1703               	bsf	status, 6	;RP1=1, select bank3
  9039  03CA' 0800'              	movf	(_CCal+3)^0180h,w
  9040  03CB' 1283               	bcf	status, 5	;RP0=0, select bank0
  9041  03CC' 1303               	bcf	status, 6	;RP1=0, select bank0
  9042  03CD' 00B2'              	movwf	(?___flmul+3)
  9043  03CE' 1683               	bsf	status, 5	;RP0=1, select bank3
  9044  03CF' 1703               	bsf	status, 6	;RP1=1, select bank3
  9045  03D0' 0800'              	movf	(_CCal+2)^0180h,w
  9046  03D1' 1283               	bcf	status, 5	;RP0=0, select bank0
  9047  03D2' 1303               	bcf	status, 6	;RP1=0, select bank0
  9048  03D3' 00B1'              	movwf	(?___flmul+2)
  9049  03D4' 1683               	bsf	status, 5	;RP0=1, select bank3
  9050  03D5' 1703               	bsf	status, 6	;RP1=1, select bank3
  9051  03D6' 0800'              	movf	(_CCal+1)^0180h,w
  9052  03D7' 1283               	bcf	status, 5	;RP0=0, select bank0
  9053  03D8' 1303               	bcf	status, 6	;RP1=0, select bank0
  9054  03D9' 00B0'              	movwf	(?___flmul+1)
  9055  03DA' 1683               	bsf	status, 5	;RP0=1, select bank3
  9056  03DB' 1703               	bsf	status, 6	;RP1=1, select bank3
  9057  03DC' 0800'              	movf	(_CCal)^0180h,w
  9058  03DD' 1283               	bcf	status, 5	;RP0=0, select bank0
  9059  03DE' 1303               	bcf	status, 6	;RP1=0, select bank0
  9060  03DF' 00AF'              	movwf	(?___flmul)
  9061                           
  9062  03E0' 1683               	bsf	status, 5	;RP0=1, select bank1
  9063  03E1' 1303               	bcf	status, 6	;RP1=0, select bank1
  9064  03E2' 0800'              	movf	(_measure_inductance$5210+3)^080h,w
  9065  03E3' 1283               	bcf	status, 5	;RP0=0, select bank0
  9066  03E4' 1303               	bcf	status, 6	;RP1=0, select bank0
  9067  03E5' 00B6'              	movwf	3+(?___flmul)+04h
  9068  03E6' 1683               	bsf	status, 5	;RP0=1, select bank1
  9069  03E7' 1303               	bcf	status, 6	;RP1=0, select bank1
  9070  03E8' 0800'              	movf	(_measure_inductance$5210+2)^080h,w
  9071  03E9' 1283               	bcf	status, 5	;RP0=0, select bank0
  9072  03EA' 1303               	bcf	status, 6	;RP1=0, select bank0
  9073  03EB' 00B5'              	movwf	2+(?___flmul)+04h
  9074  03EC' 1683               	bsf	status, 5	;RP0=1, select bank1
  9075  03ED' 1303               	bcf	status, 6	;RP1=0, select bank1
  9076  03EE' 0800'              	movf	(_measure_inductance$5210+1)^080h,w
  9077  03EF' 1283               	bcf	status, 5	;RP0=0, select bank0
  9078  03F0' 1303               	bcf	status, 6	;RP1=0, select bank0
  9079  03F1' 00B4'              	movwf	1+(?___flmul)+04h
  9080  03F2' 1683               	bsf	status, 5	;RP0=1, select bank1
  9081  03F3' 1303               	bcf	status, 6	;RP1=0, select bank1
  9082  03F4' 0800'              	movf	(_measure_inductance$5210)^080h,w
  9083  03F5' 1283               	bcf	status, 5	;RP0=0, select bank0
  9084  03F6' 1303               	bcf	status, 6	;RP1=0, select bank0
  9085  03F7' 00B3'              	movwf	0+(?___flmul)+04h
  9086                           
  9087  03F8' 120A' 118A' 2000'  	fcall	___flmul
              120A' 118A'        
  9088  03FD' 1283               	bcf	status, 5	;RP0=0, select bank0
  9089  03FE' 1303               	bcf	status, 6	;RP1=0, select bank0
  9090  03FF' 0832'              	movf	(3+(?___flmul)),w
  9091  0400' 1683               	bsf	status, 5	;RP0=1, select bank1
  9092  0401' 1303               	bcf	status, 6	;RP1=0, select bank1
  9093  0402' 0080'              	movwf	(_measure_inductance$5211+3)^080h
  9094  0403' 1283               	bcf	status, 5	;RP0=0, select bank0
  9095  0404' 1303               	bcf	status, 6	;RP1=0, select bank0
  9096  0405' 0831'              	movf	(2+(?___flmul)),w
  9097  0406' 1683               	bsf	status, 5	;RP0=1, select bank1
  9098  0407' 1303               	bcf	status, 6	;RP1=0, select bank1
  9099  0408' 0080'              	movwf	(_measure_inductance$5211+2)^080h
  9100  0409' 1283               	bcf	status, 5	;RP0=0, select bank0
  9101  040A' 1303               	bcf	status, 6	;RP1=0, select bank0
  9102  040B' 0830'              	movf	(1+(?___flmul)),w
  9103  040C' 1683               	bsf	status, 5	;RP0=1, select bank1
  9104  040D' 1303               	bcf	status, 6	;RP1=0, select bank1
  9105  040E' 0080'              	movwf	(_measure_inductance$5211+1)^080h
  9106  040F' 1283               	bcf	status, 5	;RP0=0, select bank0
  9107  0410' 1303               	bcf	status, 6	;RP1=0, select bank0
  9108  0411' 082F'              	movf	(0+(?___flmul)),w
  9109  0412' 1683               	bsf	status, 5	;RP0=1, select bank1
  9110  0413' 1303               	bcf	status, 6	;RP1=0, select bank1
  9111  0414' 0080'              	movwf	(_measure_inductance$5211)^080h
  9112                           
  9113                           	
  9114  0415'                    l9867:	
  9115                           ;LC-meter.c: 488: denominator = 4 * 3.14159265358979323846l * 3.14159265358979323846l * 
                                 F1 * F1 * F2 * F2 * F3 * F3 * CCal;
  9116  0415' 3042               	movlw	0x42
  9117  0416' 1283               	bcf	status, 5	;RP0=0, select bank0
  9118  0417' 1303               	bcf	status, 6	;RP1=0, select bank0
  9119  0418' 00B2'              	movwf	(?___flmul+3)
  9120  0419' 301D               	movlw	0x1d
  9121  041A' 00B1'              	movwf	(?___flmul+2)
  9122  041B' 30E9               	movlw	0xe9
  9123  041C' 00B0'              	movwf	(?___flmul+1)
  9124  041D' 30E6               	movlw	0xe6
  9125  041E' 00AF'              	movwf	(?___flmul)
  9126                           
  9127  041F' 1683               	bsf	status, 5	;RP0=1, select bank1
  9128  0420' 1303               	bcf	status, 6	;RP1=0, select bank1
  9129  0421' 0800'              	movf	(_measure_inductance$5211+3)^080h,w
  9130  0422' 1283               	bcf	status, 5	;RP0=0, select bank0
  9131  0423' 1303               	bcf	status, 6	;RP1=0, select bank0
  9132  0424' 00B6'              	movwf	3+(?___flmul)+04h
  9133  0425' 1683               	bsf	status, 5	;RP0=1, select bank1
  9134  0426' 1303               	bcf	status, 6	;RP1=0, select bank1
  9135  0427' 0800'              	movf	(_measure_inductance$5211+2)^080h,w
  9136  0428' 1283               	bcf	status, 5	;RP0=0, select bank0
  9137  0429' 1303               	bcf	status, 6	;RP1=0, select bank0
  9138  042A' 00B5'              	movwf	2+(?___flmul)+04h
  9139  042B' 1683               	bsf	status, 5	;RP0=1, select bank1
  9140  042C' 1303               	bcf	status, 6	;RP1=0, select bank1
  9141  042D' 0800'              	movf	(_measure_inductance$5211+1)^080h,w
  9142  042E' 1283               	bcf	status, 5	;RP0=0, select bank0
  9143  042F' 1303               	bcf	status, 6	;RP1=0, select bank0
  9144  0430' 00B4'              	movwf	1+(?___flmul)+04h
  9145  0431' 1683               	bsf	status, 5	;RP0=1, select bank1
  9146  0432' 1303               	bcf	status, 6	;RP1=0, select bank1
  9147  0433' 0800'              	movf	(_measure_inductance$5211)^080h,w
  9148  0434' 1283               	bcf	status, 5	;RP0=0, select bank0
  9149  0435' 1303               	bcf	status, 6	;RP1=0, select bank0
  9150  0436' 00B3'              	movwf	0+(?___flmul)+04h
  9151                           
  9152  0437' 120A' 118A' 2000'  	fcall	___flmul
              120A' 118A'        
  9153  043C' 1283               	bcf	status, 5	;RP0=0, select bank0
  9154  043D' 1303               	bcf	status, 6	;RP1=0, select bank0
  9155  043E' 0832'              	movf	(3+(?___flmul)),w
  9156  043F' 1683               	bsf	status, 5	;RP0=1, select bank1
  9157  0440' 1303               	bcf	status, 6	;RP1=0, select bank1
  9158  0441' 0080'              	movwf	(measure_inductance@denominator+3)^080h
  9159  0442' 1283               	bcf	status, 5	;RP0=0, select bank0
  9160  0443' 1303               	bcf	status, 6	;RP1=0, select bank0
  9161  0444' 0831'              	movf	(2+(?___flmul)),w
  9162  0445' 1683               	bsf	status, 5	;RP0=1, select bank1
  9163  0446' 1303               	bcf	status, 6	;RP1=0, select bank1
  9164  0447' 0080'              	movwf	(measure_inductance@denominator+2)^080h
  9165  0448' 1283               	bcf	status, 5	;RP0=0, select bank0
  9166  0449' 1303               	bcf	status, 6	;RP1=0, select bank0
  9167  044A' 0830'              	movf	(1+(?___flmul)),w
  9168  044B' 1683               	bsf	status, 5	;RP0=1, select bank1
  9169  044C' 1303               	bcf	status, 6	;RP1=0, select bank1
  9170  044D' 0080'              	movwf	(measure_inductance@denominator+1)^080h
  9171  044E' 1283               	bcf	status, 5	;RP0=0, select bank0
  9172  044F' 1303               	bcf	status, 6	;RP1=0, select bank0
  9173  0450' 082F'              	movf	(0+(?___flmul)),w
  9174  0451' 1683               	bsf	status, 5	;RP0=1, select bank1
  9175  0452' 1303               	bcf	status, 6	;RP1=0, select bank1
  9176  0453' 0080'              	movwf	(measure_inductance@denominator)^080h
  9177                           
  9178                           	line	490
  9179                           	
  9180  0454'                    l9869:	
  9181                           ;LC-meter.c: 490: Lin = (numerator / denominator) * 1e+15l;
  9182  0454' 3058               	movlw	0x58
  9183  0455' 1283               	bcf	status, 5	;RP0=0, select bank0
  9184  0456' 1303               	bcf	status, 6	;RP1=0, select bank0
  9185  0457' 00B2'              	movwf	(?___flmul+3)
  9186  0458' 3063               	movlw	0x63
  9187  0459' 00B1'              	movwf	(?___flmul+2)
  9188  045A' 305F               	movlw	0x5f
  9189  045B' 00B0'              	movwf	(?___flmul+1)
  9190  045C' 30A9               	movlw	0xa9
  9191  045D' 00AF'              	movwf	(?___flmul)
  9192                           
  9193  045E' 1683               	bsf	status, 5	;RP0=1, select bank1
  9194  045F' 1303               	bcf	status, 6	;RP1=0, select bank1
  9195  0460' 0800'              	movf	(measure_inductance@denominator+3)^080h,w
  9196  0461' 1283               	bcf	status, 5	;RP0=0, select bank0
  9197  0462' 1303               	bcf	status, 6	;RP1=0, select bank0
  9198  0463' 009E'              	movwf	(?___fldiv+3)
  9199  0464' 1683               	bsf	status, 5	;RP0=1, select bank1
  9200  0465' 1303               	bcf	status, 6	;RP1=0, select bank1
  9201  0466' 0800'              	movf	(measure_inductance@denominator+2)^080h,w
  9202  0467' 1283               	bcf	status, 5	;RP0=0, select bank0
  9203  0468' 1303               	bcf	status, 6	;RP1=0, select bank0
  9204  0469' 009D'              	movwf	(?___fldiv+2)
  9205  046A' 1683               	bsf	status, 5	;RP0=1, select bank1
  9206  046B' 1303               	bcf	status, 6	;RP1=0, select bank1
  9207  046C' 0800'              	movf	(measure_inductance@denominator+1)^080h,w
  9208  046D' 1283               	bcf	status, 5	;RP0=0, select bank0
  9209  046E' 1303               	bcf	status, 6	;RP1=0, select bank0
  9210  046F' 009C'              	movwf	(?___fldiv+1)
  9211  0470' 1683               	bsf	status, 5	;RP0=1, select bank1
  9212  0471' 1303               	bcf	status, 6	;RP1=0, select bank1
  9213  0472' 0800'              	movf	(measure_inductance@denominator)^080h,w
  9214  0473' 1283               	bcf	status, 5	;RP0=0, select bank0
  9215  0474' 1303               	bcf	status, 6	;RP1=0, select bank0
  9216  0475' 009B'              	movwf	(?___fldiv)
  9217                           
  9218  0476' 1683               	bsf	status, 5	;RP0=1, select bank1
  9219  0477' 1303               	bcf	status, 6	;RP1=0, select bank1
  9220  0478' 0800'              	movf	(measure_inductance@numerator+3)^080h,w
  9221  0479' 1283               	bcf	status, 5	;RP0=0, select bank0
  9222  047A' 1303               	bcf	status, 6	;RP1=0, select bank0
  9223  047B' 00A2'              	movwf	3+(?___fldiv)+04h
  9224  047C' 1683               	bsf	status, 5	;RP0=1, select bank1
  9225  047D' 1303               	bcf	status, 6	;RP1=0, select bank1
  9226  047E' 0800'              	movf	(measure_inductance@numerator+2)^080h,w
  9227  047F' 1283               	bcf	status, 5	;RP0=0, select bank0
  9228  0480' 1303               	bcf	status, 6	;RP1=0, select bank0
  9229  0481' 00A1'              	movwf	2+(?___fldiv)+04h
  9230  0482' 1683               	bsf	status, 5	;RP0=1, select bank1
  9231  0483' 1303               	bcf	status, 6	;RP1=0, select bank1
  9232  0484' 0800'              	movf	(measure_inductance@numerator+1)^080h,w
  9233  0485' 1283               	bcf	status, 5	;RP0=0, select bank0
  9234  0486' 1303               	bcf	status, 6	;RP1=0, select bank0
  9235  0487' 00A0'              	movwf	1+(?___fldiv)+04h
  9236  0488' 1683               	bsf	status, 5	;RP0=1, select bank1
  9237  0489' 1303               	bcf	status, 6	;RP1=0, select bank1
  9238  048A' 0800'              	movf	(measure_inductance@numerator)^080h,w
  9239  048B' 1283               	bcf	status, 5	;RP0=0, select bank0
  9240  048C' 1303               	bcf	status, 6	;RP1=0, select bank0
  9241  048D' 009F'              	movwf	0+(?___fldiv)+04h
  9242                           
  9243  048E' 120A' 118A' 2000'  	fcall	___fldiv
              120A' 118A'        
  9244  0493' 1283               	bcf	status, 5	;RP0=0, select bank0
  9245  0494' 1303               	bcf	status, 6	;RP1=0, select bank0
  9246  0495' 081E'              	movf	(3+(?___fldiv)),w
  9247  0496' 00B6'              	movwf	3+(?___flmul)+04h
  9248  0497' 081D'              	movf	(2+(?___fldiv)),w
  9249  0498' 00B5'              	movwf	2+(?___flmul)+04h
  9250  0499' 081C'              	movf	(1+(?___fldiv)),w
  9251  049A' 00B4'              	movwf	1+(?___flmul)+04h
  9252  049B' 081B'              	movf	(0+(?___fldiv)),w
  9253  049C' 00B3'              	movwf	0+(?___flmul)+04h
  9254                           
  9255  049D' 120A' 118A' 2000'  	fcall	___flmul
              120A' 118A'        
  9256  04A2' 1283               	bcf	status, 5	;RP0=0, select bank0
  9257  04A3' 1303               	bcf	status, 6	;RP1=0, select bank0
  9258  04A4' 0832'              	movf	(3+(?___flmul)),w
  9259  04A5' 1683               	bsf	status, 5	;RP0=1, select bank1
  9260  04A6' 1303               	bcf	status, 6	;RP1=0, select bank1
  9261  04A7' 0080'              	movwf	(measure_inductance@Lin+3)^080h
  9262  04A8' 1283               	bcf	status, 5	;RP0=0, select bank0
  9263  04A9' 1303               	bcf	status, 6	;RP1=0, select bank0
  9264  04AA' 0831'              	movf	(2+(?___flmul)),w
  9265  04AB' 1683               	bsf	status, 5	;RP0=1, select bank1
  9266  04AC' 1303               	bcf	status, 6	;RP1=0, select bank1
  9267  04AD' 0080'              	movwf	(measure_inductance@Lin+2)^080h
  9268  04AE' 1283               	bcf	status, 5	;RP0=0, select bank0
  9269  04AF' 1303               	bcf	status, 6	;RP1=0, select bank0
  9270  04B0' 0830'              	movf	(1+(?___flmul)),w
  9271  04B1' 1683               	bsf	status, 5	;RP0=1, select bank1
  9272  04B2' 1303               	bcf	status, 6	;RP1=0, select bank1
  9273  04B3' 0080'              	movwf	(measure_inductance@Lin+1)^080h
  9274  04B4' 1283               	bcf	status, 5	;RP0=0, select bank0
  9275  04B5' 1303               	bcf	status, 6	;RP1=0, select bank0
  9276  04B6' 082F'              	movf	(0+(?___flmul)),w
  9277  04B7' 1683               	bsf	status, 5	;RP0=1, select bank1
  9278  04B8' 1303               	bcf	status, 6	;RP1=0, select bank1
  9279  04B9' 0080'              	movwf	(measure_inductance@Lin)^080h
  9280                           
  9281                           	line	492
  9282                           	
  9283  04BA'                    l9871:	
  9284                           ;LC-meter.c: 492: if(Lin > 999) {
  9285  04BA' 3044               	movlw	0x44
  9286  04BB' 1283               	bcf	status, 5	;RP0=0, select bank0
  9287  04BC' 1303               	bcf	status, 6	;RP1=0, select bank0
  9288  04BD' 0083'              	movwf	(?___flge+3)
  9289  04BE' 3079               	movlw	0x79
  9290  04BF' 0082'              	movwf	(?___flge+2)
  9291  04C0' 30C0               	movlw	0xc0
  9292  04C1' 0081'              	movwf	(?___flge+1)
  9293  04C2' 3000               	movlw	0x0
  9294  04C3' 0080'              	movwf	(?___flge)
  9295                           
  9296  04C4' 1683               	bsf	status, 5	;RP0=1, select bank1
  9297  04C5' 1303               	bcf	status, 6	;RP1=0, select bank1
  9298  04C6' 0800'              	movf	(measure_inductance@Lin+3)^080h,w
  9299  04C7' 1283               	bcf	status, 5	;RP0=0, select bank0
  9300  04C8' 1303               	bcf	status, 6	;RP1=0, select bank0
  9301  04C9' 0087'              	movwf	3+(?___flge)+04h
  9302  04CA' 1683               	bsf	status, 5	;RP0=1, select bank1
  9303  04CB' 1303               	bcf	status, 6	;RP1=0, select bank1
  9304  04CC' 0800'              	movf	(measure_inductance@Lin+2)^080h,w
  9305  04CD' 1283               	bcf	status, 5	;RP0=0, select bank0
  9306  04CE' 1303               	bcf	status, 6	;RP1=0, select bank0
  9307  04CF' 0086'              	movwf	2+(?___flge)+04h
  9308  04D0' 1683               	bsf	status, 5	;RP0=1, select bank1
  9309  04D1' 1303               	bcf	status, 6	;RP1=0, select bank1
  9310  04D2' 0800'              	movf	(measure_inductance@Lin+1)^080h,w
  9311  04D3' 1283               	bcf	status, 5	;RP0=0, select bank0
  9312  04D4' 1303               	bcf	status, 6	;RP1=0, select bank0
  9313  04D5' 0085'              	movwf	1+(?___flge)+04h
  9314  04D6' 1683               	bsf	status, 5	;RP0=1, select bank1
  9315  04D7' 1303               	bcf	status, 6	;RP1=0, select bank1
  9316  04D8' 0800'              	movf	(measure_inductance@Lin)^080h,w
  9317  04D9' 1283               	bcf	status, 5	;RP0=0, select bank0
  9318  04DA' 1303               	bcf	status, 6	;RP1=0, select bank0
  9319  04DB' 0084'              	movwf	0+(?___flge)+04h
  9320                           
  9321  04DC' 120A' 118A' 2000'  	fcall	___flge
              120A' 118A'        
  9322  04E1' 1803               	btfsc	status,0
  9323  04E2' 2800'              	goto	u6371
  9324  04E3' 2800'              	goto	u6370
  9325  04E4'                    u6371:
  9326  04E4' 2800'              	goto	l9889
  9327  04E5'                    u6370:
  9328                           	line	493
  9329                           	
  9330  04E5'                    l9873:	
  9331                           ;LC-meter.c: 493: if(Lin > (999e+03l)) {
  9332  04E5' 3049               	movlw	0x49
  9333  04E6' 1283               	bcf	status, 5	;RP0=0, select bank0
  9334  04E7' 1303               	bcf	status, 6	;RP1=0, select bank0
  9335  04E8' 0083'              	movwf	(?___flge+3)
  9336  04E9' 3073               	movlw	0x73
  9337  04EA' 0082'              	movwf	(?___flge+2)
  9338  04EB' 30E5               	movlw	0xe5
  9339  04EC' 0081'              	movwf	(?___flge+1)
  9340  04ED' 3080               	movlw	0x80
  9341  04EE' 0080'              	movwf	(?___flge)
  9342                           
  9343  04EF' 1683               	bsf	status, 5	;RP0=1, select bank1
  9344  04F0' 1303               	bcf	status, 6	;RP1=0, select bank1
  9345  04F1' 0800'              	movf	(measure_inductance@Lin+3)^080h,w
  9346  04F2' 1283               	bcf	status, 5	;RP0=0, select bank0
  9347  04F3' 1303               	bcf	status, 6	;RP1=0, select bank0
  9348  04F4' 0087'              	movwf	3+(?___flge)+04h
  9349  04F5' 1683               	bsf	status, 5	;RP0=1, select bank1
  9350  04F6' 1303               	bcf	status, 6	;RP1=0, select bank1
  9351  04F7' 0800'              	movf	(measure_inductance@Lin+2)^080h,w
  9352  04F8' 1283               	bcf	status, 5	;RP0=0, select bank0
  9353  04F9' 1303               	bcf	status, 6	;RP1=0, select bank0
  9354  04FA' 0086'              	movwf	2+(?___flge)+04h
  9355  04FB' 1683               	bsf	status, 5	;RP0=1, select bank1
  9356  04FC' 1303               	bcf	status, 6	;RP1=0, select bank1
  9357  04FD' 0800'              	movf	(measure_inductance@Lin+1)^080h,w
  9358  04FE' 1283               	bcf	status, 5	;RP0=0, select bank0
  9359  04FF' 1303               	bcf	status, 6	;RP1=0, select bank0
  9360  0500' 0085'              	movwf	1+(?___flge)+04h
  9361  0501' 1683               	bsf	status, 5	;RP0=1, select bank1
  9362  0502' 1303               	bcf	status, 6	;RP1=0, select bank1
  9363  0503' 0800'              	movf	(measure_inductance@Lin)^080h,w
  9364  0504' 1283               	bcf	status, 5	;RP0=0, select bank0
  9365  0505' 1303               	bcf	status, 6	;RP1=0, select bank0
  9366  0506' 0084'              	movwf	0+(?___flge)+04h
  9367                           
  9368  0507' 120A' 118A' 2000'  	fcall	___flge
              120A' 118A'        
  9369  050C' 1803               	btfsc	status,0
  9370  050D' 2800'              	goto	u6381
  9371  050E' 2800'              	goto	u6380
  9372  050F'                    u6381:
  9373  050F' 2800'              	goto	l9885
  9374  0510'                    u6380:
  9375                           	line	494
  9376                           	
  9377  0510'                    l9875:	
  9378                           ;LC-meter.c: 494: if(Lin > (999e+06l)) {
  9379  0510' 304E               	movlw	0x4e
  9380  0511' 1283               	bcf	status, 5	;RP0=0, select bank0
  9381  0512' 1303               	bcf	status, 6	;RP1=0, select bank0
  9382  0513' 0083'              	movwf	(?___flge+3)
  9383  0514' 306E               	movlw	0x6e
  9384  0515' 0082'              	movwf	(?___flge+2)
  9385  0516' 302E               	movlw	0x2e
  9386  0517' 0081'              	movwf	(?___flge+1)
  9387  0518' 301F               	movlw	0x1f
  9388  0519' 0080'              	movwf	(?___flge)
  9389                           
  9390  051A' 1683               	bsf	status, 5	;RP0=1, select bank1
  9391  051B' 1303               	bcf	status, 6	;RP1=0, select bank1
  9392  051C' 0800'              	movf	(measure_inductance@Lin+3)^080h,w
  9393  051D' 1283               	bcf	status, 5	;RP0=0, select bank0
  9394  051E' 1303               	bcf	status, 6	;RP1=0, select bank0
  9395  051F' 0087'              	movwf	3+(?___flge)+04h
  9396  0520' 1683               	bsf	status, 5	;RP0=1, select bank1
  9397  0521' 1303               	bcf	status, 6	;RP1=0, select bank1
  9398  0522' 0800'              	movf	(measure_inductance@Lin+2)^080h,w
  9399  0523' 1283               	bcf	status, 5	;RP0=0, select bank0
  9400  0524' 1303               	bcf	status, 6	;RP1=0, select bank0
  9401  0525' 0086'              	movwf	2+(?___flge)+04h
  9402  0526' 1683               	bsf	status, 5	;RP0=1, select bank1
  9403  0527' 1303               	bcf	status, 6	;RP1=0, select bank1
  9404  0528' 0800'              	movf	(measure_inductance@Lin+1)^080h,w
  9405  0529' 1283               	bcf	status, 5	;RP0=0, select bank0
  9406  052A' 1303               	bcf	status, 6	;RP1=0, select bank0
  9407  052B' 0085'              	movwf	1+(?___flge)+04h
  9408  052C' 1683               	bsf	status, 5	;RP0=1, select bank1
  9409  052D' 1303               	bcf	status, 6	;RP1=0, select bank1
  9410  052E' 0800'              	movf	(measure_inductance@Lin)^080h,w
  9411  052F' 1283               	bcf	status, 5	;RP0=0, select bank0
  9412  0530' 1303               	bcf	status, 6	;RP1=0, select bank0
  9413  0531' 0084'              	movwf	0+(?___flge)+04h
  9414                           
  9415  0532' 120A' 118A' 2000'  	fcall	___flge
              120A' 118A'        
  9416  0537' 1803               	btfsc	status,0
  9417  0538' 2800'              	goto	u6391
  9418  0539' 2800'              	goto	u6390
  9419  053A'                    u6391:
  9420  053A' 2800'              	goto	l9881
  9421  053B'                    u6390:
  9422                           	line	495
  9423                           	
  9424  053B'                    l9877:	
  9425                           ;LC-meter.c: 495: Lin = Lin / (1e+09l);
  9426  053B' 304E               	movlw	0x4e
  9427  053C' 1283               	bcf	status, 5	;RP0=0, select bank0
  9428  053D' 1303               	bcf	status, 6	;RP1=0, select bank0
  9429  053E' 009E'              	movwf	(?___fldiv+3)
  9430  053F' 306E               	movlw	0x6e
  9431  0540' 009D'              	movwf	(?___fldiv+2)
  9432  0541' 306B               	movlw	0x6b
  9433  0542' 009C'              	movwf	(?___fldiv+1)
  9434  0543' 3028               	movlw	0x28
  9435  0544' 009B'              	movwf	(?___fldiv)
  9436                           
  9437  0545' 1683               	bsf	status, 5	;RP0=1, select bank1
  9438  0546' 1303               	bcf	status, 6	;RP1=0, select bank1
  9439  0547' 0800'              	movf	(measure_inductance@Lin+3)^080h,w
  9440  0548' 1283               	bcf	status, 5	;RP0=0, select bank0
  9441  0549' 1303               	bcf	status, 6	;RP1=0, select bank0
  9442  054A' 00A2'              	movwf	3+(?___fldiv)+04h
  9443  054B' 1683               	bsf	status, 5	;RP0=1, select bank1
  9444  054C' 1303               	bcf	status, 6	;RP1=0, select bank1
  9445  054D' 0800'              	movf	(measure_inductance@Lin+2)^080h,w
  9446  054E' 1283               	bcf	status, 5	;RP0=0, select bank0
  9447  054F' 1303               	bcf	status, 6	;RP1=0, select bank0
  9448  0550' 00A1'              	movwf	2+(?___fldiv)+04h
  9449  0551' 1683               	bsf	status, 5	;RP0=1, select bank1
  9450  0552' 1303               	bcf	status, 6	;RP1=0, select bank1
  9451  0553' 0800'              	movf	(measure_inductance@Lin+1)^080h,w
  9452  0554' 1283               	bcf	status, 5	;RP0=0, select bank0
  9453  0555' 1303               	bcf	status, 6	;RP1=0, select bank0
  9454  0556' 00A0'              	movwf	1+(?___fldiv)+04h
  9455  0557' 1683               	bsf	status, 5	;RP0=1, select bank1
  9456  0558' 1303               	bcf	status, 6	;RP1=0, select bank1
  9457  0559' 0800'              	movf	(measure_inductance@Lin)^080h,w
  9458  055A' 1283               	bcf	status, 5	;RP0=0, select bank0
  9459  055B' 1303               	bcf	status, 6	;RP1=0, select bank0
  9460  055C' 009F'              	movwf	0+(?___fldiv)+04h
  9461                           
  9462  055D' 120A' 118A' 2000'  	fcall	___fldiv
              120A' 118A'        
  9463  0562' 1283               	bcf	status, 5	;RP0=0, select bank0
  9464  0563' 1303               	bcf	status, 6	;RP1=0, select bank0
  9465  0564' 081E'              	movf	(3+(?___fldiv)),w
  9466  0565' 1683               	bsf	status, 5	;RP0=1, select bank1
  9467  0566' 1303               	bcf	status, 6	;RP1=0, select bank1
  9468  0567' 0080'              	movwf	(measure_inductance@Lin+3)^080h
  9469  0568' 1283               	bcf	status, 5	;RP0=0, select bank0
  9470  0569' 1303               	bcf	status, 6	;RP1=0, select bank0
  9471  056A' 081D'              	movf	(2+(?___fldiv)),w
  9472  056B' 1683               	bsf	status, 5	;RP0=1, select bank1
  9473  056C' 1303               	bcf	status, 6	;RP1=0, select bank1
  9474  056D' 0080'              	movwf	(measure_inductance@Lin+2)^080h
  9475  056E' 1283               	bcf	status, 5	;RP0=0, select bank0
  9476  056F' 1303               	bcf	status, 6	;RP1=0, select bank0
  9477  0570' 081C'              	movf	(1+(?___fldiv)),w
  9478  0571' 1683               	bsf	status, 5	;RP0=1, select bank1
  9479  0572' 1303               	bcf	status, 6	;RP1=0, select bank1
  9480  0573' 0080'              	movwf	(measure_inductance@Lin+1)^080h
  9481  0574' 1283               	bcf	status, 5	;RP0=0, select bank0
  9482  0575' 1303               	bcf	status, 6	;RP1=0, select bank0
  9483  0576' 081B'              	movf	(0+(?___fldiv)),w
  9484  0577' 1683               	bsf	status, 5	;RP0=1, select bank1
  9485  0578' 1303               	bcf	status, 6	;RP1=0, select bank1
  9486  0579' 0080'              	movwf	(measure_inductance@Lin)^080h
  9487                           
  9488                           	line	496
  9489                           	
  9490  057A'                    l9879:	
  9491                           ;LC-meter.c: 496: unit = 0;
  9492  057A' 0180'              	clrf	(measure_inductance@unit)^080h
  9493                           	line	497
  9494                           ;LC-meter.c: 497: } else {
  9495  057B' 2800'              	goto	l9891
  9496                           	
  9497  057C'                    l3311:	
  9498                           	line	498
  9499                           	
  9500  057C'                    l9881:	
  9501                           ;LC-meter.c: 498: Lin = Lin / (1e+06l);
  9502  057C' 3049               	movlw	0x49
  9503  057D' 1283               	bcf	status, 5	;RP0=0, select bank0
  9504  057E' 1303               	bcf	status, 6	;RP1=0, select bank0
  9505  057F' 009E'              	movwf	(?___fldiv+3)
  9506  0580' 3074               	movlw	0x74
  9507  0581' 009D'              	movwf	(?___fldiv+2)
  9508  0582' 3024               	movlw	0x24
  9509  0583' 009C'              	movwf	(?___fldiv+1)
  9510  0584' 3000               	movlw	0x0
  9511  0585' 009B'              	movwf	(?___fldiv)
  9512                           
  9513  0586' 1683               	bsf	status, 5	;RP0=1, select bank1
  9514  0587' 1303               	bcf	status, 6	;RP1=0, select bank1
  9515  0588' 0800'              	movf	(measure_inductance@Lin+3)^080h,w
  9516  0589' 1283               	bcf	status, 5	;RP0=0, select bank0
  9517  058A' 1303               	bcf	status, 6	;RP1=0, select bank0
  9518  058B' 00A2'              	movwf	3+(?___fldiv)+04h
  9519  058C' 1683               	bsf	status, 5	;RP0=1, select bank1
  9520  058D' 1303               	bcf	status, 6	;RP1=0, select bank1
  9521  058E' 0800'              	movf	(measure_inductance@Lin+2)^080h,w
  9522  058F' 1283               	bcf	status, 5	;RP0=0, select bank0
  9523  0590' 1303               	bcf	status, 6	;RP1=0, select bank0
  9524  0591' 00A1'              	movwf	2+(?___fldiv)+04h
  9525  0592' 1683               	bsf	status, 5	;RP0=1, select bank1
  9526  0593' 1303               	bcf	status, 6	;RP1=0, select bank1
  9527  0594' 0800'              	movf	(measure_inductance@Lin+1)^080h,w
  9528  0595' 1283               	bcf	status, 5	;RP0=0, select bank0
  9529  0596' 1303               	bcf	status, 6	;RP1=0, select bank0
  9530  0597' 00A0'              	movwf	1+(?___fldiv)+04h
  9531  0598' 1683               	bsf	status, 5	;RP0=1, select bank1
  9532  0599' 1303               	bcf	status, 6	;RP1=0, select bank1
  9533  059A' 0800'              	movf	(measure_inductance@Lin)^080h,w
  9534  059B' 1283               	bcf	status, 5	;RP0=0, select bank0
  9535  059C' 1303               	bcf	status, 6	;RP1=0, select bank0
  9536  059D' 009F'              	movwf	0+(?___fldiv)+04h
  9537                           
  9538  059E' 120A' 118A' 2000'  	fcall	___fldiv
              120A' 118A'        
  9539  05A3' 1283               	bcf	status, 5	;RP0=0, select bank0
  9540  05A4' 1303               	bcf	status, 6	;RP1=0, select bank0
  9541  05A5' 081E'              	movf	(3+(?___fldiv)),w
  9542  05A6' 1683               	bsf	status, 5	;RP0=1, select bank1
  9543  05A7' 1303               	bcf	status, 6	;RP1=0, select bank1
  9544  05A8' 0080'              	movwf	(measure_inductance@Lin+3)^080h
  9545  05A9' 1283               	bcf	status, 5	;RP0=0, select bank0
  9546  05AA' 1303               	bcf	status, 6	;RP1=0, select bank0
  9547  05AB' 081D'              	movf	(2+(?___fldiv)),w
  9548  05AC' 1683               	bsf	status, 5	;RP0=1, select bank1
  9549  05AD' 1303               	bcf	status, 6	;RP1=0, select bank1
  9550  05AE' 0080'              	movwf	(measure_inductance@Lin+2)^080h
  9551  05AF' 1283               	bcf	status, 5	;RP0=0, select bank0
  9552  05B0' 1303               	bcf	status, 6	;RP1=0, select bank0
  9553  05B1' 081C'              	movf	(1+(?___fldiv)),w
  9554  05B2' 1683               	bsf	status, 5	;RP0=1, select bank1
  9555  05B3' 1303               	bcf	status, 6	;RP1=0, select bank1
  9556  05B4' 0080'              	movwf	(measure_inductance@Lin+1)^080h
  9557  05B5' 1283               	bcf	status, 5	;RP0=0, select bank0
  9558  05B6' 1303               	bcf	status, 6	;RP1=0, select bank0
  9559  05B7' 081B'              	movf	(0+(?___fldiv)),w
  9560  05B8' 1683               	bsf	status, 5	;RP0=1, select bank1
  9561  05B9' 1303               	bcf	status, 6	;RP1=0, select bank1
  9562  05BA' 0080'              	movwf	(measure_inductance@Lin)^080h
  9563                           
  9564                           	line	499
  9565                           	
  9566  05BB'                    l9883:	
  9567                           ;LC-meter.c: 499: unit = 1;
  9568  05BB' 0180'              	clrf	(measure_inductance@unit)^080h
  9569  05BC' 1403               	bsf	status,0
  9570  05BD' 0D80'              	rlf	(measure_inductance@unit)^080h,f
  9571  05BE' 2800'              	goto	l9891
  9572                           	line	500
  9573                           	
  9574  05BF'                    l3312:	
  9575                           	line	501
  9576                           ;LC-meter.c: 500: }
  9577                           ;LC-meter.c: 501: } else {
  9578  05BF' 2800'              	goto	l9891
  9579                           	
  9580  05C0'                    l3310:	
  9581                           	line	502
  9582                           	
  9583  05C0'                    l9885:	
  9584                           ;LC-meter.c: 502: Lin = Lin / 1e+03l;
  9585  05C0' 3044               	movlw	0x44
  9586  05C1' 1283               	bcf	status, 5	;RP0=0, select bank0
  9587  05C2' 1303               	bcf	status, 6	;RP1=0, select bank0
  9588  05C3' 009E'              	movwf	(?___fldiv+3)
  9589  05C4' 307A               	movlw	0x7a
  9590  05C5' 009D'              	movwf	(?___fldiv+2)
  9591  05C6' 3000               	movlw	0x0
  9592  05C7' 009C'              	movwf	(?___fldiv+1)
  9593  05C8' 3000               	movlw	0x0
  9594  05C9' 009B'              	movwf	(?___fldiv)
  9595                           
  9596  05CA' 1683               	bsf	status, 5	;RP0=1, select bank1
  9597  05CB' 1303               	bcf	status, 6	;RP1=0, select bank1
  9598  05CC' 0800'              	movf	(measure_inductance@Lin+3)^080h,w
  9599  05CD' 1283               	bcf	status, 5	;RP0=0, select bank0
  9600  05CE' 1303               	bcf	status, 6	;RP1=0, select bank0
  9601  05CF' 00A2'              	movwf	3+(?___fldiv)+04h
  9602  05D0' 1683               	bsf	status, 5	;RP0=1, select bank1
  9603  05D1' 1303               	bcf	status, 6	;RP1=0, select bank1
  9604  05D2' 0800'              	movf	(measure_inductance@Lin+2)^080h,w
  9605  05D3' 1283               	bcf	status, 5	;RP0=0, select bank0
  9606  05D4' 1303               	bcf	status, 6	;RP1=0, select bank0
  9607  05D5' 00A1'              	movwf	2+(?___fldiv)+04h
  9608  05D6' 1683               	bsf	status, 5	;RP0=1, select bank1
  9609  05D7' 1303               	bcf	status, 6	;RP1=0, select bank1
  9610  05D8' 0800'              	movf	(measure_inductance@Lin+1)^080h,w
  9611  05D9' 1283               	bcf	status, 5	;RP0=0, select bank0
  9612  05DA' 1303               	bcf	status, 6	;RP1=0, select bank0
  9613  05DB' 00A0'              	movwf	1+(?___fldiv)+04h
  9614  05DC' 1683               	bsf	status, 5	;RP0=1, select bank1
  9615  05DD' 1303               	bcf	status, 6	;RP1=0, select bank1
  9616  05DE' 0800'              	movf	(measure_inductance@Lin)^080h,w
  9617  05DF' 1283               	bcf	status, 5	;RP0=0, select bank0
  9618  05E0' 1303               	bcf	status, 6	;RP1=0, select bank0
  9619  05E1' 009F'              	movwf	0+(?___fldiv)+04h
  9620                           
  9621  05E2' 120A' 118A' 2000'  	fcall	___fldiv
              120A' 118A'        
  9622  05E7' 1283               	bcf	status, 5	;RP0=0, select bank0
  9623  05E8' 1303               	bcf	status, 6	;RP1=0, select bank0
  9624  05E9' 081E'              	movf	(3+(?___fldiv)),w
  9625  05EA' 1683               	bsf	status, 5	;RP0=1, select bank1
  9626  05EB' 1303               	bcf	status, 6	;RP1=0, select bank1
  9627  05EC' 0080'              	movwf	(measure_inductance@Lin+3)^080h
  9628  05ED' 1283               	bcf	status, 5	;RP0=0, select bank0
  9629  05EE' 1303               	bcf	status, 6	;RP1=0, select bank0
  9630  05EF' 081D'              	movf	(2+(?___fldiv)),w
  9631  05F0' 1683               	bsf	status, 5	;RP0=1, select bank1
  9632  05F1' 1303               	bcf	status, 6	;RP1=0, select bank1
  9633  05F2' 0080'              	movwf	(measure_inductance@Lin+2)^080h
  9634  05F3' 1283               	bcf	status, 5	;RP0=0, select bank0
  9635  05F4' 1303               	bcf	status, 6	;RP1=0, select bank0
  9636  05F5' 081C'              	movf	(1+(?___fldiv)),w
  9637  05F6' 1683               	bsf	status, 5	;RP0=1, select bank1
  9638  05F7' 1303               	bcf	status, 6	;RP1=0, select bank1
  9639  05F8' 0080'              	movwf	(measure_inductance@Lin+1)^080h
  9640  05F9' 1283               	bcf	status, 5	;RP0=0, select bank0
  9641  05FA' 1303               	bcf	status, 6	;RP1=0, select bank0
  9642  05FB' 081B'              	movf	(0+(?___fldiv)),w
  9643  05FC' 1683               	bsf	status, 5	;RP0=1, select bank1
  9644  05FD' 1303               	bcf	status, 6	;RP1=0, select bank1
  9645  05FE' 0080'              	movwf	(measure_inductance@Lin)^080h
  9646                           
  9647                           	line	503
  9648                           	
  9649  05FF'                    l9887:	
  9650                           ;LC-meter.c: 503: unit = 2;
  9651  05FF' 3002               	movlw	(02h)
  9652  0600' 0080'              	movwf	(??_measure_inductance+0)^080h+0
  9653  0601' 0800'              	movf	(??_measure_inductance+0)^080h+0,w
  9654  0602' 0080'              	movwf	(measure_inductance@unit)^080h
  9655  0603' 2800'              	goto	l9891
  9656                           	line	504
  9657                           	
  9658  0604'                    l3313:	
  9659                           	line	505
  9660                           ;LC-meter.c: 504: }
  9661                           ;LC-meter.c: 505: } else
  9662  0604' 2800'              	goto	l9891
  9663                           	
  9664  0605'                    l3309:	
  9665                           	line	506
  9666                           	
  9667  0605'                    l9889:	
  9668                           ;LC-meter.c: 506: unit = 3;
  9669  0605' 3003               	movlw	(03h)
  9670  0606' 1683               	bsf	status, 5	;RP0=1, select bank1
  9671  0607' 1303               	bcf	status, 6	;RP1=0, select bank1
  9672  0608' 0080'              	movwf	(??_measure_inductance+0)^080h+0
  9673  0609' 0800'              	movf	(??_measure_inductance+0)^080h+0,w
  9674  060A' 0080'              	movwf	(measure_inductance@unit)^080h
  9675  060B' 2800'              	goto	l9891
  9676                           	
  9677  060C'                    l3314:	
  9678                           	line	508
  9679                           	
  9680  060C'                    l9891:	
  9681                           ;LC-meter.c: 508: Lin = Lin * 100;
  9682  060C' 3042               	movlw	0x42
  9683  060D' 1283               	bcf	status, 5	;RP0=0, select bank0
  9684  060E' 1303               	bcf	status, 6	;RP1=0, select bank0
  9685  060F' 00B2'              	movwf	(?___flmul+3)
  9686  0610' 30C8               	movlw	0xc8
  9687  0611' 00B1'              	movwf	(?___flmul+2)
  9688  0612' 3000               	movlw	0x0
  9689  0613' 00B0'              	movwf	(?___flmul+1)
  9690  0614' 3000               	movlw	0x0
  9691  0615' 00AF'              	movwf	(?___flmul)
  9692                           
  9693  0616' 1683               	bsf	status, 5	;RP0=1, select bank1
  9694  0617' 1303               	bcf	status, 6	;RP1=0, select bank1
  9695  0618' 0800'              	movf	(measure_inductance@Lin+3)^080h,w
  9696  0619' 1283               	bcf	status, 5	;RP0=0, select bank0
  9697  061A' 1303               	bcf	status, 6	;RP1=0, select bank0
  9698  061B' 00B6'              	movwf	3+(?___flmul)+04h
  9699  061C' 1683               	bsf	status, 5	;RP0=1, select bank1
  9700  061D' 1303               	bcf	status, 6	;RP1=0, select bank1
  9701  061E' 0800'              	movf	(measure_inductance@Lin+2)^080h,w
  9702  061F' 1283               	bcf	status, 5	;RP0=0, select bank0
  9703  0620' 1303               	bcf	status, 6	;RP1=0, select bank0
  9704  0621' 00B5'              	movwf	2+(?___flmul)+04h
  9705  0622' 1683               	bsf	status, 5	;RP0=1, select bank1
  9706  0623' 1303               	bcf	status, 6	;RP1=0, select bank1
  9707  0624' 0800'              	movf	(measure_inductance@Lin+1)^080h,w
  9708  0625' 1283               	bcf	status, 5	;RP0=0, select bank0
  9709  0626' 1303               	bcf	status, 6	;RP1=0, select bank0
  9710  0627' 00B4'              	movwf	1+(?___flmul)+04h
  9711  0628' 1683               	bsf	status, 5	;RP0=1, select bank1
  9712  0629' 1303               	bcf	status, 6	;RP1=0, select bank1
  9713  062A' 0800'              	movf	(measure_inductance@Lin)^080h,w
  9714  062B' 1283               	bcf	status, 5	;RP0=0, select bank0
  9715  062C' 1303               	bcf	status, 6	;RP1=0, select bank0
  9716  062D' 00B3'              	movwf	0+(?___flmul)+04h
  9717                           
  9718  062E' 120A' 118A' 2000'  	fcall	___flmul
              120A' 118A'        
  9719  0633' 1283               	bcf	status, 5	;RP0=0, select bank0
  9720  0634' 1303               	bcf	status, 6	;RP1=0, select bank0
  9721  0635' 0832'              	movf	(3+(?___flmul)),w
  9722  0636' 1683               	bsf	status, 5	;RP0=1, select bank1
  9723  0637' 1303               	bcf	status, 6	;RP1=0, select bank1
  9724  0638' 0080'              	movwf	(measure_inductance@Lin+3)^080h
  9725  0639' 1283               	bcf	status, 5	;RP0=0, select bank0
  9726  063A' 1303               	bcf	status, 6	;RP1=0, select bank0
  9727  063B' 0831'              	movf	(2+(?___flmul)),w
  9728  063C' 1683               	bsf	status, 5	;RP0=1, select bank1
  9729  063D' 1303               	bcf	status, 6	;RP1=0, select bank1
  9730  063E' 0080'              	movwf	(measure_inductance@Lin+2)^080h
  9731  063F' 1283               	bcf	status, 5	;RP0=0, select bank0
  9732  0640' 1303               	bcf	status, 6	;RP1=0, select bank0
  9733  0641' 0830'              	movf	(1+(?___flmul)),w
  9734  0642' 1683               	bsf	status, 5	;RP0=1, select bank1
  9735  0643' 1303               	bcf	status, 6	;RP1=0, select bank1
  9736  0644' 0080'              	movwf	(measure_inductance@Lin+1)^080h
  9737  0645' 1283               	bcf	status, 5	;RP0=0, select bank0
  9738  0646' 1303               	bcf	status, 6	;RP1=0, select bank0
  9739  0647' 082F'              	movf	(0+(?___flmul)),w
  9740  0648' 1683               	bsf	status, 5	;RP0=1, select bank1
  9741  0649' 1303               	bcf	status, 6	;RP1=0, select bank1
  9742  064A' 0080'              	movwf	(measure_inductance@Lin)^080h
  9743                           
  9744                           	line	509
  9745                           	
  9746  064B'                    l9893:	
  9747                           ;LC-meter.c: 509: var = (uint16_t)Lin;
  9748  064B' 0800'              	movf	(measure_inductance@Lin+3)^080h,w
  9749  064C' 1283               	bcf	status, 5	;RP0=0, select bank0
  9750  064D' 1303               	bcf	status, 6	;RP1=0, select bank0
  9751  064E' 0093'              	movwf	(?___fltol+3)
  9752  064F' 1683               	bsf	status, 5	;RP0=1, select bank1
  9753  0650' 1303               	bcf	status, 6	;RP1=0, select bank1
  9754  0651' 0800'              	movf	(measure_inductance@Lin+2)^080h,w
  9755  0652' 1283               	bcf	status, 5	;RP0=0, select bank0
  9756  0653' 1303               	bcf	status, 6	;RP1=0, select bank0
  9757  0654' 0092'              	movwf	(?___fltol+2)
  9758  0655' 1683               	bsf	status, 5	;RP0=1, select bank1
  9759  0656' 1303               	bcf	status, 6	;RP1=0, select bank1
  9760  0657' 0800'              	movf	(measure_inductance@Lin+1)^080h,w
  9761  0658' 1283               	bcf	status, 5	;RP0=0, select bank0
  9762  0659' 1303               	bcf	status, 6	;RP1=0, select bank0
  9763  065A' 0091'              	movwf	(?___fltol+1)
  9764  065B' 1683               	bsf	status, 5	;RP0=1, select bank1
  9765  065C' 1303               	bcf	status, 6	;RP1=0, select bank1
  9766  065D' 0800'              	movf	(measure_inductance@Lin)^080h,w
  9767  065E' 1283               	bcf	status, 5	;RP0=0, select bank0
  9768  065F' 1303               	bcf	status, 6	;RP1=0, select bank0
  9769  0660' 0090'              	movwf	(?___fltol)
  9770                           
  9771  0661' 120A' 118A' 2000'  	fcall	___fltol
              120A' 118A'        
  9772  0666' 1283               	bcf	status, 5	;RP0=0, select bank0
  9773  0667' 1303               	bcf	status, 6	;RP1=0, select bank0
  9774  0668' 0811'              	movf	1+(((0+(?___fltol)))),w
  9775  0669' 1683               	bsf	status, 5	;RP0=1, select bank1
  9776  066A' 1303               	bcf	status, 6	;RP1=0, select bank1
  9777  066B' 0180'              	clrf	(measure_inductance@var+1)^080h
  9778  066C' 0780'              	addwf	(measure_inductance@var+1)^080h
  9779  066D' 1283               	bcf	status, 5	;RP0=0, select bank0
  9780  066E' 1303               	bcf	status, 6	;RP1=0, select bank0
  9781  066F' 0810'              	movf	0+(((0+(?___fltol)))),w
  9782  0670' 1683               	bsf	status, 5	;RP0=1, select bank1
  9783  0671' 1303               	bcf	status, 6	;RP1=0, select bank1
  9784  0672' 0180'              	clrf	(measure_inductance@var)^080h
  9785  0673' 0780'              	addwf	(measure_inductance@var)^080h
  9786                           
  9787                           	line	511
  9788                           	
  9789  0674'                    l9895:	
  9790                           ;LC-meter.c: 511: print_reading(var);
  9791  0674' 0800'              	movf	(measure_inductance@var+1)^080h,w
  9792  0675' 1283               	bcf	status, 5	;RP0=0, select bank0
  9793  0676' 1303               	bcf	status, 6	;RP1=0, select bank0
  9794  0677' 0181'              	clrf	(?_print_reading+1)
  9795  0678' 0781'              	addwf	(?_print_reading+1)
  9796  0679' 1683               	bsf	status, 5	;RP0=1, select bank1
  9797  067A' 1303               	bcf	status, 6	;RP1=0, select bank1
  9798  067B' 0800'              	movf	(measure_inductance@var)^080h,w
  9799  067C' 1283               	bcf	status, 5	;RP0=0, select bank0
  9800  067D' 1303               	bcf	status, 6	;RP1=0, select bank0
  9801  067E' 0180'              	clrf	(?_print_reading)
  9802  067F' 0780'              	addwf	(?_print_reading)
  9803                           
  9804  0680' 120A' 118A' 2000'  	fcall	_print_reading
              120A' 118A'        
  9805                           	line	512
  9806                           	
  9807  0685'                    l9897:	
  9808                           ;LC-meter.c: 512: print_unit(unit);
  9809  0685' 1683               	bsf	status, 5	;RP0=1, select bank1
  9810  0686' 1303               	bcf	status, 6	;RP1=0, select bank1
  9811  0687' 0800'              	movf	(measure_inductance@unit)^080h,w
  9812  0688' 120A' 118A' 2000'  	fcall	_print_unit
              120A' 118A'        
  9813                           	line	513
  9814                           	
  9815  068D'                    l3315:	
  9816  068D' 0008               	return
  9817                           	opt stack 0
  9818                           GLOBAL	__end_of_measure_inductance
  9819  068E'                    	__end_of_measure_inductance:
  9820 ;; =============== function _measure_inductance ends ============
  9821                           
  9822                           	signat	_measure_inductance,88
  9823                           	global	_calibrate
  9824                           psect	text1448,local,class=CODE,delta=2
  9825                           global __ptext1448
  9826  0000'                    __ptext1448:
  9827                           
  9828 ;; *************** function _calibrate *****************
  9829 ;; Defined at:
  9830 ;;		line 347 in file "../../../src/LC-meter.c"
  9831 ;; Parameters:    Size  Location     Type
  9832 ;;		None
  9833 ;; Auto vars:     Size  Location     Type
  9834 ;;  i               1    0        unsigned char 
  9835 ;; Return value:  Size  Location     Type
  9836 ;;		None               void
  9837 ;; Registers used:
  9838 ;;		wreg, fsr0l, fsr0h, status,2, status,0, btemp+1, pclath, cstack
  9839 ;; Tracked objects:
  9840 ;;		On entry : 0/0
  9841 ;;		On exit  : 0/0
  9842 ;;		Unchanged: 0/0
  9843 ;; Data sizes:     COMMON   BANK0   BANK1   BANK3   BANK2
  9844 ;;      Params:         0       0       0       0       0
  9845 ;;      Locals:         0       0       0       0       0
  9846 ;;      Temps:          0       0       0       0       0
  9847 ;;      Totals:         0       0       0       0       0
  9848 ;;Total ram usage:        0 bytes
  9849 ;; Hardware stack levels used:    1
  9850 ;; Hardware stack levels required when called:    3
  9851 ;; This function calls:
  9852 ;;		_measure_freq
  9853 ;;		___lwtofl
  9854 ;;		_delay10ms
  9855 ;;		_ser_puts
  9856 ;; This function is called by:
  9857 ;;		_main
  9858 ;; This function uses a non-reentrant model
  9859 ;;
  9860                           psect	text1448
  9861                           	file	"../../../src/LC-meter.c"
  9862                           	line	347
  9863                           	global	__size_of_calibrate
  9864  00CE                     	__size_of_calibrate	equ	__end_of_calibrate-_calibrate
  9865                           	
  9866  0000'                    _calibrate:	
  9867                           	opt	stack 4
  9868                           ; Regs used in _calibrate: [wreg-fsr0h+status,2+status,0+btemp+1+pclath+cstack]
  9869                           	line	361
  9870                           	
  9871  0000'                    l9823:	
  9872                           ;LC-meter.c: 348: uint8_t i;
  9873                           ;LC-meter.c: 361: RC5 = 0;
  9874  0000' 1283               	bcf	status, 5	;RP0=0, select bank0
  9875  0001' 1303               	bcf	status, 6	;RP1=0, select bank0
  9876  0002' 1287               	bcf	(61/8),(61)&7
  9877                           	line	363
  9878                           	
  9879  0003'                    l9825:	
  9880                           ;LC-meter.c: 363: F1 = (double)measure_freq();
  9881  0003' 120A' 118A' 2000'  	fcall	_measure_freq
              120A' 118A'        
  9882  0008' 1283               	bcf	status, 5	;RP0=0, select bank0
  9883  0009' 1303               	bcf	status, 6	;RP1=0, select bank0
  9884  000A' 0801'              	movf	(1+(?_measure_freq)),w
  9885  000B' 018D'              	clrf	(?___lwtofl+1)
  9886  000C' 078D'              	addwf	(?___lwtofl+1)
  9887  000D' 0800'              	movf	(0+(?_measure_freq)),w
  9888  000E' 018C'              	clrf	(?___lwtofl)
  9889  000F' 078C'              	addwf	(?___lwtofl)
  9890                           
  9891  0010' 120A' 118A' 2000'  	fcall	___lwtofl
              120A' 118A'        
  9892  0015' 1283               	bcf	status, 5	;RP0=0, select bank0
  9893  0016' 1303               	bcf	status, 6	;RP1=0, select bank0
  9894  0017' 080F'              	movf	(3+(?___lwtofl)),w
  9895  0018' 1683               	bsf	status, 5	;RP0=1, select bank3
  9896  0019' 1703               	bsf	status, 6	;RP1=1, select bank3
  9897  001A' 0080'              	movwf	(_F1+3)^0180h
  9898  001B' 1283               	bcf	status, 5	;RP0=0, select bank0
  9899  001C' 1303               	bcf	status, 6	;RP1=0, select bank0
  9900  001D' 080E'              	movf	(2+(?___lwtofl)),w
  9901  001E' 1683               	bsf	status, 5	;RP0=1, select bank3
  9902  001F' 1703               	bsf	status, 6	;RP1=1, select bank3
  9903  0020' 0080'              	movwf	(_F1+2)^0180h
  9904  0021' 1283               	bcf	status, 5	;RP0=0, select bank0
  9905  0022' 1303               	bcf	status, 6	;RP1=0, select bank0
  9906  0023' 080D'              	movf	(1+(?___lwtofl)),w
  9907  0024' 1683               	bsf	status, 5	;RP0=1, select bank3
  9908  0025' 1703               	bsf	status, 6	;RP1=1, select bank3
  9909  0026' 0080'              	movwf	(_F1+1)^0180h
  9910  0027' 1283               	bcf	status, 5	;RP0=0, select bank0
  9911  0028' 1303               	bcf	status, 6	;RP1=0, select bank0
  9912  0029' 080C'              	movf	(0+(?___lwtofl)),w
  9913  002A' 1683               	bsf	status, 5	;RP0=1, select bank3
  9914  002B' 1703               	bsf	status, 6	;RP1=1, select bank3
  9915  002C' 0080'              	movwf	(_F1)^0180h
  9916                           
  9917                           	line	364
  9918                           	
  9919  002D'                    l9827:	
  9920                           ;LC-meter.c: 364: delay10ms(50);
  9921  002D' 3032               	movlw	low(032h)
  9922  002E' 1283               	bcf	status, 5	;RP0=0, select bank0
  9923  002F' 1303               	bcf	status, 6	;RP1=0, select bank0
  9924  0030' 0086'              	movwf	(?_delay10ms)
  9925  0031' 3000               	movlw	high(032h)
  9926  0032' 0087'              	movwf	((?_delay10ms))+1
  9927  0033' 120A' 118A' 2000'  	fcall	_delay10ms
              120A' 118A'        
  9928                           	line	366
  9929                           	
  9930  0038'                    l9829:	
  9931                           ;LC-meter.c: 366: F1 = (double)measure_freq();
  9932  0038' 120A' 118A' 2000'  	fcall	_measure_freq
              120A' 118A'        
  9933  003D' 1283               	bcf	status, 5	;RP0=0, select bank0
  9934  003E' 1303               	bcf	status, 6	;RP1=0, select bank0
  9935  003F' 0801'              	movf	(1+(?_measure_freq)),w
  9936  0040' 018D'              	clrf	(?___lwtofl+1)
  9937  0041' 078D'              	addwf	(?___lwtofl+1)
  9938  0042' 0800'              	movf	(0+(?_measure_freq)),w
  9939  0043' 018C'              	clrf	(?___lwtofl)
  9940  0044' 078C'              	addwf	(?___lwtofl)
  9941                           
  9942  0045' 120A' 118A' 2000'  	fcall	___lwtofl
              120A' 118A'        
  9943  004A' 1283               	bcf	status, 5	;RP0=0, select bank0
  9944  004B' 1303               	bcf	status, 6	;RP1=0, select bank0
  9945  004C' 080F'              	movf	(3+(?___lwtofl)),w
  9946  004D' 1683               	bsf	status, 5	;RP0=1, select bank3
  9947  004E' 1703               	bsf	status, 6	;RP1=1, select bank3
  9948  004F' 0080'              	movwf	(_F1+3)^0180h
  9949  0050' 1283               	bcf	status, 5	;RP0=0, select bank0
  9950  0051' 1303               	bcf	status, 6	;RP1=0, select bank0
  9951  0052' 080E'              	movf	(2+(?___lwtofl)),w
  9952  0053' 1683               	bsf	status, 5	;RP0=1, select bank3
  9953  0054' 1703               	bsf	status, 6	;RP1=1, select bank3
  9954  0055' 0080'              	movwf	(_F1+2)^0180h
  9955  0056' 1283               	bcf	status, 5	;RP0=0, select bank0
  9956  0057' 1303               	bcf	status, 6	;RP1=0, select bank0
  9957  0058' 080D'              	movf	(1+(?___lwtofl)),w
  9958  0059' 1683               	bsf	status, 5	;RP0=1, select bank3
  9959  005A' 1703               	bsf	status, 6	;RP1=1, select bank3
  9960  005B' 0080'              	movwf	(_F1+1)^0180h
  9961  005C' 1283               	bcf	status, 5	;RP0=0, select bank0
  9962  005D' 1303               	bcf	status, 6	;RP1=0, select bank0
  9963  005E' 080C'              	movf	(0+(?___lwtofl)),w
  9964  005F' 1683               	bsf	status, 5	;RP0=1, select bank3
  9965  0060' 1703               	bsf	status, 6	;RP1=1, select bank3
  9966  0061' 0080'              	movwf	(_F1)^0180h
  9967                           
  9968                           	line	367
  9969                           	
  9970  0062'                    l9831:	
  9971                           ;LC-meter.c: 367: RC5 = 1;
  9972  0062' 1283               	bcf	status, 5	;RP0=0, select bank0
  9973  0063' 1303               	bcf	status, 6	;RP1=0, select bank0
  9974  0064' 1687               	bsf	(61/8),(61)&7
  9975                           	line	369
  9976                           	
  9977  0065'                    l9833:	
  9978                           ;LC-meter.c: 369: F2 = (double)measure_freq();
  9979  0065' 120A' 118A' 2000'  	fcall	_measure_freq
              120A' 118A'        
  9980  006A' 1283               	bcf	status, 5	;RP0=0, select bank0
  9981  006B' 1303               	bcf	status, 6	;RP1=0, select bank0
  9982  006C' 0801'              	movf	(1+(?_measure_freq)),w
  9983  006D' 018D'              	clrf	(?___lwtofl+1)
  9984  006E' 078D'              	addwf	(?___lwtofl+1)
  9985  006F' 0800'              	movf	(0+(?_measure_freq)),w
  9986  0070' 018C'              	clrf	(?___lwtofl)
  9987  0071' 078C'              	addwf	(?___lwtofl)
  9988                           
  9989  0072' 120A' 118A' 2000'  	fcall	___lwtofl
              120A' 118A'        
  9990  0077' 1283               	bcf	status, 5	;RP0=0, select bank0
  9991  0078' 1303               	bcf	status, 6	;RP1=0, select bank0
  9992  0079' 080F'              	movf	(3+(?___lwtofl)),w
  9993  007A' 1683               	bsf	status, 5	;RP0=1, select bank3
  9994  007B' 1703               	bsf	status, 6	;RP1=1, select bank3
  9995  007C' 0080'              	movwf	(_F2+3)^0180h
  9996  007D' 1283               	bcf	status, 5	;RP0=0, select bank0
  9997  007E' 1303               	bcf	status, 6	;RP1=0, select bank0
  9998  007F' 080E'              	movf	(2+(?___lwtofl)),w
  9999  0080' 1683               	bsf	status, 5	;RP0=1, select bank3
 10000  0081' 1703               	bsf	status, 6	;RP1=1, select bank3
 10001  0082' 0080'              	movwf	(_F2+2)^0180h
 10002  0083' 1283               	bcf	status, 5	;RP0=0, select bank0
 10003  0084' 1303               	bcf	status, 6	;RP1=0, select bank0
 10004  0085' 080D'              	movf	(1+(?___lwtofl)),w
 10005  0086' 1683               	bsf	status, 5	;RP0=1, select bank3
 10006  0087' 1703               	bsf	status, 6	;RP1=1, select bank3
 10007  0088' 0080'              	movwf	(_F2+1)^0180h
 10008  0089' 1283               	bcf	status, 5	;RP0=0, select bank0
 10009  008A' 1303               	bcf	status, 6	;RP1=0, select bank0
 10010  008B' 080C'              	movf	(0+(?___lwtofl)),w
 10011  008C' 1683               	bsf	status, 5	;RP0=1, select bank3
 10012  008D' 1703               	bsf	status, 6	;RP1=1, select bank3
 10013  008E' 0080'              	movwf	(_F2)^0180h
 10014                           
 10015                           	line	370
 10016                           	
 10017  008F'                    l9835:	
 10018                           ;LC-meter.c: 370: delay10ms(50);
 10019  008F' 3032               	movlw	low(032h)
 10020  0090' 1283               	bcf	status, 5	;RP0=0, select bank0
 10021  0091' 1303               	bcf	status, 6	;RP1=0, select bank0
 10022  0092' 0086'              	movwf	(?_delay10ms)
 10023  0093' 3000               	movlw	high(032h)
 10024  0094' 0087'              	movwf	((?_delay10ms))+1
 10025  0095' 120A' 118A' 2000'  	fcall	_delay10ms
              120A' 118A'        
 10026                           	line	372
 10027                           ;LC-meter.c: 372: F2 = (double)measure_freq();
 10028  009A' 120A' 118A' 2000'  	fcall	_measure_freq
              120A' 118A'        
 10029  009F' 1283               	bcf	status, 5	;RP0=0, select bank0
 10030  00A0' 1303               	bcf	status, 6	;RP1=0, select bank0
 10031  00A1' 0801'              	movf	(1+(?_measure_freq)),w
 10032  00A2' 018D'              	clrf	(?___lwtofl+1)
 10033  00A3' 078D'              	addwf	(?___lwtofl+1)
 10034  00A4' 0800'              	movf	(0+(?_measure_freq)),w
 10035  00A5' 018C'              	clrf	(?___lwtofl)
 10036  00A6' 078C'              	addwf	(?___lwtofl)
 10037                           
 10038  00A7' 120A' 118A' 2000'  	fcall	___lwtofl
              120A' 118A'        
 10039  00AC' 1283               	bcf	status, 5	;RP0=0, select bank0
 10040  00AD' 1303               	bcf	status, 6	;RP1=0, select bank0
 10041  00AE' 080F'              	movf	(3+(?___lwtofl)),w
 10042  00AF' 1683               	bsf	status, 5	;RP0=1, select bank3
 10043  00B0' 1703               	bsf	status, 6	;RP1=1, select bank3
 10044  00B1' 0080'              	movwf	(_F2+3)^0180h
 10045  00B2' 1283               	bcf	status, 5	;RP0=0, select bank0
 10046  00B3' 1303               	bcf	status, 6	;RP1=0, select bank0
 10047  00B4' 080E'              	movf	(2+(?___lwtofl)),w
 10048  00B5' 1683               	bsf	status, 5	;RP0=1, select bank3
 10049  00B6' 1703               	bsf	status, 6	;RP1=1, select bank3
 10050  00B7' 0080'              	movwf	(_F2+2)^0180h
 10051  00B8' 1283               	bcf	status, 5	;RP0=0, select bank0
 10052  00B9' 1303               	bcf	status, 6	;RP1=0, select bank0
 10053  00BA' 080D'              	movf	(1+(?___lwtofl)),w
 10054  00BB' 1683               	bsf	status, 5	;RP0=1, select bank3
 10055  00BC' 1703               	bsf	status, 6	;RP1=1, select bank3
 10056  00BD' 0080'              	movwf	(_F2+1)^0180h
 10057  00BE' 1283               	bcf	status, 5	;RP0=0, select bank0
 10058  00BF' 1303               	bcf	status, 6	;RP1=0, select bank0
 10059  00C0' 080C'              	movf	(0+(?___lwtofl)),w
 10060  00C1' 1683               	bsf	status, 5	;RP0=1, select bank3
 10061  00C2' 1703               	bsf	status, 6	;RP1=1, select bank3
 10062  00C3' 0080'              	movwf	(_F2)^0180h
 10063                           
 10064                           	line	373
 10065                           	
 10066  00C4'                    l9837:	
 10067                           ;LC-meter.c: 373: RC5 = 0;
 10068  00C4' 1283               	bcf	status, 5	;RP0=0, select bank0
 10069  00C5' 1303               	bcf	status, 6	;RP1=0, select bank0
 10070  00C6' 1287               	bcf	(61/8),(61)&7
 10071                           	line	385
 10072                           	
 10073  00C7'                    l9839:	
 10074                           ;LC-meter.c: 385: ser_puts("\r\n");
 10075  00C7' 3058               	movlw	((STR_3-__stringbase))&0ffh
 10076  00C8' 120A' 118A' 2000'  	fcall	_ser_puts
              120A' 118A'        
 10077                           	line	386
 10078                           	
 10079  00CD'                    l3295:	
 10080  00CD' 0008               	return
 10081                           	opt stack 0
 10082                           GLOBAL	__end_of_calibrate
 10083  00CE'                    	__end_of_calibrate:
 10084 ;; =============== function _calibrate ends ============
 10085                           
 10086                           	signat	_calibrate,88
 10087                           	global	_floor
 10088                           psect	text1449,local,class=CODE,delta=2
 10089                           global __ptext1449
 10090  0000'                    __ptext1449:
 10091                           
 10092 ;; *************** function _floor *****************
 10093 ;; Defined at:
 10094 ;;		line 14 in file "/opt/hitech/picc/9.83/sources/floor.c"
 10095 ;; Parameters:    Size  Location     Type
 10096 ;;  x               4    3[BANK1 ] unsigned char 
 10097 ;; Auto vars:     Size  Location     Type
 10098 ;;  i               4    8[BANK1 ] unsigned char 
 10099 ;;  expon           2   12[BANK1 ] int 
 10100 ;; Return value:  Size  Location     Type
 10101 ;;                  4    3[BANK1 ] int 
 10102 ;; Registers used:
 10103 ;;		wreg, fsr0l, fsr0h, status,2, status,0, btemp+1, pclath, cstack
 10104 ;; Tracked objects:
 10105 ;;		On entry : 0/0
 10106 ;;		On exit  : 0/0
 10107 ;;		Unchanged: 0/0
 10108 ;; Data sizes:     COMMON   BANK0   BANK1   BANK3   BANK2
 10109 ;;      Params:         0       0       4       0       0
 10110 ;;      Locals:         0       0       6       0       0
 10111 ;;      Temps:          0       0       1       0       0
 10112 ;;      Totals:         0       0      11       0       0
 10113 ;;Total ram usage:       11 bytes
 10114 ;; Hardware stack levels used:    1
 10115 ;; Hardware stack levels required when called:    3
 10116 ;; This function calls:
 10117 ;;		_frexp
 10118 ;;		___flge
 10119 ;;		___fltol
 10120 ;;		___altofl
 10121 ;;		___fladd
 10122 ;; This function is called by:
 10123 ;;		_format_double
 10124 ;;		_exp
 10125 ;;		_format_float
 10126 ;; This function uses a non-reentrant model
 10127 ;;
 10128                           psect	text1449
 10129                           	file	"/opt/hitech/picc/9.83/sources/floor.c"
 10130                           	line	14
 10131                           	global	__size_of_floor
 10132  013A                     	__size_of_floor	equ	__end_of_floor-_floor
 10133                           	
 10134  0000'                    _floor:	
 10135                           	opt	stack 2
 10136                           ; Regs used in _floor: [wreg-fsr0h+status,2+status,0+btemp+1+pclath+cstack]
 10137                           	line	18
 10138                           	
 10139  0000'                    l9795:	
 10140  0000' 1683               	bsf	status, 5	;RP0=1, select bank1
 10141  0001' 1303               	bcf	status, 6	;RP1=0, select bank1
 10142  0002' 0800'              	movf	(floor@x+3)^080h,w
 10143  0003' 1283               	bcf	status, 5	;RP0=0, select bank0
 10144  0004' 1303               	bcf	status, 6	;RP1=0, select bank0
 10145  0005' 0083'              	movwf	(?_frexp+3)
 10146  0006' 1683               	bsf	status, 5	;RP0=1, select bank1
 10147  0007' 1303               	bcf	status, 6	;RP1=0, select bank1
 10148  0008' 0800'              	movf	(floor@x+2)^080h,w
 10149  0009' 1283               	bcf	status, 5	;RP0=0, select bank0
 10150  000A' 1303               	bcf	status, 6	;RP1=0, select bank0
 10151  000B' 0082'              	movwf	(?_frexp+2)
 10152  000C' 1683               	bsf	status, 5	;RP0=1, select bank1
 10153  000D' 1303               	bcf	status, 6	;RP1=0, select bank1
 10154  000E' 0800'              	movf	(floor@x+1)^080h,w
 10155  000F' 1283               	bcf	status, 5	;RP0=0, select bank0
 10156  0010' 1303               	bcf	status, 6	;RP1=0, select bank0
 10157  0011' 0081'              	movwf	(?_frexp+1)
 10158  0012' 1683               	bsf	status, 5	;RP0=1, select bank1
 10159  0013' 1303               	bcf	status, 6	;RP1=0, select bank1
 10160  0014' 0800'              	movf	(floor@x)^080h,w
 10161  0015' 1283               	bcf	status, 5	;RP0=0, select bank0
 10162  0016' 1303               	bcf	status, 6	;RP1=0, select bank0
 10163  0017' 0080'              	movwf	(?_frexp)
 10164                           
 10165  0018' 3000'              	movlw	(floor@expon)&0ffh
 10166  0019' 1683               	bsf	status, 5	;RP0=1, select bank1
 10167  001A' 1303               	bcf	status, 6	;RP1=0, select bank1
 10168  001B' 0080'              	movwf	(??_floor+0)^080h+0
 10169  001C' 0800'              	movf	(??_floor+0)^080h+0,w
 10170  001D' 1283               	bcf	status, 5	;RP0=0, select bank0
 10171  001E' 1303               	bcf	status, 6	;RP1=0, select bank0
 10172  001F' 0084'              	movwf	(0+?_frexp+04h)
 10173  0020' 120A' 118A' 2000'  	fcall	_frexp
              120A' 118A'        
 10174                           	line	19
 10175                           	
 10176  0025'                    l9797:	
 10177  0025' 1683               	bsf	status, 5	;RP0=1, select bank1
 10178  0026' 1303               	bcf	status, 6	;RP1=0, select bank1
 10179  0027' 1F80'              	btfss	(floor@expon+1)^080h,7
 10180  0028' 2800'              	goto	u6321
 10181  0029' 2800'              	goto	u6320
 10182  002A'                    u6321:
 10183  002A' 2800'              	goto	l9809
 10184  002B'                    u6320:
 10185                           	line	20
 10186                           	
 10187  002B'                    l9799:	
 10188  002B' 0800'              	movf	(floor@x+3)^080h,w
 10189  002C' 1283               	bcf	status, 5	;RP0=0, select bank0
 10190  002D' 1303               	bcf	status, 6	;RP1=0, select bank0
 10191  002E' 0083'              	movwf	(?___flge+3)
 10192  002F' 1683               	bsf	status, 5	;RP0=1, select bank1
 10193  0030' 1303               	bcf	status, 6	;RP1=0, select bank1
 10194  0031' 0800'              	movf	(floor@x+2)^080h,w
 10195  0032' 1283               	bcf	status, 5	;RP0=0, select bank0
 10196  0033' 1303               	bcf	status, 6	;RP1=0, select bank0
 10197  0034' 0082'              	movwf	(?___flge+2)
 10198  0035' 1683               	bsf	status, 5	;RP0=1, select bank1
 10199  0036' 1303               	bcf	status, 6	;RP1=0, select bank1
 10200  0037' 0800'              	movf	(floor@x+1)^080h,w
 10201  0038' 1283               	bcf	status, 5	;RP0=0, select bank0
 10202  0039' 1303               	bcf	status, 6	;RP1=0, select bank0
 10203  003A' 0081'              	movwf	(?___flge+1)
 10204  003B' 1683               	bsf	status, 5	;RP0=1, select bank1
 10205  003C' 1303               	bcf	status, 6	;RP1=0, select bank1
 10206  003D' 0800'              	movf	(floor@x)^080h,w
 10207  003E' 1283               	bcf	status, 5	;RP0=0, select bank0
 10208  003F' 1303               	bcf	status, 6	;RP1=0, select bank0
 10209  0040' 0080'              	movwf	(?___flge)
 10210                           
 10211  0041' 3000               	movlw	0x0
 10212  0042' 0087'              	movwf	3+(?___flge)+04h
 10213  0043' 3000               	movlw	0x0
 10214  0044' 0086'              	movwf	2+(?___flge)+04h
 10215  0045' 3000               	movlw	0x0
 10216  0046' 0085'              	movwf	1+(?___flge)+04h
 10217  0047' 3000               	movlw	0x0
 10218  0048' 0084'              	movwf	0+(?___flge)+04h
 10219                           
 10220  0049' 120A' 118A' 2000'  	fcall	___flge
              120A' 118A'        
 10221  004E' 1803               	btfsc	status,0
 10222  004F' 2800'              	goto	u6331
 10223  0050' 2800'              	goto	u6330
 10224  0051'                    u6331:
 10225  0051' 2800'              	goto	l9805
 10226  0052'                    u6330:
 10227                           	line	21
 10228                           	
 10229  0052'                    l9801:	
 10230  0052' 30BF               	movlw	0xbf
 10231  0053' 1683               	bsf	status, 5	;RP0=1, select bank1
 10232  0054' 1303               	bcf	status, 6	;RP1=0, select bank1
 10233  0055' 0080'              	movwf	(?_floor+3)^080h
 10234  0056' 3080               	movlw	0x80
 10235  0057' 0080'              	movwf	(?_floor+2)^080h
 10236  0058' 3000               	movlw	0x0
 10237  0059' 0080'              	movwf	(?_floor+1)^080h
 10238  005A' 3000               	movlw	0x0
 10239  005B' 0080'              	movwf	(?_floor)^080h
 10240                           
 10241  005C' 2800'              	goto	l3944
 10242                           	
 10243  005D'                    l9803:	
 10244  005D' 2800'              	goto	l3944
 10245                           	
 10246  005E'                    l3943:	
 10247                           	line	22
 10248                           	
 10249  005E'                    l9805:	
 10250  005E' 3000               	movlw	0x0
 10251  005F' 1683               	bsf	status, 5	;RP0=1, select bank1
 10252  0060' 1303               	bcf	status, 6	;RP1=0, select bank1
 10253  0061' 0080'              	movwf	(?_floor+3)^080h
 10254  0062' 3000               	movlw	0x0
 10255  0063' 0080'              	movwf	(?_floor+2)^080h
 10256  0064' 3000               	movlw	0x0
 10257  0065' 0080'              	movwf	(?_floor+1)^080h
 10258  0066' 3000               	movlw	0x0
 10259  0067' 0080'              	movwf	(?_floor)^080h
 10260                           
 10261  0068' 2800'              	goto	l3944
 10262                           	
 10263  0069'                    l9807:	
 10264  0069' 2800'              	goto	l3944
 10265                           	line	23
 10266                           	
 10267  006A'                    l3942:	
 10268                           	line	24
 10269                           	
 10270  006A'                    l9809:	
 10271  006A' 3000               	movlw	high(01Dh)
 10272  006B' 0200'              	subwf	(floor@expon+1)^080h,w
 10273  006C' 301D               	movlw	low(01Dh)
 10274  006D' 1903               	skipnz
 10275  006E' 0200'              	subwf	(floor@expon)^080h,w
 10276  006F' 1C03               	skipc
 10277  0070' 2800'              	goto	u6341
 10278  0071' 2800'              	goto	u6340
 10279  0072'                    u6341:
 10280  0072' 2800'              	goto	l9813
 10281  0073'                    u6340:
 10282                           	line	25
 10283                           	
 10284  0073'                    l9811:	
 10285  0073' 2800'              	goto	l3944
 10286                           	
 10287  0074'                    l3945:	
 10288                           	line	26
 10289                           	
 10290  0074'                    l9813:	
 10291  0074' 0800'              	movf	(floor@x+3)^080h,w
 10292  0075' 1283               	bcf	status, 5	;RP0=0, select bank0
 10293  0076' 1303               	bcf	status, 6	;RP1=0, select bank0
 10294  0077' 0093'              	movwf	(?___fltol+3)
 10295  0078' 1683               	bsf	status, 5	;RP0=1, select bank1
 10296  0079' 1303               	bcf	status, 6	;RP1=0, select bank1
 10297  007A' 0800'              	movf	(floor@x+2)^080h,w
 10298  007B' 1283               	bcf	status, 5	;RP0=0, select bank0
 10299  007C' 1303               	bcf	status, 6	;RP1=0, select bank0
 10300  007D' 0092'              	movwf	(?___fltol+2)
 10301  007E' 1683               	bsf	status, 5	;RP0=1, select bank1
 10302  007F' 1303               	bcf	status, 6	;RP1=0, select bank1
 10303  0080' 0800'              	movf	(floor@x+1)^080h,w
 10304  0081' 1283               	bcf	status, 5	;RP0=0, select bank0
 10305  0082' 1303               	bcf	status, 6	;RP1=0, select bank0
 10306  0083' 0091'              	movwf	(?___fltol+1)
 10307  0084' 1683               	bsf	status, 5	;RP0=1, select bank1
 10308  0085' 1303               	bcf	status, 6	;RP1=0, select bank1
 10309  0086' 0800'              	movf	(floor@x)^080h,w
 10310  0087' 1283               	bcf	status, 5	;RP0=0, select bank0
 10311  0088' 1303               	bcf	status, 6	;RP1=0, select bank0
 10312  0089' 0090'              	movwf	(?___fltol)
 10313                           
 10314  008A' 120A' 118A' 2000'  	fcall	___fltol
              120A' 118A'        
 10315  008F' 1283               	bcf	status, 5	;RP0=0, select bank0
 10316  0090' 1303               	bcf	status, 6	;RP1=0, select bank0
 10317  0091' 0813'              	movf	(3+(?___fltol)),w
 10318  0092' 009E'              	movwf	(?___altofl+3)
 10319  0093' 0812'              	movf	(2+(?___fltol)),w
 10320  0094' 009D'              	movwf	(?___altofl+2)
 10321  0095' 0811'              	movf	(1+(?___fltol)),w
 10322  0096' 009C'              	movwf	(?___altofl+1)
 10323  0097' 0810'              	movf	(0+(?___fltol)),w
 10324  0098' 009B'              	movwf	(?___altofl)
 10325                           
 10326  0099' 120A' 118A' 2000'  	fcall	___altofl
              120A' 118A'        
 10327  009E' 1283               	bcf	status, 5	;RP0=0, select bank0
 10328  009F' 1303               	bcf	status, 6	;RP1=0, select bank0
 10329  00A0' 081E'              	movf	(3+(?___altofl)),w
 10330  00A1' 1683               	bsf	status, 5	;RP0=1, select bank1
 10331  00A2' 1303               	bcf	status, 6	;RP1=0, select bank1
 10332  00A3' 0080'              	movwf	(floor@i+3)^080h
 10333  00A4' 1283               	bcf	status, 5	;RP0=0, select bank0
 10334  00A5' 1303               	bcf	status, 6	;RP1=0, select bank0
 10335  00A6' 081D'              	movf	(2+(?___altofl)),w
 10336  00A7' 1683               	bsf	status, 5	;RP0=1, select bank1
 10337  00A8' 1303               	bcf	status, 6	;RP1=0, select bank1
 10338  00A9' 0080'              	movwf	(floor@i+2)^080h
 10339  00AA' 1283               	bcf	status, 5	;RP0=0, select bank0
 10340  00AB' 1303               	bcf	status, 6	;RP1=0, select bank0
 10341  00AC' 081C'              	movf	(1+(?___altofl)),w
 10342  00AD' 1683               	bsf	status, 5	;RP0=1, select bank1
 10343  00AE' 1303               	bcf	status, 6	;RP1=0, select bank1
 10344  00AF' 0080'              	movwf	(floor@i+1)^080h
 10345  00B0' 1283               	bcf	status, 5	;RP0=0, select bank0
 10346  00B1' 1303               	bcf	status, 6	;RP1=0, select bank0
 10347  00B2' 081B'              	movf	(0+(?___altofl)),w
 10348  00B3' 1683               	bsf	status, 5	;RP0=1, select bank1
 10349  00B4' 1303               	bcf	status, 6	;RP1=0, select bank1
 10350  00B5' 0080'              	movwf	(floor@i)^080h
 10351                           
 10352                           	line	27
 10353  00B6' 0800'              	movf	(floor@x+3)^080h,w
 10354  00B7' 1283               	bcf	status, 5	;RP0=0, select bank0
 10355  00B8' 1303               	bcf	status, 6	;RP1=0, select bank0
 10356  00B9' 0083'              	movwf	(?___flge+3)
 10357  00BA' 1683               	bsf	status, 5	;RP0=1, select bank1
 10358  00BB' 1303               	bcf	status, 6	;RP1=0, select bank1
 10359  00BC' 0800'              	movf	(floor@x+2)^080h,w
 10360  00BD' 1283               	bcf	status, 5	;RP0=0, select bank0
 10361  00BE' 1303               	bcf	status, 6	;RP1=0, select bank0
 10362  00BF' 0082'              	movwf	(?___flge+2)
 10363  00C0' 1683               	bsf	status, 5	;RP0=1, select bank1
 10364  00C1' 1303               	bcf	status, 6	;RP1=0, select bank1
 10365  00C2' 0800'              	movf	(floor@x+1)^080h,w
 10366  00C3' 1283               	bcf	status, 5	;RP0=0, select bank0
 10367  00C4' 1303               	bcf	status, 6	;RP1=0, select bank0
 10368  00C5' 0081'              	movwf	(?___flge+1)
 10369  00C6' 1683               	bsf	status, 5	;RP0=1, select bank1
 10370  00C7' 1303               	bcf	status, 6	;RP1=0, select bank1
 10371  00C8' 0800'              	movf	(floor@x)^080h,w
 10372  00C9' 1283               	bcf	status, 5	;RP0=0, select bank0
 10373  00CA' 1303               	bcf	status, 6	;RP1=0, select bank0
 10374  00CB' 0080'              	movwf	(?___flge)
 10375                           
 10376  00CC' 1683               	bsf	status, 5	;RP0=1, select bank1
 10377  00CD' 1303               	bcf	status, 6	;RP1=0, select bank1
 10378  00CE' 0800'              	movf	(floor@i+3)^080h,w
 10379  00CF' 1283               	bcf	status, 5	;RP0=0, select bank0
 10380  00D0' 1303               	bcf	status, 6	;RP1=0, select bank0
 10381  00D1' 0087'              	movwf	3+(?___flge)+04h
 10382  00D2' 1683               	bsf	status, 5	;RP0=1, select bank1
 10383  00D3' 1303               	bcf	status, 6	;RP1=0, select bank1
 10384  00D4' 0800'              	movf	(floor@i+2)^080h,w
 10385  00D5' 1283               	bcf	status, 5	;RP0=0, select bank0
 10386  00D6' 1303               	bcf	status, 6	;RP1=0, select bank0
 10387  00D7' 0086'              	movwf	2+(?___flge)+04h
 10388  00D8' 1683               	bsf	status, 5	;RP0=1, select bank1
 10389  00D9' 1303               	bcf	status, 6	;RP1=0, select bank1
 10390  00DA' 0800'              	movf	(floor@i+1)^080h,w
 10391  00DB' 1283               	bcf	status, 5	;RP0=0, select bank0
 10392  00DC' 1303               	bcf	status, 6	;RP1=0, select bank0
 10393  00DD' 0085'              	movwf	1+(?___flge)+04h
 10394  00DE' 1683               	bsf	status, 5	;RP0=1, select bank1
 10395  00DF' 1303               	bcf	status, 6	;RP1=0, select bank1
 10396  00E0' 0800'              	movf	(floor@i)^080h,w
 10397  00E1' 1283               	bcf	status, 5	;RP0=0, select bank0
 10398  00E2' 1303               	bcf	status, 6	;RP1=0, select bank0
 10399  00E3' 0084'              	movwf	0+(?___flge)+04h
 10400                           
 10401  00E4' 120A' 118A' 2000'  	fcall	___flge
              120A' 118A'        
 10402  00E9' 1803               	btfsc	status,0
 10403  00EA' 2800'              	goto	u6351
 10404  00EB' 2800'              	goto	u6350
 10405  00EC'                    u6351:
 10406  00EC' 2800'              	goto	l9819
 10407  00ED'                    u6350:
 10408                           	line	28
 10409                           	
 10410  00ED'                    l9815:	
 10411  00ED' 30BF               	movlw	0xbf
 10412  00EE' 1283               	bcf	status, 5	;RP0=0, select bank0
 10413  00EF' 1303               	bcf	status, 6	;RP1=0, select bank0
 10414  00F0' 00C6'              	movwf	(?___fladd+3)
 10415  00F1' 3080               	movlw	0x80
 10416  00F2' 00C5'              	movwf	(?___fladd+2)
 10417  00F3' 3000               	movlw	0x0
 10418  00F4' 00C4'              	movwf	(?___fladd+1)
 10419  00F5' 3000               	movlw	0x0
 10420  00F6' 00C3'              	movwf	(?___fladd)
 10421                           
 10422  00F7' 1683               	bsf	status, 5	;RP0=1, select bank1
 10423  00F8' 1303               	bcf	status, 6	;RP1=0, select bank1
 10424  00F9' 0800'              	movf	(floor@i+3)^080h,w
 10425  00FA' 1283               	bcf	status, 5	;RP0=0, select bank0
 10426  00FB' 1303               	bcf	status, 6	;RP1=0, select bank0
 10427  00FC' 00CA'              	movwf	3+(?___fladd)+04h
 10428  00FD' 1683               	bsf	status, 5	;RP0=1, select bank1
 10429  00FE' 1303               	bcf	status, 6	;RP1=0, select bank1
 10430  00FF' 0800'              	movf	(floor@i+2)^080h,w
 10431  0100' 1283               	bcf	status, 5	;RP0=0, select bank0
 10432  0101' 1303               	bcf	status, 6	;RP1=0, select bank0
 10433  0102' 00C9'              	movwf	2+(?___fladd)+04h
 10434  0103' 1683               	bsf	status, 5	;RP0=1, select bank1
 10435  0104' 1303               	bcf	status, 6	;RP1=0, select bank1
 10436  0105' 0800'              	movf	(floor@i+1)^080h,w
 10437  0106' 1283               	bcf	status, 5	;RP0=0, select bank0
 10438  0107' 1303               	bcf	status, 6	;RP1=0, select bank0
 10439  0108' 00C8'              	movwf	1+(?___fladd)+04h
 10440  0109' 1683               	bsf	status, 5	;RP0=1, select bank1
 10441  010A' 1303               	bcf	status, 6	;RP1=0, select bank1
 10442  010B' 0800'              	movf	(floor@i)^080h,w
 10443  010C' 1283               	bcf	status, 5	;RP0=0, select bank0
 10444  010D' 1303               	bcf	status, 6	;RP1=0, select bank0
 10445  010E' 00C7'              	movwf	0+(?___fladd)+04h
 10446                           
 10447  010F' 120A' 118A' 2000'  	fcall	___fladd
              120A' 118A'        
 10448  0114' 1283               	bcf	status, 5	;RP0=0, select bank0
 10449  0115' 1303               	bcf	status, 6	;RP1=0, select bank0
 10450  0116' 0846'              	movf	(3+(?___fladd)),w
 10451  0117' 1683               	bsf	status, 5	;RP0=1, select bank1
 10452  0118' 1303               	bcf	status, 6	;RP1=0, select bank1
 10453  0119' 0080'              	movwf	(?_floor+3)^080h
 10454  011A' 1283               	bcf	status, 5	;RP0=0, select bank0
 10455  011B' 1303               	bcf	status, 6	;RP1=0, select bank0
 10456  011C' 0845'              	movf	(2+(?___fladd)),w
 10457  011D' 1683               	bsf	status, 5	;RP0=1, select bank1
 10458  011E' 1303               	bcf	status, 6	;RP1=0, select bank1
 10459  011F' 0080'              	movwf	(?_floor+2)^080h
 10460  0120' 1283               	bcf	status, 5	;RP0=0, select bank0
 10461  0121' 1303               	bcf	status, 6	;RP1=0, select bank0
 10462  0122' 0844'              	movf	(1+(?___fladd)),w
 10463  0123' 1683               	bsf	status, 5	;RP0=1, select bank1
 10464  0124' 1303               	bcf	status, 6	;RP1=0, select bank1
 10465  0125' 0080'              	movwf	(?_floor+1)^080h
 10466  0126' 1283               	bcf	status, 5	;RP0=0, select bank0
 10467  0127' 1303               	bcf	status, 6	;RP1=0, select bank0
 10468  0128' 0843'              	movf	(0+(?___fladd)),w
 10469  0129' 1683               	bsf	status, 5	;RP0=1, select bank1
 10470  012A' 1303               	bcf	status, 6	;RP1=0, select bank1
 10471  012B' 0080'              	movwf	(?_floor)^080h
 10472                           
 10473  012C' 2800'              	goto	l3944
 10474                           	
 10475  012D'                    l9817:	
 10476  012D' 2800'              	goto	l3944
 10477                           	
 10478  012E'                    l3946:	
 10479                           	line	29
 10480                           	
 10481  012E'                    l9819:	
 10482  012E' 1683               	bsf	status, 5	;RP0=1, select bank1
 10483  012F' 1303               	bcf	status, 6	;RP1=0, select bank1
 10484  0130' 0800'              	movf	(floor@i+3)^080h,w
 10485  0131' 0080'              	movwf	(?_floor+3)^080h
 10486  0132' 0800'              	movf	(floor@i+2)^080h,w
 10487  0133' 0080'              	movwf	(?_floor+2)^080h
 10488  0134' 0800'              	movf	(floor@i+1)^080h,w
 10489  0135' 0080'              	movwf	(?_floor+1)^080h
 10490  0136' 0800'              	movf	(floor@i)^080h,w
 10491  0137' 0080'              	movwf	(?_floor)^080h
 10492                           
 10493  0138' 2800'              	goto	l3944
 10494                           	
 10495  0139'                    l9821:	
 10496                           	line	30
 10497                           	
 10498  0139'                    l3944:	
 10499  0139' 0008               	return
 10500                           	opt stack 0
 10501                           GLOBAL	__end_of_floor
 10502  013A'                    	__end_of_floor:
 10503 ;; =============== function _floor ends ============
 10504                           
 10505                           	signat	_floor,4220
 10506                           	global	_format_number
 10507                           psect	text1450,local,class=CODE,delta=2
 10508                           global __ptext1450
 10509  0000'                    __ptext1450:
 10510                           
 10511 ;; *************** function _format_number *****************
 10512 ;; Defined at:
 10513 ;;		line 14 in file "../../../lib/format.c"
 10514 ;; Parameters:    Size  Location     Type
 10515 ;;  n               2    8[BANK0 ] unsigned int 
 10516 ;;  base            1   10[BANK0 ] unsigned char 
 10517 ;;  pad             1   11[BANK0 ] char 
 10518 ;; Auto vars:     Size  Location     Type
 10519 ;;  buf            32   15[BANK0 ] unsigned char [32]
 10520 ;;  i               1   51[BANK0 ] char 
 10521 ;;  di              1   50[BANK0 ] unsigned char 
 10522 ;;  padchar         1   49[BANK0 ] unsigned char 
 10523 ;; Return value:  Size  Location     Type
 10524 ;;		None               void
 10525 ;; Registers used:
 10526 ;;		wreg, fsr0l, fsr0h, status,2, status,0, pclath, cstack
 10527 ;; Tracked objects:
 10528 ;;		On entry : 0/0
 10529 ;;		On exit  : 0/0
 10530 ;;		Unchanged: 0/0
 10531 ;; Data sizes:     COMMON   BANK0   BANK1   BANK3   BANK2
 10532 ;;      Params:         0       4       0       0       0
 10533 ;;      Locals:         0      37       0       0       0
 10534 ;;      Temps:          0       3       0       0       0
 10535 ;;      Totals:         0      44       0       0       0
 10536 ;;Total ram usage:       44 bytes
 10537 ;; Hardware stack levels used:    1
 10538 ;; Hardware stack levels required when called:    3
 10539 ;; This function calls:
 10540 ;;		___lwmod
 10541 ;;		___lwdiv
 10542 ;;		_output_putch
 10543 ;;		_format_putchar
 10544 ;;		_ser_putch
 10545 ;; This function is called by:
 10546 ;;		_format_xint32
 10547 ;;		_testloop
 10548 ;; This function uses a non-reentrant model
 10549 ;;
 10550                           psect	text1450
 10551                           	file	"../../../lib/format.c"
 10552                           	line	14
 10553                           	global	__size_of_format_number
 10554  00B1                     	__size_of_format_number	equ	__end_of_format_number-_format_number
 10555                           	
 10556  0000'                    _format_number:	
 10557                           	opt	stack 2
 10558                           ; Regs used in _format_number: [wreg-fsr0h+status,2+status,0+pclath+cstack]
 10559                           	line	17
 10560                           	
 10561  0000'                    l9755:	
 10562                           ;format.c: 15: char buf[8 * sizeof(long)];
 10563                           ;format.c: 16: uint8_t di;
 10564                           ;format.c: 17: int8_t i = 0;
 10565  0000' 1283               	bcf	status, 5	;RP0=0, select bank0
 10566  0001' 1303               	bcf	status, 6	;RP1=0, select bank0
 10567  0002' 01B3'              	clrf	(format_number@i)
 10568                           	line	18
 10569                           	
 10570  0003'                    l9757:	
 10571                           ;format.c: 18: char padchar = ' ';
 10572  0003' 3020               	movlw	(020h)
 10573  0004' 008C'              	movwf	(??_format_number+0)+0
 10574  0005' 080C'              	movf	(??_format_number+0)+0,w
 10575  0006' 00B1'              	movwf	(format_number@padchar)
 10576                           	line	20
 10577                           	
 10578  0007'                    l9759:	
 10579                           ;format.c: 20: if(pad < 0) {
 10580  0007' 1F8B'              	btfss	(format_number@pad),7
 10581  0008' 2800'              	goto	u6261
 10582  0009' 2800'              	goto	u6260
 10583  000A'                    u6261:
 10584  000A' 2800'              	goto	l9765
 10585  000B'                    u6260:
 10586                           	line	21
 10587                           	
 10588  000B'                    l9761:	
 10589                           ;format.c: 21: pad = -pad;
 10590  000B' 098B'              	comf	(format_number@pad),f
 10591  000C' 0A8B'              	incf	(format_number@pad),f
 10592                           	line	22
 10593                           	
 10594  000D'                    l9763:	
 10595                           ;format.c: 22: padchar = '0';
 10596  000D' 3030               	movlw	(030h)
 10597  000E' 008C'              	movwf	(??_format_number+0)+0
 10598  000F' 080C'              	movf	(??_format_number+0)+0,w
 10599  0010' 00B1'              	movwf	(format_number@padchar)
 10600  0011' 2800'              	goto	l9765
 10601                           	line	23
 10602                           	
 10603  0012'                    l2543:	
 10604  0012' 2800'              	goto	l9765
 10605                           	line	30
 10606                           ;format.c: 23: }
 10607                           ;format.c: 30: do {
 10608                           	
 10609  0013'                    l2544:	
 10610                           	line	34
 10611                           	
 10612  0013'                    l9765:	
 10613                           ;format.c: 34: di = n % base;
 10614  0013' 080A'              	movf	(format_number@base),w
 10615  0014' 008C'              	movwf	(??_format_number+0)+0
 10616  0015' 018D'              	clrf	(??_format_number+0)+0+1
 10617  0016' 080C'              	movf	0+(??_format_number+0)+0,w
 10618  0017' 0080'              	movwf	(?___lwmod)
 10619  0018' 080D'              	movf	1+(??_format_number+0)+0,w
 10620  0019' 0081'              	movwf	(?___lwmod+1)
 10621  001A' 0809'              	movf	(format_number@n+1),w
 10622  001B' 0183'              	clrf	1+(?___lwmod)+02h
 10623  001C' 0783'              	addwf	1+(?___lwmod)+02h
 10624  001D' 0808'              	movf	(format_number@n),w
 10625  001E' 0182'              	clrf	0+(?___lwmod)+02h
 10626  001F' 0782'              	addwf	0+(?___lwmod)+02h
 10627                           
 10628  0020' 120A' 118A' 2000'  	fcall	___lwmod
              120A' 118A'        
 10629  0025' 1283               	bcf	status, 5	;RP0=0, select bank0
 10630  0026' 1303               	bcf	status, 6	;RP1=0, select bank0
 10631  0027' 0800'              	movf	(0+(?___lwmod)),w
 10632  0028' 008E'              	movwf	(??_format_number+2)+0
 10633  0029' 080E'              	movf	(??_format_number+2)+0,w
 10634  002A' 00B2'              	movwf	(format_number@di)
 10635                           	line	35
 10636                           	
 10637  002B'                    l9767:	
 10638                           ;format.c: 35: buf[i++] = (di < 10 ? (uint8_t)'0' + di : (uint8_t)'A' + di - 10);
 10639  002B' 300A               	movlw	(0Ah)
 10640  002C' 0232'              	subwf	(format_number@di),w
 10641  002D' 1C03               	skipc
 10642  002E' 2800'              	goto	u6271
 10643  002F' 2800'              	goto	u6270
 10644  0030'                    u6271:
 10645  0030' 2800'              	goto	l9771
 10646  0031'                    u6270:
 10647                           	
 10648  0031'                    l9769:	
 10649  0031' 0832'              	movf	(format_number@di),w
 10650  0032' 3E37               	addlw	low(037h)
 10651  0033' 00AF'              	movwf	(_format_number$3434)
 10652  0034' 3000               	movlw	high(037h)
 10653  0035' 1803               	skipnc
 10654  0036' 3001               	movlw	(high(037h)+1)&0ffh
 10655  0037' 00B0'              	movwf	((_format_number$3434))+1
 10656  0038' 2800'              	goto	l9773
 10657                           	
 10658  0039'                    l2546:	
 10659                           	
 10660  0039'                    l9771:	
 10661  0039' 0832'              	movf	(format_number@di),w
 10662  003A' 3E30               	addlw	low(030h)
 10663  003B' 00AF'              	movwf	(_format_number$3434)
 10664  003C' 3000               	movlw	high(030h)
 10665  003D' 1803               	skipnc
 10666  003E' 3001               	movlw	(high(030h)+1)&0ffh
 10667  003F' 00B0'              	movwf	((_format_number$3434))+1
 10668  0040' 2800'              	goto	l9773
 10669                           	
 10670  0041'                    l2548:	
 10671                           	
 10672  0041'                    l9773:	
 10673  0041' 082F'              	movf	(_format_number$3434),w
 10674  0042' 008C'              	movwf	(??_format_number+0)+0
 10675  0043' 0833'              	movf	(format_number@i),w
 10676  0044' 3E00'              	addlw	format_number@buf&0ffh
 10677  0045' 0084               	movwf	fsr0
 10678  0046' 080C'              	movf	(??_format_number+0)+0,w
 10679  0047' 1383               	bcf	status, 7	;select IRP bank0
 10680  0048' 0080               	movwf	indf
 10681                           	
 10682  0049'                    l9775:	
 10683  0049' 3001               	movlw	(01h)
 10684  004A' 008C'              	movwf	(??_format_number+0)+0
 10685  004B' 080C'              	movf	(??_format_number+0)+0,w
 10686  004C' 07B3'              	addwf	(format_number@i),f
 10687                           	line	37
 10688                           	
 10689  004D'                    l9777:	
 10690                           ;format.c: 37: n /= base;
 10691  004D' 080A'              	movf	(format_number@base),w
 10692  004E' 008C'              	movwf	(??_format_number+0)+0
 10693  004F' 018D'              	clrf	(??_format_number+0)+0+1
 10694  0050' 080C'              	movf	0+(??_format_number+0)+0,w
 10695  0051' 0080'              	movwf	(?___lwdiv)
 10696  0052' 080D'              	movf	1+(??_format_number+0)+0,w
 10697  0053' 0081'              	movwf	(?___lwdiv+1)
 10698  0054' 0809'              	movf	(format_number@n+1),w
 10699  0055' 0183'              	clrf	1+(?___lwdiv)+02h
 10700  0056' 0783'              	addwf	1+(?___lwdiv)+02h
 10701  0057' 0808'              	movf	(format_number@n),w
 10702  0058' 0182'              	clrf	0+(?___lwdiv)+02h
 10703  0059' 0782'              	addwf	0+(?___lwdiv)+02h
 10704                           
 10705  005A' 120A' 118A' 2000'  	fcall	___lwdiv
              120A' 118A'        
 10706  005F' 1283               	bcf	status, 5	;RP0=0, select bank0
 10707  0060' 1303               	bcf	status, 6	;RP1=0, select bank0
 10708  0061' 0801'              	movf	(1+(?___lwdiv)),w
 10709  0062' 0189'              	clrf	(format_number@n+1)
 10710  0063' 0789'              	addwf	(format_number@n+1)
 10711  0064' 0800'              	movf	(0+(?___lwdiv)),w
 10712  0065' 0188'              	clrf	(format_number@n)
 10713  0066' 0788'              	addwf	(format_number@n)
 10714                           
 10715                           	line	38
 10716                           	
 10717  0067'                    l9779:	
 10718                           ;format.c: 38: } while(n > 0);
 10719  0067' 0809'              	movf	((format_number@n+1)),w
 10720  0068' 0408'              	iorwf	((format_number@n)),w
 10721  0069' 1D03               	skipz
 10722  006A' 2800'              	goto	u6281
 10723  006B' 2800'              	goto	u6280
 10724  006C'                    u6281:
 10725  006C' 2800'              	goto	l9765
 10726  006D'                    u6280:
 10727  006D' 2800'              	goto	l9783
 10728                           	
 10729  006E'                    l2549:	
 10730                           	line	40
 10731                           ;format.c: 40: while(pad-- > i) putchar_ptr(padchar);
 10732  006E' 2800'              	goto	l9783
 10733                           	
 10734  006F'                    l2551:	
 10735                           	
 10736  006F'                    l9781:	
 10737  006F' 0831'              	movf	(format_number@padchar),w
 10738  0070' 008C'              	movwf	(??_format_number+0)+0
 10739  0071' 080C'              	movf	(??_format_number+0)+0,w
 10740  0072' 0084'              	movwf	(?_output_putch)
 10741  0073' 0800'              	movf	(_putchar_ptr),w
 10742  0074' 120A' 118A' 2000'  	fcall	fptable
              120A' 118A'        
 10743  0079' 2800'              	goto	l9783
 10744                           	
 10745  007A'                    l2550:	
 10746                           	
 10747  007A'                    l9783:	
 10748  007A' 1283               	bcf	status, 5	;RP0=0, select bank0
 10749  007B' 1303               	bcf	status, 6	;RP1=0, select bank0
 10750  007C' 0833'              	movf	(format_number@i),w
 10751  007D' 3A80               	xorlw	80h
 10752  007E' 008C'              	movwf	(??_format_number+0)+0
 10753  007F' 30FF               	movlw	-01h
 10754  0080' 078B'              	addwf	(format_number@pad),f
 10755  0081' 3001               	movlw	01h
 10756  0082' 070B'              	addwf	(format_number@pad),w
 10757  0083' 3A80               	xorlw	80h
 10758  0084' 028C'              	subwf	(??_format_number+0)+0
 10759  0085' 1C03               	skipc
 10760  0086' 2800'              	goto	u6291
 10761  0087' 2800'              	goto	u6290
 10762  0088'                    u6291:
 10763  0088' 2800'              	goto	l9781
 10764  0089'                    u6290:
 10765  0089' 2800'              	goto	l9785
 10766                           	
 10767  008A'                    l2552:	
 10768                           	line	42
 10769                           	
 10770  008A'                    l9785:	
 10771                           ;format.c: 42: for(; i > 0; i--) putchar_ptr((char)buf[(int16_t)i - 1]);
 10772  008A' 0833'              	movf	(format_number@i),w
 10773  008B' 3A80               	xorlw	80h
 10774  008C' 3E7F               	addlw	-((01h)^80h)
 10775  008D' 1803               	skipnc
 10776  008E' 2800'              	goto	u6301
 10777  008F' 2800'              	goto	u6300
 10778  0090'                    u6301:
 10779  0090' 2800'              	goto	l9789
 10780  0091'                    u6300:
 10781  0091' 2800'              	goto	l2555
 10782                           	
 10783  0092'                    l9787:	
 10784  0092' 2800'              	goto	l2555
 10785                           	
 10786  0093'                    l2553:	
 10787                           	
 10788  0093'                    l9789:	
 10789  0093' 0833'              	movf	(format_number@i),w
 10790  0094' 3EFF               	addlw	0FFh
 10791  0095' 3E00'              	addlw	format_number@buf&0ffh
 10792  0096' 0084               	movwf	fsr0
 10793  0097' 1383               	bcf	status, 7	;select IRP bank0
 10794  0098' 0800               	movf	indf,w
 10795  0099' 008C'              	movwf	(??_format_number+0)+0
 10796  009A' 080C'              	movf	(??_format_number+0)+0,w
 10797  009B' 0084'              	movwf	(?_output_putch)
 10798  009C' 0800'              	movf	(_putchar_ptr),w
 10799  009D' 120A' 118A' 2000'  	fcall	fptable
              120A' 118A'        
 10800                           	
 10801  00A2'                    l9791:	
 10802  00A2' 30FF               	movlw	(-1)
 10803  00A3' 1283               	bcf	status, 5	;RP0=0, select bank0
 10804  00A4' 1303               	bcf	status, 6	;RP1=0, select bank0
 10805  00A5' 008C'              	movwf	(??_format_number+0)+0
 10806  00A6' 080C'              	movf	(??_format_number+0)+0,w
 10807  00A7' 07B3'              	addwf	(format_number@i),f
 10808                           	
 10809  00A8'                    l9793:	
 10810  00A8' 0833'              	movf	(format_number@i),w
 10811  00A9' 3A80               	xorlw	80h
 10812  00AA' 3E7F               	addlw	-((01h)^80h)
 10813  00AB' 1803               	skipnc
 10814  00AC' 2800'              	goto	u6311
 10815  00AD' 2800'              	goto	u6310
 10816  00AE'                    u6311:
 10817  00AE' 2800'              	goto	l9789
 10818  00AF'                    u6310:
 10819  00AF' 2800'              	goto	l2555
 10820                           	
 10821  00B0'                    l2554:	
 10822                           	line	44
 10823                           	
 10824  00B0'                    l2555:	
 10825  00B0' 0008               	return
 10826                           	opt stack 0
 10827                           GLOBAL	__end_of_format_number
 10828  00B1'                    	__end_of_format_number:
 10829 ;; =============== function _format_number ends ============
 10830                           
 10831                           	signat	_format_number,12408
 10832                           	global	___lltofl
 10833                           psect	text1451,local,class=CODE,delta=2
 10834                           global __ptext1451
 10835  0000'                    __ptext1451:
 10836                           
 10837 ;; *************** function ___lltofl *****************
 10838 ;; Defined at:
 10839 ;;		line 31 in file "/opt/hitech/picc/9.83/sources/lltofl.c"
 10840 ;; Parameters:    Size  Location     Type
 10841 ;;  c               4   10[BANK0 ] unsigned long 
 10842 ;; Auto vars:     Size  Location     Type
 10843 ;;		None
 10844 ;; Return value:  Size  Location     Type
 10845 ;;                  4   10[BANK0 ] unsigned long 
 10846 ;; Registers used:
 10847 ;;		wreg, status,2, status,0, pclath, cstack
 10848 ;; Tracked objects:
 10849 ;;		On entry : 0/0
 10850 ;;		On exit  : 0/0
 10851 ;;		Unchanged: 0/0
 10852 ;; Data sizes:     COMMON   BANK0   BANK1   BANK3   BANK2
 10853 ;;      Params:         0       4       0       0       0
 10854 ;;      Locals:         0       0       0       0       0
 10855 ;;      Temps:          0       1       0       0       0
 10856 ;;      Totals:         0       5       0       0       0
 10857 ;;Total ram usage:        5 bytes
 10858 ;; Hardware stack levels used:    1
 10859 ;; Hardware stack levels required when called:    2
 10860 ;; This function calls:
 10861 ;;		___flpack
 10862 ;; This function is called by:
 10863 ;;		_pow
 10864 ;; This function uses a non-reentrant model
 10865 ;;
 10866                           psect	text1451
 10867                           	file	"/opt/hitech/picc/9.83/sources/lltofl.c"
 10868                           	line	31
 10869                           	global	__size_of___lltofl
 10870  0020                     	__size_of___lltofl	equ	__end_of___lltofl-___lltofl
 10871                           	
 10872  0000'                    ___lltofl:	
 10873                           	opt	stack 2
 10874                           ; Regs used in ___lltofl: [wreg+status,2+status,0+pclath+cstack]
 10875                           	line	32
 10876                           	
 10877  0000'                    l9751:	
 10878  0000' 1283               	bcf	status, 5	;RP0=0, select bank0
 10879  0001' 1303               	bcf	status, 6	;RP1=0, select bank0
 10880  0002' 080D'              	movf	(___lltofl@c+3),w
 10881  0003' 0083'              	movwf	(?___flpack+3)
 10882  0004' 080C'              	movf	(___lltofl@c+2),w
 10883  0005' 0082'              	movwf	(?___flpack+2)
 10884  0006' 080B'              	movf	(___lltofl@c+1),w
 10885  0007' 0081'              	movwf	(?___flpack+1)
 10886  0008' 080A'              	movf	(___lltofl@c),w
 10887  0009' 0080'              	movwf	(?___flpack)
 10888                           
 10889  000A' 3096               	movlw	(096h)
 10890  000B' 008E'              	movwf	(??___lltofl+0)+0
 10891  000C' 080E'              	movf	(??___lltofl+0)+0,w
 10892  000D' 0084'              	movwf	0+(?___flpack)+04h
 10893  000E' 0185'              	clrf	0+(?___flpack)+05h
 10894  000F' 120A' 118A' 2000'  	fcall	___flpack
              120A' 118A'        
 10895  0014' 1283               	bcf	status, 5	;RP0=0, select bank0
 10896  0015' 1303               	bcf	status, 6	;RP1=0, select bank0
 10897  0016' 0803'              	movf	(3+(?___flpack)),w
 10898  0017' 008D'              	movwf	(?___lltofl+3)
 10899  0018' 0802'              	movf	(2+(?___flpack)),w
 10900  0019' 008C'              	movwf	(?___lltofl+2)
 10901  001A' 0801'              	movf	(1+(?___flpack)),w
 10902  001B' 008B'              	movwf	(?___lltofl+1)
 10903  001C' 0800'              	movf	(0+(?___flpack)),w
 10904  001D' 008A'              	movwf	(?___lltofl)
 10905                           
 10906  001E' 2800'              	goto	l4266
 10907                           	
 10908  001F'                    l9753:	
 10909                           	line	33
 10910                           	
 10911  001F'                    l4266:	
 10912  001F' 0008               	return
 10913                           	opt stack 0
 10914                           GLOBAL	__end_of___lltofl
 10915  0020'                    	__end_of___lltofl:
 10916 ;; =============== function ___lltofl ends ============
 10917                           
 10918                           	signat	___lltofl,4220
 10919                           	global	___altofl
 10920                           psect	text1452,local,class=CODE,delta=2
 10921                           global __ptext1452
 10922  0000'                    __ptext1452:
 10923                           
 10924 ;; *************** function ___altofl *****************
 10925 ;; Defined at:
 10926 ;;		line 37 in file "/opt/hitech/picc/9.83/sources/altofl.c"
 10927 ;; Parameters:    Size  Location     Type
 10928 ;;  c               4   27[BANK0 ] long 
 10929 ;; Auto vars:     Size  Location     Type
 10930 ;;  sign            1   33[BANK0 ] unsigned char 
 10931 ;; Return value:  Size  Location     Type
 10932 ;;                  4   27[BANK0 ] unsigned char 
 10933 ;; Registers used:
 10934 ;;		wreg, status,2, status,0, pclath, cstack
 10935 ;; Tracked objects:
 10936 ;;		On entry : 0/0
 10937 ;;		On exit  : 0/0
 10938 ;;		Unchanged: 0/0
 10939 ;; Data sizes:     COMMON   BANK0   BANK1   BANK3   BANK2
 10940 ;;      Params:         0       4       0       0       0
 10941 ;;      Locals:         0       1       0       0       0
 10942 ;;      Temps:          0       2       0       0       0
 10943 ;;      Totals:         0       7       0       0       0
 10944 ;;Total ram usage:        7 bytes
 10945 ;; Hardware stack levels used:    1
 10946 ;; Hardware stack levels required when called:    2
 10947 ;; This function calls:
 10948 ;;		___flpack
 10949 ;; This function is called by:
 10950 ;;		_floor
 10951 ;; This function uses a non-reentrant model
 10952 ;;
 10953                           psect	text1452
 10954                           	file	"/opt/hitech/picc/9.83/sources/altofl.c"
 10955                           	line	37
 10956                           	global	__size_of___altofl
 10957  0037                     	__size_of___altofl	equ	__end_of___altofl-___altofl
 10958                           	
 10959  0000'                    ___altofl:	
 10960                           	opt	stack 2
 10961                           ; Regs used in ___altofl: [wreg+status,2+status,0+pclath+cstack]
 10962                           	line	40
 10963                           	
 10964  0000'                    l9741:	
 10965  0000' 1283               	bcf	status, 5	;RP0=0, select bank0
 10966  0001' 1303               	bcf	status, 6	;RP1=0, select bank0
 10967  0002' 01A1'              	clrf	(___altofl@sign)
 10968                           	line	41
 10969  0003' 1F9E'              	btfss	(___altofl@c+3),7
 10970  0004' 2800'              	goto	u6251
 10971  0005' 2800'              	goto	u6250
 10972  0006'                    u6251:
 10973  0006' 2800'              	goto	l9747
 10974  0007'                    u6250:
 10975                           	line	42
 10976                           	
 10977  0007'                    l9743:	
 10978  0007' 099B'              	comf	(___altofl@c),f
 10979  0008' 099C'              	comf	(___altofl@c+1),f
 10980  0009' 099D'              	comf	(___altofl@c+2),f
 10981  000A' 099E'              	comf	(___altofl@c+3),f
 10982  000B' 0A9B'              	incf	(___altofl@c),f
 10983  000C' 1903               	skipnz
 10984  000D' 0A9C'              	incf	(___altofl@c+1),f
 10985  000E' 1903               	skipnz
 10986  000F' 0A9D'              	incf	(___altofl@c+2),f
 10987  0010' 1903               	skipnz
 10988  0011' 0A9E'              	incf	(___altofl@c+3),f
 10989                           	line	43
 10990                           	
 10991  0012'                    l9745:	
 10992  0012' 01A1'              	clrf	(___altofl@sign)
 10993  0013' 1403               	bsf	status,0
 10994  0014' 0DA1'              	rlf	(___altofl@sign),f
 10995  0015' 2800'              	goto	l9747
 10996                           	line	44
 10997                           	
 10998  0016'                    l4260:	
 10999                           	line	45
 11000                           	
 11001  0016'                    l9747:	
 11002  0016' 081E'              	movf	(___altofl@c+3),w
 11003  0017' 0083'              	movwf	(?___flpack+3)
 11004  0018' 081D'              	movf	(___altofl@c+2),w
 11005  0019' 0082'              	movwf	(?___flpack+2)
 11006  001A' 081C'              	movf	(___altofl@c+1),w
 11007  001B' 0081'              	movwf	(?___flpack+1)
 11008  001C' 081B'              	movf	(___altofl@c),w
 11009  001D' 0080'              	movwf	(?___flpack)
 11010                           
 11011  001E' 3096               	movlw	(096h)
 11012  001F' 009F'              	movwf	(??___altofl+0)+0
 11013  0020' 081F'              	movf	(??___altofl+0)+0,w
 11014  0021' 0084'              	movwf	0+(?___flpack)+04h
 11015  0022' 0821'              	movf	(___altofl@sign),w
 11016  0023' 00A0'              	movwf	(??___altofl+1)+0
 11017  0024' 0820'              	movf	(??___altofl+1)+0,w
 11018  0025' 0085'              	movwf	0+(?___flpack)+05h
 11019  0026' 120A' 118A' 2000'  	fcall	___flpack
              120A' 118A'        
 11020  002B' 1283               	bcf	status, 5	;RP0=0, select bank0
 11021  002C' 1303               	bcf	status, 6	;RP1=0, select bank0
 11022  002D' 0803'              	movf	(3+(?___flpack)),w
 11023  002E' 009E'              	movwf	(?___altofl+3)
 11024  002F' 0802'              	movf	(2+(?___flpack)),w
 11025  0030' 009D'              	movwf	(?___altofl+2)
 11026  0031' 0801'              	movf	(1+(?___flpack)),w
 11027  0032' 009C'              	movwf	(?___altofl+1)
 11028  0033' 0800'              	movf	(0+(?___flpack)),w
 11029  0034' 009B'              	movwf	(?___altofl)
 11030                           
 11031  0035' 2800'              	goto	l4261
 11032                           	
 11033  0036'                    l9749:	
 11034                           	line	46
 11035                           	
 11036  0036'                    l4261:	
 11037  0036' 0008               	return
 11038                           	opt stack 0
 11039                           GLOBAL	__end_of___altofl
 11040  0037'                    	__end_of___altofl:
 11041 ;; =============== function ___altofl ends ============
 11042                           
 11043                           	signat	___altofl,4220
 11044                           	global	___lwtofl
 11045                           psect	text1453,local,class=CODE,delta=2
 11046                           global __ptext1453
 11047  0000'                    __ptext1453:
 11048                           
 11049 ;; *************** function ___lwtofl *****************
 11050 ;; Defined at:
 11051 ;;		line 29 in file "/opt/hitech/picc/9.83/sources/lwtofl.c"
 11052 ;; Parameters:    Size  Location     Type
 11053 ;;  c               2   12[BANK0 ] unsigned int 
 11054 ;; Auto vars:     Size  Location     Type
 11055 ;;		None
 11056 ;; Return value:  Size  Location     Type
 11057 ;;                  4   12[BANK0 ] unsigned int 
 11058 ;; Registers used:
 11059 ;;		wreg, status,2, status,0, pclath, cstack
 11060 ;; Tracked objects:
 11061 ;;		On entry : 0/0
 11062 ;;		On exit  : 0/0
 11063 ;;		Unchanged: 0/0
 11064 ;; Data sizes:     COMMON   BANK0   BANK1   BANK3   BANK2
 11065 ;;      Params:         0       4       0       0       0
 11066 ;;      Locals:         0       0       0       0       0
 11067 ;;      Temps:          0       1       0       0       0
 11068 ;;      Totals:         0       5       0       0       0
 11069 ;;Total ram usage:        5 bytes
 11070 ;; Hardware stack levels used:    1
 11071 ;; Hardware stack levels required when called:    2
 11072 ;; This function calls:
 11073 ;;		___flpack
 11074 ;; This function is called by:
 11075 ;;		_calibrate
 11076 ;;		_measure_capacitance
 11077 ;;		_measure_inductance
 11078 ;; This function uses a non-reentrant model
 11079 ;;
 11080                           psect	text1453
 11081                           	file	"/opt/hitech/picc/9.83/sources/lwtofl.c"
 11082                           	line	29
 11083                           	global	__size_of___lwtofl
 11084  001E                     	__size_of___lwtofl	equ	__end_of___lwtofl-___lwtofl
 11085                           	
 11086  0000'                    ___lwtofl:	
 11087                           	opt	stack 4
 11088                           ; Regs used in ___lwtofl: [wreg+status,2+status,0+pclath+cstack]
 11089                           	line	30
 11090                           	
 11091  0000'                    l9737:	
 11092  0000' 1283               	bcf	status, 5	;RP0=0, select bank0
 11093  0001' 1303               	bcf	status, 6	;RP1=0, select bank0
 11094  0002' 080C'              	movf	(___lwtofl@c),w
 11095  0003' 0080'              	movwf	(?___flpack)
 11096  0004' 080D'              	movf	(___lwtofl@c+1),w
 11097  0005' 0081'              	movwf	((?___flpack))+1
 11098  0006' 0182'              	clrf	2+((?___flpack))
 11099  0007' 0183'              	clrf	3+((?___flpack))
 11100  0008' 3096               	movlw	(096h)
 11101  0009' 0090'              	movwf	(??___lwtofl+0)+0
 11102  000A' 0810'              	movf	(??___lwtofl+0)+0,w
 11103  000B' 0084'              	movwf	0+(?___flpack)+04h
 11104  000C' 0185'              	clrf	0+(?___flpack)+05h
 11105  000D' 120A' 118A' 2000'  	fcall	___flpack
              120A' 118A'        
 11106  0012' 1283               	bcf	status, 5	;RP0=0, select bank0
 11107  0013' 1303               	bcf	status, 6	;RP1=0, select bank0
 11108  0014' 0803'              	movf	(3+(?___flpack)),w
 11109  0015' 008F'              	movwf	(?___lwtofl+3)
 11110  0016' 0802'              	movf	(2+(?___flpack)),w
 11111  0017' 008E'              	movwf	(?___lwtofl+2)
 11112  0018' 0801'              	movf	(1+(?___flpack)),w
 11113  0019' 008D'              	movwf	(?___lwtofl+1)
 11114  001A' 0800'              	movf	(0+(?___flpack)),w
 11115  001B' 008C'              	movwf	(?___lwtofl)
 11116                           
 11117  001C' 2800'              	goto	l4229
 11118                           	
 11119  001D'                    l9739:	
 11120                           	line	31
 11121                           	
 11122  001D'                    l4229:	
 11123  001D' 0008               	return
 11124                           	opt stack 0
 11125                           GLOBAL	__end_of___lwtofl
 11126  001E'                    	__end_of___lwtofl:
 11127 ;; =============== function ___lwtofl ends ============
 11128                           
 11129                           	signat	___lwtofl,4220
 11130                           	global	___awtofl
 11131                           psect	text1454,local,class=CODE,delta=2
 11132                           global __ptext1454
 11133  0000'                    __ptext1454:
 11134                           
 11135 ;; *************** function ___awtofl *****************
 11136 ;; Defined at:
 11137 ;;		line 32 in file "/opt/hitech/picc/9.83/sources/awtofl.c"
 11138 ;; Parameters:    Size  Location     Type
 11139 ;;  c               2   27[BANK0 ] int 
 11140 ;; Auto vars:     Size  Location     Type
 11141 ;;  f1              4    0        int 
 11142 ;;  sign            1   33[BANK0 ] unsigned char 
 11143 ;; Return value:  Size  Location     Type
 11144 ;;                  4   27[BANK0 ] unsigned char 
 11145 ;; Registers used:
 11146 ;;		wreg, status,2, status,0, pclath, cstack
 11147 ;; Tracked objects:
 11148 ;;		On entry : 0/0
 11149 ;;		On exit  : 0/0
 11150 ;;		Unchanged: 0/0
 11151 ;; Data sizes:     COMMON   BANK0   BANK1   BANK3   BANK2
 11152 ;;      Params:         0       4       0       0       0
 11153 ;;      Locals:         0       1       0       0       0
 11154 ;;      Temps:          0       2       0       0       0
 11155 ;;      Totals:         0       7       0       0       0
 11156 ;;Total ram usage:        7 bytes
 11157 ;; Hardware stack levels used:    1
 11158 ;; Hardware stack levels required when called:    2
 11159 ;; This function calls:
 11160 ;;		___flpack
 11161 ;; This function is called by:
 11162 ;;		_format_double
 11163 ;;		_log
 11164 ;;		_exp
 11165 ;;		_format_float
 11166 ;; This function uses a non-reentrant model
 11167 ;;
 11168                           psect	text1454
 11169                           	file	"/opt/hitech/picc/9.83/sources/awtofl.c"
 11170                           	line	32
 11171                           	global	__size_of___awtofl
 11172  0030                     	__size_of___awtofl	equ	__end_of___awtofl-___awtofl
 11173                           	
 11174  0000'                    ___awtofl:	
 11175                           	opt	stack 1
 11176                           ; Regs used in ___awtofl: [wreg+status,2+status,0+pclath+cstack]
 11177                           	line	36
 11178                           	
 11179  0000'                    l9727:	
 11180  0000' 1283               	bcf	status, 5	;RP0=0, select bank0
 11181  0001' 1303               	bcf	status, 6	;RP1=0, select bank0
 11182  0002' 01A1'              	clrf	(___awtofl@sign)
 11183                           	line	37
 11184  0003' 1F9C'              	btfss	(___awtofl@c+1),7
 11185  0004' 2800'              	goto	u6241
 11186  0005' 2800'              	goto	u6240
 11187  0006'                    u6241:
 11188  0006' 2800'              	goto	l9733
 11189  0007'                    u6240:
 11190                           	line	38
 11191                           	
 11192  0007'                    l9729:	
 11193  0007' 099B'              	comf	(___awtofl@c),f
 11194  0008' 099C'              	comf	(___awtofl@c+1),f
 11195  0009' 0A9B'              	incf	(___awtofl@c),f
 11196  000A' 1903               	skipnz
 11197  000B' 0A9C'              	incf	(___awtofl@c+1),f
 11198                           	line	39
 11199                           	
 11200  000C'                    l9731:	
 11201  000C' 3001               	movlw	(01h)
 11202  000D' 009F'              	movwf	(??___awtofl+0)+0
 11203  000E' 081F'              	movf	(??___awtofl+0)+0,w
 11204  000F' 07A1'              	addwf	(___awtofl@sign),f
 11205  0010' 2800'              	goto	l9733
 11206                           	line	40
 11207                           	
 11208  0011'                    l4169:	
 11209                           	line	41
 11210                           	
 11211  0011'                    l9733:	
 11212  0011' 081B'              	movf	(___awtofl@c),w
 11213  0012' 0080'              	movwf	(?___flpack)
 11214  0013' 081C'              	movf	(___awtofl@c+1),w
 11215  0014' 0081'              	movwf	((?___flpack))+1
 11216  0015' 0182'              	clrf	2+((?___flpack))
 11217  0016' 0183'              	clrf	3+((?___flpack))
 11218  0017' 3096               	movlw	(096h)
 11219  0018' 009F'              	movwf	(??___awtofl+0)+0
 11220  0019' 081F'              	movf	(??___awtofl+0)+0,w
 11221  001A' 0084'              	movwf	0+(?___flpack)+04h
 11222  001B' 0821'              	movf	(___awtofl@sign),w
 11223  001C' 00A0'              	movwf	(??___awtofl+1)+0
 11224  001D' 0820'              	movf	(??___awtofl+1)+0,w
 11225  001E' 0085'              	movwf	0+(?___flpack)+05h
 11226  001F' 120A' 118A' 2000'  	fcall	___flpack
              120A' 118A'        
 11227  0024' 1283               	bcf	status, 5	;RP0=0, select bank0
 11228  0025' 1303               	bcf	status, 6	;RP1=0, select bank0
 11229  0026' 0803'              	movf	(3+(?___flpack)),w
 11230  0027' 009E'              	movwf	(?___awtofl+3)
 11231  0028' 0802'              	movf	(2+(?___flpack)),w
 11232  0029' 009D'              	movwf	(?___awtofl+2)
 11233  002A' 0801'              	movf	(1+(?___flpack)),w
 11234  002B' 009C'              	movwf	(?___awtofl+1)
 11235  002C' 0800'              	movf	(0+(?___flpack)),w
 11236  002D' 009B'              	movwf	(?___awtofl)
 11237                           
 11238  002E' 2800'              	goto	l4170
 11239                           	
 11240  002F'                    l9735:	
 11241                           	line	42
 11242                           	
 11243  002F'                    l4170:	
 11244  002F' 0008               	return
 11245                           	opt stack 0
 11246                           GLOBAL	__end_of___awtofl
 11247  0030'                    	__end_of___awtofl:
 11248 ;; =============== function ___awtofl ends ============
 11249                           
 11250                           	signat	___awtofl,4220
 11251                           	global	___flmul
 11252                           psect	text1455,local,class=CODE,delta=2
 11253                           global __ptext1455
 11254  0000'                    __ptext1455:
 11255                           
 11256 ;; *************** function ___flmul *****************
 11257 ;; Defined at:
 11258 ;;		line 51 in file "/opt/hitech/picc/9.83/sources/flmul.c"
 11259 ;; Parameters:    Size  Location     Type
 11260 ;;  f1              4   47[BANK0 ] unsigned char 
 11261 ;;  f2              4   51[BANK0 ] unsigned char 
 11262 ;; Auto vars:     Size  Location     Type
 11263 ;;  f3_as_produc    4   61[BANK0 ] unsigned long 
 11264 ;;  sign            1   66[BANK0 ] unsigned char 
 11265 ;;  cntr            1   65[BANK0 ] unsigned char 
 11266 ;;  exp             1   60[BANK0 ] unsigned char 
 11267 ;; Return value:  Size  Location     Type
 11268 ;;                  4   47[BANK0 ] unsigned char 
 11269 ;; Registers used:
 11270 ;;		wreg, status,2, status,0, pclath, cstack
 11271 ;; Tracked objects:
 11272 ;;		On entry : 0/0
 11273 ;;		On exit  : 0/0
 11274 ;;		Unchanged: 0/0
 11275 ;; Data sizes:     COMMON   BANK0   BANK1   BANK3   BANK2
 11276 ;;      Params:         0       8       0       0       0
 11277 ;;      Locals:         0       7       0       0       0
 11278 ;;      Temps:          0       5       0       0       0
 11279 ;;      Totals:         0      20       0       0       0
 11280 ;;Total ram usage:       20 bytes
 11281 ;; Hardware stack levels used:    1
 11282 ;; Hardware stack levels required when called:    2
 11283 ;; This function calls:
 11284 ;;		___flpack
 11285 ;; This function is called by:
 11286 ;;		_format_double
 11287 ;;		_measure_capacitance
 11288 ;;		_measure_inductance
 11289 ;;		_log
 11290 ;;		_log10
 11291 ;;		_pow
 11292 ;;		_eval_poly
 11293 ;;		_exp
 11294 ;;		_format_float
 11295 ;; This function uses a non-reentrant model
 11296 ;;
 11297                           psect	text1455
 11298                           	file	"/opt/hitech/picc/9.83/sources/flmul.c"
 11299                           	line	51
 11300                           	global	__size_of___flmul
 11301  0116                     	__size_of___flmul	equ	__end_of___flmul-___flmul
 11302                           	
 11303  0000'                    ___flmul:	
 11304                           	opt	stack 4
 11305                           ; Regs used in ___flmul: [wreg+status,2+status,0+pclath+cstack]
 11306                           	line	55
 11307                           	
 11308  0000'                    l9677:	
 11309  0000' 1283               	bcf	status, 5	;RP0=0, select bank0
 11310  0001' 1303               	bcf	status, 6	;RP1=0, select bank0
 11311  0002' 082F'              	movf	(___flmul@f1),w
 11312  0003' 00B7'              	movwf	(??___flmul+0)+0
 11313  0004' 0830'              	movf	(___flmul@f1+1),w
 11314  0005' 00B8'              	movwf	((??___flmul+0)+0+1)
 11315  0006' 0831'              	movf	(___flmul@f1+2),w
 11316  0007' 00B9'              	movwf	((??___flmul+0)+0+2)
 11317  0008' 0832'              	movf	(___flmul@f1+3),w
 11318  0009' 00BA'              	movwf	((??___flmul+0)+0+3)
 11319  000A' 1003               	clrc
 11320  000B' 0D39'              	rlf	(??___flmul+0)+2,w
 11321  000C' 0D3A'              	rlf	(??___flmul+0)+3,w
 11322  000D' 00BB'              	movwf	(??___flmul+4)+0
 11323  000E' 083B'              	movf	(??___flmul+4)+0,w
 11324  000F' 00BC'              	movwf	(___flmul@exp)
 11325  0010' 08BC'              	movf	((___flmul@exp)),f
 11326  0011' 1D03               	skipz
 11327  0012' 2800'              	goto	u6101
 11328  0013' 2800'              	goto	u6100
 11329  0014'                    u6101:
 11330  0014' 2800'              	goto	l9683
 11331  0015'                    u6100:
 11332                           	line	56
 11333                           	
 11334  0015'                    l9679:	
 11335  0015' 3000               	movlw	0x0
 11336  0016' 00B2'              	movwf	(?___flmul+3)
 11337  0017' 3000               	movlw	0x0
 11338  0018' 00B1'              	movwf	(?___flmul+2)
 11339  0019' 3000               	movlw	0x0
 11340  001A' 00B0'              	movwf	(?___flmul+1)
 11341  001B' 3000               	movlw	0x0
 11342  001C' 00AF'              	movwf	(?___flmul)
 11343                           
 11344  001D' 2800'              	goto	l4111
 11345                           	
 11346  001E'                    l9681:	
 11347  001E' 2800'              	goto	l4111
 11348                           	
 11349  001F'                    l4110:	
 11350                           	line	57
 11351                           	
 11352  001F'                    l9683:	
 11353  001F' 0833'              	movf	(___flmul@f2),w
 11354  0020' 00B7'              	movwf	(??___flmul+0)+0
 11355  0021' 0834'              	movf	(___flmul@f2+1),w
 11356  0022' 00B8'              	movwf	((??___flmul+0)+0+1)
 11357  0023' 0835'              	movf	(___flmul@f2+2),w
 11358  0024' 00B9'              	movwf	((??___flmul+0)+0+2)
 11359  0025' 0836'              	movf	(___flmul@f2+3),w
 11360  0026' 00BA'              	movwf	((??___flmul+0)+0+3)
 11361  0027' 1003               	clrc
 11362  0028' 0D39'              	rlf	(??___flmul+0)+2,w
 11363  0029' 0D3A'              	rlf	(??___flmul+0)+3,w
 11364  002A' 00BB'              	movwf	(??___flmul+4)+0
 11365  002B' 083B'              	movf	(??___flmul+4)+0,w
 11366  002C' 00C2'              	movwf	(___flmul@sign)
 11367  002D' 08C2'              	movf	((___flmul@sign)),f
 11368  002E' 1D03               	skipz
 11369  002F' 2800'              	goto	u6111
 11370  0030' 2800'              	goto	u6110
 11371  0031'                    u6111:
 11372  0031' 2800'              	goto	l9689
 11373  0032'                    u6110:
 11374                           	line	58
 11375                           	
 11376  0032'                    l9685:	
 11377  0032' 3000               	movlw	0x0
 11378  0033' 00B2'              	movwf	(?___flmul+3)
 11379  0034' 3000               	movlw	0x0
 11380  0035' 00B1'              	movwf	(?___flmul+2)
 11381  0036' 3000               	movlw	0x0
 11382  0037' 00B0'              	movwf	(?___flmul+1)
 11383  0038' 3000               	movlw	0x0
 11384  0039' 00AF'              	movwf	(?___flmul)
 11385                           
 11386  003A' 2800'              	goto	l4111
 11387                           	
 11388  003B'                    l9687:	
 11389  003B' 2800'              	goto	l4111
 11390                           	
 11391  003C'                    l4112:	
 11392                           	line	59
 11393                           	
 11394  003C'                    l9689:	
 11395  003C' 0842'              	movf	(___flmul@sign),w
 11396  003D' 3E7B               	addlw	07Bh
 11397  003E' 00B7'              	movwf	(??___flmul+0)+0
 11398  003F' 0837'              	movf	(??___flmul+0)+0,w
 11399  0040' 07BC'              	addwf	(___flmul@exp),f
 11400                           	line	60
 11401  0041' 082F'              	movf	(___flmul@f1),w
 11402  0042' 00B7'              	movwf	(??___flmul+0)+0
 11403  0043' 0830'              	movf	(___flmul@f1+1),w
 11404  0044' 00B8'              	movwf	((??___flmul+0)+0+1)
 11405  0045' 0831'              	movf	(___flmul@f1+2),w
 11406  0046' 00B9'              	movwf	((??___flmul+0)+0+2)
 11407  0047' 0832'              	movf	(___flmul@f1+3),w
 11408  0048' 00BA'              	movwf	((??___flmul+0)+0+3)
 11409  0049' 3018               	movlw	018h
 11410  004A'                    u6125:
 11411  004A' 1003               	clrc
 11412  004B' 0CBA'              	rrf	(??___flmul+0)+3,f
 11413  004C' 0CB9'              	rrf	(??___flmul+0)+2,f
 11414  004D' 0CB8'              	rrf	(??___flmul+0)+1,f
 11415  004E' 0CB7'              	rrf	(??___flmul+0)+0,f
 11416  004F'                    u6120:
 11417  004F' 3EFF               	addlw	-1
 11418  0050' 1D03               	skipz
 11419  0051' 2800'              	goto	u6125
 11420  0052' 0837'              	movf	0+(??___flmul+0)+0,w
 11421  0053' 00BB'              	movwf	(??___flmul+4)+0
 11422  0054' 083B'              	movf	(??___flmul+4)+0,w
 11423  0055' 00C2'              	movwf	(___flmul@sign)
 11424                           	line	61
 11425  0056' 0833'              	movf	(___flmul@f2),w
 11426  0057' 00B7'              	movwf	(??___flmul+0)+0
 11427  0058' 0834'              	movf	(___flmul@f2+1),w
 11428  0059' 00B8'              	movwf	((??___flmul+0)+0+1)
 11429  005A' 0835'              	movf	(___flmul@f2+2),w
 11430  005B' 00B9'              	movwf	((??___flmul+0)+0+2)
 11431  005C' 0836'              	movf	(___flmul@f2+3),w
 11432  005D' 00BA'              	movwf	((??___flmul+0)+0+3)
 11433  005E' 3018               	movlw	018h
 11434  005F'                    u6135:
 11435  005F' 1003               	clrc
 11436  0060' 0CBA'              	rrf	(??___flmul+0)+3,f
 11437  0061' 0CB9'              	rrf	(??___flmul+0)+2,f
 11438  0062' 0CB8'              	rrf	(??___flmul+0)+1,f
 11439  0063' 0CB7'              	rrf	(??___flmul+0)+0,f
 11440  0064'                    u6130:
 11441  0064' 3EFF               	addlw	-1
 11442  0065' 1D03               	skipz
 11443  0066' 2800'              	goto	u6135
 11444  0067' 0837'              	movf	0+(??___flmul+0)+0,w
 11445  0068' 00BB'              	movwf	(??___flmul+4)+0
 11446  0069' 083B'              	movf	(??___flmul+4)+0,w
 11447  006A' 06C2'              	xorwf	(___flmul@sign),f
 11448                           	line	62
 11449  006B' 3080               	movlw	(080h)
 11450  006C' 00B7'              	movwf	(??___flmul+0)+0
 11451  006D' 0837'              	movf	(??___flmul+0)+0,w
 11452  006E' 05C2'              	andwf	(___flmul@sign),f
 11453                           	line	63
 11454                           	
 11455  006F'                    l9691:	
 11456  006F' 17B1'              	bsf	(___flmul@f1)+(23/8),(23)&7
 11457                           	line	65
 11458                           	
 11459  0070'                    l9693:	
 11460  0070' 17B5'              	bsf	(___flmul@f2)+(23/8),(23)&7
 11461                           	line	66
 11462                           	
 11463  0071'                    l9695:	
 11464  0071' 30FF               	movlw	0FFh
 11465  0072' 05B3'              	andwf	(___flmul@f2),f
 11466  0073' 30FF               	movlw	0FFh
 11467  0074' 05B4'              	andwf	(___flmul@f2+1),f
 11468  0075' 30FF               	movlw	0FFh
 11469  0076' 05B5'              	andwf	(___flmul@f2+2),f
 11470  0077' 3000               	movlw	0
 11471  0078' 05B6'              	andwf	(___flmul@f2+3),f
 11472                           	line	67
 11473                           	
 11474  0079'                    l9697:	
 11475  0079' 3000               	movlw	0
 11476  007A' 00C0'              	movwf	(___flmul@f3_as_product+3)
 11477  007B' 3000               	movlw	0
 11478  007C' 00BF'              	movwf	(___flmul@f3_as_product+2)
 11479  007D' 3000               	movlw	0
 11480  007E' 00BE'              	movwf	(___flmul@f3_as_product+1)
 11481  007F' 3000               	movlw	0
 11482  0080' 00BD'              	movwf	(___flmul@f3_as_product)
 11483                           
 11484                           	line	68
 11485                           	
 11486  0081'                    l9699:	
 11487  0081' 3007               	movlw	(07h)
 11488  0082' 00B7'              	movwf	(??___flmul+0)+0
 11489  0083' 0837'              	movf	(??___flmul+0)+0,w
 11490  0084' 00C1'              	movwf	(___flmul@cntr)
 11491  0085' 2800'              	goto	l9701
 11492                           	line	69
 11493                           	
 11494  0086'                    l4113:	
 11495                           	line	70
 11496                           	
 11497  0086'                    l9701:	
 11498  0086' 1C2F'              	btfss	(___flmul@f1),(0)&7
 11499  0087' 2800'              	goto	u6141
 11500  0088' 2800'              	goto	u6140
 11501  0089'                    u6141:
 11502  0089' 2800'              	goto	l9705
 11503  008A'                    u6140:
 11504                           	line	71
 11505                           	
 11506  008A'                    l9703:	
 11507  008A' 0833'              	movf	(___flmul@f2),w
 11508  008B' 07BD'              	addwf	(___flmul@f3_as_product),f
 11509  008C' 0834'              	movf	(___flmul@f2+1),w
 11510  008D' 1103               	clrz
 11511  008E' 1803               	skipnc
 11512  008F' 3E01               	addlw	1
 11513  0090' 1903               	skipnz
 11514  0091' 2800'              	goto	u6151
 11515  0092' 07BE'              	addwf	(___flmul@f3_as_product+1),f
 11516  0093'                    u6151:
 11517  0093' 0835'              	movf	(___flmul@f2+2),w
 11518  0094' 1103               	clrz
 11519  0095' 1803               	skipnc
 11520  0096' 3E01               	addlw	1
 11521  0097' 1903               	skipnz
 11522  0098' 2800'              	goto	u6152
 11523  0099' 07BF'              	addwf	(___flmul@f3_as_product+2),f
 11524  009A'                    u6152:
 11525  009A' 0836'              	movf	(___flmul@f2+3),w
 11526  009B' 1103               	clrz
 11527  009C' 1803               	skipnc
 11528  009D' 3E01               	addlw	1
 11529  009E' 1903               	skipnz
 11530  009F' 2800'              	goto	u6153
 11531  00A0' 07C0'              	addwf	(___flmul@f3_as_product+3),f
 11532  00A1'                    u6153:
 11533                           
 11534  00A1' 2800'              	goto	l9705
 11535                           	
 11536  00A2'                    l4114:	
 11537                           	line	72
 11538                           	
 11539  00A2'                    l9705:	
 11540  00A2' 3001               	movlw	01h
 11541  00A3'                    u6165:
 11542  00A3' 1003               	clrc
 11543  00A4' 0CB2'              	rrf	(___flmul@f1+3),f
 11544  00A5' 0CB1'              	rrf	(___flmul@f1+2),f
 11545  00A6' 0CB0'              	rrf	(___flmul@f1+1),f
 11546  00A7' 0CAF'              	rrf	(___flmul@f1),f
 11547  00A8' 3EFF               	addlw	-1
 11548  00A9' 1D03               	skipz
 11549  00AA' 2800'              	goto	u6165
 11550                           
 11551                           	line	73
 11552                           	
 11553  00AB'                    l9707:	
 11554  00AB' 3001               	movlw	01h
 11555  00AC' 00B7'              	movwf	(??___flmul+0)+0
 11556  00AD'                    u6175:
 11557  00AD' 1003               	clrc
 11558  00AE' 0DB3'              	rlf	(___flmul@f2),f
 11559  00AF' 0DB4'              	rlf	(___flmul@f2+1),f
 11560  00B0' 0DB5'              	rlf	(___flmul@f2+2),f
 11561  00B1' 0DB6'              	rlf	(___flmul@f2+3),f
 11562  00B2' 0BB7'              	decfsz	(??___flmul+0)+0
 11563  00B3' 2800'              	goto	u6175
 11564                           	line	74
 11565                           	
 11566  00B4'                    l9709:	
 11567  00B4' 3001               	movlw	low(01h)
 11568  00B5' 02C1'              	subwf	(___flmul@cntr),f
 11569  00B6' 1D03               	btfss	status,2
 11570  00B7' 2800'              	goto	u6181
 11571  00B8' 2800'              	goto	u6180
 11572  00B9'                    u6181:
 11573  00B9' 2800'              	goto	l9701
 11574  00BA'                    u6180:
 11575  00BA' 2800'              	goto	l9711
 11576                           	
 11577  00BB'                    l4115:	
 11578                           	line	75
 11579                           	
 11580  00BB'                    l9711:	
 11581  00BB' 3011               	movlw	(011h)
 11582  00BC' 00B7'              	movwf	(??___flmul+0)+0
 11583  00BD' 0837'              	movf	(??___flmul+0)+0,w
 11584  00BE' 00C1'              	movwf	(___flmul@cntr)
 11585  00BF' 2800'              	goto	l9713
 11586                           	line	76
 11587                           	
 11588  00C0'                    l4116:	
 11589                           	line	77
 11590                           	
 11591  00C0'                    l9713:	
 11592  00C0' 1C2F'              	btfss	(___flmul@f1),(0)&7
 11593  00C1' 2800'              	goto	u6191
 11594  00C2' 2800'              	goto	u6190
 11595  00C3'                    u6191:
 11596  00C3' 2800'              	goto	l9717
 11597  00C4'                    u6190:
 11598                           	line	78
 11599                           	
 11600  00C4'                    l9715:	
 11601  00C4' 0833'              	movf	(___flmul@f2),w
 11602  00C5' 07BD'              	addwf	(___flmul@f3_as_product),f
 11603  00C6' 0834'              	movf	(___flmul@f2+1),w
 11604  00C7' 1103               	clrz
 11605  00C8' 1803               	skipnc
 11606  00C9' 3E01               	addlw	1
 11607  00CA' 1903               	skipnz
 11608  00CB' 2800'              	goto	u6201
 11609  00CC' 07BE'              	addwf	(___flmul@f3_as_product+1),f
 11610  00CD'                    u6201:
 11611  00CD' 0835'              	movf	(___flmul@f2+2),w
 11612  00CE' 1103               	clrz
 11613  00CF' 1803               	skipnc
 11614  00D0' 3E01               	addlw	1
 11615  00D1' 1903               	skipnz
 11616  00D2' 2800'              	goto	u6202
 11617  00D3' 07BF'              	addwf	(___flmul@f3_as_product+2),f
 11618  00D4'                    u6202:
 11619  00D4' 0836'              	movf	(___flmul@f2+3),w
 11620  00D5' 1103               	clrz
 11621  00D6' 1803               	skipnc
 11622  00D7' 3E01               	addlw	1
 11623  00D8' 1903               	skipnz
 11624  00D9' 2800'              	goto	u6203
 11625  00DA' 07C0'              	addwf	(___flmul@f3_as_product+3),f
 11626  00DB'                    u6203:
 11627                           
 11628  00DB' 2800'              	goto	l9717
 11629                           	
 11630  00DC'                    l4117:	
 11631                           	line	79
 11632                           	
 11633  00DC'                    l9717:	
 11634  00DC' 3001               	movlw	01h
 11635  00DD'                    u6215:
 11636  00DD' 1003               	clrc
 11637  00DE' 0CB2'              	rrf	(___flmul@f1+3),f
 11638  00DF' 0CB1'              	rrf	(___flmul@f1+2),f
 11639  00E0' 0CB0'              	rrf	(___flmul@f1+1),f
 11640  00E1' 0CAF'              	rrf	(___flmul@f1),f
 11641  00E2' 3EFF               	addlw	-1
 11642  00E3' 1D03               	skipz
 11643  00E4' 2800'              	goto	u6215
 11644                           
 11645                           	line	80
 11646                           	
 11647  00E5'                    l9719:	
 11648  00E5' 3001               	movlw	01h
 11649  00E6'                    u6225:
 11650  00E6' 1003               	clrc
 11651  00E7' 0CC0'              	rrf	(___flmul@f3_as_product+3),f
 11652  00E8' 0CBF'              	rrf	(___flmul@f3_as_product+2),f
 11653  00E9' 0CBE'              	rrf	(___flmul@f3_as_product+1),f
 11654  00EA' 0CBD'              	rrf	(___flmul@f3_as_product),f
 11655  00EB' 3EFF               	addlw	-1
 11656  00EC' 1D03               	skipz
 11657  00ED' 2800'              	goto	u6225
 11658                           
 11659                           	line	81
 11660                           	
 11661  00EE'                    l9721:	
 11662  00EE' 3001               	movlw	low(01h)
 11663  00EF' 02C1'              	subwf	(___flmul@cntr),f
 11664  00F0' 1D03               	btfss	status,2
 11665  00F1' 2800'              	goto	u6231
 11666  00F2' 2800'              	goto	u6230
 11667  00F3'                    u6231:
 11668  00F3' 2800'              	goto	l9713
 11669  00F4'                    u6230:
 11670  00F4' 2800'              	goto	l9723
 11671                           	
 11672  00F5'                    l4118:	
 11673                           	line	82
 11674                           	
 11675  00F5'                    l9723:	
 11676  00F5' 0840'              	movf	(___flmul@f3_as_product+3),w
 11677  00F6' 0083'              	movwf	(?___flpack+3)
 11678  00F7' 083F'              	movf	(___flmul@f3_as_product+2),w
 11679  00F8' 0082'              	movwf	(?___flpack+2)
 11680  00F9' 083E'              	movf	(___flmul@f3_as_product+1),w
 11681  00FA' 0081'              	movwf	(?___flpack+1)
 11682  00FB' 083D'              	movf	(___flmul@f3_as_product),w
 11683  00FC' 0080'              	movwf	(?___flpack)
 11684                           
 11685  00FD' 083C'              	movf	(___flmul@exp),w
 11686  00FE' 00B7'              	movwf	(??___flmul+0)+0
 11687  00FF' 0837'              	movf	(??___flmul+0)+0,w
 11688  0100' 0084'              	movwf	0+(?___flpack)+04h
 11689  0101' 0842'              	movf	(___flmul@sign),w
 11690  0102' 00B8'              	movwf	(??___flmul+1)+0
 11691  0103' 0838'              	movf	(??___flmul+1)+0,w
 11692  0104' 0085'              	movwf	0+(?___flpack)+05h
 11693  0105' 120A' 118A' 2000'  	fcall	___flpack
              120A' 118A'        
 11694  010A' 1283               	bcf	status, 5	;RP0=0, select bank0
 11695  010B' 1303               	bcf	status, 6	;RP1=0, select bank0
 11696  010C' 0803'              	movf	(3+(?___flpack)),w
 11697  010D' 00B2'              	movwf	(?___flmul+3)
 11698  010E' 0802'              	movf	(2+(?___flpack)),w
 11699  010F' 00B1'              	movwf	(?___flmul+2)
 11700  0110' 0801'              	movf	(1+(?___flpack)),w
 11701  0111' 00B0'              	movwf	(?___flmul+1)
 11702  0112' 0800'              	movf	(0+(?___flpack)),w
 11703  0113' 00AF'              	movwf	(?___flmul)
 11704                           
 11705  0114' 2800'              	goto	l4111
 11706                           	
 11707  0115'                    l9725:	
 11708                           	line	83
 11709                           	
 11710  0115'                    l4111:	
 11711  0115' 0008               	return
 11712                           	opt stack 0
 11713                           GLOBAL	__end_of___flmul
 11714  0116'                    	__end_of___flmul:
 11715 ;; =============== function ___flmul ends ============
 11716                           
 11717                           	signat	___flmul,8316
 11718                           	global	___fldiv
 11719                           psect	text1456,local,class=CODE,delta=2
 11720                           global __ptext1456
 11721  0000'                    __ptext1456:
 11722                           
 11723 ;; *************** function ___fldiv *****************
 11724 ;; Defined at:
 11725 ;;		line 50 in file "/opt/hitech/picc/9.83/sources/fldiv.c"
 11726 ;; Parameters:    Size  Location     Type
 11727 ;;  f2              4   27[BANK0 ] unsigned char 
 11728 ;;  f1              4   31[BANK0 ] unsigned char 
 11729 ;; Auto vars:     Size  Location     Type
 11730 ;;  f3              4   40[BANK0 ] unsigned char 
 11731 ;;  sign            1   46[BANK0 ] unsigned char 
 11732 ;;  exp             1   45[BANK0 ] unsigned char 
 11733 ;;  cntr            1   44[BANK0 ] unsigned char 
 11734 ;; Return value:  Size  Location     Type
 11735 ;;                  4   27[BANK0 ] unsigned char 
 11736 ;; Registers used:
 11737 ;;		wreg, status,2, status,0, pclath, cstack
 11738 ;; Tracked objects:
 11739 ;;		On entry : 0/0
 11740 ;;		On exit  : 0/0
 11741 ;;		Unchanged: 0/0
 11742 ;; Data sizes:     COMMON   BANK0   BANK1   BANK3   BANK2
 11743 ;;      Params:         0       8       0       0       0
 11744 ;;      Locals:         0       7       0       0       0
 11745 ;;      Temps:          0       5       0       0       0
 11746 ;;      Totals:         0      20       0       0       0
 11747 ;;Total ram usage:       20 bytes
 11748 ;; Hardware stack levels used:    1
 11749 ;; Hardware stack levels required when called:    2
 11750 ;; This function calls:
 11751 ;;		___flpack
 11752 ;; This function is called by:
 11753 ;;		_format_double
 11754 ;;		_measure_capacitance
 11755 ;;		_measure_inductance
 11756 ;;		_exp
 11757 ;;		_format_float
 11758 ;; This function uses a non-reentrant model
 11759 ;;
 11760                           psect	text1456
 11761                           	file	"/opt/hitech/picc/9.83/sources/fldiv.c"
 11762                           	line	50
 11763                           	global	__size_of___fldiv
 11764  00E2                     	__size_of___fldiv	equ	__end_of___fldiv-___fldiv
 11765                           	
 11766  0000'                    ___fldiv:	
 11767                           	opt	stack 4
 11768                           ; Regs used in ___fldiv: [wreg+status,2+status,0+pclath+cstack]
 11769                           	line	55
 11770                           	
 11771  0000'                    l9639:	
 11772  0000' 1283               	bcf	status, 5	;RP0=0, select bank0
 11773  0001' 1303               	bcf	status, 6	;RP1=0, select bank0
 11774  0002' 081F'              	movf	(___fldiv@f1),w
 11775  0003' 00A3'              	movwf	(??___fldiv+0)+0
 11776  0004' 0820'              	movf	(___fldiv@f1+1),w
 11777  0005' 00A4'              	movwf	((??___fldiv+0)+0+1)
 11778  0006' 0821'              	movf	(___fldiv@f1+2),w
 11779  0007' 00A5'              	movwf	((??___fldiv+0)+0+2)
 11780  0008' 0822'              	movf	(___fldiv@f1+3),w
 11781  0009' 00A6'              	movwf	((??___fldiv+0)+0+3)
 11782  000A' 1003               	clrc
 11783  000B' 0D25'              	rlf	(??___fldiv+0)+2,w
 11784  000C' 0D26'              	rlf	(??___fldiv+0)+3,w
 11785  000D' 00A7'              	movwf	(??___fldiv+4)+0
 11786  000E' 0827'              	movf	(??___fldiv+4)+0,w
 11787  000F' 00AD'              	movwf	(___fldiv@exp)
 11788  0010' 08AD'              	movf	((___fldiv@exp)),f
 11789  0011' 1D03               	skipz
 11790  0012' 2800'              	goto	u6021
 11791  0013' 2800'              	goto	u6020
 11792  0014'                    u6021:
 11793  0014' 2800'              	goto	l9645
 11794  0015'                    u6020:
 11795                           	line	56
 11796                           	
 11797  0015'                    l9641:	
 11798  0015' 3000               	movlw	0x0
 11799  0016' 009E'              	movwf	(?___fldiv+3)
 11800  0017' 3000               	movlw	0x0
 11801  0018' 009D'              	movwf	(?___fldiv+2)
 11802  0019' 3000               	movlw	0x0
 11803  001A' 009C'              	movwf	(?___fldiv+1)
 11804  001B' 3000               	movlw	0x0
 11805  001C' 009B'              	movwf	(?___fldiv)
 11806                           
 11807  001D' 2800'              	goto	l4101
 11808                           	
 11809  001E'                    l9643:	
 11810  001E' 2800'              	goto	l4101
 11811                           	
 11812  001F'                    l4100:	
 11813                           	line	57
 11814                           	
 11815  001F'                    l9645:	
 11816  001F' 081B'              	movf	(___fldiv@f2),w
 11817  0020' 00A3'              	movwf	(??___fldiv+0)+0
 11818  0021' 081C'              	movf	(___fldiv@f2+1),w
 11819  0022' 00A4'              	movwf	((??___fldiv+0)+0+1)
 11820  0023' 081D'              	movf	(___fldiv@f2+2),w
 11821  0024' 00A5'              	movwf	((??___fldiv+0)+0+2)
 11822  0025' 081E'              	movf	(___fldiv@f2+3),w
 11823  0026' 00A6'              	movwf	((??___fldiv+0)+0+3)
 11824  0027' 1003               	clrc
 11825  0028' 0D25'              	rlf	(??___fldiv+0)+2,w
 11826  0029' 0D26'              	rlf	(??___fldiv+0)+3,w
 11827  002A' 00A7'              	movwf	(??___fldiv+4)+0
 11828  002B' 0827'              	movf	(??___fldiv+4)+0,w
 11829  002C' 00AE'              	movwf	(___fldiv@sign)
 11830  002D' 08AE'              	movf	((___fldiv@sign)),f
 11831  002E' 1D03               	skipz
 11832  002F' 2800'              	goto	u6031
 11833  0030' 2800'              	goto	u6030
 11834  0031'                    u6031:
 11835  0031' 2800'              	goto	l9651
 11836  0032'                    u6030:
 11837                           	line	58
 11838                           	
 11839  0032'                    l9647:	
 11840  0032' 3000               	movlw	0x0
 11841  0033' 009E'              	movwf	(?___fldiv+3)
 11842  0034' 3000               	movlw	0x0
 11843  0035' 009D'              	movwf	(?___fldiv+2)
 11844  0036' 3000               	movlw	0x0
 11845  0037' 009C'              	movwf	(?___fldiv+1)
 11846  0038' 3000               	movlw	0x0
 11847  0039' 009B'              	movwf	(?___fldiv)
 11848                           
 11849  003A' 2800'              	goto	l4101
 11850                           	
 11851  003B'                    l9649:	
 11852  003B' 2800'              	goto	l4101
 11853                           	
 11854  003C'                    l4102:	
 11855                           	line	59
 11856                           	
 11857  003C'                    l9651:	
 11858  003C' 3089               	movlw	(089h)
 11859  003D' 072E'              	addwf	(___fldiv@sign),w
 11860  003E' 00A3'              	movwf	(??___fldiv+0)+0
 11861  003F' 0823'              	movf	0+(??___fldiv+0)+0,w
 11862  0040' 02AD'              	subwf	(___fldiv@exp),f
 11863                           	line	60
 11864  0041' 081F'              	movf	(___fldiv@f1),w
 11865  0042' 00A3'              	movwf	(??___fldiv+0)+0
 11866  0043' 0820'              	movf	(___fldiv@f1+1),w
 11867  0044' 00A4'              	movwf	((??___fldiv+0)+0+1)
 11868  0045' 0821'              	movf	(___fldiv@f1+2),w
 11869  0046' 00A5'              	movwf	((??___fldiv+0)+0+2)
 11870  0047' 0822'              	movf	(___fldiv@f1+3),w
 11871  0048' 00A6'              	movwf	((??___fldiv+0)+0+3)
 11872  0049' 3018               	movlw	018h
 11873  004A'                    u6045:
 11874  004A' 1003               	clrc
 11875  004B' 0CA6'              	rrf	(??___fldiv+0)+3,f
 11876  004C' 0CA5'              	rrf	(??___fldiv+0)+2,f
 11877  004D' 0CA4'              	rrf	(??___fldiv+0)+1,f
 11878  004E' 0CA3'              	rrf	(??___fldiv+0)+0,f
 11879  004F'                    u6040:
 11880  004F' 3EFF               	addlw	-1
 11881  0050' 1D03               	skipz
 11882  0051' 2800'              	goto	u6045
 11883  0052' 0823'              	movf	0+(??___fldiv+0)+0,w
 11884  0053' 00A7'              	movwf	(??___fldiv+4)+0
 11885  0054' 0827'              	movf	(??___fldiv+4)+0,w
 11886  0055' 00AE'              	movwf	(___fldiv@sign)
 11887                           	line	61
 11888  0056' 081B'              	movf	(___fldiv@f2),w
 11889  0057' 00A3'              	movwf	(??___fldiv+0)+0
 11890  0058' 081C'              	movf	(___fldiv@f2+1),w
 11891  0059' 00A4'              	movwf	((??___fldiv+0)+0+1)
 11892  005A' 081D'              	movf	(___fldiv@f2+2),w
 11893  005B' 00A5'              	movwf	((??___fldiv+0)+0+2)
 11894  005C' 081E'              	movf	(___fldiv@f2+3),w
 11895  005D' 00A6'              	movwf	((??___fldiv+0)+0+3)
 11896  005E' 3018               	movlw	018h
 11897  005F'                    u6055:
 11898  005F' 1003               	clrc
 11899  0060' 0CA6'              	rrf	(??___fldiv+0)+3,f
 11900  0061' 0CA5'              	rrf	(??___fldiv+0)+2,f
 11901  0062' 0CA4'              	rrf	(??___fldiv+0)+1,f
 11902  0063' 0CA3'              	rrf	(??___fldiv+0)+0,f
 11903  0064'                    u6050:
 11904  0064' 3EFF               	addlw	-1
 11905  0065' 1D03               	skipz
 11906  0066' 2800'              	goto	u6055
 11907  0067' 0823'              	movf	0+(??___fldiv+0)+0,w
 11908  0068' 00A7'              	movwf	(??___fldiv+4)+0
 11909  0069' 0827'              	movf	(??___fldiv+4)+0,w
 11910  006A' 06AE'              	xorwf	(___fldiv@sign),f
 11911                           	line	62
 11912  006B' 3080               	movlw	(080h)
 11913  006C' 00A3'              	movwf	(??___fldiv+0)+0
 11914  006D' 0823'              	movf	(??___fldiv+0)+0,w
 11915  006E' 05AE'              	andwf	(___fldiv@sign),f
 11916                           	line	63
 11917                           	
 11918  006F'                    l9653:	
 11919  006F' 17A1'              	bsf	(___fldiv@f1)+(23/8),(23)&7
 11920                           	line	64
 11921                           	
 11922  0070'                    l9655:	
 11923  0070' 30FF               	movlw	0FFh
 11924  0071' 059F'              	andwf	(___fldiv@f1),f
 11925  0072' 30FF               	movlw	0FFh
 11926  0073' 05A0'              	andwf	(___fldiv@f1+1),f
 11927  0074' 30FF               	movlw	0FFh
 11928  0075' 05A1'              	andwf	(___fldiv@f1+2),f
 11929  0076' 3000               	movlw	0
 11930  0077' 05A2'              	andwf	(___fldiv@f1+3),f
 11931                           	line	65
 11932                           	
 11933  0078'                    l9657:	
 11934  0078' 179D'              	bsf	(___fldiv@f2)+(23/8),(23)&7
 11935                           	line	66
 11936                           	
 11937  0079'                    l9659:	
 11938  0079' 30FF               	movlw	0FFh
 11939  007A' 059B'              	andwf	(___fldiv@f2),f
 11940  007B' 30FF               	movlw	0FFh
 11941  007C' 059C'              	andwf	(___fldiv@f2+1),f
 11942  007D' 30FF               	movlw	0FFh
 11943  007E' 059D'              	andwf	(___fldiv@f2+2),f
 11944  007F' 3000               	movlw	0
 11945  0080' 059E'              	andwf	(___fldiv@f2+3),f
 11946                           	line	67
 11947                           	
 11948  0081'                    l9661:	
 11949  0081' 3020               	movlw	(020h)
 11950  0082' 00A3'              	movwf	(??___fldiv+0)+0
 11951  0083' 0823'              	movf	(??___fldiv+0)+0,w
 11952  0084' 00AC'              	movwf	(___fldiv@cntr)
 11953  0085' 2800'              	goto	l9663
 11954                           	line	68
 11955                           	
 11956  0086'                    l4103:	
 11957                           	line	69
 11958                           	
 11959  0086'                    l9663:	
 11960  0086' 3001               	movlw	01h
 11961  0087' 00A3'              	movwf	(??___fldiv+0)+0
 11962  0088'                    u6065:
 11963  0088' 1003               	clrc
 11964  0089' 0DA8'              	rlf	(___fldiv@f3),f
 11965  008A' 0DA9'              	rlf	(___fldiv@f3+1),f
 11966  008B' 0DAA'              	rlf	(___fldiv@f3+2),f
 11967  008C' 0DAB'              	rlf	(___fldiv@f3+3),f
 11968  008D' 0BA3'              	decfsz	(??___fldiv+0)+0
 11969  008E' 2800'              	goto	u6065
 11970                           	line	70
 11971  008F' 081E'              	movf	(___fldiv@f2+3),w
 11972  0090' 0222'              	subwf	(___fldiv@f1+3),w
 11973  0091' 1D03               	skipz
 11974  0092' 2800'              	goto	u6075
 11975  0093' 081D'              	movf	(___fldiv@f2+2),w
 11976  0094' 0221'              	subwf	(___fldiv@f1+2),w
 11977  0095' 1D03               	skipz
 11978  0096' 2800'              	goto	u6075
 11979  0097' 081C'              	movf	(___fldiv@f2+1),w
 11980  0098' 0220'              	subwf	(___fldiv@f1+1),w
 11981  0099' 1D03               	skipz
 11982  009A' 2800'              	goto	u6075
 11983  009B' 081B'              	movf	(___fldiv@f2),w
 11984  009C' 021F'              	subwf	(___fldiv@f1),w
 11985  009D'                    u6075:
 11986  009D' 1C03               	skipc
 11987  009E' 2800'              	goto	u6071
 11988  009F' 2800'              	goto	u6070
 11989  00A0'                    u6071:
 11990  00A0' 2800'              	goto	l9669
 11991  00A1'                    u6070:
 11992                           	line	71
 11993                           	
 11994  00A1'                    l9665:	
 11995  00A1' 081B'              	movf	(___fldiv@f2),w
 11996  00A2' 029F'              	subwf	(___fldiv@f1),f
 11997  00A3' 081C'              	movf	(___fldiv@f2+1),w
 11998  00A4' 1C03               	skipc
 11999  00A5' 0F1C'              	incfsz	(___fldiv@f2+1),w
 12000  00A6' 02A0'              	subwf	(___fldiv@f1+1),f
 12001  00A7' 081D'              	movf	(___fldiv@f2+2),w
 12002  00A8' 1C03               	skipc
 12003  00A9' 0F1D'              	incfsz	(___fldiv@f2+2),w
 12004  00AA' 02A1'              	subwf	(___fldiv@f1+2),f
 12005  00AB' 081E'              	movf	(___fldiv@f2+3),w
 12006  00AC' 1C03               	skipc
 12007  00AD' 0F1E'              	incfsz	(___fldiv@f2+3),w
 12008  00AE' 02A2'              	subwf	(___fldiv@f1+3),f
 12009                           	line	72
 12010                           	
 12011  00AF'                    l9667:	
 12012  00AF' 1428'              	bsf	(___fldiv@f3)+(0/8),(0)&7
 12013  00B0' 2800'              	goto	l9669
 12014                           	line	73
 12015                           	
 12016  00B1'                    l4104:	
 12017                           	line	74
 12018                           	
 12019  00B1'                    l9669:	
 12020  00B1' 3001               	movlw	01h
 12021  00B2' 00A3'              	movwf	(??___fldiv+0)+0
 12022  00B3'                    u6085:
 12023  00B3' 1003               	clrc
 12024  00B4' 0D9F'              	rlf	(___fldiv@f1),f
 12025  00B5' 0DA0'              	rlf	(___fldiv@f1+1),f
 12026  00B6' 0DA1'              	rlf	(___fldiv@f1+2),f
 12027  00B7' 0DA2'              	rlf	(___fldiv@f1+3),f
 12028  00B8' 0BA3'              	decfsz	(??___fldiv+0)+0
 12029  00B9' 2800'              	goto	u6085
 12030                           	line	75
 12031                           	
 12032  00BA'                    l9671:	
 12033  00BA' 3001               	movlw	low(01h)
 12034  00BB' 02AC'              	subwf	(___fldiv@cntr),f
 12035  00BC' 1D03               	btfss	status,2
 12036  00BD' 2800'              	goto	u6091
 12037  00BE' 2800'              	goto	u6090
 12038  00BF'                    u6091:
 12039  00BF' 2800'              	goto	l9663
 12040  00C0'                    u6090:
 12041  00C0' 2800'              	goto	l9673
 12042                           	
 12043  00C1'                    l4105:	
 12044                           	line	76
 12045                           	
 12046  00C1'                    l9673:	
 12047  00C1' 082B'              	movf	(___fldiv@f3+3),w
 12048  00C2' 0083'              	movwf	(?___flpack+3)
 12049  00C3' 082A'              	movf	(___fldiv@f3+2),w
 12050  00C4' 0082'              	movwf	(?___flpack+2)
 12051  00C5' 0829'              	movf	(___fldiv@f3+1),w
 12052  00C6' 0081'              	movwf	(?___flpack+1)
 12053  00C7' 0828'              	movf	(___fldiv@f3),w
 12054  00C8' 0080'              	movwf	(?___flpack)
 12055                           
 12056  00C9' 082D'              	movf	(___fldiv@exp),w
 12057  00CA' 00A3'              	movwf	(??___fldiv+0)+0
 12058  00CB' 0823'              	movf	(??___fldiv+0)+0,w
 12059  00CC' 0084'              	movwf	0+(?___flpack)+04h
 12060  00CD' 082E'              	movf	(___fldiv@sign),w
 12061  00CE' 00A4'              	movwf	(??___fldiv+1)+0
 12062  00CF' 0824'              	movf	(??___fldiv+1)+0,w
 12063  00D0' 0085'              	movwf	0+(?___flpack)+05h
 12064  00D1' 120A' 118A' 2000'  	fcall	___flpack
              120A' 118A'        
 12065  00D6' 1283               	bcf	status, 5	;RP0=0, select bank0
 12066  00D7' 1303               	bcf	status, 6	;RP1=0, select bank0
 12067  00D8' 0803'              	movf	(3+(?___flpack)),w
 12068  00D9' 009E'              	movwf	(?___fldiv+3)
 12069  00DA' 0802'              	movf	(2+(?___flpack)),w
 12070  00DB' 009D'              	movwf	(?___fldiv+2)
 12071  00DC' 0801'              	movf	(1+(?___flpack)),w
 12072  00DD' 009C'              	movwf	(?___fldiv+1)
 12073  00DE' 0800'              	movf	(0+(?___flpack)),w
 12074  00DF' 009B'              	movwf	(?___fldiv)
 12075                           
 12076  00E0' 2800'              	goto	l4101
 12077                           	
 12078  00E1'                    l9675:	
 12079                           	line	77
 12080                           	
 12081  00E1'                    l4101:	
 12082  00E1' 0008               	return
 12083                           	opt stack 0
 12084                           GLOBAL	__end_of___fldiv
 12085  00E2'                    	__end_of___fldiv:
 12086 ;; =============== function ___fldiv ends ============
 12087                           
 12088                           	signat	___fldiv,8316
 12089                           	global	___fladd
 12090                           psect	text1457,local,class=CODE,delta=2
 12091                           global __ptext1457
 12092  0000'                    __ptext1457:
 12093                           
 12094 ;; *************** function ___fladd *****************
 12095 ;; Defined at:
 12096 ;;		line 89 in file "/opt/hitech/picc/9.83/sources/fladd.c"
 12097 ;; Parameters:    Size  Location     Type
 12098 ;;  f1              4   67[BANK0 ] unsigned char 
 12099 ;;  f2              4   71[BANK0 ] unsigned char 
 12100 ;; Auto vars:     Size  Location     Type
 12101 ;;  exp1            1    2[BANK1 ] unsigned char 
 12102 ;;  exp2            1    1[BANK1 ] unsigned char 
 12103 ;;  sign            1    0[BANK1 ] unsigned char 
 12104 ;; Return value:  Size  Location     Type
 12105 ;;                  4   67[BANK0 ] unsigned char 
 12106 ;; Registers used:
 12107 ;;		wreg, status,2, status,0, pclath, cstack
 12108 ;; Tracked objects:
 12109 ;;		On entry : 0/0
 12110 ;;		On exit  : 0/0
 12111 ;;		Unchanged: 0/0
 12112 ;; Data sizes:     COMMON   BANK0   BANK1   BANK3   BANK2
 12113 ;;      Params:         0       8       0       0       0
 12114 ;;      Locals:         0       0       3       0       0
 12115 ;;      Temps:          0       5       0       0       0
 12116 ;;      Totals:         0      13       3       0       0
 12117 ;;Total ram usage:       16 bytes
 12118 ;; Hardware stack levels used:    1
 12119 ;; Hardware stack levels required when called:    2
 12120 ;; This function calls:
 12121 ;;		___flpack
 12122 ;; This function is called by:
 12123 ;;		_measure_capacitance
 12124 ;;		_measure_inductance
 12125 ;;		_floor
 12126 ;;		_log
 12127 ;;		___flsub
 12128 ;;		_eval_poly
 12129 ;; This function uses a non-reentrant model
 12130 ;;
 12131                           psect	text1457
 12132                           	file	"/opt/hitech/picc/9.83/sources/fladd.c"
 12133                           	line	89
 12134                           	global	__size_of___fladd
 12135  01B0                     	__size_of___fladd	equ	__end_of___fladd-___fladd
 12136                           	
 12137  0000'                    ___fladd:	
 12138                           	opt	stack 4
 12139                           ; Regs used in ___fladd: [wreg+status,2+status,0+pclath+cstack]
 12140                           	line	92
 12141                           	
 12142  0000'                    l9569:	
 12143  0000' 1283               	bcf	status, 5	;RP0=0, select bank0
 12144  0001' 1303               	bcf	status, 6	;RP1=0, select bank0
 12145  0002' 0843'              	movf	(___fladd@f1),w
 12146  0003' 00CB'              	movwf	(??___fladd+0)+0
 12147  0004' 0844'              	movf	(___fladd@f1+1),w
 12148  0005' 00CC'              	movwf	((??___fladd+0)+0+1)
 12149  0006' 0845'              	movf	(___fladd@f1+2),w
 12150  0007' 00CD'              	movwf	((??___fladd+0)+0+2)
 12151  0008' 0846'              	movf	(___fladd@f1+3),w
 12152  0009' 00CE'              	movwf	((??___fladd+0)+0+3)
 12153  000A' 1003               	clrc
 12154  000B' 0D4D'              	rlf	(??___fladd+0)+2,w
 12155  000C' 0D4E'              	rlf	(??___fladd+0)+3,w
 12156  000D' 00CF'              	movwf	(??___fladd+4)+0
 12157  000E' 084F'              	movf	(??___fladd+4)+0,w
 12158  000F' 1683               	bsf	status, 5	;RP0=1, select bank1
 12159  0010' 1303               	bcf	status, 6	;RP1=0, select bank1
 12160  0011' 0080'              	movwf	(___fladd@exp1)^080h
 12161                           	line	93
 12162  0012' 1283               	bcf	status, 5	;RP0=0, select bank0
 12163  0013' 1303               	bcf	status, 6	;RP1=0, select bank0
 12164  0014' 0847'              	movf	(___fladd@f2),w
 12165  0015' 00CB'              	movwf	(??___fladd+0)+0
 12166  0016' 0848'              	movf	(___fladd@f2+1),w
 12167  0017' 00CC'              	movwf	((??___fladd+0)+0+1)
 12168  0018' 0849'              	movf	(___fladd@f2+2),w
 12169  0019' 00CD'              	movwf	((??___fladd+0)+0+2)
 12170  001A' 084A'              	movf	(___fladd@f2+3),w
 12171  001B' 00CE'              	movwf	((??___fladd+0)+0+3)
 12172  001C' 1003               	clrc
 12173  001D' 0D4D'              	rlf	(??___fladd+0)+2,w
 12174  001E' 0D4E'              	rlf	(??___fladd+0)+3,w
 12175  001F' 00CF'              	movwf	(??___fladd+4)+0
 12176  0020' 084F'              	movf	(??___fladd+4)+0,w
 12177  0021' 1683               	bsf	status, 5	;RP0=1, select bank1
 12178  0022' 1303               	bcf	status, 6	;RP1=0, select bank1
 12179  0023' 0080'              	movwf	(___fladd@exp2)^080h
 12180                           	line	94
 12181                           	
 12182  0024'                    l9571:	
 12183  0024' 0800'              	movf	(___fladd@exp1)^080h,w
 12184  0025' 1D03               	skipz
 12185  0026' 2800'              	goto	u5780
 12186  0027' 2800'              	goto	l9577
 12187  0028'                    u5780:
 12188                           	
 12189  0028'                    l9573:	
 12190  0028' 0800'              	movf	(___fladd@exp2)^080h,w
 12191  0029' 0200'              	subwf	(___fladd@exp1)^080h,w
 12192  002A' 1803               	skipnc
 12193  002B' 2800'              	goto	u5791
 12194  002C' 2800'              	goto	u5790
 12195  002D'                    u5791:
 12196  002D' 2800'              	goto	l9581
 12197  002E'                    u5790:
 12198                           	
 12199  002E'                    l9575:	
 12200  002E' 0300'              	decf	(___fladd@exp1)^080h,w
 12201  002F' 3AFF               	xorlw	0ffh
 12202  0030' 0700'              	addwf	(___fladd@exp2)^080h,w
 12203  0031' 1283               	bcf	status, 5	;RP0=0, select bank0
 12204  0032' 1303               	bcf	status, 6	;RP1=0, select bank0
 12205  0033' 00CB'              	movwf	(??___fladd+0)+0
 12206  0034' 3021               	movlw	(021h)
 12207  0035' 024B'              	subwf	0+(??___fladd+0)+0,w
 12208  0036' 1C03               	skipc
 12209  0037' 2800'              	goto	u5801
 12210  0038' 2800'              	goto	u5800
 12211  0039'                    u5801:
 12212  0039' 2800'              	goto	l9581
 12213  003A'                    u5800:
 12214  003A' 2800'              	goto	l9577
 12215                           	
 12216  003B'                    l4064:	
 12217                           	line	95
 12218                           	
 12219  003B'                    l9577:	
 12220  003B' 1283               	bcf	status, 5	;RP0=0, select bank0
 12221  003C' 084A'              	movf	(___fladd@f2+3),w
 12222  003D' 00C6'              	movwf	(?___fladd+3)
 12223  003E' 0849'              	movf	(___fladd@f2+2),w
 12224  003F' 00C5'              	movwf	(?___fladd+2)
 12225  0040' 0848'              	movf	(___fladd@f2+1),w
 12226  0041' 00C4'              	movwf	(?___fladd+1)
 12227  0042' 0847'              	movf	(___fladd@f2),w
 12228  0043' 00C3'              	movwf	(?___fladd)
 12229                           
 12230  0044' 2800'              	goto	l4065
 12231                           	
 12232  0045'                    l9579:	
 12233  0045' 2800'              	goto	l4065
 12234                           	
 12235  0046'                    l4062:	
 12236                           	line	96
 12237                           	
 12238  0046'                    l9581:	
 12239  0046' 1683               	bsf	status, 5	;RP0=1, select bank1
 12240  0047' 1303               	bcf	status, 6	;RP1=0, select bank1
 12241  0048' 0800'              	movf	(___fladd@exp2)^080h,w
 12242  0049' 1D03               	skipz
 12243  004A' 2800'              	goto	u5810
 12244  004B' 2800'              	goto	l4068
 12245  004C'                    u5810:
 12246                           	
 12247  004C'                    l9583:	
 12248  004C' 0800'              	movf	(___fladd@exp1)^080h,w
 12249  004D' 0200'              	subwf	(___fladd@exp2)^080h,w
 12250  004E' 1803               	skipnc
 12251  004F' 2800'              	goto	u5821
 12252  0050' 2800'              	goto	u5820
 12253  0051'                    u5821:
 12254  0051' 2800'              	goto	l9587
 12255  0052'                    u5820:
 12256                           	
 12257  0052'                    l9585:	
 12258  0052' 0300'              	decf	(___fladd@exp2)^080h,w
 12259  0053' 3AFF               	xorlw	0ffh
 12260  0054' 0700'              	addwf	(___fladd@exp1)^080h,w
 12261  0055' 1283               	bcf	status, 5	;RP0=0, select bank0
 12262  0056' 1303               	bcf	status, 6	;RP1=0, select bank0
 12263  0057' 00CB'              	movwf	(??___fladd+0)+0
 12264  0058' 3021               	movlw	(021h)
 12265  0059' 024B'              	subwf	0+(??___fladd+0)+0,w
 12266  005A' 1C03               	skipc
 12267  005B' 2800'              	goto	u5831
 12268  005C' 2800'              	goto	u5830
 12269  005D'                    u5831:
 12270  005D' 2800'              	goto	l9587
 12271  005E'                    u5830:
 12272                           	
 12273  005E'                    l4068:	
 12274                           	line	97
 12275  005E' 2800'              	goto	l4065
 12276                           	
 12277  005F'                    l4066:	
 12278                           	line	98
 12279                           	
 12280  005F'                    l9587:	
 12281  005F' 3006               	movlw	(06h)
 12282  0060' 1283               	bcf	status, 5	;RP0=0, select bank0
 12283  0061' 00CB'              	movwf	(??___fladd+0)+0
 12284  0062' 084B'              	movf	(??___fladd+0)+0,w
 12285  0063' 1683               	bsf	status, 5	;RP0=1, select bank1
 12286  0064' 1303               	bcf	status, 6	;RP1=0, select bank1
 12287  0065' 0080'              	movwf	(___fladd@sign)^080h
 12288                           	line	99
 12289                           	
 12290  0066'                    l9589:	
 12291  0066' 1283               	bcf	status, 5	;RP0=0, select bank0
 12292  0067' 1303               	bcf	status, 6	;RP1=0, select bank0
 12293  0068' 1FC6'              	btfss	(___fladd@f1+3),(31)&7
 12294  0069' 2800'              	goto	u5841
 12295  006A' 2800'              	goto	u5840
 12296  006B'                    u5841:
 12297  006B' 2800'              	goto	l4069
 12298  006C'                    u5840:
 12299                           	line	100
 12300                           	
 12301  006C'                    l9591:	
 12302  006C' 1683               	bsf	status, 5	;RP0=1, select bank1
 12303  006D' 1303               	bcf	status, 6	;RP1=0, select bank1
 12304  006E' 1780'              	bsf	(___fladd@sign)^080h+(7/8),(7)&7
 12305                           	
 12306  006F'                    l4069:	
 12307                           	line	101
 12308  006F' 1283               	bcf	status, 5	;RP0=0, select bank0
 12309  0070' 1FCA'              	btfss	(___fladd@f2+3),(31)&7
 12310  0071' 2800'              	goto	u5851
 12311  0072' 2800'              	goto	u5850
 12312  0073'                    u5851:
 12313  0073' 2800'              	goto	l4070
 12314  0074'                    u5850:
 12315                           	line	102
 12316                           	
 12317  0074'                    l9593:	
 12318  0074' 1683               	bsf	status, 5	;RP0=1, select bank1
 12319  0075' 1303               	bcf	status, 6	;RP1=0, select bank1
 12320  0076' 1700'              	bsf	(___fladd@sign)^080h+(6/8),(6)&7
 12321                           	
 12322  0077'                    l4070:	
 12323                           	line	103
 12324  0077' 1283               	bcf	status, 5	;RP0=0, select bank0
 12325  0078' 17C5'              	bsf	(___fladd@f1)+(23/8),(23)&7
 12326                           	line	104
 12327                           	
 12328  0079'                    l9595:	
 12329  0079' 30FF               	movlw	0FFh
 12330  007A' 05C3'              	andwf	(___fladd@f1),f
 12331  007B' 30FF               	movlw	0FFh
 12332  007C' 05C4'              	andwf	(___fladd@f1+1),f
 12333  007D' 30FF               	movlw	0FFh
 12334  007E' 05C5'              	andwf	(___fladd@f1+2),f
 12335  007F' 3000               	movlw	0
 12336  0080' 05C6'              	andwf	(___fladd@f1+3),f
 12337                           	line	105
 12338                           	
 12339  0081'                    l9597:	
 12340  0081' 17C9'              	bsf	(___fladd@f2)+(23/8),(23)&7
 12341                           	line	106
 12342  0082' 30FF               	movlw	0FFh
 12343  0083' 05C7'              	andwf	(___fladd@f2),f
 12344  0084' 30FF               	movlw	0FFh
 12345  0085' 05C8'              	andwf	(___fladd@f2+1),f
 12346  0086' 30FF               	movlw	0FFh
 12347  0087' 05C9'              	andwf	(___fladd@f2+2),f
 12348  0088' 3000               	movlw	0
 12349  0089' 05CA'              	andwf	(___fladd@f2+3),f
 12350                           	line	108
 12351  008A' 1683               	bsf	status, 5	;RP0=1, select bank1
 12352  008B' 1303               	bcf	status, 6	;RP1=0, select bank1
 12353  008C' 0800'              	movf	(___fladd@exp2)^080h,w
 12354  008D' 0200'              	subwf	(___fladd@exp1)^080h,w
 12355  008E' 1803               	skipnc
 12356  008F' 2800'              	goto	u5861
 12357  0090' 2800'              	goto	u5860
 12358  0091'                    u5861:
 12359  0091' 2800'              	goto	l9609
 12360  0092'                    u5860:
 12361  0092' 2800'              	goto	l9599
 12362                           	line	111
 12363                           	
 12364  0093'                    l4072:	
 12365                           	line	112
 12366                           	
 12367  0093'                    l9599:	
 12368  0093' 3001               	movlw	01h
 12369  0094' 1283               	bcf	status, 5	;RP0=0, select bank0
 12370  0095' 1303               	bcf	status, 6	;RP1=0, select bank0
 12371  0096' 00CB'              	movwf	(??___fladd+0)+0
 12372  0097'                    u5875:
 12373  0097' 1003               	clrc
 12374  0098' 0DC7'              	rlf	(___fladd@f2),f
 12375  0099' 0DC8'              	rlf	(___fladd@f2+1),f
 12376  009A' 0DC9'              	rlf	(___fladd@f2+2),f
 12377  009B' 0DCA'              	rlf	(___fladd@f2+3),f
 12378  009C' 0BCB'              	decfsz	(??___fladd+0)+0
 12379  009D' 2800'              	goto	u5875
 12380                           	line	113
 12381  009E' 3001               	movlw	low(01h)
 12382  009F' 1683               	bsf	status, 5	;RP0=1, select bank1
 12383  00A0' 1303               	bcf	status, 6	;RP1=0, select bank1
 12384  00A1' 0280'              	subwf	(___fladd@exp2)^080h,f
 12385                           	line	114
 12386                           	
 12387  00A2'                    l9601:	
 12388  00A2' 0800'              	movf	(___fladd@exp2)^080h,w
 12389  00A3' 0600'              	xorwf	(___fladd@exp1)^080h,w
 12390  00A4' 1903               	skipnz
 12391  00A5' 2800'              	goto	u5881
 12392  00A6' 2800'              	goto	u5880
 12393  00A7'                    u5881:
 12394  00A7' 2800'              	goto	l9607
 12395  00A8'                    u5880:
 12396                           	
 12397  00A8'                    l9603:	
 12398  00A8' 3001               	movlw	low(01h)
 12399  00A9' 0280'              	subwf	(___fladd@sign)^080h,f
 12400  00AA' 0800'              	movf	((___fladd@sign)^080h),w
 12401  00AB' 3907               	andlw	07h
 12402  00AC' 1D03               	btfss	status,2
 12403  00AD' 2800'              	goto	u5891
 12404  00AE' 2800'              	goto	u5890
 12405  00AF'                    u5891:
 12406  00AF' 2800'              	goto	l9599
 12407  00B0'                    u5890:
 12408  00B0' 2800'              	goto	l9607
 12409                           	
 12410  00B1'                    l4074:	
 12411  00B1' 2800'              	goto	l9607
 12412                           	
 12413  00B2'                    l4075:	
 12414                           	line	115
 12415  00B2' 2800'              	goto	l9607
 12416                           	
 12417  00B3'                    l4077:	
 12418                           	line	116
 12419                           	
 12420  00B3'                    l9605:	
 12421  00B3' 3001               	movlw	01h
 12422  00B4'                    u5905:
 12423  00B4' 1003               	clrc
 12424  00B5' 1283               	bcf	status, 5	;RP0=0, select bank0
 12425  00B6' 1303               	bcf	status, 6	;RP1=0, select bank0
 12426  00B7' 0CC6'              	rrf	(___fladd@f1+3),f
 12427  00B8' 0CC5'              	rrf	(___fladd@f1+2),f
 12428  00B9' 0CC4'              	rrf	(___fladd@f1+1),f
 12429  00BA' 0CC3'              	rrf	(___fladd@f1),f
 12430  00BB' 3EFF               	addlw	-1
 12431  00BC' 1D03               	skipz
 12432  00BD' 2800'              	goto	u5905
 12433                           
 12434                           	line	117
 12435  00BE' 3001               	movlw	(01h)
 12436  00BF' 00CB'              	movwf	(??___fladd+0)+0
 12437  00C0' 084B'              	movf	(??___fladd+0)+0,w
 12438  00C1' 1683               	bsf	status, 5	;RP0=1, select bank1
 12439  00C2' 1303               	bcf	status, 6	;RP1=0, select bank1
 12440  00C3' 0780'              	addwf	(___fladd@exp1)^080h,f
 12441  00C4' 2800'              	goto	l9607
 12442                           	line	118
 12443                           	
 12444  00C5'                    l4076:	
 12445                           	line	115
 12446                           	
 12447  00C5'                    l9607:	
 12448  00C5' 0800'              	movf	(___fladd@exp1)^080h,w
 12449  00C6' 0600'              	xorwf	(___fladd@exp2)^080h,w
 12450  00C7' 1D03               	skipz
 12451  00C8' 2800'              	goto	u5911
 12452  00C9' 2800'              	goto	u5910
 12453  00CA'                    u5911:
 12454  00CA' 2800'              	goto	l9605
 12455  00CB'                    u5910:
 12456  00CB' 2800'              	goto	l4079
 12457                           	
 12458  00CC'                    l4078:	
 12459                           	line	119
 12460  00CC' 2800'              	goto	l4079
 12461                           	
 12462  00CD'                    l4071:	
 12463                           	
 12464  00CD'                    l9609:	
 12465  00CD' 0800'              	movf	(___fladd@exp1)^080h,w
 12466  00CE' 0200'              	subwf	(___fladd@exp2)^080h,w
 12467  00CF' 1803               	skipnc
 12468  00D0' 2800'              	goto	u5921
 12469  00D1' 2800'              	goto	u5920
 12470  00D2'                    u5921:
 12471  00D2' 2800'              	goto	l4079
 12472  00D3'                    u5920:
 12473  00D3' 2800'              	goto	l9611
 12474                           	line	122
 12475                           	
 12476  00D4'                    l4081:	
 12477                           	line	123
 12478                           	
 12479  00D4'                    l9611:	
 12480  00D4' 3001               	movlw	01h
 12481  00D5' 1283               	bcf	status, 5	;RP0=0, select bank0
 12482  00D6' 1303               	bcf	status, 6	;RP1=0, select bank0
 12483  00D7' 00CB'              	movwf	(??___fladd+0)+0
 12484  00D8'                    u5935:
 12485  00D8' 1003               	clrc
 12486  00D9' 0DC3'              	rlf	(___fladd@f1),f
 12487  00DA' 0DC4'              	rlf	(___fladd@f1+1),f
 12488  00DB' 0DC5'              	rlf	(___fladd@f1+2),f
 12489  00DC' 0DC6'              	rlf	(___fladd@f1+3),f
 12490  00DD' 0BCB'              	decfsz	(??___fladd+0)+0
 12491  00DE' 2800'              	goto	u5935
 12492                           	line	124
 12493  00DF' 3001               	movlw	low(01h)
 12494  00E0' 1683               	bsf	status, 5	;RP0=1, select bank1
 12495  00E1' 1303               	bcf	status, 6	;RP1=0, select bank1
 12496  00E2' 0280'              	subwf	(___fladd@exp1)^080h,f
 12497                           	line	125
 12498                           	
 12499  00E3'                    l9613:	
 12500  00E3' 0800'              	movf	(___fladd@exp2)^080h,w
 12501  00E4' 0600'              	xorwf	(___fladd@exp1)^080h,w
 12502  00E5' 1903               	skipnz
 12503  00E6' 2800'              	goto	u5941
 12504  00E7' 2800'              	goto	u5940
 12505  00E8'                    u5941:
 12506  00E8' 2800'              	goto	l9619
 12507  00E9'                    u5940:
 12508                           	
 12509  00E9'                    l9615:	
 12510  00E9' 3001               	movlw	low(01h)
 12511  00EA' 0280'              	subwf	(___fladd@sign)^080h,f
 12512  00EB' 0800'              	movf	((___fladd@sign)^080h),w
 12513  00EC' 3907               	andlw	07h
 12514  00ED' 1D03               	btfss	status,2
 12515  00EE' 2800'              	goto	u5951
 12516  00EF' 2800'              	goto	u5950
 12517  00F0'                    u5951:
 12518  00F0' 2800'              	goto	l9611
 12519  00F1'                    u5950:
 12520  00F1' 2800'              	goto	l9619
 12521                           	
 12522  00F2'                    l4083:	
 12523  00F2' 2800'              	goto	l9619
 12524                           	
 12525  00F3'                    l4084:	
 12526                           	line	126
 12527  00F3' 2800'              	goto	l9619
 12528                           	
 12529  00F4'                    l4086:	
 12530                           	line	127
 12531                           	
 12532  00F4'                    l9617:	
 12533  00F4' 3001               	movlw	01h
 12534  00F5'                    u5965:
 12535  00F5' 1003               	clrc
 12536  00F6' 1283               	bcf	status, 5	;RP0=0, select bank0
 12537  00F7' 1303               	bcf	status, 6	;RP1=0, select bank0
 12538  00F8' 0CCA'              	rrf	(___fladd@f2+3),f
 12539  00F9' 0CC9'              	rrf	(___fladd@f2+2),f
 12540  00FA' 0CC8'              	rrf	(___fladd@f2+1),f
 12541  00FB' 0CC7'              	rrf	(___fladd@f2),f
 12542  00FC' 3EFF               	addlw	-1
 12543  00FD' 1D03               	skipz
 12544  00FE' 2800'              	goto	u5965
 12545                           
 12546                           	line	128
 12547  00FF' 3001               	movlw	(01h)
 12548  0100' 00CB'              	movwf	(??___fladd+0)+0
 12549  0101' 084B'              	movf	(??___fladd+0)+0,w
 12550  0102' 1683               	bsf	status, 5	;RP0=1, select bank1
 12551  0103' 1303               	bcf	status, 6	;RP1=0, select bank1
 12552  0104' 0780'              	addwf	(___fladd@exp2)^080h,f
 12553  0105' 2800'              	goto	l9619
 12554                           	line	129
 12555                           	
 12556  0106'                    l4085:	
 12557                           	line	126
 12558                           	
 12559  0106'                    l9619:	
 12560  0106' 0800'              	movf	(___fladd@exp1)^080h,w
 12561  0107' 0600'              	xorwf	(___fladd@exp2)^080h,w
 12562  0108' 1D03               	skipz
 12563  0109' 2800'              	goto	u5971
 12564  010A' 2800'              	goto	u5970
 12565  010B'                    u5971:
 12566  010B' 2800'              	goto	l9617
 12567  010C'                    u5970:
 12568  010C' 2800'              	goto	l4079
 12569                           	
 12570  010D'                    l4087:	
 12571  010D' 2800'              	goto	l4079
 12572                           	line	130
 12573                           	
 12574  010E'                    l4080:	
 12575                           	line	131
 12576                           	
 12577  010E'                    l4079:	
 12578  010E' 1F80'              	btfss	(___fladd@sign)^080h,(7)&7
 12579  010F' 2800'              	goto	u5981
 12580  0110' 2800'              	goto	u5980
 12581  0111'                    u5981:
 12582  0111' 2800'              	goto	l9623
 12583  0112'                    u5980:
 12584                           	line	133
 12585                           	
 12586  0112'                    l9621:	
 12587  0112' 30FF               	movlw	0FFh
 12588  0113' 1283               	bcf	status, 5	;RP0=0, select bank0
 12589  0114' 1303               	bcf	status, 6	;RP1=0, select bank0
 12590  0115' 06C3'              	xorwf	(___fladd@f1),f
 12591  0116' 30FF               	movlw	0FFh
 12592  0117' 06C4'              	xorwf	(___fladd@f1+1),f
 12593  0118' 30FF               	movlw	0FFh
 12594  0119' 06C5'              	xorwf	(___fladd@f1+2),f
 12595  011A' 30FF               	movlw	0FFh
 12596  011B' 06C6'              	xorwf	(___fladd@f1+3),f
 12597                           	line	134
 12598  011C' 3001               	movlw	01h
 12599  011D' 07C3'              	addwf	(___fladd@f1),f
 12600  011E' 3000               	movlw	0
 12601  011F' 1803               	skipnc
 12602  0120' 3001               movlw 1
 12603  0121' 07C4'              	addwf	(___fladd@f1+1),f
 12604  0122' 3000               	movlw	0
 12605  0123' 1803               	skipnc
 12606  0124' 3001               movlw 1
 12607  0125' 07C5'              	addwf	(___fladd@f1+2),f
 12608  0126' 3000               	movlw	0
 12609  0127' 1803               	skipnc
 12610  0128' 3001               movlw 1
 12611  0129' 07C6'              	addwf	(___fladd@f1+3),f
 12612  012A' 2800'              	goto	l9623
 12613                           	line	135
 12614                           	
 12615  012B'                    l4088:	
 12616                           	line	136
 12617                           	
 12618  012B'                    l9623:	
 12619  012B' 1683               	bsf	status, 5	;RP0=1, select bank1
 12620  012C' 1303               	bcf	status, 6	;RP1=0, select bank1
 12621  012D' 1F00'              	btfss	(___fladd@sign)^080h,(6)&7
 12622  012E' 2800'              	goto	u5991
 12623  012F' 2800'              	goto	u5990
 12624  0130'                    u5991:
 12625  0130' 2800'              	goto	l9627
 12626  0131'                    u5990:
 12627                           	line	138
 12628                           	
 12629  0131'                    l9625:	
 12630  0131' 30FF               	movlw	0FFh
 12631  0132' 1283               	bcf	status, 5	;RP0=0, select bank0
 12632  0133' 1303               	bcf	status, 6	;RP1=0, select bank0
 12633  0134' 06C7'              	xorwf	(___fladd@f2),f
 12634  0135' 30FF               	movlw	0FFh
 12635  0136' 06C8'              	xorwf	(___fladd@f2+1),f
 12636  0137' 30FF               	movlw	0FFh
 12637  0138' 06C9'              	xorwf	(___fladd@f2+2),f
 12638  0139' 30FF               	movlw	0FFh
 12639  013A' 06CA'              	xorwf	(___fladd@f2+3),f
 12640                           	line	139
 12641  013B' 3001               	movlw	01h
 12642  013C' 07C7'              	addwf	(___fladd@f2),f
 12643  013D' 3000               	movlw	0
 12644  013E' 1803               	skipnc
 12645  013F' 3001               movlw 1
 12646  0140' 07C8'              	addwf	(___fladd@f2+1),f
 12647  0141' 3000               	movlw	0
 12648  0142' 1803               	skipnc
 12649  0143' 3001               movlw 1
 12650  0144' 07C9'              	addwf	(___fladd@f2+2),f
 12651  0145' 3000               	movlw	0
 12652  0146' 1803               	skipnc
 12653  0147' 3001               movlw 1
 12654  0148' 07CA'              	addwf	(___fladd@f2+3),f
 12655  0149' 2800'              	goto	l9627
 12656                           	line	140
 12657                           	
 12658  014A'                    l4089:	
 12659                           	line	141
 12660                           	
 12661  014A'                    l9627:	
 12662  014A' 1683               	bsf	status, 5	;RP0=1, select bank1
 12663  014B' 1303               	bcf	status, 6	;RP1=0, select bank1
 12664  014C' 0180'              	clrf	(___fladd@sign)^080h
 12665                           	line	142
 12666  014D' 1283               	bcf	status, 5	;RP0=0, select bank0
 12667  014E' 1303               	bcf	status, 6	;RP1=0, select bank0
 12668  014F' 0843'              	movf	(___fladd@f1),w
 12669  0150' 07C7'              	addwf	(___fladd@f2),f
 12670  0151' 0844'              	movf	(___fladd@f1+1),w
 12671  0152' 1103               	clrz
 12672  0153' 1803               	skipnc
 12673  0154' 3E01               	addlw	1
 12674  0155' 1903               	skipnz
 12675  0156' 2800'              	goto	u6001
 12676  0157' 07C8'              	addwf	(___fladd@f2+1),f
 12677  0158'                    u6001:
 12678  0158' 0845'              	movf	(___fladd@f1+2),w
 12679  0159' 1103               	clrz
 12680  015A' 1803               	skipnc
 12681  015B' 3E01               	addlw	1
 12682  015C' 1903               	skipnz
 12683  015D' 2800'              	goto	u6002
 12684  015E' 07C9'              	addwf	(___fladd@f2+2),f
 12685  015F'                    u6002:
 12686  015F' 0846'              	movf	(___fladd@f1+3),w
 12687  0160' 1103               	clrz
 12688  0161' 1803               	skipnc
 12689  0162' 3E01               	addlw	1
 12690  0163' 1903               	skipnz
 12691  0164' 2800'              	goto	u6003
 12692  0165' 07CA'              	addwf	(___fladd@f2+3),f
 12693  0166'                    u6003:
 12694                           
 12695                           	line	143
 12696                           	
 12697  0166'                    l9629:	
 12698  0166' 1FCA'              	btfss	(___fladd@f2+3),(31)&7
 12699  0167' 2800'              	goto	u6011
 12700  0168' 2800'              	goto	u6010
 12701  0169'                    u6011:
 12702  0169' 2800'              	goto	l9635
 12703  016A'                    u6010:
 12704                           	line	144
 12705                           	
 12706  016A'                    l9631:	
 12707  016A' 30FF               	movlw	0FFh
 12708  016B' 06C7'              	xorwf	(___fladd@f2),f
 12709  016C' 30FF               	movlw	0FFh
 12710  016D' 06C8'              	xorwf	(___fladd@f2+1),f
 12711  016E' 30FF               	movlw	0FFh
 12712  016F' 06C9'              	xorwf	(___fladd@f2+2),f
 12713  0170' 30FF               	movlw	0FFh
 12714  0171' 06CA'              	xorwf	(___fladd@f2+3),f
 12715                           	line	145
 12716  0172' 3001               	movlw	01h
 12717  0173' 07C7'              	addwf	(___fladd@f2),f
 12718  0174' 3000               	movlw	0
 12719  0175' 1803               	skipnc
 12720  0176' 3001               movlw 1
 12721  0177' 07C8'              	addwf	(___fladd@f2+1),f
 12722  0178' 3000               	movlw	0
 12723  0179' 1803               	skipnc
 12724  017A' 3001               movlw 1
 12725  017B' 07C9'              	addwf	(___fladd@f2+2),f
 12726  017C' 3000               	movlw	0
 12727  017D' 1803               	skipnc
 12728  017E' 3001               movlw 1
 12729  017F' 07CA'              	addwf	(___fladd@f2+3),f
 12730                           	line	146
 12731                           	
 12732  0180'                    l9633:	
 12733  0180' 1683               	bsf	status, 5	;RP0=1, select bank1
 12734  0181' 1303               	bcf	status, 6	;RP1=0, select bank1
 12735  0182' 0180'              	clrf	(___fladd@sign)^080h
 12736  0183' 1403               	bsf	status,0
 12737  0184' 0D80'              	rlf	(___fladd@sign)^080h,f
 12738  0185' 2800'              	goto	l9635
 12739                           	line	147
 12740                           	
 12741  0186'                    l4090:	
 12742                           	line	148
 12743                           	
 12744  0186'                    l9635:	
 12745  0186' 1283               	bcf	status, 5	;RP0=0, select bank0
 12746  0187' 084A'              	movf	(___fladd@f2+3),w
 12747  0188' 0083'              	movwf	(?___flpack+3)
 12748  0189' 0849'              	movf	(___fladd@f2+2),w
 12749  018A' 0082'              	movwf	(?___flpack+2)
 12750  018B' 0848'              	movf	(___fladd@f2+1),w
 12751  018C' 0081'              	movwf	(?___flpack+1)
 12752  018D' 0847'              	movf	(___fladd@f2),w
 12753  018E' 0080'              	movwf	(?___flpack)
 12754                           
 12755  018F' 1683               	bsf	status, 5	;RP0=1, select bank1
 12756  0190' 1303               	bcf	status, 6	;RP1=0, select bank1
 12757  0191' 0800'              	movf	(___fladd@exp1)^080h,w
 12758  0192' 1283               	bcf	status, 5	;RP0=0, select bank0
 12759  0193' 1303               	bcf	status, 6	;RP1=0, select bank0
 12760  0194' 00CB'              	movwf	(??___fladd+0)+0
 12761  0195' 084B'              	movf	(??___fladd+0)+0,w
 12762  0196' 0084'              	movwf	0+(?___flpack)+04h
 12763  0197' 1683               	bsf	status, 5	;RP0=1, select bank1
 12764  0198' 1303               	bcf	status, 6	;RP1=0, select bank1
 12765  0199' 0800'              	movf	(___fladd@sign)^080h,w
 12766  019A' 1283               	bcf	status, 5	;RP0=0, select bank0
 12767  019B' 1303               	bcf	status, 6	;RP1=0, select bank0
 12768  019C' 00CC'              	movwf	(??___fladd+1)+0
 12769  019D' 084C'              	movf	(??___fladd+1)+0,w
 12770  019E' 0085'              	movwf	0+(?___flpack)+05h
 12771  019F' 120A' 118A' 2000'  	fcall	___flpack
              120A' 118A'        
 12772  01A4' 1283               	bcf	status, 5	;RP0=0, select bank0
 12773  01A5' 1303               	bcf	status, 6	;RP1=0, select bank0
 12774  01A6' 0803'              	movf	(3+(?___flpack)),w
 12775  01A7' 00C6'              	movwf	(?___fladd+3)
 12776  01A8' 0802'              	movf	(2+(?___flpack)),w
 12777  01A9' 00C5'              	movwf	(?___fladd+2)
 12778  01AA' 0801'              	movf	(1+(?___flpack)),w
 12779  01AB' 00C4'              	movwf	(?___fladd+1)
 12780  01AC' 0800'              	movf	(0+(?___flpack)),w
 12781  01AD' 00C3'              	movwf	(?___fladd)
 12782                           
 12783  01AE' 2800'              	goto	l4065
 12784                           	
 12785  01AF'                    l9637:	
 12786                           	line	149
 12787                           	
 12788  01AF'                    l4065:	
 12789  01AF' 0008               	return
 12790                           	opt stack 0
 12791                           GLOBAL	__end_of___fladd
 12792  01B0'                    	__end_of___fladd:
 12793 ;; =============== function ___fladd ends ============
 12794                           
 12795                           	signat	___fladd,8316
 12796                           	global	_ldexp
 12797                           psect	text1458,local,class=CODE,delta=2
 12798                           global __ptext1458
 12799  0000'                    __ptext1458:
 12800                           
 12801 ;; *************** function _ldexp *****************
 12802 ;; Defined at:
 12803 ;;		line 278 in file "/opt/hitech/picc/9.83/sources/frexp.c"
 12804 ;; Parameters:    Size  Location     Type
 12805 ;;  value           4    3[BANK1 ] unsigned char 
 12806 ;;  newexp          2    7[BANK1 ] int 
 12807 ;; Auto vars:     Size  Location     Type
 12808 ;;		None
 12809 ;; Return value:  Size  Location     Type
 12810 ;;                  4    3[BANK1 ] int 
 12811 ;; Registers used:
 12812 ;;		wreg, status,2, status,0, btemp+1, pclath, cstack
 12813 ;; Tracked objects:
 12814 ;;		On entry : 0/0
 12815 ;;		On exit  : 0/0
 12816 ;;		Unchanged: 0/0
 12817 ;; Data sizes:     COMMON   BANK0   BANK1   BANK3   BANK2
 12818 ;;      Params:         0       0       6       0       0
 12819 ;;      Locals:         0       0       4       0       0
 12820 ;;      Temps:          0       0       2       0       0
 12821 ;;      Totals:         0       0      12       0       0
 12822 ;;Total ram usage:       12 bytes
 12823 ;; Hardware stack levels used:    1
 12824 ;; Hardware stack levels required when called:    2
 12825 ;; This function calls:
 12826 ;;		___flge
 12827 ;;		___flneg
 12828 ;; This function is called by:
 12829 ;;		_exp
 12830 ;; This function uses a non-reentrant model
 12831 ;;
 12832                           psect	text1458
 12833                           	file	"/opt/hitech/picc/9.83/sources/frexp.c"
 12834                           	line	278
 12835                           	global	__size_of_ldexp
 12836  0109                     	__size_of_ldexp	equ	__end_of_ldexp-_ldexp
 12837                           	
 12838  0000'                    _ldexp:	
 12839                           	opt	stack 1
 12840                           ; Regs used in _ldexp: [wreg+status,2+status,0+btemp+1+pclath+cstack]
 12841                           	line	279
 12842                           	
 12843  0000'                    l9519:	
 12844  0000' 1683               	bsf	status, 5	;RP0=1, select bank1
 12845  0001' 1303               	bcf	status, 6	;RP1=0, select bank1
 12846  0002' 0800'              	movf	(ldexp@value+3)^080h,w
 12847  0003' 0400'              	iorwf	(ldexp@value+2)^080h,w
 12848  0004' 0400'              	iorwf	(ldexp@value+1)^080h,w
 12849  0005' 0400'              	iorwf	(ldexp@value)^080h,w
 12850  0006' 1D03               	skipz
 12851  0007' 2800'              	goto	u5721
 12852  0008' 2800'              	goto	u5720
 12853  0009'                    u5721:
 12854  0009' 2800'              	goto	l9525
 12855  000A'                    u5720:
 12856                           	line	280
 12857                           	
 12858  000A'                    l9521:	
 12859  000A' 3000               	movlw	0x0
 12860  000B' 0080'              	movwf	(?_ldexp+3)^080h
 12861  000C' 3000               	movlw	0x0
 12862  000D' 0080'              	movwf	(?_ldexp+2)^080h
 12863  000E' 3000               	movlw	0x0
 12864  000F' 0080'              	movwf	(?_ldexp+1)^080h
 12865  0010' 3000               	movlw	0x0
 12866  0011' 0080'              	movwf	(?_ldexp)^080h
 12867                           
 12868  0012' 2800'              	goto	l3989
 12869                           	
 12870  0013'                    l9523:	
 12871  0013' 2800'              	goto	l3989
 12872                           	
 12873  0014'                    l3988:	
 12874                           	line	282
 12875                           	
 12876  0014'                    l9525:	
 12877  0014' 0803'              	movf	0+(ldexp@value)^080h+03h,w
 12878  0015' 397F               	andlw	(1<<7)-1
 12879  0016' 0080'              	movwf	(??_ldexp+0)^080h+0
 12880  0017' 0181'              	clrf	(??_ldexp+0)^080h+0+1
 12881  0018' 3001               	movlw	01h
 12882  0019' 00FF               	movwf	btemp+1
 12883  001A'                    u5735:
 12884  001A' 1003               	clrc
 12885  001B' 0D80'              	rlf	(??_ldexp+0)^080h+0,f
 12886  001C' 0D81'              	rlf	(??_ldexp+0)^080h+1,f
 12887  001D' 0BFF               	decfsz	btemp+1,f
 12888  001E' 2800'              	goto	u5735
 12889  001F' 0800'              	movf	0+(??_ldexp+0)^080h+0,w
 12890  0020' 0780'              	addwf	(ldexp@newexp)^080h,f
 12891  0021' 1803               	skipnc
 12892  0022' 0A80'              	incf	(ldexp@newexp+1)^080h,f
 12893  0023' 0800'              	movf	1+(??_ldexp+0)^080h+0,w
 12894  0024' 0780'              	addwf	(ldexp@newexp+1)^080h,f
 12895                           	line	283
 12896                           	
 12897  0025'                    l9527:	
 12898  0025' 0D02'              	rlf	0+(ldexp@value)^080h+02h,w
 12899  0026' 0D02'              	rlf	0+(ldexp@value)^080h+02h,w
 12900  0027' 3901               	andlw	1
 12901  0028' 0080'              	movwf	(??_ldexp+0)^080h+0
 12902  0029' 0181'              	clrf	(??_ldexp+0)^080h+0+1
 12903  002A' 0800'              	movf	0+(??_ldexp+0)^080h+0,w
 12904  002B' 0780'              	addwf	(ldexp@newexp)^080h,f
 12905  002C' 1803               	skipnc
 12906  002D' 0A80'              	incf	(ldexp@newexp+1)^080h,f
 12907  002E' 0800'              	movf	1+(??_ldexp+0)^080h+0,w
 12908  002F' 0780'              	addwf	(ldexp@newexp+1)^080h,f
 12909                           	line	287
 12910                           	
 12911  0030'                    l9529:	
 12912  0030' 1F80'              	btfss	(ldexp@newexp+1)^080h,7
 12913  0031' 2800'              	goto	u5741
 12914  0032' 2800'              	goto	u5740
 12915  0033'                    u5741:
 12916  0033' 2800'              	goto	l9537
 12917  0034'                    u5740:
 12918                           	line	288
 12919                           	
 12920  0034'                    l9531:	
 12921  0034' 3022               	movlw	low(022h)
 12922  0035' 1683               	bsf	status, 5	;RP0=1, select bank3
 12923  0036' 1703               	bsf	status, 6	;RP1=1, select bank3
 12924  0037' 0080'              	movwf	(_errno)^0180h
 12925  0038' 3000               	movlw	high(022h)
 12926  0039' 0081'              	movwf	((_errno)^0180h)+1
 12927                           	line	289
 12928  003A' 3000               	movlw	0x0
 12929  003B' 1683               	bsf	status, 5	;RP0=1, select bank1
 12930  003C' 1303               	bcf	status, 6	;RP1=0, select bank1
 12931  003D' 0080'              	movwf	(?_ldexp+3)^080h
 12932  003E' 3000               	movlw	0x0
 12933  003F' 0080'              	movwf	(?_ldexp+2)^080h
 12934  0040' 3000               	movlw	0x0
 12935  0041' 0080'              	movwf	(?_ldexp+1)^080h
 12936  0042' 3000               	movlw	0x0
 12937  0043' 0080'              	movwf	(?_ldexp)^080h
 12938                           
 12939  0044' 2800'              	goto	l3989
 12940                           	
 12941  0045'                    l9533:	
 12942  0045' 2800'              	goto	l3989
 12943                           	line	290
 12944                           	
 12945  0046'                    l9535:	
 12946  0046' 2800'              	goto	l9565
 12947                           	line	291
 12948                           	
 12949  0047'                    l3990:	
 12950                           	
 12951  0047'                    l9537:	
 12952  0047' 0800'              	movf	(ldexp@newexp+1)^080h,w
 12953  0048' 3A80               	xorlw	80h
 12954  0049' 00FF               	movwf	btemp+1
 12955  004A' 3081               	movlw	(high(0100h))^80h
 12956  004B' 027F               	subwf	btemp+1,w
 12957  004C' 1D03               	skipz
 12958  004D' 2800'              	goto	u5755
 12959  004E' 3000               	movlw	low(0100h)
 12960  004F' 0200'              	subwf	(ldexp@newexp)^080h,w
 12961  0050'                    u5755:
 12962                           
 12963  0050' 1C03               	skipc
 12964  0051' 2800'              	goto	u5751
 12965  0052' 2800'              	goto	u5750
 12966  0053'                    u5751:
 12967  0053' 2800'              	goto	l9561
 12968  0054'                    u5750:
 12969                           	line	292
 12970                           	
 12971  0054'                    l9539:	
 12972  0054' 3022               	movlw	low(022h)
 12973  0055' 1683               	bsf	status, 5	;RP0=1, select bank3
 12974  0056' 1703               	bsf	status, 6	;RP1=1, select bank3
 12975  0057' 0080'              	movwf	(_errno)^0180h
 12976  0058' 3000               	movlw	high(022h)
 12977  0059' 0081'              	movwf	((_errno)^0180h)+1
 12978                           	line	293
 12979                           	
 12980  005A'                    l9541:	
 12981  005A' 1683               	bsf	status, 5	;RP0=1, select bank1
 12982  005B' 1303               	bcf	status, 6	;RP1=0, select bank1
 12983  005C' 0800'              	movf	(ldexp@value+3)^080h,w
 12984  005D' 1283               	bcf	status, 5	;RP0=0, select bank0
 12985  005E' 1303               	bcf	status, 6	;RP1=0, select bank0
 12986  005F' 0083'              	movwf	(?___flge+3)
 12987  0060' 1683               	bsf	status, 5	;RP0=1, select bank1
 12988  0061' 1303               	bcf	status, 6	;RP1=0, select bank1
 12989  0062' 0800'              	movf	(ldexp@value+2)^080h,w
 12990  0063' 1283               	bcf	status, 5	;RP0=0, select bank0
 12991  0064' 1303               	bcf	status, 6	;RP1=0, select bank0
 12992  0065' 0082'              	movwf	(?___flge+2)
 12993  0066' 1683               	bsf	status, 5	;RP0=1, select bank1
 12994  0067' 1303               	bcf	status, 6	;RP1=0, select bank1
 12995  0068' 0800'              	movf	(ldexp@value+1)^080h,w
 12996  0069' 1283               	bcf	status, 5	;RP0=0, select bank0
 12997  006A' 1303               	bcf	status, 6	;RP1=0, select bank0
 12998  006B' 0081'              	movwf	(?___flge+1)
 12999  006C' 1683               	bsf	status, 5	;RP0=1, select bank1
 13000  006D' 1303               	bcf	status, 6	;RP1=0, select bank1
 13001  006E' 0800'              	movf	(ldexp@value)^080h,w
 13002  006F' 1283               	bcf	status, 5	;RP0=0, select bank0
 13003  0070' 1303               	bcf	status, 6	;RP1=0, select bank0
 13004  0071' 0080'              	movwf	(?___flge)
 13005                           
 13006  0072' 3000               	movlw	0x0
 13007  0073' 0087'              	movwf	3+(?___flge)+04h
 13008  0074' 3000               	movlw	0x0
 13009  0075' 0086'              	movwf	2+(?___flge)+04h
 13010  0076' 3000               	movlw	0x0
 13011  0077' 0085'              	movwf	1+(?___flge)+04h
 13012  0078' 3000               	movlw	0x0
 13013  0079' 0084'              	movwf	0+(?___flge)+04h
 13014                           
 13015  007A' 120A' 118A' 2000'  	fcall	___flge
              120A' 118A'        
 13016  007F' 1803               	btfsc	status,0
 13017  0080' 2800'              	goto	u5761
 13018  0081' 2800'              	goto	u5760
 13019  0082'                    u5761:
 13020  0082' 2800'              	goto	l9557
 13021  0083'                    u5760:
 13022  0083' 2800'              	goto	l9547
 13023                           	line	294
 13024                           	
 13025  0084'                    l9543:	
 13026  0084' 2800'              	goto	l9547
 13027                           	
 13028  0085'                    l9545:	
 13029  0085' 307F               	movlw	0x7f
 13030  0086' 1683               	bsf	status, 5	;RP0=1, select bank1
 13031  0087' 1303               	bcf	status, 6	;RP1=0, select bank1
 13032  0088' 0080'              	movwf	(_ldexp$4680+3)^080h
 13033  0089' 307F               	movlw	0x7f
 13034  008A' 0080'              	movwf	(_ldexp$4680+2)^080h
 13035  008B' 30FF               	movlw	0xff
 13036  008C' 0080'              	movwf	(_ldexp$4680+1)^080h
 13037  008D' 30FF               	movlw	0xff
 13038  008E' 0080'              	movwf	(_ldexp$4680)^080h
 13039                           
 13040  008F' 2800'              	goto	l9549
 13041                           	
 13042  0090'                    l3995:	
 13043                           	
 13044  0090'                    l9547:	
 13045  0090' 307F               	movlw	0x7f
 13046  0091' 1683               	bsf	status, 5	;RP0=1, select bank1
 13047  0092' 1303               	bcf	status, 6	;RP1=0, select bank1
 13048  0093' 0080'              	movwf	(_ldexp$4680+3)^080h
 13049  0094' 307F               	movlw	0x7f
 13050  0095' 0080'              	movwf	(_ldexp$4680+2)^080h
 13051  0096' 30FE               	movlw	0xfe
 13052  0097' 0080'              	movwf	(_ldexp$4680+1)^080h
 13053  0098' 30F7               	movlw	0xf7
 13054  0099' 0080'              	movwf	(_ldexp$4680)^080h
 13055                           
 13056  009A' 2800'              	goto	l9549
 13057                           	
 13058  009B'                    l3997:	
 13059                           	
 13060  009B'                    l9549:	
 13061  009B' 0800'              	movf	(_ldexp$4680+3)^080h,w
 13062  009C' 1283               	bcf	status, 5	;RP0=0, select bank0
 13063  009D' 1303               	bcf	status, 6	;RP1=0, select bank0
 13064  009E' 008D'              	movwf	(?___flneg+3)
 13065  009F' 1683               	bsf	status, 5	;RP0=1, select bank1
 13066  00A0' 1303               	bcf	status, 6	;RP1=0, select bank1
 13067  00A1' 0800'              	movf	(_ldexp$4680+2)^080h,w
 13068  00A2' 1283               	bcf	status, 5	;RP0=0, select bank0
 13069  00A3' 1303               	bcf	status, 6	;RP1=0, select bank0
 13070  00A4' 008C'              	movwf	(?___flneg+2)
 13071  00A5' 1683               	bsf	status, 5	;RP0=1, select bank1
 13072  00A6' 1303               	bcf	status, 6	;RP1=0, select bank1
 13073  00A7' 0800'              	movf	(_ldexp$4680+1)^080h,w
 13074  00A8' 1283               	bcf	status, 5	;RP0=0, select bank0
 13075  00A9' 1303               	bcf	status, 6	;RP1=0, select bank0
 13076  00AA' 008B'              	movwf	(?___flneg+1)
 13077  00AB' 1683               	bsf	status, 5	;RP0=1, select bank1
 13078  00AC' 1303               	bcf	status, 6	;RP1=0, select bank1
 13079  00AD' 0800'              	movf	(_ldexp$4680)^080h,w
 13080  00AE' 1283               	bcf	status, 5	;RP0=0, select bank0
 13081  00AF' 1303               	bcf	status, 6	;RP1=0, select bank0
 13082  00B0' 008A'              	movwf	(?___flneg)
 13083                           
 13084  00B1' 120A' 118A' 2000'  	fcall	___flneg
              120A' 118A'        
 13085  00B6' 1283               	bcf	status, 5	;RP0=0, select bank0
 13086  00B7' 1303               	bcf	status, 6	;RP1=0, select bank0
 13087  00B8' 080D'              	movf	(3+(?___flneg)),w
 13088  00B9' 1683               	bsf	status, 5	;RP0=1, select bank1
 13089  00BA' 1303               	bcf	status, 6	;RP1=0, select bank1
 13090  00BB' 0080'              	movwf	(?_ldexp+3)^080h
 13091  00BC' 1283               	bcf	status, 5	;RP0=0, select bank0
 13092  00BD' 1303               	bcf	status, 6	;RP1=0, select bank0
 13093  00BE' 080C'              	movf	(2+(?___flneg)),w
 13094  00BF' 1683               	bsf	status, 5	;RP0=1, select bank1
 13095  00C0' 1303               	bcf	status, 6	;RP1=0, select bank1
 13096  00C1' 0080'              	movwf	(?_ldexp+2)^080h
 13097  00C2' 1283               	bcf	status, 5	;RP0=0, select bank0
 13098  00C3' 1303               	bcf	status, 6	;RP1=0, select bank0
 13099  00C4' 080B'              	movf	(1+(?___flneg)),w
 13100  00C5' 1683               	bsf	status, 5	;RP0=1, select bank1
 13101  00C6' 1303               	bcf	status, 6	;RP1=0, select bank1
 13102  00C7' 0080'              	movwf	(?_ldexp+1)^080h
 13103  00C8' 1283               	bcf	status, 5	;RP0=0, select bank0
 13104  00C9' 1303               	bcf	status, 6	;RP1=0, select bank0
 13105  00CA' 080A'              	movf	(0+(?___flneg)),w
 13106  00CB' 1683               	bsf	status, 5	;RP0=1, select bank1
 13107  00CC' 1303               	bcf	status, 6	;RP1=0, select bank1
 13108  00CD' 0080'              	movwf	(?_ldexp)^080h
 13109                           
 13110  00CE' 2800'              	goto	l3989
 13111                           	
 13112  00CF'                    l9551:	
 13113  00CF' 2800'              	goto	l3989
 13114                           	
 13115  00D0'                    l9553:	
 13116  00D0' 2800'              	goto	l9565
 13117                           	line	295
 13118                           	
 13119  00D1'                    l3993:	
 13120                           	line	296
 13121  00D1' 2800'              	goto	l9557
 13122                           	
 13123  00D2'                    l9555:	
 13124  00D2' 307F               	movlw	0x7f
 13125  00D3' 0080'              	movwf	(?_ldexp+3)^080h
 13126  00D4' 307F               	movlw	0x7f
 13127  00D5' 0080'              	movwf	(?_ldexp+2)^080h
 13128  00D6' 30FF               	movlw	0xff
 13129  00D7' 0080'              	movwf	(?_ldexp+1)^080h
 13130  00D8' 30FF               	movlw	0xff
 13131  00D9' 0080'              	movwf	(?_ldexp)^080h
 13132                           
 13133  00DA' 2800'              	goto	l3989
 13134                           	
 13135  00DB'                    l4000:	
 13136                           	
 13137  00DB'                    l9557:	
 13138  00DB' 307F               	movlw	0x7f
 13139  00DC' 1683               	bsf	status, 5	;RP0=1, select bank1
 13140  00DD' 1303               	bcf	status, 6	;RP1=0, select bank1
 13141  00DE' 0080'              	movwf	(?_ldexp+3)^080h
 13142  00DF' 307F               	movlw	0x7f
 13143  00E0' 0080'              	movwf	(?_ldexp+2)^080h
 13144  00E1' 30FE               	movlw	0xfe
 13145  00E2' 0080'              	movwf	(?_ldexp+1)^080h
 13146  00E3' 30F7               	movlw	0xf7
 13147  00E4' 0080'              	movwf	(?_ldexp)^080h
 13148                           
 13149  00E5' 2800'              	goto	l3989
 13150                           	
 13151  00E6'                    l4002:	
 13152  00E6' 2800'              	goto	l3989
 13153                           	
 13154  00E7'                    l9559:	
 13155  00E7' 2800'              	goto	l3989
 13156                           	
 13157  00E8'                    l3998:	
 13158                           	line	297
 13159  00E8' 2800'              	goto	l9565
 13160                           	line	298
 13161                           	
 13162  00E9'                    l3992:	
 13163                           	line	300
 13164                           	
 13165  00E9'                    l9561:	
 13166  00E9' 1683               	bsf	status, 5	;RP0=1, select bank1
 13167  00EA' 1303               	bcf	status, 6	;RP1=0, select bank1
 13168  00EB' 0800'              	movf	(ldexp@newexp+1)^080h,w
 13169  00EC' 0081'              	movwf	(??_ldexp+0)^080h+0+1
 13170  00ED' 0800'              	movf	(ldexp@newexp)^080h,w
 13171  00EE' 0080'              	movwf	(??_ldexp+0)^080h+0
 13172  00EF' 3001               	movlw	01h
 13173  00F0' 00FF               	movwf	btemp+1
 13174  00F1'                    u5775:
 13175  00F1' 0D01'              	rlf	(??_ldexp+0)^080h+1,w
 13176  00F2' 0C81'              	rrf	(??_ldexp+0)^080h+1,f
 13177  00F3' 0C80'              	rrf	(??_ldexp+0)^080h+0,f
 13178  00F4' 0BFF               	decfsz	btemp+1,f
 13179  00F5' 2800'              	goto	u5775
 13180  00F6' 0803'              	movf	0+(ldexp@value)^080h+03h,w
 13181  00F7' 0600'              	xorwf	0+(??_ldexp+0)^080h+0,w
 13182  00F8' 3980               	andlw	not ((1<<7)-1)
 13183  00F9' 0600'              	xorwf	0+(??_ldexp+0)^080h+0,w
 13184  00FA' 0083'              	movwf	0+(ldexp@value)^080h+03h
 13185                           	line	301
 13186                           	
 13187  00FB'                    l9563:	
 13188  00FB' 0800'              	movf	(ldexp@newexp)^080h,w
 13189  00FC' 3901               	andlw	01h
 13190  00FD' 0080'              	movwf	(??_ldexp+0)^080h+0
 13191  00FE' 0C80'              	rrf	(??_ldexp+0)^080h+0,f
 13192  00FF' 0C80'              	rrf	(??_ldexp+0)^080h+0,f
 13193  0100' 0802'              	movf	0+(ldexp@value)^080h+02h,w
 13194  0101' 0600'              	xorwf	(??_ldexp+0)^080h+0,w
 13195  0102' 397F               	andlw	not (((1<<1)-1)<<7)
 13196  0103' 0600'              	xorwf	(??_ldexp+0)^080h+0,w
 13197  0104' 0082'              	movwf	0+(ldexp@value)^080h+02h
 13198  0105' 2800'              	goto	l9565
 13199                           	line	305
 13200                           	
 13201  0106'                    l4003:	
 13202  0106' 2800'              	goto	l9565
 13203                           	
 13204  0107'                    l3991:	
 13205                           	line	306
 13206                           	
 13207  0107'                    l9565:	
 13208  0107' 2800'              	goto	l3989
 13209                           	
 13210  0108'                    l9567:	
 13211                           	line	307
 13212                           	
 13213  0108'                    l3989:	
 13214  0108' 0008               	return
 13215                           	opt stack 0
 13216                           GLOBAL	__end_of_ldexp
 13217  0109'                    	__end_of_ldexp:
 13218 ;; =============== function _ldexp ends ============
 13219                           
 13220                           	signat	_ldexp,8316
 13221                           	global	_measure_freq
 13222                           psect	text1459,local,class=CODE,delta=2
 13223                           global __ptext1459
 13224  0000'                    __ptext1459:
 13225                           
 13226 ;; *************** function _measure_freq *****************
 13227 ;; Defined at:
 13228 ;;		line 299 in file "../../../src/LC-meter.c"
 13229 ;; Parameters:    Size  Location     Type
 13230 ;;		None
 13231 ;; Auto vars:     Size  Location     Type
 13232 ;;  i               1    9[BANK0 ] unsigned char 
 13233 ;;  count           2   10[BANK0 ] unsigned int 
 13234 ;;  prev            1    8[BANK0 ] unsigned char 
 13235 ;; Return value:  Size  Location     Type
 13236 ;;                  2    0[BANK0 ] unsigned int 
 13237 ;; Registers used:
 13238 ;;		wreg, status,2, status,0, btemp+1
 13239 ;; Tracked objects:
 13240 ;;		On entry : 0/0
 13241 ;;		On exit  : 0/0
 13242 ;;		Unchanged: 0/0
 13243 ;; Data sizes:     COMMON   BANK0   BANK1   BANK3   BANK2
 13244 ;;      Params:         0       2       0       0       0
 13245 ;;      Locals:         0       4       0       0       0
 13246 ;;      Temps:          0       6       0       0       0
 13247 ;;      Totals:         0      12       0       0       0
 13248 ;;Total ram usage:       12 bytes
 13249 ;; Hardware stack levels used:    1
 13250 ;; Hardware stack levels required when called:    1
 13251 ;; This function calls:
 13252 ;;		Nothing
 13253 ;; This function is called by:
 13254 ;;		_calibrate
 13255 ;;		_measure_capacitance
 13256 ;;		_measure_inductance
 13257 ;; This function uses a non-reentrant model
 13258 ;;
 13259                           psect	text1459
 13260                           	file	"../../../src/LC-meter.c"
 13261                           	line	299
 13262                           	global	__size_of_measure_freq
 13263  0089                     	__size_of_measure_freq	equ	__end_of_measure_freq-_measure_freq
 13264                           	
 13265  0000'                    _measure_freq:	
 13266                           	opt	stack 5
 13267                           ; Regs used in _measure_freq: [wreg+status,2+status,0+btemp+1]
 13268                           	line	303
 13269                           	
 13270  0000'                    l9471:	
 13271                           ;LC-meter.c: 300: uint8_t prev;
 13272                           ;LC-meter.c: 301: uint16_t count;
 13273                           ;LC-meter.c: 303: TMR0IF = 0;
 13274  0000' 110B               	bcf	(90/8),(90)&7
 13275                           	line	305
 13276                           	
 13277  0001'                    l9473:	
 13278                           ;LC-meter.c: 305: TRISA &= ~0b00010000;
 13279  0001' 30EF               	movlw	(0EFh)
 13280  0002' 1283               	bcf	status, 5	;RP0=0, select bank0
 13281  0003' 1303               	bcf	status, 6	;RP1=0, select bank0
 13282  0004' 0082'              	movwf	(??_measure_freq+0)+0
 13283  0005' 0802'              	movf	(??_measure_freq+0)+0,w
 13284  0006' 1683               	bsf	status, 5	;RP0=1, select bank1
 13285  0007' 1303               	bcf	status, 6	;RP1=0, select bank1
 13286  0008' 0585               	andwf	(133)^080h,f	;volatile
 13287                           	line	308
 13288                           	
 13289  0009'                    l9475:	
 13290                           ;LC-meter.c: 308: _delay((unsigned long)((20)*(20000000/4000.0)));
 13291                           	opt asmopt_off
 13292  0009' 3082               movlw	130
 13293  000A' 1283               	bcf	status, 5	;RP0=0, select bank0
 13294  000B' 1303               	bcf	status, 6	;RP1=0, select bank0
 13295  000C' 0083'              movwf	((??_measure_freq+0)+0+1),f
 13296  000D' 30DD               	movlw	221
 13297  000E' 0082'              movwf	((??_measure_freq+0)+0),f
 13298  000F'                    u6657:
 13299  000F' 0B82'              	decfsz	((??_measure_freq+0)+0),f
 13300  0010' 2800'              	goto	u6657
 13301  0011' 0B83'              	decfsz	((??_measure_freq+0)+0+1),f
 13302  0012' 2800'              	goto	u6657
 13303  0013' 2800'              	nop2
 13304                           opt asmopt_on
 13305                           
 13306                           	line	310
 13307                           	
 13308  0014'                    l9477:	
 13309                           ;LC-meter.c: 310: TMR0 = 0x00;
 13310  0014' 1283               	bcf	status, 5	;RP0=0, select bank0
 13311  0015' 1303               	bcf	status, 6	;RP1=0, select bank0
 13312  0016' 0181               	clrf	(1)	;volatile
 13313                           	line	312
 13314                           	
 13315  0017'                    l9479:	
 13316                           ;LC-meter.c: 312: for(char i = 0; i < 10; i++)
 13317  0017' 0189'              	clrf	(measure_freq@i)
 13318                           	
 13319  0018'                    l9481:	
 13320  0018' 300A               	movlw	(0Ah)
 13321  0019' 0209'              	subwf	(measure_freq@i),w
 13322  001A' 1C03               	skipc
 13323  001B' 2800'              	goto	u5681
 13324  001C' 2800'              	goto	u5680
 13325  001D'                    u5681:
 13326  001D' 2800'              	goto	l9485
 13327  001E'                    u5680:
 13328  001E' 2800'              	goto	l3287
 13329                           	
 13330  001F'                    l9483:	
 13331  001F' 2800'              	goto	l3287
 13332                           	line	313
 13333                           	
 13334  0020'                    l3286:	
 13335                           	
 13336  0020'                    l9485:	
 13337                           ;LC-meter.c: 313: _delay((unsigned long)((10)*(20000000/4000.0)));
 13338                           	opt asmopt_off
 13339  0020' 3041               movlw	65
 13340  0021' 0083'              movwf	((??_measure_freq+0)+0+1),f
 13341  0022' 30EE               	movlw	238
 13342  0023' 0082'              movwf	((??_measure_freq+0)+0),f
 13343  0024'                    u6667:
 13344  0024' 0B82'              	decfsz	((??_measure_freq+0)+0),f
 13345  0025' 2800'              	goto	u6667
 13346  0026' 0B83'              	decfsz	((??_measure_freq+0)+0+1),f
 13347  0027' 2800'              	goto	u6667
 13348  0028' 0064               	clrwdt
 13349                           opt asmopt_on
 13350                           
 13351                           	line	312
 13352                           	
 13353  0029'                    l9487:	
 13354  0029' 3001               	movlw	(01h)
 13355  002A' 1283               	bcf	status, 5	;RP0=0, select bank0
 13356  002B' 1303               	bcf	status, 6	;RP1=0, select bank0
 13357  002C' 0082'              	movwf	(??_measure_freq+0)+0
 13358  002D' 0802'              	movf	(??_measure_freq+0)+0,w
 13359  002E' 0789'              	addwf	(measure_freq@i),f
 13360                           	
 13361  002F'                    l9489:	
 13362  002F' 300A               	movlw	(0Ah)
 13363  0030' 0209'              	subwf	(measure_freq@i),w
 13364  0031' 1C03               	skipc
 13365  0032' 2800'              	goto	u5691
 13366  0033' 2800'              	goto	u5690
 13367  0034'                    u5691:
 13368  0034' 2800'              	goto	l9485
 13369  0035'                    u5690:
 13370                           	
 13371  0035'                    l3287:	
 13372                           	line	315
 13373                           ;LC-meter.c: 315: TRISA |= 0b00010000;
 13374  0035' 1683               	bsf	status, 5	;RP0=1, select bank1
 13375  0036' 1303               	bcf	status, 6	;RP1=0, select bank1
 13376  0037' 1605               	bsf	(133)^080h+(4/8),(4)&7	;volatile
 13377                           	line	317
 13378                           	
 13379  0038'                    l9491:	
 13380                           ;LC-meter.c: 317: prev = TMR0;
 13381  0038' 1283               	bcf	status, 5	;RP0=0, select bank0
 13382  0039' 1303               	bcf	status, 6	;RP1=0, select bank0
 13383  003A' 0801               	movf	(1),w	;volatile
 13384  003B' 0082'              	movwf	(??_measure_freq+0)+0
 13385  003C' 0802'              	movf	(??_measure_freq+0)+0,w
 13386  003D' 0088'              	movwf	(measure_freq@prev)
 13387                           	line	318
 13388                           	
 13389  003E'                    l9493:	
 13390                           ;LC-meter.c: 318: count = 0;
 13391  003E' 018A'              	clrf	(measure_freq@count)
 13392  003F' 018B'              	clrf	(measure_freq@count+1)
 13393  0040' 2800'              	goto	l9495
 13394                           	line	320
 13395                           ;LC-meter.c: 320: do {
 13396                           	
 13397  0041'                    l3288:	
 13398                           	line	322
 13399                           	
 13400  0041'                    l9495:	
 13401                           ;LC-meter.c: 322: T0SE = 1;
 13402  0041' 1683               	bsf	status, 5	;RP0=1, select bank1
 13403  0042' 1303               	bcf	status, 6	;RP1=0, select bank1
 13404  0043' 1601               	bsf	(1036/8)^080h,(1036)&7
 13405                           	line	323
 13406                           	
 13407  0044'                    l9497:	
 13408                           ;LC-meter.c: 323: _nop();
 13409  0044' 0000               	nop
 13410                           	line	324
 13411                           	
 13412  0045'                    l9499:	
 13413                           ;LC-meter.c: 324: _nop();
 13414  0045' 0000               	nop
 13415                           	line	326
 13416                           	
 13417  0046'                    l9501:	
 13418                           ;LC-meter.c: 326: T0SE = 0;
 13419  0046' 1683               	bsf	status, 5	;RP0=1, select bank1
 13420  0047' 1303               	bcf	status, 6	;RP1=0, select bank1
 13421  0048' 1201               	bcf	(1036/8)^080h,(1036)&7
 13422                           	line	327
 13423                           	
 13424  0049'                    l9503:	
 13425                           ;LC-meter.c: 327: _nop();
 13426  0049' 0000               	nop
 13427                           	line	328
 13428                           	
 13429  004A'                    l9505:	
 13430                           ;LC-meter.c: 328: _nop();
 13431  004A' 0000               	nop
 13432                           	line	329
 13433                           	
 13434  004B'                    l9507:	
 13435                           ;LC-meter.c: 329: count++;
 13436  004B' 3001               	movlw	low(01h)
 13437  004C' 1283               	bcf	status, 5	;RP0=0, select bank0
 13438  004D' 1303               	bcf	status, 6	;RP1=0, select bank0
 13439  004E' 078A'              	addwf	(measure_freq@count),f
 13440  004F' 1803               	skipnc
 13441  0050' 0A8B'              	incf	(measure_freq@count+1),f
 13442  0051' 3000               	movlw	high(01h)
 13443  0052' 078B'              	addwf	(measure_freq@count+1),f
 13444                           	line	330
 13445                           	
 13446  0053'                    l9509:	
 13447                           ;LC-meter.c: 330: } while(prev == TMR0 && count <= 255);
 13448  0053' 0808'              	movf	(measure_freq@prev),w
 13449  0054' 0601               	xorwf	(1),w	;volatile
 13450  0055' 1D03               	skipz
 13451  0056' 2800'              	goto	u5701
 13452  0057' 2800'              	goto	u5700
 13453  0058'                    u5701:
 13454  0058' 2800'              	goto	l9513
 13455  0059'                    u5700:
 13456                           	
 13457  0059'                    l9511:	
 13458  0059' 3001               	movlw	high(0100h)
 13459  005A' 020B'              	subwf	(measure_freq@count+1),w
 13460  005B' 3000               	movlw	low(0100h)
 13461  005C' 1903               	skipnz
 13462  005D' 020A'              	subwf	(measure_freq@count),w
 13463  005E' 1C03               	skipc
 13464  005F' 2800'              	goto	u5711
 13465  0060' 2800'              	goto	u5710
 13466  0061'                    u5711:
 13467  0061' 2800'              	goto	l9495
 13468  0062'                    u5710:
 13469  0062' 2800'              	goto	l9513
 13470                           	
 13471  0063'                    l3290:	
 13472  0063' 2800'              	goto	l9513
 13473                           	
 13474  0064'                    l3291:	
 13475                           	line	333
 13476                           	
 13477  0064'                    l9513:	
 13478                           ;LC-meter.c: 333: count = ((prev << 8) + (256 - count));
 13479  0064' 090A'              	comf	(measure_freq@count),w
 13480  0065' 0082'              	movwf	(??_measure_freq+0)+0
 13481  0066' 090B'              	comf	(measure_freq@count+1),w
 13482  0067' 0083'              	movwf	((??_measure_freq+0)+0+1)
 13483  0068' 0A82'              	incf	(??_measure_freq+0)+0,f
 13484  0069' 1903               	skipnz
 13485  006A' 0A83'              	incf	((??_measure_freq+0)+0+1),f
 13486  006B' 0808'              	movf	(measure_freq@prev),w
 13487  006C' 0084'              	movwf	(??_measure_freq+2)+0
 13488  006D' 0185'              	clrf	(??_measure_freq+2)+0+1
 13489  006E' 0804'              	movf	(??_measure_freq+2)+0,w
 13490  006F' 0085'              	movwf	(??_measure_freq+2)+1
 13491  0070' 0184'              	clrf	(??_measure_freq+2)+0
 13492  0071' 0802'              	movf	0+(??_measure_freq+0)+0,w
 13493  0072' 0704'              	addwf	0+(??_measure_freq+2)+0,w
 13494  0073' 0086'              	movwf	(??_measure_freq+4)+0
 13495  0074' 0803'              	movf	1+(??_measure_freq+0)+0,w
 13496  0075' 1803               	skipnc
 13497  0076' 0A03'              	incf	1+(??_measure_freq+0)+0,w
 13498  0077' 0705'              	addwf	1+(??_measure_freq+2)+0,w
 13499  0078' 0087'              	movwf	1+(??_measure_freq+4)+0
 13500  0079' 0806'              	movf	0+(??_measure_freq+4)+0,w
 13501  007A' 3E00               	addlw	low(0100h)
 13502  007B' 008A'              	movwf	(measure_freq@count)
 13503  007C' 0807'              	movf	1+(??_measure_freq+4)+0,w
 13504  007D' 1803               	skipnc
 13505  007E' 3E01               	addlw	1
 13506  007F' 3E01               	addlw	high(0100h)
 13507  0080' 008B'              	movwf	1+(measure_freq@count)
 13508                           	line	340
 13509                           	
 13510  0081'                    l9515:	
 13511                           ;LC-meter.c: 340: return count;
 13512  0081' 080B'              	movf	(measure_freq@count+1),w
 13513  0082' 0181'              	clrf	(?_measure_freq+1)
 13514  0083' 0781'              	addwf	(?_measure_freq+1)
 13515  0084' 080A'              	movf	(measure_freq@count),w
 13516  0085' 0180'              	clrf	(?_measure_freq)
 13517  0086' 0780'              	addwf	(?_measure_freq)
 13518                           
 13519  0087' 2800'              	goto	l3292
 13520                           	
 13521  0088'                    l9517:	
 13522                           	line	341
 13523                           	
 13524  0088'                    l3292:	
 13525  0088' 0008               	return
 13526                           	opt stack 0
 13527                           GLOBAL	__end_of_measure_freq
 13528  0089'                    	__end_of_measure_freq:
 13529 ;; =============== function _measure_freq ends ============
 13530                           
 13531                           	signat	_measure_freq,90
 13532                           	global	_delay10ms
 13533                           psect	text1460,local,class=CODE,delta=2
 13534                           global __ptext1460
 13535  0000'                    __ptext1460:
 13536                           
 13537 ;; *************** function _delay10ms *****************
 13538 ;; Defined at:
 13539 ;;		line 533 in file "../../../src/LC-meter.c"
 13540 ;; Parameters:    Size  Location     Type
 13541 ;;  period_10ms     2    6[BANK0 ] unsigned int 
 13542 ;; Auto vars:     Size  Location     Type
 13543 ;;  ms              4   12[BANK0 ] unsigned long 
 13544 ;;  run             1   16[BANK0 ] unsigned char 
 13545 ;; Return value:  Size  Location     Type
 13546 ;;		None               void
 13547 ;; Registers used:
 13548 ;;		wreg, status,2, status,0, pclath, cstack
 13549 ;; Tracked objects:
 13550 ;;		On entry : 0/0
 13551 ;;		On exit  : 0/0
 13552 ;;		Unchanged: 0/0
 13553 ;; Data sizes:     COMMON   BANK0   BANK1   BANK3   BANK2
 13554 ;;      Params:         0       2       0       0       0
 13555 ;;      Locals:         0       5       0       0       0
 13556 ;;      Temps:          0       4       0       0       0
 13557 ;;      Totals:         0      11       0       0       0
 13558 ;;Total ram usage:       11 bytes
 13559 ;; Hardware stack levels used:    1
 13560 ;; Hardware stack levels required when called:    2
 13561 ;; This function calls:
 13562 ;;		___wmul
 13563 ;; This function is called by:
 13564 ;;		_main
 13565 ;;		_calibrate
 13566 ;;		_testloop
 13567 ;; This function uses a non-reentrant model
 13568 ;;
 13569                           psect	text1460
 13570                           	file	"../../../src/LC-meter.c"
 13571                           	line	533
 13572                           	global	__size_of_delay10ms
 13573  007C                     	__size_of_delay10ms	equ	__end_of_delay10ms-_delay10ms
 13574                           	
 13575  0000'                    _delay10ms:	
 13576                           	opt	stack 4
 13577                           ; Regs used in _delay10ms: [wreg+status,2+status,0+pclath+cstack]
 13578                           	line	538
 13579                           	
 13580  0000'                    l9453:	
 13581                           ;LC-meter.c: 537: uint32_t ms;
 13582                           ;LC-meter.c: 538: BOOL run = 1;
 13583  0000' 1283               	bcf	status, 5	;RP0=0, select bank0
 13584  0001' 1303               	bcf	status, 6	;RP1=0, select bank0
 13585  0002' 0190'              	clrf	(delay10ms@run)
 13586  0003' 1403               	bsf	status,0
 13587  0004' 0D90'              	rlf	(delay10ms@run),f
 13588                           	line	540
 13589                           	
 13590  0005'                    l9455:	
 13591                           ;LC-meter.c: 540: GIE = 0, ms = msecs, GIE = 1;
 13592  0005' 138B               	bcf	(95/8),(95)&7
 13593                           	
 13594  0006'                    l9457:	
 13595  0006' 1683               	bsf	status, 5	;RP0=1, select bank3
 13596  0007' 1703               	bsf	status, 6	;RP1=1, select bank3
 13597  0008' 0800'              	movf	(_msecs+3)^0180h,w	;volatile
 13598  0009' 1283               	bcf	status, 5	;RP0=0, select bank0
 13599  000A' 1303               	bcf	status, 6	;RP1=0, select bank0
 13600  000B' 008F'              	movwf	(delay10ms@ms+3)
 13601  000C' 1683               	bsf	status, 5	;RP0=1, select bank3
 13602  000D' 1703               	bsf	status, 6	;RP1=1, select bank3
 13603  000E' 0800'              	movf	(_msecs+2)^0180h,w	;volatile
 13604  000F' 1283               	bcf	status, 5	;RP0=0, select bank0
 13605  0010' 1303               	bcf	status, 6	;RP1=0, select bank0
 13606  0011' 008E'              	movwf	(delay10ms@ms+2)
 13607  0012' 1683               	bsf	status, 5	;RP0=1, select bank3
 13608  0013' 1703               	bsf	status, 6	;RP1=1, select bank3
 13609  0014' 0800'              	movf	(_msecs+1)^0180h,w	;volatile
 13610  0015' 1283               	bcf	status, 5	;RP0=0, select bank0
 13611  0016' 1303               	bcf	status, 6	;RP1=0, select bank0
 13612  0017' 008D'              	movwf	(delay10ms@ms+1)
 13613  0018' 1683               	bsf	status, 5	;RP0=1, select bank3
 13614  0019' 1703               	bsf	status, 6	;RP1=1, select bank3
 13615  001A' 0800'              	movf	(_msecs)^0180h,w	;volatile
 13616  001B' 1283               	bcf	status, 5	;RP0=0, select bank0
 13617  001C' 1303               	bcf	status, 6	;RP1=0, select bank0
 13618  001D' 008C'              	movwf	(delay10ms@ms)
 13619                           
 13620                           	
 13621  001E'                    l9459:	
 13622  001E' 178B               	bsf	(95/8),(95)&7
 13623                           	line	545
 13624                           	
 13625  001F'                    l9461:	
 13626                           ;LC-meter.c: 545: ms += period_10ms * 10;
 13627  001F' 0807'              	movf	(delay10ms@period_10ms+1),w
 13628  0020' 0181'              	clrf	(?___wmul+1)
 13629  0021' 0781'              	addwf	(?___wmul+1)
 13630  0022' 0806'              	movf	(delay10ms@period_10ms),w
 13631  0023' 0180'              	clrf	(?___wmul)
 13632  0024' 0780'              	addwf	(?___wmul)
 13633                           
 13634  0025' 300A               	movlw	low(0Ah)
 13635  0026' 0082'              	movwf	0+(?___wmul)+02h
 13636  0027' 3000               	movlw	high(0Ah)
 13637  0028' 0083'              	movwf	(0+(?___wmul)+02h)+1
 13638  0029' 120A' 118A' 2000'  	fcall	___wmul
              120A' 118A'        
 13639  002E' 1283               	bcf	status, 5	;RP0=0, select bank0
 13640  002F' 1303               	bcf	status, 6	;RP1=0, select bank0
 13641  0030' 0800'              	movf	(0+(?___wmul)),w
 13642  0031' 0088'              	movwf	((??_delay10ms+0)+0)
 13643  0032' 0801'              	movf	(1+(?___wmul)),w
 13644  0033' 0089'              	movwf	((??_delay10ms+0)+0+1)
 13645  0034' 018A'              	clrf	((??_delay10ms+0)+0+2)
 13646  0035' 018B'              	clrf	((??_delay10ms+0)+0+3)
 13647  0036' 0808'              	movf	0+(??_delay10ms+0)+0,w
 13648  0037' 078C'              	addwf	(delay10ms@ms),f
 13649  0038' 0809'              	movf	1+(??_delay10ms+0)+0,w
 13650  0039' 1103               	clrz
 13651  003A' 1803               	skipnc
 13652  003B' 3E01               	addlw	1
 13653  003C' 1903               	skipnz
 13654  003D' 2800'              	goto	u5651
 13655  003E' 078D'              	addwf	(delay10ms@ms+1),f
 13656  003F'                    u5651:
 13657  003F' 080A'              	movf	2+(??_delay10ms+0)+0,w
 13658  0040' 1103               	clrz
 13659  0041' 1803               	skipnc
 13660  0042' 3E01               	addlw	1
 13661  0043' 1903               	skipnz
 13662  0044' 2800'              	goto	u5652
 13663  0045' 078E'              	addwf	(delay10ms@ms+2),f
 13664  0046'                    u5652:
 13665  0046' 080B'              	movf	3+(??_delay10ms+0)+0,w
 13666  0047' 1103               	clrz
 13667  0048' 1803               	skipnc
 13668  0049' 3E01               	addlw	1
 13669  004A' 1903               	skipnz
 13670  004B' 2800'              	goto	u5653
 13671  004C' 078F'              	addwf	(delay10ms@ms+3),f
 13672  004D'                    u5653:
 13673                           
 13674  004D' 2800'              	goto	l9463
 13675                           	line	548
 13676                           ;LC-meter.c: 548: do {
 13677                           	
 13678  004E'                    l3318:	
 13679                           	line	549
 13680                           	
 13681  004E'                    l9463:	
 13682                           ;LC-meter.c: 549: GIE = 0;
 13683  004E' 138B               	bcf	(95/8),(95)&7
 13684                           	line	550
 13685                           	
 13686  004F'                    l9465:	
 13687                           ;LC-meter.c: 550: if(ms <= msecs)
 13688  004F' 080F'              	movf	(delay10ms@ms+3),w
 13689  0050' 1683               	bsf	status, 5	;RP0=1, select bank3
 13690  0051' 1703               	bsf	status, 6	;RP1=1, select bank3
 13691  0052' 0200'              	subwf	(_msecs+3)^0180h,w	;volatile
 13692  0053' 1D03               	skipz
 13693  0054' 2800'              	goto	u5665
 13694  0055' 1283               	bcf	status, 5	;RP0=0, select bank0
 13695  0056' 1303               	bcf	status, 6	;RP1=0, select bank0
 13696  0057' 080E'              	movf	(delay10ms@ms+2),w
 13697  0058' 1683               	bsf	status, 5	;RP0=1, select bank3
 13698  0059' 1703               	bsf	status, 6	;RP1=1, select bank3
 13699  005A' 0200'              	subwf	(_msecs+2)^0180h,w	;volatile
 13700  005B' 1D03               	skipz
 13701  005C' 2800'              	goto	u5665
 13702  005D' 1283               	bcf	status, 5	;RP0=0, select bank0
 13703  005E' 1303               	bcf	status, 6	;RP1=0, select bank0
 13704  005F' 080D'              	movf	(delay10ms@ms+1),w
 13705  0060' 1683               	bsf	status, 5	;RP0=1, select bank3
 13706  0061' 1703               	bsf	status, 6	;RP1=1, select bank3
 13707  0062' 0200'              	subwf	(_msecs+1)^0180h,w	;volatile
 13708  0063' 1D03               	skipz
 13709  0064' 2800'              	goto	u5665
 13710  0065' 1283               	bcf	status, 5	;RP0=0, select bank0
 13711  0066' 1303               	bcf	status, 6	;RP1=0, select bank0
 13712  0067' 080C'              	movf	(delay10ms@ms),w
 13713  0068' 1683               	bsf	status, 5	;RP0=1, select bank3
 13714  0069' 1703               	bsf	status, 6	;RP1=1, select bank3
 13715  006A' 0200'              	subwf	(_msecs)^0180h,w	;volatile
 13716  006B'                    u5665:
 13717  006B' 1C03               	skipc
 13718  006C' 2800'              	goto	u5661
 13719  006D' 2800'              	goto	u5660
 13720  006E'                    u5661:
 13721  006E' 2800'              	goto	l3319
 13722  006F'                    u5660:
 13723                           	line	551
 13724                           	
 13725  006F'                    l9467:	
 13726                           ;LC-meter.c: 551: run = 0;
 13727  006F' 1283               	bcf	status, 5	;RP0=0, select bank0
 13728  0070' 1303               	bcf	status, 6	;RP1=0, select bank0
 13729  0071' 0190'              	clrf	(delay10ms@run)
 13730                           	
 13731  0072'                    l3319:	
 13732                           	line	552
 13733                           ;LC-meter.c: 552: GIE = 1;
 13734  0072' 178B               	bsf	(95/8),(95)&7
 13735                           	line	553
 13736                           	
 13737  0073'                    l9469:	
 13738                           ;LC-meter.c: 553: } while(run);
 13739  0073' 1283               	bcf	status, 5	;RP0=0, select bank0
 13740  0074' 1303               	bcf	status, 6	;RP1=0, select bank0
 13741  0075' 0890'              	movf	(delay10ms@run),f
 13742  0076' 1D03               	skipz
 13743  0077' 2800'              	goto	u5671
 13744  0078' 2800'              	goto	u5670
 13745  0079'                    u5671:
 13746  0079' 2800'              	goto	l9463
 13747  007A'                    u5670:
 13748  007A' 2800'              	goto	l3321
 13749                           	
 13750  007B'                    l3320:	
 13751                           	line	554
 13752                           	
 13753  007B'                    l3321:	
 13754  007B' 0008               	return
 13755                           	opt stack 0
 13756                           GLOBAL	__end_of_delay10ms
 13757  007C'                    	__end_of_delay10ms:
 13758 ;; =============== function _delay10ms ends ============
 13759                           
 13760                           	signat	_delay10ms,4216
 13761                           	global	_output_putch
 13762                           	global	_ser_putch
 13763                           	global	_format_putchar
 13764                           psect	text1461,local,class=CODE,delta=2
 13765                           global __ptext1461
 13766  0000'                    __ptext1461:
 13767                           
 13768 ;; *************** function _format_putchar *****************
 13769 ;; Defined at:
 13770 ;;		line 6 in file "../../../lib/format.c"
 13771 ;; Parameters:    Size  Location     Type
 13772 ;;  c               1    4[BANK0 ] unsigned char 
 13773 ;; Auto vars:     Size  Location     Type
 13774 ;;		None
 13775 ;; Return value:  Size  Location     Type
 13776 ;;		None               void
 13777 ;; Registers used:
 13778 ;;		None
 13779 ;; Tracked objects:
 13780 ;;		On entry : 0/0
 13781 ;;		On exit  : 0/0
 13782 ;;		Unchanged: 0/0
 13783 ;; Data sizes:     COMMON   BANK0   BANK1   BANK3   BANK2
 13784 ;;      Params:         0       1       0       0       0
 13785 ;;      Locals:         0       0       0       0       0
 13786 ;;      Temps:          0       0       0       0       0
 13787 ;;      Totals:         0       1       0       0       0
 13788 ;;Total ram usage:        1 bytes
 13789 ;; Hardware stack levels used:    1
 13790 ;; Hardware stack levels required when called:    1
 13791 ;; This function calls:
 13792 ;;		Nothing
 13793 ;; This function is called by:
 13794 ;;		_format_float
 13795 ;;		_format_number
 13796 ;;		_format_xint32
 13797 ;;		_format_double
 13798 ;; This function uses a non-reentrant model
 13799 ;;
 13800                           psect	text1461
 13801                           	file	"../../../lib/format.c"
 13802                           	line	6
 13803                           	global	__size_of_format_putchar
 13804  0001                     	__size_of_format_putchar	equ	__end_of_format_putchar-_format_putchar
 13805                           	
 13806  0000'                    _format_putchar:	
 13807                           	opt	stack 4
 13808                           ; Regs used in _format_putchar: []
 13809                           	line	7
 13810                           	
 13811  0000'                    l9255:	
 13812                           	line	8
 13813                           ;format.c: 7: return;
 13814                           	
 13815  0000'                    l2540:	
 13816  0000' 0008               	return
 13817                           	opt stack 0
 13818                           GLOBAL	__end_of_format_putchar
 13819  0001'                    	__end_of_format_putchar:
 13820 ;; =============== function _format_putchar ends ============
 13821                           
 13822                           	signat	_format_putchar,4216
 13823                           psect	text1462,local,class=CODE,delta=2
 13824                           global __ptext1462
 13825  0000'                    __ptext1462:
 13826                           
 13827 ;; *************** function _ser_putch *****************
 13828 ;; Defined at:
 13829 ;;		line 82 in file "../../../lib/ser.c"
 13830 ;; Parameters:    Size  Location     Type
 13831 ;;  c               1    4[BANK0 ] unsigned char 
 13832 ;; Auto vars:     Size  Location     Type
 13833 ;;		None
 13834 ;; Return value:  Size  Location     Type
 13835 ;;		None               void
 13836 ;; Registers used:
 13837 ;;		wreg, fsr0l, fsr0h, status,2, status,0
 13838 ;; Tracked objects:
 13839 ;;		On entry : 0/0
 13840 ;;		On exit  : 0/0
 13841 ;;		Unchanged: 0/0
 13842 ;; Data sizes:     COMMON   BANK0   BANK1   BANK3   BANK2
 13843 ;;      Params:         0       1       0       0       0
 13844 ;;      Locals:         0       0       0       0       0
 13845 ;;      Temps:          0       1       0       0       0
 13846 ;;      Totals:         0       2       0       0       0
 13847 ;;Total ram usage:        2 bytes
 13848 ;; Hardware stack levels used:    1
 13849 ;; Hardware stack levels required when called:    1
 13850 ;; This function calls:
 13851 ;;		Nothing
 13852 ;; This function is called by:
 13853 ;;		_ser_puts
 13854 ;;		_output_putch
 13855 ;;		_measure_capacitance
 13856 ;;		_ser_put
 13857 ;;		_ser_puts2
 13858 ;;		_ser_puthex
 13859 ;;		_format_float
 13860 ;;		_format_number
 13861 ;;		_format_xint32
 13862 ;;		_format_double
 13863 ;; This function uses a non-reentrant model
 13864 ;;
 13865                           psect	text1462
 13866                           	file	"../../../lib/ser.c"
 13867                           	line	82
 13868                           	global	__size_of_ser_putch
 13869  0020                     	__size_of_ser_putch	equ	__end_of_ser_putch-_ser_putch
 13870                           	
 13871  0000'                    _ser_putch:	
 13872                           	opt	stack 5
 13873                           ; Regs used in _ser_putch: [wreg-fsr0h+status,2+status,0]
 13874                           	line	83
 13875                           	
 13876  0000'                    l9169:	
 13877                           ;ser.c: 83: while(((txiptr + 1) & ((uint8_t)16 - 1)) == txoptr) continue;
 13878  0000' 2800'              	goto	l9171
 13879                           	
 13880  0001'                    l1276:	
 13881  0001' 2800'              	goto	l9171
 13882                           	
 13883  0002'                    l1275:	
 13884                           	
 13885  0002'                    l9171:	
 13886  0002' 0802'              	movf	(_txiptr),w	;volatile
 13887  0003' 3E01               	addlw	01h
 13888  0004' 390F               	andlw	0Fh
 13889  0005' 0603'              	xorwf	(_txoptr),w	;volatile
 13890  0006' 1903               	skipnz
 13891  0007' 2800'              	goto	u5051
 13892  0008' 2800'              	goto	u5050
 13893  0009'                    u5051:
 13894  0009' 2800'              	goto	l9171
 13895  000A'                    u5050:
 13896                           	
 13897  000A'                    l1277:	
 13898                           	line	84
 13899                           ;ser.c: 84: GIE = 0;
 13900  000A' 138B               	bcf	(95/8),(95)&7
 13901                           	line	85
 13902                           	
 13903  000B'                    l9173:	
 13904                           ;ser.c: 85: txfifo[txiptr] = c;
 13905  000B' 1283               	bcf	status, 5	;RP0=0, select bank0
 13906  000C' 1303               	bcf	status, 6	;RP1=0, select bank0
 13907  000D' 0804'              	movf	(ser_putch@c),w
 13908  000E' 0081'              	movwf	(??_ser_putch+0)+0
 13909  000F' 0802'              	movf	(_txiptr),w
 13910  0010' 3E00'              	addlw	_txfifo&0ffh
 13911  0011' 0084               	movwf	fsr0
 13912  0012' 0801'              	movf	(??_ser_putch+0)+0,w
 13913  0013' 1783               	bsf	status, 7	;select IRP bank2
 13914  0014' 0080               	movwf	indf
 13915                           	line	86
 13916                           	
 13917  0015'                    l9175:	
 13918                           ;ser.c: 86: txiptr = (txiptr + 1) & ((uint8_t)16 - 1);
 13919  0015' 0802'              	movf	(_txiptr),w	;volatile
 13920  0016' 3E01               	addlw	01h
 13921  0017' 390F               	andlw	0Fh
 13922  0018' 0081'              	movwf	(??_ser_putch+0)+0
 13923  0019' 0801'              	movf	(??_ser_putch+0)+0,w
 13924  001A' 0082'              	movwf	(_txiptr)	;volatile
 13925                           	line	87
 13926                           	
 13927  001B'                    l9177:	
 13928                           ;ser.c: 87: TXIE = 1;
 13929  001B' 1683               	bsf	status, 5	;RP0=1, select bank1
 13930  001C' 1303               	bcf	status, 6	;RP1=0, select bank1
 13931  001D' 160C               	bsf	(1124/8)^080h,(1124)&7
 13932                           	line	88
 13933                           	
 13934  001E'                    l9179:	
 13935                           ;ser.c: 88: GIE = 1;
 13936  001E' 178B               	bsf	(95/8),(95)&7
 13937                           	line	89
 13938                           	
 13939  001F'                    l1278:	
 13940  001F' 0008               	return
 13941                           	opt stack 0
 13942                           GLOBAL	__end_of_ser_putch
 13943  0020'                    	__end_of_ser_putch:
 13944 ;; =============== function _ser_putch ends ============
 13945                           
 13946                           	signat	_ser_putch,4216
 13947                           psect	text1463,local,class=CODE,delta=2
 13948                           global __ptext1463
 13949  0000'                    __ptext1463:
 13950                           
 13951 ;; *************** function _output_putch *****************
 13952 ;; Defined at:
 13953 ;;		line 48 in file "../../../src/LC-meter.c"
 13954 ;; Parameters:    Size  Location     Type
 13955 ;;  c               1    4[BANK0 ] unsigned char 
 13956 ;; Auto vars:     Size  Location     Type
 13957 ;;		None
 13958 ;; Return value:  Size  Location     Type
 13959 ;;		None               void
 13960 ;; Registers used:
 13961 ;;		wreg, fsr0l, fsr0h, status,2, status,0, pclath, cstack
 13962 ;; Tracked objects:
 13963 ;;		On entry : 0/0
 13964 ;;		On exit  : 0/0
 13965 ;;		Unchanged: 0/0
 13966 ;; Data sizes:     COMMON   BANK0   BANK1   BANK3   BANK2
 13967 ;;      Params:         0       1       0       0       0
 13968 ;;      Locals:         0       0       0       0       0
 13969 ;;      Temps:          0       1       0       0       0
 13970 ;;      Totals:         0       2       0       0       0
 13971 ;;Total ram usage:        2 bytes
 13972 ;; Hardware stack levels used:    1
 13973 ;; Hardware stack levels required when called:    2
 13974 ;; This function calls:
 13975 ;;		_ser_putch
 13976 ;; This function is called by:
 13977 ;;		_measure_capacitance
 13978 ;;		_put_str
 13979 ;;		_format_float
 13980 ;;		_format_number
 13981 ;;		_format_xint32
 13982 ;;		_format_double
 13983 ;; This function uses a non-reentrant model
 13984 ;;
 13985                           psect	text1463
 13986                           	file	"../../../src/LC-meter.c"
 13987                           	line	48
 13988                           	global	__size_of_output_putch
 13989  000C                     	__size_of_output_putch	equ	__end_of_output_putch-_output_putch
 13990                           	
 13991  0000'                    _output_putch:	
 13992                           	opt	stack 3
 13993                           ; Regs used in _output_putch: [wreg-fsr0h+status,2+status,0+pclath+cstack]
 13994                           	line	54
 13995                           	
 13996  0000'                    l9451:	
 13997                           ;LC-meter.c: 54: ser_putch(c);
 13998  0000' 1283               	bcf	status, 5	;RP0=0, select bank0
 13999  0001' 1303               	bcf	status, 6	;RP1=0, select bank0
 14000  0002' 0804'              	movf	(output_putch@c),w
 14001  0003' 0085'              	movwf	(??_output_putch+0)+0
 14002  0004' 0805'              	movf	(??_output_putch+0)+0,w
 14003  0005' 0084'              	movwf	(?_ser_putch)
 14004  0006' 120A' 118A' 2000'  	fcall	_ser_putch
              120A' 118A'        
 14005                           	line	56
 14006                           	
 14007  000B'                    l3257:	
 14008  000B' 0008               	return
 14009                           	opt stack 0
 14010                           GLOBAL	__end_of_output_putch
 14011  000C'                    	__end_of_output_putch:
 14012 ;; =============== function _output_putch ends ============
 14013                           
 14014                           	signat	_output_putch,4216
 14015                           	global	_ser_puts
 14016                           psect	text1464,local,class=CODE,delta=2
 14017                           global __ptext1464
 14018  0000'                    __ptext1464:
 14019                           
 14020 ;; *************** function _ser_puts *****************
 14021 ;; Defined at:
 14022 ;;		line 92 in file "../../../lib/ser.c"
 14023 ;; Parameters:    Size  Location     Type
 14024 ;;  s               1    wreg     PTR const unsigned char 
 14025 ;;		 -> STR_11(3), STR_10(5), STR_9(3), STR_8(8), 
 14026 ;;		 -> STR_7(6), STR_6(6), STR_5(6), STR_4(5), 
 14027 ;;		 -> STR_3(3), STR_2(3), STR_1(6), 
 14028 ;; Auto vars:     Size  Location     Type
 14029 ;;  s               1    3[BANK0 ] PTR const unsigned char 
 14030 ;;		 -> STR_11(3), STR_10(5), STR_9(3), STR_8(8), 
 14031 ;;		 -> STR_7(6), STR_6(6), STR_5(6), STR_4(5), 
 14032 ;;		 -> STR_3(3), STR_2(3), STR_1(6), 
 14033 ;; Return value:  Size  Location     Type
 14034 ;;		None               void
 14035 ;; Registers used:
 14036 ;;		wreg, fsr0l, fsr0h, status,2, status,0, pclath, cstack
 14037 ;; Tracked objects:
 14038 ;;		On entry : 0/0
 14039 ;;		On exit  : 0/0
 14040 ;;		Unchanged: 0/0
 14041 ;; Data sizes:     COMMON   BANK0   BANK1   BANK3   BANK2
 14042 ;;      Params:         0       0       0       0       0
 14043 ;;      Locals:         0       1       0       0       0
 14044 ;;      Temps:          0       1       0       0       0
 14045 ;;      Totals:         0       2       0       0       0
 14046 ;;Total ram usage:        2 bytes
 14047 ;; Hardware stack levels used:    1
 14048 ;; Hardware stack levels required when called:    2
 14049 ;; This function calls:
 14050 ;;		_ser_putch
 14051 ;; This function is called by:
 14052 ;;		_main
 14053 ;;		_calibrate
 14054 ;;		_measure_capacitance
 14055 ;;		_testloop
 14056 ;; This function uses a non-reentrant model
 14057 ;;
 14058                           psect	text1464
 14059                           	file	"../../../lib/ser.c"
 14060                           	line	92
 14061                           	global	__size_of_ser_puts
 14062  0028                     	__size_of_ser_puts	equ	__end_of_ser_puts-_ser_puts
 14063                           	
 14064  0000'                    _ser_puts:	
 14065                           	opt	stack 4
 14066                           ; Regs used in _ser_puts: [wreg-fsr0h+status,2+status,0+pclath+cstack]
 14067                           ;ser_puts@s stored from wreg
 14068  0000' 1283               	bcf	status, 5	;RP0=0, select bank0
 14069  0001' 1303               	bcf	status, 6	;RP1=0, select bank0
 14070  0002' 0083'              	movwf	(ser_puts@s)
 14071                           	line	93
 14072                           	
 14073  0003'                    l9443:	
 14074                           ;ser.c: 93: while(*s) ser_putch(*s++);
 14075  0003' 2800'              	goto	l9449
 14076                           	
 14077  0004'                    l1282:	
 14078                           	
 14079  0004'                    l9445:	
 14080  0004' 0803'              	movf	(ser_puts@s),w
 14081  0005' 0084               	movwf	fsr0
 14082  0006' 120A' 118A' 2000'  	fcall	stringdir
              120A' 118A'        
 14083  000B' 0082'              	movwf	(??_ser_puts+0)+0
 14084  000C' 0802'              	movf	(??_ser_puts+0)+0,w
 14085  000D' 0084'              	movwf	(?_ser_putch)
 14086  000E' 120A' 118A' 2000'  	fcall	_ser_putch
              120A' 118A'        
 14087                           	
 14088  0013'                    l9447:	
 14089  0013' 3001               	movlw	(01h)
 14090  0014' 1283               	bcf	status, 5	;RP0=0, select bank0
 14091  0015' 1303               	bcf	status, 6	;RP1=0, select bank0
 14092  0016' 0082'              	movwf	(??_ser_puts+0)+0
 14093  0017' 0802'              	movf	(??_ser_puts+0)+0,w
 14094  0018' 0783'              	addwf	(ser_puts@s),f
 14095  0019' 2800'              	goto	l9449
 14096                           	
 14097  001A'                    l1281:	
 14098                           	
 14099  001A'                    l9449:	
 14100  001A' 0803'              	movf	(ser_puts@s),w
 14101  001B' 0084               	movwf	fsr0
 14102  001C' 120A' 118A' 2000'  	fcall	stringdir
              120A' 118A'        
 14103  0021' 3800               	iorlw	0
 14104  0022' 1D03               	skipz
 14105  0023' 2800'              	goto	u5641
 14106  0024' 2800'              	goto	u5640
 14107  0025'                    u5641:
 14108  0025' 2800'              	goto	l9445
 14109  0026'                    u5640:
 14110  0026' 2800'              	goto	l1284
 14111                           	
 14112  0027'                    l1283:	
 14113                           	line	94
 14114                           	
 14115  0027'                    l1284:	
 14116  0027' 0008               	return
 14117                           	opt stack 0
 14118                           GLOBAL	__end_of_ser_puts
 14119  0028'                    	__end_of_ser_puts:
 14120 ;; =============== function _ser_puts ends ============
 14121                           
 14122                           	signat	_ser_puts,4216
 14123                           	global	___flge
 14124                           psect	text1465,local,class=CODE,delta=2
 14125                           global __ptext1465
 14126  0000'                    __ptext1465:
 14127                           
 14128 ;; *************** function ___flge *****************
 14129 ;; Defined at:
 14130 ;;		line 5 in file "/opt/hitech/picc/9.83/sources/flge.c"
 14131 ;; Parameters:    Size  Location     Type
 14132 ;;  ff1             4    0[BANK0 ] PTR const unsigned char 
 14133 ;;  ff2             4    4[BANK0 ] PTR const unsigned char 
 14134 ;; Auto vars:     Size  Location     Type
 14135 ;;		None
 14136 ;; Return value:  Size  Location     Type
 14137 ;;		None               void
 14138 ;; Registers used:
 14139 ;;		wreg, status,2, status,0
 14140 ;; Tracked objects:
 14141 ;;		On entry : 0/0
 14142 ;;		On exit  : 0/0
 14143 ;;		Unchanged: 0/0
 14144 ;; Data sizes:     COMMON   BANK0   BANK1   BANK3   BANK2
 14145 ;;      Params:         0       8       0       0       0
 14146 ;;      Locals:         0       0       0       0       0
 14147 ;;      Temps:          0       8       0       0       0
 14148 ;;      Totals:         0      16       0       0       0
 14149 ;;Total ram usage:       16 bytes
 14150 ;; Hardware stack levels used:    1
 14151 ;; Hardware stack levels required when called:    1
 14152 ;; This function calls:
 14153 ;;		Nothing
 14154 ;; This function is called by:
 14155 ;;		_format_double
 14156 ;;		_measure_capacitance
 14157 ;;		_measure_inductance
 14158 ;;		_floor
 14159 ;;		_log
 14160 ;;		_pow
 14161 ;;		_ldexp
 14162 ;;		_exp
 14163 ;;		_format_float
 14164 ;; This function uses a non-reentrant model
 14165 ;;
 14166                           psect	text1465
 14167                           	file	"/opt/hitech/picc/9.83/sources/flge.c"
 14168                           	line	5
 14169                           	global	__size_of___flge
 14170  008A                     	__size_of___flge	equ	__end_of___flge-___flge
 14171                           	
 14172  0000'                    ___flge:	
 14173                           	opt	stack 5
 14174                           ; Regs used in ___flge: [wreg+status,2+status,0]
 14175                           	line	6
 14176                           	
 14177  0000'                    l8135:	
 14178  0000' 1283               	bcf	status, 5	;RP0=0, select bank0
 14179  0001' 1303               	bcf	status, 6	;RP1=0, select bank0
 14180  0002' 1F83'              	btfss	(___flge@ff1+3),(31)&7
 14181  0003' 2800'              	goto	u3971
 14182  0004' 2800'              	goto	u3970
 14183  0005'                    u3971:
 14184  0005' 2800'              	goto	l8139
 14185  0006'                    u3970:
 14186                           	line	7
 14187                           	
 14188  0006'                    l8137:	
 14189  0006' 3000               	movlw	0
 14190  0007' 0088'              	movwf	((??___flge+0)+0)
 14191  0008' 3000               	movlw	0
 14192  0009' 0089'              	movwf	((??___flge+0)+0+1)
 14193  000A' 3000               	movlw	0
 14194  000B' 008A'              	movwf	((??___flge+0)+0+2)
 14195  000C' 3080               	movlw	080h
 14196  000D' 008B'              	movwf	((??___flge+0)+0+3)
 14197  000E' 0900'              	comf	(___flge@ff1),w
 14198  000F' 008C'              	movwf	(??___flge+4)+0
 14199  0010' 0901'              	comf	(___flge@ff1+1),w
 14200  0011' 008D'              	movwf	((??___flge+4)+0+1)
 14201  0012' 0902'              	comf	(___flge@ff1+2),w
 14202  0013' 008E'              	movwf	((??___flge+4)+0+2)
 14203  0014' 0903'              	comf	(___flge@ff1+3),w
 14204  0015' 008F'              	movwf	((??___flge+4)+0+3)
 14205  0016' 0A8C'              	incf	(??___flge+4)+0,f
 14206  0017' 1903               	skipnz
 14207  0018' 0A8D'              	incf	((??___flge+4)+0+1),f
 14208  0019' 1903               	skipnz
 14209  001A' 0A8E'              	incf	((??___flge+4)+0+2),f
 14210  001B' 1903               	skipnz
 14211  001C' 0A8F'              	incf	((??___flge+4)+0+3),f
 14212  001D' 080C'              	movf	0+(??___flge+4)+0,w
 14213  001E' 0788'              	addwf	(??___flge+0)+0,f
 14214  001F' 080D'              	movf	1+(??___flge+4)+0,w
 14215  0020' 1803               	skipnc
 14216  0021' 0F0D'              	incfsz	1+(??___flge+4)+0,w
 14217  0022' 2800'              	goto	u3980
 14218  0023' 2800'              	goto	u3981
 14219  0024'                    u3980:
 14220  0024' 0789'              	addwf	(??___flge+0)+1,f
 14221  0025'                    u3981:
 14222  0025' 080E'              	movf	2+(??___flge+4)+0,w
 14223  0026' 1803               	skipnc
 14224  0027' 0F0E'              	incfsz	2+(??___flge+4)+0,w
 14225  0028' 2800'              	goto	u3982
 14226  0029' 2800'              	goto	u3983
 14227  002A'                    u3982:
 14228  002A' 078A'              	addwf	(??___flge+0)+2,f
 14229  002B'                    u3983:
 14230  002B' 080F'              	movf	3+(??___flge+4)+0,w
 14231  002C' 1803               	skipnc
 14232  002D' 0A0F'              	incf	3+(??___flge+4)+0,w
 14233  002E' 078B'              	addwf	(??___flge+0)+3,f
 14234  002F' 080B'              	movf	3+(??___flge+0)+0,w
 14235  0030' 0083'              	movwf	(___flge@ff1+3)
 14236  0031' 080A'              	movf	2+(??___flge+0)+0,w
 14237  0032' 0082'              	movwf	(___flge@ff1+2)
 14238  0033' 0809'              	movf	1+(??___flge+0)+0,w
 14239  0034' 0081'              	movwf	(___flge@ff1+1)
 14240  0035' 0808'              	movf	0+(??___flge+0)+0,w
 14241  0036' 0080'              	movwf	(___flge@ff1)
 14242                           
 14243  0037' 2800'              	goto	l8139
 14244                           	
 14245  0038'                    l4173:	
 14246                           	line	8
 14247                           	
 14248  0038'                    l8139:	
 14249  0038' 1F87'              	btfss	(___flge@ff2+3),(31)&7
 14250  0039' 2800'              	goto	u3991
 14251  003A' 2800'              	goto	u3990
 14252  003B'                    u3991:
 14253  003B' 2800'              	goto	l8143
 14254  003C'                    u3990:
 14255                           	line	9
 14256                           	
 14257  003C'                    l8141:	
 14258  003C' 3000               	movlw	0
 14259  003D' 0088'              	movwf	((??___flge+0)+0)
 14260  003E' 3000               	movlw	0
 14261  003F' 0089'              	movwf	((??___flge+0)+0+1)
 14262  0040' 3000               	movlw	0
 14263  0041' 008A'              	movwf	((??___flge+0)+0+2)
 14264  0042' 3080               	movlw	080h
 14265  0043' 008B'              	movwf	((??___flge+0)+0+3)
 14266  0044' 0904'              	comf	(___flge@ff2),w
 14267  0045' 008C'              	movwf	(??___flge+4)+0
 14268  0046' 0905'              	comf	(___flge@ff2+1),w
 14269  0047' 008D'              	movwf	((??___flge+4)+0+1)
 14270  0048' 0906'              	comf	(___flge@ff2+2),w
 14271  0049' 008E'              	movwf	((??___flge+4)+0+2)
 14272  004A' 0907'              	comf	(___flge@ff2+3),w
 14273  004B' 008F'              	movwf	((??___flge+4)+0+3)
 14274  004C' 0A8C'              	incf	(??___flge+4)+0,f
 14275  004D' 1903               	skipnz
 14276  004E' 0A8D'              	incf	((??___flge+4)+0+1),f
 14277  004F' 1903               	skipnz
 14278  0050' 0A8E'              	incf	((??___flge+4)+0+2),f
 14279  0051' 1903               	skipnz
 14280  0052' 0A8F'              	incf	((??___flge+4)+0+3),f
 14281  0053' 080C'              	movf	0+(??___flge+4)+0,w
 14282  0054' 0788'              	addwf	(??___flge+0)+0,f
 14283  0055' 080D'              	movf	1+(??___flge+4)+0,w
 14284  0056' 1803               	skipnc
 14285  0057' 0F0D'              	incfsz	1+(??___flge+4)+0,w
 14286  0058' 2800'              	goto	u4000
 14287  0059' 2800'              	goto	u4001
 14288  005A'                    u4000:
 14289  005A' 0789'              	addwf	(??___flge+0)+1,f
 14290  005B'                    u4001:
 14291  005B' 080E'              	movf	2+(??___flge+4)+0,w
 14292  005C' 1803               	skipnc
 14293  005D' 0F0E'              	incfsz	2+(??___flge+4)+0,w
 14294  005E' 2800'              	goto	u4002
 14295  005F' 2800'              	goto	u4003
 14296  0060'                    u4002:
 14297  0060' 078A'              	addwf	(??___flge+0)+2,f
 14298  0061'                    u4003:
 14299  0061' 080F'              	movf	3+(??___flge+4)+0,w
 14300  0062' 1803               	skipnc
 14301  0063' 0A0F'              	incf	3+(??___flge+4)+0,w
 14302  0064' 078B'              	addwf	(??___flge+0)+3,f
 14303  0065' 080B'              	movf	3+(??___flge+0)+0,w
 14304  0066' 0087'              	movwf	(___flge@ff2+3)
 14305  0067' 080A'              	movf	2+(??___flge+0)+0,w
 14306  0068' 0086'              	movwf	(___flge@ff2+2)
 14307  0069' 0809'              	movf	1+(??___flge+0)+0,w
 14308  006A' 0085'              	movwf	(___flge@ff2+1)
 14309  006B' 0808'              	movf	0+(??___flge+0)+0,w
 14310  006C' 0084'              	movwf	(___flge@ff2)
 14311                           
 14312  006D' 2800'              	goto	l8143
 14313                           	
 14314  006E'                    l4174:	
 14315                           	line	10
 14316                           	
 14317  006E'                    l8143:	
 14318  006E' 3080               	movlw	080h
 14319  006F' 0683'              	xorwf	(___flge@ff1+3),f
 14320                           	line	11
 14321                           	
 14322  0070'                    l8145:	
 14323  0070' 3080               	movlw	080h
 14324  0071' 0687'              	xorwf	(___flge@ff2+3),f
 14325                           	line	12
 14326                           	
 14327  0072'                    l8147:	
 14328  0072' 0807'              	movf	(___flge@ff2+3),w
 14329  0073' 0203'              	subwf	(___flge@ff1+3),w
 14330  0074' 1D03               	skipz
 14331  0075' 2800'              	goto	u4015
 14332  0076' 0806'              	movf	(___flge@ff2+2),w
 14333  0077' 0202'              	subwf	(___flge@ff1+2),w
 14334  0078' 1D03               	skipz
 14335  0079' 2800'              	goto	u4015
 14336  007A' 0805'              	movf	(___flge@ff2+1),w
 14337  007B' 0201'              	subwf	(___flge@ff1+1),w
 14338  007C' 1D03               	skipz
 14339  007D' 2800'              	goto	u4015
 14340  007E' 0804'              	movf	(___flge@ff2),w
 14341  007F' 0200'              	subwf	(___flge@ff1),w
 14342  0080'                    u4015:
 14343  0080' 1803               	skipnc
 14344  0081' 2800'              	goto	u4011
 14345  0082' 2800'              	goto	u4010
 14346  0083'                    u4011:
 14347  0083' 2800'              	goto	l8151
 14348  0084'                    u4010:
 14349                           	
 14350  0084'                    l8149:	
 14351  0084' 1003               	clrc
 14352                           	
 14353  0085' 2800'              	goto	l4175
 14354                           	
 14355  0086'                    l7765:	
 14356                           	
 14357  0086'                    l8151:	
 14358  0086' 1403               	setc
 14359                           	
 14360  0087' 2800'              	goto	l4175
 14361                           	
 14362  0088'                    l7767:	
 14363  0088' 2800'              	goto	l4175
 14364                           	
 14365  0089'                    l8153:	
 14366                           	line	13
 14367                           	
 14368  0089'                    l4175:	
 14369  0089' 0008               	return
 14370                           	opt stack 0
 14371                           GLOBAL	__end_of___flge
 14372  008A'                    	__end_of___flge:
 14373 ;; =============== function ___flge ends ============
 14374                           
 14375                           	signat	___flge,8312
 14376                           	global	___fltol
 14377                           psect	text1466,local,class=CODE,delta=2
 14378                           global __ptext1466
 14379  0000'                    __ptext1466:
 14380                           
 14381 ;; *************** function ___fltol *****************
 14382 ;; Defined at:
 14383 ;;		line 44 in file "/opt/hitech/picc/9.83/sources/fltol.c"
 14384 ;; Parameters:    Size  Location     Type
 14385 ;;  f1              4   16[BANK0 ] PTR const unsigned char 
 14386 ;; Auto vars:     Size  Location     Type
 14387 ;;  exp1            1   26[BANK0 ] unsigned char 
 14388 ;;  sign1           1   25[BANK0 ] unsigned char 
 14389 ;; Return value:  Size  Location     Type
 14390 ;;                  4   16[BANK0 ] long 
 14391 ;; Registers used:
 14392 ;;		wreg, status,2, status,0
 14393 ;; Tracked objects:
 14394 ;;		On entry : 0/0
 14395 ;;		On exit  : 0/0
 14396 ;;		Unchanged: 0/0
 14397 ;; Data sizes:     COMMON   BANK0   BANK1   BANK3   BANK2
 14398 ;;      Params:         0       4       0       0       0
 14399 ;;      Locals:         0       2       0       0       0
 14400 ;;      Temps:          0       5       0       0       0
 14401 ;;      Totals:         0      11       0       0       0
 14402 ;;Total ram usage:       11 bytes
 14403 ;; Hardware stack levels used:    1
 14404 ;; Hardware stack levels required when called:    1
 14405 ;; This function calls:
 14406 ;;		Nothing
 14407 ;; This function is called by:
 14408 ;;		_format_double
 14409 ;;		_measure_capacitance
 14410 ;;		_measure_inductance
 14411 ;;		_floor
 14412 ;;		_pow
 14413 ;;		_exp
 14414 ;;		_format_float
 14415 ;; This function uses a non-reentrant model
 14416 ;;
 14417                           psect	text1466
 14418                           	file	"/opt/hitech/picc/9.83/sources/fltol.c"
 14419                           	line	44
 14420                           	global	__size_of___fltol
 14421  009C                     	__size_of___fltol	equ	__end_of___fltol-___fltol
 14422                           	
 14423  0000'                    ___fltol:	
 14424                           	opt	stack 5
 14425                           ; Regs used in ___fltol: [wreg+status,2+status,0]
 14426                           	line	47
 14427                           	
 14428  0000'                    l8093:	
 14429  0000' 1283               	bcf	status, 5	;RP0=0, select bank0
 14430  0001' 1303               	bcf	status, 6	;RP1=0, select bank0
 14431  0002' 0810'              	movf	(___fltol@f1),w
 14432  0003' 0094'              	movwf	(??___fltol+0)+0
 14433  0004' 0811'              	movf	(___fltol@f1+1),w
 14434  0005' 0095'              	movwf	((??___fltol+0)+0+1)
 14435  0006' 0812'              	movf	(___fltol@f1+2),w
 14436  0007' 0096'              	movwf	((??___fltol+0)+0+2)
 14437  0008' 0813'              	movf	(___fltol@f1+3),w
 14438  0009' 0097'              	movwf	((??___fltol+0)+0+3)
 14439  000A' 1003               	clrc
 14440  000B' 0D16'              	rlf	(??___fltol+0)+2,w
 14441  000C' 0D17'              	rlf	(??___fltol+0)+3,w
 14442  000D' 0098'              	movwf	(??___fltol+4)+0
 14443  000E' 0818'              	movf	(??___fltol+4)+0,w
 14444  000F' 009A'              	movwf	(___fltol@exp1)
 14445  0010' 089A'              	movf	((___fltol@exp1)),f
 14446  0011' 1D03               	skipz
 14447  0012' 2800'              	goto	u3871
 14448  0013' 2800'              	goto	u3870
 14449  0014'                    u3871:
 14450  0014' 2800'              	goto	l8099
 14451  0015'                    u3870:
 14452                           	line	48
 14453                           	
 14454  0015'                    l8095:	
 14455  0015' 3000               	movlw	0
 14456  0016' 0093'              	movwf	(?___fltol+3)
 14457  0017' 3000               	movlw	0
 14458  0018' 0092'              	movwf	(?___fltol+2)
 14459  0019' 3000               	movlw	0
 14460  001A' 0091'              	movwf	(?___fltol+1)
 14461  001B' 3000               	movlw	0
 14462  001C' 0090'              	movwf	(?___fltol)
 14463                           
 14464  001D' 2800'              	goto	l4149
 14465                           	
 14466  001E'                    l8097:	
 14467  001E' 2800'              	goto	l4149
 14468                           	
 14469  001F'                    l4148:	
 14470                           	line	49
 14471                           	
 14472  001F'                    l8099:	
 14473  001F' 0810'              	movf	(___fltol@f1),w
 14474  0020' 0094'              	movwf	(??___fltol+0)+0
 14475  0021' 0811'              	movf	(___fltol@f1+1),w
 14476  0022' 0095'              	movwf	((??___fltol+0)+0+1)
 14477  0023' 0812'              	movf	(___fltol@f1+2),w
 14478  0024' 0096'              	movwf	((??___fltol+0)+0+2)
 14479  0025' 0813'              	movf	(___fltol@f1+3),w
 14480  0026' 0097'              	movwf	((??___fltol+0)+0+3)
 14481  0027' 301F               	movlw	01Fh
 14482  0028'                    u3885:
 14483  0028' 1003               	clrc
 14484  0029' 0C97'              	rrf	(??___fltol+0)+3,f
 14485  002A' 0C96'              	rrf	(??___fltol+0)+2,f
 14486  002B' 0C95'              	rrf	(??___fltol+0)+1,f
 14487  002C' 0C94'              	rrf	(??___fltol+0)+0,f
 14488  002D'                    u3880:
 14489  002D' 3EFF               	addlw	-1
 14490  002E' 1D03               	skipz
 14491  002F' 2800'              	goto	u3885
 14492  0030' 0814'              	movf	0+(??___fltol+0)+0,w
 14493  0031' 0098'              	movwf	(??___fltol+4)+0
 14494  0032' 0818'              	movf	(??___fltol+4)+0,w
 14495  0033' 0099'              	movwf	(___fltol@sign1)
 14496                           	line	50
 14497                           	
 14498  0034'                    l8101:	
 14499  0034' 1792'              	bsf	(___fltol@f1)+(23/8),(23)&7
 14500                           	line	51
 14501                           	
 14502  0035'                    l8103:	
 14503  0035' 30FF               	movlw	0FFh
 14504  0036' 0590'              	andwf	(___fltol@f1),f
 14505  0037' 30FF               	movlw	0FFh
 14506  0038' 0591'              	andwf	(___fltol@f1+1),f
 14507  0039' 30FF               	movlw	0FFh
 14508  003A' 0592'              	andwf	(___fltol@f1+2),f
 14509  003B' 3000               	movlw	0
 14510  003C' 0593'              	andwf	(___fltol@f1+3),f
 14511                           	line	52
 14512                           	
 14513  003D'                    l8105:	
 14514  003D' 3096               	movlw	low(096h)
 14515  003E' 029A'              	subwf	(___fltol@exp1),f
 14516                           	line	53
 14517                           	
 14518  003F'                    l8107:	
 14519  003F' 1F9A'              	btfss	(___fltol@exp1),7
 14520  0040' 2800'              	goto	u3891
 14521  0041' 2800'              	goto	u3890
 14522  0042'                    u3891:
 14523  0042' 2800'              	goto	l8117
 14524  0043'                    u3890:
 14525                           	line	54
 14526                           	
 14527  0043'                    l8109:	
 14528  0043' 081A'              	movf	(___fltol@exp1),w
 14529  0044' 3A80               	xorlw	80h
 14530  0045' 3E97               	addlw	-((-23)^80h)
 14531  0046' 1803               	skipnc
 14532  0047' 2800'              	goto	u3901
 14533  0048' 2800'              	goto	u3900
 14534  0049'                    u3901:
 14535  0049' 2800'              	goto	l8115
 14536  004A'                    u3900:
 14537                           	line	55
 14538                           	
 14539  004A'                    l8111:	
 14540  004A' 3000               	movlw	0
 14541  004B' 0093'              	movwf	(?___fltol+3)
 14542  004C' 3000               	movlw	0
 14543  004D' 0092'              	movwf	(?___fltol+2)
 14544  004E' 3000               	movlw	0
 14545  004F' 0091'              	movwf	(?___fltol+1)
 14546  0050' 3000               	movlw	0
 14547  0051' 0090'              	movwf	(?___fltol)
 14548                           
 14549  0052' 2800'              	goto	l4149
 14550                           	
 14551  0053'                    l8113:	
 14552  0053' 2800'              	goto	l4149
 14553                           	
 14554  0054'                    l4151:	
 14555  0054' 2800'              	goto	l8115
 14556                           	line	56
 14557                           	
 14558  0055'                    l4152:	
 14559                           	line	57
 14560                           	
 14561  0055'                    l8115:	
 14562  0055' 3001               	movlw	01h
 14563  0056'                    u3915:
 14564  0056' 1003               	clrc
 14565  0057' 0C93'              	rrf	(___fltol@f1+3),f
 14566  0058' 0C92'              	rrf	(___fltol@f1+2),f
 14567  0059' 0C91'              	rrf	(___fltol@f1+1),f
 14568  005A' 0C90'              	rrf	(___fltol@f1),f
 14569  005B' 3EFF               	addlw	-1
 14570  005C' 1D03               	skipz
 14571  005D' 2800'              	goto	u3915
 14572                           
 14573                           	line	58
 14574  005E' 3001               	movlw	(01h)
 14575  005F' 0094'              	movwf	(??___fltol+0)+0
 14576  0060' 0814'              	movf	(??___fltol+0)+0,w
 14577  0061' 079A'              	addwf	(___fltol@exp1),f
 14578  0062' 1D03               	btfss	status,2
 14579  0063' 2800'              	goto	u3921
 14580  0064' 2800'              	goto	u3920
 14581  0065'                    u3921:
 14582  0065' 2800'              	goto	l8115
 14583  0066'                    u3920:
 14584  0066' 2800'              	goto	l8127
 14585                           	
 14586  0067'                    l4153:	
 14587                           	line	59
 14588  0067' 2800'              	goto	l8127
 14589                           	
 14590  0068'                    l4150:	
 14591                           	line	60
 14592                           	
 14593  0068'                    l8117:	
 14594  0068' 3020               	movlw	(020h)
 14595  0069' 021A'              	subwf	(___fltol@exp1),w
 14596  006A' 1C03               	skipc
 14597  006B' 2800'              	goto	u3931
 14598  006C' 2800'              	goto	u3930
 14599  006D'                    u3931:
 14600  006D' 2800'              	goto	l8125
 14601  006E'                    u3930:
 14602                           	line	61
 14603                           	
 14604  006E'                    l8119:	
 14605  006E' 3000               	movlw	0
 14606  006F' 0093'              	movwf	(?___fltol+3)
 14607  0070' 3000               	movlw	0
 14608  0071' 0092'              	movwf	(?___fltol+2)
 14609  0072' 3000               	movlw	0
 14610  0073' 0091'              	movwf	(?___fltol+1)
 14611  0074' 3000               	movlw	0
 14612  0075' 0090'              	movwf	(?___fltol)
 14613                           
 14614  0076' 2800'              	goto	l4149
 14615                           	
 14616  0077'                    l8121:	
 14617  0077' 2800'              	goto	l4149
 14618                           	
 14619  0078'                    l4155:	
 14620                           	line	62
 14621  0078' 2800'              	goto	l8125
 14622                           	
 14623  0079'                    l4157:	
 14624                           	line	63
 14625                           	
 14626  0079'                    l8123:	
 14627  0079' 3001               	movlw	01h
 14628  007A' 0094'              	movwf	(??___fltol+0)+0
 14629  007B'                    u3945:
 14630  007B' 1003               	clrc
 14631  007C' 0D90'              	rlf	(___fltol@f1),f
 14632  007D' 0D91'              	rlf	(___fltol@f1+1),f
 14633  007E' 0D92'              	rlf	(___fltol@f1+2),f
 14634  007F' 0D93'              	rlf	(___fltol@f1+3),f
 14635  0080' 0B94'              	decfsz	(??___fltol+0)+0
 14636  0081' 2800'              	goto	u3945
 14637                           	line	64
 14638  0082' 3001               	movlw	low(01h)
 14639  0083' 029A'              	subwf	(___fltol@exp1),f
 14640  0084' 2800'              	goto	l8125
 14641                           	line	65
 14642                           	
 14643  0085'                    l4156:	
 14644                           	line	62
 14645                           	
 14646  0085'                    l8125:	
 14647  0085' 089A'              	movf	(___fltol@exp1),f
 14648  0086' 1D03               	skipz
 14649  0087' 2800'              	goto	u3951
 14650  0088' 2800'              	goto	u3950
 14651  0089'                    u3951:
 14652  0089' 2800'              	goto	l8123
 14653  008A'                    u3950:
 14654  008A' 2800'              	goto	l8127
 14655                           	
 14656  008B'                    l4158:	
 14657  008B' 2800'              	goto	l8127
 14658                           	line	66
 14659                           	
 14660  008C'                    l4154:	
 14661                           	line	67
 14662                           	
 14663  008C'                    l8127:	
 14664  008C' 0819'              	movf	(___fltol@sign1),w
 14665  008D' 1D03               	skipz
 14666  008E' 2800'              	goto	u3960
 14667  008F' 2800'              	goto	l4159
 14668  0090'                    u3960:
 14669                           	line	68
 14670                           	
 14671  0090'                    l8129:	
 14672  0090' 0990'              	comf	(___fltol@f1),f
 14673  0091' 0991'              	comf	(___fltol@f1+1),f
 14674  0092' 0992'              	comf	(___fltol@f1+2),f
 14675  0093' 0993'              	comf	(___fltol@f1+3),f
 14676  0094' 0A90'              	incf	(___fltol@f1),f
 14677  0095' 1903               	skipnz
 14678  0096' 0A91'              	incf	(___fltol@f1+1),f
 14679  0097' 1903               	skipnz
 14680  0098' 0A92'              	incf	(___fltol@f1+2),f
 14681  0099' 1903               	skipnz
 14682  009A' 0A93'              	incf	(___fltol@f1+3),f
 14683                           	
 14684  009B'                    l4159:	
 14685                           	line	69
 14686                           	line	70
 14687                           	
 14688  009B'                    l4149:	
 14689  009B' 0008               	return
 14690                           	opt stack 0
 14691                           GLOBAL	__end_of___fltol
 14692  009C'                    	__end_of___fltol:
 14693 ;; =============== function ___fltol ends ============
 14694                           
 14695                           	signat	___fltol,4220
 14696                           	global	___flneg
 14697                           psect	text1467,local,class=CODE,delta=2
 14698                           global __ptext1467
 14699  0000'                    __ptext1467:
 14700                           
 14701 ;; *************** function ___flneg *****************
 14702 ;; Defined at:
 14703 ;;		line 16 in file "/opt/hitech/picc/9.83/sources/flneg.c"
 14704 ;; Parameters:    Size  Location     Type
 14705 ;;  f1              4   10[BANK0 ] long 
 14706 ;; Auto vars:     Size  Location     Type
 14707 ;;		None
 14708 ;; Return value:  Size  Location     Type
 14709 ;;                  4   10[BANK0 ] long 
 14710 ;; Registers used:
 14711 ;;		wreg
 14712 ;; Tracked objects:
 14713 ;;		On entry : 0/0
 14714 ;;		On exit  : 0/0
 14715 ;;		Unchanged: 0/0
 14716 ;; Data sizes:     COMMON   BANK0   BANK1   BANK3   BANK2
 14717 ;;      Params:         0       4       0       0       0
 14718 ;;      Locals:         0       0       0       0       0
 14719 ;;      Temps:          0       0       0       0       0
 14720 ;;      Totals:         0       4       0       0       0
 14721 ;;Total ram usage:        4 bytes
 14722 ;; Hardware stack levels used:    1
 14723 ;; Hardware stack levels required when called:    1
 14724 ;; This function calls:
 14725 ;;		Nothing
 14726 ;; This function is called by:
 14727 ;;		_measure_capacitance
 14728 ;;		_measure_inductance
 14729 ;;		_pow
 14730 ;;		_ldexp
 14731 ;;		_exp
 14732 ;; This function uses a non-reentrant model
 14733 ;;
 14734                           psect	text1467
 14735                           	file	"/opt/hitech/picc/9.83/sources/flneg.c"
 14736                           	line	16
 14737                           	global	__size_of___flneg
 14738  000F                     	__size_of___flneg	equ	__end_of___flneg-___flneg
 14739                           	
 14740  0000'                    ___flneg:	
 14741                           	opt	stack 5
 14742                           ; Regs used in ___flneg: [wreg]
 14743                           	line	17
 14744                           	
 14745  0000'                    l9409:	
 14746  0000' 1283               	bcf	status, 5	;RP0=0, select bank0
 14747  0001' 1303               	bcf	status, 6	;RP1=0, select bank0
 14748  0002' 080D'              	movf	(___flneg@f1+3),w
 14749  0003' 040C'              	iorwf	(___flneg@f1+2),w
 14750  0004' 040B'              	iorwf	(___flneg@f1+1),w
 14751  0005' 040A'              	iorwf	(___flneg@f1),w
 14752  0006' 1903               	skipnz
 14753  0007' 2800'              	goto	u5611
 14754  0008' 2800'              	goto	u5610
 14755  0009'                    u5611:
 14756  0009' 2800'              	goto	l9413
 14757  000A'                    u5610:
 14758                           	line	18
 14759                           	
 14760  000A'                    l9411:	
 14761  000A' 3080               	movlw	080h
 14762  000B' 068D'              	xorwf	(___flneg@f1+3),f
 14763  000C' 2800'              	goto	l9413
 14764                           	
 14765  000D'                    l4144:	
 14766                           	line	19
 14767                           	
 14768  000D'                    l9413:	
 14769  000D' 2800'              	goto	l4145
 14770                           	
 14771  000E'                    l9415:	
 14772                           	line	20
 14773                           	
 14774  000E'                    l4145:	
 14775  000E' 0008               	return
 14776                           	opt stack 0
 14777                           GLOBAL	__end_of___flneg
 14778  000F'                    	__end_of___flneg:
 14779 ;; =============== function ___flneg ends ============
 14780                           
 14781                           	signat	___flneg,4220
 14782                           	global	___flpack
 14783                           psect	text1468,local,class=CODE,delta=2
 14784                           global __ptext1468
 14785  0000'                    __ptext1468:
 14786                           
 14787 ;; *************** function ___flpack *****************
 14788 ;; Defined at:
 14789 ;;		line 64 in file "/opt/hitech/picc/9.83/sources/double.c"
 14790 ;; Parameters:    Size  Location     Type
 14791 ;;  arg             4    0[BANK0 ] unsigned long 
 14792 ;;  exp             1    4[BANK0 ] unsigned char 
 14793 ;;  sign            1    5[BANK0 ] unsigned char 
 14794 ;; Auto vars:     Size  Location     Type
 14795 ;;		None
 14796 ;; Return value:  Size  Location     Type
 14797 ;;                  4    0[BANK0 ] unsigned char 
 14798 ;; Registers used:
 14799 ;;		wreg, status,2, status,0
 14800 ;; Tracked objects:
 14801 ;;		On entry : 0/0
 14802 ;;		On exit  : 0/0
 14803 ;;		Unchanged: 0/0
 14804 ;; Data sizes:     COMMON   BANK0   BANK1   BANK3   BANK2
 14805 ;;      Params:         0       6       0       0       0
 14806 ;;      Locals:         0       0       0       0       0
 14807 ;;      Temps:          0       4       0       0       0
 14808 ;;      Totals:         0      10       0       0       0
 14809 ;;Total ram usage:       10 bytes
 14810 ;; Hardware stack levels used:    1
 14811 ;; Hardware stack levels required when called:    1
 14812 ;; This function calls:
 14813 ;;		Nothing
 14814 ;; This function is called by:
 14815 ;;		___fladd
 14816 ;;		___fldiv
 14817 ;;		___flmul
 14818 ;;		___awtofl
 14819 ;;		___lwtofl
 14820 ;;		___altofl
 14821 ;;		___lltofl
 14822 ;;		___lbtofl
 14823 ;;		___abtofl
 14824 ;;		___lttofl
 14825 ;;		___attofl
 14826 ;; This function uses a non-reentrant model
 14827 ;;
 14828                           psect	text1468
 14829                           	file	"/opt/hitech/picc/9.83/sources/double.c"
 14830                           	line	64
 14831                           	global	__size_of___flpack
 14832  008D                     	__size_of___flpack	equ	__end_of___flpack-___flpack
 14833                           	
 14834  0000'                    ___flpack:	
 14835                           	opt	stack 4
 14836                           ; Regs used in ___flpack: [wreg+status,2+status,0]
 14837                           	line	65
 14838                           	
 14839  0000'                    l9379:	
 14840  0000' 1283               	bcf	status, 5	;RP0=0, select bank0
 14841  0001' 1303               	bcf	status, 6	;RP1=0, select bank0
 14842  0002' 0804'              	movf	(___flpack@exp),w
 14843  0003' 1D03               	skipz
 14844  0004' 2800'              	goto	u5500
 14845  0005' 2800'              	goto	l9383
 14846  0006'                    u5500:
 14847                           	
 14848  0006'                    l9381:	
 14849  0006' 0803'              	movf	(___flpack@arg+3),w
 14850  0007' 0402'              	iorwf	(___flpack@arg+2),w
 14851  0008' 0401'              	iorwf	(___flpack@arg+1),w
 14852  0009' 0400'              	iorwf	(___flpack@arg),w
 14853  000A' 1D03               	skipz
 14854  000B' 2800'              	goto	u5511
 14855  000C' 2800'              	goto	u5510
 14856  000D'                    u5511:
 14857  000D' 2800'              	goto	l9389
 14858  000E'                    u5510:
 14859  000E' 2800'              	goto	l9383
 14860                           	
 14861  000F'                    l4373:	
 14862                           	line	66
 14863                           	
 14864  000F'                    l9383:	
 14865  000F' 3000               	movlw	0x0
 14866  0010' 0083'              	movwf	(?___flpack+3)
 14867  0011' 3000               	movlw	0x0
 14868  0012' 0082'              	movwf	(?___flpack+2)
 14869  0013' 3000               	movlw	0x0
 14870  0014' 0081'              	movwf	(?___flpack+1)
 14871  0015' 3000               	movlw	0x0
 14872  0016' 0080'              	movwf	(?___flpack)
 14873                           
 14874  0017' 2800'              	goto	l4374
 14875                           	
 14876  0018'                    l9385:	
 14877  0018' 2800'              	goto	l4374
 14878                           	
 14879  0019'                    l4371:	
 14880                           	line	67
 14881  0019' 2800'              	goto	l9389
 14882                           	
 14883  001A'                    l4376:	
 14884                           	line	68
 14885                           	
 14886  001A'                    l9387:	
 14887  001A' 3001               	movlw	(01h)
 14888  001B' 0086'              	movwf	(??___flpack+0)+0
 14889  001C' 0806'              	movf	(??___flpack+0)+0,w
 14890  001D' 0784'              	addwf	(___flpack@exp),f
 14891                           	line	69
 14892  001E' 3001               	movlw	01h
 14893  001F'                    u5525:
 14894  001F' 1003               	clrc
 14895  0020' 0C83'              	rrf	(___flpack@arg+3),f
 14896  0021' 0C82'              	rrf	(___flpack@arg+2),f
 14897  0022' 0C81'              	rrf	(___flpack@arg+1),f
 14898  0023' 0C80'              	rrf	(___flpack@arg),f
 14899  0024' 3EFF               	addlw	-1
 14900  0025' 1D03               	skipz
 14901  0026' 2800'              	goto	u5525
 14902                           
 14903  0027' 2800'              	goto	l9389
 14904                           	line	70
 14905                           	
 14906  0028'                    l4375:	
 14907                           	line	67
 14908                           	
 14909  0028'                    l9389:	
 14910  0028' 30FE               	movlw	high highword(-33554432)
 14911  0029' 0503'              	andwf	(___flpack@arg+3),w
 14912  002A' 1D03               	btfss	status,2
 14913  002B' 2800'              	goto	u5531
 14914  002C' 2800'              	goto	u5530
 14915  002D'                    u5531:
 14916  002D' 2800'              	goto	l9387
 14917  002E'                    u5530:
 14918  002E' 2800'              	goto	l4378
 14919                           	
 14920  002F'                    l4377:	
 14921                           	line	71
 14922  002F' 2800'              	goto	l4378
 14923                           	
 14924  0030'                    l4379:	
 14925                           	line	72
 14926                           	
 14927  0030'                    l9391:	
 14928  0030' 3001               	movlw	(01h)
 14929  0031' 0086'              	movwf	(??___flpack+0)+0
 14930  0032' 0806'              	movf	(??___flpack+0)+0,w
 14931  0033' 0784'              	addwf	(___flpack@exp),f
 14932                           	line	73
 14933                           	
 14934  0034'                    l9393:	
 14935  0034' 3001               	movlw	01h
 14936  0035' 0780'              	addwf	(___flpack@arg),f
 14937  0036' 3000               	movlw	0
 14938  0037' 1803               	skipnc
 14939  0038' 3001               movlw 1
 14940  0039' 0781'              	addwf	(___flpack@arg+1),f
 14941  003A' 3000               	movlw	0
 14942  003B' 1803               	skipnc
 14943  003C' 3001               movlw 1
 14944  003D' 0782'              	addwf	(___flpack@arg+2),f
 14945  003E' 3000               	movlw	0
 14946  003F' 1803               	skipnc
 14947  0040' 3001               movlw 1
 14948  0041' 0783'              	addwf	(___flpack@arg+3),f
 14949                           	line	74
 14950                           	
 14951  0042'                    l9395:	
 14952  0042' 3001               	movlw	01h
 14953  0043'                    u5545:
 14954  0043' 1003               	clrc
 14955  0044' 0C83'              	rrf	(___flpack@arg+3),f
 14956  0045' 0C82'              	rrf	(___flpack@arg+2),f
 14957  0046' 0C81'              	rrf	(___flpack@arg+1),f
 14958  0047' 0C80'              	rrf	(___flpack@arg),f
 14959  0048' 3EFF               	addlw	-1
 14960  0049' 1D03               	skipz
 14961  004A' 2800'              	goto	u5545
 14962                           
 14963                           	line	75
 14964                           	
 14965  004B'                    l4378:	
 14966                           	line	71
 14967  004B' 30FF               	movlw	high highword(-16777216)
 14968  004C' 0503'              	andwf	(___flpack@arg+3),w
 14969  004D' 1D03               	btfss	status,2
 14970  004E' 2800'              	goto	u5551
 14971  004F' 2800'              	goto	u5550
 14972  0050'                    u5551:
 14973  0050' 2800'              	goto	l9391
 14974  0051'                    u5550:
 14975  0051' 2800'              	goto	l9399
 14976                           	
 14977  0052'                    l4380:	
 14978                           	line	76
 14979  0052' 2800'              	goto	l9399
 14980                           	
 14981  0053'                    l4382:	
 14982                           	line	77
 14983                           	
 14984  0053'                    l9397:	
 14985  0053' 3001               	movlw	low(01h)
 14986  0054' 0284'              	subwf	(___flpack@exp),f
 14987                           	line	78
 14988  0055' 3001               	movlw	01h
 14989  0056' 0086'              	movwf	(??___flpack+0)+0
 14990  0057'                    u5565:
 14991  0057' 1003               	clrc
 14992  0058' 0D80'              	rlf	(___flpack@arg),f
 14993  0059' 0D81'              	rlf	(___flpack@arg+1),f
 14994  005A' 0D82'              	rlf	(___flpack@arg+2),f
 14995  005B' 0D83'              	rlf	(___flpack@arg+3),f
 14996  005C' 0B86'              	decfsz	(??___flpack+0)+0
 14997  005D' 2800'              	goto	u5565
 14998  005E' 2800'              	goto	l9399
 14999                           	line	79
 15000                           	
 15001  005F'                    l4381:	
 15002                           	line	76
 15003                           	
 15004  005F'                    l9399:	
 15005  005F' 1F82'              	btfss	(___flpack@arg+2),(23)&7
 15006  0060' 2800'              	goto	u5571
 15007  0061' 2800'              	goto	u5570
 15008  0062'                    u5571:
 15009  0062' 2800'              	goto	l9397
 15010  0063'                    u5570:
 15011                           	
 15012  0063'                    l4383:	
 15013                           	line	80
 15014  0063' 1804'              	btfsc	(___flpack@exp),(0)&7
 15015  0064' 2800'              	goto	u5581
 15016  0065' 2800'              	goto	u5580
 15017  0066'                    u5581:
 15018  0066' 2800'              	goto	l4384
 15019  0067'                    u5580:
 15020                           	line	81
 15021                           	
 15022  0067'                    l9401:	
 15023  0067' 30FF               	movlw	0FFh
 15024  0068' 0580'              	andwf	(___flpack@arg),f
 15025  0069' 30FF               	movlw	0FFh
 15026  006A' 0581'              	andwf	(___flpack@arg+1),f
 15027  006B' 307F               	movlw	07Fh
 15028  006C' 0582'              	andwf	(___flpack@arg+2),f
 15029  006D' 30FF               	movlw	0FFh
 15030  006E' 0583'              	andwf	(___flpack@arg+3),f
 15031                           	
 15032  006F'                    l4384:	
 15033                           	line	82
 15034  006F' 1003               	clrc
 15035  0070' 0C84'              	rrf	(___flpack@exp),f
 15036                           
 15037                           	line	83
 15038                           	
 15039  0071'                    l9403:	
 15040  0071' 0804'              	movf	(___flpack@exp),w
 15041  0072' 0086'              	movwf	(??___flpack+0)+0
 15042  0073' 0187'              	clrf	((??___flpack+0)+0+1)
 15043  0074' 0188'              	clrf	((??___flpack+0)+0+2)
 15044  0075' 0189'              	clrf	((??___flpack+0)+0+3)
 15045  0076' 3018               	movlw	018h
 15046  0077'                    u5595:
 15047  0077' 1003               	clrc
 15048  0078' 0D86'              	rlf	(??___flpack+0)+0,f
 15049  0079' 0D87'              	rlf	(??___flpack+0)+1,f
 15050  007A' 0D88'              	rlf	(??___flpack+0)+2,f
 15051  007B' 0D89'              	rlf	(??___flpack+0)+3,f
 15052  007C'                    u5590:
 15053  007C' 3EFF               	addlw	-1
 15054  007D' 1D03               	skipz
 15055  007E' 2800'              	goto	u5595
 15056  007F' 0806'              	movf	0+(??___flpack+0)+0,w
 15057  0080' 0480'              	iorwf	(___flpack@arg),f
 15058  0081' 0807'              	movf	1+(??___flpack+0)+0,w
 15059  0082' 0481'              	iorwf	(___flpack@arg+1),f
 15060  0083' 0808'              	movf	2+(??___flpack+0)+0,w
 15061  0084' 0482'              	iorwf	(___flpack@arg+2),f
 15062  0085' 0809'              	movf	3+(??___flpack+0)+0,w
 15063  0086' 0483'              	iorwf	(___flpack@arg+3),f
 15064                           	line	84
 15065                           	
 15066  0087'                    l9405:	
 15067  0087' 0805'              	movf	(___flpack@sign),w
 15068  0088' 1D03               	skipz
 15069  0089' 2800'              	goto	u5600
 15070  008A' 2800'              	goto	l4385
 15071  008B'                    u5600:
 15072                           	line	85
 15073                           	
 15074  008B'                    l9407:	
 15075  008B' 1783'              	bsf	(___flpack@arg)+(31/8),(31)&7
 15076                           	
 15077  008C'                    l4385:	
 15078                           	line	86
 15079                           	line	87
 15080                           	
 15081  008C'                    l4374:	
 15082  008C' 0008               	return
 15083                           	opt stack 0
 15084                           GLOBAL	__end_of___flpack
 15085  008D'                    	__end_of___flpack:
 15086 ;; =============== function ___flpack ends ============
 15087                           
 15088                           	signat	___flpack,12412
 15089                           	global	___lwmod
 15090                           psect	text1469,local,class=CODE,delta=2
 15091                           global __ptext1469
 15092  0000'                    __ptext1469:
 15093                           
 15094 ;; *************** function ___lwmod *****************
 15095 ;; Defined at:
 15096 ;;		line 5 in file "/opt/hitech/picc/9.83/sources/lwmod.c"
 15097 ;; Parameters:    Size  Location     Type
 15098 ;;  divisor         2    0[BANK0 ] unsigned int 
 15099 ;;  dividend        2    2[BANK0 ] unsigned int 
 15100 ;; Auto vars:     Size  Location     Type
 15101 ;;  counter         1    5[BANK0 ] unsigned char 
 15102 ;; Return value:  Size  Location     Type
 15103 ;;                  2    0[BANK0 ] unsigned int 
 15104 ;; Registers used:
 15105 ;;		wreg, status,2, status,0
 15106 ;; Tracked objects:
 15107 ;;		On entry : 0/0
 15108 ;;		On exit  : 0/0
 15109 ;;		Unchanged: 0/0
 15110 ;; Data sizes:     COMMON   BANK0   BANK1   BANK3   BANK2
 15111 ;;      Params:         0       4       0       0       0
 15112 ;;      Locals:         0       1       0       0       0
 15113 ;;      Temps:          0       1       0       0       0
 15114 ;;      Totals:         0       6       0       0       0
 15115 ;;Total ram usage:        6 bytes
 15116 ;; Hardware stack levels used:    1
 15117 ;; Hardware stack levels required when called:    1
 15118 ;; This function calls:
 15119 ;;		Nothing
 15120 ;; This function is called by:
 15121 ;;		_format_number
 15122 ;; This function uses a non-reentrant model
 15123 ;;
 15124                           psect	text1469
 15125                           	file	"/opt/hitech/picc/9.83/sources/lwmod.c"
 15126                           	line	5
 15127                           	global	__size_of___lwmod
 15128  0046                     	__size_of___lwmod	equ	__end_of___lwmod-___lwmod
 15129                           	
 15130  0000'                    ___lwmod:	
 15131                           	opt	stack 3
 15132                           ; Regs used in ___lwmod: [wreg+status,2+status,0]
 15133                           	line	8
 15134                           	
 15135  0000'                    l9357:	
 15136  0000' 1283               	bcf	status, 5	;RP0=0, select bank0
 15137  0001' 1303               	bcf	status, 6	;RP1=0, select bank0
 15138  0002' 0801'              	movf	(___lwmod@divisor+1),w
 15139  0003' 0400'              	iorwf	(___lwmod@divisor),w
 15140  0004' 1903               	skipnz
 15141  0005' 2800'              	goto	u5441
 15142  0006' 2800'              	goto	u5440
 15143  0007'                    u5441:
 15144  0007' 2800'              	goto	l9375
 15145  0008'                    u5440:
 15146                           	line	9
 15147                           	
 15148  0008'                    l9359:	
 15149  0008' 0185'              	clrf	(___lwmod@counter)
 15150  0009' 1403               	bsf	status,0
 15151  000A' 0D85'              	rlf	(___lwmod@counter),f
 15152                           	line	10
 15153  000B' 2800'              	goto	l9365
 15154                           	
 15155  000C'                    l4030:	
 15156                           	line	11
 15157                           	
 15158  000C'                    l9361:	
 15159  000C' 3001               	movlw	01h
 15160                           	
 15161  000D'                    u5455:
 15162  000D' 1003               	clrc
 15163  000E' 0D80'              	rlf	(___lwmod@divisor),f
 15164  000F' 0D81'              	rlf	(___lwmod@divisor+1),f
 15165  0010' 3EFF               	addlw	-1
 15166  0011' 1D03               	skipz
 15167  0012' 2800'              	goto	u5455
 15168                           	line	12
 15169                           	
 15170  0013'                    l9363:	
 15171  0013' 3001               	movlw	(01h)
 15172  0014' 0084'              	movwf	(??___lwmod+0)+0
 15173  0015' 0804'              	movf	(??___lwmod+0)+0,w
 15174  0016' 0785'              	addwf	(___lwmod@counter),f
 15175  0017' 2800'              	goto	l9365
 15176                           	line	13
 15177                           	
 15178  0018'                    l4029:	
 15179                           	line	10
 15180                           	
 15181  0018'                    l9365:	
 15182  0018' 1F81'              	btfss	(___lwmod@divisor+1),(15)&7
 15183  0019' 2800'              	goto	u5461
 15184  001A' 2800'              	goto	u5460
 15185  001B'                    u5461:
 15186  001B' 2800'              	goto	l9361
 15187  001C'                    u5460:
 15188  001C' 2800'              	goto	l9367
 15189                           	
 15190  001D'                    l4031:	
 15191  001D' 2800'              	goto	l9367
 15192                           	line	14
 15193                           	
 15194  001E'                    l4032:	
 15195                           	line	15
 15196                           	
 15197  001E'                    l9367:	
 15198  001E' 0801'              	movf	(___lwmod@divisor+1),w
 15199  001F' 0203'              	subwf	(___lwmod@dividend+1),w
 15200  0020' 1D03               	skipz
 15201  0021' 2800'              	goto	u5475
 15202  0022' 0800'              	movf	(___lwmod@divisor),w
 15203  0023' 0202'              	subwf	(___lwmod@dividend),w
 15204  0024'                    u5475:
 15205  0024' 1C03               	skipc
 15206  0025' 2800'              	goto	u5471
 15207  0026' 2800'              	goto	u5470
 15208  0027'                    u5471:
 15209  0027' 2800'              	goto	l9371
 15210  0028'                    u5470:
 15211                           	line	16
 15212                           	
 15213  0028'                    l9369:	
 15214  0028' 0800'              	movf	(___lwmod@divisor),w
 15215  0029' 0282'              	subwf	(___lwmod@dividend),f
 15216  002A' 0801'              	movf	(___lwmod@divisor+1),w
 15217  002B' 1C03               	skipc
 15218  002C' 0383'              	decf	(___lwmod@dividend+1),f
 15219  002D' 0283'              	subwf	(___lwmod@dividend+1),f
 15220  002E' 2800'              	goto	l9371
 15221                           	
 15222  002F'                    l4033:	
 15223                           	line	17
 15224                           	
 15225  002F'                    l9371:	
 15226  002F' 3001               	movlw	01h
 15227                           	
 15228  0030'                    u5485:
 15229  0030' 1003               	clrc
 15230  0031' 0C81'              	rrf	(___lwmod@divisor+1),f
 15231  0032' 0C80'              	rrf	(___lwmod@divisor),f
 15232  0033' 3EFF               	addlw	-1
 15233  0034' 1D03               	skipz
 15234  0035' 2800'              	goto	u5485
 15235                           	line	18
 15236                           	
 15237  0036'                    l9373:	
 15238  0036' 3001               	movlw	low(01h)
 15239  0037' 0285'              	subwf	(___lwmod@counter),f
 15240  0038' 1D03               	btfss	status,2
 15241  0039' 2800'              	goto	u5491
 15242  003A' 2800'              	goto	u5490
 15243  003B'                    u5491:
 15244  003B' 2800'              	goto	l9367
 15245  003C'                    u5490:
 15246  003C' 2800'              	goto	l9375
 15247                           	
 15248  003D'                    l4034:	
 15249  003D' 2800'              	goto	l9375
 15250                           	line	19
 15251                           	
 15252  003E'                    l4028:	
 15253                           	line	20
 15254                           	
 15255  003E'                    l9375:	
 15256  003E' 0803'              	movf	(___lwmod@dividend+1),w
 15257  003F' 0181'              	clrf	(?___lwmod+1)
 15258  0040' 0781'              	addwf	(?___lwmod+1)
 15259  0041' 0802'              	movf	(___lwmod@dividend),w
 15260  0042' 0180'              	clrf	(?___lwmod)
 15261  0043' 0780'              	addwf	(?___lwmod)
 15262                           
 15263  0044' 2800'              	goto	l4035
 15264                           	
 15265  0045'                    l9377:	
 15266                           	line	21
 15267                           	
 15268  0045'                    l4035:	
 15269  0045' 0008               	return
 15270                           	opt stack 0
 15271                           GLOBAL	__end_of___lwmod
 15272  0046'                    	__end_of___lwmod:
 15273 ;; =============== function ___lwmod ends ============
 15274                           
 15275                           	signat	___lwmod,8314
 15276                           	global	___lwdiv
 15277                           psect	text1470,local,class=CODE,delta=2
 15278                           global __ptext1470
 15279  0000'                    __ptext1470:
 15280                           
 15281 ;; *************** function ___lwdiv *****************
 15282 ;; Defined at:
 15283 ;;		line 5 in file "/opt/hitech/picc/9.83/sources/lwdiv.c"
 15284 ;; Parameters:    Size  Location     Type
 15285 ;;  divisor         2    0[BANK0 ] unsigned int 
 15286 ;;  dividend        2    2[BANK0 ] unsigned int 
 15287 ;; Auto vars:     Size  Location     Type
 15288 ;;  quotient        2    6[BANK0 ] unsigned int 
 15289 ;;  counter         1    5[BANK0 ] unsigned char 
 15290 ;; Return value:  Size  Location     Type
 15291 ;;                  2    0[BANK0 ] unsigned int 
 15292 ;; Registers used:
 15293 ;;		wreg, status,2, status,0
 15294 ;; Tracked objects:
 15295 ;;		On entry : 0/0
 15296 ;;		On exit  : 0/0
 15297 ;;		Unchanged: 0/0
 15298 ;; Data sizes:     COMMON   BANK0   BANK1   BANK3   BANK2
 15299 ;;      Params:         0       4       0       0       0
 15300 ;;      Locals:         0       3       0       0       0
 15301 ;;      Temps:          0       1       0       0       0
 15302 ;;      Totals:         0       8       0       0       0
 15303 ;;Total ram usage:        8 bytes
 15304 ;; Hardware stack levels used:    1
 15305 ;; Hardware stack levels required when called:    1
 15306 ;; This function calls:
 15307 ;;		Nothing
 15308 ;; This function is called by:
 15309 ;;		_format_number
 15310 ;; This function uses a non-reentrant model
 15311 ;;
 15312                           psect	text1470
 15313                           	file	"/opt/hitech/picc/9.83/sources/lwdiv.c"
 15314                           	line	5
 15315                           	global	__size_of___lwdiv
 15316  0050                     	__size_of___lwdiv	equ	__end_of___lwdiv-___lwdiv
 15317                           	
 15318  0000'                    ___lwdiv:	
 15319                           	opt	stack 3
 15320                           ; Regs used in ___lwdiv: [wreg+status,2+status,0]
 15321                           	line	9
 15322                           	
 15323  0000'                    l9331:	
 15324  0000' 1283               	bcf	status, 5	;RP0=0, select bank0
 15325  0001' 1303               	bcf	status, 6	;RP1=0, select bank0
 15326  0002' 0186'              	clrf	(___lwdiv@quotient)
 15327  0003' 0187'              	clrf	(___lwdiv@quotient+1)
 15328                           	line	10
 15329                           	
 15330  0004'                    l9333:	
 15331  0004' 0801'              	movf	(___lwdiv@divisor+1),w
 15332  0005' 0400'              	iorwf	(___lwdiv@divisor),w
 15333  0006' 1903               	skipnz
 15334  0007' 2800'              	goto	u5371
 15335  0008' 2800'              	goto	u5370
 15336  0009'                    u5371:
 15337  0009' 2800'              	goto	l9353
 15338  000A'                    u5370:
 15339                           	line	11
 15340                           	
 15341  000A'                    l9335:	
 15342  000A' 0185'              	clrf	(___lwdiv@counter)
 15343  000B' 1403               	bsf	status,0
 15344  000C' 0D85'              	rlf	(___lwdiv@counter),f
 15345                           	line	12
 15346  000D' 2800'              	goto	l9341
 15347                           	
 15348  000E'                    l4020:	
 15349                           	line	13
 15350                           	
 15351  000E'                    l9337:	
 15352  000E' 3001               	movlw	01h
 15353                           	
 15354  000F'                    u5385:
 15355  000F' 1003               	clrc
 15356  0010' 0D80'              	rlf	(___lwdiv@divisor),f
 15357  0011' 0D81'              	rlf	(___lwdiv@divisor+1),f
 15358  0012' 3EFF               	addlw	-1
 15359  0013' 1D03               	skipz
 15360  0014' 2800'              	goto	u5385
 15361                           	line	14
 15362                           	
 15363  0015'                    l9339:	
 15364  0015' 3001               	movlw	(01h)
 15365  0016' 0084'              	movwf	(??___lwdiv+0)+0
 15366  0017' 0804'              	movf	(??___lwdiv+0)+0,w
 15367  0018' 0785'              	addwf	(___lwdiv@counter),f
 15368  0019' 2800'              	goto	l9341
 15369                           	line	15
 15370                           	
 15371  001A'                    l4019:	
 15372                           	line	12
 15373                           	
 15374  001A'                    l9341:	
 15375  001A' 1F81'              	btfss	(___lwdiv@divisor+1),(15)&7
 15376  001B' 2800'              	goto	u5391
 15377  001C' 2800'              	goto	u5390
 15378  001D'                    u5391:
 15379  001D' 2800'              	goto	l9337
 15380  001E'                    u5390:
 15381  001E' 2800'              	goto	l9343
 15382                           	
 15383  001F'                    l4021:	
 15384  001F' 2800'              	goto	l9343
 15385                           	line	16
 15386                           	
 15387  0020'                    l4022:	
 15388                           	line	17
 15389                           	
 15390  0020'                    l9343:	
 15391  0020' 3001               	movlw	01h
 15392                           	
 15393  0021'                    u5405:
 15394  0021' 1003               	clrc
 15395  0022' 0D86'              	rlf	(___lwdiv@quotient),f
 15396  0023' 0D87'              	rlf	(___lwdiv@quotient+1),f
 15397  0024' 3EFF               	addlw	-1
 15398  0025' 1D03               	skipz
 15399  0026' 2800'              	goto	u5405
 15400                           	line	18
 15401  0027' 0801'              	movf	(___lwdiv@divisor+1),w
 15402  0028' 0203'              	subwf	(___lwdiv@dividend+1),w
 15403  0029' 1D03               	skipz
 15404  002A' 2800'              	goto	u5415
 15405  002B' 0800'              	movf	(___lwdiv@divisor),w
 15406  002C' 0202'              	subwf	(___lwdiv@dividend),w
 15407  002D'                    u5415:
 15408  002D' 1C03               	skipc
 15409  002E' 2800'              	goto	u5411
 15410  002F' 2800'              	goto	u5410
 15411  0030'                    u5411:
 15412  0030' 2800'              	goto	l9349
 15413  0031'                    u5410:
 15414                           	line	19
 15415                           	
 15416  0031'                    l9345:	
 15417  0031' 0800'              	movf	(___lwdiv@divisor),w
 15418  0032' 0282'              	subwf	(___lwdiv@dividend),f
 15419  0033' 0801'              	movf	(___lwdiv@divisor+1),w
 15420  0034' 1C03               	skipc
 15421  0035' 0383'              	decf	(___lwdiv@dividend+1),f
 15422  0036' 0283'              	subwf	(___lwdiv@dividend+1),f
 15423                           	line	20
 15424                           	
 15425  0037'                    l9347:	
 15426  0037' 1406'              	bsf	(___lwdiv@quotient)+(0/8),(0)&7
 15427  0038' 2800'              	goto	l9349
 15428                           	line	21
 15429                           	
 15430  0039'                    l4023:	
 15431                           	line	22
 15432                           	
 15433  0039'                    l9349:	
 15434  0039' 3001               	movlw	01h
 15435                           	
 15436  003A'                    u5425:
 15437  003A' 1003               	clrc
 15438  003B' 0C81'              	rrf	(___lwdiv@divisor+1),f
 15439  003C' 0C80'              	rrf	(___lwdiv@divisor),f
 15440  003D' 3EFF               	addlw	-1
 15441  003E' 1D03               	skipz
 15442  003F' 2800'              	goto	u5425
 15443                           	line	23
 15444                           	
 15445  0040'                    l9351:	
 15446  0040' 3001               	movlw	low(01h)
 15447  0041' 0285'              	subwf	(___lwdiv@counter),f
 15448  0042' 1D03               	btfss	status,2
 15449  0043' 2800'              	goto	u5431
 15450  0044' 2800'              	goto	u5430
 15451  0045'                    u5431:
 15452  0045' 2800'              	goto	l9343
 15453  0046'                    u5430:
 15454  0046' 2800'              	goto	l9353
 15455                           	
 15456  0047'                    l4024:	
 15457  0047' 2800'              	goto	l9353
 15458                           	line	24
 15459                           	
 15460  0048'                    l4018:	
 15461                           	line	25
 15462                           	
 15463  0048'                    l9353:	
 15464  0048' 0807'              	movf	(___lwdiv@quotient+1),w
 15465  0049' 0181'              	clrf	(?___lwdiv+1)
 15466  004A' 0781'              	addwf	(?___lwdiv+1)
 15467  004B' 0806'              	movf	(___lwdiv@quotient),w
 15468  004C' 0180'              	clrf	(?___lwdiv)
 15469  004D' 0780'              	addwf	(?___lwdiv)
 15470                           
 15471  004E' 2800'              	goto	l4025
 15472                           	
 15473  004F'                    l9355:	
 15474                           	line	26
 15475                           	
 15476  004F'                    l4025:	
 15477  004F' 0008               	return
 15478                           	opt stack 0
 15479                           GLOBAL	__end_of___lwdiv
 15480  0050'                    	__end_of___lwdiv:
 15481 ;; =============== function ___lwdiv ends ============
 15482                           
 15483                           	signat	___lwdiv,8314
 15484                           	global	___wmul
 15485                           psect	text1471,local,class=CODE,delta=2
 15486                           global __ptext1471
 15487  0000'                    __ptext1471:
 15488                           
 15489 ;; *************** function ___wmul *****************
 15490 ;; Defined at:
 15491 ;;		line 3 in file "/opt/hitech/picc/9.83/sources/wmul.c"
 15492 ;; Parameters:    Size  Location     Type
 15493 ;;  multiplier      2    0[BANK0 ] unsigned int 
 15494 ;;  multiplicand    2    2[BANK0 ] unsigned int 
 15495 ;; Auto vars:     Size  Location     Type
 15496 ;;  product         2    4[BANK0 ] unsigned int 
 15497 ;; Return value:  Size  Location     Type
 15498 ;;                  2    0[BANK0 ] unsigned int 
 15499 ;; Registers used:
 15500 ;;		wreg, status,2, status,0
 15501 ;; Tracked objects:
 15502 ;;		On entry : 0/0
 15503 ;;		On exit  : 0/0
 15504 ;;		Unchanged: 0/0
 15505 ;; Data sizes:     COMMON   BANK0   BANK1   BANK3   BANK2
 15506 ;;      Params:         0       4       0       0       0
 15507 ;;      Locals:         0       2       0       0       0
 15508 ;;      Temps:          0       0       0       0       0
 15509 ;;      Totals:         0       6       0       0       0
 15510 ;;Total ram usage:        6 bytes
 15511 ;; Hardware stack levels used:    1
 15512 ;; Hardware stack levels required when called:    1
 15513 ;; This function calls:
 15514 ;;		Nothing
 15515 ;; This function is called by:
 15516 ;;		_delay10ms
 15517 ;; This function uses a non-reentrant model
 15518 ;;
 15519                           psect	text1471
 15520                           	file	"/opt/hitech/picc/9.83/sources/wmul.c"
 15521                           	line	3
 15522                           	global	__size_of___wmul
 15523  002C                     	__size_of___wmul	equ	__end_of___wmul-___wmul
 15524                           	
 15525  0000'                    ___wmul:	
 15526                           	opt	stack 4
 15527                           ; Regs used in ___wmul: [wreg+status,2+status,0]
 15528                           	line	4
 15529                           	
 15530  0000'                    l9319:	
 15531  0000' 1283               	bcf	status, 5	;RP0=0, select bank0
 15532  0001' 1303               	bcf	status, 6	;RP1=0, select bank0
 15533  0002' 0184'              	clrf	(___wmul@product)
 15534  0003' 0185'              	clrf	(___wmul@product+1)
 15535  0004' 2800'              	goto	l9321
 15536                           	line	6
 15537                           	
 15538  0005'                    l4012:	
 15539                           	line	7
 15540                           	
 15541  0005'                    l9321:	
 15542  0005' 1C00'              	btfss	(___wmul@multiplier),(0)&7
 15543  0006' 2800'              	goto	u5331
 15544  0007' 2800'              	goto	u5330
 15545  0008'                    u5331:
 15546  0008' 2800'              	goto	l4013
 15547  0009'                    u5330:
 15548                           	line	8
 15549                           	
 15550  0009'                    l9323:	
 15551  0009' 0802'              	movf	(___wmul@multiplicand),w
 15552  000A' 0784'              	addwf	(___wmul@product),f
 15553  000B' 1803               	skipnc
 15554  000C' 0A85'              	incf	(___wmul@product+1),f
 15555  000D' 0803'              	movf	(___wmul@multiplicand+1),w
 15556  000E' 0785'              	addwf	(___wmul@product+1),f
 15557                           	
 15558  000F'                    l4013:	
 15559                           	line	9
 15560  000F' 3001               	movlw	01h
 15561                           	
 15562  0010'                    u5345:
 15563  0010' 1003               	clrc
 15564  0011' 0D82'              	rlf	(___wmul@multiplicand),f
 15565  0012' 0D83'              	rlf	(___wmul@multiplicand+1),f
 15566  0013' 3EFF               	addlw	-1
 15567  0014' 1D03               	skipz
 15568  0015' 2800'              	goto	u5345
 15569                           	line	10
 15570                           	
 15571  0016'                    l9325:	
 15572  0016' 3001               	movlw	01h
 15573                           	
 15574  0017'                    u5355:
 15575  0017' 1003               	clrc
 15576  0018' 0C81'              	rrf	(___wmul@multiplier+1),f
 15577  0019' 0C80'              	rrf	(___wmul@multiplier),f
 15578  001A' 3EFF               	addlw	-1
 15579  001B' 1D03               	skipz
 15580  001C' 2800'              	goto	u5355
 15581                           	line	11
 15582  001D' 0801'              	movf	((___wmul@multiplier+1)),w
 15583  001E' 0400'              	iorwf	((___wmul@multiplier)),w
 15584  001F' 1D03               	skipz
 15585  0020' 2800'              	goto	u5361
 15586  0021' 2800'              	goto	u5360
 15587  0022'                    u5361:
 15588  0022' 2800'              	goto	l9321
 15589  0023'                    u5360:
 15590  0023' 2800'              	goto	l9327
 15591                           	
 15592  0024'                    l4014:	
 15593                           	line	12
 15594                           	
 15595  0024'                    l9327:	
 15596  0024' 0805'              	movf	(___wmul@product+1),w
 15597  0025' 0181'              	clrf	(?___wmul+1)
 15598  0026' 0781'              	addwf	(?___wmul+1)
 15599  0027' 0804'              	movf	(___wmul@product),w
 15600  0028' 0180'              	clrf	(?___wmul)
 15601  0029' 0780'              	addwf	(?___wmul)
 15602                           
 15603  002A' 2800'              	goto	l4015
 15604                           	
 15605  002B'                    l9329:	
 15606                           	line	13
 15607                           	
 15608  002B'                    l4015:	
 15609  002B' 0008               	return
 15610                           	opt stack 0
 15611                           GLOBAL	__end_of___wmul
 15612  002C'                    	__end_of___wmul:
 15613 ;; =============== function ___wmul ends ============
 15614                           
 15615                           	signat	___wmul,8314
 15616                           	global	_frexp
 15617                           psect	text1472,local,class=CODE,delta=2
 15618                           global __ptext1472
 15619  0000'                    __ptext1472:
 15620                           
 15621 ;; *************** function _frexp *****************
 15622 ;; Defined at:
 15623 ;;		line 255 in file "/opt/hitech/picc/9.83/sources/frexp.c"
 15624 ;; Parameters:    Size  Location     Type
 15625 ;;  value           4    0[BANK0 ] unsigned int 
 15626 ;;  eptr            1    4[BANK0 ] PTR int 
 15627 ;;		 -> log@exp(2), floor@expon(2), 
 15628 ;; Auto vars:     Size  Location     Type
 15629 ;;		None
 15630 ;; Return value:  Size  Location     Type
 15631 ;;                  4    0[BANK0 ] PTR int 
 15632 ;; Registers used:
 15633 ;;		wreg, fsr0l, fsr0h, status,2, status,0, btemp+1
 15634 ;; Tracked objects:
 15635 ;;		On entry : 0/0
 15636 ;;		On exit  : 0/0
 15637 ;;		Unchanged: 0/0
 15638 ;; Data sizes:     COMMON   BANK0   BANK1   BANK3   BANK2
 15639 ;;      Params:         0       5       0       0       0
 15640 ;;      Locals:         0       0       0       0       0
 15641 ;;      Temps:          0       2       0       0       0
 15642 ;;      Totals:         0       7       0       0       0
 15643 ;;Total ram usage:        7 bytes
 15644 ;; Hardware stack levels used:    1
 15645 ;; Hardware stack levels required when called:    1
 15646 ;; This function calls:
 15647 ;;		Nothing
 15648 ;; This function is called by:
 15649 ;;		_floor
 15650 ;;		_log
 15651 ;; This function uses a non-reentrant model
 15652 ;;
 15653                           psect	text1472
 15654                           	file	"/opt/hitech/picc/9.83/sources/frexp.c"
 15655                           	line	255
 15656                           	global	__size_of_frexp
 15657  004F                     	__size_of_frexp	equ	__end_of_frexp-_frexp
 15658                           	
 15659  0000'                    _frexp:	
 15660                           	opt	stack 3
 15661                           ; Regs used in _frexp: [wreg-fsr0h+status,2+status,0+btemp+1]
 15662                           	line	256
 15663                           	
 15664  0000'                    l9297:	
 15665  0000' 1283               	bcf	status, 5	;RP0=0, select bank0
 15666  0001' 1303               	bcf	status, 6	;RP1=0, select bank0
 15667  0002' 0803'              	movf	(frexp@value+3),w
 15668  0003' 0402'              	iorwf	(frexp@value+2),w
 15669  0004' 0401'              	iorwf	(frexp@value+1),w
 15670  0005' 0400'              	iorwf	(frexp@value),w
 15671  0006' 1D03               	skipz
 15672  0007' 2800'              	goto	u5311
 15673  0008' 2800'              	goto	u5310
 15674  0009'                    u5311:
 15675  0009' 2800'              	goto	l9305
 15676  000A'                    u5310:
 15677                           	line	257
 15678                           	
 15679  000A'                    l9299:	
 15680  000A' 0804'              	movf	(frexp@eptr),w
 15681  000B' 0084               	movwf	fsr0
 15682  000C' 3000               	movlw	low(0)
 15683  000D' 1383               	bcf	status, 7	;select IRP bank0
 15684  000E' 0080               	movwf	indf
 15685  000F' 0A84               	incf	fsr0,f
 15686  0010' 3000               	movlw	high(0)
 15687  0011' 0080               	movwf	indf
 15688                           	line	258
 15689                           	
 15690  0012'                    l9301:	
 15691  0012' 3000               	movlw	0x0
 15692  0013' 0083'              	movwf	(?_frexp+3)
 15693  0014' 3000               	movlw	0x0
 15694  0015' 0082'              	movwf	(?_frexp+2)
 15695  0016' 3000               	movlw	0x0
 15696  0017' 0081'              	movwf	(?_frexp+1)
 15697  0018' 3000               	movlw	0x0
 15698  0019' 0080'              	movwf	(?_frexp)
 15699                           
 15700  001A' 2800'              	goto	l3985
 15701                           	
 15702  001B'                    l9303:	
 15703  001B' 2800'              	goto	l3985
 15704                           	line	259
 15705                           	
 15706  001C'                    l3984:	
 15707                           	line	261
 15708                           	
 15709  001C'                    l9305:	
 15710  001C' 0803'              	movf	0+(frexp@value)+03h,w
 15711  001D' 397F               	andlw	(1<<7)-1
 15712  001E' 0085'              	movwf	(??_frexp+0)+0
 15713  001F' 0186'              	clrf	(??_frexp+0)+0+1
 15714  0020' 3001               	movlw	01h
 15715  0021' 00FF               	movwf	btemp+1
 15716  0022'                    u5325:
 15717  0022' 1003               	clrc
 15718  0023' 0D85'              	rlf	(??_frexp+0)+0,f
 15719  0024' 0D86'              	rlf	(??_frexp+0)+1,f
 15720  0025' 0BFF               	decfsz	btemp+1,f
 15721  0026' 2800'              	goto	u5325
 15722  0027' 0804'              	movf	(frexp@eptr),w
 15723  0028' 0084               	movwf	fsr0
 15724  0029' 0805'              	movf	0+(??_frexp+0)+0,w
 15725  002A' 1383               	bcf	status, 7	;select IRP bank0
 15726  002B' 0080               	movwf	indf
 15727  002C' 0A84               	incf	fsr0,f
 15728  002D' 0806'              	movf	1+(??_frexp+0)+0,w
 15729  002E' 0080               	movwf	indf
 15730                           	line	262
 15731                           	
 15732  002F'                    l9307:	
 15733  002F' 0D02'              	rlf	0+(frexp@value)+02h,w
 15734  0030' 0D02'              	rlf	0+(frexp@value)+02h,w
 15735  0031' 3901               	andlw	1
 15736  0032' 0085'              	movwf	(??_frexp+0)+0
 15737  0033' 0186'              	clrf	(??_frexp+0)+0+1
 15738  0034' 0804'              	movf	(frexp@eptr),w
 15739  0035' 0084               	movwf	fsr0
 15740  0036' 0805'              	movf	0+(??_frexp+0)+0,w
 15741  0037' 0480               	iorwf	indf,f
 15742  0038' 0A84               	incf	fsr0,f
 15743  0039' 0806'              	movf	1+(??_frexp+0)+0,w
 15744  003A' 0480               	iorwf	indf,f
 15745                           	line	263
 15746                           	
 15747  003B'                    l9309:	
 15748  003B' 0804'              	movf	(frexp@eptr),w
 15749  003C' 0084               	movwf	fsr0
 15750  003D' 3082               	movlw	low(-126)
 15751  003E' 0780               	addwf	indf,f
 15752  003F' 0F84               	incfsz	fsr0,f
 15753  0040' 0800               	movf	indf,w
 15754  0041' 1803               	skipnc
 15755  0042' 0A00               	incf	indf,w
 15756  0043' 00FF               	movwf	btemp+1
 15757  0044' 30FF               	movlw	high(-126)
 15758  0045' 077F               	addwf	btemp+1,w
 15759  0046' 0080               	movwf	indf
 15760  0047' 0384               	decf	fsr0,f
 15761                           	line	268
 15762                           	
 15763  0048'                    l9311:	
 15764  0048' 0803'              	movf	0+(frexp@value)+03h,w
 15765  0049' 3980               	andlw	not (((1<<7)-1)<<0)
 15766  004A' 383F               	iorlw	(03Fh & ((1<<7)-1))<<0
 15767  004B' 0083'              	movwf	0+(frexp@value)+03h
 15768                           	line	269
 15769                           	
 15770  004C'                    l9313:	
 15771  004C' 1382'              	bcf	0+(frexp@value)+02h,7
 15772                           	line	273
 15773                           	
 15774  004D'                    l9315:	
 15775  004D' 2800'              	goto	l3985
 15776                           	
 15777  004E'                    l9317:	
 15778                           	line	274
 15779                           	
 15780  004E'                    l3985:	
 15781  004E' 0008               	return
 15782                           	opt stack 0
 15783                           GLOBAL	__end_of_frexp
 15784  004F'                    	__end_of_frexp:
 15785 ;; =============== function _frexp ends ============
 15786                           
 15787                           	signat	_frexp,8316
 15788                           	global	_timer2_init
 15789                           psect	text1473,local,class=CODE,delta=2
 15790                           global __ptext1473
 15791  0000'                    __ptext1473:
 15792                           
 15793 ;; *************** function _timer2_init *****************
 15794 ;; Defined at:
 15795 ;;		line 81 in file "../../../lib/timer.c"
 15796 ;; Parameters:    Size  Location     Type
 15797 ;;  ps_mode         1    wreg     unsigned char 
 15798 ;; Auto vars:     Size  Location     Type
 15799 ;;  ps_mode         1    1[BANK0 ] unsigned char 
 15800 ;;  postscaler      1    3[BANK0 ] unsigned char 
 15801 ;;  ps              1    2[BANK0 ] unsigned char 
 15802 ;; Return value:  Size  Location     Type
 15803 ;;		None               void
 15804 ;; Registers used:
 15805 ;;		wreg, status,2, status,0
 15806 ;; Tracked objects:
 15807 ;;		On entry : 0/0
 15808 ;;		On exit  : 0/0
 15809 ;;		Unchanged: 0/0
 15810 ;; Data sizes:     COMMON   BANK0   BANK1   BANK3   BANK2
 15811 ;;      Params:         0       0       0       0       0
 15812 ;;      Locals:         0       3       0       0       0
 15813 ;;      Temps:          0       1       0       0       0
 15814 ;;      Totals:         0       4       0       0       0
 15815 ;;Total ram usage:        4 bytes
 15816 ;; Hardware stack levels used:    1
 15817 ;; Hardware stack levels required when called:    1
 15818 ;; This function calls:
 15819 ;;		Nothing
 15820 ;; This function is called by:
 15821 ;;		_main
 15822 ;; This function uses a non-reentrant model
 15823 ;;
 15824                           psect	text1473
 15825                           	file	"../../../lib/timer.c"
 15826                           	line	81
 15827                           	global	__size_of_timer2_init
 15828  0069                     	__size_of_timer2_init	equ	__end_of_timer2_init-_timer2_init
 15829                           	
 15830  0000'                    _timer2_init:	
 15831                           	opt	stack 6
 15832                           ; Regs used in _timer2_init: [wreg+status,2+status,0]
 15833                           ;timer2_init@ps_mode stored from wreg
 15834  0000' 1283               	bcf	status, 5	;RP0=0, select bank0
 15835  0001' 1303               	bcf	status, 6	;RP1=0, select bank0
 15836  0002' 0081'              	movwf	(timer2_init@ps_mode)
 15837                           	line	82
 15838                           	
 15839  0003'                    l9233:	
 15840                           ;timer.c: 82: uint8_t ps = ps_mode & 0b1111;
 15841  0003' 0801'              	movf	(timer2_init@ps_mode),w
 15842  0004' 390F               	andlw	0Fh
 15843  0005' 0080'              	movwf	(??_timer2_init+0)+0
 15844  0006' 0800'              	movf	(??_timer2_init+0)+0,w
 15845  0007' 0082'              	movwf	(timer2_init@ps)
 15846                           	line	83
 15847                           	
 15848  0008'                    l9235:	
 15849                           ;timer.c: 83: uint8_t postscaler = 0;
 15850  0008' 0183'              	clrf	(timer2_init@postscaler)
 15851                           	line	86
 15852                           	
 15853  0009'                    l9237:	
 15854                           ;timer.c: 86: TOUTPS0 = postscaler & 1;
 15855  0009' 1803'              	btfsc	(timer2_init@postscaler),0
 15856  000A' 2800'              	goto	u5111
 15857  000B' 2800'              	goto	u5110
 15858                           	
 15859  000C'                    u5111:
 15860  000C' 1283               	bcf	status, 5	;RP0=0, select bank0
 15861  000D' 1303               	bcf	status, 6	;RP1=0, select bank0
 15862  000E' 1592               	bsf	(147/8),(147)&7
 15863  000F' 2800'              	goto	u5124
 15864  0010'                    u5110:
 15865  0010' 1283               	bcf	status, 5	;RP0=0, select bank0
 15866  0011' 1303               	bcf	status, 6	;RP1=0, select bank0
 15867  0012' 1192               	bcf	(147/8),(147)&7
 15868  0013'                    u5124:
 15869                           	line	87
 15870                           	
 15871  0013'                    l9239:	
 15872                           ;timer.c: 87: TOUTPS1 = (postscaler >> 1) & 1;
 15873  0013' 0803'              	movf	(timer2_init@postscaler),w
 15874  0014' 0080'              	movwf	(??_timer2_init+0)+0
 15875  0015' 3001               	movlw	01h
 15876  0016'                    u5135:
 15877  0016' 1003               	clrc
 15878  0017' 0C80'              	rrf	(??_timer2_init+0)+0,f
 15879  0018' 3EFF               	addlw	-1
 15880  0019' 1D03               	skipz
 15881  001A' 2800'              	goto	u5135
 15882  001B' 1800'              	btfsc	0+(??_timer2_init+0)+0,0
 15883  001C' 2800'              	goto	u5141
 15884  001D' 2800'              	goto	u5140
 15885                           	
 15886  001E'                    u5141:
 15887  001E' 1283               	bcf	status, 5	;RP0=0, select bank0
 15888  001F' 1303               	bcf	status, 6	;RP1=0, select bank0
 15889  0020' 1612               	bsf	(148/8),(148)&7
 15890  0021' 2800'              	goto	u5154
 15891  0022'                    u5140:
 15892  0022' 1283               	bcf	status, 5	;RP0=0, select bank0
 15893  0023' 1303               	bcf	status, 6	;RP1=0, select bank0
 15894  0024' 1212               	bcf	(148/8),(148)&7
 15895  0025'                    u5154:
 15896                           	line	88
 15897                           	
 15898  0025'                    l9241:	
 15899                           ;timer.c: 88: TOUTPS2 = (postscaler >> 2) & 1;
 15900  0025' 0803'              	movf	(timer2_init@postscaler),w
 15901  0026' 0080'              	movwf	(??_timer2_init+0)+0
 15902  0027' 3002               	movlw	02h
 15903  0028'                    u5165:
 15904  0028' 1003               	clrc
 15905  0029' 0C80'              	rrf	(??_timer2_init+0)+0,f
 15906  002A' 3EFF               	addlw	-1
 15907  002B' 1D03               	skipz
 15908  002C' 2800'              	goto	u5165
 15909  002D' 1800'              	btfsc	0+(??_timer2_init+0)+0,0
 15910  002E' 2800'              	goto	u5171
 15911  002F' 2800'              	goto	u5170
 15912                           	
 15913  0030'                    u5171:
 15914  0030' 1283               	bcf	status, 5	;RP0=0, select bank0
 15915  0031' 1303               	bcf	status, 6	;RP1=0, select bank0
 15916  0032' 1692               	bsf	(149/8),(149)&7
 15917  0033' 2800'              	goto	u5184
 15918  0034'                    u5170:
 15919  0034' 1283               	bcf	status, 5	;RP0=0, select bank0
 15920  0035' 1303               	bcf	status, 6	;RP1=0, select bank0
 15921  0036' 1292               	bcf	(149/8),(149)&7
 15922  0037'                    u5184:
 15923                           	line	90
 15924                           	
 15925  0037'                    l9243:	
 15926                           ;timer.c: 90: T2CKPS0 = (ps >> 1) & 1;
 15927  0037' 0802'              	movf	(timer2_init@ps),w
 15928  0038' 0080'              	movwf	(??_timer2_init+0)+0
 15929  0039' 3001               	movlw	01h
 15930  003A'                    u5195:
 15931  003A' 1003               	clrc
 15932  003B' 0C80'              	rrf	(??_timer2_init+0)+0,f
 15933  003C' 3EFF               	addlw	-1
 15934  003D' 1D03               	skipz
 15935  003E' 2800'              	goto	u5195
 15936  003F' 1800'              	btfsc	0+(??_timer2_init+0)+0,0
 15937  0040' 2800'              	goto	u5201
 15938  0041' 2800'              	goto	u5200
 15939                           	
 15940  0042'                    u5201:
 15941  0042' 1283               	bcf	status, 5	;RP0=0, select bank0
 15942  0043' 1303               	bcf	status, 6	;RP1=0, select bank0
 15943  0044' 1412               	bsf	(144/8),(144)&7
 15944  0045' 2800'              	goto	u5214
 15945  0046'                    u5200:
 15946  0046' 1283               	bcf	status, 5	;RP0=0, select bank0
 15947  0047' 1303               	bcf	status, 6	;RP1=0, select bank0
 15948  0048' 1012               	bcf	(144/8),(144)&7
 15949  0049'                    u5214:
 15950                           	line	91
 15951                           	
 15952  0049'                    l9245:	
 15953                           ;timer.c: 91: T2CKPS1 = (ps >> 2) & 1;
 15954  0049' 0802'              	movf	(timer2_init@ps),w
 15955  004A' 0080'              	movwf	(??_timer2_init+0)+0
 15956  004B' 3002               	movlw	02h
 15957  004C'                    u5225:
 15958  004C' 1003               	clrc
 15959  004D' 0C80'              	rrf	(??_timer2_init+0)+0,f
 15960  004E' 3EFF               	addlw	-1
 15961  004F' 1D03               	skipz
 15962  0050' 2800'              	goto	u5225
 15963  0051' 1800'              	btfsc	0+(??_timer2_init+0)+0,0
 15964  0052' 2800'              	goto	u5231
 15965  0053' 2800'              	goto	u5230
 15966                           	
 15967  0054'                    u5231:
 15968  0054' 1283               	bcf	status, 5	;RP0=0, select bank0
 15969  0055' 1303               	bcf	status, 6	;RP1=0, select bank0
 15970  0056' 1492               	bsf	(145/8),(145)&7
 15971  0057' 2800'              	goto	u5244
 15972  0058'                    u5230:
 15973  0058' 1283               	bcf	status, 5	;RP0=0, select bank0
 15974  0059' 1303               	bcf	status, 6	;RP1=0, select bank0
 15975  005A' 1092               	bcf	(145/8),(145)&7
 15976  005B'                    u5244:
 15977                           	line	93
 15978                           	
 15979  005B'                    l9247:	
 15980                           ;timer.c: 93: TMR2 = 0;
 15981  005B' 0191               	clrf	(17)	;volatile
 15982                           	line	95
 15983                           	
 15984  005C'                    l9249:	
 15985                           ;timer.c: 95: TMR2ON = 1;
 15986  005C' 1512               	bsf	(146/8),(146)&7
 15987                           	line	97
 15988                           	
 15989  005D'                    l9251:	
 15990                           ;timer.c: 97: TMR2IF = 0;
 15991  005D' 108C               	bcf	(97/8),(97)&7
 15992                           	line	98
 15993                           	
 15994  005E'                    l9253:	
 15995                           ;timer.c: 98: TMR2IE = !!(ps_mode & 0x80);
 15996  005E' 1B81'              	btfsc	(timer2_init@ps_mode),(7)&7
 15997  005F' 2800'              	goto	u5251
 15998  0060' 2800'              	goto	u5250
 15999                           	
 16000  0061'                    u5251:
 16001  0061' 1683               	bsf	status, 5	;RP0=1, select bank1
 16002  0062' 1303               	bcf	status, 6	;RP1=0, select bank1
 16003  0063' 148C               	bsf	(1121/8)^080h,(1121)&7
 16004  0064' 2800'              	goto	u5264
 16005  0065'                    u5250:
 16006  0065' 1683               	bsf	status, 5	;RP0=1, select bank1
 16007  0066' 1303               	bcf	status, 6	;RP1=0, select bank1
 16008  0067' 108C               	bcf	(1121/8)^080h,(1121)&7
 16009  0068'                    u5264:
 16010                           	line	99
 16011                           	
 16012  0068'                    l1919:	
 16013  0068' 0008               	return
 16014                           	opt stack 0
 16015                           GLOBAL	__end_of_timer2_init
 16016  0069'                    	__end_of_timer2_init:
 16017 ;; =============== function _timer2_init ends ============
 16018                           
 16019                           	signat	_timer2_init,4216
 16020                           	global	_ser_init
 16021                           psect	text1474,local,class=CODE,delta=2
 16022                           global __ptext1474
 16023  0000'                    __ptext1474:
 16024                           
 16025 ;; *************** function _ser_init *****************
 16026 ;; Defined at:
 16027 ;;		line 125 in file "../../../lib/ser.c"
 16028 ;; Parameters:    Size  Location     Type
 16029 ;;		None
 16030 ;; Auto vars:     Size  Location     Type
 16031 ;;		None
 16032 ;; Return value:  Size  Location     Type
 16033 ;;		None               void
 16034 ;; Registers used:
 16035 ;;		wreg
 16036 ;; Tracked objects:
 16037 ;;		On entry : 0/0
 16038 ;;		On exit  : 0/0
 16039 ;;		Unchanged: 0/0
 16040 ;; Data sizes:     COMMON   BANK0   BANK1   BANK3   BANK2
 16041 ;;      Params:         0       0       0       0       0
 16042 ;;      Locals:         0       0       0       0       0
 16043 ;;      Temps:          0       1       0       0       0
 16044 ;;      Totals:         0       1       0       0       0
 16045 ;;Total ram usage:        1 bytes
 16046 ;; Hardware stack levels used:    1
 16047 ;; Hardware stack levels required when called:    1
 16048 ;; This function calls:
 16049 ;;		Nothing
 16050 ;; This function is called by:
 16051 ;;		_main
 16052 ;; This function uses a non-reentrant model
 16053 ;;
 16054                           psect	text1474
 16055                           	file	"../../../lib/ser.c"
 16056                           	line	125
 16057                           	global	__size_of_ser_init
 16058  0025                     	__size_of_ser_init	equ	__end_of_ser_init-_ser_init
 16059                           	
 16060  0000'                    _ser_init:	
 16061                           	opt	stack 6
 16062                           ; Regs used in _ser_init: [wreg]
 16063                           	line	128
 16064                           	
 16065  0000'                    l9213:	
 16066                           ;ser.c: 128: TRISC6 = 1;
 16067  0000' 1683               	bsf	status, 5	;RP0=1, select bank1
 16068  0001' 1303               	bcf	status, 6	;RP1=0, select bank1
 16069  0002' 1707               	bsf	(1086/8)^080h,(1086)&7
 16070                           	line	129
 16071                           ;ser.c: 129: RC7 = 1;
 16072  0003' 1283               	bcf	status, 5	;RP0=0, select bank0
 16073  0004' 1303               	bcf	status, 6	;RP1=0, select bank0
 16074  0005' 1787               	bsf	(63/8),(63)&7
 16075                           	line	131
 16076                           ;ser.c: 131: BRGH = 1;
 16077  0006' 1683               	bsf	status, 5	;RP0=1, select bank1
 16078  0007' 1303               	bcf	status, 6	;RP1=0, select bank1
 16079  0008' 1518               	bsf	(1218/8)^080h,(1218)&7
 16080                           	line	136
 16081                           	
 16082  0009'                    l9215:	
 16083                           ;ser.c: 136: SPBRG = ser_brg;
 16084  0009' 0800'              	movf	(_ser_brg)^080h,w
 16085  000A' 0099               	movwf	(153)^080h	;volatile
 16086                           	line	139
 16087                           	
 16088  000B'                    l9217:	
 16089                           ;ser.c: 139: TX9 = 0;
 16090  000B' 1318               	bcf	(1222/8)^080h,(1222)&7
 16091                           	line	140
 16092                           	
 16093  000C'                    l9219:	
 16094                           ;ser.c: 140: RX9 = 0;
 16095  000C' 1283               	bcf	status, 5	;RP0=0, select bank0
 16096  000D' 1303               	bcf	status, 6	;RP1=0, select bank0
 16097  000E' 1318               	bcf	(198/8),(198)&7
 16098                           	line	142
 16099                           	
 16100  000F'                    l9221:	
 16101                           ;ser.c: 142: SYNC = 0;
 16102  000F' 1683               	bsf	status, 5	;RP0=1, select bank1
 16103  0010' 1303               	bcf	status, 6	;RP1=0, select bank1
 16104  0011' 1218               	bcf	(1220/8)^080h,(1220)&7
 16105                           	line	143
 16106                           	
 16107  0012'                    l9223:	
 16108                           ;ser.c: 143: SPEN = 1;
 16109  0012' 1283               	bcf	status, 5	;RP0=0, select bank0
 16110  0013' 1303               	bcf	status, 6	;RP1=0, select bank0
 16111  0014' 1798               	bsf	(199/8),(199)&7
 16112                           	line	144
 16113                           	
 16114  0015'                    l9225:	
 16115                           ;ser.c: 144: CREN = 1;
 16116  0015' 1618               	bsf	(196/8),(196)&7
 16117                           	line	145
 16118                           	
 16119  0016'                    l9227:	
 16120                           ;ser.c: 145: TXIE = 0;
 16121  0016' 1683               	bsf	status, 5	;RP0=1, select bank1
 16122  0017' 1303               	bcf	status, 6	;RP1=0, select bank1
 16123  0018' 120C               	bcf	(1124/8)^080h,(1124)&7
 16124                           	line	147
 16125                           	
 16126  0019'                    l9229:	
 16127                           ;ser.c: 147: TXEN = 1;
 16128  0019' 1698               	bsf	(1221/8)^080h,(1221)&7
 16129                           	line	148
 16130                           	
 16131  001A'                    l9231:	
 16132                           ;ser.c: 148: PEIE = 1;
 16133  001A' 170B               	bsf	(94/8),(94)&7
 16134                           	line	150
 16135                           ;ser.c: 150: rxiptr = rxoptr = txiptr = txoptr = 0;
 16136  001B' 3000               	movlw	(0)
 16137  001C' 0083'              	movwf	(_txoptr)	;volatile
 16138  001D' 0082'              	movwf	(_txiptr)	;volatile
 16139  001E' 0081'              	movwf	(_rxoptr)	;volatile
 16140  001F' 1283               	bcf	status, 5	;RP0=0, select bank0
 16141  0020' 1303               	bcf	status, 6	;RP1=0, select bank0
 16142  0021' 0080'              	movwf	(??_ser_init+0)+0
 16143  0022' 0800'              	movf	(??_ser_init+0)+0,w
 16144  0023' 0080'              	movwf	(_rxiptr)	;volatile
 16145                           	line	151
 16146                           	
 16147  0024'                    l1306:	
 16148  0024' 0008               	return
 16149                           	opt stack 0
 16150                           GLOBAL	__end_of_ser_init
 16151  0025'                    	__end_of_ser_init:
 16152 ;; =============== function _ser_init ends ============
 16153                           
 16154                           	signat	_ser_init,88
 16155                           	global	_indicator
 16156                           psect	text1475,local,class=CODE,delta=2
 16157                           global __ptext1475
 16158  0000'                    __ptext1475:
 16159                           
 16160 ;; *************** function _indicator *****************
 16161 ;; Defined at:
 16162 ;;		line 469 in file "../../../src/print.c"
 16163 ;; Parameters:    Size  Location     Type
 16164 ;;  indicate        1    wreg     unsigned char 
 16165 ;; Auto vars:     Size  Location     Type
 16166 ;;		None
 16167 ;; Return value:  Size  Location     Type
 16168 ;;		None               void
 16169 ;; Registers used:
 16170 ;;		wreg
 16171 ;; Tracked objects:
 16172 ;;		On entry : 0/0
 16173 ;;		On exit  : 0/0
 16174 ;;		Unchanged: 0/0
 16175 ;; Data sizes:     COMMON   BANK0   BANK1   BANK3   BANK2
 16176 ;;      Params:         0       0       0       0       0
 16177 ;;      Locals:         0       0       0       0       0
 16178 ;;      Temps:          0       0       0       0       0
 16179 ;;      Totals:         0       0       0       0       0
 16180 ;;Total ram usage:        0 bytes
 16181 ;; Hardware stack levels used:    1
 16182 ;; Hardware stack levels required when called:    1
 16183 ;; This function calls:
 16184 ;;		Nothing
 16185 ;; This function is called by:
 16186 ;;		_main
 16187 ;; This function uses a non-reentrant model
 16188 ;;
 16189                           psect	text1475
 16190                           	file	"../../../src/print.c"
 16191                           	line	469
 16192                           	global	__size_of_indicator
 16193  0001                     	__size_of_indicator	equ	__end_of_indicator-_indicator
 16194                           	
 16195  0000'                    _indicator:	
 16196                           	opt	stack 6
 16197                           ; Regs used in _indicator: [wreg]
 16198                           	line	490
 16199                           	
 16200  0000'                    l636:	
 16201  0000' 0008               	return
 16202                           	opt stack 0
 16203                           GLOBAL	__end_of_indicator
 16204  0001'                    	__end_of_indicator:
 16205 ;; =============== function _indicator ends ============
 16206                           
 16207                           	signat	_indicator,4216
 16208                           	global	_print_reading
 16209                           psect	text1476,local,class=CODE,delta=2
 16210                           global __ptext1476
 16211  0000'                    __ptext1476:
 16212                           
 16213 ;; *************** function _print_reading *****************
 16214 ;; Defined at:
 16215 ;;		line 429 in file "../../../src/print.c"
 16216 ;; Parameters:    Size  Location     Type
 16217 ;;  measurement     2    0[BANK0 ] unsigned int 
 16218 ;; Auto vars:     Size  Location     Type
 16219 ;;		None
 16220 ;; Return value:  Size  Location     Type
 16221 ;;		None               void
 16222 ;; Registers used:
 16223 ;;		None
 16224 ;; Tracked objects:
 16225 ;;		On entry : 0/0
 16226 ;;		On exit  : 0/0
 16227 ;;		Unchanged: 0/0
 16228 ;; Data sizes:     COMMON   BANK0   BANK1   BANK3   BANK2
 16229 ;;      Params:         0       2       0       0       0
 16230 ;;      Locals:         0       0       0       0       0
 16231 ;;      Temps:          0       0       0       0       0
 16232 ;;      Totals:         0       2       0       0       0
 16233 ;;Total ram usage:        2 bytes
 16234 ;; Hardware stack levels used:    1
 16235 ;; Hardware stack levels required when called:    1
 16236 ;; This function calls:
 16237 ;;		Nothing
 16238 ;; This function is called by:
 16239 ;;		_measure_capacitance
 16240 ;;		_measure_inductance
 16241 ;; This function uses a non-reentrant model
 16242 ;;
 16243                           psect	text1476
 16244                           	file	"../../../src/print.c"
 16245                           	line	429
 16246                           	global	__size_of_print_reading
 16247  0001                     	__size_of_print_reading	equ	__end_of_print_reading-_print_reading
 16248                           	
 16249  0000'                    _print_reading:	
 16250                           	opt	stack 5
 16251                           ; Regs used in _print_reading: []
 16252                           	line	465
 16253                           	
 16254  0000'                    l633:	
 16255  0000' 0008               	return
 16256                           	opt stack 0
 16257                           GLOBAL	__end_of_print_reading
 16258  0001'                    	__end_of_print_reading:
 16259 ;; =============== function _print_reading ends ============
 16260                           
 16261                           	signat	_print_reading,4216
 16262                           	global	_print_unit
 16263                           psect	text1477,local,class=CODE,delta=2
 16264                           global __ptext1477
 16265  0000'                    __ptext1477:
 16266                           
 16267 ;; *************** function _print_unit *****************
 16268 ;; Defined at:
 16269 ;;		line 408 in file "../../../src/print.c"
 16270 ;; Parameters:    Size  Location     Type
 16271 ;;  unit            1    wreg     unsigned char 
 16272 ;; Auto vars:     Size  Location     Type
 16273 ;;		None
 16274 ;; Return value:  Size  Location     Type
 16275 ;;		None               void
 16276 ;; Registers used:
 16277 ;;		wreg
 16278 ;; Tracked objects:
 16279 ;;		On entry : 0/0
 16280 ;;		On exit  : 0/0
 16281 ;;		Unchanged: 0/0
 16282 ;; Data sizes:     COMMON   BANK0   BANK1   BANK3   BANK2
 16283 ;;      Params:         0       0       0       0       0
 16284 ;;      Locals:         0       0       0       0       0
 16285 ;;      Temps:          0       0       0       0       0
 16286 ;;      Totals:         0       0       0       0       0
 16287 ;;Total ram usage:        0 bytes
 16288 ;; Hardware stack levels used:    1
 16289 ;; Hardware stack levels required when called:    1
 16290 ;; This function calls:
 16291 ;;		Nothing
 16292 ;; This function is called by:
 16293 ;;		_measure_capacitance
 16294 ;;		_measure_inductance
 16295 ;; This function uses a non-reentrant model
 16296 ;;
 16297                           psect	text1477
 16298                           	file	"../../../src/print.c"
 16299                           	line	408
 16300                           	global	__size_of_print_unit
 16301  0001                     	__size_of_print_unit	equ	__end_of_print_unit-_print_unit
 16302                           	
 16303  0000'                    _print_unit:	
 16304                           	opt	stack 5
 16305                           ; Regs used in _print_unit: [wreg]
 16306                           	line	426
 16307                           	
 16308  0000'                    l630:	
 16309  0000' 0008               	return
 16310                           	opt stack 0
 16311                           GLOBAL	__end_of_print_unit
 16312  0001'                    	__end_of_print_unit:
 16313 ;; =============== function _print_unit ends ============
 16314                           
 16315                           	signat	_print_unit,4216
 16316                           	global	_isr
 16317                           psect	text1478,local,class=CODE,delta=2
 16318                           global __ptext1478
 16319  0000'                    __ptext1478:
 16320                           
 16321 ;; *************** function _isr *****************
 16322 ;; Defined at:
 16323 ;;		line 79 in file "../../../src/LC-meter.c"
 16324 ;; Parameters:    Size  Location     Type
 16325 ;;		None
 16326 ;; Auto vars:     Size  Location     Type
 16327 ;;		None
 16328 ;; Return value:  Size  Location     Type
 16329 ;;                  2  3259[COMMON] int 
 16330 ;; Registers used:
 16331 ;;		wreg, fsr0l, fsr0h, status,2, status,0
 16332 ;; Tracked objects:
 16333 ;;		On entry : 0/0
 16334 ;;		On exit  : 0/0
 16335 ;;		Unchanged: 0/0
 16336 ;; Data sizes:     COMMON   BANK0   BANK1   BANK3   BANK2
 16337 ;;      Params:         0       0       0       0       0
 16338 ;;      Locals:         0       0       0       0       0
 16339 ;;      Temps:          5       0       0       0       0
 16340 ;;      Totals:         5       0       0       0       0
 16341 ;;Total ram usage:        5 bytes
 16342 ;; Hardware stack levels used:    1
 16343 ;; This function calls:
 16344 ;;		Nothing
 16345 ;; This function is called by:
 16346 ;;		Interrupt level 1
 16347 ;; This function uses a non-reentrant model
 16348 ;;
 16349                           psect	text1478
 16350                           	file	"../../../src/LC-meter.c"
 16351                           	line	79
 16352                           	global	__size_of_isr
 16353  00CF                     	__size_of_isr	equ	__end_of_isr-_isr
 16354                           	
 16355  0000'                    _isr:	
 16356                           	opt	stack 0
 16357                           ; Regs used in _isr: [wreg-fsr0h+status,2+status,0]
 16358                           psect	intentry,class=CODE,delta=2
 16359                           global __pintentry
 16360  0000'                    __pintentry:
 16361                           global interrupt_function
 16362  0000'                    interrupt_function:
 16363                           	global saved_w
 16364  007E                     	saved_w	set	btemp+0
 16365  0000' 00FE               	movwf	saved_w
 16366  0001' 0E03               	swapf	status,w
 16367  0002' 0081'              	movwf	(??_isr+1)
 16368  0003' 0804               	movf	fsr0,w
 16369  0004' 0082'              	movwf	(??_isr+2)
 16370  0005' 080A               	movf	pclath,w
 16371  0006' 0083'              	movwf	(??_isr+3)
 16372  0007' 1283               	bcf	status, 5	;RP0=0, select bank0
 16373  0008' 1303               	bcf	status, 6	;RP1=0, select bank0
 16374  0009' 087F               	movf	btemp+1,w
 16375  000A' 0084'              	movwf	(??_isr+4)
 16376  000B' 120A' 118A' 2800'  	ljmp	_isr
 16377                           psect	text1478
 16378                           	line	81
 16379                           	
 16380  0000'                    i1l7915:	
 16381                           ;LC-meter.c: 81: if(TMR2IF) {
 16382  0000' 1C8C               	btfss	(97/8),(97)&7
 16383  0001' 2800'              	goto	u343_21
 16384  0002' 2800'              	goto	u343_20
 16385  0003'                    u343_21:
 16386  0003' 2800'              	goto	i1l7927
 16387  0004'                    u343_20:
 16388                           	line	83
 16389                           	
 16390  0004'                    i1l7917:	
 16391                           ;LC-meter.c: 83: bres += 256;
 16392  0004' 3000               	movlw	low(0100h)
 16393  0005' 1683               	bsf	status, 5	;RP0=1, select bank3
 16394  0006' 1703               	bsf	status, 6	;RP1=1, select bank3
 16395  0007' 0780'              	addwf	(_bres)^0180h,f	;volatile
 16396  0008' 1803               	skipnc
 16397  0009' 0A80'              	incf	(_bres+1)^0180h,f	;volatile
 16398  000A' 3001               	movlw	high(0100h)
 16399  000B' 0780'              	addwf	(_bres+1)^0180h,f	;volatile
 16400                           	line	85
 16401                           ;LC-meter.c: 85: if(bres >= 5000) {
 16402  000C' 3013               	movlw	high(01388h)
 16403  000D' 0200'              	subwf	(_bres+1)^0180h,w	;volatile
 16404  000E' 3088               	movlw	low(01388h)
 16405  000F' 1903               	skipnz
 16406  0010' 0200'              	subwf	(_bres)^0180h,w	;volatile
 16407  0011' 1C03               	skipc
 16408  0012' 2800'              	goto	u344_21
 16409  0013' 2800'              	goto	u344_20
 16410  0014'                    u344_21:
 16411  0014' 2800'              	goto	i1l7925
 16412  0015'                    u344_20:
 16413                           	line	86
 16414                           	
 16415  0015'                    i1l7919:	
 16416                           ;LC-meter.c: 86: bres -= 5000;
 16417  0015' 3088               	movlw	low(01388h)
 16418  0016' 0280'              	subwf	(_bres)^0180h,f	;volatile
 16419  0017' 3013               	movlw	high(01388h)
 16420  0018' 1C03               	skipc
 16421  0019' 0380'              	decf	(_bres+1)^0180h,f	;volatile
 16422  001A' 0280'              	subwf	(_bres+1)^0180h,f	;volatile
 16423                           	line	87
 16424                           ;LC-meter.c: 87: msecpart++;
 16425  001B' 3001               	movlw	low(01h)
 16426  001C' 0780'              	addwf	(_msecpart)^0180h,f	;volatile
 16427  001D' 1803               	skipnc
 16428  001E' 0A80'              	incf	(_msecpart+1)^0180h,f	;volatile
 16429  001F' 3000               	movlw	high(01h)
 16430  0020' 0780'              	addwf	(_msecpart+1)^0180h,f	;volatile
 16431                           	line	88
 16432                           ;LC-meter.c: 88: msecs++;
 16433  0021' 3001               	movlw	01h
 16434  0022' 0780'              	addwf	(_msecs)^0180h,f	;volatile
 16435  0023' 3000               	movlw	0
 16436  0024' 1803               	skipnc
 16437  0025' 3001               movlw 1
 16438  0026' 0780'              	addwf	(_msecs+1)^0180h,f	;volatile
 16439  0027' 3000               	movlw	0
 16440  0028' 1803               	skipnc
 16441  0029' 3001               movlw 1
 16442  002A' 0780'              	addwf	(_msecs+2)^0180h,f	;volatile
 16443  002B' 3000               	movlw	0
 16444  002C' 1803               	skipnc
 16445  002D' 3001               movlw 1
 16446  002E' 0780'              	addwf	(_msecs+3)^0180h,f	;volatile
 16447                           	line	90
 16448                           ;LC-meter.c: 90: RC3 = (((blink > 200)) == 0);
 16449  002F' 3000               	movlw	high(0C9h)
 16450  0030' 1683               	bsf	status, 5	;RP0=1, select bank1
 16451  0031' 1303               	bcf	status, 6	;RP1=0, select bank1
 16452  0032' 0200'              	subwf	(_blink+1)^080h,w
 16453  0033' 30C9               	movlw	low(0C9h)
 16454  0034' 1903               	skipnz
 16455  0035' 0200'              	subwf	(_blink)^080h,w
 16456  0036' 1C03               	skipc
 16457  0037' 2800'              	goto	u345_21
 16458  0038' 2800'              	goto	u345_20
 16459                           	
 16460  0039'                    u345_21:
 16461  0039' 1283               	bcf	status, 5	;RP0=0, select bank0
 16462  003A' 1303               	bcf	status, 6	;RP1=0, select bank0
 16463  003B' 1587               	bsf	(59/8),(59)&7
 16464  003C' 2800'              	goto	u346_24
 16465  003D'                    u345_20:
 16466  003D' 1283               	bcf	status, 5	;RP0=0, select bank0
 16467  003E' 1303               	bcf	status, 6	;RP1=0, select bank0
 16468  003F' 1187               	bcf	(59/8),(59)&7
 16469  0040'                    u346_24:
 16470                           	line	91
 16471                           ;LC-meter.c: 91: if(blink >= 400)
 16472  0040' 3001               	movlw	high(0190h)
 16473  0041' 1683               	bsf	status, 5	;RP0=1, select bank1
 16474  0042' 1303               	bcf	status, 6	;RP1=0, select bank1
 16475  0043' 0200'              	subwf	(_blink+1)^080h,w
 16476  0044' 3090               	movlw	low(0190h)
 16477  0045' 1903               	skipnz
 16478  0046' 0200'              	subwf	(_blink)^080h,w
 16479  0047' 1C03               	skipc
 16480  0048' 2800'              	goto	u347_21
 16481  0049' 2800'              	goto	u347_20
 16482  004A'                    u347_21:
 16483  004A' 2800'              	goto	i1l3262
 16484  004B'                    u347_20:
 16485                           	line	92
 16486                           	
 16487  004B'                    i1l7921:	
 16488                           ;LC-meter.c: 92: blink -= 400;
 16489  004B' 3090               	movlw	low(0190h)
 16490  004C' 0280'              	subwf	(_blink)^080h,f
 16491  004D' 3001               	movlw	high(0190h)
 16492  004E' 1C03               	skipc
 16493  004F' 0380'              	decf	(_blink+1)^080h,f
 16494  0050' 0280'              	subwf	(_blink+1)^080h,f
 16495                           	
 16496  0051'                    i1l3262:	
 16497                           	line	93
 16498                           ;LC-meter.c: 93: ++blink;
 16499  0051' 3001               	movlw	low(01h)
 16500  0052' 0780'              	addwf	(_blink)^080h,f
 16501  0053' 1803               	skipnc
 16502  0054' 0A80'              	incf	(_blink+1)^080h,f
 16503  0055' 3000               	movlw	high(01h)
 16504  0056' 0780'              	addwf	(_blink+1)^080h,f
 16505                           	line	96
 16506                           ;LC-meter.c: 96: if(msecpart >= 1000) {
 16507  0057' 3003               	movlw	high(03E8h)
 16508  0058' 1683               	bsf	status, 5	;RP0=1, select bank3
 16509  0059' 1703               	bsf	status, 6	;RP1=1, select bank3
 16510  005A' 0200'              	subwf	(_msecpart+1)^0180h,w	;volatile
 16511  005B' 30E8               	movlw	low(03E8h)
 16512  005C' 1903               	skipnz
 16513  005D' 0200'              	subwf	(_msecpart)^0180h,w	;volatile
 16514  005E' 1C03               	skipc
 16515  005F' 2800'              	goto	u348_21
 16516  0060' 2800'              	goto	u348_20
 16517  0061'                    u348_21:
 16518  0061' 2800'              	goto	i1l7925
 16519  0062'                    u348_20:
 16520                           	line	98
 16521                           	
 16522  0062'                    i1l7923:	
 16523                           ;LC-meter.c: 98: seconds++;
 16524  0062' 3001               	movlw	01h
 16525  0063' 0780'              	addwf	(_seconds)^0180h,f	;volatile
 16526  0064' 3000               	movlw	0
 16527  0065' 1803               	skipnc
 16528  0066' 3001               movlw 1
 16529  0067' 0780'              	addwf	(_seconds+1)^0180h,f	;volatile
 16530  0068' 3000               	movlw	0
 16531  0069' 1803               	skipnc
 16532  006A' 3001               movlw 1
 16533  006B' 0780'              	addwf	(_seconds+2)^0180h,f	;volatile
 16534  006C' 3000               	movlw	0
 16535  006D' 1803               	skipnc
 16536  006E' 3001               movlw 1
 16537  006F' 0780'              	addwf	(_seconds+3)^0180h,f	;volatile
 16538                           	line	99
 16539                           ;LC-meter.c: 99: msecpart -= 1000;
 16540  0070' 30E8               	movlw	low(03E8h)
 16541  0071' 0280'              	subwf	(_msecpart)^0180h,f	;volatile
 16542  0072' 3003               	movlw	high(03E8h)
 16543  0073' 1C03               	skipc
 16544  0074' 0380'              	decf	(_msecpart+1)^0180h,f	;volatile
 16545  0075' 0280'              	subwf	(_msecpart+1)^0180h,f	;volatile
 16546  0076' 2800'              	goto	i1l7925
 16547                           	line	100
 16548                           	
 16549  0077'                    i1l3263:	
 16550  0077' 2800'              	goto	i1l7925
 16551                           	line	101
 16552                           	
 16553  0078'                    i1l3261:	
 16554                           	line	103
 16555                           	
 16556  0078'                    i1l7925:	
 16557                           ;LC-meter.c: 100: }
 16558                           ;LC-meter.c: 101: }
 16559                           ;LC-meter.c: 103: TMR2IF = 0;
 16560  0078' 1283               	bcf	status, 5	;RP0=0, select bank0
 16561  0079' 1303               	bcf	status, 6	;RP1=0, select bank0
 16562  007A' 108C               	bcf	(97/8),(97)&7
 16563  007B' 2800'              	goto	i1l7927
 16564                           	line	104
 16565                           	
 16566  007C'                    i1l3260:	
 16567                           	line	106
 16568                           	
 16569  007C'                    i1l7927:	
 16570                           ;LC-meter.c: 104: }
 16571                           ;LC-meter.c: 106: if(RCIF) { rxfifo[rxiptr] = RCREG; ser_tmp = (rxiptr + 1) & ((uint8_t)
                                 16 - 1); if(ser_tmp != rxoptr) rxiptr = ser_tmp; }; if(TXIF && TXIE) { TXREG = txfifo[tx
                                 optr]; ++txoptr; txoptr &= ((uint8_t)16 - 1); if(txoptr == txiptr) { TXIE = 0; }; TXIF =
                                  0; 
 16572  007C' 1E8C               	btfss	(101/8),(101)&7
 16573  007D' 2800'              	goto	u349_21
 16574  007E' 2800'              	goto	u349_20
 16575  007F'                    u349_21:
 16576  007F' 2800'              	goto	i1l7937
 16577  0080'                    u349_20:
 16578                           	
 16579  0080'                    i1l7929:	
 16580  0080' 081A               	movf	(26),w	;volatile
 16581  0081' 0080'              	movwf	(??_isr+0)+0
 16582  0082' 0800'              	movf	(_rxiptr),w
 16583  0083' 3E00'              	addlw	_rxfifo&0ffh
 16584  0084' 0084               	movwf	fsr0
 16585  0085' 0800'              	movf	(??_isr+0)+0,w
 16586  0086' 1783               	bsf	status, 7	;select IRP bank3
 16587  0087' 0080               	movwf	indf
 16588                           	
 16589  0088'                    i1l7931:	
 16590  0088' 0800'              	movf	(_rxiptr),w	;volatile
 16591  0089' 3E01               	addlw	01h
 16592  008A' 390F               	andlw	0Fh
 16593  008B' 0080'              	movwf	(??_isr+0)+0
 16594  008C' 0800'              	movf	(??_isr+0)+0,w
 16595  008D' 1683               	bsf	status, 5	;RP0=1, select bank1
 16596  008E' 1303               	bcf	status, 6	;RP1=0, select bank1
 16597  008F' 0080'              	movwf	(_ser_tmp)^080h
 16598                           	
 16599  0090'                    i1l7933:	
 16600  0090' 0800'              	movf	(_ser_tmp)^080h,w
 16601  0091' 0601'              	xorwf	(_rxoptr),w	;volatile
 16602  0092' 1903               	skipnz
 16603  0093' 2800'              	goto	u350_21
 16604  0094' 2800'              	goto	u350_20
 16605  0095'                    u350_21:
 16606  0095' 2800'              	goto	i1l7937
 16607  0096'                    u350_20:
 16608                           	
 16609  0096'                    i1l7935:	
 16610  0096' 0800'              	movf	(_ser_tmp)^080h,w
 16611  0097' 0080'              	movwf	(??_isr+0)+0
 16612  0098' 0800'              	movf	(??_isr+0)+0,w
 16613  0099' 0080'              	movwf	(_rxiptr)	;volatile
 16614  009A' 2800'              	goto	i1l7937
 16615                           	
 16616  009B'                    i1l3265:	
 16617  009B' 2800'              	goto	i1l7937
 16618                           	
 16619  009C'                    i1l3264:	
 16620                           	
 16621  009C'                    i1l7937:	
 16622  009C' 1283               	bcf	status, 5	;RP0=0, select bank0
 16623  009D' 1E0C               	btfss	(100/8),(100)&7
 16624  009E' 2800'              	goto	u351_21
 16625  009F' 2800'              	goto	u351_20
 16626  00A0'                    u351_21:
 16627  00A0' 2800'              	goto	i1l3268
 16628  00A1'                    u351_20:
 16629                           	
 16630  00A1'                    i1l7939:	
 16631  00A1' 1683               	bsf	status, 5	;RP0=1, select bank1
 16632  00A2' 1303               	bcf	status, 6	;RP1=0, select bank1
 16633  00A3' 1E0C               	btfss	(1124/8)^080h,(1124)&7
 16634  00A4' 2800'              	goto	u352_21
 16635  00A5' 2800'              	goto	u352_20
 16636  00A6'                    u352_21:
 16637  00A6' 2800'              	goto	i1l3268
 16638  00A7'                    u352_20:
 16639                           	
 16640  00A7'                    i1l7941:	
 16641  00A7' 0803'              	movf	(_txoptr),w
 16642  00A8' 3E00'              	addlw	_txfifo&0ffh
 16643  00A9' 0084               	movwf	fsr0
 16644  00AA' 1783               	bsf	status, 7	;select IRP bank2
 16645  00AB' 0800               	movf	indf,w
 16646  00AC' 1283               	bcf	status, 5	;RP0=0, select bank0
 16647  00AD' 1303               	bcf	status, 6	;RP1=0, select bank0
 16648  00AE' 0099               	movwf	(25)	;volatile
 16649                           	
 16650  00AF'                    i1l7943:	
 16651  00AF' 3001               	movlw	(01h)
 16652  00B0' 0080'              	movwf	(??_isr+0)+0
 16653  00B1' 0800'              	movf	(??_isr+0)+0,w
 16654  00B2' 0783'              	addwf	(_txoptr),f	;volatile
 16655                           	
 16656  00B3'                    i1l7945:	
 16657  00B3' 300F               	movlw	(0Fh)
 16658  00B4' 0080'              	movwf	(??_isr+0)+0
 16659  00B5' 0800'              	movf	(??_isr+0)+0,w
 16660  00B6' 0583'              	andwf	(_txoptr),f	;volatile
 16661                           	
 16662  00B7'                    i1l7947:	
 16663  00B7' 0803'              	movf	(_txoptr),w	;volatile
 16664  00B8' 0602'              	xorwf	(_txiptr),w	;volatile
 16665  00B9' 1D03               	skipz
 16666  00BA' 2800'              	goto	u353_21
 16667  00BB' 2800'              	goto	u353_20
 16668  00BC'                    u353_21:
 16669  00BC' 2800'              	goto	i1l3267
 16670  00BD'                    u353_20:
 16671                           	
 16672  00BD'                    i1l7949:	
 16673  00BD' 1683               	bsf	status, 5	;RP0=1, select bank1
 16674  00BE' 1303               	bcf	status, 6	;RP1=0, select bank1
 16675  00BF' 120C               	bcf	(1124/8)^080h,(1124)&7
 16676                           	
 16677  00C0'                    i1l3267:	
 16678  00C0' 1283               	bcf	status, 5	;RP0=0, select bank0
 16679  00C1' 120C               	bcf	(100/8),(100)&7
 16680  00C2' 2800'              	goto	i1l3268
 16681                           	
 16682  00C3'                    i1l3266:	
 16683                           	line	111
 16684                           	
 16685  00C3'                    i1l3268:	
 16686  00C3' 0804'              	movf	(??_isr+4),w
 16687  00C4' 1283               	bcf	status, 5	;RP0=0, select bank0
 16688  00C5' 00FF               	movwf	btemp+1
 16689  00C6' 0803'              	movf	(??_isr+3),w
 16690  00C7' 008A               	movwf	pclath
 16691  00C8' 0802'              	movf	(??_isr+2),w
 16692  00C9' 0084               	movwf	fsr0
 16693  00CA' 0E00'              	swapf	(??_isr+1)^0FFFFFF80h,w
 16694  00CB' 0083               	movwf	status
 16695  00CC' 0EFE               	swapf	saved_w,f
 16696  00CD' 0E7E               	swapf	saved_w,w
 16697  00CE' 0009               	retfie
 16698                           	opt stack 0
 16699                           GLOBAL	__end_of_isr
 16700  00CF'                    	__end_of_isr:
 16701 ;; =============== function _isr ends ============
 16702                           
 16703                           	signat	_isr,90
 16704                           	global	fptotal
 16705  0006                     fptotal equ 6
 16706                           	file ""
 16707                           	line	#
 16708                           psect	functab,class=CODE,delta=2,reloc=256
 16709                           global __pfunctab
 16710  0000'                    __pfunctab:
 16711                           	global	fptable
 16712  0000'                    fptable:
 16713  0000' 00FF               	movwf (btemp+1)&07Fh
 16714  0001' 3000'              	movlw high(fptable)
 16715  0002' 008A               	movwf pclath
 16716  0003' 087F               	movf (btemp+1)&07Fh,w
 16717  0004' 0782               	addwf pc
 16718                           	global	fpbase
 16719  0005'                    fpbase:
 16720  0005' 2800'              	goto fpbase	; Call via a null pointer and you will get stuck here.
 16721                           	file ""
 16722                           	line	#
 16723  0006'                    fp__output_putch:
 16724  0006'                    entry__output_putch:
 16725                           	global	entry__output_putch
 16726  0006' 120A' 118A' 2800'  	ljmp	_output_putch
 16727                           	file ""
 16728                           	line	#
 16729  0009'                    fp__ser_putch:
 16730  0009'                    entry__ser_putch:
 16731                           	global	entry__ser_putch
 16732  0009' 120A' 118A' 2800'  	ljmp	_ser_putch
 16733                           	file ""
 16734                           	line	#
 16735  000C'                    fp__format_putchar:
 16736  000C' 120A' 118A' 2800'  	ljmp	_format_putchar
 16737                           	global	btemp
 16738  007E                     	btemp set 07Eh
 16739                           
 16740                           	DABS	1,126,2	;btemp
 16741                           	global	wtemp0
 16742  007E                     	wtemp0 set btemp


HI-TECH Software PICC Macro Assembler V9.83 build 10920 
Symbol Table                                                                                   Thu Aug 29 18:49:24 2019

                ___altofl@sign 0021                   ___fldiv@cntr 002C                              pc 0002  
                 ___fldiv@sign 002E                             _F1 0028                             _F2 0010  
                           _F3 0014                             _RD 0C60                             _WR 0C61  
                           fsr 0004            ___wmul@multiplicand 0002                   ___flpack@arg 0000  
                 ___flpack@exp 0004                    _putchar_ptr 0000                            l630 0000  
                          l633 0000                            l636 0000                            _GIE 005F  
                          _RC3 003B                            _RC4 003C                            _RC5 003D  
                          _RC7 003F                            _RX9 00C6                            _TX9 04C6  
                          _exp 0000                            _log 0000                            _isr 0000  
                          _pow 0000                            fsr0 0004                            indf 0000  
                 ___flmul@cntr 0041                   ___flmul@sign 0042                  ___flpack@sign 0005  
                 fp__ser_putch 0009                   ___fltol@exp1 001A                           l1306 0024  
                         l4000 00DB                           l1281 001A                           l1282 0004  
                         l4002 00E6                           l1283 0027                           l1275 0002  
                         l4003 0106                           l4012 0005                           l4020 000E  
                         l1284 0027                           l1276 0001                           l4100 001F  
                         l3300 04AB                           l4013 000F                           l4021 001F  
                         l1277 000A                           l4101 00E1                           l3301 0462  
                         l4014 0024                           l4022 0020                           l4030 000C  
                         l1278 001F                           l4102 003C                           l4110 001F  
                         l3310 05C0                           l3302 04AA                           l4015 002B  
                         l4023 0039                           l4031 001D                           l4103 0086  
                         l4111 0115                           l3311 057C                           l3303 04F3  
                         l4024 0047                           l4032 001E                           l3320 007B  
                         l4104 00B1                           l4112 003C                           l3312 05BF  
                         l3304 04FD                           l4025 004F                           l4033 002F  
                         l3321 007B                           l4105 00C1                           l4113 0086  
                         l3313 0604                           l3305 057E                           l4018 0048  
                         l4034 003D                           l4114 00A2                           l3314 060C  
                         l4019 001A                           l4035 0045                           l4115 00BB  
                         l3315 068D                           l4028 003E                           l2540 0000  
                         l4116 00C0                           l3308 007E                           l4029 0018  
                         l4117 00DC                           l3309 0605                           l4150 0068  
                         l3318 004E                           l4070 0077                           l4062 0046  
                         l4118 00F5                           l2550 007A                           l4151 0054  
                         l3319 0072                           l4071 00CD                           l2551 006F  
                         l2543 0012                           l3271 0093                           l4144 000D  
                         l4152 0055                           l4080 010E                           l4072 0093  
                         l4064 003B                           l2552 008A                           l2544 0013  
                         l3272 00A5                           l4145 000E                           l4153 0067  
                         l3257 000B                           l4081 00D4                           l4065 01AF  
                         l2553 0093                           l3273 00AB                           l4154 008C  
                         l3290 0063                           l4090 0186                           l4074 00B1  
                         l4066 005F                           l4170 002F                           l2554 00B0  
                         l2546 0039                           l2570 01B1                           l3274 00CE  
                         l4155 0078                           l3291 0064                           l4083 00F2  
                         l4075 00B2                           l2555 00B0                           l3275 00CE  
                         l4156 0085                           l4148 001F                           l3292 0088  
                         l4084 00F3                           l4076 00C5                           l4068 005E  
                         l4260 0016                           l2548 0041                           l4340 00D3  
                         l2572 01C4                           l4157 0079                           l4149 009B  
                         l4173 0038                           l4085 0106                           l4077 00B3  
                         l4069 006F                           l4229 001D                           l4261 0036  
                         l2549 006E                           l4341 00DC                           l4158 008B  
                         l4174 006E                           l3286 0020                           l4086 00F4  
                         l4078 00CC                           l2558 0053                           l2574 01CD  
                         l1919 0068                           l4159 009B                           l4175 0089  
                         l3287 0035                           l4087 010D                           l4079 010E  
                         l3295 00CD                           l4095 0050                           l2575 0205  
                         l3288 0041                           l4088 012B                           l4360 005B  
                         l2576 0205                           l2568 01BA                           l4089 014A  
                         l4169 0011                           l4361 0098                           l2569 003B  
                         l4266 001F                           l4338 00CC                           l4362 00FD  
                         l4354 0014                           l3298 01DF                           l4371 0019  
                         l4339 002F                           l4363 0258                           l4355 0258  
                         l3299 04F4                           l4380 0052                           l4364 021B  
                         l4356 005D                           l4381 005F                           l4373 000F  
                         l4382 0053                           l4374 008C                           l4366 01F7  
                         l4358 0051                           l4383 0063                           l4375 0028  
                         l4384 006F                           l4376 001A                           l4368 01FF  
                         l4385 008C                           l4377 002F                           l4378 004B  
                         l4379 0030                           l8101 0034                           l3942 006A  
                         l8111 004A                           l8103 0035                           l3943 005E  
                         l3944 0139                           l8121 0077                           l8113 0053  
                         l8105 003D                           l3945 0074                           l3946 012E  
                         l3962 0059                           l8123 0079                           l8115 0055  
                         l8107 003F                           l3971 0048                           l3972 003C  
                         ?_exp 0026                           l8125 0085                           l8109 0043  
                         l8117 0068                           l8141 003C                           l3957 003B  
                         l3973 01EC                           ?_log 001F                           l3990 0047  
                         l3958 0151                           l3974 005A                           l8119 006E  
                         l8127 008C                           l8151 0086                           l8143 006E  
                         l8135 0000                           l3991 0107                           l3959 0057  
                         l3975 0140                           l3984 001C                           l3992 00E9  
                         l3976 0105                           l3985 004E                           l8129 0090  
                         l8153 0089                           l8145 0070                           l8137 0006  
                         l3993 00D1                           l3977 01EC                           l8147 0072  
                         l8139 0038                           l3995 0090                           l3988 0014  
                         ?_isr 0000                           l9221 000F                           l9213 0000  
                         l9301 0012                           l8093 0000                           l8149 0084  
                         l3997 009B                           l3989 0108                           l3998 00E8  
                         l9231 001A                           l9223 0012                           l9215 0009  
                         l9311 0048                           l9303 001B                           l8095 0015  
                         l9225 0015                           l9217 000B                           l9241 0025  
                         l9233 0003                           l9313 004C                           l9305 001C  
                         l9321 0005                           l9401 0067                           l8097 001E  
                         l9227 0016                           l9219 000C                           l9251 005D  
                         l9243 0037                           l9235 0008                           l9315 004D  
                         l9307 002F                           l9323 0009                           l9331 0000  
                         l9403 0071                           l9411 000A                           l8099 001F  
                         l9171 0002                           l9229 0019                           l9253 005E  
                         l9245 0049                           l9237 0009                           l9317 004E  
                         l9309 003B                           l9325 0016                           l9341 001A  
                         l9333 0004                           l9405 0087                           l9413 000D  
                         l9173 000B                           l9501 0046                           l9247 005B  
                         l9239 0013                           l9327 0024                           l9319 0000  
                         l9351 0040                           l9343 0020                           l9335 000A  
                         l9407 008B                           l9415 000E                           l9175 0015  
                         l9255 0000                           l9511 0059                           l9503 0049  
                         l9249 005C                           l9329 002B                           l9345 0031  
                         l9337 000E                           l9353 0048                           l9361 000C  
                         l9409 0000                           l9177 001B                           l9169 0000  
                         l9513 0064                           l9505 004A                           l9521 000A  
                         l9601 00A2                           l9355 004F                           l9347 0037  
                         l9339 0015                           l9371 002F                           l9363 0013  
                         l9443 0003                           l9451 0000                           l9179 001E  
                         l9515 0081                           l9507 004B                           l9531 0034  
                         l9523 0013                           l9611 00D4                           l9603 00A8  
                         l9349 0039                           l9373 0036                           l9365 0018  
                         l9357 0000                           l9381 0006                           l7765 0086  
                         l9445 0004                           l9461 001F                           l9453 0000  
                         l9517 0088                           l9509 0053                           l9541 005A  
                         l9533 0045                           l9525 0014                           l9621 0112  
                         l9613 00E3                           l9605 00B3                           l9701 0086  
                         l9367 001E                           l9359 0008                           l9375 003E  
                         l9391 0030                           l9383 000F                           l7767 0088  
                         l9447 0013                           l9463 004E                           l9455 0005  
                         l9471 0000                           l9551 00CF                           l9543 0084  
                         l9535 0046                           l9527 0025                           l9519 0000  
                         l9631 016A                           l9623 012B                           l9615 00E9  
                         l9607 00C5                           l9711 00BB                           l9703 008A  
                         l9297 0000                           l9377 0045                           l9369 0028  
                         l9393 0034                           l9385 0018                           l9449 001A  
                         l9465 004F                           l9457 0006                           l9481 0018  
                         l9473 0001                           l9553 00D0                           l9545 0085  
                         l9561 00E9                           l9537 0047                           l9529 0030  
                         l9633 0180                           l9625 0131                           l9617 00F4  
                         l9609 00CD                           l9641 0015                           l9721 00EE  
                         l9713 00C0                           l9705 00A2                           l9801 0052  
                         l9299 000A                           l9395 0042                           l9387 001A  
                         l9379 0000                           l9467 006F                           l9459 001E  
                         l9491 0038                           l9483 001F                           l9475 0009  
                         l9563 00FB                           l9555 00D2                           l9547 0090  
                         l9539 0054                           l9635 0186                           l9627 014A  
                         l9619 0106                           l9571 0024                           l9651 003C  
                         l9643 001E                           l9723 00F5                           l9715 00C4  
                         l9707 00AB                           l9731 000C                           l9811 0073  
                         l9803 005D                           l9397 0053                           l9389 0028  
                         l9469 0073                           l9493 003E                           l9485 0020  
                         l9477 0014                           l9549 009B                           l9557 00DB  
                         l9565 0107                           l9637 01AF                           l9629 0166  
                         l9581 0046                           l9573 0028                           l9661 0081  
                         l9653 006F                           l9645 001F                           l9725 0115  
                         l9717 00DC                           l9709 00B4                           l9733 0011  
                         l9741 0000                           l9821 0139                           l9813 0074  
                         l9805 005E                           l9901 002F                           ?_pow 0032  
                         l9399 005F                           l9495 0041                           l9487 0029  
                         l9479 0017                           l9567 0108                           l9559 00E7  
                         l9591 006C                           l9583 004C                           l9575 002E  
                         l9671 00BA                           l9663 0086                           l9655 0070  
                         l9647 0032                           l9639 0000                           l9719 00E5  
                         l9735 002F                           l9727 0000                           l9743 0007  
                         l9751 0000                           l9815 00ED                           l9807 0069  
                         l9831 0062                           l9823 0000                           l9903 00CC  
                         l9911 0004                           l9497 0044                           l9489 002F  
                         l9593 0074                           l9585 0052                           l9577 003B  
                         l9569 0000                           l9673 00C1                           l9665 00A1  
                         l9657 0078                           l9649 003B                           l9681 001E  
                         l9729 0007                           l9737 0000                           l9745 0012  
                         l9753 001F                           l9761 000B                           l9817 012D  
                         l9809 006A                           l9833 0065                           l9825 0003  
                         l9841 0000                           l9905 00D3                           l9913 0050  
                         l9921 003A                           l9499 0045                           l9595 0079  
                         l9587 005F                           l9579 0045                           l9675 00E1  
                         l9667 00AF                           l9659 0079                           l9691 006F  
                         l9683 001F                           l9739 001D                           l9747 0016  
                         l9771 0039                           l9763 000D                           l9755 0000  
                         l9819 012E                           l9835 008F                           l9827 002D  
                         l9851 0128                           l9843 0013                           l9907 00DC  
                         l9915 0000                           l9931 00C4                           l9923 003B  
                         l9597 0081                           l9589 0066                           l9669 00B1  
                         l9693 0070                           l9685 0032                           l9677 0000  
                         l9749 0036                           l9781 006F                           l9773 0041  
                         l9765 0013                           l9757 0003                           l9837 00C4  
                         l9829 0038                           l9861 032E                           l9853 0208  
                         l9845 003C                           l9909 0000                           l9933 00CA  
                         l9925 0045                           l9917 0000                           l9941 000A  
                         l9599 0093                           l9695 0071                           l9687 003B  
                         l9679 0015                           l9791 00A2                           l9783 007A  
                         l9775 0049                           l9767 002B                           l9759 0007  
                         l9839 00C7                           l9871 04BA                           l9863 037B  
                         l9855 0247                           l9847 0073                           l9935 00E9  
                         l9927 0056                           l9919 0029                           l9951 0051  
                         l9943 0013                           STR_1 005A                           l9697 0079  
                         l9689 003C                           l9793 00A8                           l9785 008A  
                         l9777 004D                           l9769 0031                           l9881 057C  
                         l9873 04E5                           l9865 03C8                           l9857 0294  
                         l9849 007E                           l9937 0151                           l9929 0057  
                         l9961 0098                           l9953 005C                           l9945 0014  
                         STR_3 005D                           STR_4 0077                           l9699 0081  
                         l9787 0092                           l9779 0067                           l9795 0000  
                         l9883 05BB                           l9891 060C                           l9875 0510  
                         l9867 0415                           l9859 02E1                           l9971 0174  
                         l9963 00C5                           l9947 003F                           l9955 005D  
                         l9939 0000                           STR_5 0060                           STR_6 0066  
                         l9789 0093                           l9797 0025                           l9893 064B  
                         l9877 053B                           l9885 05C0                           l9869 0454  
                         l9981 01F7                           l9973 01B4                           l9965 00C9  
                         l9957 0086                           l9949 0046                           STR_7 006C  
                         STR_8 0052                           l9799 002B                           l9895 0674  
                         l9887 05FF                           l9879 057A                           l9983 0211  
                         l9975 01E8                           l9967 00FD                           l9959 0097  
                         l9991 0000                           STR_9 005D                           l9897 0685  
                         l9889 0605                           l9985 021A                           l9977 01ED  
                         l9969 013C                           l9993 0019                           l9899 0000  
                         l9987 021B                           l9979 01EE                           l9995 0059  
                         l9989 0257                           l9997 0000                           l9999 0003  
                         _BRGH 04C2                           _CREN 00C4                           _T0CS 040D  
                         _T0SE 040C                           u4000 005A                           u4001 005B  
                         u4010 0084                           u4002 0060                           _CCal 0000  
                         u4011 0083                           u4003 0061                           u4015 0080  
                         u5110 0010                           u5111 000C                           u5200 0046  
                         u5201 0042                           u6001 0158                           u5050 000A  
                         u6010 016A                           u6002 015F                           u5051 0009  
                         u6011 0169                           u6003 0166                           u5140 0022  
                         u5124 0013                           u6020 0015                           u6100 0015  
                         u5141 001E                           u6021 0014                           u6101 0014  
                         u5230 0058                           u5214 0049                           u5310 000A  
                         u6030 0032                           u6110 0032                           u5231 0054  
                         u5135 0016                           u5311 0009                           u6031 0031  
                         u6111 0031                           u6040 004F                           u6120 004F  
                         u5225 004C                           u6201 00CD                           u5250 0065  
                         u5170 0034                           u5154 0025                           u5330 0009  
                         u5410 0031                           u6050 0064                           u6202 00D4  
                         u6130 0064                           u5251 0061                           u5171 0030  
                         u5331 0008                           u5411 0030                           u6203 00DB  
                         _PEIE 005E                           u5244 005B                           u5500 0006  
                         u3900 004A                           u6140 008A                           u6300 0091  
                         u5165 0028                           u5325 0022                           u5405 0021  
                         u3901 0049                           u6045 004A                           u6141 0089  
                         u6125 004A                           u6301 0090                           u5430 0046  
                         u5510 000E                           u6070 00A1                           u6230 00F4  
                         u6310 00AF                           u5431 0045                           u5415 002D  
                         u5511 000D                           u6071 00A0                           u6055 005F  
                         u6231 00F3                           u6215 00DD                           u6151 0093  
                         u6135 005F                           u6311 00AE                           u5264 0068  
                         u5184 0037                           u5360 0023                           u5440 0008  
                         u5600 008B                           u3920 0066                           u6152 009A  
                         u6240 0007                           u6320 002B                           u5361 0022  
                         u5345 0010                           u5425 003A                           u5441 0007  
                         u3921 0065                           u6065 0088                           u6225 00E6  
                         u6153 00A1                           u6241 0006                           u6321 002A  
                         u5370 000A                           u5530 002E                           u5610 000A  
                         u3930 006E                           u6090 00C0                           u6250 0007  
                         u6330 0052                           u5195 003A                           u5355 0017  
                         u5371 0009                           u5531 002D                           u5611 0009  
                         u3931 006D                           u3915 0056                           u6091 00BF  
                         u6075 009D                           u6251 0006                           u6331 0051  
                         u5460 001C                           u5700 0059                           u6180 00BA  
                         u6260 000B                           u6340 0073                           u6420 00D2  
                         u6500 01EC                           _RCIF 0065                           u5461 001B  
                         u5525 001F                           u5701 0058                           u6085 00B3  
                         u6181 00B9                           u6165 00A3                           u6261 000A  
                         u6341 0072                           u6421 00D1                           u6405 0005  
                         u5390 001E                           u5470 0028                           u5550 0051  
                         u3950 008A                           u3870 0015                           u5710 0062  
                         u6190 00C4                           u6270 0031                           u6350 00ED  
                         u6430 0028                           u6510 0211                           u5391 001D  
                         u5471 0027                           u5455 000D                           u5551 0050  
                         u3951 0089                           u3871 0014                           u5711 0061  
                         u6191 00C3                           u6175 00AD                           u6271 0030  
                         u6351 00EC                           u6415 0038                           u6511 0210  
                         u3960 0090                           u3880 002D                           u5640 0026  
                         u5720 000A                           u5800 003A                           u6280 006D  
                         u6360 0073                           u6440 0029                           u6520 000B  
                         u6600 01D4                           u5385 000F                           u5545 0043  
                         u3945 007B                           u5641 0025                           u5721 0009  
                         u5801 0039                           u6281 006C                           u6361 0072  
                         u6441 0028                           u6521 000A                           u6601 01D3  
                         u5490 003C                           u5570 0063                           u3890 0043  
                         u3970 0006                           u5810 004C                           u6290 0089  
                         u6370 04E5                           u6450 0045                           u6530 0036  
                         u6610 03C4                           u5491 003B                           u5475 0024  
                         u5571 0062                           u3891 0042                           u3971 0005  
                         u5651 003F                           u6291 0088                           u6371 04E4  
                         u6435 0023                           u6451 0044                           u6515 020D  
                         u6531 0035                           u6611 03C3                           u5580 0067  
                         u3980 0024                           u5660 006F                           u5652 0046  
                         u5740 0034                           u5820 0052                           u6380 0510  
                         u6460 000A                           u6540 0050                           u6620 03EF  
                         u5485 0030                           u5581 0066                           u5565 0057  
                         u3885 0028                           u3981 0025                           u5661 006E  
                         u5653 004D                           u5741 0033                           u5821 0051  
                         u6381 050F                           u6461 0009                           u6541 004F  
                         u6621 03EE                           u5590 007C                           u3990 003C  
                         u3982 002A                           u5670 007A                           u5750 0054  
                         u5910 00CB                           u5830 005E                           u6390 053B  
                         u6470 003F                           u6550 0081                           u6630 041A  
                         u3991 003B                           u3983 002B                           u5671 0079  
                         u5751 0053                           u5735 001A                           u5911 00CA  
                         u5831 005D                           u6391 053A                           u6471 003E  
                         u6551 0080                           u6631 0419                           u5680 001E  
                         u5760 0083                           u5920 00D3                           u5840 006C  
                         u6480 0086                           u6560 00F3                           u6640 009F  
                         u5665 006B                           u5681 001D                           u5761 0082  
                         u5921 00D2                           u5905 00B4                           u5841 006B  
                         u6481 0085                           u6561 00F2                           u6641 009E  
                         u5690 0035                           u5850 0074                           u6490 00C9  
                         u6570 01B7                           _OERR 00C1                           u5595 0077  
                         u5691 0034                           u5755 0050                           u5851 0073  
                         u5940 00E9                           u5860 0092                           u5780 0028  
                         u6580 01A2                           u5941 00E8                           u5861 0091  
                         u6565 00EF                           u6581 01A1                           u5950 00F1  
                         u5790 002E                           u6590 0204                           u5775 00F1  
                         u5951 00F0                           u5935 00D8                           u5791 002D  
                         u6591 0203                           u5880 00A8                           u6657 000F  
                         u5881 00A7                           u5970 010C                           u5890 00B0  
                         u6667 0024                           u5971 010B                           u5891 00AF  
                         u5875 0097                           u5980 0112                           u5981 0111  
                         u5965 00F5                           u5990 0131                           u5991 0130  
                         _TMR0 0001                           _TMR2 0011                           _SPEN 00C7  
                         _TXIE 0464                           _WREN 0C62                           _TXEN 04C5  
                         _TXIF 0064                           _SYNC 04C4                           _bres 0004  
                         _main 0000                           btemp 007E                           exp@x 0026  
                         log@x 001F          __size_of_output_putch 000C                           pow@x 0032  
                         pow@y 0036     __end_of_measure_inductance 068E                           start 0000* 
                        ??_exp 002A                          ??_log 0023                          ??_isr 0000  
                        ??_pow 003A                          l10001 000B                          l10011 0059  
                        l10003 0036                          l10021 0105                          l10013 005A  
                        l10005 0047                          l10101 0195                          l10031 01B7  
                        l10023 010C                          l10015 0081                          l10007 0048  
                        l10111 02FB                          l10103 019B                          l10033 01EB  
                        l10017 00F3                          l10025 0140                          l10009 0050  
                        l10041 00A5                          l10121 0393                          l10113 0346  
                        l10105 01D4                          l10201 0072                          l10027 0159  
                        l10019 0104                          l10051 01BB                          l10043 0189  
                        l10035 0000                          l10131 0459                          l10123 0399  
                        l10115 034C                          l10107 01DF                          l10211 0082  
                        l10203 0075                          l10029 01B3                          l10045 019A  
                        l10037 003B                          l10053 01C4                          l10133 0462  
                        l10125 03C4                          l10141 04F4                          l10117 0369  
                        l10109 0289                          l10061 003C                          l10221 00A5  
                        l10213 008D                          l10205 007A                          l10055 01CD  
                        l10047 01A2                          l10039 0066                          l10135 04A1  
                        l10143 04FD                          l10127 03EF                          l10119 0376  
                        l10071 007E                          l10063 0042                          l10223 00AB  
                        l10215 0093                          l10207 0080                          l10151 0000  
                        l10049 01B1                          l10145 053C                          l10129 041A  
                        l10137 04AB                          l10081 00D8                          l10073 008B  
                        l10065 0048                          l10057 0000                          l10225 00B1  
                        l10217 0099                          l10209 0081                          l10161 002D  
                        l10153 001E                          l10147 0565                          l10139 04EA  
                        l10091 0142                          l10083 00F5                          l10075 00A8  
                        l10067 005B                          l10059 0013                          l10227 00BC  
                        l10219 009F                          l10171 0034                          l10163 002E  
                        l10155 0026                          l10149 0576                          l10093 0148  
                        l10085 00FB                          l10077 00AE                          l10069 0061  
                        l10229 00C2                          l10181 0040                          l10173 003A  
                        l10165 002F                          l10157 002A                          l10095 0165  
                        l10087 0118                          l10079 00CB                          l10191 0051  
                        l10183 0041                          l10175 003D                          l10167 0030  
                        l10159 002C                          l10097 0172                          l10089 0125  
                        l10193 005A                          l10185 0042                          l10177 003E  
                        l10169 0033                          l10099 018F                          l10195 005D  
                        l10187 0045                          l10179 003F                          l10197 0066  
                        l10189 004E                          l10199 0069                  ___fltol@sign1 0019  
              __end_of___fladd 01B0                          ?_main 0000                __end_of___fldiv 00E2  
              __end_of___flneg 000F                          _EEADR 010D                          STR_10 0072  
                        STR_11 005D                __end_of___flmul 0116                          _CARRY 0018  
              __end_of___flsub 0051                __end_of___fltol 009C                          _CMCON 009C  
              __end_of___lwdiv 0050                __end_of___lwmod 0046                          _RCREG 001A  
                        _SPBRG 0099                          _TRISA 0085                          _TRISC 0087  
                        _SSPEN 00A5                          _TXREG 0019                  ___awtofl@sign 0021  
                        _nRBPU 040F                          _log10 0000                          _blink 0000  
                        _floor 0000                          _ldexp 0000                          _frexp 0000  
                 _output_putch 0000                          _errno 0024                          _msecs 0018  
                        fpbase 0005                          pclath 000A                          pow@yi 0040  
              format_number@di 0032                          status 0003                          wtemp0 007E  
              ??_print_reading 0002             _format_number$3434 002F                    ldexp@newexp 0007  
              format_putchar@c 0004                   __end_of_main 00D1               format_double@num 0044  
                ?_measure_freq 0000         __size_of_format_double 0206                         ??_main 004A  
          format_double@weight 0008         __size_of_format_number 00B1         __size_of_format_xint32 0054  
                       ?_log10 0026                         ?_floor 0003                         ?_ldexp 0003  
                       ?_frexp 0000               __end_of___altofl 0037                         _EEDATA 010C  
             __end_of___flpack 008D                         _EECON1 018C                         _EECON2 018D  
             __end_of___awtofl 0030               __end_of___lltofl 0020                         i1l3260 007C  
                       i1l3261 0078                         i1l3262 0051                         i1l3263 0077  
                       i1l3264 009C                         i1l3265 009B                         i1l3266 00C3  
                       i1l3267 00C0                         i1l3268 00C3                         i1l7921 004B  
                       i1l7931 0088                         i1l7923 0062                         i1l7915 0000  
                       i1l7941 00A7                         i1l7933 0090                         i1l7925 0078  
                       i1l7917 0004                         i1l7943 00AF                         i1l7935 0096  
                       i1l7919 0015                         i1l7927 007C                         i1l7945 00B3  
                       i1l7929 0080                         i1l7937 009C                         i1l7947 00B7  
                       i1l7939 00A1                         i1l7949 00BD                         u350_20 0096  
                       u350_21 0095                         u351_20 00A1                         u343_20 0004  
                       u351_21 00A0                         u343_21 0003                         u352_20 00A7  
                       u344_20 0015                         u352_21 00A6                         u344_21 0014  
                       u353_20 00BD                         u345_20 003D                         u353_21 00BC  
                       u345_21 0039               __end_of___lwtofl 001E                         u346_24 0040  
                       u347_20 004B                         u347_21 004A                         u348_20 0062  
                       u348_21 0061                         u349_20 0080                         u349_21 007F  
                       _TMR0IF 005A                         _TMR2IE 0461                         _TMR2IF 0061  
                       _TMR2ON 0092             entry__output_putch 0006                         _TRISC0 0438  
                       _TRISC1 0439                         _TRISC2 043A                         _TRISC3 043B  
                       _TRISC4 043C                         _TRISC5 043D                         _TRISC6 043E  
                       ___flge 0000                      ??___fladd 004B                         ___wmul 0000  
                    ??___fldiv 0023                      ??___flneg 000E                      ??___flmul 0037  
                    ??___flsub 0050                      ??___fltol 0014                 ??_measure_freq 0002  
                    ??___lwdiv 0004                   ?_timer2_init 0000                      ??___lwmod 0004  
                       log10@x 0026                         _rxfifo 0000                         clrloop 0001  
                       _txfifo 0000                         _rxiptr 0000                         _rxoptr 0001  
                       floor@i 0008                         _txiptr 0002                         floor@x 0003  
                       exp@exp 002F                         log@exp 0024                         _txoptr 0003  
                       fptable 0000               __end_of_ser_init 0025                   __pdataCOMMON 0000  
                       fptotal 0006               __end_of_ser_puts 0028             timer2_init@ps_mode 0001  
                       saved_w 007E               format_number@buf 000F               format_number@pad 000B  
      _measure_inductance$5210 0014        _measure_inductance$5211 0018        _measure_inductance$5206 001D  
      _measure_inductance$5207 0021        _measure_inductance$5208 000C        _measure_inductance$5209 0010  
                   ___fladd@f1 0043                     ___fladd@f2 0047                     ___flge@ff1 0000  
                   ___flge@ff2 0004                  _format_double 0000                     ___altofl@c 001B  
                   ___fldiv@f1 001F                     ___fldiv@f2 001B                     ___fldiv@f3 0028  
                   ___flneg@f1 000A                  _format_number 0000                  _format_xint32 0000  
                   ___flmul@f1 002F                     ___flmul@f2 0033                   eval_poly@res 001B  
                   ___flsub@f1 0007                     ___flsub@f2 0003                     ___fltol@f1 0010  
                   ___awtofl@c 001B         measure_capacitance@Cin 001B   __size_of_measure_capacitance 057F  
       measure_capacitance@var 0019                 __pcstackCOMMON 0000             __size_of_calibrate 00CE  
                 __pidataBANK1 0000                     ___lltofl@c 000A             __size_of_delay10ms 007C  
                __end_of_log10 005A                  __end_of_floor 013A                  __end_of_ldexp 0109  
                __end_of_frexp 004F                     ___lwtofl@c 000C                        ??_log10 0050  
                      ??_floor 0007                        ??_ldexp 0009                        ??_frexp 0005  
                   _log10$5212 002A                     __pbssBANK1 0000                 ?_format_double 0044  
                   __pbssBANK2 0000                     __pbssBANK3 0000             __size_of_eval_poly 00DD  
           __size_of_indicator 0001        __size_of_format_putchar 0001              fp__format_putchar 000C  
               ?_format_number 0008                 ?_format_xint32 0034                     __pmaintext 0000  
                      ?___flge 0000                        ?___wmul 0000                     __pintentry 0000  
                    ?___altofl 001B                     __ptext1440 0000                     __ptext1441 0000  
                   __ptext1450 0000                     __ptext1442 0000                     __ptext1451 0000  
                   __ptext1443 0000                     __ptext1460 0000                     __ptext1452 0000  
                   __ptext1444 0000                     __ptext1461 0000                     __ptext1453 0000  
                   __ptext1445 0000                     __ptext1470 0000                     __ptext1462 0000  
                   __ptext1454 0000                     __ptext1446 0000                     __ptext1438 0000  
                   __ptext1471 0000                     __ptext1463 0000                     __ptext1455 0000  
                   __ptext1447 0000                     __ptext1439 0000                     __ptext1472 0000  
                   __ptext1464 0000                     __ptext1456 0000                     __ptext1448 0000  
                   __ptext1473 0000                     __ptext1465 0000                     __ptext1457 0000  
                   __ptext1449 0000                     __ptext1474 0000                     __ptext1466 0000  
                   __ptext1458 0000                     __ptext1475 0000                     __ptext1467 0000  
                   __ptext1459 0000                     __ptext1476 0000                     __ptext1468 0000  
                   __ptext1477 0000                     __ptext1469 0000                     __ptext1478 0000  
                    ?___flpack 0000                      ?___awtofl 001B                      ?___lltofl 000A  
           _measure_inductance 0000             __size_of_ser_putch 0020                        _T2CKPS0 0090  
                      _T2CKPS1 0091                      ?___lwtofl 000C            ?_measure_inductance 0000  
              entry__ser_putch 0009                     _ldexp$4680 000B              __end_of_calibrate 00CE  
                      _TOUTPS0 0093                        _TOUTPS1 0094                        _TOUTPS2 0095  
            __end_of_delay10ms 007C           __end_of_measure_freq 0089                      ?_ser_init 0000  
         ??_measure_inductance 0003                      ?_ser_puts 0000                __size_of___flge 008A  
                      ___fladd 0000                        ___fldiv 0000                        ___flneg 0000  
                      ___flmul 0000                        ___flsub 0000                        ___fltol 0000  
              __size_of___wmul 002C                        ___lwdiv 0000                        ___lwmod 0000  
                   ??___altofl 001F                     ??___flpack 0006                     ??___awtofl 001F  
            __end_of_eval_poly 00DD              __end_of_indicator 0001                     ??___lltofl 000E  
         __size_of_timer2_init 0069                     ??___lwtofl 0010                   __size_of_exp 0259  
                 __size_of_log 0152                   __size_of_isr 00CF                   __size_of_pow 01ED  
                      _seconds 001C                        _ser_brg 0000                        _ser_tmp 0002  
              ??_format_double 0048           end_of_initialization 0027                ??_format_number 000C  
              ??_format_xint32 0038                        exp@sign 0031              __end_of_ser_putch 0020  
                      pow@sign 003F  measure_inductance@denominator 0008          __end_of_print_reading 0001  
                   ??_ser_init 0000                     ??_ser_puts 0002                 testloop@prev_s 0026  
            format_number@base 000A                     _print_unit 0000            _measure_capacitance 0000  
                  ___fldiv@exp 002D                 _format_putchar 0000                    ___flmul@exp 003C  
         ?_measure_capacitance 0000        measure_capacitance@unit 0018                 format_double@m 000E  
       measure_inductance@unit 001C                 __end_of___flge 008A                 __end_of___wmul 002C  
                __pidataCOMMON 0000                     floor@expon 000C                fp__output_putch 0006  
                  testloop@led 0003                 format_number@i 0033                 format_number@n 0008  
               format_xint32@x 0034            start_initialization 0000                     eval_poly@d 0013  
                   eval_poly@n 0014                     eval_poly@x 000F          __size_of_measure_freq 0089  
                   ldexp@value 0003                    __end_of_exp 0259                    __end_of_log 0152  
                  __end_of_isr 00CF                    __end_of_pow 01ED         __end_of_format_putchar 0001  
           format_double@digit 000C                     frexp@value 0000          ??_measure_capacitance 0049  
                     ??___flge 0008                       ??___wmul 0004                    __pdataBANK1 0000  
                 _measure_freq 0000                   delay10ms@run 0010       print_reading@measurement 0000  
            __size_of___altofl 0037              __size_of___flpack 008D              __size_of___awtofl 0030  
                  ?_print_unit 0000              __size_of___lltofl 0020                    __pbssCOMMON 0000  
            __size_of___lwtofl 001E                  __pcstackBANK0 0000                  __pcstackBANK1 0000  
                __pcstackBANK3 0000                  ?_output_putch 0004                ?_format_putchar 0004  
            measure_freq@count 000A                      _calibrate 0000                      _delay10ms 0000  
                    __pnvBANK3 0000               ___lwdiv@dividend 0002                      __pfunctab 0000  
                     ?___fladd 0043                       ?___fldiv 001B                       ?___flneg 000A  
                     ?___flmul 002F                       ?___flsub 0003                       ?___fltol 0010  
            __size_of_ser_init 0025                       ?___lwdiv 0000                       ?___lwmod 0000  
            __size_of_ser_puts 0028                      __pstrings 0000                      _eval_poly 0000  
                output_putch@c 0004                      _indicator 0000                 ??_output_putch 0005  
             ___lwdiv@quotient 0006                 __size_of_log10 005A                 __size_of_floor 013A  
               __size_of_ldexp 0109                 __size_of_frexp 004F              interrupt_function 0000  
                   ?_calibrate 0000                 ___wmul@product 0004                     ser_putch@c 0004  
                   ?_delay10ms 0006                  measure_freq@i 0009            __size_of_print_unit 0001  
                    _ser_putch 0000    __size_of_measure_inductance 068E                  ??_timer2_init 0000  
                  __stringbase 0005              ___wmul@multiplier 0000                     ?_eval_poly 000F  
                   ?_indicator 0000          measure_inductance@Lin 0027          measure_inductance@var 0025  
        __end_of_format_double 0206           format_number@padchar 0031          __end_of_format_number 00B1  
        __end_of_format_xint32 0054                      frexp@eptr 0004                     ?_ser_putch 0004  
                  delay10ms@ms 000C               __size_of___fladd 01B0               __size_of___fldiv 00E2  
             __size_of___flneg 000F               __size_of___flmul 0116               __size_of___flsub 0051  
             __size_of___fltol 009C                       ___altofl 0000                       ___flpack 0000  
             __size_of___lwdiv 0050               __size_of___lwmod 0046                       ___awtofl 0000  
                     ___lltofl 0000                  timer2_init@ps 0002                       ___lwtofl 0000  
             measure_freq@prev 0008            __end_of_timer2_init 0069                       _exp$4864 002B  
              ___lwdiv@divisor 0000                ___lwdiv@counter 0005         __size_of_print_reading 0001  
                     _pow$5213 003B                    ??_calibrate 0011                  __size_of_main 00D1  
                  ??_delay10ms 0008                      ser_puts@s 0003                       _msecpart 0006  
                     clear_ram 0000          timer2_init@postscaler 0003                       _ser_init 0000  
                     _ser_puts 0000                       _timer1of 0020           __end_of_output_putch 000C  
                     exp@coeff 0006          ___flmul@f3_as_product 003D                       log@coeff 002E  
  measure_inductance@numerator 0004               ??_format_putchar 0003                   ??_print_unit 0000  
                  ??_eval_poly 0016                    ??_indicator 0000                       intlevel1 0000* 
  __end_of_measure_capacitance 057F               ___lwmod@dividend 0002                      stringcode 0000  
                  ??_ser_putch 0001             __end_of_print_unit 0001                  _print_reading 0000  
         delay10ms@period_10ms 0006                    _timer2_init 0000             _format_double$5203 0000  
           _format_double$3447 0004       _measure_capacitance$5204 0010       _measure_capacitance$5205 0014  
              ___lwmod@divisor 0000                ___lwmod@counter 0005                       stringdir 0000  
                     stringtab 0000                   ___fladd@exp1 0002                   ___fladd@exp2 0001  
                 ___fladd@sign 0000                 ?_print_reading 0000  
