gpasm-1.5.0 #1285 (Jul 12 2020) obj/sdcc-18f2   11/12/23  13:12:35          PAGE  1


LOC    OBJECT CODE    LINE  SOURCE TEXT
  VALUE

                      00001 ;--------------------------------------------------------
                      00002 ; File Created by SDCC : free open source ANSI-C Compiler
                      00003 ; Version 4.2.0 #13081 (Linux)
                      00004 ;--------------------------------------------------------
                      00005 ; PIC16 port for the Microchip 16-bit core micros
                      00006 ;--------------------------------------------------------
                      00007 
                      00008         .ident "SDCC version 4.2.0 #13081 [pic16 port]"
                      00009         .file   "lib/format.c"
                      00010         list    p=18f25k22
                      00011         radix   dec
                      00012 
                      00013 
                      00014 ;--------------------------------------------------------
                      00015 ; public variables in this module
                      00016 ;--------------------------------------------------------
  0000                00017         global  _format_number
  0000                00018         global  _format_xint32
  0000                00019         global  _format_float
  0000                00020         global  _format_double
                      00021 
                      00022 ;--------------------------------------------------------
                      00023 ; extern variables in this module
                      00024 ;--------------------------------------------------------
  0000                00025         extern  _ANSELAbits
  0000                00026         extern  _ANSELBbits
  0000                00027         extern  _ANSELCbits
  0000                00028         extern  _PMD2bits
  0000                00029         extern  _PMD1bits
  0000                00030         extern  _PMD0bits
  0000                00031         extern  _DACCON1bits
  0000                00032         extern  _VREFCON2bits
  0000                00033         extern  _DACCON0bits
  0000                00034         extern  _VREFCON1bits
  0000                00035         extern  _FVRCONbits
  0000                00036         extern  _VREFCON0bits
  0000                00037         extern  _CTMUICONbits
  0000                00038         extern  _CTMUICONHbits
  0000                00039         extern  _CTMUCON1bits
  0000                00040         extern  _CTMUCONLbits
  0000                00041         extern  _CTMUCON0bits
  0000                00042         extern  _CTMUCONHbits
  0000                00043         extern  _SRCON1bits
  0000                00044         extern  _SRCON0bits
  0000                00045         extern  _CCPTMRS1bits
  0000                00046         extern  _CCPTMRS0bits
  0000                00047         extern  _T6CONbits
  0000                00048         extern  _T5GCONbits
  0000                00049         extern  _T5CONbits
  0000                00050         extern  _T4CONbits
  0000                00051         extern  _CCP5CONbits
  0000                00052         extern  _CCP4CONbits
  0000                00053         extern  _PSTR3CONbits
gpasm-1.5.0 #1285 (Jul 12 2020) obj/sdcc-18f2   11/12/23  13:12:35          PAGE  2


LOC    OBJECT CODE    LINE  SOURCE TEXT
  VALUE

  0000                00054         extern  _CCP3ASbits
  0000                00055         extern  _ECCP3ASbits
  0000                00056         extern  _PWM3CONbits
  0000                00057         extern  _CCP3CONbits
  0000                00058         extern  _SLRCONbits
  0000                00059         extern  _WPUBbits
  0000                00060         extern  _IOCBbits
  0000                00061         extern  _PSTR2CONbits
  0000                00062         extern  _CCP2ASbits
  0000                00063         extern  _ECCP2ASbits
  0000                00064         extern  _PWM2CONbits
  0000                00065         extern  _CCP2CONbits
  0000                00066         extern  _SSP2CON3bits
  0000                00067         extern  _SSP2MSKbits
  0000                00068         extern  _SSP2CON2bits
  0000                00069         extern  _SSP2CON1bits
  0000                00070         extern  _SSP2STATbits
  0000                00071         extern  _BAUD2CONbits
  0000                00072         extern  _BAUDCON2bits
  0000                00073         extern  _RC2STAbits
  0000                00074         extern  _RCSTA2bits
  0000                00075         extern  _TX2STAbits
  0000                00076         extern  _TXSTA2bits
  0000                00077         extern  _CM12CONbits
  0000                00078         extern  _CM2CON1bits
  0000                00079         extern  _CM2CONbits
  0000                00080         extern  _CM2CON0bits
  0000                00081         extern  _CM1CONbits
  0000                00082         extern  _CM1CON0bits
  0000                00083         extern  _PIE4bits
  0000                00084         extern  _PIR4bits
  0000                00085         extern  _IPR4bits
  0000                00086         extern  _PIE5bits
  0000                00087         extern  _PIR5bits
  0000                00088         extern  _IPR5bits
  0000                00089         extern  _PORTAbits
  0000                00090         extern  _PORTBbits
  0000                00091         extern  _PORTCbits
  0000                00092         extern  _PORTEbits
  0000                00093         extern  _LATAbits
  0000                00094         extern  _LATBbits
  0000                00095         extern  _LATCbits
  0000                00096         extern  _DDRAbits
  0000                00097         extern  _TRISAbits
  0000                00098         extern  _DDRBbits
  0000                00099         extern  _TRISBbits
  0000                00100         extern  _DDRCbits
  0000                00101         extern  _TRISCbits
  0000                00102         extern  _TRISEbits
  0000                00103         extern  _OSCTUNEbits
  0000                00104         extern  _HLVDCONbits
  0000                00105         extern  _LVDCONbits
  0000                00106         extern  _PIE1bits
gpasm-1.5.0 #1285 (Jul 12 2020) obj/sdcc-18f2   11/12/23  13:12:35          PAGE  3


LOC    OBJECT CODE    LINE  SOURCE TEXT
  VALUE

  0000                00107         extern  _PIR1bits
  0000                00108         extern  _IPR1bits
  0000                00109         extern  _PIE2bits
  0000                00110         extern  _PIR2bits
  0000                00111         extern  _IPR2bits
  0000                00112         extern  _PIE3bits
  0000                00113         extern  _PIR3bits
  0000                00114         extern  _IPR3bits
  0000                00115         extern  _EECON1bits
  0000                00116         extern  _EEADRbits
  0000                00117         extern  _RC1STAbits
  0000                00118         extern  _RCSTAbits
  0000                00119         extern  _RCSTA1bits
  0000                00120         extern  _TX1STAbits
  0000                00121         extern  _TXSTAbits
  0000                00122         extern  _TXSTA1bits
  0000                00123         extern  _T3CONbits
  0000                00124         extern  _T3GCONbits
  0000                00125         extern  _ECCP1ASbits
  0000                00126         extern  _ECCPASbits
  0000                00127         extern  _PWM1CONbits
  0000                00128         extern  _PWMCONbits
  0000                00129         extern  _BAUD1CONbits
  0000                00130         extern  _BAUDCONbits
  0000                00131         extern  _BAUDCON1bits
  0000                00132         extern  _BAUDCTLbits
  0000                00133         extern  _PSTR1CONbits
  0000                00134         extern  _PSTRCONbits
  0000                00135         extern  _T2CONbits
  0000                00136         extern  _CCP1CONbits
  0000                00137         extern  _ADCON2bits
  0000                00138         extern  _ADCON1bits
  0000                00139         extern  _ADCON0bits
  0000                00140         extern  _SSP1CON2bits
  0000                00141         extern  _SSPCON2bits
  0000                00142         extern  _SSP1CON1bits
  0000                00143         extern  _SSPCON1bits
  0000                00144         extern  _SSP1STATbits
  0000                00145         extern  _SSPSTATbits
  0000                00146         extern  _SSP1MSKbits
  0000                00147         extern  _SSPMSKbits
  0000                00148         extern  _SSP1CON3bits
  0000                00149         extern  _SSPCON3bits
  0000                00150         extern  _T1GCONbits
  0000                00151         extern  _T1CONbits
  0000                00152         extern  _RCONbits
  0000                00153         extern  _WDTCONbits
  0000                00154         extern  _OSCCON2bits
  0000                00155         extern  _OSCCONbits
  0000                00156         extern  _T0CONbits
  0000                00157         extern  _STATUSbits
  0000                00158         extern  _INTCON3bits
  0000                00159         extern  _INTCON2bits
gpasm-1.5.0 #1285 (Jul 12 2020) obj/sdcc-18f2   11/12/23  13:12:35          PAGE  4


LOC    OBJECT CODE    LINE  SOURCE TEXT
  VALUE

  0000                00160         extern  _INTCONbits
  0000                00161         extern  _STKPTRbits
  0000                00162         extern  _buffer
  0000                00163         extern  _ANSELA
  0000                00164         extern  _ANSELB
  0000                00165         extern  _ANSELC
  0000                00166         extern  _PMD2
  0000                00167         extern  _PMD1
  0000                00168         extern  _PMD0
  0000                00169         extern  _DACCON1
  0000                00170         extern  _VREFCON2
  0000                00171         extern  _DACCON0
  0000                00172         extern  _VREFCON1
  0000                00173         extern  _FVRCON
  0000                00174         extern  _VREFCON0
  0000                00175         extern  _CTMUICON
  0000                00176         extern  _CTMUICONH
  0000                00177         extern  _CTMUCON1
  0000                00178         extern  _CTMUCONL
  0000                00179         extern  _CTMUCON0
  0000                00180         extern  _CTMUCONH
  0000                00181         extern  _SRCON1
  0000                00182         extern  _SRCON0
  0000                00183         extern  _CCPTMRS1
  0000                00184         extern  _CCPTMRS0
  0000                00185         extern  _T6CON
  0000                00186         extern  _PR6
  0000                00187         extern  _TMR6
  0000                00188         extern  _T5GCON
  0000                00189         extern  _T5CON
  0000                00190         extern  _TMR5
  0000                00191         extern  _TMR5L
  0000                00192         extern  _TMR5H
  0000                00193         extern  _T4CON
  0000                00194         extern  _PR4
  0000                00195         extern  _TMR4
  0000                00196         extern  _CCP5CON
  0000                00197         extern  _CCPR5
  0000                00198         extern  _CCPR5L
  0000                00199         extern  _CCPR5H
  0000                00200         extern  _CCP4CON
  0000                00201         extern  _CCPR4
  0000                00202         extern  _CCPR4L
  0000                00203         extern  _CCPR4H
  0000                00204         extern  _PSTR3CON
  0000                00205         extern  _CCP3AS
  0000                00206         extern  _ECCP3AS
  0000                00207         extern  _PWM3CON
  0000                00208         extern  _CCP3CON
  0000                00209         extern  _CCPR3
  0000                00210         extern  _CCPR3L
  0000                00211         extern  _CCPR3H
  0000                00212         extern  _SLRCON
gpasm-1.5.0 #1285 (Jul 12 2020) obj/sdcc-18f2   11/12/23  13:12:35          PAGE  5


LOC    OBJECT CODE    LINE  SOURCE TEXT
  VALUE

  0000                00213         extern  _WPUB
  0000                00214         extern  _IOCB
  0000                00215         extern  _PSTR2CON
  0000                00216         extern  _CCP2AS
  0000                00217         extern  _ECCP2AS
  0000                00218         extern  _PWM2CON
  0000                00219         extern  _CCP2CON
  0000                00220         extern  _CCPR2
  0000                00221         extern  _CCPR2L
  0000                00222         extern  _CCPR2H
  0000                00223         extern  _SSP2CON3
  0000                00224         extern  _SSP2MSK
  0000                00225         extern  _SSP2CON2
  0000                00226         extern  _SSP2CON1
  0000                00227         extern  _SSP2STAT
  0000                00228         extern  _SSP2ADD
  0000                00229         extern  _SSP2BUF
  0000                00230         extern  _BAUD2CON
  0000                00231         extern  _BAUDCON2
  0000                00232         extern  _RC2STA
  0000                00233         extern  _RCSTA2
  0000                00234         extern  _TX2STA
  0000                00235         extern  _TXSTA2
  0000                00236         extern  _TX2REG
  0000                00237         extern  _TXREG2
  0000                00238         extern  _RC2REG
  0000                00239         extern  _RCREG2
  0000                00240         extern  _SP2BRG
  0000                00241         extern  _SPBRG2
  0000                00242         extern  _SP2BRGH
  0000                00243         extern  _SPBRGH2
  0000                00244         extern  _CM12CON
  0000                00245         extern  _CM2CON1
  0000                00246         extern  _CM2CON
  0000                00247         extern  _CM2CON0
  0000                00248         extern  _CM1CON
  0000                00249         extern  _CM1CON0
  0000                00250         extern  _PIE4
  0000                00251         extern  _PIR4
  0000                00252         extern  _IPR4
  0000                00253         extern  _PIE5
  0000                00254         extern  _PIR5
  0000                00255         extern  _IPR5
  0000                00256         extern  _PORTA
  0000                00257         extern  _PORTB
  0000                00258         extern  _PORTC
  0000                00259         extern  _PORTE
  0000                00260         extern  _LATA
  0000                00261         extern  _LATB
  0000                00262         extern  _LATC
  0000                00263         extern  _DDRA
  0000                00264         extern  _TRISA
  0000                00265         extern  _DDRB
gpasm-1.5.0 #1285 (Jul 12 2020) obj/sdcc-18f2   11/12/23  13:12:35          PAGE  6


LOC    OBJECT CODE    LINE  SOURCE TEXT
  VALUE

  0000                00266         extern  _TRISB
  0000                00267         extern  _DDRC
  0000                00268         extern  _TRISC
  0000                00269         extern  _TRISE
  0000                00270         extern  _OSCTUNE
  0000                00271         extern  _HLVDCON
  0000                00272         extern  _LVDCON
  0000                00273         extern  _PIE1
  0000                00274         extern  _PIR1
  0000                00275         extern  _IPR1
  0000                00276         extern  _PIE2
  0000                00277         extern  _PIR2
  0000                00278         extern  _IPR2
  0000                00279         extern  _PIE3
  0000                00280         extern  _PIR3
  0000                00281         extern  _IPR3
  0000                00282         extern  _EECON1
  0000                00283         extern  _EECON2
  0000                00284         extern  _EEDATA
  0000                00285         extern  _EEADR
  0000                00286         extern  _RC1STA
  0000                00287         extern  _RCSTA
  0000                00288         extern  _RCSTA1
  0000                00289         extern  _TX1STA
  0000                00290         extern  _TXSTA
  0000                00291         extern  _TXSTA1
  0000                00292         extern  _TX1REG
  0000                00293         extern  _TXREG
  0000                00294         extern  _TXREG1
  0000                00295         extern  _RC1REG
  0000                00296         extern  _RCREG
  0000                00297         extern  _RCREG1
  0000                00298         extern  _SP1BRG
  0000                00299         extern  _SPBRG
  0000                00300         extern  _SPBRG1
  0000                00301         extern  _SP1BRGH
  0000                00302         extern  _SPBRGH
  0000                00303         extern  _SPBRGH1
  0000                00304         extern  _T3CON
  0000                00305         extern  _TMR3
  0000                00306         extern  _TMR3L
  0000                00307         extern  _TMR3H
  0000                00308         extern  _T3GCON
  0000                00309         extern  _ECCP1AS
  0000                00310         extern  _ECCPAS
  0000                00311         extern  _PWM1CON
  0000                00312         extern  _PWMCON
  0000                00313         extern  _BAUD1CON
  0000                00314         extern  _BAUDCON
  0000                00315         extern  _BAUDCON1
  0000                00316         extern  _BAUDCTL
  0000                00317         extern  _PSTR1CON
  0000                00318         extern  _PSTRCON
gpasm-1.5.0 #1285 (Jul 12 2020) obj/sdcc-18f2   11/12/23  13:12:35          PAGE  7


LOC    OBJECT CODE    LINE  SOURCE TEXT
  VALUE

  0000                00319         extern  _T2CON
  0000                00320         extern  _PR2
  0000                00321         extern  _TMR2
  0000                00322         extern  _CCP1CON
  0000                00323         extern  _CCPR1
  0000                00324         extern  _CCPR1L
  0000                00325         extern  _CCPR1H
  0000                00326         extern  _ADCON2
  0000                00327         extern  _ADCON1
  0000                00328         extern  _ADCON0
  0000                00329         extern  _ADRES
  0000                00330         extern  _ADRESL
  0000                00331         extern  _ADRESH
  0000                00332         extern  _SSP1CON2
  0000                00333         extern  _SSPCON2
  0000                00334         extern  _SSP1CON1
  0000                00335         extern  _SSPCON1
  0000                00336         extern  _SSP1STAT
  0000                00337         extern  _SSPSTAT
  0000                00338         extern  _SSP1ADD
  0000                00339         extern  _SSPADD
  0000                00340         extern  _SSP1BUF
  0000                00341         extern  _SSPBUF
  0000                00342         extern  _SSP1MSK
  0000                00343         extern  _SSPMSK
  0000                00344         extern  _SSP1CON3
  0000                00345         extern  _SSPCON3
  0000                00346         extern  _T1GCON
  0000                00347         extern  _T1CON
  0000                00348         extern  _TMR1
  0000                00349         extern  _TMR1L
  0000                00350         extern  _TMR1H
  0000                00351         extern  _RCON
  0000                00352         extern  _WDTCON
  0000                00353         extern  _OSCCON2
  0000                00354         extern  _OSCCON
  0000                00355         extern  _T0CON
  0000                00356         extern  _TMR0
  0000                00357         extern  _TMR0L
  0000                00358         extern  _TMR0H
  0000                00359         extern  _STATUS
  0000                00360         extern  _FSR2L
  0000                00361         extern  _FSR2H
  0000                00362         extern  _PLUSW2
  0000                00363         extern  _PREINC2
  0000                00364         extern  _POSTDEC2
  0000                00365         extern  _POSTINC2
  0000                00366         extern  _INDF2
  0000                00367         extern  _BSR
  0000                00368         extern  _FSR1L
  0000                00369         extern  _FSR1H
  0000                00370         extern  _PLUSW1
  0000                00371         extern  _PREINC1
gpasm-1.5.0 #1285 (Jul 12 2020) obj/sdcc-18f2   11/12/23  13:12:35          PAGE  8


LOC    OBJECT CODE    LINE  SOURCE TEXT
  VALUE

  0000                00372         extern  _POSTDEC1
  0000                00373         extern  _POSTINC1
  0000                00374         extern  _INDF1
  0000                00375         extern  _WREG
  0000                00376         extern  _FSR0L
  0000                00377         extern  _FSR0H
  0000                00378         extern  _PLUSW0
  0000                00379         extern  _PREINC0
  0000                00380         extern  _POSTDEC0
  0000                00381         extern  _POSTINC0
  0000                00382         extern  _INDF0
  0000                00383         extern  _INTCON3
  0000                00384         extern  _INTCON2
  0000                00385         extern  _INTCON
  0000                00386         extern  _PROD
  0000                00387         extern  _PRODL
  0000                00388         extern  _PRODH
  0000                00389         extern  _TABLAT
  0000                00390         extern  _TBLPTR
  0000                00391         extern  _TBLPTRL
  0000                00392         extern  _TBLPTRH
  0000                00393         extern  _TBLPTRU
  0000                00394         extern  _PC
  0000                00395         extern  _PCL
  0000                00396         extern  _PCLATH
  0000                00397         extern  _PCLATU
  0000                00398         extern  _STKPTR
  0000                00399         extern  _TOS
  0000                00400         extern  _TOSL
  0000                00401         extern  _TOSH
  0000                00402         extern  _TOSU
  0000                00403         extern  _buffer_putch
  0000                00404         extern  _log10f
  0000                00405         extern  _floorf
  0000                00406         extern  _powf
  0000                00407         extern  __moduint
  0000                00408         extern  __divuint
  0000                00409         extern  ___fs2sint
  0000                00410         extern  ___fslt
  0000                00411         extern  ___sint2fs
  0000                00412         extern  ___fsdiv
  0000                00413         extern  ___fs2uchar
  0000                00414         extern  ___uchar2fs
  0000                00415         extern  ___fsmul
  0000                00416         extern  ___fssub
                      00417 
                      00418 ;--------------------------------------------------------
                      00419 ;       Equates to used internal registers
                      00420 ;--------------------------------------------------------
  00000FD8            00421 STATUS  equ     0xfd8
  00000FF9            00422 PCL     equ     0xff9
  00000FFA            00423 PCLATH  equ     0xffa
  00000FFB            00424 PCLATU  equ     0xffb
gpasm-1.5.0 #1285 (Jul 12 2020) obj/sdcc-18f2   11/12/23  13:12:35          PAGE  9


LOC    OBJECT CODE    LINE  SOURCE TEXT
  VALUE

  00000FF2            00425 INTCON  equ     0xff2
  00000FFD            00426 TOSL    equ     0xffd
  00000FFE            00427 TOSH    equ     0xffe
  00000FFF            00428 TOSU    equ     0xfff
  00000FE9            00429 FSR0L   equ     0xfe9
  00000FEA            00430 FSR0H   equ     0xfea
  00000FE1            00431 FSR1L   equ     0xfe1
  00000FD9            00432 FSR2L   equ     0xfd9
  00000FEF            00433 INDF0   equ     0xfef
  00000FE6            00434 POSTINC1        equ     0xfe6
  00000FE5            00435 POSTDEC1        equ     0xfe5
  00000FE4            00436 PREINC1 equ     0xfe4
  00000FDB            00437 PLUSW2  equ     0xfdb
  00000FF3            00438 PRODL   equ     0xff3
  00000FF4            00439 PRODH   equ     0xff4
                      00440 
                      00441 
                      00442 ; Internal registers
                      00443 .registers      udata_ovr       0x0000
000000                00444 r0x00   res     1
000001                00445 r0x01   res     1
000002                00446 r0x02   res     1
000003                00447 r0x03   res     1
000004                00448 r0x04   res     1
000005                00449 r0x05   res     1
000006                00450 r0x06   res     1
000007                00451 r0x07   res     1
000008                00452 r0x08   res     1
000009                00453 r0x09   res     1
00000A                00454 r0x0a   res     1
00000B                00455 r0x0b   res     1
00000C                00456 r0x0c   res     1
00000D                00457 r0x0d   res     1
00000E                00458 r0x0e   res     1
00000F                00459 r0x0f   res     1
000010                00460 r0x10   res     1
000011                00461 r0x11   res     1
000012                00462 r0x12   res     1
                      00463 
                      00464 udata_format_0  udata
000000                00465 _format_number_buf_65536_39     res     32
                      00466 
                      00467 ;--------------------------------------------------------
                      00468 ; global & static initialisations
                      00469 ;--------------------------------------------------------
                      00470 ; I code from now on!
                      00471 ; ; Starting pCode block
                      00472 S_format__format_double code
000000                00473 _format_double:
                      00474         .line   87; lib/format.c        format_double(putch_t fn, double num) {
000000 CFD9 FFE5      00475         MOVFF   FSR2L, POSTDEC1
000004 CFE1 FFD9      00476         MOVFF   FSR1L, FSR2L
000008 C??? F???      00477         MOVFF   r0x00, POSTDEC1
gpasm-1.5.0 #1285 (Jul 12 2020) obj/sdcc-18f2   11/12/23  13:12:35          PAGE 10


LOC    OBJECT CODE    LINE  SOURCE TEXT
  VALUE

00000C C??? F???      00478         MOVFF   r0x01, POSTDEC1
000010 C??? F???      00479         MOVFF   r0x02, POSTDEC1
000014 C??? F???      00480         MOVFF   r0x03, POSTDEC1
000018 C??? F???      00481         MOVFF   r0x04, POSTDEC1
00001C C??? F???      00482         MOVFF   r0x05, POSTDEC1
000020 C??? F???      00483         MOVFF   r0x06, POSTDEC1
000024 C??? F???      00484         MOVFF   r0x07, POSTDEC1
000028 C??? F???      00485         MOVFF   r0x08, POSTDEC1
00002C C??? F???      00486         MOVFF   r0x09, POSTDEC1
000030 C??? F???      00487         MOVFF   r0x0a, POSTDEC1
000034 C??? F???      00488         MOVFF   r0x0b, POSTDEC1
000038 C??? F???      00489         MOVFF   r0x0c, POSTDEC1
00003C C??? F???      00490         MOVFF   r0x0d, POSTDEC1
000040 C??? F???      00491         MOVFF   r0x0e, POSTDEC1
000044 C??? F???      00492         MOVFF   r0x0f, POSTDEC1
000048 C??? F???      00493         MOVFF   r0x10, POSTDEC1
00004C C??? F???      00494         MOVFF   r0x11, POSTDEC1
000050 C??? F???      00495         MOVFF   r0x12, POSTDEC1
000054 0E02           00496         MOVLW   0x02
000056 CFDB F000      00497         MOVFF   PLUSW2, r0x00
00005A 0E03           00498         MOVLW   0x03
00005C CFDB F000      00499         MOVFF   PLUSW2, r0x01
000060 0E04           00500         MOVLW   0x04
000062 CFDB F000      00501         MOVFF   PLUSW2, r0x02
000066 0E05           00502         MOVLW   0x05
000068 CFDB F000      00503         MOVFF   PLUSW2, r0x03
00006C 0E06           00504         MOVLW   0x06
00006E CFDB F000      00505         MOVFF   PLUSW2, r0x04
000072 0E07           00506         MOVLW   0x07
000074 CFDB F000      00507         MOVFF   PLUSW2, r0x05
000078 0E08           00508         MOVLW   0x08
00007A CFDB F000      00509         MOVFF   PLUSW2, r0x06
                      00510         .line   88; lib/format.c        short m = (short)log10f(num);
00007E 50??           00511         MOVF    r0x06, W
000080 6EE5           00512         MOVWF   POSTDEC1
000082 50??           00513         MOVF    r0x05, W
000084 6EE5           00514         MOVWF   POSTDEC1
000086 50??           00515         MOVF    r0x04, W
000088 6EE5           00516         MOVWF   POSTDEC1
00008A 50??           00517         MOVF    r0x03, W
00008C 6EE5           00518         MOVWF   POSTDEC1
00008E EC?? F0??      00519         CALL    _log10f
000092 6E??           00520         MOVWF   r0x07
000094 CFF3 F000      00521         MOVFF   PRODL, r0x08
000098 CFF4 F000      00522         MOVFF   PRODH, r0x09
00009C CFE9 F000      00523         MOVFF   FSR0L, r0x0a
0000A0 0E04           00524         MOVLW   0x04
0000A2 26E1           00525         ADDWF   FSR1L, F
0000A4 50??           00526         MOVF    r0x0a, W
0000A6 6EE5           00527         MOVWF   POSTDEC1
0000A8 50??           00528         MOVF    r0x09, W
0000AA 6EE5           00529         MOVWF   POSTDEC1
0000AC 50??           00530         MOVF    r0x08, W
gpasm-1.5.0 #1285 (Jul 12 2020) obj/sdcc-18f2   11/12/23  13:12:35          PAGE 11


LOC    OBJECT CODE    LINE  SOURCE TEXT
  VALUE

0000AE 6EE5           00531         MOVWF   POSTDEC1
0000B0 50??           00532         MOVF    r0x07, W
0000B2 6EE5           00533         MOVWF   POSTDEC1
0000B4 EC?? F0??      00534         CALL    ___fs2sint
0000B8 6E??           00535         MOVWF   r0x07
0000BA CFF3 F000      00536         MOVFF   PRODL, r0x08
0000BE 0E04           00537         MOVLW   0x04
0000C0 26E1           00538         ADDWF   FSR1L, F
0000C2                00539 _00205_DS_:
                      00540         .line   92; lib/format.c        while(num > 0 + DBL_EPSILON) {
0000C2 50??           00541         MOVF    r0x06, W
0000C4 6EE5           00542         MOVWF   POSTDEC1
0000C6 50??           00543         MOVF    r0x05, W
0000C8 6EE5           00544         MOVWF   POSTDEC1
0000CA 50??           00545         MOVF    r0x04, W
0000CC 6EE5           00546         MOVWF   POSTDEC1
0000CE 50??           00547         MOVF    r0x03, W
0000D0 6EE5           00548         MOVWF   POSTDEC1
0000D2 0E34           00549         MOVLW   0x34
0000D4 6EE5           00550         MOVWF   POSTDEC1
0000D6 0E00           00551         MOVLW   0x00
0000D8 6EE5           00552         MOVWF   POSTDEC1
0000DA 0E00           00553         MOVLW   0x00
0000DC 6EE5           00554         MOVWF   POSTDEC1
0000DE 0E00           00555         MOVLW   0x00
0000E0 6EE5           00556         MOVWF   POSTDEC1
0000E2 EC?? F0??      00557         CALL    ___fslt
0000E6 6E??           00558         MOVWF   r0x09
0000E8 0E08           00559         MOVLW   0x08
0000EA 26E1           00560         ADDWF   FSR1L, F
0000EC 50??           00561         MOVF    r0x09, W
0000EE B4D8           00562         BTFSC   STATUS, 2
0000F0 D???           00563         BRA     _00208_DS_
                      00564         .line   93; lib/format.c        double weight = pow(10.0l, m);
0000F2 50??           00565         MOVF    r0x08, W
0000F4 6EE5           00566         MOVWF   POSTDEC1
0000F6 50??           00567         MOVF    r0x07, W
0000F8 6EE5           00568         MOVWF   POSTDEC1
0000FA EC?? F0??      00569         CALL    ___sint2fs
0000FE 6E??           00570         MOVWF   r0x09
000100 CFF3 F000      00571         MOVFF   PRODL, r0x0a
000104 CFF4 F000      00572         MOVFF   PRODH, r0x0b
000108 CFE9 F000      00573         MOVFF   FSR0L, r0x0c
00010C 52E6           00574         MOVF    POSTINC1, F
00010E 52E6           00575         MOVF    POSTINC1, F
000110 50??           00576         MOVF    r0x0c, W
000112 6EE5           00577         MOVWF   POSTDEC1
000114 50??           00578         MOVF    r0x0b, W
000116 6EE5           00579         MOVWF   POSTDEC1
000118 50??           00580         MOVF    r0x0a, W
00011A 6EE5           00581         MOVWF   POSTDEC1
00011C 50??           00582         MOVF    r0x09, W
00011E 6EE5           00583         MOVWF   POSTDEC1
gpasm-1.5.0 #1285 (Jul 12 2020) obj/sdcc-18f2   11/12/23  13:12:35          PAGE 12


LOC    OBJECT CODE    LINE  SOURCE TEXT
  VALUE

000120 0E41           00584         MOVLW   0x41
000122 6EE5           00585         MOVWF   POSTDEC1
000124 0E20           00586         MOVLW   0x20
000126 6EE5           00587         MOVWF   POSTDEC1
000128 0E00           00588         MOVLW   0x00
00012A 6EE5           00589         MOVWF   POSTDEC1
00012C 0E00           00590         MOVLW   0x00
00012E 6EE5           00591         MOVWF   POSTDEC1
000130 EC?? F0??      00592         CALL    _powf
000134 6E??           00593         MOVWF   r0x09
000136 CFF3 F000      00594         MOVFF   PRODL, r0x0a
00013A CFF4 F000      00595         MOVFF   PRODH, r0x0b
00013E CFE9 F000      00596         MOVFF   FSR0L, r0x0c
000142 0E08           00597         MOVLW   0x08
000144 26E1           00598         ADDWF   FSR1L, F
                      00599         .line   94; lib/format.c        digit = (short)floor(num / weight);
000146 50??           00600         MOVF    r0x0c, W
000148 6EE5           00601         MOVWF   POSTDEC1
00014A 50??           00602         MOVF    r0x0b, W
00014C 6EE5           00603         MOVWF   POSTDEC1
00014E 50??           00604         MOVF    r0x0a, W
000150 6EE5           00605         MOVWF   POSTDEC1
000152 50??           00606         MOVF    r0x09, W
000154 6EE5           00607         MOVWF   POSTDEC1
000156 50??           00608         MOVF    r0x06, W
000158 6EE5           00609         MOVWF   POSTDEC1
00015A 50??           00610         MOVF    r0x05, W
00015C 6EE5           00611         MOVWF   POSTDEC1
00015E 50??           00612         MOVF    r0x04, W
000160 6EE5           00613         MOVWF   POSTDEC1
000162 50??           00614         MOVF    r0x03, W
000164 6EE5           00615         MOVWF   POSTDEC1
000166 EC?? F0??      00616         CALL    ___fsdiv
00016A 6E??           00617         MOVWF   r0x0d
00016C CFF3 F000      00618         MOVFF   PRODL, r0x0e
000170 CFF4 F000      00619         MOVFF   PRODH, r0x0f
000174 CFE9 F000      00620         MOVFF   FSR0L, r0x10
000178 0E08           00621         MOVLW   0x08
00017A 26E1           00622         ADDWF   FSR1L, F
00017C 50??           00623         MOVF    r0x10, W
00017E 6EE5           00624         MOVWF   POSTDEC1
000180 50??           00625         MOVF    r0x0f, W
000182 6EE5           00626         MOVWF   POSTDEC1
000184 50??           00627         MOVF    r0x0e, W
000186 6EE5           00628         MOVWF   POSTDEC1
000188 50??           00629         MOVF    r0x0d, W
00018A 6EE5           00630         MOVWF   POSTDEC1
00018C EC?? F0??      00631         CALL    _floorf
000190 6E??           00632         MOVWF   r0x0d
000192 CFF3 F000      00633         MOVFF   PRODL, r0x0e
000196 CFF4 F000      00634         MOVFF   PRODH, r0x0f
00019A CFE9 F000      00635         MOVFF   FSR0L, r0x10
00019E 0E04           00636         MOVLW   0x04
gpasm-1.5.0 #1285 (Jul 12 2020) obj/sdcc-18f2   11/12/23  13:12:35          PAGE 13


LOC    OBJECT CODE    LINE  SOURCE TEXT
  VALUE

0001A0 26E1           00637         ADDWF   FSR1L, F
0001A2 50??           00638         MOVF    r0x10, W
0001A4 6EE5           00639         MOVWF   POSTDEC1
0001A6 50??           00640         MOVF    r0x0f, W
0001A8 6EE5           00641         MOVWF   POSTDEC1
0001AA 50??           00642         MOVF    r0x0e, W
0001AC 6EE5           00643         MOVWF   POSTDEC1
0001AE 50??           00644         MOVF    r0x0d, W
0001B0 6EE5           00645         MOVWF   POSTDEC1
0001B2 EC?? F0??      00646         CALL    ___fs2sint
0001B6 6E??           00647         MOVWF   r0x0d
0001B8 CFF3 F000      00648         MOVFF   PRODL, r0x0e
0001BC 0E04           00649         MOVLW   0x04
0001BE 26E1           00650         ADDWF   FSR1L, F
                      00651         .line   95; lib/format.c        num -= (digit * weight);
0001C0 50??           00652         MOVF    r0x0e, W
0001C2 6EE5           00653         MOVWF   POSTDEC1
0001C4 50??           00654         MOVF    r0x0d, W
0001C6 6EE5           00655         MOVWF   POSTDEC1
0001C8 EC?? F0??      00656         CALL    ___sint2fs
0001CC 6E??           00657         MOVWF   r0x0f
0001CE CFF3 F000      00658         MOVFF   PRODL, r0x10
0001D2 CFF4 F000      00659         MOVFF   PRODH, r0x11
0001D6 CFE9 F000      00660         MOVFF   FSR0L, r0x12
0001DA 52E6           00661         MOVF    POSTINC1, F
0001DC 52E6           00662         MOVF    POSTINC1, F
0001DE 50??           00663         MOVF    r0x0c, W
0001E0 6EE5           00664         MOVWF   POSTDEC1
0001E2 50??           00665         MOVF    r0x0b, W
0001E4 6EE5           00666         MOVWF   POSTDEC1
0001E6 50??           00667         MOVF    r0x0a, W
0001E8 6EE5           00668         MOVWF   POSTDEC1
0001EA 50??           00669         MOVF    r0x09, W
0001EC 6EE5           00670         MOVWF   POSTDEC1
0001EE 50??           00671         MOVF    r0x12, W
0001F0 6EE5           00672         MOVWF   POSTDEC1
0001F2 50??           00673         MOVF    r0x11, W
0001F4 6EE5           00674         MOVWF   POSTDEC1
0001F6 50??           00675         MOVF    r0x10, W
0001F8 6EE5           00676         MOVWF   POSTDEC1
0001FA 50??           00677         MOVF    r0x0f, W
0001FC 6EE5           00678         MOVWF   POSTDEC1
0001FE EC?? F0??      00679         CALL    ___fsmul
000202 6E??           00680         MOVWF   r0x09
000204 CFF3 F000      00681         MOVFF   PRODL, r0x0a
000208 CFF4 F000      00682         MOVFF   PRODH, r0x0b
00020C CFE9 F000      00683         MOVFF   FSR0L, r0x0c
000210 0E08           00684         MOVLW   0x08
000212 26E1           00685         ADDWF   FSR1L, F
000214 50??           00686         MOVF    r0x0c, W
000216 6EE5           00687         MOVWF   POSTDEC1
000218 50??           00688         MOVF    r0x0b, W
00021A 6EE5           00689         MOVWF   POSTDEC1
gpasm-1.5.0 #1285 (Jul 12 2020) obj/sdcc-18f2   11/12/23  13:12:35          PAGE 14


LOC    OBJECT CODE    LINE  SOURCE TEXT
  VALUE

00021C 50??           00690         MOVF    r0x0a, W
00021E 6EE5           00691         MOVWF   POSTDEC1
000220 50??           00692         MOVF    r0x09, W
000222 6EE5           00693         MOVWF   POSTDEC1
000224 50??           00694         MOVF    r0x06, W
000226 6EE5           00695         MOVWF   POSTDEC1
000228 50??           00696         MOVF    r0x05, W
00022A 6EE5           00697         MOVWF   POSTDEC1
00022C 50??           00698         MOVF    r0x04, W
00022E 6EE5           00699         MOVWF   POSTDEC1
000230 50??           00700         MOVF    r0x03, W
000232 6EE5           00701         MOVWF   POSTDEC1
000234 EC?? F0??      00702         CALL    ___fssub
000238 6E??           00703         MOVWF   r0x03
00023A CFF3 F000      00704         MOVFF   PRODL, r0x04
00023E CFF4 F000      00705         MOVFF   PRODH, r0x05
000242 CFE9 F000      00706         MOVFF   FSR0L, r0x06
000246 0E08           00707         MOVLW   0x08
000248 26E1           00708         ADDWF   FSR1L, F
                      00709         .line   96; lib/format.c        fn((char)('0' + digit));
00024A 0E30           00710         MOVLW   0x30
00024C 26??           00711         ADDWF   r0x0d, F
00024E 50??           00712         MOVF    r0x0d, W
000250 6EE5           00713         MOVWF   POSTDEC1
000252 CFF2 FFE5      00714         MOVFF   INTCON, POSTDEC1
000256 9EF2           00715         BCF     INTCON, 7
000258 0005           00716         PUSH    
00025A 0E??           00717         MOVLW   LOW(_00223_DS_)
00025C 6EFD           00718         MOVWF   TOSL
00025E 0E??           00719         MOVLW   HIGH(_00223_DS_)
000260 6EFE           00720         MOVWF   TOSH
000262 0E??           00721         MOVLW   UPPER(_00223_DS_)
000264 6EFF           00722         MOVWF   TOSU
000266 BEE4           00723         BTFSC   PREINC1, 7
000268 8EF2           00724         BSF     INTCON, 7
00026A C??? F???      00725         MOVFF   r0x02, PCLATU
00026E C??? F???      00726         MOVFF   r0x01, PCLATH
000272 50??           00727         MOVF    r0x00, W
000274 6EF9           00728         MOVWF   PCL
000276                00729 _00223_DS_:
000276 52E6           00730         MOVF    POSTINC1, F
                      00731         .line   97; lib/format.c        if(m == 0)
000278 50??           00732         MOVF    r0x07, W
00027A 10??           00733         IORWF   r0x08, W
00027C E1??           00734         BNZ     _00204_DS_
                      00735         .line   98; lib/format.c        fn('.');
00027E 0E2E           00736         MOVLW   0x2e
000280 6EE5           00737         MOVWF   POSTDEC1
000282 CFF2 FFE5      00738         MOVFF   INTCON, POSTDEC1
000286 9EF2           00739         BCF     INTCON, 7
000288 0005           00740         PUSH    
00028A 0E??           00741         MOVLW   LOW(_00224_DS_)
00028C 6EFD           00742         MOVWF   TOSL
gpasm-1.5.0 #1285 (Jul 12 2020) obj/sdcc-18f2   11/12/23  13:12:35          PAGE 15


LOC    OBJECT CODE    LINE  SOURCE TEXT
  VALUE

00028E 0E??           00743         MOVLW   HIGH(_00224_DS_)
000290 6EFE           00744         MOVWF   TOSH
000292 0E??           00745         MOVLW   UPPER(_00224_DS_)
000294 6EFF           00746         MOVWF   TOSU
000296 BEE4           00747         BTFSC   PREINC1, 7
000298 8EF2           00748         BSF     INTCON, 7
00029A C??? F???      00749         MOVFF   r0x02, PCLATU
00029E C??? F???      00750         MOVFF   r0x01, PCLATH
0002A2 50??           00751         MOVF    r0x00, W
0002A4 6EF9           00752         MOVWF   PCL
0002A6                00753 _00224_DS_:
0002A6 52E6           00754         MOVF    POSTINC1, F
0002A8                00755 _00204_DS_:
                      00756         .line   99; lib/format.c        m--;
0002A8 0EFF           00757         MOVLW   0xff
0002AA 26??           00758         ADDWF   r0x07, F
0002AC 22??           00759         ADDWFC  r0x08, F
0002AE D???           00760         BRA     _00205_DS_
0002B0                00761 _00208_DS_:
                      00762         .line   101; lib/format.c       }
0002B0 CFE4 F000      00763         MOVFF   PREINC1, r0x12
0002B4 CFE4 F000      00764         MOVFF   PREINC1, r0x11
0002B8 CFE4 F000      00765         MOVFF   PREINC1, r0x10
0002BC CFE4 F000      00766         MOVFF   PREINC1, r0x0f
0002C0 CFE4 F000      00767         MOVFF   PREINC1, r0x0e
0002C4 CFE4 F000      00768         MOVFF   PREINC1, r0x0d
0002C8 CFE4 F000      00769         MOVFF   PREINC1, r0x0c
0002CC CFE4 F000      00770         MOVFF   PREINC1, r0x0b
0002D0 CFE4 F000      00771         MOVFF   PREINC1, r0x0a
0002D4 CFE4 F000      00772         MOVFF   PREINC1, r0x09
0002D8 CFE4 F000      00773         MOVFF   PREINC1, r0x08
0002DC CFE4 F000      00774         MOVFF   PREINC1, r0x07
0002E0 CFE4 F000      00775         MOVFF   PREINC1, r0x06
0002E4 CFE4 F000      00776         MOVFF   PREINC1, r0x05
0002E8 CFE4 F000      00777         MOVFF   PREINC1, r0x04
0002EC CFE4 F000      00778         MOVFF   PREINC1, r0x03
0002F0 CFE4 F000      00779         MOVFF   PREINC1, r0x02
0002F4 CFE4 F000      00780         MOVFF   PREINC1, r0x01
0002F8 CFE4 F000      00781         MOVFF   PREINC1, r0x00
0002FC CFE4 FFD9      00782         MOVFF   PREINC1, FSR2L
000300 0012           00783         RETURN  
                      00784 
                      00785 ; ; Starting pCode block
                      00786 S_format__format_float  code
000000                00787 _format_float:
                      00788         .line   68; lib/format.c        format_float(putch_t fn, float num) {
000000 CFD9 FFE5      00789         MOVFF   FSR2L, POSTDEC1
000004 CFE1 FFD9      00790         MOVFF   FSR1L, FSR2L
000008 C??? F???      00791         MOVFF   r0x00, POSTDEC1
00000C C??? F???      00792         MOVFF   r0x01, POSTDEC1
000010 C??? F???      00793         MOVFF   r0x02, POSTDEC1
000014 C??? F???      00794         MOVFF   r0x03, POSTDEC1
000018 C??? F???      00795         MOVFF   r0x04, POSTDEC1
gpasm-1.5.0 #1285 (Jul 12 2020) obj/sdcc-18f2   11/12/23  13:12:35          PAGE 16


LOC    OBJECT CODE    LINE  SOURCE TEXT
  VALUE

00001C C??? F???      00796         MOVFF   r0x05, POSTDEC1
000020 C??? F???      00797         MOVFF   r0x06, POSTDEC1
000024 C??? F???      00798         MOVFF   r0x07, POSTDEC1
000028 C??? F???      00799         MOVFF   r0x08, POSTDEC1
00002C C??? F???      00800         MOVFF   r0x09, POSTDEC1
000030 C??? F???      00801         MOVFF   r0x0a, POSTDEC1
000034 C??? F???      00802         MOVFF   r0x0b, POSTDEC1
000038 C??? F???      00803         MOVFF   r0x0c, POSTDEC1
00003C C??? F???      00804         MOVFF   r0x0d, POSTDEC1
000040 C??? F???      00805         MOVFF   r0x0e, POSTDEC1
000044 C??? F???      00806         MOVFF   r0x0f, POSTDEC1
000048 C??? F???      00807         MOVFF   r0x10, POSTDEC1
00004C C??? F???      00808         MOVFF   r0x11, POSTDEC1
000050 0E02           00809         MOVLW   0x02
000052 CFDB F000      00810         MOVFF   PLUSW2, r0x00
000056 0E03           00811         MOVLW   0x03
000058 CFDB F000      00812         MOVFF   PLUSW2, r0x01
00005C 0E04           00813         MOVLW   0x04
00005E CFDB F000      00814         MOVFF   PLUSW2, r0x02
000062 0E05           00815         MOVLW   0x05
000064 CFDB F000      00816         MOVFF   PLUSW2, r0x03
000068 0E06           00817         MOVLW   0x06
00006A CFDB F000      00818         MOVFF   PLUSW2, r0x04
00006E 0E07           00819         MOVLW   0x07
000070 CFDB F000      00820         MOVFF   PLUSW2, r0x05
000074 0E08           00821         MOVLW   0x08
000076 CFDB F000      00822         MOVFF   PLUSW2, r0x06
                      00823         .line   69; lib/format.c        short m = (int)log10f(num);
00007A 50??           00824         MOVF    r0x06, W
00007C 6EE5           00825         MOVWF   POSTDEC1
00007E 50??           00826         MOVF    r0x05, W
000080 6EE5           00827         MOVWF   POSTDEC1
000082 50??           00828         MOVF    r0x04, W
000084 6EE5           00829         MOVWF   POSTDEC1
000086 50??           00830         MOVF    r0x03, W
000088 6EE5           00831         MOVWF   POSTDEC1
00008A EC?? F0??      00832         CALL    _log10f
00008E 6E??           00833         MOVWF   r0x07
000090 CFF3 F000      00834         MOVFF   PRODL, r0x08
000094 CFF4 F000      00835         MOVFF   PRODH, r0x09
000098 CFE9 F000      00836         MOVFF   FSR0L, r0x0a
00009C 0E04           00837         MOVLW   0x04
00009E 26E1           00838         ADDWF   FSR1L, F
0000A0 50??           00839         MOVF    r0x0a, W
0000A2 6EE5           00840         MOVWF   POSTDEC1
0000A4 50??           00841         MOVF    r0x09, W
0000A6 6EE5           00842         MOVWF   POSTDEC1
0000A8 50??           00843         MOVF    r0x08, W
0000AA 6EE5           00844         MOVWF   POSTDEC1
0000AC 50??           00845         MOVF    r0x07, W
0000AE 6EE5           00846         MOVWF   POSTDEC1
0000B0 EC?? F0??      00847         CALL    ___fs2sint
0000B4 6E??           00848         MOVWF   r0x07
gpasm-1.5.0 #1285 (Jul 12 2020) obj/sdcc-18f2   11/12/23  13:12:35          PAGE 17


LOC    OBJECT CODE    LINE  SOURCE TEXT
  VALUE

0000B6 CFF3 F000      00849         MOVFF   PRODL, r0x08
0000BA 0E04           00850         MOVLW   0x04
0000BC 26E1           00851         ADDWF   FSR1L, F
0000BE                00852 _00179_DS_:
                      00853         .line   73; lib/format.c        while(num > 0 + FLT_EPSILON) {
0000BE 50??           00854         MOVF    r0x06, W
0000C0 6EE5           00855         MOVWF   POSTDEC1
0000C2 50??           00856         MOVF    r0x05, W
0000C4 6EE5           00857         MOVWF   POSTDEC1
0000C6 50??           00858         MOVF    r0x04, W
0000C8 6EE5           00859         MOVWF   POSTDEC1
0000CA 50??           00860         MOVF    r0x03, W
0000CC 6EE5           00861         MOVWF   POSTDEC1
0000CE 0E34           00862         MOVLW   0x34
0000D0 6EE5           00863         MOVWF   POSTDEC1
0000D2 0E00           00864         MOVLW   0x00
0000D4 6EE5           00865         MOVWF   POSTDEC1
0000D6 0E00           00866         MOVLW   0x00
0000D8 6EE5           00867         MOVWF   POSTDEC1
0000DA 0E00           00868         MOVLW   0x00
0000DC 6EE5           00869         MOVWF   POSTDEC1
0000DE EC?? F0??      00870         CALL    ___fslt
0000E2 6E??           00871         MOVWF   r0x09
0000E4 0E08           00872         MOVLW   0x08
0000E6 26E1           00873         ADDWF   FSR1L, F
0000E8 50??           00874         MOVF    r0x09, W
0000EA B4D8           00875         BTFSC   STATUS, 2
0000EC D???           00876         BRA     _00182_DS_
                      00877         .line   74; lib/format.c        float weight = pow(10.0l, m);
0000EE 50??           00878         MOVF    r0x08, W
0000F0 6EE5           00879         MOVWF   POSTDEC1
0000F2 50??           00880         MOVF    r0x07, W
0000F4 6EE5           00881         MOVWF   POSTDEC1
0000F6 EC?? F0??      00882         CALL    ___sint2fs
0000FA 6E??           00883         MOVWF   r0x09
0000FC CFF3 F000      00884         MOVFF   PRODL, r0x0a
000100 CFF4 F000      00885         MOVFF   PRODH, r0x0b
000104 CFE9 F000      00886         MOVFF   FSR0L, r0x0c
000108 52E6           00887         MOVF    POSTINC1, F
00010A 52E6           00888         MOVF    POSTINC1, F
00010C 50??           00889         MOVF    r0x0c, W
00010E 6EE5           00890         MOVWF   POSTDEC1
000110 50??           00891         MOVF    r0x0b, W
000112 6EE5           00892         MOVWF   POSTDEC1
000114 50??           00893         MOVF    r0x0a, W
000116 6EE5           00894         MOVWF   POSTDEC1
000118 50??           00895         MOVF    r0x09, W
00011A 6EE5           00896         MOVWF   POSTDEC1
00011C 0E41           00897         MOVLW   0x41
00011E 6EE5           00898         MOVWF   POSTDEC1
000120 0E20           00899         MOVLW   0x20
000122 6EE5           00900         MOVWF   POSTDEC1
000124 0E00           00901         MOVLW   0x00
gpasm-1.5.0 #1285 (Jul 12 2020) obj/sdcc-18f2   11/12/23  13:12:35          PAGE 18


LOC    OBJECT CODE    LINE  SOURCE TEXT
  VALUE

000126 6EE5           00902         MOVWF   POSTDEC1
000128 0E00           00903         MOVLW   0x00
00012A 6EE5           00904         MOVWF   POSTDEC1
00012C EC?? F0??      00905         CALL    _powf
000130 6E??           00906         MOVWF   r0x09
000132 CFF3 F000      00907         MOVFF   PRODL, r0x0a
000136 CFF4 F000      00908         MOVFF   PRODH, r0x0b
00013A CFE9 F000      00909         MOVFF   FSR0L, r0x0c
00013E 0E08           00910         MOVLW   0x08
000140 26E1           00911         ADDWF   FSR1L, F
                      00912         .line   75; lib/format.c        digit = (char)floor(num / weight);
000142 50??           00913         MOVF    r0x0c, W
000144 6EE5           00914         MOVWF   POSTDEC1
000146 50??           00915         MOVF    r0x0b, W
000148 6EE5           00916         MOVWF   POSTDEC1
00014A 50??           00917         MOVF    r0x0a, W
00014C 6EE5           00918         MOVWF   POSTDEC1
00014E 50??           00919         MOVF    r0x09, W
000150 6EE5           00920         MOVWF   POSTDEC1
000152 50??           00921         MOVF    r0x06, W
000154 6EE5           00922         MOVWF   POSTDEC1
000156 50??           00923         MOVF    r0x05, W
000158 6EE5           00924         MOVWF   POSTDEC1
00015A 50??           00925         MOVF    r0x04, W
00015C 6EE5           00926         MOVWF   POSTDEC1
00015E 50??           00927         MOVF    r0x03, W
000160 6EE5           00928         MOVWF   POSTDEC1
000162 EC?? F0??      00929         CALL    ___fsdiv
000166 6E??           00930         MOVWF   r0x0d
000168 CFF3 F000      00931         MOVFF   PRODL, r0x0e
00016C CFF4 F000      00932         MOVFF   PRODH, r0x0f
000170 CFE9 F000      00933         MOVFF   FSR0L, r0x10
000174 0E08           00934         MOVLW   0x08
000176 26E1           00935         ADDWF   FSR1L, F
000178 50??           00936         MOVF    r0x10, W
00017A 6EE5           00937         MOVWF   POSTDEC1
00017C 50??           00938         MOVF    r0x0f, W
00017E 6EE5           00939         MOVWF   POSTDEC1
000180 50??           00940         MOVF    r0x0e, W
000182 6EE5           00941         MOVWF   POSTDEC1
000184 50??           00942         MOVF    r0x0d, W
000186 6EE5           00943         MOVWF   POSTDEC1
000188 EC?? F0??      00944         CALL    _floorf
00018C 6E??           00945         MOVWF   r0x0d
00018E CFF3 F000      00946         MOVFF   PRODL, r0x0e
000192 CFF4 F000      00947         MOVFF   PRODH, r0x0f
000196 CFE9 F000      00948         MOVFF   FSR0L, r0x10
00019A 0E04           00949         MOVLW   0x04
00019C 26E1           00950         ADDWF   FSR1L, F
00019E 50??           00951         MOVF    r0x10, W
0001A0 6EE5           00952         MOVWF   POSTDEC1
0001A2 50??           00953         MOVF    r0x0f, W
0001A4 6EE5           00954         MOVWF   POSTDEC1
gpasm-1.5.0 #1285 (Jul 12 2020) obj/sdcc-18f2   11/12/23  13:12:35          PAGE 19


LOC    OBJECT CODE    LINE  SOURCE TEXT
  VALUE

0001A6 50??           00955         MOVF    r0x0e, W
0001A8 6EE5           00956         MOVWF   POSTDEC1
0001AA 50??           00957         MOVF    r0x0d, W
0001AC 6EE5           00958         MOVWF   POSTDEC1
0001AE EC?? F0??      00959         CALL    ___fs2uchar
0001B2 6E??           00960         MOVWF   r0x0d
0001B4 0E04           00961         MOVLW   0x04
0001B6 26E1           00962         ADDWF   FSR1L, F
                      00963         .line   76; lib/format.c        num -= (digit * weight);
0001B8 50??           00964         MOVF    r0x0d, W
0001BA 6EE5           00965         MOVWF   POSTDEC1
0001BC EC?? F0??      00966         CALL    ___uchar2fs
0001C0 6E??           00967         MOVWF   r0x0e
0001C2 CFF3 F000      00968         MOVFF   PRODL, r0x0f
0001C6 CFF4 F000      00969         MOVFF   PRODH, r0x10
0001CA CFE9 F000      00970         MOVFF   FSR0L, r0x11
0001CE 52E6           00971         MOVF    POSTINC1, F
0001D0 50??           00972         MOVF    r0x0c, W
0001D2 6EE5           00973         MOVWF   POSTDEC1
0001D4 50??           00974         MOVF    r0x0b, W
0001D6 6EE5           00975         MOVWF   POSTDEC1
0001D8 50??           00976         MOVF    r0x0a, W
0001DA 6EE5           00977         MOVWF   POSTDEC1
0001DC 50??           00978         MOVF    r0x09, W
0001DE 6EE5           00979         MOVWF   POSTDEC1
0001E0 50??           00980         MOVF    r0x11, W
0001E2 6EE5           00981         MOVWF   POSTDEC1
0001E4 50??           00982         MOVF    r0x10, W
0001E6 6EE5           00983         MOVWF   POSTDEC1
0001E8 50??           00984         MOVF    r0x0f, W
0001EA 6EE5           00985         MOVWF   POSTDEC1
0001EC 50??           00986         MOVF    r0x0e, W
0001EE 6EE5           00987         MOVWF   POSTDEC1
0001F0 EC?? F0??      00988         CALL    ___fsmul
0001F4 6E??           00989         MOVWF   r0x09
0001F6 CFF3 F000      00990         MOVFF   PRODL, r0x0a
0001FA CFF4 F000      00991         MOVFF   PRODH, r0x0b
0001FE CFE9 F000      00992         MOVFF   FSR0L, r0x0c
000202 0E08           00993         MOVLW   0x08
000204 26E1           00994         ADDWF   FSR1L, F
000206 50??           00995         MOVF    r0x0c, W
000208 6EE5           00996         MOVWF   POSTDEC1
00020A 50??           00997         MOVF    r0x0b, W
00020C 6EE5           00998         MOVWF   POSTDEC1
00020E 50??           00999         MOVF    r0x0a, W
000210 6EE5           01000         MOVWF   POSTDEC1
000212 50??           01001         MOVF    r0x09, W
000214 6EE5           01002         MOVWF   POSTDEC1
000216 50??           01003         MOVF    r0x06, W
000218 6EE5           01004         MOVWF   POSTDEC1
00021A 50??           01005         MOVF    r0x05, W
00021C 6EE5           01006         MOVWF   POSTDEC1
00021E 50??           01007         MOVF    r0x04, W
gpasm-1.5.0 #1285 (Jul 12 2020) obj/sdcc-18f2   11/12/23  13:12:35          PAGE 20


LOC    OBJECT CODE    LINE  SOURCE TEXT
  VALUE

000220 6EE5           01008         MOVWF   POSTDEC1
000222 50??           01009         MOVF    r0x03, W
000224 6EE5           01010         MOVWF   POSTDEC1
000226 EC?? F0??      01011         CALL    ___fssub
00022A 6E??           01012         MOVWF   r0x03
00022C CFF3 F000      01013         MOVFF   PRODL, r0x04
000230 CFF4 F000      01014         MOVFF   PRODH, r0x05
000234 CFE9 F000      01015         MOVFF   FSR0L, r0x06
000238 0E08           01016         MOVLW   0x08
00023A 26E1           01017         ADDWF   FSR1L, F
                      01018         .line   77; lib/format.c        fn('0' + digit);
00023C 0E30           01019         MOVLW   0x30
00023E 26??           01020         ADDWF   r0x0d, F
000240 50??           01021         MOVF    r0x0d, W
000242 6EE5           01022         MOVWF   POSTDEC1
000244 CFF2 FFE5      01023         MOVFF   INTCON, POSTDEC1
000248 9EF2           01024         BCF     INTCON, 7
00024A 0005           01025         PUSH    
00024C 0E??           01026         MOVLW   LOW(_00197_DS_)
00024E 6EFD           01027         MOVWF   TOSL
000250 0E??           01028         MOVLW   HIGH(_00197_DS_)
000252 6EFE           01029         MOVWF   TOSH
000254 0E??           01030         MOVLW   UPPER(_00197_DS_)
000256 6EFF           01031         MOVWF   TOSU
000258 BEE4           01032         BTFSC   PREINC1, 7
00025A 8EF2           01033         BSF     INTCON, 7
00025C C??? F???      01034         MOVFF   r0x02, PCLATU
000260 C??? F???      01035         MOVFF   r0x01, PCLATH
000264 50??           01036         MOVF    r0x00, W
000266 6EF9           01037         MOVWF   PCL
000268                01038 _00197_DS_:
000268 52E6           01039         MOVF    POSTINC1, F
                      01040         .line   78; lib/format.c        if(m == 0)
00026A 50??           01041         MOVF    r0x07, W
00026C 10??           01042         IORWF   r0x08, W
00026E E1??           01043         BNZ     _00178_DS_
                      01044         .line   79; lib/format.c        fn('.');
000270 0E2E           01045         MOVLW   0x2e
000272 6EE5           01046         MOVWF   POSTDEC1
000274 CFF2 FFE5      01047         MOVFF   INTCON, POSTDEC1
000278 9EF2           01048         BCF     INTCON, 7
00027A 0005           01049         PUSH    
00027C 0E??           01050         MOVLW   LOW(_00198_DS_)
00027E 6EFD           01051         MOVWF   TOSL
000280 0E??           01052         MOVLW   HIGH(_00198_DS_)
000282 6EFE           01053         MOVWF   TOSH
000284 0E??           01054         MOVLW   UPPER(_00198_DS_)
000286 6EFF           01055         MOVWF   TOSU
000288 BEE4           01056         BTFSC   PREINC1, 7
00028A 8EF2           01057         BSF     INTCON, 7
00028C C??? F???      01058         MOVFF   r0x02, PCLATU
000290 C??? F???      01059         MOVFF   r0x01, PCLATH
000294 50??           01060         MOVF    r0x00, W
gpasm-1.5.0 #1285 (Jul 12 2020) obj/sdcc-18f2   11/12/23  13:12:35          PAGE 21


LOC    OBJECT CODE    LINE  SOURCE TEXT
  VALUE

000296 6EF9           01061         MOVWF   PCL
000298                01062 _00198_DS_:
000298 52E6           01063         MOVF    POSTINC1, F
00029A                01064 _00178_DS_:
                      01065         .line   80; lib/format.c        m--;
00029A 0EFF           01066         MOVLW   0xff
00029C 26??           01067         ADDWF   r0x07, F
00029E 22??           01068         ADDWFC  r0x08, F
0002A0 D???           01069         BRA     _00179_DS_
0002A2                01070 _00182_DS_:
                      01071         .line   82; lib/format.c        }
0002A2 CFE4 F000      01072         MOVFF   PREINC1, r0x11
0002A6 CFE4 F000      01073         MOVFF   PREINC1, r0x10
0002AA CFE4 F000      01074         MOVFF   PREINC1, r0x0f
0002AE CFE4 F000      01075         MOVFF   PREINC1, r0x0e
0002B2 CFE4 F000      01076         MOVFF   PREINC1, r0x0d
0002B6 CFE4 F000      01077         MOVFF   PREINC1, r0x0c
0002BA CFE4 F000      01078         MOVFF   PREINC1, r0x0b
0002BE CFE4 F000      01079         MOVFF   PREINC1, r0x0a
0002C2 CFE4 F000      01080         MOVFF   PREINC1, r0x09
0002C6 CFE4 F000      01081         MOVFF   PREINC1, r0x08
0002CA CFE4 F000      01082         MOVFF   PREINC1, r0x07
0002CE CFE4 F000      01083         MOVFF   PREINC1, r0x06
0002D2 CFE4 F000      01084         MOVFF   PREINC1, r0x05
0002D6 CFE4 F000      01085         MOVFF   PREINC1, r0x04
0002DA CFE4 F000      01086         MOVFF   PREINC1, r0x03
0002DE CFE4 F000      01087         MOVFF   PREINC1, r0x02
0002E2 CFE4 F000      01088         MOVFF   PREINC1, r0x01
0002E6 CFE4 F000      01089         MOVFF   PREINC1, r0x00
0002EA CFE4 FFD9      01090         MOVFF   PREINC1, FSR2L
0002EE 0012           01091         RETURN  
                      01092 
                      01093 ; ; Starting pCode block
                      01094 S_format__format_xint32 code
000000                01095 _format_xint32:
                      01096         .line   60; lib/format.c        format_xint32(putch_t fn, /*putchar_fn* putchar,*/ uint32_t x) {
000000 CFD9 FFE5      01097         MOVFF   FSR2L, POSTDEC1
000004 CFE1 FFD9      01098         MOVFF   FSR1L, FSR2L
000008 C??? F???      01099         MOVFF   r0x00, POSTDEC1
00000C C??? F???      01100         MOVFF   r0x01, POSTDEC1
000010 C??? F???      01101         MOVFF   r0x02, POSTDEC1
000014 C??? F???      01102         MOVFF   r0x03, POSTDEC1
000018 C??? F???      01103         MOVFF   r0x04, POSTDEC1
00001C C??? F???      01104         MOVFF   r0x05, POSTDEC1
000020 C??? F???      01105         MOVFF   r0x06, POSTDEC1
000024 C??? F???      01106         MOVFF   r0x07, POSTDEC1
000028 C??? F???      01107         MOVFF   r0x08, POSTDEC1
00002C C??? F???      01108         MOVFF   r0x09, POSTDEC1
000030 C??? F???      01109         MOVFF   r0x0a, POSTDEC1
000034 0E02           01110         MOVLW   0x02
000036 CFDB F000      01111         MOVFF   PLUSW2, r0x00
00003A 0E03           01112         MOVLW   0x03
00003C CFDB F000      01113         MOVFF   PLUSW2, r0x01
gpasm-1.5.0 #1285 (Jul 12 2020) obj/sdcc-18f2   11/12/23  13:12:35          PAGE 22


LOC    OBJECT CODE    LINE  SOURCE TEXT
  VALUE

000040 0E04           01114         MOVLW   0x04
000042 CFDB F000      01115         MOVFF   PLUSW2, r0x02
000046 0E05           01116         MOVLW   0x05
000048 CFDB F000      01117         MOVFF   PLUSW2, r0x03
00004C 0E06           01118         MOVLW   0x06
00004E CFDB F000      01119         MOVFF   PLUSW2, r0x04
000052 0E07           01120         MOVLW   0x07
000054 CFDB F000      01121         MOVFF   PLUSW2, r0x05
000058 0E08           01122         MOVLW   0x08
00005A CFDB F000      01123         MOVFF   PLUSW2, r0x06
                      01124         .line   61; lib/format.c        fn('0');
00005E 0E30           01125         MOVLW   0x30
000060 6EE5           01126         MOVWF   POSTDEC1
000062 CFF2 FFE5      01127         MOVFF   INTCON, POSTDEC1
000066 9EF2           01128         BCF     INTCON, 7
000068 0005           01129         PUSH    
00006A 0E??           01130         MOVLW   LOW(_00171_DS_)
00006C 6EFD           01131         MOVWF   TOSL
00006E 0E??           01132         MOVLW   HIGH(_00171_DS_)
000070 6EFE           01133         MOVWF   TOSH
000072 0E??           01134         MOVLW   UPPER(_00171_DS_)
000074 6EFF           01135         MOVWF   TOSU
000076 BEE4           01136         BTFSC   PREINC1, 7
000078 8EF2           01137         BSF     INTCON, 7
00007A C??? F???      01138         MOVFF   r0x02, PCLATU
00007E C??? F???      01139         MOVFF   r0x01, PCLATH
000082 50??           01140         MOVF    r0x00, W
000084 6EF9           01141         MOVWF   PCL
000086                01142 _00171_DS_:
000086 52E6           01143         MOVF    POSTINC1, F
                      01144         .line   62; lib/format.c        fn('x');
000088 0E78           01145         MOVLW   0x78
00008A 6EE5           01146         MOVWF   POSTDEC1
00008C CFF2 FFE5      01147         MOVFF   INTCON, POSTDEC1
000090 9EF2           01148         BCF     INTCON, 7
000092 0005           01149         PUSH    
000094 0E??           01150         MOVLW   LOW(_00172_DS_)
000096 6EFD           01151         MOVWF   TOSL
000098 0E??           01152         MOVLW   HIGH(_00172_DS_)
00009A 6EFE           01153         MOVWF   TOSH
00009C 0E??           01154         MOVLW   UPPER(_00172_DS_)
00009E 6EFF           01155         MOVWF   TOSU
0000A0 BEE4           01156         BTFSC   PREINC1, 7
0000A2 8EF2           01157         BSF     INTCON, 7
0000A4 C??? F???      01158         MOVFF   r0x02, PCLATU
0000A8 C??? F???      01159         MOVFF   r0x01, PCLATH
0000AC 50??           01160         MOVF    r0x00, W
0000AE 6EF9           01161         MOVWF   PCL
0000B0                01162 _00172_DS_:
0000B0 52E6           01163         MOVF    POSTINC1, F
                      01164         .line   63; lib/format.c        format_number(fn, (uint16_t)(x >> 16), 16, -4);
0000B2 50??           01165         MOVF    r0x05, W
0000B4 6E??           01166         MOVWF   r0x07
gpasm-1.5.0 #1285 (Jul 12 2020) obj/sdcc-18f2   11/12/23  13:12:35          PAGE 23


LOC    OBJECT CODE    LINE  SOURCE TEXT
  VALUE

0000B6 50??           01167         MOVF    r0x06, W
0000B8 6E??           01168         MOVWF   r0x08
0000BA 6A??           01169         CLRF    r0x09
0000BC 6A??           01170         CLRF    r0x0a
0000BE 0EFC           01171         MOVLW   0xfc
0000C0 6EE5           01172         MOVWF   POSTDEC1
0000C2 0E10           01173         MOVLW   0x10
0000C4 6EE5           01174         MOVWF   POSTDEC1
0000C6 50??           01175         MOVF    r0x08, W
0000C8 6EE5           01176         MOVWF   POSTDEC1
0000CA 50??           01177         MOVF    r0x07, W
0000CC 6EE5           01178         MOVWF   POSTDEC1
0000CE 50??           01179         MOVF    r0x02, W
0000D0 6EE5           01180         MOVWF   POSTDEC1
0000D2 50??           01181         MOVF    r0x01, W
0000D4 6EE5           01182         MOVWF   POSTDEC1
0000D6 50??           01183         MOVF    r0x00, W
0000D8 6EE5           01184         MOVWF   POSTDEC1
0000DA EC?? F0??      01185         CALL    _format_number
0000DE 0E07           01186         MOVLW   0x07
0000E0 26E1           01187         ADDWF   FSR1L, F
                      01188         .line   64; lib/format.c        format_number(fn, (uint16_t)(x & 0xffff), 16, -4);
0000E2 0EFC           01189         MOVLW   0xfc
0000E4 6EE5           01190         MOVWF   POSTDEC1
0000E6 0E10           01191         MOVLW   0x10
0000E8 6EE5           01192         MOVWF   POSTDEC1
0000EA 50??           01193         MOVF    r0x04, W
0000EC 6EE5           01194         MOVWF   POSTDEC1
0000EE 50??           01195         MOVF    r0x03, W
0000F0 6EE5           01196         MOVWF   POSTDEC1
0000F2 50??           01197         MOVF    r0x02, W
0000F4 6EE5           01198         MOVWF   POSTDEC1
0000F6 50??           01199         MOVF    r0x01, W
0000F8 6EE5           01200         MOVWF   POSTDEC1
0000FA 50??           01201         MOVF    r0x00, W
0000FC 6EE5           01202         MOVWF   POSTDEC1
0000FE EC?? F0??      01203         CALL    _format_number
000102 0E07           01204         MOVLW   0x07
000104 26E1           01205         ADDWF   FSR1L, F
                      01206         .line   65; lib/format.c        }
000106 CFE4 F000      01207         MOVFF   PREINC1, r0x0a
00010A CFE4 F000      01208         MOVFF   PREINC1, r0x09
00010E CFE4 F000      01209         MOVFF   PREINC1, r0x08
000112 CFE4 F000      01210         MOVFF   PREINC1, r0x07
000116 CFE4 F000      01211         MOVFF   PREINC1, r0x06
00011A CFE4 F000      01212         MOVFF   PREINC1, r0x05
00011E CFE4 F000      01213         MOVFF   PREINC1, r0x04
000122 CFE4 F000      01214         MOVFF   PREINC1, r0x03
000126 CFE4 F000      01215         MOVFF   PREINC1, r0x02
00012A CFE4 F000      01216         MOVFF   PREINC1, r0x01
00012E CFE4 F000      01217         MOVFF   PREINC1, r0x00
000132 CFE4 FFD9      01218         MOVFF   PREINC1, FSR2L
000136 0012           01219         RETURN  
gpasm-1.5.0 #1285 (Jul 12 2020) obj/sdcc-18f2   11/12/23  13:12:35          PAGE 24


LOC    OBJECT CODE    LINE  SOURCE TEXT
  VALUE

                      01220 
                      01221 ; ; Starting pCode block
                      01222 S_format__format_number code
000000                01223 _format_number:
                      01224         .line   26; lib/format.c        format_number(putch_t fn, uint16_t n, uint8_t base, int8_t pad /
                            *, int8_t pointpos*/) {
000000 CFD9 FFE5      01225         MOVFF   FSR2L, POSTDEC1
000004 CFE1 FFD9      01226         MOVFF   FSR1L, FSR2L
000008 C??? F???      01227         MOVFF   r0x00, POSTDEC1
00000C C??? F???      01228         MOVFF   r0x01, POSTDEC1
000010 C??? F???      01229         MOVFF   r0x02, POSTDEC1
000014 C??? F???      01230         MOVFF   r0x03, POSTDEC1
000018 C??? F???      01231         MOVFF   r0x04, POSTDEC1
00001C C??? F???      01232         MOVFF   r0x05, POSTDEC1
000020 C??? F???      01233         MOVFF   r0x06, POSTDEC1
000024 C??? F???      01234         MOVFF   r0x07, POSTDEC1
000028 C??? F???      01235         MOVFF   r0x08, POSTDEC1
00002C C??? F???      01236         MOVFF   r0x09, POSTDEC1
000030 C??? F???      01237         MOVFF   r0x0a, POSTDEC1
000034 C??? F???      01238         MOVFF   r0x0b, POSTDEC1
000038 C??? F???      01239         MOVFF   r0x0c, POSTDEC1
00003C C??? F???      01240         MOVFF   r0x0d, POSTDEC1
000040 C??? F???      01241         MOVFF   r0x0e, POSTDEC1
000044 0E02           01242         MOVLW   0x02
000046 CFDB F000      01243         MOVFF   PLUSW2, r0x00
00004A 0E03           01244         MOVLW   0x03
00004C CFDB F000      01245         MOVFF   PLUSW2, r0x01
000050 0E04           01246         MOVLW   0x04
000052 CFDB F000      01247         MOVFF   PLUSW2, r0x02
000056 0E05           01248         MOVLW   0x05
000058 CFDB F000      01249         MOVFF   PLUSW2, r0x03
00005C 0E06           01250         MOVLW   0x06
00005E CFDB F000      01251         MOVFF   PLUSW2, r0x04
000062 0E07           01252         MOVLW   0x07
000064 CFDB F000      01253         MOVFF   PLUSW2, r0x05
000068 0E08           01254         MOVLW   0x08
00006A CFDB F000      01255         MOVFF   PLUSW2, r0x06
                      01256         .line   30; lib/format.c        char padchar = ' ';
00006E 0E20           01257         MOVLW   0x20
000070 6E??           01258         MOVWF   r0x07
                      01259         .line   32; lib/format.c        if(pad < 0) {
000072 80D8           01260         BSF     STATUS, 0
000074 AE??           01261         BTFSS   r0x06, 7
000076 90D8           01262         BCF     STATUS, 0
000078 E3??           01263         BNC     _00128_DS_
                      01264         .line   33; lib/format.c        pad = -pad;
00007A 6C??           01265         NEGF    r0x06
                      01266         .line   34; lib/format.c        padchar = '0';
00007C 0E30           01267         MOVLW   0x30
00007E 6E??           01268         MOVWF   r0x07
000080                01269 _00128_DS_:
                      01270         .line   42; lib/format.c        do {
000080 6A??           01271         CLRF    r0x08
gpasm-1.5.0 #1285 (Jul 12 2020) obj/sdcc-18f2   11/12/23  13:12:35          PAGE 25


LOC    OBJECT CODE    LINE  SOURCE TEXT
  VALUE

000082                01272 _00112_DS_:
                      01273         .line   46; lib/format.c        di = n % base;
000082 C??? F???      01274         MOVFF   r0x05, r0x09
000086 6A??           01275         CLRF    r0x0a
000088 50??           01276         MOVF    r0x0a, W
00008A 6EE5           01277         MOVWF   POSTDEC1
00008C 50??           01278         MOVF    r0x09, W
00008E 6EE5           01279         MOVWF   POSTDEC1
000090 50??           01280         MOVF    r0x04, W
000092 6EE5           01281         MOVWF   POSTDEC1
000094 50??           01282         MOVF    r0x03, W
000096 6EE5           01283         MOVWF   POSTDEC1
000098 EC?? F0??      01284         CALL    __moduint
00009C 6E??           01285         MOVWF   r0x0b
00009E CFF3 F000      01286         MOVFF   PRODL, r0x0c
0000A2 0E04           01287         MOVLW   0x04
0000A4 26E1           01288         ADDWF   FSR1L, F
                      01289         .line   47; lib/format.c        buf[i++] = (di < 10 ? (uint8_t)'0' + di : (uint8_t)'A' + di - 10
                            );
0000A6 C??? F???      01290         MOVFF   r0x08, r0x0c
0000AA 2A??           01291         INCF    r0x08, F
0000AC 6A??           01292         CLRF    r0x0d
0000AE BE??           01293         BTFSC   r0x0c, 7
0000B0 68??           01294         SETF    r0x0d
0000B2 0E??           01295         MOVLW   LOW(_format_number_buf_65536_39)
0000B4 26??           01296         ADDWF   r0x0c, F
0000B6 0E??           01297         MOVLW   HIGH(_format_number_buf_65536_39)
0000B8 22??           01298         ADDWFC  r0x0d, F
0000BA 0E0A           01299         MOVLW   0x0a
0000BC 5C??           01300         SUBWF   r0x0b, W
0000BE E2??           01301         BC      _00124_DS_
0000C0 0E30           01302         MOVLW   0x30
0000C2 24??           01303         ADDWF   r0x0b, W
0000C4 6E??           01304         MOVWF   r0x0e
0000C6 D???           01305         BRA     _00125_DS_
0000C8                01306 _00124_DS_:
0000C8 0E37           01307         MOVLW   0x37
0000CA 24??           01308         ADDWF   r0x0b, W
0000CC 6E??           01309         MOVWF   r0x0e
0000CE                01310 _00125_DS_:
0000CE C??? F???      01311         MOVFF   r0x0c, FSR0L
0000D2 C??? F???      01312         MOVFF   r0x0d, FSR0H
0000D6 C??? F???      01313         MOVFF   r0x0e, INDF0
                      01314         .line   49; lib/format.c        n /= base;
0000DA 50??           01315         MOVF    r0x0a, W
0000DC 6EE5           01316         MOVWF   POSTDEC1
0000DE 50??           01317         MOVF    r0x09, W
0000E0 6EE5           01318         MOVWF   POSTDEC1
0000E2 50??           01319         MOVF    r0x04, W
0000E4 6EE5           01320         MOVWF   POSTDEC1
0000E6 50??           01321         MOVF    r0x03, W
0000E8 6EE5           01322         MOVWF   POSTDEC1
0000EA EC?? F0??      01323         CALL    __divuint
gpasm-1.5.0 #1285 (Jul 12 2020) obj/sdcc-18f2   11/12/23  13:12:35          PAGE 26


LOC    OBJECT CODE    LINE  SOURCE TEXT
  VALUE

0000EE 6E??           01324         MOVWF   r0x03
0000F0 CFF3 F000      01325         MOVFF   PRODL, r0x04
0000F4 0E04           01326         MOVLW   0x04
0000F6 26E1           01327         ADDWF   FSR1L, F
                      01328         .line   50; lib/format.c        } while(n > 0);
0000F8 50??           01329         MOVF    r0x03, W
0000FA 10??           01330         IORWF   r0x04, W
0000FC A4D8           01331         BTFSS   STATUS, 2
0000FE D???           01332         BRA     _00112_DS_
                      01333         .line   52; lib/format.c        while(pad-- > i) buffer_putch(padchar);
000100 C??? F???      01334         MOVFF   r0x08, r0x03
000104 C??? F???      01335         MOVFF   r0x06, r0x04
000108                01336 _00115_DS_:
000108 50??           01337         MOVF    r0x03, W
00010A 0F80           01338         ADDLW   0x80
00010C 6EF3           01339         MOVWF   PRODL
00010E 50??           01340         MOVF    r0x04, W
000110 0F80           01341         ADDLW   0x80
000112 5CF3           01342         SUBWF   PRODL, W
000114 E2??           01343         BC      _00117_DS_
000116 06??           01344         DECF    r0x04, F
000118 50??           01345         MOVF    r0x07, W
00011A 6EE5           01346         MOVWF   POSTDEC1
00011C EC?? F0??      01347         CALL    _buffer_putch
000120 52E6           01348         MOVF    POSTINC1, F
000122 D???           01349         BRA     _00115_DS_
000124                01350 _00117_DS_:
                      01351         .line   54; lib/format.c        for(unsigned j = 0; j < i; j++) (*fn)(buf[j]);
000124 6A??           01352         CLRF    r0x04
000126 6A??           01353         CLRF    r0x05
000128                01354 _00120_DS_:
000128 C??? F???      01355         MOVFF   r0x03, r0x06
00012C 6A??           01356         CLRF    r0x07
00012E BE??           01357         BTFSC   r0x03, 7
000130 68??           01358         SETF    r0x07
000132 50??           01359         MOVF    r0x07, W
000134 5C??           01360         SUBWF   r0x05, W
000136 E1??           01361         BNZ     _00163_DS_
000138 50??           01362         MOVF    r0x06, W
00013A 5C??           01363         SUBWF   r0x04, W
00013C                01364 _00163_DS_:
00013C E2??           01365         BC      _00122_DS_
00013E 0E??           01366         MOVLW   LOW(_format_number_buf_65536_39)
000140 24??           01367         ADDWF   r0x04, W
000142 6E??           01368         MOVWF   r0x06
000144 0E??           01369         MOVLW   HIGH(_format_number_buf_65536_39)
000146 20??           01370         ADDWFC  r0x05, W
000148 6E??           01371         MOVWF   r0x07
00014A C??? F???      01372         MOVFF   r0x06, FSR0L
00014E C??? F???      01373         MOVFF   r0x07, FSR0H
000152 CFEF F000      01374         MOVFF   INDF0, r0x06
000156 50??           01375         MOVF    r0x06, W
000158 6EE5           01376         MOVWF   POSTDEC1
gpasm-1.5.0 #1285 (Jul 12 2020) obj/sdcc-18f2   11/12/23  13:12:35          PAGE 27


LOC    OBJECT CODE    LINE  SOURCE TEXT
  VALUE

00015A CFF2 FFE5      01377         MOVFF   INTCON, POSTDEC1
00015E 9EF2           01378         BCF     INTCON, 7
000160 0005           01379         PUSH    
000162 0E??           01380         MOVLW   LOW(_00164_DS_)
000164 6EFD           01381         MOVWF   TOSL
000166 0E??           01382         MOVLW   HIGH(_00164_DS_)
000168 6EFE           01383         MOVWF   TOSH
00016A 0E??           01384         MOVLW   UPPER(_00164_DS_)
00016C 6EFF           01385         MOVWF   TOSU
00016E BEE4           01386         BTFSC   PREINC1, 7
000170 8EF2           01387         BSF     INTCON, 7
000172 C??? F???      01388         MOVFF   r0x02, PCLATU
000176 C??? F???      01389         MOVFF   r0x01, PCLATH
00017A 50??           01390         MOVF    r0x00, W
00017C 6EF9           01391         MOVWF   PCL
00017E                01392 _00164_DS_:
00017E 52E6           01393         MOVF    POSTINC1, F
000180 4A??           01394         INFSNZ  r0x04, F
000182 2A??           01395         INCF    r0x05, F
000184 D???           01396         BRA     _00120_DS_
000186                01397 _00122_DS_:
                      01398         .line   56; lib/format.c        }
000186 CFE4 F000      01399         MOVFF   PREINC1, r0x0e
00018A CFE4 F000      01400         MOVFF   PREINC1, r0x0d
00018E CFE4 F000      01401         MOVFF   PREINC1, r0x0c
000192 CFE4 F000      01402         MOVFF   PREINC1, r0x0b
000196 CFE4 F000      01403         MOVFF   PREINC1, r0x0a
00019A CFE4 F000      01404         MOVFF   PREINC1, r0x09
00019E CFE4 F000      01405         MOVFF   PREINC1, r0x08
0001A2 CFE4 F000      01406         MOVFF   PREINC1, r0x07
0001A6 CFE4 F000      01407         MOVFF   PREINC1, r0x06
0001AA CFE4 F000      01408         MOVFF   PREINC1, r0x05
0001AE CFE4 F000      01409         MOVFF   PREINC1, r0x04
0001B2 CFE4 F000      01410         MOVFF   PREINC1, r0x03
0001B6 CFE4 F000      01411         MOVFF   PREINC1, r0x02
0001BA CFE4 F000      01412         MOVFF   PREINC1, r0x01
0001BE CFE4 F000      01413         MOVFF   PREINC1, r0x00
0001C2 CFE4 FFD9      01414         MOVFF   PREINC1, FSR2L
0001C6 0012           01415         RETURN  
                      01416 
                      01417 ; ; Starting pCode block
                      01418 S_format__format_putchar        code
000000                01419 _format_putchar:
                      01420         .line   18; lib/format.c        format_putchar(char c) {
000000 CFD9 FFE5      01421         MOVFF   FSR2L, POSTDEC1
000004 CFE1 FFD9      01422         MOVFF   FSR1L, FSR2L
                      01423         .line   20; lib/format.c        }
000008 CFE4 FFD9      01424         MOVFF   PREINC1, FSR2L
00000C 0012           01425         RETURN  
                      01426 
                      01427 
                      01428 
                      01429 ; Statistics:
gpasm-1.5.0 #1285 (Jul 12 2020) obj/sdcc-18f2   11/12/23  13:12:35          PAGE 28


LOC    OBJECT CODE    LINE  SOURCE TEXT
  VALUE

                      01430 ; code size:     2304 (0x0900) bytes ( 1.76%)
                      01431 ;                1152 (0x0480) words
                      01432 ; udata size:      32 (0x0020) bytes ( 2.50%)
                      01433 ; access size:     19 (0x0013) bytes
                      01434 
                      01435 
                      01436         end
gpasm-1.5.0 #1285 (Jul 12 2020) obj/sdcc-18f2   11/12/23  13:12:35          PAGE 29


SYMBOL TABLE
  LABEL                              TYPE        VALUE         VALUE          VALUE
                                                 (hex)         (dec)          (text)

FSR0H                             CONSTANT      00000FEA           4074
FSR0L                             CONSTANT      00000FE9           4073
FSR1L                             CONSTANT      00000FE1           4065
FSR2L                             CONSTANT      00000FD9           4057
INDF0                             CONSTANT      00000FEF           4079
INTCON                            CONSTANT      00000FF2           4082
PCL                               CONSTANT      00000FF9           4089
PCLATH                            CONSTANT      00000FFA           4090
PCLATU                            CONSTANT      00000FFB           4091
PLUSW2                            CONSTANT      00000FDB           4059
POSTDEC1                          CONSTANT      00000FE5           4069
POSTINC1                          CONSTANT      00000FE6           4070
PREINC1                           CONSTANT      00000FE4           4068
PRODH                             CONSTANT      00000FF4           4084
PRODL                             CONSTANT      00000FF3           4083
STATUS                            CONSTANT      00000FD8           4056
TOSH                              CONSTANT      00000FFE           4094
TOSL                              CONSTANT      00000FFD           4093
TOSU                              CONSTANT      00000FFF           4095
_00112_DS_                        ADDRESS       00000082            130
_00115_DS_                        ADDRESS       00000108            264
_00117_DS_                        ADDRESS       00000124            292
_00120_DS_                        ADDRESS       00000128            296
_00122_DS_                        ADDRESS       00000186            390
_00124_DS_                        ADDRESS       000000C8            200
_00125_DS_                        ADDRESS       000000CE            206
_00128_DS_                        ADDRESS       00000080            128
_00163_DS_                        ADDRESS       0000013C            316
_00164_DS_                        ADDRESS       0000017E            382
_00171_DS_                        ADDRESS       00000086            134
_00172_DS_                        ADDRESS       000000B0            176
_00178_DS_                        ADDRESS       0000029A            666
_00179_DS_                        ADDRESS       000000BE            190
_00182_DS_                        ADDRESS       000002A2            674
_00197_DS_                        ADDRESS       00000268            616
_00198_DS_                        ADDRESS       00000298            664
_00204_DS_                        ADDRESS       000002A8            680
_00205_DS_                        ADDRESS       000000C2            194
_00208_DS_                        ADDRESS       000002B0            688
_00223_DS_                        ADDRESS       00000276            630
_00224_DS_                        ADDRESS       000002A6            678
_ADCON0                           EXTERNAL      00000000              0
_ADCON0bits                       EXTERNAL      00000000              0
_ADCON1                           EXTERNAL      00000000              0
_ADCON1bits                       EXTERNAL      00000000              0
_ADCON2                           EXTERNAL      00000000              0
_ADCON2bits                       EXTERNAL      00000000              0
_ADRES                            EXTERNAL      00000000              0
_ADRESH                           EXTERNAL      00000000              0
_ADRESL                           EXTERNAL      00000000              0
_ANSELA                           EXTERNAL      00000000              0
_ANSELAbits                       EXTERNAL      00000000              0
gpasm-1.5.0 #1285 (Jul 12 2020) obj/sdcc-18f2   11/12/23  13:12:35          PAGE 30


SYMBOL TABLE
  LABEL                              TYPE        VALUE         VALUE          VALUE
                                                 (hex)         (dec)          (text)

_ANSELB                           EXTERNAL      00000000              0
_ANSELBbits                       EXTERNAL      00000000              0
_ANSELC                           EXTERNAL      00000000              0
_ANSELCbits                       EXTERNAL      00000000              0
_BAUDCON                          EXTERNAL      00000000              0
_BAUDCONbits                      EXTERNAL      00000000              0
_BAUDCON1                         EXTERNAL      00000000              0
_BAUDCON1bits                     EXTERNAL      00000000              0
_BAUDCON2                         EXTERNAL      00000000              0
_BAUDCON2bits                     EXTERNAL      00000000              0
_BAUDCTL                          EXTERNAL      00000000              0
_BAUDCTLbits                      EXTERNAL      00000000              0
_BAUD1CON                         EXTERNAL      00000000              0
_BAUD1CONbits                     EXTERNAL      00000000              0
_BAUD2CON                         EXTERNAL      00000000              0
_BAUD2CONbits                     EXTERNAL      00000000              0
_BSR                              EXTERNAL      00000000              0
_CCPR1                            EXTERNAL      00000000              0
_CCPR1H                           EXTERNAL      00000000              0
_CCPR1L                           EXTERNAL      00000000              0
_CCPR2                            EXTERNAL      00000000              0
_CCPR2H                           EXTERNAL      00000000              0
_CCPR2L                           EXTERNAL      00000000              0
_CCPR3                            EXTERNAL      00000000              0
_CCPR3H                           EXTERNAL      00000000              0
_CCPR3L                           EXTERNAL      00000000              0
_CCPR4                            EXTERNAL      00000000              0
_CCPR4H                           EXTERNAL      00000000              0
_CCPR4L                           EXTERNAL      00000000              0
_CCPR5                            EXTERNAL      00000000              0
_CCPR5H                           EXTERNAL      00000000              0
_CCPR5L                           EXTERNAL      00000000              0
_CCPTMRS0                         EXTERNAL      00000000              0
_CCPTMRS0bits                     EXTERNAL      00000000              0
_CCPTMRS1                         EXTERNAL      00000000              0
_CCPTMRS1bits                     EXTERNAL      00000000              0
_CCP1CON                          EXTERNAL      00000000              0
_CCP1CONbits                      EXTERNAL      00000000              0
_CCP2AS                           EXTERNAL      00000000              0
_CCP2ASbits                       EXTERNAL      00000000              0
_CCP2CON                          EXTERNAL      00000000              0
_CCP2CONbits                      EXTERNAL      00000000              0
_CCP3AS                           EXTERNAL      00000000              0
_CCP3ASbits                       EXTERNAL      00000000              0
_CCP3CON                          EXTERNAL      00000000              0
_CCP3CONbits                      EXTERNAL      00000000              0
_CCP4CON                          EXTERNAL      00000000              0
_CCP4CONbits                      EXTERNAL      00000000              0
_CCP5CON                          EXTERNAL      00000000              0
_CCP5CONbits                      EXTERNAL      00000000              0
_CM1CON                           EXTERNAL      00000000              0
_CM1CON0                          EXTERNAL      00000000              0
gpasm-1.5.0 #1285 (Jul 12 2020) obj/sdcc-18f2   11/12/23  13:12:35          PAGE 31


SYMBOL TABLE
  LABEL                              TYPE        VALUE         VALUE          VALUE
                                                 (hex)         (dec)          (text)

_CM1CON0bits                      EXTERNAL      00000000              0
_CM1CONbits                       EXTERNAL      00000000              0
_CM2CON                           EXTERNAL      00000000              0
_CM2CON0                          EXTERNAL      00000000              0
_CM2CON0bits                      EXTERNAL      00000000              0
_CM2CONbits                       EXTERNAL      00000000              0
_CM2CON1                          EXTERNAL      00000000              0
_CM2CON1bits                      EXTERNAL      00000000              0
_CM12CON                          EXTERNAL      00000000              0
_CM12CONbits                      EXTERNAL      00000000              0
_CTMUCON0                         EXTERNAL      00000000              0
_CTMUCON0bits                     EXTERNAL      00000000              0
_CTMUCONH                         EXTERNAL      00000000              0
_CTMUCONHbits                     EXTERNAL      00000000              0
_CTMUCONL                         EXTERNAL      00000000              0
_CTMUCONLbits                     EXTERNAL      00000000              0
_CTMUCON1                         EXTERNAL      00000000              0
_CTMUCON1bits                     EXTERNAL      00000000              0
_CTMUICON                         EXTERNAL      00000000              0
_CTMUICONH                        EXTERNAL      00000000              0
_CTMUICONHbits                    EXTERNAL      00000000              0
_CTMUICONbits                     EXTERNAL      00000000              0
_DACCON0                          EXTERNAL      00000000              0
_DACCON0bits                      EXTERNAL      00000000              0
_DACCON1                          EXTERNAL      00000000              0
_DACCON1bits                      EXTERNAL      00000000              0
_DDRA                             EXTERNAL      00000000              0
_DDRAbits                         EXTERNAL      00000000              0
_DDRB                             EXTERNAL      00000000              0
_DDRBbits                         EXTERNAL      00000000              0
_DDRC                             EXTERNAL      00000000              0
_DDRCbits                         EXTERNAL      00000000              0
_ECCPAS                           EXTERNAL      00000000              0
_ECCPASbits                       EXTERNAL      00000000              0
_ECCP1AS                          EXTERNAL      00000000              0
_ECCP1ASbits                      EXTERNAL      00000000              0
_ECCP2AS                          EXTERNAL      00000000              0
_ECCP2ASbits                      EXTERNAL      00000000              0
_ECCP3AS                          EXTERNAL      00000000              0
_ECCP3ASbits                      EXTERNAL      00000000              0
_EEADR                            EXTERNAL      00000000              0
_EEADRbits                        EXTERNAL      00000000              0
_EECON1                           EXTERNAL      00000000              0
_EECON1bits                       EXTERNAL      00000000              0
_EECON2                           EXTERNAL      00000000              0
_EEDATA                           EXTERNAL      00000000              0
_FSR0H                            EXTERNAL      00000000              0
_FSR0L                            EXTERNAL      00000000              0
_FSR1H                            EXTERNAL      00000000              0
_FSR1L                            EXTERNAL      00000000              0
_FSR2H                            EXTERNAL      00000000              0
_FSR2L                            EXTERNAL      00000000              0
gpasm-1.5.0 #1285 (Jul 12 2020) obj/sdcc-18f2   11/12/23  13:12:35          PAGE 32


SYMBOL TABLE
  LABEL                              TYPE        VALUE         VALUE          VALUE
                                                 (hex)         (dec)          (text)

_FVRCON                           EXTERNAL      00000000              0
_FVRCONbits                       EXTERNAL      00000000              0
_HLVDCON                          EXTERNAL      00000000              0
_HLVDCONbits                      EXTERNAL      00000000              0
_INDF0                            EXTERNAL      00000000              0
_INDF1                            EXTERNAL      00000000              0
_INDF2                            EXTERNAL      00000000              0
_INTCON                           EXTERNAL      00000000              0
_INTCONbits                       EXTERNAL      00000000              0
_INTCON2                          EXTERNAL      00000000              0
_INTCON2bits                      EXTERNAL      00000000              0
_INTCON3                          EXTERNAL      00000000              0
_INTCON3bits                      EXTERNAL      00000000              0
_IOCB                             EXTERNAL      00000000              0
_IOCBbits                         EXTERNAL      00000000              0
_IPR1                             EXTERNAL      00000000              0
_IPR1bits                         EXTERNAL      00000000              0
_IPR2                             EXTERNAL      00000000              0
_IPR2bits                         EXTERNAL      00000000              0
_IPR3                             EXTERNAL      00000000              0
_IPR3bits                         EXTERNAL      00000000              0
_IPR4                             EXTERNAL      00000000              0
_IPR4bits                         EXTERNAL      00000000              0
_IPR5                             EXTERNAL      00000000              0
_IPR5bits                         EXTERNAL      00000000              0
_LATA                             EXTERNAL      00000000              0
_LATAbits                         EXTERNAL      00000000              0
_LATB                             EXTERNAL      00000000              0
_LATBbits                         EXTERNAL      00000000              0
_LATC                             EXTERNAL      00000000              0
_LATCbits                         EXTERNAL      00000000              0
_LVDCON                           EXTERNAL      00000000              0
_LVDCONbits                       EXTERNAL      00000000              0
_OSCCON                           EXTERNAL      00000000              0
_OSCCONbits                       EXTERNAL      00000000              0
_OSCCON2                          EXTERNAL      00000000              0
_OSCCON2bits                      EXTERNAL      00000000              0
_OSCTUNE                          EXTERNAL      00000000              0
_OSCTUNEbits                      EXTERNAL      00000000              0
_PC                               EXTERNAL      00000000              0
_PCL                              EXTERNAL      00000000              0
_PCLATH                           EXTERNAL      00000000              0
_PCLATU                           EXTERNAL      00000000              0
_PIE1                             EXTERNAL      00000000              0
_PIE1bits                         EXTERNAL      00000000              0
_PIE2                             EXTERNAL      00000000              0
_PIE2bits                         EXTERNAL      00000000              0
_PIE3                             EXTERNAL      00000000              0
_PIE3bits                         EXTERNAL      00000000              0
_PIE4                             EXTERNAL      00000000              0
_PIE4bits                         EXTERNAL      00000000              0
_PIE5                             EXTERNAL      00000000              0
gpasm-1.5.0 #1285 (Jul 12 2020) obj/sdcc-18f2   11/12/23  13:12:35          PAGE 33


SYMBOL TABLE
  LABEL                              TYPE        VALUE         VALUE          VALUE
                                                 (hex)         (dec)          (text)

_PIE5bits                         EXTERNAL      00000000              0
_PIR1                             EXTERNAL      00000000              0
_PIR1bits                         EXTERNAL      00000000              0
_PIR2                             EXTERNAL      00000000              0
_PIR2bits                         EXTERNAL      00000000              0
_PIR3                             EXTERNAL      00000000              0
_PIR3bits                         EXTERNAL      00000000              0
_PIR4                             EXTERNAL      00000000              0
_PIR4bits                         EXTERNAL      00000000              0
_PIR5                             EXTERNAL      00000000              0
_PIR5bits                         EXTERNAL      00000000              0
_PLUSW0                           EXTERNAL      00000000              0
_PLUSW1                           EXTERNAL      00000000              0
_PLUSW2                           EXTERNAL      00000000              0
_PMD0                             EXTERNAL      00000000              0
_PMD0bits                         EXTERNAL      00000000              0
_PMD1                             EXTERNAL      00000000              0
_PMD1bits                         EXTERNAL      00000000              0
_PMD2                             EXTERNAL      00000000              0
_PMD2bits                         EXTERNAL      00000000              0
_PORTA                            EXTERNAL      00000000              0
_PORTAbits                        EXTERNAL      00000000              0
_PORTB                            EXTERNAL      00000000              0
_PORTBbits                        EXTERNAL      00000000              0
_PORTC                            EXTERNAL      00000000              0
_PORTCbits                        EXTERNAL      00000000              0
_PORTE                            EXTERNAL      00000000              0
_PORTEbits                        EXTERNAL      00000000              0
_POSTDEC0                         EXTERNAL      00000000              0
_POSTDEC1                         EXTERNAL      00000000              0
_POSTDEC2                         EXTERNAL      00000000              0
_POSTINC0                         EXTERNAL      00000000              0
_POSTINC1                         EXTERNAL      00000000              0
_POSTINC2                         EXTERNAL      00000000              0
_PREINC0                          EXTERNAL      00000000              0
_PREINC1                          EXTERNAL      00000000              0
_PREINC2                          EXTERNAL      00000000              0
_PROD                             EXTERNAL      00000000              0
_PRODH                            EXTERNAL      00000000              0
_PRODL                            EXTERNAL      00000000              0
_PR2                              EXTERNAL      00000000              0
_PR4                              EXTERNAL      00000000              0
_PR6                              EXTERNAL      00000000              0
_PSTRCON                          EXTERNAL      00000000              0
_PSTRCONbits                      EXTERNAL      00000000              0
_PSTR1CON                         EXTERNAL      00000000              0
_PSTR1CONbits                     EXTERNAL      00000000              0
_PSTR2CON                         EXTERNAL      00000000              0
_PSTR2CONbits                     EXTERNAL      00000000              0
_PSTR3CON                         EXTERNAL      00000000              0
_PSTR3CONbits                     EXTERNAL      00000000              0
_PWMCON                           EXTERNAL      00000000              0
gpasm-1.5.0 #1285 (Jul 12 2020) obj/sdcc-18f2   11/12/23  13:12:35          PAGE 34


SYMBOL TABLE
  LABEL                              TYPE        VALUE         VALUE          VALUE
                                                 (hex)         (dec)          (text)

_PWMCONbits                       EXTERNAL      00000000              0
_PWM1CON                          EXTERNAL      00000000              0
_PWM1CONbits                      EXTERNAL      00000000              0
_PWM2CON                          EXTERNAL      00000000              0
_PWM2CONbits                      EXTERNAL      00000000              0
_PWM3CON                          EXTERNAL      00000000              0
_PWM3CONbits                      EXTERNAL      00000000              0
_RCON                             EXTERNAL      00000000              0
_RCONbits                         EXTERNAL      00000000              0
_RCREG                            EXTERNAL      00000000              0
_RCREG1                           EXTERNAL      00000000              0
_RCREG2                           EXTERNAL      00000000              0
_RCSTA                            EXTERNAL      00000000              0
_RCSTAbits                        EXTERNAL      00000000              0
_RCSTA1                           EXTERNAL      00000000              0
_RCSTA1bits                       EXTERNAL      00000000              0
_RCSTA2                           EXTERNAL      00000000              0
_RCSTA2bits                       EXTERNAL      00000000              0
_RC1REG                           EXTERNAL      00000000              0
_RC1STA                           EXTERNAL      00000000              0
_RC1STAbits                       EXTERNAL      00000000              0
_RC2REG                           EXTERNAL      00000000              0
_RC2STA                           EXTERNAL      00000000              0
_RC2STAbits                       EXTERNAL      00000000              0
_SLRCON                           EXTERNAL      00000000              0
_SLRCONbits                       EXTERNAL      00000000              0
_SPBRG                            EXTERNAL      00000000              0
_SPBRGH                           EXTERNAL      00000000              0
_SPBRGH1                          EXTERNAL      00000000              0
_SPBRGH2                          EXTERNAL      00000000              0
_SPBRG1                           EXTERNAL      00000000              0
_SPBRG2                           EXTERNAL      00000000              0
_SP1BRG                           EXTERNAL      00000000              0
_SP1BRGH                          EXTERNAL      00000000              0
_SP2BRG                           EXTERNAL      00000000              0
_SP2BRGH                          EXTERNAL      00000000              0
_SRCON0                           EXTERNAL      00000000              0
_SRCON0bits                       EXTERNAL      00000000              0
_SRCON1                           EXTERNAL      00000000              0
_SRCON1bits                       EXTERNAL      00000000              0
_SSPADD                           EXTERNAL      00000000              0
_SSPBUF                           EXTERNAL      00000000              0
_SSPCON1                          EXTERNAL      00000000              0
_SSPCON1bits                      EXTERNAL      00000000              0
_SSPCON2                          EXTERNAL      00000000              0
_SSPCON2bits                      EXTERNAL      00000000              0
_SSPCON3                          EXTERNAL      00000000              0
_SSPCON3bits                      EXTERNAL      00000000              0
_SSPMSK                           EXTERNAL      00000000              0
_SSPMSKbits                       EXTERNAL      00000000              0
_SSPSTAT                          EXTERNAL      00000000              0
_SSPSTATbits                      EXTERNAL      00000000              0
gpasm-1.5.0 #1285 (Jul 12 2020) obj/sdcc-18f2   11/12/23  13:12:35          PAGE 35


SYMBOL TABLE
  LABEL                              TYPE        VALUE         VALUE          VALUE
                                                 (hex)         (dec)          (text)

_SSP1ADD                          EXTERNAL      00000000              0
_SSP1BUF                          EXTERNAL      00000000              0
_SSP1CON1                         EXTERNAL      00000000              0
_SSP1CON1bits                     EXTERNAL      00000000              0
_SSP1CON2                         EXTERNAL      00000000              0
_SSP1CON2bits                     EXTERNAL      00000000              0
_SSP1CON3                         EXTERNAL      00000000              0
_SSP1CON3bits                     EXTERNAL      00000000              0
_SSP1MSK                          EXTERNAL      00000000              0
_SSP1MSKbits                      EXTERNAL      00000000              0
_SSP1STAT                         EXTERNAL      00000000              0
_SSP1STATbits                     EXTERNAL      00000000              0
_SSP2ADD                          EXTERNAL      00000000              0
_SSP2BUF                          EXTERNAL      00000000              0
_SSP2CON1                         EXTERNAL      00000000              0
_SSP2CON1bits                     EXTERNAL      00000000              0
_SSP2CON2                         EXTERNAL      00000000              0
_SSP2CON2bits                     EXTERNAL      00000000              0
_SSP2CON3                         EXTERNAL      00000000              0
_SSP2CON3bits                     EXTERNAL      00000000              0
_SSP2MSK                          EXTERNAL      00000000              0
_SSP2MSKbits                      EXTERNAL      00000000              0
_SSP2STAT                         EXTERNAL      00000000              0
_SSP2STATbits                     EXTERNAL      00000000              0
_STATUS                           EXTERNAL      00000000              0
_STATUSbits                       EXTERNAL      00000000              0
_STKPTR                           EXTERNAL      00000000              0
_STKPTRbits                       EXTERNAL      00000000              0
_T0CON                            EXTERNAL      00000000              0
_T0CONbits                        EXTERNAL      00000000              0
_TABLAT                           EXTERNAL      00000000              0
_TBLPTR                           EXTERNAL      00000000              0
_TBLPTRH                          EXTERNAL      00000000              0
_TBLPTRL                          EXTERNAL      00000000              0
_TBLPTRU                          EXTERNAL      00000000              0
_TMR0                             EXTERNAL      00000000              0
_TMR0H                            EXTERNAL      00000000              0
_TMR0L                            EXTERNAL      00000000              0
_TMR1                             EXTERNAL      00000000              0
_TMR1H                            EXTERNAL      00000000              0
_TMR1L                            EXTERNAL      00000000              0
_TMR2                             EXTERNAL      00000000              0
_TMR3                             EXTERNAL      00000000              0
_TMR3H                            EXTERNAL      00000000              0
_TMR3L                            EXTERNAL      00000000              0
_TMR4                             EXTERNAL      00000000              0
_TMR5                             EXTERNAL      00000000              0
_TMR5H                            EXTERNAL      00000000              0
_TMR5L                            EXTERNAL      00000000              0
_TMR6                             EXTERNAL      00000000              0
_TOS                              EXTERNAL      00000000              0
_TOSH                             EXTERNAL      00000000              0
gpasm-1.5.0 #1285 (Jul 12 2020) obj/sdcc-18f2   11/12/23  13:12:35          PAGE 36


SYMBOL TABLE
  LABEL                              TYPE        VALUE         VALUE          VALUE
                                                 (hex)         (dec)          (text)

_TOSL                             EXTERNAL      00000000              0
_TOSU                             EXTERNAL      00000000              0
_TRISA                            EXTERNAL      00000000              0
_TRISAbits                        EXTERNAL      00000000              0
_TRISB                            EXTERNAL      00000000              0
_TRISBbits                        EXTERNAL      00000000              0
_TRISC                            EXTERNAL      00000000              0
_TRISCbits                        EXTERNAL      00000000              0
_TRISE                            EXTERNAL      00000000              0
_TRISEbits                        EXTERNAL      00000000              0
_TXREG                            EXTERNAL      00000000              0
_TXREG1                           EXTERNAL      00000000              0
_TXREG2                           EXTERNAL      00000000              0
_TXSTA                            EXTERNAL      00000000              0
_TXSTAbits                        EXTERNAL      00000000              0
_TXSTA1                           EXTERNAL      00000000              0
_TXSTA1bits                       EXTERNAL      00000000              0
_TXSTA2                           EXTERNAL      00000000              0
_TXSTA2bits                       EXTERNAL      00000000              0
_TX1REG                           EXTERNAL      00000000              0
_TX1STA                           EXTERNAL      00000000              0
_TX1STAbits                       EXTERNAL      00000000              0
_TX2REG                           EXTERNAL      00000000              0
_TX2STA                           EXTERNAL      00000000              0
_TX2STAbits                       EXTERNAL      00000000              0
_T1CON                            EXTERNAL      00000000              0
_T1CONbits                        EXTERNAL      00000000              0
_T1GCON                           EXTERNAL      00000000              0
_T1GCONbits                       EXTERNAL      00000000              0
_T2CON                            EXTERNAL      00000000              0
_T2CONbits                        EXTERNAL      00000000              0
_T3CON                            EXTERNAL      00000000              0
_T3CONbits                        EXTERNAL      00000000              0
_T3GCON                           EXTERNAL      00000000              0
_T3GCONbits                       EXTERNAL      00000000              0
_T4CON                            EXTERNAL      00000000              0
_T4CONbits                        EXTERNAL      00000000              0
_T5CON                            EXTERNAL      00000000              0
_T5CONbits                        EXTERNAL      00000000              0
_T5GCON                           EXTERNAL      00000000              0
_T5GCONbits                       EXTERNAL      00000000              0
_T6CON                            EXTERNAL      00000000              0
_T6CONbits                        EXTERNAL      00000000              0
_VREFCON0                         EXTERNAL      00000000              0
_VREFCON0bits                     EXTERNAL      00000000              0
_VREFCON1                         EXTERNAL      00000000              0
_VREFCON1bits                     EXTERNAL      00000000              0
_VREFCON2                         EXTERNAL      00000000              0
_VREFCON2bits                     EXTERNAL      00000000              0
_WDTCON                           EXTERNAL      00000000              0
_WDTCONbits                       EXTERNAL      00000000              0
_WPUB                             EXTERNAL      00000000              0
gpasm-1.5.0 #1285 (Jul 12 2020) obj/sdcc-18f2   11/12/23  13:12:35          PAGE 37


SYMBOL TABLE
  LABEL                              TYPE        VALUE         VALUE          VALUE
                                                 (hex)         (dec)          (text)

_WPUBbits                         EXTERNAL      00000000              0
_WREG                             EXTERNAL      00000000              0
__ACC_RAM_LOW_END                 CONSTANT      0000005F             95
__ACC_RAM_LOW_START               CONSTANT      00000000              0
__ACTIVE_BANK_ADDR                VARIABLE      FFFFFFFF             -1
__ASSUMED_BANK_ADDR               VARIABLE      FFFFFFFF             -1
__BANK_0                          CONSTANT      00000000              0
__BANK_BITS                       CONSTANT      00000F00           3840
__BANK_FIRST                      CONSTANT      00000000              0
__BANK_INV                        CONSTANT      FFFFFFFF             -1
__BANK_LAST                       CONSTANT      00000F00           3840
__BANK_MASK                       CONSTANT      000000FF            255
__BANK_SHIFT                      CONSTANT      00000008              8
__BANK_SIZE                       CONSTANT      00000100            256
__BANK_1                          CONSTANT      00000100            256
__BANK_2                          CONSTANT      00000200            512
__BANK_3                          CONSTANT      00000300            768
__BANK_4                          CONSTANT      00000400           1024
__BANK_5                          CONSTANT      00000500           1280
__BANK_6                          CONSTANT      00000600           1536
__BANK_7                          CONSTANT      00000700           1792
__BANK_8                          CONSTANT      00000800           2048
__BANK_9                          CONSTANT      00000900           2304
__BANK_10                         CONSTANT      00000A00           2560
__BANK_11                         CONSTANT      00000B00           2816
__BANK_12                         CONSTANT      00000C00           3072
__BANK_13                         CONSTANT      00000D00           3328
__BANK_14                         CONSTANT      00000E00           3584
__BANK_15                         CONSTANT      00000F00           3840
__CODE_END                        CONSTANT      00007FFF          32767
__CODE_START                      CONSTANT      00000000              0
__COMMON_RAM_END                  CONSTANT      0000005F             95
__COMMON_RAM_START                CONSTANT      00000000              0
__CONFIG_END                      CONSTANT      0030000D        3145741
__CONFIG_START                    CONSTANT      00300000        3145728
__EEPROM_END                      CONSTANT      00F000FF       15728895
__EEPROM_START                    CONSTANT      00F00000       15728640
__EXTENDED                        CONSTANT      00000001              1
__GPUTILS_SVN_VERSION             CONSTANT      00000505           1285
__GPUTILS_VERSION_MAJOR           CONSTANT      00000001              1
__GPUTILS_VERSION_MICRO           CONSTANT      00000000              0
__GPUTILS_VERSION_MINOR           CONSTANT      00000005              5
__IDLOCS_END                      CONSTANT      00200007        2097159
__IDLOCS_START                    CONSTANT      00200000        2097152
__NUM_BANKS                       CONSTANT      00000010             16
__VECTOR_INT_HIGH                 CONSTANT      00000008              8
__VECTOR_INT_LOW                  CONSTANT      00000018             24
__VECTOR_RESET                    CONSTANT      00000000              0
__WHILE_LOOP_COUNT_MAX            CONSTANT      000000FF            255
___fsdiv                          EXTERNAL      00000000              0
___fslt                           EXTERNAL      00000000              0
___fsmul                          EXTERNAL      00000000              0
gpasm-1.5.0 #1285 (Jul 12 2020) obj/sdcc-18f2   11/12/23  13:12:35          PAGE 38


SYMBOL TABLE
  LABEL                              TYPE        VALUE         VALUE          VALUE
                                                 (hex)         (dec)          (text)

___fssub                          EXTERNAL      00000000              0
___fs2sint                        EXTERNAL      00000000              0
___fs2uchar                       EXTERNAL      00000000              0
___sint2fs                        EXTERNAL      00000000              0
___uchar2fs                       EXTERNAL      00000000              0
__divuint                         EXTERNAL      00000000              0
__moduint                         EXTERNAL      00000000              0
__16_BIT                          CONSTANT      00000001              1
__18F25K22                        CONSTANT      00000001              1
_buffer                           EXTERNAL      00000000              0
_buffer_putch                     EXTERNAL      00000000              0
_floorf                           EXTERNAL      00000000              0
_format_double                    GLOBAL        00000000              0
_format_float                     GLOBAL        00000000              0
_format_number                    GLOBAL        00000000              0
_format_number_buf_65536_39       STATIC        00000000              0
_format_putchar                   ADDRESS       00000000              0
_format_xint32                    GLOBAL        00000000              0
_log10f                           EXTERNAL      00000000              0
_powf                             EXTERNAL      00000000              0
r0x00                             STATIC        00000000              0
r0x01                             STATIC        00000001              1
r0x02                             STATIC        00000002              2
r0x03                             STATIC        00000003              3
r0x04                             STATIC        00000004              4
r0x05                             STATIC        00000005              5
r0x06                             STATIC        00000006              6
r0x07                             STATIC        00000007              7
r0x08                             STATIC        00000008              8
r0x09                             STATIC        00000009              9
r0x0a                             STATIC        0000000A             10
r0x0b                             STATIC        0000000B             11
r0x0c                             STATIC        0000000C             12
r0x0d                             STATIC        0000000D             13
r0x0e                             STATIC        0000000E             14
r0x0f                             STATIC        0000000F             15
r0x10                             STATIC        00000010             16
r0x11                             STATIC        00000011             17
r0x12                             STATIC        00000012             18

Errors   :     0
Warnings :     0 reported,     0 suppressed
Messages :     0 reported,     0 suppressed

