gpasm-1.5.0 #1285 (Jul 12 2020) obj/sdcc-18f2   11/12/23  13:12:35          PAGE  1


LOC    OBJECT CODE    LINE  SOURCE TEXT
  VALUE

                      00001 ;--------------------------------------------------------
                      00002 ; File Created by SDCC : free open source ANSI-C Compiler
                      00003 ; Version 4.2.0 #13081 (Linux)
                      00004 ;--------------------------------------------------------
                      00005 ; PIC16 port for the Microchip 16-bit core micros
                      00006 ;--------------------------------------------------------
                      00007 
                      00008         .ident "SDCC version 4.2.0 #13081 [pic16 port]"
                      00009         .file   "lib/lcd44780.c"
                      00010         list    p=18f25k22
                      00011         radix   dec
                      00012 
                      00013 
                      00014 ;--------------------------------------------------------
                      00015 ; public variables in this module
                      00016 ;--------------------------------------------------------
  0000                00017         global  _lcd_send
  0000                00018         global  _lcd_gotoxy
  0000                00019         global  _lcd_puts
  0000                00020         global  _lcd_putch
  0000                00021         global  _lcd_print_number
  0000                00022         global  _lcd_home
  0000                00023         global  _lcd_clear
  0000                00024         global  _lcd_display
  0000                00025         global  _lcd_no_cursor
  0000                00026         global  _lcd_cursor
  0000                00027         global  _lcd_blink
  0000                00028         global  _lcd_left_to_right
  0000                00029         global  _lcd_autoscroll
  0000                00030         global  _lcd_begin
  0000                00031         global  _lcd_init
                      00032 
                      00033 ;--------------------------------------------------------
                      00034 ; extern variables in this module
                      00035 ;--------------------------------------------------------
  0000                00036         extern  __gptrget1
  0000                00037         extern  _dvar
  0000                00038         extern  _ANSELAbits
  0000                00039         extern  _ANSELBbits
  0000                00040         extern  _ANSELCbits
  0000                00041         extern  _PMD2bits
  0000                00042         extern  _PMD1bits
  0000                00043         extern  _PMD0bits
  0000                00044         extern  _DACCON1bits
  0000                00045         extern  _VREFCON2bits
  0000                00046         extern  _DACCON0bits
  0000                00047         extern  _VREFCON1bits
  0000                00048         extern  _FVRCONbits
  0000                00049         extern  _VREFCON0bits
  0000                00050         extern  _CTMUICONbits
  0000                00051         extern  _CTMUICONHbits
  0000                00052         extern  _CTMUCON1bits
  0000                00053         extern  _CTMUCONLbits
gpasm-1.5.0 #1285 (Jul 12 2020) obj/sdcc-18f2   11/12/23  13:12:35          PAGE  2


LOC    OBJECT CODE    LINE  SOURCE TEXT
  VALUE

  0000                00054         extern  _CTMUCON0bits
  0000                00055         extern  _CTMUCONHbits
  0000                00056         extern  _SRCON1bits
  0000                00057         extern  _SRCON0bits
  0000                00058         extern  _CCPTMRS1bits
  0000                00059         extern  _CCPTMRS0bits
  0000                00060         extern  _T6CONbits
  0000                00061         extern  _T5GCONbits
  0000                00062         extern  _T5CONbits
  0000                00063         extern  _T4CONbits
  0000                00064         extern  _CCP5CONbits
  0000                00065         extern  _CCP4CONbits
  0000                00066         extern  _PSTR3CONbits
  0000                00067         extern  _CCP3ASbits
  0000                00068         extern  _ECCP3ASbits
  0000                00069         extern  _PWM3CONbits
  0000                00070         extern  _CCP3CONbits
  0000                00071         extern  _SLRCONbits
  0000                00072         extern  _WPUBbits
  0000                00073         extern  _IOCBbits
  0000                00074         extern  _PSTR2CONbits
  0000                00075         extern  _CCP2ASbits
  0000                00076         extern  _ECCP2ASbits
  0000                00077         extern  _PWM2CONbits
  0000                00078         extern  _CCP2CONbits
  0000                00079         extern  _SSP2CON3bits
  0000                00080         extern  _SSP2MSKbits
  0000                00081         extern  _SSP2CON2bits
  0000                00082         extern  _SSP2CON1bits
  0000                00083         extern  _SSP2STATbits
  0000                00084         extern  _BAUD2CONbits
  0000                00085         extern  _BAUDCON2bits
  0000                00086         extern  _RC2STAbits
  0000                00087         extern  _RCSTA2bits
  0000                00088         extern  _TX2STAbits
  0000                00089         extern  _TXSTA2bits
  0000                00090         extern  _CM12CONbits
  0000                00091         extern  _CM2CON1bits
  0000                00092         extern  _CM2CONbits
  0000                00093         extern  _CM2CON0bits
  0000                00094         extern  _CM1CONbits
  0000                00095         extern  _CM1CON0bits
  0000                00096         extern  _PIE4bits
  0000                00097         extern  _PIR4bits
  0000                00098         extern  _IPR4bits
  0000                00099         extern  _PIE5bits
  0000                00100         extern  _PIR5bits
  0000                00101         extern  _IPR5bits
  0000                00102         extern  _PORTAbits
  0000                00103         extern  _PORTBbits
  0000                00104         extern  _PORTCbits
  0000                00105         extern  _PORTEbits
  0000                00106         extern  _LATAbits
gpasm-1.5.0 #1285 (Jul 12 2020) obj/sdcc-18f2   11/12/23  13:12:35          PAGE  3


LOC    OBJECT CODE    LINE  SOURCE TEXT
  VALUE

  0000                00107         extern  _LATBbits
  0000                00108         extern  _LATCbits
  0000                00109         extern  _DDRAbits
  0000                00110         extern  _TRISAbits
  0000                00111         extern  _DDRBbits
  0000                00112         extern  _TRISBbits
  0000                00113         extern  _DDRCbits
  0000                00114         extern  _TRISCbits
  0000                00115         extern  _TRISEbits
  0000                00116         extern  _OSCTUNEbits
  0000                00117         extern  _HLVDCONbits
  0000                00118         extern  _LVDCONbits
  0000                00119         extern  _PIE1bits
  0000                00120         extern  _PIR1bits
  0000                00121         extern  _IPR1bits
  0000                00122         extern  _PIE2bits
  0000                00123         extern  _PIR2bits
  0000                00124         extern  _IPR2bits
  0000                00125         extern  _PIE3bits
  0000                00126         extern  _PIR3bits
  0000                00127         extern  _IPR3bits
  0000                00128         extern  _EECON1bits
  0000                00129         extern  _EEADRbits
  0000                00130         extern  _RC1STAbits
  0000                00131         extern  _RCSTAbits
  0000                00132         extern  _RCSTA1bits
  0000                00133         extern  _TX1STAbits
  0000                00134         extern  _TXSTAbits
  0000                00135         extern  _TXSTA1bits
  0000                00136         extern  _T3CONbits
  0000                00137         extern  _T3GCONbits
  0000                00138         extern  _ECCP1ASbits
  0000                00139         extern  _ECCPASbits
  0000                00140         extern  _PWM1CONbits
  0000                00141         extern  _PWMCONbits
  0000                00142         extern  _BAUD1CONbits
  0000                00143         extern  _BAUDCONbits
  0000                00144         extern  _BAUDCON1bits
  0000                00145         extern  _BAUDCTLbits
  0000                00146         extern  _PSTR1CONbits
  0000                00147         extern  _PSTRCONbits
  0000                00148         extern  _T2CONbits
  0000                00149         extern  _CCP1CONbits
  0000                00150         extern  _ADCON2bits
  0000                00151         extern  _ADCON1bits
  0000                00152         extern  _ADCON0bits
  0000                00153         extern  _SSP1CON2bits
  0000                00154         extern  _SSPCON2bits
  0000                00155         extern  _SSP1CON1bits
  0000                00156         extern  _SSPCON1bits
  0000                00157         extern  _SSP1STATbits
  0000                00158         extern  _SSPSTATbits
  0000                00159         extern  _SSP1MSKbits
gpasm-1.5.0 #1285 (Jul 12 2020) obj/sdcc-18f2   11/12/23  13:12:35          PAGE  4


LOC    OBJECT CODE    LINE  SOURCE TEXT
  VALUE

  0000                00160         extern  _SSPMSKbits
  0000                00161         extern  _SSP1CON3bits
  0000                00162         extern  _SSPCON3bits
  0000                00163         extern  _T1GCONbits
  0000                00164         extern  _T1CONbits
  0000                00165         extern  _RCONbits
  0000                00166         extern  _WDTCONbits
  0000                00167         extern  _OSCCON2bits
  0000                00168         extern  _OSCCONbits
  0000                00169         extern  _T0CONbits
  0000                00170         extern  _STATUSbits
  0000                00171         extern  _INTCON3bits
  0000                00172         extern  _INTCON2bits
  0000                00173         extern  _INTCONbits
  0000                00174         extern  _STKPTRbits
  0000                00175         extern  _stdin
  0000                00176         extern  _stdout
  0000                00177         extern  _ANSELA
  0000                00178         extern  _ANSELB
  0000                00179         extern  _ANSELC
  0000                00180         extern  _PMD2
  0000                00181         extern  _PMD1
  0000                00182         extern  _PMD0
  0000                00183         extern  _DACCON1
  0000                00184         extern  _VREFCON2
  0000                00185         extern  _DACCON0
  0000                00186         extern  _VREFCON1
  0000                00187         extern  _FVRCON
  0000                00188         extern  _VREFCON0
  0000                00189         extern  _CTMUICON
  0000                00190         extern  _CTMUICONH
  0000                00191         extern  _CTMUCON1
  0000                00192         extern  _CTMUCONL
  0000                00193         extern  _CTMUCON0
  0000                00194         extern  _CTMUCONH
  0000                00195         extern  _SRCON1
  0000                00196         extern  _SRCON0
  0000                00197         extern  _CCPTMRS1
  0000                00198         extern  _CCPTMRS0
  0000                00199         extern  _T6CON
  0000                00200         extern  _PR6
  0000                00201         extern  _TMR6
  0000                00202         extern  _T5GCON
  0000                00203         extern  _T5CON
  0000                00204         extern  _TMR5
  0000                00205         extern  _TMR5L
  0000                00206         extern  _TMR5H
  0000                00207         extern  _T4CON
  0000                00208         extern  _PR4
  0000                00209         extern  _TMR4
  0000                00210         extern  _CCP5CON
  0000                00211         extern  _CCPR5
  0000                00212         extern  _CCPR5L
gpasm-1.5.0 #1285 (Jul 12 2020) obj/sdcc-18f2   11/12/23  13:12:35          PAGE  5


LOC    OBJECT CODE    LINE  SOURCE TEXT
  VALUE

  0000                00213         extern  _CCPR5H
  0000                00214         extern  _CCP4CON
  0000                00215         extern  _CCPR4
  0000                00216         extern  _CCPR4L
  0000                00217         extern  _CCPR4H
  0000                00218         extern  _PSTR3CON
  0000                00219         extern  _CCP3AS
  0000                00220         extern  _ECCP3AS
  0000                00221         extern  _PWM3CON
  0000                00222         extern  _CCP3CON
  0000                00223         extern  _CCPR3
  0000                00224         extern  _CCPR3L
  0000                00225         extern  _CCPR3H
  0000                00226         extern  _SLRCON
  0000                00227         extern  _WPUB
  0000                00228         extern  _IOCB
  0000                00229         extern  _PSTR2CON
  0000                00230         extern  _CCP2AS
  0000                00231         extern  _ECCP2AS
  0000                00232         extern  _PWM2CON
  0000                00233         extern  _CCP2CON
  0000                00234         extern  _CCPR2
  0000                00235         extern  _CCPR2L
  0000                00236         extern  _CCPR2H
  0000                00237         extern  _SSP2CON3
  0000                00238         extern  _SSP2MSK
  0000                00239         extern  _SSP2CON2
  0000                00240         extern  _SSP2CON1
  0000                00241         extern  _SSP2STAT
  0000                00242         extern  _SSP2ADD
  0000                00243         extern  _SSP2BUF
  0000                00244         extern  _BAUD2CON
  0000                00245         extern  _BAUDCON2
  0000                00246         extern  _RC2STA
  0000                00247         extern  _RCSTA2
  0000                00248         extern  _TX2STA
  0000                00249         extern  _TXSTA2
  0000                00250         extern  _TX2REG
  0000                00251         extern  _TXREG2
  0000                00252         extern  _RC2REG
  0000                00253         extern  _RCREG2
  0000                00254         extern  _SP2BRG
  0000                00255         extern  _SPBRG2
  0000                00256         extern  _SP2BRGH
  0000                00257         extern  _SPBRGH2
  0000                00258         extern  _CM12CON
  0000                00259         extern  _CM2CON1
  0000                00260         extern  _CM2CON
  0000                00261         extern  _CM2CON0
  0000                00262         extern  _CM1CON
  0000                00263         extern  _CM1CON0
  0000                00264         extern  _PIE4
  0000                00265         extern  _PIR4
gpasm-1.5.0 #1285 (Jul 12 2020) obj/sdcc-18f2   11/12/23  13:12:35          PAGE  6


LOC    OBJECT CODE    LINE  SOURCE TEXT
  VALUE

  0000                00266         extern  _IPR4
  0000                00267         extern  _PIE5
  0000                00268         extern  _PIR5
  0000                00269         extern  _IPR5
  0000                00270         extern  _PORTA
  0000                00271         extern  _PORTB
  0000                00272         extern  _PORTC
  0000                00273         extern  _PORTE
  0000                00274         extern  _LATA
  0000                00275         extern  _LATB
  0000                00276         extern  _LATC
  0000                00277         extern  _DDRA
  0000                00278         extern  _TRISA
  0000                00279         extern  _DDRB
  0000                00280         extern  _TRISB
  0000                00281         extern  _DDRC
  0000                00282         extern  _TRISC
  0000                00283         extern  _TRISE
  0000                00284         extern  _OSCTUNE
  0000                00285         extern  _HLVDCON
  0000                00286         extern  _LVDCON
  0000                00287         extern  _PIE1
  0000                00288         extern  _PIR1
  0000                00289         extern  _IPR1
  0000                00290         extern  _PIE2
  0000                00291         extern  _PIR2
  0000                00292         extern  _IPR2
  0000                00293         extern  _PIE3
  0000                00294         extern  _PIR3
  0000                00295         extern  _IPR3
  0000                00296         extern  _EECON1
  0000                00297         extern  _EECON2
  0000                00298         extern  _EEDATA
  0000                00299         extern  _EEADR
  0000                00300         extern  _RC1STA
  0000                00301         extern  _RCSTA
  0000                00302         extern  _RCSTA1
  0000                00303         extern  _TX1STA
  0000                00304         extern  _TXSTA
  0000                00305         extern  _TXSTA1
  0000                00306         extern  _TX1REG
  0000                00307         extern  _TXREG
  0000                00308         extern  _TXREG1
  0000                00309         extern  _RC1REG
  0000                00310         extern  _RCREG
  0000                00311         extern  _RCREG1
  0000                00312         extern  _SP1BRG
  0000                00313         extern  _SPBRG
  0000                00314         extern  _SPBRG1
  0000                00315         extern  _SP1BRGH
  0000                00316         extern  _SPBRGH
  0000                00317         extern  _SPBRGH1
  0000                00318         extern  _T3CON
gpasm-1.5.0 #1285 (Jul 12 2020) obj/sdcc-18f2   11/12/23  13:12:35          PAGE  7


LOC    OBJECT CODE    LINE  SOURCE TEXT
  VALUE

  0000                00319         extern  _TMR3
  0000                00320         extern  _TMR3L
  0000                00321         extern  _TMR3H
  0000                00322         extern  _T3GCON
  0000                00323         extern  _ECCP1AS
  0000                00324         extern  _ECCPAS
  0000                00325         extern  _PWM1CON
  0000                00326         extern  _PWMCON
  0000                00327         extern  _BAUD1CON
  0000                00328         extern  _BAUDCON
  0000                00329         extern  _BAUDCON1
  0000                00330         extern  _BAUDCTL
  0000                00331         extern  _PSTR1CON
  0000                00332         extern  _PSTRCON
  0000                00333         extern  _T2CON
  0000                00334         extern  _PR2
  0000                00335         extern  _TMR2
  0000                00336         extern  _CCP1CON
  0000                00337         extern  _CCPR1
  0000                00338         extern  _CCPR1L
  0000                00339         extern  _CCPR1H
  0000                00340         extern  _ADCON2
  0000                00341         extern  _ADCON1
  0000                00342         extern  _ADCON0
  0000                00343         extern  _ADRES
  0000                00344         extern  _ADRESL
  0000                00345         extern  _ADRESH
  0000                00346         extern  _SSP1CON2
  0000                00347         extern  _SSPCON2
  0000                00348         extern  _SSP1CON1
  0000                00349         extern  _SSPCON1
  0000                00350         extern  _SSP1STAT
  0000                00351         extern  _SSPSTAT
  0000                00352         extern  _SSP1ADD
  0000                00353         extern  _SSPADD
  0000                00354         extern  _SSP1BUF
  0000                00355         extern  _SSPBUF
  0000                00356         extern  _SSP1MSK
  0000                00357         extern  _SSPMSK
  0000                00358         extern  _SSP1CON3
  0000                00359         extern  _SSPCON3
  0000                00360         extern  _T1GCON
  0000                00361         extern  _T1CON
  0000                00362         extern  _TMR1
  0000                00363         extern  _TMR1L
  0000                00364         extern  _TMR1H
  0000                00365         extern  _RCON
  0000                00366         extern  _WDTCON
  0000                00367         extern  _OSCCON2
  0000                00368         extern  _OSCCON
  0000                00369         extern  _T0CON
  0000                00370         extern  _TMR0
  0000                00371         extern  _TMR0L
gpasm-1.5.0 #1285 (Jul 12 2020) obj/sdcc-18f2   11/12/23  13:12:35          PAGE  8


LOC    OBJECT CODE    LINE  SOURCE TEXT
  VALUE

  0000                00372         extern  _TMR0H
  0000                00373         extern  _STATUS
  0000                00374         extern  _FSR2L
  0000                00375         extern  _FSR2H
  0000                00376         extern  _PLUSW2
  0000                00377         extern  _PREINC2
  0000                00378         extern  _POSTDEC2
  0000                00379         extern  _POSTINC2
  0000                00380         extern  _INDF2
  0000                00381         extern  _BSR
  0000                00382         extern  _FSR1L
  0000                00383         extern  _FSR1H
  0000                00384         extern  _PLUSW1
  0000                00385         extern  _PREINC1
  0000                00386         extern  _POSTDEC1
  0000                00387         extern  _POSTINC1
  0000                00388         extern  _INDF1
  0000                00389         extern  _WREG
  0000                00390         extern  _FSR0L
  0000                00391         extern  _FSR0H
  0000                00392         extern  _PLUSW0
  0000                00393         extern  _PREINC0
  0000                00394         extern  _POSTDEC0
  0000                00395         extern  _POSTINC0
  0000                00396         extern  _INDF0
  0000                00397         extern  _INTCON3
  0000                00398         extern  _INTCON2
  0000                00399         extern  _INTCON
  0000                00400         extern  _PROD
  0000                00401         extern  _PRODL
  0000                00402         extern  _PRODH
  0000                00403         extern  _TABLAT
  0000                00404         extern  _TBLPTR
  0000                00405         extern  _TBLPTRL
  0000                00406         extern  _TBLPTRH
  0000                00407         extern  _TBLPTRU
  0000                00408         extern  _PC
  0000                00409         extern  _PCL
  0000                00410         extern  _PCLATH
  0000                00411         extern  _PCLATU
  0000                00412         extern  _STKPTR
  0000                00413         extern  _TOS
  0000                00414         extern  _TOSL
  0000                00415         extern  _TOSH
  0000                00416         extern  _TOSU
  0000                00417         extern  _delay_ms
  0000                00418         extern  _delay_us
  0000                00419         extern  __moduint
  0000                00420         extern  __divuint
                      00421 
                      00422 ;--------------------------------------------------------
                      00423 ;       Equates to used internal registers
                      00424 ;--------------------------------------------------------
gpasm-1.5.0 #1285 (Jul 12 2020) obj/sdcc-18f2   11/12/23  13:12:35          PAGE  9


LOC    OBJECT CODE    LINE  SOURCE TEXT
  VALUE

  00000FD8            00425 STATUS  equ     0xfd8
  00000FE8            00426 WREG    equ     0xfe8
  00000FE9            00427 FSR0L   equ     0xfe9
  00000FEA            00428 FSR0H   equ     0xfea
  00000FE1            00429 FSR1L   equ     0xfe1
  00000FD9            00430 FSR2L   equ     0xfd9
  00000FEF            00431 INDF0   equ     0xfef
  00000FE6            00432 POSTINC1        equ     0xfe6
  00000FE5            00433 POSTDEC1        equ     0xfe5
  00000FE4            00434 PREINC1 equ     0xfe4
  00000FDB            00435 PLUSW2  equ     0xfdb
  00000FF3            00436 PRODL   equ     0xff3
                      00437 
                      00438 
                      00439 ; Internal registers
                      00440 .registers      udata_ovr       0x0000
000000                00441 r0x00   res     1
000001                00442 r0x01   res     1
000002                00443 r0x02   res     1
000003                00444 r0x03   res     1
000004                00445 r0x04   res     1
000005                00446 r0x05   res     1
000006                00447 r0x06   res     1
000007                00448 r0x07   res     1
000008                00449 r0x08   res     1
000009                00450 r0x09   res     1
00000A                00451 r0x0a   res     1
00000B                00452 r0x0b   res     1
                      00453 
                      00454 udata_lcd44780_0        udata
000000                00455 _LCD_function   res     1
                      00456 
                      00457 udata_lcd44780_1        udata
000000                00458 _LCD_ctrl       res     1
                      00459 
                      00460 udata_lcd44780_2        udata
000000                00461 _LCD_mode       res     1
                      00462 
                      00463 udata_lcd44780_3        udata
000000                00464 _LCD_lines      res     1
                      00465 
                      00466 udata_lcd44780_4        udata
000000                00467 _lcd_gotoxy_row_offsets_65536_47        res     4
                      00468 
                      00469 udata_lcd44780_5        udata
000000                00470 _lcd_print_number_buf_65536_55  res     32
                      00471 
                      00472 ;--------------------------------------------------------
                      00473 ; global & static initialisations
                      00474 ;--------------------------------------------------------
                      00475 ; I code from now on!
                      00476 ; ; Starting pCode block
                      00477 S_lcd44780__lcd_init    code
gpasm-1.5.0 #1285 (Jul 12 2020) obj/sdcc-18f2   11/12/23  13:12:35          PAGE 10


LOC    OBJECT CODE    LINE  SOURCE TEXT
  VALUE

000000                00478 _lcd_init:
                      00479         .line   489; lib/lcd44780.c     lcd_init(char fourbitmode) {
000000 CFD9 FFE5      00480         MOVFF   FSR2L, POSTDEC1
000004 CFE1 FFD9      00481         MOVFF   FSR1L, FSR2L
000008 C??? F???      00482         MOVFF   r0x00, POSTDEC1
00000C C??? F???      00483         MOVFF   r0x01, POSTDEC1
000010 0E02           00484         MOVLW   0x02
000012 CFDB F000      00485         MOVFF   PLUSW2, r0x00
000016 010?           00486         BANKSEL _LCD_ctrl
                      00487         .line   491; lib/lcd44780.c     LCD_ctrl = 0;
000018 6B??           00488         CLRF    _LCD_ctrl, B
                      00489         .line   492; lib/lcd44780.c     LCD_function = (fourbitmode ? LCD_4BITMODE : LCD_8BITMODE);
00001A 50??           00490         MOVF    r0x00, W
00001C E0??           00491         BZ      _00288_DS_
00001E 6A??           00492         CLRF    r0x00
000020 6A??           00493         CLRF    r0x01
000022 D???           00494         BRA     _00289_DS_
000024                00495 _00288_DS_:
000024 0E10           00496         MOVLW   0x10
000026 6E??           00497         MOVWF   r0x00
000028 6A??           00498         CLRF    r0x01
00002A                00499 _00289_DS_:
00002A 50??           00500         MOVF    r0x00, W
00002C 010?           00501         BANKSEL _LCD_function
00002E 6F??           00502         MOVWF   _LCD_function, B
000030 010?           00503         BANKSEL _LCD_lines
                      00504         .line   494; lib/lcd44780.c     LCD_lines = 0;
000032 6B??           00505         CLRF    _LCD_lines, B
000034 010?           00506         BANKSEL _LCD_mode
                      00507         .line   496; lib/lcd44780.c     LCD_mode = 0;
000036 6B??           00508         CLRF    _LCD_mode, B
                      00509         .line   498; lib/lcd44780.c     RS_TRIS();
000038 94??           00510         BCF     _TRISB, 2
                      00511         .line   499; lib/lcd44780.c     RS_LOW();
00003A 94??           00512         BCF     _LATB, 2
                      00513         .line   504; lib/lcd44780.c     EN_TRIS();
00003C 96??           00514         BCF     _TRISB, 3
                      00515         .line   505; lib/lcd44780.c     EN_LOW();
00003E 96??           00516         BCF     _LATB, 3
                      00517         .line   507; lib/lcd44780.c     DATA_TRIS();
000040 0E0F           00518         MOVLW   0x0f
000042 16??           00519         ANDWF   _LATB, F
                      00520         .line   517; lib/lcd44780.c     }
000044 CFE4 F000      00521         MOVFF   PREINC1, r0x01
000048 CFE4 F000      00522         MOVFF   PREINC1, r0x00
00004C CFE4 FFD9      00523         MOVFF   PREINC1, FSR2L
000050 0012           00524         RETURN  
                      00525 
                      00526 ; ; Starting pCode block
                      00527 S_lcd44780__lcd_begin   code
000000                00528 _lcd_begin:
                      00529         .line   416; lib/lcd44780.c     lcd_begin(uint8_t lines, uint8_t dotsize) {
000000 CFD9 FFE5      00530         MOVFF   FSR2L, POSTDEC1
gpasm-1.5.0 #1285 (Jul 12 2020) obj/sdcc-18f2   11/12/23  13:12:35          PAGE 11


LOC    OBJECT CODE    LINE  SOURCE TEXT
  VALUE

000004 CFE1 FFD9      00531         MOVFF   FSR1L, FSR2L
000008 C??? F???      00532         MOVFF   r0x00, POSTDEC1
00000C C??? F???      00533         MOVFF   r0x01, POSTDEC1
000010 0E02           00534         MOVLW   0x02
000012 CFDB F000      00535         MOVFF   PLUSW2, r0x00
000016 0E03           00536         MOVLW   0x03
000018 CFDB F000      00537         MOVFF   PLUSW2, r0x01
                      00538         .line   417; lib/lcd44780.c     if(lines > 1)
00001C 0E02           00539         MOVLW   0x02
00001E 5C??           00540         SUBWF   r0x00, W
000020 E3??           00541         BNC     _00249_DS_
000022 010?           00542         BANKSEL _LCD_function
                      00543         .line   418; lib/lcd44780.c     LCD_function |= LCD_2LINE;
000024 87??           00544         BSF     _LCD_function, 3, B
000026                00545 _00249_DS_:
                      00546         .line   421; lib/lcd44780.c     LCD_lines = lines;
000026 C??? F???      00547         MOVFF   r0x00, _LCD_lines
                      00548         .line   425; lib/lcd44780.c     if((dotsize != 0) && (lines == 1))
00002A 50??           00549         MOVF    r0x01, W
00002C E0??           00550         BZ      _00251_DS_
00002E 50??           00551         MOVF    r0x00, W
000030 0A01           00552         XORLW   0x01
000032 E1??           00553         BNZ     _00251_DS_
000034                00554 _00277_DS_:
000034 010?           00555         BANKSEL _LCD_function
                      00556         .line   426; lib/lcd44780.c     LCD_function |= LCD_5x10DOTS;
000036 85??           00557         BSF     _LCD_function, 2, B
000038                00558 _00251_DS_:
                      00559         .line   428; lib/lcd44780.c     delay_ms(15); // Wait more than 15 ms after VDD rises to 4.5V
000038 0E00           00560         MOVLW   0x00
00003A 6EE5           00561         MOVWF   POSTDEC1
00003C 0E0F           00562         MOVLW   0x0f
00003E 6EE5           00563         MOVWF   POSTDEC1
000040 EC?? F0??      00564         CALL    _delay_ms
000044 52E6           00565         MOVF    POSTINC1, F
000046 52E6           00566         MOVF    POSTINC1, F
                      00567         .line   431; lib/lcd44780.c     RS_LOW();
000048 94??           00568         BCF     _LATB, 2
                      00569         .line   432; lib/lcd44780.c     EN_LOW();
00004A 96??           00570         BCF     _LATB, 3
                      00571         .line   435; lib/lcd44780.c     if(!(LCD_function & LCD_8BITMODE)) {
00004C C??? F???      00572         MOVFF   _LCD_function, r0x00
000050 B8??           00573         BTFSC   r0x00, 4
000052 D???           00574         BRA     _00254_DS_
                      00575         .line   439; lib/lcd44780.c     lcd_write4bits(0x03);
000054 0E03           00576         MOVLW   0x03
000056 6EE5           00577         MOVWF   POSTDEC1
000058 EC?? F0??      00578         CALL    _lcd_write4bits
00005C 52E6           00579         MOVF    POSTINC1, F
                      00580         .line   440; lib/lcd44780.c     delay_ms(5); // Wait for more than 4.1 ms
00005E 0E00           00581         MOVLW   0x00
000060 6EE5           00582         MOVWF   POSTDEC1
000062 0E05           00583         MOVLW   0x05
gpasm-1.5.0 #1285 (Jul 12 2020) obj/sdcc-18f2   11/12/23  13:12:35          PAGE 12


LOC    OBJECT CODE    LINE  SOURCE TEXT
  VALUE

000064 6EE5           00584         MOVWF   POSTDEC1
000066 EC?? F0??      00585         CALL    _delay_ms
00006A 52E6           00586         MOVF    POSTINC1, F
00006C 52E6           00587         MOVF    POSTINC1, F
                      00588         .line   442; lib/lcd44780.c     lcd_write4bits(0x03);
00006E 0E03           00589         MOVLW   0x03
000070 6EE5           00590         MOVWF   POSTDEC1
000072 EC?? F0??      00591         CALL    _lcd_write4bits
000076 52E6           00592         MOVF    POSTINC1, F
                      00593         .line   443; lib/lcd44780.c     delay_us(150); // Wait more than 100 μs
000078 0E96           00594         MOVLW   0x96
00007A 6EE5           00595         MOVWF   POSTDEC1
00007C EC?? F0??      00596         CALL    _delay_us
000080 52E6           00597         MOVF    POSTINC1, F
                      00598         .line   445; lib/lcd44780.c     lcd_write4bits(0x03);
000082 0E03           00599         MOVLW   0x03
000084 6EE5           00600         MOVWF   POSTDEC1
000086 EC?? F0??      00601         CALL    _lcd_write4bits
00008A 52E6           00602         MOVF    POSTINC1, F
                      00603         .line   446; lib/lcd44780.c     delay_us(150); // Wait more than 100 μs
00008C 0E96           00604         MOVLW   0x96
00008E 6EE5           00605         MOVWF   POSTDEC1
000090 EC?? F0??      00606         CALL    _delay_us
000094 52E6           00607         MOVF    POSTINC1, F
                      00608         .line   448; lib/lcd44780.c     lcd_write4bits(0x02);
000096 0E02           00609         MOVLW   0x02
000098 6EE5           00610         MOVWF   POSTDEC1
00009A EC?? F0??      00611         CALL    _lcd_write4bits
00009E 52E6           00612         MOVF    POSTINC1, F
0000A0 D???           00613         BRA     _00255_DS_
0000A2                00614 _00254_DS_:
                      00615         .line   455; lib/lcd44780.c     lcd_command(LCD_FUNCTIONSET | LCD_function);
0000A2 0E20           00616         MOVLW   0x20
0000A4 010?           00617         BANKSEL _LCD_function
0000A6 11??           00618         IORWF   _LCD_function, W, B
0000A8 6E??           00619         MOVWF   r0x00
0000AA 50??           00620         MOVF    r0x00, W
0000AC 6EE5           00621         MOVWF   POSTDEC1
0000AE EC?? F0??      00622         CALL    _lcd_command
0000B2 52E6           00623         MOVF    POSTINC1, F
                      00624         .line   456; lib/lcd44780.c     delay_ms(5); // Wait for more than 4.1 ms
0000B4 0E00           00625         MOVLW   0x00
0000B6 6EE5           00626         MOVWF   POSTDEC1
0000B8 0E05           00627         MOVLW   0x05
0000BA 6EE5           00628         MOVWF   POSTDEC1
0000BC EC?? F0??      00629         CALL    _delay_ms
0000C0 52E6           00630         MOVF    POSTINC1, F
0000C2 52E6           00631         MOVF    POSTINC1, F
                      00632         .line   459; lib/lcd44780.c     lcd_command(LCD_FUNCTIONSET | LCD_function);
0000C4 0E20           00633         MOVLW   0x20
0000C6 010?           00634         BANKSEL _LCD_function
0000C8 11??           00635         IORWF   _LCD_function, W, B
0000CA 6E??           00636         MOVWF   r0x00
gpasm-1.5.0 #1285 (Jul 12 2020) obj/sdcc-18f2   11/12/23  13:12:35          PAGE 13


LOC    OBJECT CODE    LINE  SOURCE TEXT
  VALUE

0000CC 50??           00637         MOVF    r0x00, W
0000CE 6EE5           00638         MOVWF   POSTDEC1
0000D0 EC?? F0??      00639         CALL    _lcd_command
0000D4 52E6           00640         MOVF    POSTINC1, F
                      00641         .line   460; lib/lcd44780.c     delay_ms(5); // Wait for more than 4.1 ms
0000D6 0E00           00642         MOVLW   0x00
0000D8 6EE5           00643         MOVWF   POSTDEC1
0000DA 0E05           00644         MOVLW   0x05
0000DC 6EE5           00645         MOVWF   POSTDEC1
0000DE EC?? F0??      00646         CALL    _delay_ms
0000E2 52E6           00647         MOVF    POSTINC1, F
0000E4 52E6           00648         MOVF    POSTINC1, F
                      00649         .line   464; lib/lcd44780.c     lcd_command(LCD_FUNCTIONSET | LCD_function);
0000E6 0E20           00650         MOVLW   0x20
0000E8 010?           00651         BANKSEL _LCD_function
0000EA 11??           00652         IORWF   _LCD_function, W, B
0000EC 6E??           00653         MOVWF   r0x00
0000EE 50??           00654         MOVF    r0x00, W
0000F0 6EE5           00655         MOVWF   POSTDEC1
0000F2 EC?? F0??      00656         CALL    _lcd_command
0000F6 52E6           00657         MOVF    POSTINC1, F
0000F8                00658 _00255_DS_:
                      00659         .line   468; lib/lcd44780.c     lcd_command(LCD_FUNCTIONSET | LCD_function);
0000F8 0E20           00660         MOVLW   0x20
0000FA 010?           00661         BANKSEL _LCD_function
0000FC 11??           00662         IORWF   _LCD_function, W, B
0000FE 6E??           00663         MOVWF   r0x00
000100 50??           00664         MOVF    r0x00, W
000102 6EE5           00665         MOVWF   POSTDEC1
000104 EC?? F0??      00666         CALL    _lcd_command
000108 52E6           00667         MOVF    POSTINC1, F
                      00668         .line   471; lib/lcd44780.c     LCD_ctrl = LCD_DISPLAYON | LCD_CURSOROFF | LCD_BLINKOFF;
00010A 0E04           00669         MOVLW   0x04
00010C 010?           00670         BANKSEL _LCD_ctrl
00010E 6F??           00671         MOVWF   _LCD_ctrl, B
                      00672         .line   472; lib/lcd44780.c     lcd_command(LCD_DISPLAYCONTROL | LCD_ctrl);
000110 0E0C           00673         MOVLW   0x0c
000112 6EE5           00674         MOVWF   POSTDEC1
000114 EC?? F0??      00675         CALL    _lcd_command
000118 52E6           00676         MOVF    POSTINC1, F
                      00677         .line   475; lib/lcd44780.c     lcd_command(LCD_CLEARDISPLAY); // clear display, set cursor posi
                            tion to zero
00011A 0E01           00678         MOVLW   0x01
00011C 6EE5           00679         MOVWF   POSTDEC1
00011E EC?? F0??      00680         CALL    _lcd_command
000122 52E6           00681         MOVF    POSTINC1, F
                      00682         .line   476; lib/lcd44780.c     delay_ms(2);
000124 0E00           00683         MOVLW   0x00
000126 6EE5           00684         MOVWF   POSTDEC1
000128 0E02           00685         MOVLW   0x02
00012A 6EE5           00686         MOVWF   POSTDEC1
00012C EC?? F0??      00687         CALL    _delay_ms
000130 52E6           00688         MOVF    POSTINC1, F
gpasm-1.5.0 #1285 (Jul 12 2020) obj/sdcc-18f2   11/12/23  13:12:35          PAGE 14


LOC    OBJECT CODE    LINE  SOURCE TEXT
  VALUE

000132 52E6           00689         MOVF    POSTINC1, F
                      00690         .line   479; lib/lcd44780.c     LCD_mode = LCD_ENTRYLEFT | LCD_ENTRYSHIFTDECREMENT;
000134 0E02           00691         MOVLW   0x02
000136 010?           00692         BANKSEL _LCD_mode
000138 6F??           00693         MOVWF   _LCD_mode, B
                      00694         .line   481; lib/lcd44780.c     lcd_command(LCD_ENTRYMODESET | LCD_mode);
00013A 0E06           00695         MOVLW   0x06
00013C 6EE5           00696         MOVWF   POSTDEC1
00013E EC?? F0??      00697         CALL    _lcd_command
000142 52E6           00698         MOVF    POSTINC1, F
                      00699         .line   482; lib/lcd44780.c     }
000144 CFE4 F000      00700         MOVFF   PREINC1, r0x01
000148 CFE4 F000      00701         MOVFF   PREINC1, r0x00
00014C CFE4 FFD9      00702         MOVFF   PREINC1, FSR2L
000150 0012           00703         RETURN  
                      00704 
                      00705 ; ; Starting pCode block
                      00706 S_lcd44780__lcd_autoscroll      code
000000                00707 _lcd_autoscroll:
                      00708         .line   397; lib/lcd44780.c     lcd_autoscroll(void) {
000000 CFD9 FFE5      00709         MOVFF   FSR2L, POSTDEC1
000004 CFE1 FFD9      00710         MOVFF   FSR1L, FSR2L
000008 C??? F???      00711         MOVFF   r0x00, POSTDEC1
00000C 010?           00712         BANKSEL _LCD_mode
                      00713         .line   398; lib/lcd44780.c     LCD_mode |= LCD_ENTRYSHIFTINCREMENT;
00000E 81??           00714         BSF     _LCD_mode, 0, B
                      00715         .line   399; lib/lcd44780.c     lcd_command(LCD_ENTRYMODESET | LCD_mode);
000010 0E04           00716         MOVLW   0x04
000012 010?           00717         BANKSEL _LCD_mode
000014 11??           00718         IORWF   _LCD_mode, W, B
000016 6E??           00719         MOVWF   r0x00
000018 50??           00720         MOVF    r0x00, W
00001A 6EE5           00721         MOVWF   POSTDEC1
00001C EC?? F0??      00722         CALL    _lcd_command
000020 52E6           00723         MOVF    POSTINC1, F
                      00724         .line   400; lib/lcd44780.c     }
000022 CFE4 F000      00725         MOVFF   PREINC1, r0x00
000026 CFE4 FFD9      00726         MOVFF   PREINC1, FSR2L
00002A 0012           00727         RETURN  
                      00728 
                      00729 ; ; Starting pCode block
                      00730 S_lcd44780__lcd_left_to_right   code
000000                00731 _lcd_left_to_right:
                      00732         .line   377; lib/lcd44780.c     lcd_left_to_right(void) {
000000 CFD9 FFE5      00733         MOVFF   FSR2L, POSTDEC1
000004 CFE1 FFD9      00734         MOVFF   FSR1L, FSR2L
000008 C??? F???      00735         MOVFF   r0x00, POSTDEC1
00000C 010?           00736         BANKSEL _LCD_mode
                      00737         .line   378; lib/lcd44780.c     LCD_mode |= LCD_ENTRYLEFT;
00000E 83??           00738         BSF     _LCD_mode, 1, B
                      00739         .line   379; lib/lcd44780.c     lcd_command(LCD_ENTRYMODESET | LCD_mode);
000010 0E04           00740         MOVLW   0x04
000012 010?           00741         BANKSEL _LCD_mode
gpasm-1.5.0 #1285 (Jul 12 2020) obj/sdcc-18f2   11/12/23  13:12:35          PAGE 15


LOC    OBJECT CODE    LINE  SOURCE TEXT
  VALUE

000014 11??           00742         IORWF   _LCD_mode, W, B
000016 6E??           00743         MOVWF   r0x00
000018 50??           00744         MOVF    r0x00, W
00001A 6EE5           00745         MOVWF   POSTDEC1
00001C EC?? F0??      00746         CALL    _lcd_command
000020 52E6           00747         MOVF    POSTINC1, F
                      00748         .line   380; lib/lcd44780.c     }
000022 CFE4 F000      00749         MOVFF   PREINC1, r0x00
000026 CFE4 FFD9      00750         MOVFF   PREINC1, FSR2L
00002A 0012           00751         RETURN  
                      00752 
                      00753 ; ; Starting pCode block
                      00754 S_lcd44780__lcd_blink   code
000000                00755 _lcd_blink:
                      00756         .line   350; lib/lcd44780.c     lcd_blink() {
000000 CFD9 FFE5      00757         MOVFF   FSR2L, POSTDEC1
000004 CFE1 FFD9      00758         MOVFF   FSR1L, FSR2L
000008 C??? F???      00759         MOVFF   r0x00, POSTDEC1
00000C 010?           00760         BANKSEL _LCD_ctrl
                      00761         .line   351; lib/lcd44780.c     LCD_ctrl |= LCD_BLINKON;
00000E 81??           00762         BSF     _LCD_ctrl, 0, B
                      00763         .line   352; lib/lcd44780.c     lcd_command(LCD_DISPLAYCONTROL | LCD_ctrl);
000010 0E08           00764         MOVLW   0x08
000012 010?           00765         BANKSEL _LCD_ctrl
000014 11??           00766         IORWF   _LCD_ctrl, W, B
000016 6E??           00767         MOVWF   r0x00
000018 50??           00768         MOVF    r0x00, W
00001A 6EE5           00769         MOVWF   POSTDEC1
00001C EC?? F0??      00770         CALL    _lcd_command
000020 52E6           00771         MOVF    POSTINC1, F
                      00772         .line   353; lib/lcd44780.c     }
000022 CFE4 F000      00773         MOVFF   PREINC1, r0x00
000026 CFE4 FFD9      00774         MOVFF   PREINC1, FSR2L
00002A 0012           00775         RETURN  
                      00776 
                      00777 ; ; Starting pCode block
                      00778 S_lcd44780__lcd_cursor  code
000000                00779 _lcd_cursor:
                      00780         .line   331; lib/lcd44780.c     lcd_cursor() {
000000 CFD9 FFE5      00781         MOVFF   FSR2L, POSTDEC1
000004 CFE1 FFD9      00782         MOVFF   FSR1L, FSR2L
000008 C??? F???      00783         MOVFF   r0x00, POSTDEC1
00000C 010?           00784         BANKSEL _LCD_ctrl
                      00785         .line   332; lib/lcd44780.c     LCD_ctrl |= LCD_CURSORON;
00000E 83??           00786         BSF     _LCD_ctrl, 1, B
                      00787         .line   333; lib/lcd44780.c     lcd_command(LCD_DISPLAYCONTROL | LCD_ctrl);
000010 0E08           00788         MOVLW   0x08
000012 010?           00789         BANKSEL _LCD_ctrl
000014 11??           00790         IORWF   _LCD_ctrl, W, B
000016 6E??           00791         MOVWF   r0x00
000018 50??           00792         MOVF    r0x00, W
00001A 6EE5           00793         MOVWF   POSTDEC1
00001C EC?? F0??      00794         CALL    _lcd_command
gpasm-1.5.0 #1285 (Jul 12 2020) obj/sdcc-18f2   11/12/23  13:12:35          PAGE 16


LOC    OBJECT CODE    LINE  SOURCE TEXT
  VALUE

000020 52E6           00795         MOVF    POSTINC1, F
                      00796         .line   334; lib/lcd44780.c     }
000022 CFE4 F000      00797         MOVFF   PREINC1, r0x00
000026 CFE4 FFD9      00798         MOVFF   PREINC1, FSR2L
00002A 0012           00799         RETURN  
                      00800 
                      00801 ; ; Starting pCode block
                      00802 S_lcd44780__lcd_no_cursor       code
000000                00803 _lcd_no_cursor:
                      00804         .line   322; lib/lcd44780.c     lcd_no_cursor() {
000000 CFD9 FFE5      00805         MOVFF   FSR2L, POSTDEC1
000004 CFE1 FFD9      00806         MOVFF   FSR1L, FSR2L
000008 C??? F???      00807         MOVFF   r0x00, POSTDEC1
00000C 010?           00808         BANKSEL _LCD_ctrl
                      00809         .line   323; lib/lcd44780.c     LCD_ctrl &= ~LCD_CURSORON;
00000E 93??           00810         BCF     _LCD_ctrl, 1, B
                      00811         .line   324; lib/lcd44780.c     lcd_command(LCD_DISPLAYCONTROL | LCD_ctrl);
000010 0E08           00812         MOVLW   0x08
000012 010?           00813         BANKSEL _LCD_ctrl
000014 11??           00814         IORWF   _LCD_ctrl, W, B
000016 6E??           00815         MOVWF   r0x00
000018 50??           00816         MOVF    r0x00, W
00001A 6EE5           00817         MOVWF   POSTDEC1
00001C EC?? F0??      00818         CALL    _lcd_command
000020 52E6           00819         MOVF    POSTINC1, F
                      00820         .line   325; lib/lcd44780.c     }
000022 CFE4 F000      00821         MOVFF   PREINC1, r0x00
000026 CFE4 FFD9      00822         MOVFF   PREINC1, FSR2L
00002A 0012           00823         RETURN  
                      00824 
                      00825 ; ; Starting pCode block
                      00826 S_lcd44780__lcd_display code
000000                00827 _lcd_display:
                      00828         .line   312; lib/lcd44780.c     lcd_display() {
000000 CFD9 FFE5      00829         MOVFF   FSR2L, POSTDEC1
000004 CFE1 FFD9      00830         MOVFF   FSR1L, FSR2L
000008 C??? F???      00831         MOVFF   r0x00, POSTDEC1
00000C 010?           00832         BANKSEL _LCD_ctrl
                      00833         .line   313; lib/lcd44780.c     LCD_ctrl |= LCD_DISPLAYON;
00000E 85??           00834         BSF     _LCD_ctrl, 2, B
                      00835         .line   314; lib/lcd44780.c     lcd_command(LCD_DISPLAYCONTROL | LCD_ctrl);
000010 0E08           00836         MOVLW   0x08
000012 010?           00837         BANKSEL _LCD_ctrl
000014 11??           00838         IORWF   _LCD_ctrl, W, B
000016 6E??           00839         MOVWF   r0x00
000018 50??           00840         MOVF    r0x00, W
00001A 6EE5           00841         MOVWF   POSTDEC1
00001C EC?? F0??      00842         CALL    _lcd_command
000020 52E6           00843         MOVF    POSTINC1, F
                      00844         .line   315; lib/lcd44780.c     }
000022 CFE4 F000      00845         MOVFF   PREINC1, r0x00
000026 CFE4 FFD9      00846         MOVFF   PREINC1, FSR2L
00002A 0012           00847         RETURN  
gpasm-1.5.0 #1285 (Jul 12 2020) obj/sdcc-18f2   11/12/23  13:12:35          PAGE 17


LOC    OBJECT CODE    LINE  SOURCE TEXT
  VALUE

                      00848 
                      00849 ; ; Starting pCode block
                      00850 S_lcd44780__lcd_clear   code
000000                00851 _lcd_clear:
                      00852         .line   292; lib/lcd44780.c     lcd_clear() {
000000 CFD9 FFE5      00853         MOVFF   FSR2L, POSTDEC1
000004 CFE1 FFD9      00854         MOVFF   FSR1L, FSR2L
                      00855         .line   293; lib/lcd44780.c     lcd_command(LCD_CLEARDISPLAY); // clear display, set cursor posi
                            tion to zero
000008 0E01           00856         MOVLW   0x01
00000A 6EE5           00857         MOVWF   POSTDEC1
00000C EC?? F0??      00858         CALL    _lcd_command
000010 52E6           00859         MOVF    POSTINC1, F
                      00860         .line   294; lib/lcd44780.c     delay_ms(2);                   // Wait for more than 4.1 ms
000012 0E00           00861         MOVLW   0x00
000014 6EE5           00862         MOVWF   POSTDEC1
000016 0E02           00863         MOVLW   0x02
000018 6EE5           00864         MOVWF   POSTDEC1
00001A EC?? F0??      00865         CALL    _delay_ms
00001E 52E6           00866         MOVF    POSTINC1, F
000020 52E6           00867         MOVF    POSTINC1, F
                      00868         .line   296; lib/lcd44780.c     }
000022 CFE4 FFD9      00869         MOVFF   PREINC1, FSR2L
000026 0012           00870         RETURN  
                      00871 
                      00872 ; ; Starting pCode block
                      00873 S_lcd44780__lcd_home    code
000000                00874 _lcd_home:
                      00875         .line   281; lib/lcd44780.c     lcd_home() {
000000 CFD9 FFE5      00876         MOVFF   FSR2L, POSTDEC1
000004 CFE1 FFD9      00877         MOVFF   FSR1L, FSR2L
                      00878         .line   282; lib/lcd44780.c     lcd_command(LCD_RETURNHOME);
000008 0E02           00879         MOVLW   0x02
00000A 6EE5           00880         MOVWF   POSTDEC1
00000C EC?? F0??      00881         CALL    _lcd_command
000010 52E6           00882         MOVF    POSTINC1, F
                      00883         .line   283; lib/lcd44780.c     delay_ms(2); // Wait for more than 4.1 ms
000012 0E00           00884         MOVLW   0x00
000014 6EE5           00885         MOVWF   POSTDEC1
000016 0E02           00886         MOVLW   0x02
000018 6EE5           00887         MOVWF   POSTDEC1
00001A EC?? F0??      00888         CALL    _delay_ms
00001E 52E6           00889         MOVF    POSTINC1, F
000020 52E6           00890         MOVF    POSTINC1, F
                      00891         .line   285; lib/lcd44780.c     }
000022 CFE4 FFD9      00892         MOVFF   PREINC1, FSR2L
000026 0012           00893         RETURN  
                      00894 
                      00895 ; ; Starting pCode block
                      00896 S_lcd44780__lcd_print_number    code
000000                00897 _lcd_print_number:
                      00898         .line   197; lib/lcd44780.c     lcd_print_number(uint16_t n, uint8_t base, int8_t pad /*, int8_t
                             pointpos*/) {
gpasm-1.5.0 #1285 (Jul 12 2020) obj/sdcc-18f2   11/12/23  13:12:35          PAGE 18


LOC    OBJECT CODE    LINE  SOURCE TEXT
  VALUE

000000 CFD9 FFE5      00899         MOVFF   FSR2L, POSTDEC1
000004 CFE1 FFD9      00900         MOVFF   FSR1L, FSR2L
000008 C??? F???      00901         MOVFF   r0x00, POSTDEC1
00000C C??? F???      00902         MOVFF   r0x01, POSTDEC1
000010 C??? F???      00903         MOVFF   r0x02, POSTDEC1
000014 C??? F???      00904         MOVFF   r0x03, POSTDEC1
000018 C??? F???      00905         MOVFF   r0x04, POSTDEC1
00001C C??? F???      00906         MOVFF   r0x05, POSTDEC1
000020 C??? F???      00907         MOVFF   r0x06, POSTDEC1
000024 C??? F???      00908         MOVFF   r0x07, POSTDEC1
000028 C??? F???      00909         MOVFF   r0x08, POSTDEC1
00002C C??? F???      00910         MOVFF   r0x09, POSTDEC1
000030 C??? F???      00911         MOVFF   r0x0a, POSTDEC1
000034 C??? F???      00912         MOVFF   r0x0b, POSTDEC1
000038 0E02           00913         MOVLW   0x02
00003A CFDB F000      00914         MOVFF   PLUSW2, r0x00
00003E 0E03           00915         MOVLW   0x03
000040 CFDB F000      00916         MOVFF   PLUSW2, r0x01
000044 0E04           00917         MOVLW   0x04
000046 CFDB F000      00918         MOVFF   PLUSW2, r0x02
00004A 0E05           00919         MOVLW   0x05
00004C CFDB F000      00920         MOVFF   PLUSW2, r0x03
                      00921         .line   201; lib/lcd44780.c     char padchar = ' ';
000050 0E20           00922         MOVLW   0x20
000052 6E??           00923         MOVWF   r0x04
                      00924         .line   203; lib/lcd44780.c     if(pad < 0) {
000054 80D8           00925         BSF     STATUS, 0
000056 AE??           00926         BTFSS   r0x03, 7
000058 90D8           00927         BCF     STATUS, 0
00005A E3??           00928         BNC     _00169_DS_
                      00929         .line   204; lib/lcd44780.c     pad = -pad;
00005C 6C??           00930         NEGF    r0x03
                      00931         .line   205; lib/lcd44780.c     padchar = '0';
00005E 0E30           00932         MOVLW   0x30
000060 6E??           00933         MOVWF   r0x04
000062                00934 _00169_DS_:
                      00935         .line   213; lib/lcd44780.c     do {
000062 6A??           00936         CLRF    r0x05
000064                00937 _00153_DS_:
                      00938         .line   217; lib/lcd44780.c     di = n % base;
000064 C??? F???      00939         MOVFF   r0x02, r0x06
000068 6A??           00940         CLRF    r0x07
00006A 50??           00941         MOVF    r0x07, W
00006C 6EE5           00942         MOVWF   POSTDEC1
00006E 50??           00943         MOVF    r0x06, W
000070 6EE5           00944         MOVWF   POSTDEC1
000072 50??           00945         MOVF    r0x01, W
000074 6EE5           00946         MOVWF   POSTDEC1
000076 50??           00947         MOVF    r0x00, W
000078 6EE5           00948         MOVWF   POSTDEC1
00007A EC?? F0??      00949         CALL    __moduint
00007E 6E??           00950         MOVWF   r0x08
000080 CFF3 F000      00951         MOVFF   PRODL, r0x09
gpasm-1.5.0 #1285 (Jul 12 2020) obj/sdcc-18f2   11/12/23  13:12:35          PAGE 19


LOC    OBJECT CODE    LINE  SOURCE TEXT
  VALUE

000084 0E04           00952         MOVLW   0x04
000086 26E1           00953         ADDWF   FSR1L, F
                      00954         .line   218; lib/lcd44780.c     buf[i++] = (di < 10 ? (uint8_t)'0' + di : (uint8_t)'A' + di - 10
                            );
000088 C??? F???      00955         MOVFF   r0x05, r0x09
00008C 2A??           00956         INCF    r0x05, F
00008E 6A??           00957         CLRF    r0x0a
000090 BE??           00958         BTFSC   r0x09, 7
000092 68??           00959         SETF    r0x0a
000094 0E??           00960         MOVLW   LOW(_lcd_print_number_buf_65536_55)
000096 26??           00961         ADDWF   r0x09, F
000098 0E??           00962         MOVLW   HIGH(_lcd_print_number_buf_65536_55)
00009A 22??           00963         ADDWFC  r0x0a, F
00009C 0E0A           00964         MOVLW   0x0a
00009E 5C??           00965         SUBWF   r0x08, W
0000A0 E2??           00966         BC      _00165_DS_
0000A2 0E30           00967         MOVLW   0x30
0000A4 24??           00968         ADDWF   r0x08, W
0000A6 6E??           00969         MOVWF   r0x0b
0000A8 D???           00970         BRA     _00166_DS_
0000AA                00971 _00165_DS_:
0000AA 0E37           00972         MOVLW   0x37
0000AC 24??           00973         ADDWF   r0x08, W
0000AE 6E??           00974         MOVWF   r0x0b
0000B0                00975 _00166_DS_:
0000B0 C??? F???      00976         MOVFF   r0x09, FSR0L
0000B4 C??? F???      00977         MOVFF   r0x0a, FSR0H
0000B8 C??? F???      00978         MOVFF   r0x0b, INDF0
                      00979         .line   220; lib/lcd44780.c     n /= base;
0000BC 50??           00980         MOVF    r0x07, W
0000BE 6EE5           00981         MOVWF   POSTDEC1
0000C0 50??           00982         MOVF    r0x06, W
0000C2 6EE5           00983         MOVWF   POSTDEC1
0000C4 50??           00984         MOVF    r0x01, W
0000C6 6EE5           00985         MOVWF   POSTDEC1
0000C8 50??           00986         MOVF    r0x00, W
0000CA 6EE5           00987         MOVWF   POSTDEC1
0000CC EC?? F0??      00988         CALL    __divuint
0000D0 6E??           00989         MOVWF   r0x00
0000D2 CFF3 F000      00990         MOVFF   PRODL, r0x01
0000D6 0E04           00991         MOVLW   0x04
0000D8 26E1           00992         ADDWF   FSR1L, F
                      00993         .line   221; lib/lcd44780.c     } while(n > 0);
0000DA 50??           00994         MOVF    r0x00, W
0000DC 10??           00995         IORWF   r0x01, W
0000DE A4D8           00996         BTFSS   STATUS, 2
0000E0 D???           00997         BRA     _00153_DS_
                      00998         .line   223; lib/lcd44780.c     while(pad-- >= i) lcd_putch(padchar);
0000E2 C??? F???      00999         MOVFF   r0x05, r0x00
0000E6 C??? F???      01000         MOVFF   r0x03, r0x01
0000EA                01001 _00156_DS_:
0000EA 50??           01002         MOVF    r0x01, W
0000EC 0F80           01003         ADDLW   0x80
gpasm-1.5.0 #1285 (Jul 12 2020) obj/sdcc-18f2   11/12/23  13:12:35          PAGE 20


LOC    OBJECT CODE    LINE  SOURCE TEXT
  VALUE

0000EE 6EF3           01004         MOVWF   PRODL
0000F0 50??           01005         MOVF    r0x00, W
0000F2 0F80           01006         ADDLW   0x80
0000F4 5CF3           01007         SUBWF   PRODL, W
0000F6 E3??           01008         BNC     _00161_DS_
0000F8 06??           01009         DECF    r0x01, F
0000FA 50??           01010         MOVF    r0x04, W
0000FC 6EE5           01011         MOVWF   POSTDEC1
0000FE EC?? F0??      01012         CALL    _lcd_putch
000102 52E6           01013         MOVF    POSTINC1, F
000104 D???           01014         BRA     _00156_DS_
000106                01015 _00161_DS_:
                      01016         .line   225; lib/lcd44780.c     for(; i > 0; i--) lcd_putch((char)buf[(int16_t)i - 1]);
000106 50??           01017         MOVF    r0x00, W
000108 0F80           01018         ADDLW   0x80
00010A 0F7F           01019         ADDLW   0x7f
00010C E3??           01020         BNC     _00163_DS_
00010E 04??           01021         DECF    r0x00, W
000110 6E??           01022         MOVWF   r0x01
000112 C??? F???      01023         MOVFF   r0x01, r0x02
000116 6A??           01024         CLRF    r0x03
000118 BE??           01025         BTFSC   r0x01, 7
00011A 68??           01026         SETF    r0x03
00011C 0E??           01027         MOVLW   LOW(_lcd_print_number_buf_65536_55)
00011E 26??           01028         ADDWF   r0x02, F
000120 0E??           01029         MOVLW   HIGH(_lcd_print_number_buf_65536_55)
000122 22??           01030         ADDWFC  r0x03, F
000124 C??? F???      01031         MOVFF   r0x02, FSR0L
000128 C??? F???      01032         MOVFF   r0x03, FSR0H
00012C CFEF F000      01033         MOVFF   INDF0, r0x02
000130 50??           01034         MOVF    r0x02, W
000132 6EE5           01035         MOVWF   POSTDEC1
000134 EC?? F0??      01036         CALL    _lcd_putch
000138 52E6           01037         MOVF    POSTINC1, F
00013A C??? F???      01038         MOVFF   r0x01, r0x00
00013E D???           01039         BRA     _00161_DS_
000140                01040 _00163_DS_:
                      01041         .line   227; lib/lcd44780.c     }
000140 CFE4 F000      01042         MOVFF   PREINC1, r0x0b
000144 CFE4 F000      01043         MOVFF   PREINC1, r0x0a
000148 CFE4 F000      01044         MOVFF   PREINC1, r0x09
00014C CFE4 F000      01045         MOVFF   PREINC1, r0x08
000150 CFE4 F000      01046         MOVFF   PREINC1, r0x07
000154 CFE4 F000      01047         MOVFF   PREINC1, r0x06
000158 CFE4 F000      01048         MOVFF   PREINC1, r0x05
00015C CFE4 F000      01049         MOVFF   PREINC1, r0x04
000160 CFE4 F000      01050         MOVFF   PREINC1, r0x03
000164 CFE4 F000      01051         MOVFF   PREINC1, r0x02
000168 CFE4 F000      01052         MOVFF   PREINC1, r0x01
00016C CFE4 F000      01053         MOVFF   PREINC1, r0x00
000170 CFE4 FFD9      01054         MOVFF   PREINC1, FSR2L
000174 0012           01055         RETURN  
                      01056 
gpasm-1.5.0 #1285 (Jul 12 2020) obj/sdcc-18f2   11/12/23  13:12:35          PAGE 21


LOC    OBJECT CODE    LINE  SOURCE TEXT
  VALUE

                      01057 ; ; Starting pCode block
                      01058 S_lcd44780__lcd_putch   code
000000                01059 _lcd_putch:
                      01060         .line   170; lib/lcd44780.c     lcd_putch(char value) {
000000 CFD9 FFE5      01061         MOVFF   FSR2L, POSTDEC1
000004 CFE1 FFD9      01062         MOVFF   FSR1L, FSR2L
000008 C??? F???      01063         MOVFF   r0x00, POSTDEC1
00000C 0E02           01064         MOVLW   0x02
00000E CFDB F000      01065         MOVFF   PLUSW2, r0x00
                      01066         .line   171; lib/lcd44780.c     lcd_send((unsigned char)value, HIGH);
000012 0E01           01067         MOVLW   0x01
000014 6EE5           01068         MOVWF   POSTDEC1
000016 50??           01069         MOVF    r0x00, W
000018 6EE5           01070         MOVWF   POSTDEC1
00001A EC?? F0??      01071         CALL    _lcd_send
00001E 52E6           01072         MOVF    POSTINC1, F
000020 52E6           01073         MOVF    POSTINC1, F
                      01074         .line   172; lib/lcd44780.c     }
000022 CFE4 F000      01075         MOVFF   PREINC1, r0x00
000026 CFE4 FFD9      01076         MOVFF   PREINC1, FSR2L
00002A 0012           01077         RETURN  
                      01078 
                      01079 ; ; Starting pCode block
                      01080 S_lcd44780__lcd_puts    code
000000                01081 _lcd_puts:
                      01082         .line   163; lib/lcd44780.c     lcd_puts(const char* string) {
000000 CFD9 FFE5      01083         MOVFF   FSR2L, POSTDEC1
000004 CFE1 FFD9      01084         MOVFF   FSR1L, FSR2L
000008 C??? F???      01085         MOVFF   r0x00, POSTDEC1
00000C C??? F???      01086         MOVFF   r0x01, POSTDEC1
000010 C??? F???      01087         MOVFF   r0x02, POSTDEC1
000014 C??? F???      01088         MOVFF   r0x03, POSTDEC1
000018 C??? F???      01089         MOVFF   r0x04, POSTDEC1
00001C C??? F???      01090         MOVFF   r0x05, POSTDEC1
000020 C??? F???      01091         MOVFF   r0x06, POSTDEC1
000024 0E02           01092         MOVLW   0x02
000026 CFDB F000      01093         MOVFF   PLUSW2, r0x00
00002A 0E03           01094         MOVLW   0x03
00002C CFDB F000      01095         MOVFF   PLUSW2, r0x01
000030 0E04           01096         MOVLW   0x04
000032 CFDB F000      01097         MOVFF   PLUSW2, r0x02
                      01098         .line   165; lib/lcd44780.c     for(i = 0; string[i]; i++) lcd_putch(string[i]);
000036 6A??           01099         CLRF    r0x03
000038                01100 _00139_DS_:
000038 50??           01101         MOVF    r0x03, W
00003A 24??           01102         ADDWF   r0x00, W
00003C 6E??           01103         MOVWF   r0x04
00003E 6AE8           01104         CLRF    WREG
000040 20??           01105         ADDWFC  r0x01, W
000042 6E??           01106         MOVWF   r0x05
000044 6AE8           01107         CLRF    WREG
000046 20??           01108         ADDWFC  r0x02, W
000048 6E??           01109         MOVWF   r0x06
gpasm-1.5.0 #1285 (Jul 12 2020) obj/sdcc-18f2   11/12/23  13:12:35          PAGE 22


LOC    OBJECT CODE    LINE  SOURCE TEXT
  VALUE

00004A C??? F???      01110         MOVFF   r0x04, FSR0L
00004E C??? F???      01111         MOVFF   r0x05, PRODL
000052 50??           01112         MOVF    r0x06, W
000054 EC?? F0??      01113         CALL    __gptrget1
000058 6E??           01114         MOVWF   r0x04
00005A 50??           01115         MOVF    r0x04, W
00005C E0??           01116         BZ      _00141_DS_
00005E 50??           01117         MOVF    r0x04, W
000060 6EE5           01118         MOVWF   POSTDEC1
000062 EC?? F0??      01119         CALL    _lcd_putch
000066 52E6           01120         MOVF    POSTINC1, F
000068 2A??           01121         INCF    r0x03, F
00006A D???           01122         BRA     _00139_DS_
00006C                01123 _00141_DS_:
                      01124         .line   166; lib/lcd44780.c     }
00006C CFE4 F000      01125         MOVFF   PREINC1, r0x06
000070 CFE4 F000      01126         MOVFF   PREINC1, r0x05
000074 CFE4 F000      01127         MOVFF   PREINC1, r0x04
000078 CFE4 F000      01128         MOVFF   PREINC1, r0x03
00007C CFE4 F000      01129         MOVFF   PREINC1, r0x02
000080 CFE4 F000      01130         MOVFF   PREINC1, r0x01
000084 CFE4 F000      01131         MOVFF   PREINC1, r0x00
000088 CFE4 FFD9      01132         MOVFF   PREINC1, FSR2L
00008C 0012           01133         RETURN  
                      01134 
                      01135 ; ; Starting pCode block
                      01136 S_lcd44780__lcd_gotoxy  code
000000                01137 _lcd_gotoxy:
                      01138         .line   135; lib/lcd44780.c     lcd_gotoxy(uint8_t col, uint8_t row) {
000000 CFD9 FFE5      01139         MOVFF   FSR2L, POSTDEC1
000004 CFE1 FFD9      01140         MOVFF   FSR1L, FSR2L
000008 C??? F???      01141         MOVFF   r0x00, POSTDEC1
00000C C??? F???      01142         MOVFF   r0x01, POSTDEC1
000010 C??? F???      01143         MOVFF   r0x02, POSTDEC1
000014 0E02           01144         MOVLW   0x02
000016 CFDB F000      01145         MOVFF   PLUSW2, r0x00
00001A 0E03           01146         MOVLW   0x03
00001C CFDB F000      01147         MOVFF   PLUSW2, r0x01
000020 010?           01148         BANKSEL _lcd_gotoxy_row_offsets_65536_47
                      01149         .line   137; lib/lcd44780.c     uint8_t row_offsets[] = {0x00, 0x40, 0x14, 0x54};
000022 6B??           01150         CLRF    _lcd_gotoxy_row_offsets_65536_47, B
000024 0E40           01151         MOVLW   0x40
000026 010?           01152         BANKSEL (_lcd_gotoxy_row_offsets_65536_47 + 1)
000028 6F??           01153         MOVWF   (_lcd_gotoxy_row_offsets_65536_47 + 1), B
00002A 0E14           01154         MOVLW   0x14
00002C 010?           01155         BANKSEL (_lcd_gotoxy_row_offsets_65536_47 + 2)
00002E 6F??           01156         MOVWF   (_lcd_gotoxy_row_offsets_65536_47 + 2), B
000030 0E54           01157         MOVLW   0x54
000032 010?           01158         BANKSEL (_lcd_gotoxy_row_offsets_65536_47 + 3)
000034 6F??           01159         MOVWF   (_lcd_gotoxy_row_offsets_65536_47 + 3), B
000036 010?           01160         BANKSEL _LCD_lines
                      01161         .line   146; lib/lcd44780.c     if(LCD_lines == 1) {
000038 51??           01162         MOVF    _LCD_lines, W, B
gpasm-1.5.0 #1285 (Jul 12 2020) obj/sdcc-18f2   11/12/23  13:12:35          PAGE 23


LOC    OBJECT CODE    LINE  SOURCE TEXT
  VALUE

00003A 0A01           01163         XORLW   0x01
00003C E1??           01164         BNZ     _00124_DS_
                      01165         .line   147; lib/lcd44780.c     row_offsets[1] = 0x14;
00003E 0E14           01166         MOVLW   0x14
000040 010?           01167         BANKSEL (_lcd_gotoxy_row_offsets_65536_47 + 1)
000042 6F??           01168         MOVWF   (_lcd_gotoxy_row_offsets_65536_47 + 1), B
                      01169         .line   148; lib/lcd44780.c     row_offsets[2] = 0x28;
000044 0E28           01170         MOVLW   0x28
000046 010?           01171         BANKSEL (_lcd_gotoxy_row_offsets_65536_47 + 2)
000048 6F??           01172         MOVWF   (_lcd_gotoxy_row_offsets_65536_47 + 2), B
                      01173         .line   149; lib/lcd44780.c     row_offsets[3] = 0x3C;
00004A 0E3C           01174         MOVLW   0x3c
00004C 010?           01175         BANKSEL (_lcd_gotoxy_row_offsets_65536_47 + 3)
00004E 6F??           01176         MOVWF   (_lcd_gotoxy_row_offsets_65536_47 + 3), B
000050                01177 _00124_DS_:
                      01178         .line   156; lib/lcd44780.c     lcd_command(LCD_SETDDRAMADDR | (col + row_offsets[row]));
000050 6A??           01179         CLRF    r0x02
000052 0E??           01180         MOVLW   LOW(_lcd_gotoxy_row_offsets_65536_47)
000054 26??           01181         ADDWF   r0x01, F
000056 0E??           01182         MOVLW   HIGH(_lcd_gotoxy_row_offsets_65536_47)
000058 22??           01183         ADDWFC  r0x02, F
00005A C??? F???      01184         MOVFF   r0x01, FSR0L
00005E C??? F???      01185         MOVFF   r0x02, FSR0H
000062 CFEF F000      01186         MOVFF   INDF0, r0x01
000066 50??           01187         MOVF    r0x01, W
000068 26??           01188         ADDWF   r0x00, F
00006A 8E??           01189         BSF     r0x00, 7
00006C 50??           01190         MOVF    r0x00, W
00006E 6EE5           01191         MOVWF   POSTDEC1
000070 EC?? F0??      01192         CALL    _lcd_command
000074 52E6           01193         MOVF    POSTINC1, F
                      01194         .line   157; lib/lcd44780.c     }
000076 CFE4 F000      01195         MOVFF   PREINC1, r0x02
00007A CFE4 F000      01196         MOVFF   PREINC1, r0x01
00007E CFE4 F000      01197         MOVFF   PREINC1, r0x00
000082 CFE4 FFD9      01198         MOVFF   PREINC1, FSR2L
000086 0012           01199         RETURN  
                      01200 
                      01201 ; ; Starting pCode block
                      01202 S_lcd44780__lcd_command code
000000                01203 _lcd_command:
                      01204         .line   127; lib/lcd44780.c     lcd_command(uint8_t value) {
000000 CFD9 FFE5      01205         MOVFF   FSR2L, POSTDEC1
000004 CFE1 FFD9      01206         MOVFF   FSR1L, FSR2L
000008 C??? F???      01207         MOVFF   r0x00, POSTDEC1
00000C 0E02           01208         MOVLW   0x02
00000E CFDB F000      01209         MOVFF   PLUSW2, r0x00
                      01210         .line   128; lib/lcd44780.c     lcd_send(value, LOW);
000012 0E00           01211         MOVLW   0x00
000014 6EE5           01212         MOVWF   POSTDEC1
000016 50??           01213         MOVF    r0x00, W
000018 6EE5           01214         MOVWF   POSTDEC1
00001A EC?? F0??      01215         CALL    _lcd_send
gpasm-1.5.0 #1285 (Jul 12 2020) obj/sdcc-18f2   11/12/23  13:12:35          PAGE 24


LOC    OBJECT CODE    LINE  SOURCE TEXT
  VALUE

00001E 52E6           01216         MOVF    POSTINC1, F
000020 52E6           01217         MOVF    POSTINC1, F
                      01218         .line   129; lib/lcd44780.c     }
000022 CFE4 F000      01219         MOVFF   PREINC1, r0x00
000026 CFE4 FFD9      01220         MOVFF   PREINC1, FSR2L
00002A 0012           01221         RETURN  
                      01222 
                      01223 ; ; Starting pCode block
                      01224 S_lcd44780__lcd_send    code
000000                01225 _lcd_send:
                      01226         .line   103; lib/lcd44780.c     lcd_send(uint8_t value, uint8_t mode) {
000000 CFD9 FFE5      01227         MOVFF   FSR2L, POSTDEC1
000004 CFE1 FFD9      01228         MOVFF   FSR1L, FSR2L
000008 C??? F???      01229         MOVFF   r0x00, POSTDEC1
00000C C??? F???      01230         MOVFF   r0x01, POSTDEC1
000010 0E02           01231         MOVLW   0x02
000012 CFDB F000      01232         MOVFF   PLUSW2, r0x00
000016 0E03           01233         MOVLW   0x03
000018 CFDB F000      01234         MOVFF   PLUSW2, r0x01
                      01235         .line   104; lib/lcd44780.c     if(mode) {
00001C 50??           01236         MOVF    r0x01, W
00001E E0??           01237         BZ      _00111_DS_
                      01238         .line   105; lib/lcd44780.c     RS_HIGH();
000020 84??           01239         BSF     _LATB, 2
000022 D???           01240         BRA     _00112_DS_
000024                01241 _00111_DS_:
                      01242         .line   107; lib/lcd44780.c     RS_LOW();
000024 94??           01243         BCF     _LATB, 2
000026                01244 _00112_DS_:
                      01245         .line   116; lib/lcd44780.c     lcd_write4bits(value >> 4); // Upper 4 bits first
000026 38??           01246         SWAPF   r0x00, W
000028 0B0F           01247         ANDLW   0x0f
00002A 6E??           01248         MOVWF   r0x01
00002C 50??           01249         MOVF    r0x01, W
00002E 6EE5           01250         MOVWF   POSTDEC1
000030 EC?? F0??      01251         CALL    _lcd_write4bits
000034 52E6           01252         MOVF    POSTINC1, F
                      01253         .line   117; lib/lcd44780.c     lcd_write4bits(value);      // Lower 4 bits second
000036 50??           01254         MOVF    r0x00, W
000038 6EE5           01255         MOVWF   POSTDEC1
00003A EC?? F0??      01256         CALL    _lcd_write4bits
00003E 52E6           01257         MOVF    POSTINC1, F
                      01258         .line   119; lib/lcd44780.c     }
000040 CFE4 F000      01259         MOVFF   PREINC1, r0x01
000044 CFE4 F000      01260         MOVFF   PREINC1, r0x00
000048 CFE4 FFD9      01261         MOVFF   PREINC1, FSR2L
00004C 0012           01262         RETURN  
                      01263 
                      01264 ; ; Starting pCode block
                      01265 S_lcd44780__lcd_write4bits      code
000000                01266 _lcd_write4bits:
                      01267         .line   34; lib/lcd44780.c      lcd_write4bits(uint8_t value) {
000000 CFD9 FFE5      01268         MOVFF   FSR2L, POSTDEC1
gpasm-1.5.0 #1285 (Jul 12 2020) obj/sdcc-18f2   11/12/23  13:12:35          PAGE 25


LOC    OBJECT CODE    LINE  SOURCE TEXT
  VALUE

000004 CFE1 FFD9      01269         MOVFF   FSR1L, FSR2L
000008 C??? F???      01270         MOVFF   r0x00, POSTDEC1
00000C C??? F???      01271         MOVFF   r0x01, POSTDEC1
000010 0E02           01272         MOVLW   0x02
000012 CFDB F000      01273         MOVFF   PLUSW2, r0x00
                      01274         .line   39; lib/lcd44780.c      OUTB &= 0b00001111;
000016 0E0F           01275         MOVLW   0x0f
000018 16??           01276         ANDWF   _LATB, F
                      01277         .line   40; lib/lcd44780.c      OUTB |= value << 4;
00001A 38??           01278         SWAPF   r0x00, W
00001C 0BF0           01279         ANDLW   0xf0
00001E 6E??           01280         MOVWF   r0x01
000020 50??           01281         MOVF    r0x01, W
000022 12??           01282         IORWF   _LATB, F
                      01283         .line   55; lib/lcd44780.c      lcd_pulse_enable();
000024 86??           01284         BSF     _LATB, 3
000026 0E04           01285         MOVLW   0x04
000028 6EE5           01286         MOVWF   POSTDEC1
00002A EC?? F0??      01287         CALL    _delay_us
00002E 52E6           01288         MOVF    POSTINC1, F
000030 96??           01289         BCF     _LATB, 3
000032 0E64           01290         MOVLW   0x64
000034 6EE5           01291         MOVWF   POSTDEC1
000036 EC?? F0??      01292         CALL    _delay_us
00003A 52E6           01293         MOVF    POSTINC1, F
                      01294         .line   60; lib/lcd44780.c      }
00003C CFE4 F000      01295         MOVFF   PREINC1, r0x01
000040 CFE4 F000      01296         MOVFF   PREINC1, r0x00
000044 CFE4 FFD9      01297         MOVFF   PREINC1, FSR2L
000048 0012           01298         RETURN  
                      01299 
                      01300 
                      01301 
                      01302 ; Statistics:
                      01303 ; code size:     1656 (0x0678) bytes ( 1.26%)
                      01304 ;                 828 (0x033c) words
                      01305 ; udata size:      40 (0x0028) bytes ( 3.12%)
                      01306 ; access size:     12 (0x000c) bytes
                      01307 
                      01308 
                      01309         end
gpasm-1.5.0 #1285 (Jul 12 2020) obj/sdcc-18f2   11/12/23  13:12:35          PAGE 26


SYMBOL TABLE
  LABEL                              TYPE        VALUE         VALUE          VALUE
                                                 (hex)         (dec)          (text)

FSR0H                             CONSTANT      00000FEA           4074
FSR0L                             CONSTANT      00000FE9           4073
FSR1L                             CONSTANT      00000FE1           4065
FSR2L                             CONSTANT      00000FD9           4057
INDF0                             CONSTANT      00000FEF           4079
PLUSW2                            CONSTANT      00000FDB           4059
POSTDEC1                          CONSTANT      00000FE5           4069
POSTINC1                          CONSTANT      00000FE6           4070
PREINC1                           CONSTANT      00000FE4           4068
PRODL                             CONSTANT      00000FF3           4083
STATUS                            CONSTANT      00000FD8           4056
WREG                              CONSTANT      00000FE8           4072
_00111_DS_                        ADDRESS       00000024             36
_00112_DS_                        ADDRESS       00000026             38
_00124_DS_                        ADDRESS       00000050             80
_00139_DS_                        ADDRESS       00000038             56
_00141_DS_                        ADDRESS       0000006C            108
_00153_DS_                        ADDRESS       00000064            100
_00156_DS_                        ADDRESS       000000EA            234
_00161_DS_                        ADDRESS       00000106            262
_00163_DS_                        ADDRESS       00000140            320
_00165_DS_                        ADDRESS       000000AA            170
_00166_DS_                        ADDRESS       000000B0            176
_00169_DS_                        ADDRESS       00000062             98
_00249_DS_                        ADDRESS       00000026             38
_00251_DS_                        ADDRESS       00000038             56
_00254_DS_                        ADDRESS       000000A2            162
_00255_DS_                        ADDRESS       000000F8            248
_00277_DS_                        ADDRESS       00000034             52
_00288_DS_                        ADDRESS       00000024             36
_00289_DS_                        ADDRESS       0000002A             42
_ADCON0                           EXTERNAL      00000000              0
_ADCON0bits                       EXTERNAL      00000000              0
_ADCON1                           EXTERNAL      00000000              0
_ADCON1bits                       EXTERNAL      00000000              0
_ADCON2                           EXTERNAL      00000000              0
_ADCON2bits                       EXTERNAL      00000000              0
_ADRES                            EXTERNAL      00000000              0
_ADRESH                           EXTERNAL      00000000              0
_ADRESL                           EXTERNAL      00000000              0
_ANSELA                           EXTERNAL      00000000              0
_ANSELAbits                       EXTERNAL      00000000              0
_ANSELB                           EXTERNAL      00000000              0
_ANSELBbits                       EXTERNAL      00000000              0
_ANSELC                           EXTERNAL      00000000              0
_ANSELCbits                       EXTERNAL      00000000              0
_BAUDCON                          EXTERNAL      00000000              0
_BAUDCONbits                      EXTERNAL      00000000              0
_BAUDCON1                         EXTERNAL      00000000              0
_BAUDCON1bits                     EXTERNAL      00000000              0
_BAUDCON2                         EXTERNAL      00000000              0
_BAUDCON2bits                     EXTERNAL      00000000              0
gpasm-1.5.0 #1285 (Jul 12 2020) obj/sdcc-18f2   11/12/23  13:12:35          PAGE 27


SYMBOL TABLE
  LABEL                              TYPE        VALUE         VALUE          VALUE
                                                 (hex)         (dec)          (text)

_BAUDCTL                          EXTERNAL      00000000              0
_BAUDCTLbits                      EXTERNAL      00000000              0
_BAUD1CON                         EXTERNAL      00000000              0
_BAUD1CONbits                     EXTERNAL      00000000              0
_BAUD2CON                         EXTERNAL      00000000              0
_BAUD2CONbits                     EXTERNAL      00000000              0
_BSR                              EXTERNAL      00000000              0
_CCPR1                            EXTERNAL      00000000              0
_CCPR1H                           EXTERNAL      00000000              0
_CCPR1L                           EXTERNAL      00000000              0
_CCPR2                            EXTERNAL      00000000              0
_CCPR2H                           EXTERNAL      00000000              0
_CCPR2L                           EXTERNAL      00000000              0
_CCPR3                            EXTERNAL      00000000              0
_CCPR3H                           EXTERNAL      00000000              0
_CCPR3L                           EXTERNAL      00000000              0
_CCPR4                            EXTERNAL      00000000              0
_CCPR4H                           EXTERNAL      00000000              0
_CCPR4L                           EXTERNAL      00000000              0
_CCPR5                            EXTERNAL      00000000              0
_CCPR5H                           EXTERNAL      00000000              0
_CCPR5L                           EXTERNAL      00000000              0
_CCPTMRS0                         EXTERNAL      00000000              0
_CCPTMRS0bits                     EXTERNAL      00000000              0
_CCPTMRS1                         EXTERNAL      00000000              0
_CCPTMRS1bits                     EXTERNAL      00000000              0
_CCP1CON                          EXTERNAL      00000000              0
_CCP1CONbits                      EXTERNAL      00000000              0
_CCP2AS                           EXTERNAL      00000000              0
_CCP2ASbits                       EXTERNAL      00000000              0
_CCP2CON                          EXTERNAL      00000000              0
_CCP2CONbits                      EXTERNAL      00000000              0
_CCP3AS                           EXTERNAL      00000000              0
_CCP3ASbits                       EXTERNAL      00000000              0
_CCP3CON                          EXTERNAL      00000000              0
_CCP3CONbits                      EXTERNAL      00000000              0
_CCP4CON                          EXTERNAL      00000000              0
_CCP4CONbits                      EXTERNAL      00000000              0
_CCP5CON                          EXTERNAL      00000000              0
_CCP5CONbits                      EXTERNAL      00000000              0
_CM1CON                           EXTERNAL      00000000              0
_CM1CON0                          EXTERNAL      00000000              0
_CM1CON0bits                      EXTERNAL      00000000              0
_CM1CONbits                       EXTERNAL      00000000              0
_CM2CON                           EXTERNAL      00000000              0
_CM2CON0                          EXTERNAL      00000000              0
_CM2CON0bits                      EXTERNAL      00000000              0
_CM2CONbits                       EXTERNAL      00000000              0
_CM2CON1                          EXTERNAL      00000000              0
_CM2CON1bits                      EXTERNAL      00000000              0
_CM12CON                          EXTERNAL      00000000              0
_CM12CONbits                      EXTERNAL      00000000              0
gpasm-1.5.0 #1285 (Jul 12 2020) obj/sdcc-18f2   11/12/23  13:12:35          PAGE 28


SYMBOL TABLE
  LABEL                              TYPE        VALUE         VALUE          VALUE
                                                 (hex)         (dec)          (text)

_CTMUCON0                         EXTERNAL      00000000              0
_CTMUCON0bits                     EXTERNAL      00000000              0
_CTMUCONH                         EXTERNAL      00000000              0
_CTMUCONHbits                     EXTERNAL      00000000              0
_CTMUCONL                         EXTERNAL      00000000              0
_CTMUCONLbits                     EXTERNAL      00000000              0
_CTMUCON1                         EXTERNAL      00000000              0
_CTMUCON1bits                     EXTERNAL      00000000              0
_CTMUICON                         EXTERNAL      00000000              0
_CTMUICONH                        EXTERNAL      00000000              0
_CTMUICONHbits                    EXTERNAL      00000000              0
_CTMUICONbits                     EXTERNAL      00000000              0
_DACCON0                          EXTERNAL      00000000              0
_DACCON0bits                      EXTERNAL      00000000              0
_DACCON1                          EXTERNAL      00000000              0
_DACCON1bits                      EXTERNAL      00000000              0
_DDRA                             EXTERNAL      00000000              0
_DDRAbits                         EXTERNAL      00000000              0
_DDRB                             EXTERNAL      00000000              0
_DDRBbits                         EXTERNAL      00000000              0
_DDRC                             EXTERNAL      00000000              0
_DDRCbits                         EXTERNAL      00000000              0
_ECCPAS                           EXTERNAL      00000000              0
_ECCPASbits                       EXTERNAL      00000000              0
_ECCP1AS                          EXTERNAL      00000000              0
_ECCP1ASbits                      EXTERNAL      00000000              0
_ECCP2AS                          EXTERNAL      00000000              0
_ECCP2ASbits                      EXTERNAL      00000000              0
_ECCP3AS                          EXTERNAL      00000000              0
_ECCP3ASbits                      EXTERNAL      00000000              0
_EEADR                            EXTERNAL      00000000              0
_EEADRbits                        EXTERNAL      00000000              0
_EECON1                           EXTERNAL      00000000              0
_EECON1bits                       EXTERNAL      00000000              0
_EECON2                           EXTERNAL      00000000              0
_EEDATA                           EXTERNAL      00000000              0
_FSR0H                            EXTERNAL      00000000              0
_FSR0L                            EXTERNAL      00000000              0
_FSR1H                            EXTERNAL      00000000              0
_FSR1L                            EXTERNAL      00000000              0
_FSR2H                            EXTERNAL      00000000              0
_FSR2L                            EXTERNAL      00000000              0
_FVRCON                           EXTERNAL      00000000              0
_FVRCONbits                       EXTERNAL      00000000              0
_HLVDCON                          EXTERNAL      00000000              0
_HLVDCONbits                      EXTERNAL      00000000              0
_INDF0                            EXTERNAL      00000000              0
_INDF1                            EXTERNAL      00000000              0
_INDF2                            EXTERNAL      00000000              0
_INTCON                           EXTERNAL      00000000              0
_INTCONbits                       EXTERNAL      00000000              0
_INTCON2                          EXTERNAL      00000000              0
gpasm-1.5.0 #1285 (Jul 12 2020) obj/sdcc-18f2   11/12/23  13:12:35          PAGE 29


SYMBOL TABLE
  LABEL                              TYPE        VALUE         VALUE          VALUE
                                                 (hex)         (dec)          (text)

_INTCON2bits                      EXTERNAL      00000000              0
_INTCON3                          EXTERNAL      00000000              0
_INTCON3bits                      EXTERNAL      00000000              0
_IOCB                             EXTERNAL      00000000              0
_IOCBbits                         EXTERNAL      00000000              0
_IPR1                             EXTERNAL      00000000              0
_IPR1bits                         EXTERNAL      00000000              0
_IPR2                             EXTERNAL      00000000              0
_IPR2bits                         EXTERNAL      00000000              0
_IPR3                             EXTERNAL      00000000              0
_IPR3bits                         EXTERNAL      00000000              0
_IPR4                             EXTERNAL      00000000              0
_IPR4bits                         EXTERNAL      00000000              0
_IPR5                             EXTERNAL      00000000              0
_IPR5bits                         EXTERNAL      00000000              0
_LATA                             EXTERNAL      00000000              0
_LATAbits                         EXTERNAL      00000000              0
_LATB                             EXTERNAL      00000000              0
_LATBbits                         EXTERNAL      00000000              0
_LATC                             EXTERNAL      00000000              0
_LATCbits                         EXTERNAL      00000000              0
_LCD_ctrl                         STATIC        00000000              0
_LCD_function                     STATIC        00000000              0
_LCD_lines                        STATIC        00000000              0
_LCD_mode                         STATIC        00000000              0
_LVDCON                           EXTERNAL      00000000              0
_LVDCONbits                       EXTERNAL      00000000              0
_OSCCON                           EXTERNAL      00000000              0
_OSCCONbits                       EXTERNAL      00000000              0
_OSCCON2                          EXTERNAL      00000000              0
_OSCCON2bits                      EXTERNAL      00000000              0
_OSCTUNE                          EXTERNAL      00000000              0
_OSCTUNEbits                      EXTERNAL      00000000              0
_PC                               EXTERNAL      00000000              0
_PCL                              EXTERNAL      00000000              0
_PCLATH                           EXTERNAL      00000000              0
_PCLATU                           EXTERNAL      00000000              0
_PIE1                             EXTERNAL      00000000              0
_PIE1bits                         EXTERNAL      00000000              0
_PIE2                             EXTERNAL      00000000              0
_PIE2bits                         EXTERNAL      00000000              0
_PIE3                             EXTERNAL      00000000              0
_PIE3bits                         EXTERNAL      00000000              0
_PIE4                             EXTERNAL      00000000              0
_PIE4bits                         EXTERNAL      00000000              0
_PIE5                             EXTERNAL      00000000              0
_PIE5bits                         EXTERNAL      00000000              0
_PIR1                             EXTERNAL      00000000              0
_PIR1bits                         EXTERNAL      00000000              0
_PIR2                             EXTERNAL      00000000              0
_PIR2bits                         EXTERNAL      00000000              0
_PIR3                             EXTERNAL      00000000              0
gpasm-1.5.0 #1285 (Jul 12 2020) obj/sdcc-18f2   11/12/23  13:12:35          PAGE 30


SYMBOL TABLE
  LABEL                              TYPE        VALUE         VALUE          VALUE
                                                 (hex)         (dec)          (text)

_PIR3bits                         EXTERNAL      00000000              0
_PIR4                             EXTERNAL      00000000              0
_PIR4bits                         EXTERNAL      00000000              0
_PIR5                             EXTERNAL      00000000              0
_PIR5bits                         EXTERNAL      00000000              0
_PLUSW0                           EXTERNAL      00000000              0
_PLUSW1                           EXTERNAL      00000000              0
_PLUSW2                           EXTERNAL      00000000              0
_PMD0                             EXTERNAL      00000000              0
_PMD0bits                         EXTERNAL      00000000              0
_PMD1                             EXTERNAL      00000000              0
_PMD1bits                         EXTERNAL      00000000              0
_PMD2                             EXTERNAL      00000000              0
_PMD2bits                         EXTERNAL      00000000              0
_PORTA                            EXTERNAL      00000000              0
_PORTAbits                        EXTERNAL      00000000              0
_PORTB                            EXTERNAL      00000000              0
_PORTBbits                        EXTERNAL      00000000              0
_PORTC                            EXTERNAL      00000000              0
_PORTCbits                        EXTERNAL      00000000              0
_PORTE                            EXTERNAL      00000000              0
_PORTEbits                        EXTERNAL      00000000              0
_POSTDEC0                         EXTERNAL      00000000              0
_POSTDEC1                         EXTERNAL      00000000              0
_POSTDEC2                         EXTERNAL      00000000              0
_POSTINC0                         EXTERNAL      00000000              0
_POSTINC1                         EXTERNAL      00000000              0
_POSTINC2                         EXTERNAL      00000000              0
_PREINC0                          EXTERNAL      00000000              0
_PREINC1                          EXTERNAL      00000000              0
_PREINC2                          EXTERNAL      00000000              0
_PROD                             EXTERNAL      00000000              0
_PRODH                            EXTERNAL      00000000              0
_PRODL                            EXTERNAL      00000000              0
_PR2                              EXTERNAL      00000000              0
_PR4                              EXTERNAL      00000000              0
_PR6                              EXTERNAL      00000000              0
_PSTRCON                          EXTERNAL      00000000              0
_PSTRCONbits                      EXTERNAL      00000000              0
_PSTR1CON                         EXTERNAL      00000000              0
_PSTR1CONbits                     EXTERNAL      00000000              0
_PSTR2CON                         EXTERNAL      00000000              0
_PSTR2CONbits                     EXTERNAL      00000000              0
_PSTR3CON                         EXTERNAL      00000000              0
_PSTR3CONbits                     EXTERNAL      00000000              0
_PWMCON                           EXTERNAL      00000000              0
_PWMCONbits                       EXTERNAL      00000000              0
_PWM1CON                          EXTERNAL      00000000              0
_PWM1CONbits                      EXTERNAL      00000000              0
_PWM2CON                          EXTERNAL      00000000              0
_PWM2CONbits                      EXTERNAL      00000000              0
_PWM3CON                          EXTERNAL      00000000              0
gpasm-1.5.0 #1285 (Jul 12 2020) obj/sdcc-18f2   11/12/23  13:12:35          PAGE 31


SYMBOL TABLE
  LABEL                              TYPE        VALUE         VALUE          VALUE
                                                 (hex)         (dec)          (text)

_PWM3CONbits                      EXTERNAL      00000000              0
_RCON                             EXTERNAL      00000000              0
_RCONbits                         EXTERNAL      00000000              0
_RCREG                            EXTERNAL      00000000              0
_RCREG1                           EXTERNAL      00000000              0
_RCREG2                           EXTERNAL      00000000              0
_RCSTA                            EXTERNAL      00000000              0
_RCSTAbits                        EXTERNAL      00000000              0
_RCSTA1                           EXTERNAL      00000000              0
_RCSTA1bits                       EXTERNAL      00000000              0
_RCSTA2                           EXTERNAL      00000000              0
_RCSTA2bits                       EXTERNAL      00000000              0
_RC1REG                           EXTERNAL      00000000              0
_RC1STA                           EXTERNAL      00000000              0
_RC1STAbits                       EXTERNAL      00000000              0
_RC2REG                           EXTERNAL      00000000              0
_RC2STA                           EXTERNAL      00000000              0
_RC2STAbits                       EXTERNAL      00000000              0
_SLRCON                           EXTERNAL      00000000              0
_SLRCONbits                       EXTERNAL      00000000              0
_SPBRG                            EXTERNAL      00000000              0
_SPBRGH                           EXTERNAL      00000000              0
_SPBRGH1                          EXTERNAL      00000000              0
_SPBRGH2                          EXTERNAL      00000000              0
_SPBRG1                           EXTERNAL      00000000              0
_SPBRG2                           EXTERNAL      00000000              0
_SP1BRG                           EXTERNAL      00000000              0
_SP1BRGH                          EXTERNAL      00000000              0
_SP2BRG                           EXTERNAL      00000000              0
_SP2BRGH                          EXTERNAL      00000000              0
_SRCON0                           EXTERNAL      00000000              0
_SRCON0bits                       EXTERNAL      00000000              0
_SRCON1                           EXTERNAL      00000000              0
_SRCON1bits                       EXTERNAL      00000000              0
_SSPADD                           EXTERNAL      00000000              0
_SSPBUF                           EXTERNAL      00000000              0
_SSPCON1                          EXTERNAL      00000000              0
_SSPCON1bits                      EXTERNAL      00000000              0
_SSPCON2                          EXTERNAL      00000000              0
_SSPCON2bits                      EXTERNAL      00000000              0
_SSPCON3                          EXTERNAL      00000000              0
_SSPCON3bits                      EXTERNAL      00000000              0
_SSPMSK                           EXTERNAL      00000000              0
_SSPMSKbits                       EXTERNAL      00000000              0
_SSPSTAT                          EXTERNAL      00000000              0
_SSPSTATbits                      EXTERNAL      00000000              0
_SSP1ADD                          EXTERNAL      00000000              0
_SSP1BUF                          EXTERNAL      00000000              0
_SSP1CON1                         EXTERNAL      00000000              0
_SSP1CON1bits                     EXTERNAL      00000000              0
_SSP1CON2                         EXTERNAL      00000000              0
_SSP1CON2bits                     EXTERNAL      00000000              0
gpasm-1.5.0 #1285 (Jul 12 2020) obj/sdcc-18f2   11/12/23  13:12:35          PAGE 32


SYMBOL TABLE
  LABEL                              TYPE        VALUE         VALUE          VALUE
                                                 (hex)         (dec)          (text)

_SSP1CON3                         EXTERNAL      00000000              0
_SSP1CON3bits                     EXTERNAL      00000000              0
_SSP1MSK                          EXTERNAL      00000000              0
_SSP1MSKbits                      EXTERNAL      00000000              0
_SSP1STAT                         EXTERNAL      00000000              0
_SSP1STATbits                     EXTERNAL      00000000              0
_SSP2ADD                          EXTERNAL      00000000              0
_SSP2BUF                          EXTERNAL      00000000              0
_SSP2CON1                         EXTERNAL      00000000              0
_SSP2CON1bits                     EXTERNAL      00000000              0
_SSP2CON2                         EXTERNAL      00000000              0
_SSP2CON2bits                     EXTERNAL      00000000              0
_SSP2CON3                         EXTERNAL      00000000              0
_SSP2CON3bits                     EXTERNAL      00000000              0
_SSP2MSK                          EXTERNAL      00000000              0
_SSP2MSKbits                      EXTERNAL      00000000              0
_SSP2STAT                         EXTERNAL      00000000              0
_SSP2STATbits                     EXTERNAL      00000000              0
_STATUS                           EXTERNAL      00000000              0
_STATUSbits                       EXTERNAL      00000000              0
_STKPTR                           EXTERNAL      00000000              0
_STKPTRbits                       EXTERNAL      00000000              0
_T0CON                            EXTERNAL      00000000              0
_T0CONbits                        EXTERNAL      00000000              0
_TABLAT                           EXTERNAL      00000000              0
_TBLPTR                           EXTERNAL      00000000              0
_TBLPTRH                          EXTERNAL      00000000              0
_TBLPTRL                          EXTERNAL      00000000              0
_TBLPTRU                          EXTERNAL      00000000              0
_TMR0                             EXTERNAL      00000000              0
_TMR0H                            EXTERNAL      00000000              0
_TMR0L                            EXTERNAL      00000000              0
_TMR1                             EXTERNAL      00000000              0
_TMR1H                            EXTERNAL      00000000              0
_TMR1L                            EXTERNAL      00000000              0
_TMR2                             EXTERNAL      00000000              0
_TMR3                             EXTERNAL      00000000              0
_TMR3H                            EXTERNAL      00000000              0
_TMR3L                            EXTERNAL      00000000              0
_TMR4                             EXTERNAL      00000000              0
_TMR5                             EXTERNAL      00000000              0
_TMR5H                            EXTERNAL      00000000              0
_TMR5L                            EXTERNAL      00000000              0
_TMR6                             EXTERNAL      00000000              0
_TOS                              EXTERNAL      00000000              0
_TOSH                             EXTERNAL      00000000              0
_TOSL                             EXTERNAL      00000000              0
_TOSU                             EXTERNAL      00000000              0
_TRISA                            EXTERNAL      00000000              0
_TRISAbits                        EXTERNAL      00000000              0
_TRISB                            EXTERNAL      00000000              0
_TRISBbits                        EXTERNAL      00000000              0
gpasm-1.5.0 #1285 (Jul 12 2020) obj/sdcc-18f2   11/12/23  13:12:35          PAGE 33


SYMBOL TABLE
  LABEL                              TYPE        VALUE         VALUE          VALUE
                                                 (hex)         (dec)          (text)

_TRISC                            EXTERNAL      00000000              0
_TRISCbits                        EXTERNAL      00000000              0
_TRISE                            EXTERNAL      00000000              0
_TRISEbits                        EXTERNAL      00000000              0
_TXREG                            EXTERNAL      00000000              0
_TXREG1                           EXTERNAL      00000000              0
_TXREG2                           EXTERNAL      00000000              0
_TXSTA                            EXTERNAL      00000000              0
_TXSTAbits                        EXTERNAL      00000000              0
_TXSTA1                           EXTERNAL      00000000              0
_TXSTA1bits                       EXTERNAL      00000000              0
_TXSTA2                           EXTERNAL      00000000              0
_TXSTA2bits                       EXTERNAL      00000000              0
_TX1REG                           EXTERNAL      00000000              0
_TX1STA                           EXTERNAL      00000000              0
_TX1STAbits                       EXTERNAL      00000000              0
_TX2REG                           EXTERNAL      00000000              0
_TX2STA                           EXTERNAL      00000000              0
_TX2STAbits                       EXTERNAL      00000000              0
_T1CON                            EXTERNAL      00000000              0
_T1CONbits                        EXTERNAL      00000000              0
_T1GCON                           EXTERNAL      00000000              0
_T1GCONbits                       EXTERNAL      00000000              0
_T2CON                            EXTERNAL      00000000              0
_T2CONbits                        EXTERNAL      00000000              0
_T3CON                            EXTERNAL      00000000              0
_T3CONbits                        EXTERNAL      00000000              0
_T3GCON                           EXTERNAL      00000000              0
_T3GCONbits                       EXTERNAL      00000000              0
_T4CON                            EXTERNAL      00000000              0
_T4CONbits                        EXTERNAL      00000000              0
_T5CON                            EXTERNAL      00000000              0
_T5CONbits                        EXTERNAL      00000000              0
_T5GCON                           EXTERNAL      00000000              0
_T5GCONbits                       EXTERNAL      00000000              0
_T6CON                            EXTERNAL      00000000              0
_T6CONbits                        EXTERNAL      00000000              0
_VREFCON0                         EXTERNAL      00000000              0
_VREFCON0bits                     EXTERNAL      00000000              0
_VREFCON1                         EXTERNAL      00000000              0
_VREFCON1bits                     EXTERNAL      00000000              0
_VREFCON2                         EXTERNAL      00000000              0
_VREFCON2bits                     EXTERNAL      00000000              0
_WDTCON                           EXTERNAL      00000000              0
_WDTCONbits                       EXTERNAL      00000000              0
_WPUB                             EXTERNAL      00000000              0
_WPUBbits                         EXTERNAL      00000000              0
_WREG                             EXTERNAL      00000000              0
__ACC_RAM_LOW_END                 CONSTANT      0000005F             95
__ACC_RAM_LOW_START               CONSTANT      00000000              0
__ACTIVE_BANK_ADDR                VARIABLE      FFFFFFFF             -1
__ASSUMED_BANK_ADDR               VARIABLE      FFFFFFFF             -1
gpasm-1.5.0 #1285 (Jul 12 2020) obj/sdcc-18f2   11/12/23  13:12:35          PAGE 34


SYMBOL TABLE
  LABEL                              TYPE        VALUE         VALUE          VALUE
                                                 (hex)         (dec)          (text)

__BANK_0                          CONSTANT      00000000              0
__BANK_BITS                       CONSTANT      00000F00           3840
__BANK_FIRST                      CONSTANT      00000000              0
__BANK_INV                        CONSTANT      FFFFFFFF             -1
__BANK_LAST                       CONSTANT      00000F00           3840
__BANK_MASK                       CONSTANT      000000FF            255
__BANK_SHIFT                      CONSTANT      00000008              8
__BANK_SIZE                       CONSTANT      00000100            256
__BANK_1                          CONSTANT      00000100            256
__BANK_2                          CONSTANT      00000200            512
__BANK_3                          CONSTANT      00000300            768
__BANK_4                          CONSTANT      00000400           1024
__BANK_5                          CONSTANT      00000500           1280
__BANK_6                          CONSTANT      00000600           1536
__BANK_7                          CONSTANT      00000700           1792
__BANK_8                          CONSTANT      00000800           2048
__BANK_9                          CONSTANT      00000900           2304
__BANK_10                         CONSTANT      00000A00           2560
__BANK_11                         CONSTANT      00000B00           2816
__BANK_12                         CONSTANT      00000C00           3072
__BANK_13                         CONSTANT      00000D00           3328
__BANK_14                         CONSTANT      00000E00           3584
__BANK_15                         CONSTANT      00000F00           3840
__CODE_END                        CONSTANT      00007FFF          32767
__CODE_START                      CONSTANT      00000000              0
__COMMON_RAM_END                  CONSTANT      0000005F             95
__COMMON_RAM_START                CONSTANT      00000000              0
__CONFIG_END                      CONSTANT      0030000D        3145741
__CONFIG_START                    CONSTANT      00300000        3145728
__EEPROM_END                      CONSTANT      00F000FF       15728895
__EEPROM_START                    CONSTANT      00F00000       15728640
__EXTENDED                        CONSTANT      00000001              1
__GPUTILS_SVN_VERSION             CONSTANT      00000505           1285
__GPUTILS_VERSION_MAJOR           CONSTANT      00000001              1
__GPUTILS_VERSION_MICRO           CONSTANT      00000000              0
__GPUTILS_VERSION_MINOR           CONSTANT      00000005              5
__IDLOCS_END                      CONSTANT      00200007        2097159
__IDLOCS_START                    CONSTANT      00200000        2097152
__NUM_BANKS                       CONSTANT      00000010             16
__VECTOR_INT_HIGH                 CONSTANT      00000008              8
__VECTOR_INT_LOW                  CONSTANT      00000018             24
__VECTOR_RESET                    CONSTANT      00000000              0
__WHILE_LOOP_COUNT_MAX            CONSTANT      000000FF            255
__divuint                         EXTERNAL      00000000              0
__gptrget1                        EXTERNAL      00000000              0
__moduint                         EXTERNAL      00000000              0
__16_BIT                          CONSTANT      00000001              1
__18F25K22                        CONSTANT      00000001              1
_delay_ms                         EXTERNAL      00000000              0
_delay_us                         EXTERNAL      00000000              0
_dvar                             EXTERNAL      00000000              0
_lcd_autoscroll                   GLOBAL        00000000              0
gpasm-1.5.0 #1285 (Jul 12 2020) obj/sdcc-18f2   11/12/23  13:12:35          PAGE 35


SYMBOL TABLE
  LABEL                              TYPE        VALUE         VALUE          VALUE
                                                 (hex)         (dec)          (text)

_lcd_begin                        GLOBAL        00000000              0
_lcd_blink                        GLOBAL        00000000              0
_lcd_clear                        GLOBAL        00000000              0
_lcd_command                      ADDRESS       00000000              0
_lcd_cursor                       GLOBAL        00000000              0
_lcd_display                      GLOBAL        00000000              0
_lcd_gotoxy                       GLOBAL        00000000              0
_lcd_gotoxy_row_offsets_65536_47  STATIC        00000000              0
_lcd_home                         GLOBAL        00000000              0
_lcd_init                         GLOBAL        00000000              0
_lcd_left_to_right                GLOBAL        00000000              0
_lcd_no_cursor                    GLOBAL        00000000              0
_lcd_print_number                 GLOBAL        00000000              0
_lcd_print_number_buf_65536_55    STATIC        00000000              0
_lcd_putch                        GLOBAL        00000000              0
_lcd_puts                         GLOBAL        00000000              0
_lcd_send                         GLOBAL        00000000              0
_lcd_write4bits                   ADDRESS       00000000              0
_stdin                            EXTERNAL      00000000              0
_stdout                           EXTERNAL      00000000              0
r0x00                             STATIC        00000000              0
r0x01                             STATIC        00000001              1
r0x02                             STATIC        00000002              2
r0x03                             STATIC        00000003              3
r0x04                             STATIC        00000004              4
r0x05                             STATIC        00000005              5
r0x06                             STATIC        00000006              6
r0x07                             STATIC        00000007              7
r0x08                             STATIC        00000008              8
r0x09                             STATIC        00000009              9
r0x0a                             STATIC        0000000A             10
r0x0b                             STATIC        0000000B             11

Errors   :     0
Warnings :     0 reported,     0 suppressed
Messages :     0 reported,     0 suppressed

