gpasm-1.5.2 #0 (Sep 16 2019) build/default/pr   9-16-2019  13:05:29         PAGE  1


LOC    OBJECT CODE    LINE  SOURCE TEXT
  VALUE

                      00001 ;--------------------------------------------------------
                      00002 ; File Created by SDCC : free open source ANSI-C Compiler
                      00003 ; Version 3.9.3 #11377 (MINGW64)
                      00004 ;--------------------------------------------------------
                      00005 ; PIC16 port for the Microchip 16-bit core micros
                      00006 ;--------------------------------------------------------
                      00007         list    p=18f25k50
                      00008         radix   dec
                      00009 
                      00010 
                      00011 ;--------------------------------------------------------
                      00012 ; public variables in this module
                      00013 ;--------------------------------------------------------
  0000                00014         global  _uart_putch
  0000                00015         global  _uart_getch
  0000                00016         global  _uart_poll
  0000                00017         global  _uart_isr
  0000                00018         global  _uart_enable
  0000                00019         global  _uart_disable
  0000                00020         global  _uart_init
  0000                00021         global  _uart_puts
  0000                00022         global  _uart_puts2
  0000                00023         global  _uart_brg
                      00024 
                      00025 ;--------------------------------------------------------
                      00026 ; extern variables in this module
                      00027 ;--------------------------------------------------------
  0000                00028         extern  __gptrget1
  0000                00029         extern  _SRCON1bits
  0000                00030         extern  _SRCON0bits
  0000                00031         extern  _CCPTMRSbits
  0000                00032         extern  _ANSELAbits
  0000                00033         extern  _ANSELBbits
  0000                00034         extern  _ANSELCbits
  0000                00035         extern  _UCONbits
  0000                00036         extern  _USTATbits
  0000                00037         extern  _UCFGbits
  0000                00038         extern  _UADDRbits
  0000                00039         extern  _UIEbits
  0000                00040         extern  _UIRbits
  0000                00041         extern  _UEIEbits
  0000                00042         extern  _UEIRbits
  0000                00043         extern  _UFRMLbits
  0000                00044         extern  _UFRMHbits
  0000                00045         extern  _UEP0bits
  0000                00046         extern  _UEP1bits
  0000                00047         extern  _UEP2bits
  0000                00048         extern  _UEP3bits
  0000                00049         extern  _UEP4bits
  0000                00050         extern  _UEP5bits
  0000                00051         extern  _UEP6bits
  0000                00052         extern  _UEP7bits
  0000                00053         extern  _UEP8bits
gpasm-1.5.2 #0 (Sep 16 2019) build/default/pr   9-16-2019  13:05:29         PAGE  2


LOC    OBJECT CODE    LINE  SOURCE TEXT
  VALUE

  0000                00054         extern  _UEP9bits
  0000                00055         extern  _UEP10bits
  0000                00056         extern  _UEP11bits
  0000                00057         extern  _UEP12bits
  0000                00058         extern  _UEP13bits
  0000                00059         extern  _UEP14bits
  0000                00060         extern  _UEP15bits
  0000                00061         extern  _SLRCONbits
  0000                00062         extern  _VREFCON2bits
  0000                00063         extern  _VREFCON1bits
  0000                00064         extern  _VREFCON0bits
  0000                00065         extern  _PMD0bits
  0000                00066         extern  _PMD1bits
  0000                00067         extern  _PORTAbits
  0000                00068         extern  _PORTBbits
  0000                00069         extern  _PORTCbits
  0000                00070         extern  _PORTEbits
  0000                00071         extern  _WPUBbits
  0000                00072         extern  _IOCBbits
  0000                00073         extern  _IOCCbits
  0000                00074         extern  _CTMUICONbits
  0000                00075         extern  _LATAbits
  0000                00076         extern  _LATBbits
  0000                00077         extern  _LATCbits
  0000                00078         extern  _CTMUCON1bits
  0000                00079         extern  _CTMUCONLbits
  0000                00080         extern  _CTMUCON0bits
  0000                00081         extern  _CTMUCONHbits
  0000                00082         extern  _DDRAbits
  0000                00083         extern  _TRISAbits
  0000                00084         extern  _DDRBbits
  0000                00085         extern  _TRISBbits
  0000                00086         extern  _DDRCbits
  0000                00087         extern  _TRISCbits
  0000                00088         extern  _CCP2CONbits
  0000                00089         extern  _ECCP2CONbits
  0000                00090         extern  _CM1CON0bits
  0000                00091         extern  _CM2CON0bits
  0000                00092         extern  _CM2CON1bits
  0000                00093         extern  _OSCTUNEbits
  0000                00094         extern  _HLVDCONbits
  0000                00095         extern  _PIE1bits
  0000                00096         extern  _PIR1bits
  0000                00097         extern  _IPR1bits
  0000                00098         extern  _PIE2bits
  0000                00099         extern  _PIR2bits
  0000                00100         extern  _IPR2bits
  0000                00101         extern  _PIE3bits
  0000                00102         extern  _PIR3bits
  0000                00103         extern  _IPR3bits
  0000                00104         extern  _EECON1bits
  0000                00105         extern  _RCSTAbits
  0000                00106         extern  _RCSTA1bits
gpasm-1.5.2 #0 (Sep 16 2019) build/default/pr   9-16-2019  13:05:29         PAGE  3


LOC    OBJECT CODE    LINE  SOURCE TEXT
  VALUE

  0000                00107         extern  _TXSTAbits
  0000                00108         extern  _TXSTA1bits
  0000                00109         extern  _SPBRGbits
  0000                00110         extern  _SPBRG1bits
  0000                00111         extern  _SPBRGHbits
  0000                00112         extern  _SPBRGH1bits
  0000                00113         extern  _T3CONbits
  0000                00114         extern  _T3GCONbits
  0000                00115         extern  _ACTCONbits
  0000                00116         extern  _STCONbits
  0000                00117         extern  _ECCP1ASbits
  0000                00118         extern  _ECCP1DELbits
  0000                00119         extern  _PWM1CONbits
  0000                00120         extern  _BAUDCONbits
  0000                00121         extern  _BAUDCON1bits
  0000                00122         extern  _PSTR1CONbits
  0000                00123         extern  _T2CONbits
  0000                00124         extern  _CCP1CONbits
  0000                00125         extern  _ECCP1CONbits
  0000                00126         extern  _ADCON2bits
  0000                00127         extern  _ADCON1bits
  0000                00128         extern  _ADCON0bits
  0000                00129         extern  _SSP1CON2bits
  0000                00130         extern  _SSPCON2bits
  0000                00131         extern  _SSP1CON1bits
  0000                00132         extern  _SSPCONbits
  0000                00133         extern  _SSPCON1bits
  0000                00134         extern  _SSP1STATbits
  0000                00135         extern  _SSPSTATbits
  0000                00136         extern  _SSP1ADDbits
  0000                00137         extern  _SSPADDbits
  0000                00138         extern  _SSP1MSKbits
  0000                00139         extern  _SSPMSKbits
  0000                00140         extern  _SSP1CON3bits
  0000                00141         extern  _SSPCON3bits
  0000                00142         extern  _T1GCONbits
  0000                00143         extern  _T1CONbits
  0000                00144         extern  _RCONbits
  0000                00145         extern  _WDTCONbits
  0000                00146         extern  _OSCCON2bits
  0000                00147         extern  _OSCCONbits
  0000                00148         extern  _T0CONbits
  0000                00149         extern  _STATUSbits
  0000                00150         extern  _INTCON3bits
  0000                00151         extern  _INTCON2bits
  0000                00152         extern  _INTCONbits
  0000                00153         extern  _STKPTRbits
  0000                00154         extern  _dvar
  0000                00155         extern  _SRCON1
  0000                00156         extern  _SRCON0
  0000                00157         extern  _CCPTMRS
  0000                00158         extern  _VREGCON
  0000                00159         extern  _ANSELA
gpasm-1.5.2 #0 (Sep 16 2019) build/default/pr   9-16-2019  13:05:29         PAGE  4


LOC    OBJECT CODE    LINE  SOURCE TEXT
  VALUE

  0000                00160         extern  _ANSELB
  0000                00161         extern  _ANSELC
  0000                00162         extern  _UCON
  0000                00163         extern  _USTAT
  0000                00164         extern  _UCFG
  0000                00165         extern  _UADDR
  0000                00166         extern  _UIE
  0000                00167         extern  _UIR
  0000                00168         extern  _UEIE
  0000                00169         extern  _UEIR
  0000                00170         extern  _UFRM
  0000                00171         extern  _UFRML
  0000                00172         extern  _UFRMH
  0000                00173         extern  _UEP0
  0000                00174         extern  _UEP1
  0000                00175         extern  _UEP2
  0000                00176         extern  _UEP3
  0000                00177         extern  _UEP4
  0000                00178         extern  _UEP5
  0000                00179         extern  _UEP6
  0000                00180         extern  _UEP7
  0000                00181         extern  _UEP8
  0000                00182         extern  _UEP9
  0000                00183         extern  _UEP10
  0000                00184         extern  _UEP11
  0000                00185         extern  _UEP12
  0000                00186         extern  _UEP13
  0000                00187         extern  _UEP14
  0000                00188         extern  _UEP15
  0000                00189         extern  _SLRCON
  0000                00190         extern  _VREFCON2
  0000                00191         extern  _VREFCON1
  0000                00192         extern  _VREFCON0
  0000                00193         extern  _PMD0
  0000                00194         extern  _PMD1
  0000                00195         extern  _PORTA
  0000                00196         extern  _PORTB
  0000                00197         extern  _PORTC
  0000                00198         extern  _PORTE
  0000                00199         extern  _WPUB
  0000                00200         extern  _IOCB
  0000                00201         extern  _IOCC
  0000                00202         extern  _CTMUICON
  0000                00203         extern  _LATA
  0000                00204         extern  _LATB
  0000                00205         extern  _LATC
  0000                00206         extern  _CTMUCON1
  0000                00207         extern  _CTMUCONL
  0000                00208         extern  _CTMUCON0
  0000                00209         extern  _CTMUCONH
  0000                00210         extern  _CCPR2
  0000                00211         extern  _CCPR2L
  0000                00212         extern  _CCPR2H
gpasm-1.5.2 #0 (Sep 16 2019) build/default/pr   9-16-2019  13:05:29         PAGE  5


LOC    OBJECT CODE    LINE  SOURCE TEXT
  VALUE

  0000                00213         extern  _DDRA
  0000                00214         extern  _TRISA
  0000                00215         extern  _DDRB
  0000                00216         extern  _TRISB
  0000                00217         extern  _DDRC
  0000                00218         extern  _TRISC
  0000                00219         extern  _CCP2CON
  0000                00220         extern  _ECCP2CON
  0000                00221         extern  _CM1CON0
  0000                00222         extern  _CM2CON0
  0000                00223         extern  _CM2CON1
  0000                00224         extern  _OSCTUNE
  0000                00225         extern  _HLVDCON
  0000                00226         extern  _PIE1
  0000                00227         extern  _PIR1
  0000                00228         extern  _IPR1
  0000                00229         extern  _PIE2
  0000                00230         extern  _PIR2
  0000                00231         extern  _IPR2
  0000                00232         extern  _PIE3
  0000                00233         extern  _PIR3
  0000                00234         extern  _IPR3
  0000                00235         extern  _EECON1
  0000                00236         extern  _EECON2
  0000                00237         extern  _EEDATA
  0000                00238         extern  _EEADR
  0000                00239         extern  _RCSTA
  0000                00240         extern  _RCSTA1
  0000                00241         extern  _TXSTA
  0000                00242         extern  _TXSTA1
  0000                00243         extern  _TXREG
  0000                00244         extern  _TXREG1
  0000                00245         extern  _RCREG
  0000                00246         extern  _RCREG1
  0000                00247         extern  _SPBRG
  0000                00248         extern  _SPBRG1
  0000                00249         extern  _SPBRGH
  0000                00250         extern  _SPBRGH1
  0000                00251         extern  _T3CON
  0000                00252         extern  _TMR3
  0000                00253         extern  _TMR3L
  0000                00254         extern  _TMR3H
  0000                00255         extern  _T3GCON
  0000                00256         extern  _ACTCON
  0000                00257         extern  _STCON
  0000                00258         extern  _ECCP1AS
  0000                00259         extern  _ECCP1DEL
  0000                00260         extern  _PWM1CON
  0000                00261         extern  _BAUDCON
  0000                00262         extern  _BAUDCON1
  0000                00263         extern  _PSTR1CON
  0000                00264         extern  _T2CON
  0000                00265         extern  _PR2
gpasm-1.5.2 #0 (Sep 16 2019) build/default/pr   9-16-2019  13:05:29         PAGE  6


LOC    OBJECT CODE    LINE  SOURCE TEXT
  VALUE

  0000                00266         extern  _TMR2
  0000                00267         extern  _CCP1CON
  0000                00268         extern  _ECCP1CON
  0000                00269         extern  _CCPR1
  0000                00270         extern  _CCPR1L
  0000                00271         extern  _CCPR1H
  0000                00272         extern  _ADCON2
  0000                00273         extern  _ADCON1
  0000                00274         extern  _ADCON0
  0000                00275         extern  _ADRESL
  0000                00276         extern  _ADRESH
  0000                00277         extern  _SSP1CON2
  0000                00278         extern  _SSPCON2
  0000                00279         extern  _SSP1CON1
  0000                00280         extern  _SSPCON
  0000                00281         extern  _SSPCON1
  0000                00282         extern  _SSP1STAT
  0000                00283         extern  _SSPSTAT
  0000                00284         extern  _SSP1ADD
  0000                00285         extern  _SSPADD
  0000                00286         extern  _SSP1BUF
  0000                00287         extern  _SSPBUF
  0000                00288         extern  _SSP1MSK
  0000                00289         extern  _SSPMSK
  0000                00290         extern  _SSP1CON3
  0000                00291         extern  _SSPCON3
  0000                00292         extern  _T1GCON
  0000                00293         extern  _T1CON
  0000                00294         extern  _TMR1
  0000                00295         extern  _TMR1L
  0000                00296         extern  _TMR1H
  0000                00297         extern  _RCON
  0000                00298         extern  _WDTCON
  0000                00299         extern  _OSCCON2
  0000                00300         extern  _OSCCON
  0000                00301         extern  _T0CON
  0000                00302         extern  _TMR0
  0000                00303         extern  _TMR0L
  0000                00304         extern  _TMR0H
  0000                00305         extern  _STATUS
  0000                00306         extern  _FSR2L
  0000                00307         extern  _FSR2H
  0000                00308         extern  _PLUSW2
  0000                00309         extern  _PREINC2
  0000                00310         extern  _POSTDEC2
  0000                00311         extern  _POSTINC2
  0000                00312         extern  _INDF2
  0000                00313         extern  _BSR
  0000                00314         extern  _FSR1L
  0000                00315         extern  _FSR1H
  0000                00316         extern  _PLUSW1
  0000                00317         extern  _PREINC1
  0000                00318         extern  _POSTDEC1
gpasm-1.5.2 #0 (Sep 16 2019) build/default/pr   9-16-2019  13:05:29         PAGE  7


LOC    OBJECT CODE    LINE  SOURCE TEXT
  VALUE

  0000                00319         extern  _POSTINC1
  0000                00320         extern  _INDF1
  0000                00321         extern  _WREG
  0000                00322         extern  _FSR0L
  0000                00323         extern  _FSR0H
  0000                00324         extern  _PLUSW0
  0000                00325         extern  _PREINC0
  0000                00326         extern  _POSTDEC0
  0000                00327         extern  _POSTINC0
  0000                00328         extern  _INDF0
  0000                00329         extern  _INTCON3
  0000                00330         extern  _INTCON2
  0000                00331         extern  _INTCON
  0000                00332         extern  _PROD
  0000                00333         extern  _PRODL
  0000                00334         extern  _PRODH
  0000                00335         extern  _TABLAT
  0000                00336         extern  _TBLPTR
  0000                00337         extern  _TBLPTRL
  0000                00338         extern  _TBLPTRH
  0000                00339         extern  _TBLPTRU
  0000                00340         extern  _PC
  0000                00341         extern  _PCL
  0000                00342         extern  _PCLATH
  0000                00343         extern  _PCLATU
  0000                00344         extern  _STKPTR
  0000                00345         extern  _TOS
  0000                00346         extern  _TOSL
  0000                00347         extern  _TOSH
  0000                00348         extern  _TOSU
  0000                00349         extern  __divslong
                      00350 
                      00351 ;--------------------------------------------------------
                      00352 ;       Equates to used internal registers
                      00353 ;--------------------------------------------------------
  00000FD8            00354 STATUS  equ     0xfd8
  00000FE8            00355 WREG    equ     0xfe8
  00000FE9            00356 FSR0L   equ     0xfe9
  00000FE1            00357 FSR1L   equ     0xfe1
  00000FE2            00358 FSR1H   equ     0xfe2
  00000FD9            00359 FSR2L   equ     0xfd9
  00000FDA            00360 FSR2H   equ     0xfda
  00000FE6            00361 POSTINC1        equ     0xfe6
  00000FE5            00362 POSTDEC1        equ     0xfe5
  00000FE4            00363 PREINC1 equ     0xfe4
  00000FDB            00364 PLUSW2  equ     0xfdb
  00000FF3            00365 PRODL   equ     0xff3
  00000FF4            00366 PRODH   equ     0xff4
                      00367 
                      00368 
                      00369 ; Internal registers
                      00370 .registers      udata_ovr       0x0000
000000                00371 r0x00   res     1
gpasm-1.5.2 #0 (Sep 16 2019) build/default/pr   9-16-2019  13:05:29         PAGE  8


LOC    OBJECT CODE    LINE  SOURCE TEXT
  VALUE

000001                00372 r0x01   res     1
000002                00373 r0x02   res     1
000003                00374 r0x03   res     1
                      00375 
                      00376 ;--------------------------------------------------------
                      00377 ; global & static initialisations
                      00378 ;--------------------------------------------------------
                      00379 ; I code from now on!
                      00380 ; ; Starting pCode block
                      00381 S_uart__uart_puts2      code
000000                00382 _uart_puts2:
                      00383 ;       .line   120; ../../../lib/uart.c        uart_puts2(uint8_t* s) {
000000 CFDA FFE5      00384         MOVFF   FSR2H, POSTDEC1
000004 CFD9 FFE5      00385         MOVFF   FSR2L, POSTDEC1
000008 CFE2 FFDA      00386         MOVFF   FSR1H, FSR2H
00000C CFE1 FFD9      00387         MOVFF   FSR1L, FSR2L
000010 C??? F???      00388         MOVFF   r0x00, POSTDEC1
000014 C??? F???      00389         MOVFF   r0x01, POSTDEC1
000018 C??? F???      00390         MOVFF   r0x02, POSTDEC1
00001C C??? F???      00391         MOVFF   r0x03, POSTDEC1
000020 0E03           00392         MOVLW   0x03
000022 CFDB F000      00393         MOVFF   PLUSW2, r0x00
000026 0E04           00394         MOVLW   0x04
000028 CFDB F000      00395         MOVFF   PLUSW2, r0x01
00002C 0E05           00396         MOVLW   0x05
00002E CFDB F000      00397         MOVFF   PLUSW2, r0x02
000032                00398 _00212_DS_:
                      00399 ;       .line   121; ../../../lib/uart.c        while(*s) uart_putch(*s++);
000032 C??? F???      00400         MOVFF   r0x00, FSR0L
000036 C??? F???      00401         MOVFF   r0x01, PRODL
00003A 50??           00402         MOVF    r0x02, W
00003C EC?? F0??      00403         CALL    __gptrget1
000040 6E??           00404         MOVWF   r0x03
000042 50??           00405         MOVF    r0x03, W
000044 E0??           00406         BZ      _00215_DS_
000046 2A??           00407         INCF    r0x00, F
000048 E3??           00408         BNC     _00226_DS_
00004A 4A??           00409         INFSNZ  r0x01, F
00004C 2A??           00410         INCF    r0x02, F
00004E                00411 _00226_DS_:
00004E 50??           00412         MOVF    r0x03, W
000050 6EE5           00413         MOVWF   POSTDEC1
000052 EC?? F0??      00414         CALL    _uart_putch
000056 52E6           00415         MOVF    POSTINC1, F
000058 D???           00416         BRA     _00212_DS_
00005A                00417 _00215_DS_:
                      00418 ;       .line   122; ../../../lib/uart.c        }
00005A CFE4 F000      00419         MOVFF   PREINC1, r0x03
00005E CFE4 F000      00420         MOVFF   PREINC1, r0x02
000062 CFE4 F000      00421         MOVFF   PREINC1, r0x01
000066 CFE4 F000      00422         MOVFF   PREINC1, r0x00
00006A CFE4 FFD9      00423         MOVFF   PREINC1, FSR2L
00006E CFE4 FFDA      00424         MOVFF   PREINC1, FSR2H
gpasm-1.5.2 #0 (Sep 16 2019) build/default/pr   9-16-2019  13:05:29         PAGE  9


LOC    OBJECT CODE    LINE  SOURCE TEXT
  VALUE

000072 0012           00425         RETURN  
                      00426 
                      00427 ; ; Starting pCode block
                      00428 S_uart__uart_puts       code
000000                00429 _uart_puts:
                      00430 ;       .line   115; ../../../lib/uart.c        uart_puts(const char* s) {
000000 CFDA FFE5      00431         MOVFF   FSR2H, POSTDEC1
000004 CFD9 FFE5      00432         MOVFF   FSR2L, POSTDEC1
000008 CFE2 FFDA      00433         MOVFF   FSR1H, FSR2H
00000C CFE1 FFD9      00434         MOVFF   FSR1L, FSR2L
000010 C??? F???      00435         MOVFF   r0x00, POSTDEC1
000014 C??? F???      00436         MOVFF   r0x01, POSTDEC1
000018 C??? F???      00437         MOVFF   r0x02, POSTDEC1
00001C C??? F???      00438         MOVFF   r0x03, POSTDEC1
000020 0E03           00439         MOVLW   0x03
000022 CFDB F000      00440         MOVFF   PLUSW2, r0x00
000026 0E04           00441         MOVLW   0x04
000028 CFDB F000      00442         MOVFF   PLUSW2, r0x01
00002C 0E05           00443         MOVLW   0x05
00002E CFDB F000      00444         MOVFF   PLUSW2, r0x02
000032                00445 _00193_DS_:
                      00446 ;       .line   116; ../../../lib/uart.c        while(*s) uart_putch(*s++);
000032 C??? F???      00447         MOVFF   r0x00, FSR0L
000036 C??? F???      00448         MOVFF   r0x01, PRODL
00003A 50??           00449         MOVF    r0x02, W
00003C EC?? F0??      00450         CALL    __gptrget1
000040 6E??           00451         MOVWF   r0x03
000042 50??           00452         MOVF    r0x03, W
000044 E0??           00453         BZ      _00196_DS_
000046 2A??           00454         INCF    r0x00, F
000048 E3??           00455         BNC     _00207_DS_
00004A 4A??           00456         INFSNZ  r0x01, F
00004C 2A??           00457         INCF    r0x02, F
00004E                00458 _00207_DS_:
00004E 50??           00459         MOVF    r0x03, W
000050 6EE5           00460         MOVWF   POSTDEC1
000052 EC?? F0??      00461         CALL    _uart_putch
000056 52E6           00462         MOVF    POSTINC1, F
000058 D???           00463         BRA     _00193_DS_
00005A                00464 _00196_DS_:
                      00465 ;       .line   117; ../../../lib/uart.c        }
00005A CFE4 F000      00466         MOVFF   PREINC1, r0x03
00005E CFE4 F000      00467         MOVFF   PREINC1, r0x02
000062 CFE4 F000      00468         MOVFF   PREINC1, r0x01
000066 CFE4 F000      00469         MOVFF   PREINC1, r0x00
00006A CFE4 FFD9      00470         MOVFF   PREINC1, FSR2L
00006E CFE4 FFDA      00471         MOVFF   PREINC1, FSR2H
000072 0012           00472         RETURN  
                      00473 
                      00474 ; ; Starting pCode block
                      00475 S_uart__uart_init       code
000000                00476 _uart_init:
                      00477 ;       .line   94; ../../../lib/uart.c uart_init(void) {
gpasm-1.5.2 #0 (Sep 16 2019) build/default/pr   9-16-2019  13:05:29         PAGE 10


LOC    OBJECT CODE    LINE  SOURCE TEXT
  VALUE

000000 CFDA FFE5      00478         MOVFF   FSR2H, POSTDEC1
000004 CFD9 FFE5      00479         MOVFF   FSR2L, POSTDEC1
000008 CFE2 FFDA      00480         MOVFF   FSR1H, FSR2H
00000C CFE1 FFD9      00481         MOVFF   FSR1L, FSR2L
                      00482 ;       .line   97; ../../../lib/uart.c RX_TRIS();
000010 8E??           00483         BSF     _TRISC, 7
                      00484 ;       .line   98; ../../../lib/uart.c TX_TRIS();
000012 9C??           00485         BCF     _TRISC, 6
                      00486 ;       .line   99; ../../../lib/uart.c TX_SET(0);
000014 0E40           00487         MOVLW   0x40
000016 16??           00488         ANDWF   _LATC, F
                      00489 ;       .line   100; ../../../lib/uart.c        SPBRG = UART_BRG; // UART_BRG;
000018 0E41           00490         MOVLW   0x41
00001A 6E??           00491         MOVWF   _SPBRG
                      00492 ;       .line   103; ../../../lib/uart.c        | /*RX9D =*/(NINE == 1 ? 0b1 : 0);
00001C 0E90           00493         MOVLW   0x90
00001E 12??           00494         IORWF   _RCSTA, F
                      00495 ;       .line   108; ../../../lib/uart.c        : 0b000;
000020 84??           00496         BSF     _TXSTA, 2
                      00497 ;       .line   111; ../../../lib/uart.c        uart_enable();
000022 EC?? F0??      00498         CALL    _uart_enable
                      00499 ;       .line   112; ../../../lib/uart.c        }
000026 CFE4 FFD9      00500         MOVFF   PREINC1, FSR2L
00002A CFE4 FFDA      00501         MOVFF   PREINC1, FSR2H
00002E 0012           00502         RETURN  
                      00503 
                      00504 ; ; Starting pCode block
                      00505 S_uart__uart_disable    code
000000                00506 _uart_disable:
                      00507 ;       .line   84; ../../../lib/uart.c uart_disable(void) {
000000 CFDA FFE5      00508         MOVFF   FSR2H, POSTDEC1
000004 CFD9 FFE5      00509         MOVFF   FSR2L, POSTDEC1
000008 CFE2 FFDA      00510         MOVFF   FSR1H, FSR2H
00000C CFE1 FFD9      00511         MOVFF   FSR1L, FSR2L
                      00512 ;       .line   85; ../../../lib/uart.c TXSTA &= ~0b00100000; //  TXEN = 0;
000010 9A??           00513         BCF     _TXSTA, 5
                      00514 ;       .line   86; ../../../lib/uart.c RCSTA &= ~0b10000000; // SPEN = 0;
000012 9E??           00515         BCF     _RCSTA, 7
                      00516 ;       .line   87; ../../../lib/uart.c PIE1 &= ~0b100000; //RCIE = 0;
000014 9A??           00517         BCF     _PIE1, 5
                      00518 ;       .line   88; ../../../lib/uart.c RX_TRIS();
000016 8E??           00519         BSF     _TRISC, 7
                      00520 ;       .line   89; ../../../lib/uart.c TX_TRIS();
000018 9C??           00521         BCF     _TRISC, 6
                      00522 ;       .line   90; ../../../lib/uart.c TX_SET(0);
00001A 0E40           00523         MOVLW   0x40
00001C 16??           00524         ANDWF   _LATC, F
                      00525 ;       .line   91; ../../../lib/uart.c }
00001E CFE4 FFD9      00526         MOVFF   PREINC1, FSR2L
000022 CFE4 FFDA      00527         MOVFF   PREINC1, FSR2H
000026 0012           00528         RETURN  
                      00529 
                      00530 ; ; Starting pCode block
gpasm-1.5.2 #0 (Sep 16 2019) build/default/pr   9-16-2019  13:05:29         PAGE 11


LOC    OBJECT CODE    LINE  SOURCE TEXT
  VALUE

                      00531 S_uart__uart_enable     code
000000                00532 _uart_enable:
                      00533 ;       .line   74; ../../../lib/uart.c uart_enable(void) {
000000 CFDA FFE5      00534         MOVFF   FSR2H, POSTDEC1
000004 CFD9 FFE5      00535         MOVFF   FSR2L, POSTDEC1
000008 CFE2 FFDA      00536         MOVFF   FSR1H, FSR2H
00000C CFE1 FFD9      00537         MOVFF   FSR1L, FSR2L
                      00538 ;       .line   75; ../../../lib/uart.c RX_TRIS();
000010 8E??           00539         BSF     _TRISC, 7
                      00540 ;       .line   76; ../../../lib/uart.c TX_TRIS();
000012 9C??           00541         BCF     _TRISC, 6
                      00542 ;       .line   77; ../../../lib/uart.c TX_SET(0);
000014 0E40           00543         MOVLW   0x40
000016 16??           00544         ANDWF   _LATC, F
                      00545 ;       .line   78; ../../../lib/uart.c TXSTA |= 0b00100000; //  TXEN = 1;
000018 8A??           00546         BSF     _TXSTA, 5
                      00547 ;       .line   79; ../../../lib/uart.c RCSTA |= 0x80; // SPEN = 1;
00001A 8E??           00548         BSF     _RCSTA, 7
                      00549 ;       .line   80; ../../../lib/uart.c PIE1 &= ~0b100000; //RCIE = 0;
00001C 9A??           00550         BCF     _PIE1, 5
                      00551 ;       .line   81; ../../../lib/uart.c }
00001E CFE4 FFD9      00552         MOVFF   PREINC1, FSR2L
000022 CFE4 FFDA      00553         MOVFF   PREINC1, FSR2H
000026 0012           00554         RETURN  
                      00555 
                      00556 ; ; Starting pCode block
                      00557 S_uart__uart_isr        code
000000                00558 _uart_isr:
                      00559 ;       .line   65; ../../../lib/uart.c uart_isr(void) {
000000 CFDA FFE5      00560         MOVFF   FSR2H, POSTDEC1
000004 CFD9 FFE5      00561         MOVFF   FSR2L, POSTDEC1
000008 CFE2 FFDA      00562         MOVFF   FSR1H, FSR2H
00000C CFE1 FFD9      00563         MOVFF   FSR1L, FSR2L
000010 C??? F???      00564         MOVFF   r0x00, POSTDEC1
                      00565 ;       .line   66; ../../../lib/uart.c if((PIR1 & 0b00100000)) {
000014 C??? F???      00566         MOVFF   _PIR1, r0x00
000018 AA??           00567         BTFSS   r0x00, 5
00001A D???           00568         BRA     _00157_DS_
                      00569 ;       .line   67; ../../../lib/uart.c PIR1 &= ~0b00100000; //  RCIF = 0;
00001C 9A??           00570         BCF     _PIR1, 5
                      00571 ;       .line   68; ../../../lib/uart.c return RCREG;
00001E 50??           00572         MOVF    _RCREG, W
000020 D???           00573         BRA     _00158_DS_
000022                00574 _00157_DS_:
                      00575 ;       .line   70; ../../../lib/uart.c return 0;
000022 6AE8           00576         CLRF    WREG
000024                00577 _00158_DS_:
                      00578 ;       .line   71; ../../../lib/uart.c }
000024 CFE4 F000      00579         MOVFF   PREINC1, r0x00
000028 CFE4 FFD9      00580         MOVFF   PREINC1, FSR2L
00002C CFE4 FFDA      00581         MOVFF   PREINC1, FSR2H
000030 0012           00582         RETURN  
                      00583 
gpasm-1.5.2 #0 (Sep 16 2019) build/default/pr   9-16-2019  13:05:29         PAGE 12


LOC    OBJECT CODE    LINE  SOURCE TEXT
  VALUE

                      00584 ; ; Starting pCode block
                      00585 S_uart__uart_poll       code
000000                00586 _uart_poll:
                      00587 ;       .line   46; ../../../lib/uart.c uart_poll(uint8_t bauds) {
000000 CFDA FFE5      00588         MOVFF   FSR2H, POSTDEC1
000004 CFD9 FFE5      00589         MOVFF   FSR2L, POSTDEC1
000008 CFE2 FFDA      00590         MOVFF   FSR1H, FSR2H
00000C CFE1 FFD9      00591         MOVFF   FSR1L, FSR2L
000010 C??? F???      00592         MOVFF   r0x00, POSTDEC1
000014 C??? F???      00593         MOVFF   r0x01, POSTDEC1
000018 C??? F???      00594         MOVFF   r0x02, POSTDEC1
00001C C??? F???      00595         MOVFF   r0x03, POSTDEC1
000020 0E03           00596         MOVLW   0x03
000022 CFDB F000      00597         MOVFF   PLUSW2, r0x00
                      00598 ;       .line   50; ../../../lib/uart.c TMR0 = (256 - UART_BRG_FN(bauds));
000026 6A??           00599         CLRF    r0x01
000028 6A??           00600         CLRF    r0x02
00002A 6A??           00601         CLRF    r0x03
00002C 50??           00602         MOVF    r0x03, W
00002E 6EE5           00603         MOVWF   POSTDEC1
000030 50??           00604         MOVF    r0x02, W
000032 6EE5           00605         MOVWF   POSTDEC1
000034 50??           00606         MOVF    r0x01, W
000036 6EE5           00607         MOVWF   POSTDEC1
000038 50??           00608         MOVF    r0x00, W
00003A 6EE5           00609         MOVWF   POSTDEC1
00003C 0E00           00610         MOVLW   0x00
00003E 6EE5           00611         MOVWF   POSTDEC1
000040 0E26           00612         MOVLW   0x26
000042 6EE5           00613         MOVWF   POSTDEC1
000044 0E25           00614         MOVLW   0x25
000046 6EE5           00615         MOVWF   POSTDEC1
000048 0EA0           00616         MOVLW   0xa0
00004A 6EE5           00617         MOVWF   POSTDEC1
00004C EC?? F0??      00618         CALL    __divslong
000050 6E??           00619         MOVWF   r0x00
000052 CFF3 F000      00620         MOVFF   PRODL, r0x01
000056 CFF4 F000      00621         MOVFF   PRODH, r0x02
00005A CFE9 F000      00622         MOVFF   FSR0L, r0x03
00005E 0E08           00623         MOVLW   0x08
000060 26E1           00624         ADDWF   FSR1L, F
000062 B0D8           00625         BTFSC   STATUS, 0
000064 2AE2           00626         INCF    FSR1H, F
000066 2A??           00627         INCF    r0x00, F
000068 1C??           00628         COMF    r0x00, W
00006A 6E??           00629         MOVWF   _TMR0
00006C 2A??           00630         INCF    _TMR0, F
00006E                00631 _00132_DS_:
                      00632 ;       .line   51; ../../../lib/uart.c while(TMR0 & (1 << 7)) {
00006E AE??           00633         BTFSS   _TMR0, 7
000070 D???           00634         BRA     _00134_DS_
                      00635 ;       .line   52; ../../../lib/uart.c if((PIR1 & 0b00100000))
000072 C??? F???      00636         MOVFF   _PIR1, r0x00
gpasm-1.5.2 #0 (Sep 16 2019) build/default/pr   9-16-2019  13:05:29         PAGE 13


LOC    OBJECT CODE    LINE  SOURCE TEXT
  VALUE

000076 AA??           00637         BTFSS   r0x00, 5
000078 D???           00638         BRA     _00132_DS_
                      00639 ;       .line   53; ../../../lib/uart.c return 1;
00007A 0E01           00640         MOVLW   0x01
00007C D???           00641         BRA     _00135_DS_
00007E                00642 _00134_DS_:
                      00643 ;       .line   56; ../../../lib/uart.c return 0;
00007E 6AE8           00644         CLRF    WREG
000080                00645 _00135_DS_:
                      00646 ;       .line   57; ../../../lib/uart.c }
000080 CFE4 F000      00647         MOVFF   PREINC1, r0x03
000084 CFE4 F000      00648         MOVFF   PREINC1, r0x02
000088 CFE4 F000      00649         MOVFF   PREINC1, r0x01
00008C CFE4 F000      00650         MOVFF   PREINC1, r0x00
000090 CFE4 FFD9      00651         MOVFF   PREINC1, FSR2L
000094 CFE4 FFDA      00652         MOVFF   PREINC1, FSR2H
000098 0012           00653         RETURN  
                      00654 
                      00655 ; ; Starting pCode block
                      00656 S_uart__uart_getch      code
000000                00657 _uart_getch:
                      00658 ;       .line   32; ../../../lib/uart.c uart_getch(void) {
000000 CFDA FFE5      00659         MOVFF   FSR2H, POSTDEC1
000004 CFD9 FFE5      00660         MOVFF   FSR2L, POSTDEC1
000008 CFE2 FFDA      00661         MOVFF   FSR1H, FSR2H
00000C CFE1 FFD9      00662         MOVFF   FSR1L, FSR2L
000010 C??? F???      00663         MOVFF   r0x00, POSTDEC1
000014 C??? F???      00664         MOVFF   r0x01, POSTDEC1
                      00665 ;       .line   34; ../../../lib/uart.c if(uart_poll(UART_TIMEOUT)) {
000018 0E00           00666         MOVLW   0x00
00001A 6EE5           00667         MOVWF   POSTDEC1
00001C EC?? F0??      00668         CALL    _uart_poll
000020 6E??           00669         MOVWF   r0x00
000022 52E6           00670         MOVF    POSTINC1, F
000024 50??           00671         MOVF    r0x00, W
000026 E0??           00672         BZ      _00124_DS_
                      00673 ;       .line   36; ../../../lib/uart.c ch = RCREG;
000028 C??? F???      00674         MOVFF   _RCREG, r0x00
                      00675 ;       .line   37; ../../../lib/uart.c PIR1 &= ~0b00100000; //  RCIF = 0;
00002C 9A??           00676         BCF     _PIR1, 5
                      00677 ;       .line   38; ../../../lib/uart.c return (int)ch;
00002E 6A??           00678         CLRF    r0x01
000030 C??? F???      00679         MOVFF   r0x01, PRODL
000034 50??           00680         MOVF    r0x00, W
000036 D???           00681         BRA     _00125_DS_
000038                00682 _00124_DS_:
                      00683 ;       .line   40; ../../../lib/uart.c return -1;
000038 68F3           00684         SETF    PRODL
00003A 68E8           00685         SETF    WREG
00003C                00686 _00125_DS_:
                      00687 ;       .line   41; ../../../lib/uart.c }
00003C CFE4 F000      00688         MOVFF   PREINC1, r0x01
000040 CFE4 F000      00689         MOVFF   PREINC1, r0x00
gpasm-1.5.2 #0 (Sep 16 2019) build/default/pr   9-16-2019  13:05:29         PAGE 14


LOC    OBJECT CODE    LINE  SOURCE TEXT
  VALUE

000044 CFE4 FFD9      00690         MOVFF   PREINC1, FSR2L
000048 CFE4 FFDA      00691         MOVFF   PREINC1, FSR2H
00004C 0012           00692         RETURN  
                      00693 
                      00694 ; ; Starting pCode block
                      00695 S_uart__uart_putch      code
000000                00696 _uart_putch:
                      00697 ;       .line   22; ../../../lib/uart.c uart_putch(uint8_t byte) {
000000 CFDA FFE5      00698         MOVFF   FSR2H, POSTDEC1
000004 CFD9 FFE5      00699         MOVFF   FSR2L, POSTDEC1
000008 CFE2 FFDA      00700         MOVFF   FSR1H, FSR2H
00000C CFE1 FFD9      00701         MOVFF   FSR1L, FSR2L
000010 C??? F???      00702         MOVFF   r0x00, POSTDEC1
000014 C??? F???      00703         MOVFF   r0x01, POSTDEC1
000018 0E03           00704         MOVLW   0x03
00001A CFDB F000      00705         MOVFF   PLUSW2, r0x00
00001E                00706 _00105_DS_:
                      00707 ;       .line   24; ../../../lib/uart.c while(!(PIR1 & 0b00010000)) {
00001E C??? F???      00708         MOVFF   _PIR1, r0x01
000022 A8??           00709         BTFSS   r0x01, 4
000024 D???           00710         BRA     _00105_DS_
                      00711 ;       .line   28; ../../../lib/uart.c TXREG = (uint8_t)byte;
000026 C??? F???      00712         MOVFF   r0x00, _TXREG
                      00713 ;       .line   29; ../../../lib/uart.c }
00002A CFE4 F000      00714         MOVFF   PREINC1, r0x01
00002E CFE4 F000      00715         MOVFF   PREINC1, r0x00
000032 CFE4 FFD9      00716         MOVFF   PREINC1, FSR2L
000036 CFE4 FFDA      00717         MOVFF   PREINC1, FSR2H
00003A 0012           00718         RETURN  
                      00719 
                      00720 ; ; Starting pCode block for Ival
                      00721         code
000000                00722 _uart_brg:
000000 0041           00723         DB      0x41
                      00724 
                      00725 
                      00726 ; Statistics:
                      00727 ; code size:      706 (0x02c2) bytes ( 0.54%)
                      00728 ;                 353 (0x0161) words
                      00729 ; udata size:       0 (0x0000) bytes ( 0.00%)
                      00730 ; access size:      4 (0x0004) bytes
                      00731 
                      00732 
                      00733         end
gpasm-1.5.2 #0 (Sep 16 2019) build/default/pr   9-16-2019  13:05:29         PAGE 15


SYMBOL TABLE
  LABEL                              TYPE        VALUE         VALUE          VALUE
                                                 (hex)         (dec)          (text)

FSR0L                             CONSTANT      00000FE9           4073
FSR1H                             CONSTANT      00000FE2           4066
FSR1L                             CONSTANT      00000FE1           4065
FSR2H                             CONSTANT      00000FDA           4058
FSR2L                             CONSTANT      00000FD9           4057
PLUSW2                            CONSTANT      00000FDB           4059
POSTDEC1                          CONSTANT      00000FE5           4069
POSTINC1                          CONSTANT      00000FE6           4070
PREINC1                           CONSTANT      00000FE4           4068
PRODH                             CONSTANT      00000FF4           4084
PRODL                             CONSTANT      00000FF3           4083
STATUS                            CONSTANT      00000FD8           4056
WREG                              CONSTANT      00000FE8           4072
_00105_DS_                        ADDRESS       0000001E             30
_00124_DS_                        ADDRESS       00000038             56
_00125_DS_                        ADDRESS       0000003C             60
_00132_DS_                        ADDRESS       0000006E            110
_00134_DS_                        ADDRESS       0000007E            126
_00135_DS_                        ADDRESS       00000080            128
_00157_DS_                        ADDRESS       00000022             34
_00158_DS_                        ADDRESS       00000024             36
_00193_DS_                        ADDRESS       00000032             50
_00196_DS_                        ADDRESS       0000005A             90
_00207_DS_                        ADDRESS       0000004E             78
_00212_DS_                        ADDRESS       00000032             50
_00215_DS_                        ADDRESS       0000005A             90
_00226_DS_                        ADDRESS       0000004E             78
_ACTCON                           EXTERNAL      00000000              0
_ACTCONbits                       EXTERNAL      00000000              0
_ADCON0                           EXTERNAL      00000000              0
_ADCON0bits                       EXTERNAL      00000000              0
_ADCON1                           EXTERNAL      00000000              0
_ADCON1bits                       EXTERNAL      00000000              0
_ADCON2                           EXTERNAL      00000000              0
_ADCON2bits                       EXTERNAL      00000000              0
_ADRESH                           EXTERNAL      00000000              0
_ADRESL                           EXTERNAL      00000000              0
_ANSELA                           EXTERNAL      00000000              0
_ANSELAbits                       EXTERNAL      00000000              0
_ANSELB                           EXTERNAL      00000000              0
_ANSELBbits                       EXTERNAL      00000000              0
_ANSELC                           EXTERNAL      00000000              0
_ANSELCbits                       EXTERNAL      00000000              0
_BAUDCON                          EXTERNAL      00000000              0
_BAUDCON1                         EXTERNAL      00000000              0
_BAUDCON1bits                     EXTERNAL      00000000              0
_BAUDCONbits                      EXTERNAL      00000000              0
_BSR                              EXTERNAL      00000000              0
_CCP1CON                          EXTERNAL      00000000              0
_CCP1CONbits                      EXTERNAL      00000000              0
_CCP2CON                          EXTERNAL      00000000              0
_CCP2CONbits                      EXTERNAL      00000000              0
gpasm-1.5.2 #0 (Sep 16 2019) build/default/pr   9-16-2019  13:05:29         PAGE 16


SYMBOL TABLE
  LABEL                              TYPE        VALUE         VALUE          VALUE
                                                 (hex)         (dec)          (text)

_CCPR1                            EXTERNAL      00000000              0
_CCPR1H                           EXTERNAL      00000000              0
_CCPR1L                           EXTERNAL      00000000              0
_CCPR2                            EXTERNAL      00000000              0
_CCPR2H                           EXTERNAL      00000000              0
_CCPR2L                           EXTERNAL      00000000              0
_CCPTMRS                          EXTERNAL      00000000              0
_CCPTMRSbits                      EXTERNAL      00000000              0
_CM1CON0                          EXTERNAL      00000000              0
_CM1CON0bits                      EXTERNAL      00000000              0
_CM2CON0                          EXTERNAL      00000000              0
_CM2CON0bits                      EXTERNAL      00000000              0
_CM2CON1                          EXTERNAL      00000000              0
_CM2CON1bits                      EXTERNAL      00000000              0
_CTMUCON0                         EXTERNAL      00000000              0
_CTMUCON0bits                     EXTERNAL      00000000              0
_CTMUCON1                         EXTERNAL      00000000              0
_CTMUCON1bits                     EXTERNAL      00000000              0
_CTMUCONH                         EXTERNAL      00000000              0
_CTMUCONHbits                     EXTERNAL      00000000              0
_CTMUCONL                         EXTERNAL      00000000              0
_CTMUCONLbits                     EXTERNAL      00000000              0
_CTMUICON                         EXTERNAL      00000000              0
_CTMUICONbits                     EXTERNAL      00000000              0
_DDRA                             EXTERNAL      00000000              0
_DDRAbits                         EXTERNAL      00000000              0
_DDRB                             EXTERNAL      00000000              0
_DDRBbits                         EXTERNAL      00000000              0
_DDRC                             EXTERNAL      00000000              0
_DDRCbits                         EXTERNAL      00000000              0
_ECCP1AS                          EXTERNAL      00000000              0
_ECCP1ASbits                      EXTERNAL      00000000              0
_ECCP1CON                         EXTERNAL      00000000              0
_ECCP1CONbits                     EXTERNAL      00000000              0
_ECCP1DEL                         EXTERNAL      00000000              0
_ECCP1DELbits                     EXTERNAL      00000000              0
_ECCP2CON                         EXTERNAL      00000000              0
_ECCP2CONbits                     EXTERNAL      00000000              0
_EEADR                            EXTERNAL      00000000              0
_EECON1                           EXTERNAL      00000000              0
_EECON1bits                       EXTERNAL      00000000              0
_EECON2                           EXTERNAL      00000000              0
_EEDATA                           EXTERNAL      00000000              0
_FSR0H                            EXTERNAL      00000000              0
_FSR0L                            EXTERNAL      00000000              0
_FSR1H                            EXTERNAL      00000000              0
_FSR1L                            EXTERNAL      00000000              0
_FSR2H                            EXTERNAL      00000000              0
_FSR2L                            EXTERNAL      00000000              0
_HLVDCON                          EXTERNAL      00000000              0
_HLVDCONbits                      EXTERNAL      00000000              0
_INDF0                            EXTERNAL      00000000              0
gpasm-1.5.2 #0 (Sep 16 2019) build/default/pr   9-16-2019  13:05:29         PAGE 17


SYMBOL TABLE
  LABEL                              TYPE        VALUE         VALUE          VALUE
                                                 (hex)         (dec)          (text)

_INDF1                            EXTERNAL      00000000              0
_INDF2                            EXTERNAL      00000000              0
_INTCON                           EXTERNAL      00000000              0
_INTCON2                          EXTERNAL      00000000              0
_INTCON2bits                      EXTERNAL      00000000              0
_INTCON3                          EXTERNAL      00000000              0
_INTCON3bits                      EXTERNAL      00000000              0
_INTCONbits                       EXTERNAL      00000000              0
_IOCB                             EXTERNAL      00000000              0
_IOCBbits                         EXTERNAL      00000000              0
_IOCC                             EXTERNAL      00000000              0
_IOCCbits                         EXTERNAL      00000000              0
_IPR1                             EXTERNAL      00000000              0
_IPR1bits                         EXTERNAL      00000000              0
_IPR2                             EXTERNAL      00000000              0
_IPR2bits                         EXTERNAL      00000000              0
_IPR3                             EXTERNAL      00000000              0
_IPR3bits                         EXTERNAL      00000000              0
_LATA                             EXTERNAL      00000000              0
_LATAbits                         EXTERNAL      00000000              0
_LATB                             EXTERNAL      00000000              0
_LATBbits                         EXTERNAL      00000000              0
_LATC                             EXTERNAL      00000000              0
_LATCbits                         EXTERNAL      00000000              0
_OSCCON                           EXTERNAL      00000000              0
_OSCCON2                          EXTERNAL      00000000              0
_OSCCON2bits                      EXTERNAL      00000000              0
_OSCCONbits                       EXTERNAL      00000000              0
_OSCTUNE                          EXTERNAL      00000000              0
_OSCTUNEbits                      EXTERNAL      00000000              0
_PC                               EXTERNAL      00000000              0
_PCL                              EXTERNAL      00000000              0
_PCLATH                           EXTERNAL      00000000              0
_PCLATU                           EXTERNAL      00000000              0
_PIE1                             EXTERNAL      00000000              0
_PIE1bits                         EXTERNAL      00000000              0
_PIE2                             EXTERNAL      00000000              0
_PIE2bits                         EXTERNAL      00000000              0
_PIE3                             EXTERNAL      00000000              0
_PIE3bits                         EXTERNAL      00000000              0
_PIR1                             EXTERNAL      00000000              0
_PIR1bits                         EXTERNAL      00000000              0
_PIR2                             EXTERNAL      00000000              0
_PIR2bits                         EXTERNAL      00000000              0
_PIR3                             EXTERNAL      00000000              0
_PIR3bits                         EXTERNAL      00000000              0
_PLUSW0                           EXTERNAL      00000000              0
_PLUSW1                           EXTERNAL      00000000              0
_PLUSW2                           EXTERNAL      00000000              0
_PMD0                             EXTERNAL      00000000              0
_PMD0bits                         EXTERNAL      00000000              0
_PMD1                             EXTERNAL      00000000              0
gpasm-1.5.2 #0 (Sep 16 2019) build/default/pr   9-16-2019  13:05:29         PAGE 18


SYMBOL TABLE
  LABEL                              TYPE        VALUE         VALUE          VALUE
                                                 (hex)         (dec)          (text)

_PMD1bits                         EXTERNAL      00000000              0
_PORTA                            EXTERNAL      00000000              0
_PORTAbits                        EXTERNAL      00000000              0
_PORTB                            EXTERNAL      00000000              0
_PORTBbits                        EXTERNAL      00000000              0
_PORTC                            EXTERNAL      00000000              0
_PORTCbits                        EXTERNAL      00000000              0
_PORTE                            EXTERNAL      00000000              0
_PORTEbits                        EXTERNAL      00000000              0
_POSTDEC0                         EXTERNAL      00000000              0
_POSTDEC1                         EXTERNAL      00000000              0
_POSTDEC2                         EXTERNAL      00000000              0
_POSTINC0                         EXTERNAL      00000000              0
_POSTINC1                         EXTERNAL      00000000              0
_POSTINC2                         EXTERNAL      00000000              0
_PR2                              EXTERNAL      00000000              0
_PREINC0                          EXTERNAL      00000000              0
_PREINC1                          EXTERNAL      00000000              0
_PREINC2                          EXTERNAL      00000000              0
_PROD                             EXTERNAL      00000000              0
_PRODH                            EXTERNAL      00000000              0
_PRODL                            EXTERNAL      00000000              0
_PSTR1CON                         EXTERNAL      00000000              0
_PSTR1CONbits                     EXTERNAL      00000000              0
_PWM1CON                          EXTERNAL      00000000              0
_PWM1CONbits                      EXTERNAL      00000000              0
_RCON                             EXTERNAL      00000000              0
_RCONbits                         EXTERNAL      00000000              0
_RCREG                            EXTERNAL      00000000              0
_RCREG1                           EXTERNAL      00000000              0
_RCSTA                            EXTERNAL      00000000              0
_RCSTA1                           EXTERNAL      00000000              0
_RCSTA1bits                       EXTERNAL      00000000              0
_RCSTAbits                        EXTERNAL      00000000              0
_SLRCON                           EXTERNAL      00000000              0
_SLRCONbits                       EXTERNAL      00000000              0
_SPBRG                            EXTERNAL      00000000              0
_SPBRG1                           EXTERNAL      00000000              0
_SPBRG1bits                       EXTERNAL      00000000              0
_SPBRGH                           EXTERNAL      00000000              0
_SPBRGH1                          EXTERNAL      00000000              0
_SPBRGH1bits                      EXTERNAL      00000000              0
_SPBRGHbits                       EXTERNAL      00000000              0
_SPBRGbits                        EXTERNAL      00000000              0
_SRCON0                           EXTERNAL      00000000              0
_SRCON0bits                       EXTERNAL      00000000              0
_SRCON1                           EXTERNAL      00000000              0
_SRCON1bits                       EXTERNAL      00000000              0
_SSP1ADD                          EXTERNAL      00000000              0
_SSP1ADDbits                      EXTERNAL      00000000              0
_SSP1BUF                          EXTERNAL      00000000              0
_SSP1CON1                         EXTERNAL      00000000              0
gpasm-1.5.2 #0 (Sep 16 2019) build/default/pr   9-16-2019  13:05:29         PAGE 19


SYMBOL TABLE
  LABEL                              TYPE        VALUE         VALUE          VALUE
                                                 (hex)         (dec)          (text)

_SSP1CON1bits                     EXTERNAL      00000000              0
_SSP1CON2                         EXTERNAL      00000000              0
_SSP1CON2bits                     EXTERNAL      00000000              0
_SSP1CON3                         EXTERNAL      00000000              0
_SSP1CON3bits                     EXTERNAL      00000000              0
_SSP1MSK                          EXTERNAL      00000000              0
_SSP1MSKbits                      EXTERNAL      00000000              0
_SSP1STAT                         EXTERNAL      00000000              0
_SSP1STATbits                     EXTERNAL      00000000              0
_SSPADD                           EXTERNAL      00000000              0
_SSPADDbits                       EXTERNAL      00000000              0
_SSPBUF                           EXTERNAL      00000000              0
_SSPCON                           EXTERNAL      00000000              0
_SSPCON1                          EXTERNAL      00000000              0
_SSPCON1bits                      EXTERNAL      00000000              0
_SSPCON2                          EXTERNAL      00000000              0
_SSPCON2bits                      EXTERNAL      00000000              0
_SSPCON3                          EXTERNAL      00000000              0
_SSPCON3bits                      EXTERNAL      00000000              0
_SSPCONbits                       EXTERNAL      00000000              0
_SSPMSK                           EXTERNAL      00000000              0
_SSPMSKbits                       EXTERNAL      00000000              0
_SSPSTAT                          EXTERNAL      00000000              0
_SSPSTATbits                      EXTERNAL      00000000              0
_STATUS                           EXTERNAL      00000000              0
_STATUSbits                       EXTERNAL      00000000              0
_STCON                            EXTERNAL      00000000              0
_STCONbits                        EXTERNAL      00000000              0
_STKPTR                           EXTERNAL      00000000              0
_STKPTRbits                       EXTERNAL      00000000              0
_T0CON                            EXTERNAL      00000000              0
_T0CONbits                        EXTERNAL      00000000              0
_T1CON                            EXTERNAL      00000000              0
_T1CONbits                        EXTERNAL      00000000              0
_T1GCON                           EXTERNAL      00000000              0
_T1GCONbits                       EXTERNAL      00000000              0
_T2CON                            EXTERNAL      00000000              0
_T2CONbits                        EXTERNAL      00000000              0
_T3CON                            EXTERNAL      00000000              0
_T3CONbits                        EXTERNAL      00000000              0
_T3GCON                           EXTERNAL      00000000              0
_T3GCONbits                       EXTERNAL      00000000              0
_TABLAT                           EXTERNAL      00000000              0
_TBLPTR                           EXTERNAL      00000000              0
_TBLPTRH                          EXTERNAL      00000000              0
_TBLPTRL                          EXTERNAL      00000000              0
_TBLPTRU                          EXTERNAL      00000000              0
_TMR0                             EXTERNAL      00000000              0
_TMR0H                            EXTERNAL      00000000              0
_TMR0L                            EXTERNAL      00000000              0
_TMR1                             EXTERNAL      00000000              0
_TMR1H                            EXTERNAL      00000000              0
gpasm-1.5.2 #0 (Sep 16 2019) build/default/pr   9-16-2019  13:05:29         PAGE 20


SYMBOL TABLE
  LABEL                              TYPE        VALUE         VALUE          VALUE
                                                 (hex)         (dec)          (text)

_TMR1L                            EXTERNAL      00000000              0
_TMR2                             EXTERNAL      00000000              0
_TMR3                             EXTERNAL      00000000              0
_TMR3H                            EXTERNAL      00000000              0
_TMR3L                            EXTERNAL      00000000              0
_TOS                              EXTERNAL      00000000              0
_TOSH                             EXTERNAL      00000000              0
_TOSL                             EXTERNAL      00000000              0
_TOSU                             EXTERNAL      00000000              0
_TRISA                            EXTERNAL      00000000              0
_TRISAbits                        EXTERNAL      00000000              0
_TRISB                            EXTERNAL      00000000              0
_TRISBbits                        EXTERNAL      00000000              0
_TRISC                            EXTERNAL      00000000              0
_TRISCbits                        EXTERNAL      00000000              0
_TXREG                            EXTERNAL      00000000              0
_TXREG1                           EXTERNAL      00000000              0
_TXSTA                            EXTERNAL      00000000              0
_TXSTA1                           EXTERNAL      00000000              0
_TXSTA1bits                       EXTERNAL      00000000              0
_TXSTAbits                        EXTERNAL      00000000              0
_UADDR                            EXTERNAL      00000000              0
_UADDRbits                        EXTERNAL      00000000              0
_UCFG                             EXTERNAL      00000000              0
_UCFGbits                         EXTERNAL      00000000              0
_UCON                             EXTERNAL      00000000              0
_UCONbits                         EXTERNAL      00000000              0
_UEIE                             EXTERNAL      00000000              0
_UEIEbits                         EXTERNAL      00000000              0
_UEIR                             EXTERNAL      00000000              0
_UEIRbits                         EXTERNAL      00000000              0
_UEP0                             EXTERNAL      00000000              0
_UEP0bits                         EXTERNAL      00000000              0
_UEP1                             EXTERNAL      00000000              0
_UEP1bits                         EXTERNAL      00000000              0
_UEP2                             EXTERNAL      00000000              0
_UEP2bits                         EXTERNAL      00000000              0
_UEP3                             EXTERNAL      00000000              0
_UEP3bits                         EXTERNAL      00000000              0
_UEP4                             EXTERNAL      00000000              0
_UEP4bits                         EXTERNAL      00000000              0
_UEP5                             EXTERNAL      00000000              0
_UEP5bits                         EXTERNAL      00000000              0
_UEP6                             EXTERNAL      00000000              0
_UEP6bits                         EXTERNAL      00000000              0
_UEP7                             EXTERNAL      00000000              0
_UEP7bits                         EXTERNAL      00000000              0
_UEP8                             EXTERNAL      00000000              0
_UEP8bits                         EXTERNAL      00000000              0
_UEP9                             EXTERNAL      00000000              0
_UEP9bits                         EXTERNAL      00000000              0
_UEP10                            EXTERNAL      00000000              0
gpasm-1.5.2 #0 (Sep 16 2019) build/default/pr   9-16-2019  13:05:29         PAGE 21


SYMBOL TABLE
  LABEL                              TYPE        VALUE         VALUE          VALUE
                                                 (hex)         (dec)          (text)

_UEP10bits                        EXTERNAL      00000000              0
_UEP11                            EXTERNAL      00000000              0
_UEP11bits                        EXTERNAL      00000000              0
_UEP12                            EXTERNAL      00000000              0
_UEP12bits                        EXTERNAL      00000000              0
_UEP13                            EXTERNAL      00000000              0
_UEP13bits                        EXTERNAL      00000000              0
_UEP14                            EXTERNAL      00000000              0
_UEP14bits                        EXTERNAL      00000000              0
_UEP15                            EXTERNAL      00000000              0
_UEP15bits                        EXTERNAL      00000000              0
_UFRM                             EXTERNAL      00000000              0
_UFRMH                            EXTERNAL      00000000              0
_UFRMHbits                        EXTERNAL      00000000              0
_UFRML                            EXTERNAL      00000000              0
_UFRMLbits                        EXTERNAL      00000000              0
_UIE                              EXTERNAL      00000000              0
_UIEbits                          EXTERNAL      00000000              0
_UIR                              EXTERNAL      00000000              0
_UIRbits                          EXTERNAL      00000000              0
_USTAT                            EXTERNAL      00000000              0
_USTATbits                        EXTERNAL      00000000              0
_VREFCON0                         EXTERNAL      00000000              0
_VREFCON0bits                     EXTERNAL      00000000              0
_VREFCON1                         EXTERNAL      00000000              0
_VREFCON1bits                     EXTERNAL      00000000              0
_VREFCON2                         EXTERNAL      00000000              0
_VREFCON2bits                     EXTERNAL      00000000              0
_VREGCON                          EXTERNAL      00000000              0
_WDTCON                           EXTERNAL      00000000              0
_WDTCONbits                       EXTERNAL      00000000              0
_WPUB                             EXTERNAL      00000000              0
_WPUBbits                         EXTERNAL      00000000              0
_WREG                             EXTERNAL      00000000              0
__16_BIT                          CONSTANT      00000001              1
__18F25K50                        CONSTANT      00000001              1
__ACC_RAM_LOW_END                 CONSTANT      0000005F             95
__ACC_RAM_LOW_START               CONSTANT      00000000              0
__ACTIVE_BANK_ADDR                VARIABLE      FFFFFFFF             -1
__ASSUMED_BANK_ADDR               VARIABLE      FFFFFFFF             -1
__BANK_0                          CONSTANT      00000000              0
__BANK_1                          CONSTANT      00000100            256
__BANK_2                          CONSTANT      00000200            512
__BANK_3                          CONSTANT      00000300            768
__BANK_4                          CONSTANT      00000400           1024
__BANK_5                          CONSTANT      00000500           1280
__BANK_6                          CONSTANT      00000600           1536
__BANK_7                          CONSTANT      00000700           1792
__BANK_8                          CONSTANT      00000800           2048
__BANK_9                          CONSTANT      00000900           2304
__BANK_10                         CONSTANT      00000A00           2560
__BANK_11                         CONSTANT      00000B00           2816
gpasm-1.5.2 #0 (Sep 16 2019) build/default/pr   9-16-2019  13:05:29         PAGE 22


SYMBOL TABLE
  LABEL                              TYPE        VALUE         VALUE          VALUE
                                                 (hex)         (dec)          (text)

__BANK_12                         CONSTANT      00000C00           3072
__BANK_13                         CONSTANT      00000D00           3328
__BANK_14                         CONSTANT      00000E00           3584
__BANK_15                         CONSTANT      00000F00           3840
__BANK_BITS                       CONSTANT      00000F00           3840
__BANK_FIRST                      CONSTANT      00000000              0
__BANK_INV                        CONSTANT      FFFFFFFF             -1
__BANK_LAST                       CONSTANT      00000F00           3840
__BANK_MASK                       CONSTANT      000000FF            255
__BANK_SHIFT                      CONSTANT      00000008              8
__BANK_SIZE                       CONSTANT      00000100            256
__CODE_END                        CONSTANT      00007FFF          32767
__CODE_START                      CONSTANT      00000000              0
__COMMON_RAM_END                  CONSTANT      0000005F             95
__COMMON_RAM_START                CONSTANT      00000000              0
__CONFIG_END                      CONSTANT      0030000D        3145741
__CONFIG_START                    CONSTANT      00300000        3145728
__EEPROM_END                      CONSTANT      00F000FF       15728895
__EEPROM_START                    CONSTANT      00F00000       15728640
__EXTENDED                        CONSTANT      00000001              1
__GPUTILS_SVN_VERSION             CONSTANT      00000000              0
__GPUTILS_VERSION_MAJOR           CONSTANT      00000001              1
__GPUTILS_VERSION_MICRO           CONSTANT      00000002              2
__GPUTILS_VERSION_MINOR           CONSTANT      00000005              5
__IDLOCS_END                      CONSTANT      00200007        2097159
__IDLOCS_START                    CONSTANT      00200000        2097152
__NUM_BANKS                       CONSTANT      00000010             16
__VECTOR_INT_HIGH                 CONSTANT      00000008              8
__VECTOR_INT_LOW                  CONSTANT      00000018             24
__VECTOR_RESET                    CONSTANT      00000000              0
__WHILE_LOOP_COUNT_MAX            CONSTANT      000000FF            255
__divslong                        EXTERNAL      00000000              0
__gptrget1                        EXTERNAL      00000000              0
_dvar                             EXTERNAL      00000000              0
_uart_brg                         GLOBAL        00000000              0
_uart_disable                     GLOBAL        00000000              0
_uart_enable                      GLOBAL        00000000              0
_uart_getch                       GLOBAL        00000000              0
_uart_init                        GLOBAL        00000000              0
_uart_isr                         GLOBAL        00000000              0
_uart_poll                        GLOBAL        00000000              0
_uart_putch                       GLOBAL        00000000              0
_uart_puts                        GLOBAL        00000000              0
_uart_puts2                       GLOBAL        00000000              0
r0x00                             STATIC        00000000              0
r0x01                             STATIC        00000001              1
r0x02                             STATIC        00000002              2
r0x03                             STATIC        00000003              3

Errors   :     0
Warnings :     0 reported,     0 suppressed
Messages :     0 reported,     0 suppressed

