Microchip MPLAB XC8 Compiler V1.34 ()

Linker command line:

-W-3 --edf=/opt/microchip/xc8/v1.34/dat/en_msgs.txt -cs \
  -h+dist/default/production/LC_meter.X.production.sym \
  --cmf=dist/default/production/LC_meter.X.production.cmf -z -Q18F252 \
  -o/tmp/cgtJGqFTm -Mdist/default/production/LC_meter.X.production.map -E1 \
  -ver=XC8 -ASTACK=011Fh-016fh -pstack=STACK -ACODE=00h-07FFhx4 \
  -ASTRCODE=00h-01FFFh -ASTRING=00h-0FFhx32 -ACONST=00h-0FFhx32 \
  -AENTRY=00h-0FFhx32 -ACOMMON=070h-07Fh -ABANK0=020h-06Fh \
  -ABANK1=0A0h-0EFh -ABANK2=0110h-016Fh -ABANK3=0190h-01EFh \
  -ARAM=020h-06Fh,0A0h-0EFh,0110h-016Fh,0190h-01EFh \
  -AABS1=020h-07Fh,0A0h-0EFh,0110h-016Fh,0190h-01EFh -ASFR0=00h-01Fh \
  -ASFR1=080h-09Fh -ASFR2=0100h-010Fh -ASFR3=0180h-018Fh \
  -preset_vec=00h,intentry=04h,init,end_init -ppowerup=CODE -pcinit=CODE \
  -pfunctab=CODE -ACONFIG=02007h-02007h -pconfig=CONFIG -DCONFIG=2 \
  -AIDLOC=02000h-02003h -pidloc=IDLOC -DIDLOC=2 -AEEDATA=00h-0FFh/02100h \
  -peeprom_data=EEDATA -DEEDATA=2 -DCODE=2 -DSTRCODE=2 -DSTRING=2 -DCONST=2 \
  -DENTRY=2 -k /tmp/cgtkR1sh0.obj \
  dist/default/production/LC_meter.X.production.obj 

Object code version is 3.11

Machine type is 18F252



                Name                               Link     Load   Length Selector   Space Scale
/tmp/cgtkR1sh0.obj
                end_init                             12       12        3        8       0
                reset_vec                             0        0        3        0       0
dist/default/production/LC_meter.X.production.obj
                cinit                                15       15       20        8       0
                functab                             100      100        F        2       0
                intentry                              4        4        E        8       0
                text42                             125B     125B       B2     24B6       0
                text41                             1EB4     1EB4       6E     3D68       0
                text40                             1B8B     1B8B       18     3716       0
                text39                             1BC4     1BC4       23     3788       0
                text38                             1F90     1F90       70     3F20       0
                text37                             1F22     1F22       6E     3E44       0
                text36                             1BE7     1BE7       23     37CE       0
                text35                             11AF     11AF       AC     235E       0
                text34                              7FF      7FF        1        2       0
                text33                              7D5      7D5       25        2       0
                text32                             1D8C     1D8C       5F     3B18       0
                text31                             1B78     1B78       13     36F0       0
                text30                              8A0      8A0      109     1140       0
                text29                             1493     1493       D3     2926       0
                text28                             101C     101C       79     2038       0
                text27                             1CFC     1CFC       42     39F8       0
                text26                             13C5     13C5       CE     278A       0
                text25                             1C2E     1C2E       2D     385C       0
                text24                             1B64     1B64        A     36C8       0
                text23                             1000     1000       1C     171C       0
                text22                              7FE      7FE        1        2       0
                text21                             1C5B     1C5B       2F     38B6       0
                text20                             130D     130D       B8     261A       0
                text19                             1BA3     1BA3       21     3746       0
                text18                             1E4E     1E4E       66     3C9C       0
                text17                             1121     1121       8E     2242       0
                text16                             1566     1566       DD     2ACC       0
                text15                             1B6E     1B6E        A     36DC       0
                text14                              807      807       99     100E       0
                text13                              9A9      9A9      1E5     1352       0
                text12                              64F      64F      186        2       0
                text11                             1643     1643      1BD     2C86       0
                text10                             1CBE     1CBE       3E     397C       0
                text9                              1C8A     1C8A       34     3914       0
                text8                              1095     1095       8C     212A       0
                text7                              1D3E     1D3E       4E     3A7C       0
                text6                               7FD      7FD        1        2       0
                text5                               7FC      7FC        1        2       0
                text4                               B8E      B8E      472     171C       0
                text3                               10F      10F      540        2       0
                text2                              1C0A     1C0A       24     3814       0
                text1                              1DEB     1DEB       63     3BD6       0
                maintext                             35       35       C4        8       0
                cstackBANK0                          20       20       50       20       1
                cstackCOMMON                         70       70        5       70       1
                cstackBANK1                          A0       A0       42       A0       1
                cstackBANK2                         110      110        F      110       1
                cstackBANK3                         1CE      1CE       10      190       1
                clrtext                            1B5C     1B5C        8     36B8       0
                dataBANK3                           1E5      1E5        1      190       1
                bssBANK3                            190      190       3E      190       1
                bssBANK1                             E2       E2        1       A0       1
                dataCOMMON                           79       79        1       70       1
                bssCOMMON                            75       75        4       70       1
                nvBANK3                             1DE      1DE        7      190       1
                strings                            1800     1800       69     3000       0
                idataBANK3                          7FB      7FB        1        2       0
                idataCOMMON                         7FA      7FA        1        2       0

TOTAL           Name                               Link     Load   Length     Space
        CLASS   STACK          

        CLASS   CODE           
                end_init                             12       12        3         0
                cinit                                15       15       20         0
                functab                             100      100        F         0
                intentry                              4        4        E         0
                reset_vec                             0        0        3         0
                text42                             125B     125B       B2         0
                text41                             1EB4     1EB4       6E         0
                text40                             1B8B     1B8B       18         0
                text39                             1BC4     1BC4       23         0
                text38                             1F90     1F90       70         0
                text37                             1F22     1F22       6E         0
                text36                             1BE7     1BE7       23         0
                text35                             11AF     11AF       AC         0
                text34                              7FF      7FF        1         0
                text33                              7D5      7D5       25         0
                text32                             1D8C     1D8C       5F         0
                text31                             1B78     1B78       13         0
                text30                              8A0      8A0      109         0
                text29                             1493     1493       D3         0
                text28                             101C     101C       79         0
                text27                             1CFC     1CFC       42         0
                text26                             13C5     13C5       CE         0
                text25                             1C2E     1C2E       2D         0
                text24                             1B64     1B64        A         0
                text23                             1000     1000       1C         0
                text22                              7FE      7FE        1         0
                text21                             1C5B     1C5B       2F         0
                text20                             130D     130D       B8         0
                text19                             1BA3     1BA3       21         0
                text18                             1E4E     1E4E       66         0
                text17                             1121     1121       8E         0
                text16                             1566     1566       DD         0
                text15                             1B6E     1B6E        A         0
                text14                              807      807       99         0
                text13                              9A9      9A9      1E5         0
                text12                              64F      64F      186         0
                text11                             1643     1643      1BD         0
                text10                             1CBE     1CBE       3E         0
                text9                              1C8A     1C8A       34         0
                text8                              1095     1095       8C         0
                text7                              1D3E     1D3E       4E         0
                text6                               7FD      7FD        1         0
                text5                               7FC      7FC        1         0
                text4                               B8E      B8E      472         0
                text3                               10F      10F      540         0
                text2                              1C0A     1C0A       24         0
                text1                              1DEB     1DEB       63         0
                maintext                             35       35       C4         0
                clrtext                            1B5C     1B5C        8         0
                idataBANK3                          7FB      7FB        1         0
                idataCOMMON                         7FA      7FA        1         0

        CLASS   STRCODE        

        CLASS   STRING         
                strings                            1800     1800       69         0

        CLASS   CONST          

        CLASS   ENTRY          

        CLASS   COMMON         
                cstackCOMMON                         70       70        5         1
                dataCOMMON                           79       79        1         1
                bssCOMMON                            75       75        4         1

        CLASS   BANK0          
                cstackBANK0                          20       20       50         1

        CLASS   BANK1          
                cstackBANK1                          A0       A0       42         1
                bssBANK1                             E2       E2        1         1

        CLASS   BANK2          
                cstackBANK2                         110      110        F         1

        CLASS   BANK3          
                cstackBANK3                         1CE      1CE       10         1
                dataBANK3                           1E5      1E5        1         1
                bssBANK3                            190      190       3E         1
                nvBANK3                             1DE      1DE        7         1

        CLASS   RAM            

        CLASS   ABS1           
                abs_s1                               7E       7E        2         1

        CLASS   SFR0           

        CLASS   SFR1           

        CLASS   SFR2           

        CLASS   SFR3           

        CLASS   CONFIG         

        CLASS   IDLOC          

        CLASS   EEDATA         



SEGMENTS        Name                           Load    Length   Top    Selector   Space  Class     Delta

                reset_vec                      000000  000003  000003         0       0  CODE        2
                intentry                       000004  0000F5  0000F9         8       0  CODE        2
                cstackBANK0                    000020  000050  000070        20       1  BANK0       1
                cstackCOMMON                   000070  00000A  00007A        70       1  COMMON      1
                cstackBANK1                    0000A0  000043  0000E3        A0       1  BANK1       1
                cstackBANK2                    000110  00000F  00011F       110       1  BANK2       1
                bssBANK3                       000190  000056  0001E6       190       1  BANK3       1
                functab                        000100  000700  000800         2       0  CODE        2
                text14                         000807  000099  0008A0      100E       0  CODE        2
                text30                         0008A0  000109  0009A9      1140       0  CODE        2
                text13                         0009A9  0001E5  000B8E      1352       0  CODE        2
                text4                          000B8E  00048E  00101C      171C       0  CODE        2
                text28                         00101C  000079  001095      2038       0  CODE        2
                text8                          001095  00008C  001121      212A       0  CODE        2
                text17                         001121  00008E  0011AF      2242       0  CODE        2
                text35                         0011AF  0000AC  00125B      235E       0  CODE        2
                text42                         00125B  0000B2  00130D      24B6       0  CODE        2
                text20                         00130D  0000B8  0013C5      261A       0  CODE        2
                text26                         0013C5  0000CE  001493      278A       0  CODE        2
                text29                         001493  0000D3  001566      2926       0  CODE        2
                text16                         001566  0000DD  001643      2ACC       0  CODE        2
                text11                         001643  0001BD  001800      2C86       0  CODE        2
                strings                        001800  000069  001869      3000       0  STRING      2
                clrtext                        001B5C  000008  001B64      36B8       0  CODE        2
                text24                         001B64  00000A  001B6E      36C8       0  CODE        2
                text15                         001B6E  00000A  001B78      36DC       0  CODE        2
                text31                         001B78  000013  001B8B      36F0       0  CODE        2
                text40                         001B8B  000018  001BA3      3716       0  CODE        2
                text19                         001BA3  000021  001BC4      3746       0  CODE        2
                text39                         001BC4  000023  001BE7      3788       0  CODE        2
                text36                         001BE7  000023  001C0A      37CE       0  CODE        2
                text2                          001C0A  000024  001C2E      3814       0  CODE        2
                text25                         001C2E  00002D  001C5B      385C       0  CODE        2
                text21                         001C5B  00002F  001C8A      38B6       0  CODE        2
                text9                          001C8A  000034  001CBE      3914       0  CODE        2
                text10                         001CBE  00003E  001CFC      397C       0  CODE        2
                text27                         001CFC  000042  001D3E      39F8       0  CODE        2
                text7                          001D3E  00004E  001D8C      3A7C       0  CODE        2
                text32                         001D8C  00005F  001DEB      3B18       0  CODE        2
                text1                          001DEB  000063  001E4E      3BD6       0  CODE        2
                text18                         001E4E  000066  001EB4      3C9C       0  CODE        2
                text41                         001EB4  00006E  001F22      3D68       0  CODE        2
                text37                         001F22  00006E  001F90      3E44       0  CODE        2
                text38                         001F90  000070  002000      3F20       0  CODE        2


UNUSED ADDRESS RANGES

        Name                Unused          Largest block    Delta
        BANK1            00E3-00EF              D           1
        BANK2            011F-016F             51           1
        BANK3            01E6-01EF              A           1
        CODE             0003-0003              1           2
                         00F9-00FF              7
                         0800-0806              7
                         1869-1B5B            2F3
        COMMON           007A-007D              4           1
        CONFIG           2007-2007              1           2
        CONST            0003-0003              1           2
                         00F9-00FF              7
                         0800-0806              7
                         1869-1B5B            100
        EEDATA           2100-21FF            100           2
        ENTRY            0003-0003              1           2
                         00F9-00FF              7
                         0800-0806              7
                         1869-1B5B            100
        IDLOC            2000-2003              4           2
        RAM              00E3-00EF              D           1
                         011F-016F             51
                         01E6-01EF              A
        SFR0             0000-001F             20           1
        SFR1             0080-009F             20           1
        SFR2             0100-010F             10           1
        SFR3             0180-018F             10           1
        STACK            011F-016F             51           1
        STRCODE          0003-0003              1           2
                         00F9-00FF              7
                         0800-0806              7
                         1869-1B5B            2F3
        STRING           0003-0003              1           2
                         00F9-00FF              7
                         0800-0806              7
                         1869-1B5B            100

                                  Symbol Table

?___altoft                     cstackBANK1  00AE
?___awtoft                     cstackBANK0  0028
?___ftadd                      cstackBANK0  004B
?___ftdiv                      cstackBANK0  0028
?___ftmul                      cstackBANK0  0038
?___ftneg                      cstackBANK0  0048
?___ftpack                     cstackBANK0  0020
?___ftsub                      cstackBANK0  0058
?___fttol                      cstackBANK1  00A0
?___lltoft                     cstackBANK0  0028
?___lwdiv                      cstackBANK0  0020
?___lwmod                      cstackBANK0  0020
?___lwtoft                     cstackBANK0  002B
?___wmul                       cstackBANK0  0020
?_eval_poly                    cstackBANK0  0058
?_exp                          cstackBANK1  00BD
?_floor                        cstackBANK1  00B4
?_frexp                        cstackBANK0  0020
?_ldexp                        cstackBANK0  0062
?_log                          cstackBANK0  0062
?_log10                        cstackBANK0  0068
?_measure_freq                 cstackBANK0  0020
?_pow                          cstackBANK1  00CA
_BRGH                          (abs)        04C2
_CCal                          nvBANK3      01DE
_CMCON                         (abs)        009C
_CREN                          (abs)        00C4
_F1                            bssBANK3     01CB
_F2                            bssBANK3     01C0
_F3                            bssBANK3     01C3
_GIE                           (abs)        005F
_OERR                          (abs)        00C1
_PEIE                          (abs)        005E
_RC3                           (abs)        003B
_RC4                           (abs)        003C
_RC5                           (abs)        003D
_RC7                           (abs)        003F
_RCIF                          (abs)        0065
_RCREG                         (abs)        001A
_RX9                           (abs)        00C6
_SPBRG                         (abs)        0099
_SPEN                          (abs)        00C7
_SSPEN                         (abs)        00A5
_SYNC                          (abs)        04C4
_T0CS                          (abs)        040D
_T0SE                          (abs)        040C
_T2CKPS0                       (abs)        0090
_T2CKPS1                       (abs)        0091
_TMR0                          (abs)        0001
_TMR0IF                        (abs)        005A
_TMR2                          (abs)        0011
_TMR2IE                        (abs)        0461
_TMR2IF                        (abs)        0061
_TMR2ON                        (abs)        0092
_TOUTPS0                       (abs)        0093
_TOUTPS1                       (abs)        0094
_TOUTPS2                       (abs)        0095
_TRISA                         (abs)        0085
_TRISC                         (abs)        0087
_TRISC0                        (abs)        0438
_TRISC1                        (abs)        0439
_TRISC2                        (abs)        043A
_TRISC3                        (abs)        043B
_TRISC4                        (abs)        043C
_TRISC5                        (abs)        043D
_TRISC6                        (abs)        043E
_TX9                           (abs)        04C6
_TXEN                          (abs)        04C5
_TXIE                          (abs)        0464
_TXIF                          (abs)        0064
_TXREG                         (abs)        0019
__Habs1                        abs1         0000
__Hbank0                       bank0        0000
__Hbank1                       bank1        0000
__Hbank2                       bank2        0000
__Hbank3                       bank3        0000
__HbssBANK1                    bssBANK1     0000
__HbssBANK3                    bssBANK3     0000
__HbssCOMMON                   bssCOMMON    0000
__Hcinit                       cinit        0035
__Hclrtext                     clrtext      0000
__Hcode                        code         0000
__Hcommon                      common       0000
__Hconfig                      config       0000
__HcstackBANK0                 cstackBANK0  0000
__HcstackBANK1                 cstackBANK1  0000
__HcstackBANK2                 cstackBANK2  0000
__HcstackBANK3                 cstackBANK3  0000
__HcstackCOMMON                cstackCOMMON 0000
__HdataBANK3                   dataBANK3    0000
__HdataCOMMON                  dataCOMMON   0000
__Heeprom_data                 eeprom_data  0000
__Hend_init                    end_init     0015
__Hfunctab                     functab      010F
__HidataBANK3                  idataBANK3   0000
__HidataCOMMON                 idataCOMMON  0000
__Hidloc                       idloc        0000
__Hinit                        init         0012
__Hintentry                    intentry     0012
__Hmaintext                    maintext     0000
__HnvBANK3                     nvBANK3      0000
__Hpowerup                     powerup      0000
__Hram                         ram          0000
__Hreset_vec                   reset_vec    0003
__Hsfr0                        sfr0         0000
__Hsfr1                        sfr1         0000
__Hsfr2                        sfr2         0000
__Hsfr3                        sfr3         0000
__Hspace_0                     (abs)        2000
__Hspace_1                     (abs)        01E6
__Hspace_2                     (abs)        0000
__Hspace_3                     (abs)        0000
__Hstack                       stack        0000
__Hstrings                     strings      0000
__Htext                        text         0000
__Labs1                        abs1         0000
__Lbank0                       bank0        0000
__Lbank1                       bank1        0000
__Lbank2                       bank2        0000
__Lbank3                       bank3        0000
__LbssBANK1                    bssBANK1     0000
__LbssBANK3                    bssBANK3     0000
__LbssCOMMON                   bssCOMMON    0000
__Lcinit                       cinit        0015
__Lclrtext                     clrtext      0000
__Lcode                        code         0000
__Lcommon                      common       0000
__Lconfig                      config       0000
__LcstackBANK0                 cstackBANK0  0000
__LcstackBANK1                 cstackBANK1  0000
__LcstackBANK2                 cstackBANK2  0000
__LcstackBANK3                 cstackBANK3  0000
__LcstackCOMMON                cstackCOMMON 0000
__LdataBANK3                   dataBANK3    0000
__LdataCOMMON                  dataCOMMON   0000
__Leeprom_data                 eeprom_data  0000
__Lend_init                    end_init     0012
__Lfunctab                     functab      0100
__LidataBANK3                  idataBANK3   0000
__LidataCOMMON                 idataCOMMON  0000
__Lidloc                       idloc        0000
__Linit                        init         0012
__Lintentry                    intentry     0004
__Lmaintext                    maintext     0000
__LnvBANK3                     nvBANK3      0000
__Lpowerup                     powerup      0000
__Lram                         ram          0000
__Lreset_vec                   reset_vec    0000
__Lsfr0                        sfr0         0000
__Lsfr1                        sfr1         0000
__Lsfr2                        sfr2         0000
__Lsfr3                        sfr3         0000
__Lspace_0                     (abs)        0000
__Lspace_1                     (abs)        0000
__Lspace_2                     (abs)        0000
__Lspace_3                     (abs)        0000
__Lstack                       stack        0000
__Lstrings                     strings      0000
__Ltext                        text         0000
__S0                           (abs)        2000
__S1                           (abs)        01E6
__S2                           (abs)        0000
__S3                           (abs)        0000
___altoft                      text18       1E4E
___altoft@c                    cstackBANK1  00AE
___altoft@exp                  cstackBANK1  00B2
___altoft@sign                 cstackBANK1  00B3
___awtoft                      text33       07D5
___awtoft@c                    cstackBANK0  0028
___awtoft@sign                 cstackBANK0  002D
___bmul                        text31       1B78
___bmul@multiplicand           cstackBANK0  0020
___bmul@multiplier             cstackBANK0  0023
___bmul@product                cstackBANK0  0022
___ftadd                       text30       08A0
___ftadd@exp1                  cstackBANK0  0057
___ftadd@exp2                  cstackBANK0  0056
___ftadd@f1                    cstackBANK0  004B
___ftadd@f2                    cstackBANK0  004E
___ftadd@sign                  cstackBANK0  0055
___ftdiv                       text20       130D
___ftdiv@cntr                  cstackBANK0  0032
___ftdiv@exp                   cstackBANK0  0036
___ftdiv@f1                    cstackBANK0  002B
___ftdiv@f2                    cstackBANK0  0028
___ftdiv@f3                    cstackBANK0  0033
___ftdiv@sign                  cstackBANK0  0037
___ftge                        text32       1D8C
___ftge@ff1                    cstackBANK0  0020
___ftge@ff2                    cstackBANK0  0023
___ftmul                       text29       1493
___ftmul@cntr                  cstackBANK0  0046
___ftmul@exp                   cstackBANK0  0042
___ftmul@f1                    cstackBANK0  0038
___ftmul@f2                    cstackBANK0  003B
___ftmul@f3_as_product         cstackBANK0  0043
___ftmul@sign                  cstackBANK0  0047
___ftneg                       text15       1B6E
___ftneg@f1                    cstackBANK0  0048
___ftpack                      text41       1EB4
___ftpack@arg                  cstackBANK0  0020
___ftpack@exp                  cstackBANK0  0023
___ftpack@sign                 cstackBANK0  0024
___ftsub                       text19       1BA3
___ftsub@f1                    cstackBANK0  005B
___ftsub@f2                    cstackBANK0  0058
___fttol                       text17       1121
___fttol@exp1                  cstackBANK1  00AD
___fttol@f1                    cstackBANK1  00A0
___fttol@lval                  cstackBANK1  00A9
___fttol@sign1                 cstackBANK1  00A8
___int_sp                      stack        0000
___latbits                     (abs)        0002
___lltoft                      text21       1C5B
___lltoft@c                    cstackBANK0  0028
___lltoft@exp                  cstackBANK0  002D
___lwdiv                       text10       1CBE
___lwdiv@counter               cstackBANK0  0025
___lwdiv@dividend              cstackBANK0  0022
___lwdiv@divisor               cstackBANK0  0020
___lwdiv@quotient              cstackBANK0  0026
___lwmod                       text9        1C8A
___lwmod@counter               cstackBANK0  0025
___lwmod@dividend              cstackBANK0  0022
___lwmod@divisor               cstackBANK0  0020
___lwtoft                      text40       1B8B
___lwtoft@c                    cstackBANK0  002B
___sp                          stack        0000
___wmul                        text39       1BC4
___wmul@multiplicand           cstackBANK0  0022
___wmul@multiplier             cstackBANK0  0020
___wmul@product                cstackBANK0  0024
__end_of___altoft              text18       1EB4
__end_of___awtoft              text33       07FA
__end_of___bmul                text31       1B8B
__end_of___ftadd               text30       09A9
__end_of___ftdiv               text20       13C5
__end_of___ftge                text32       1DEB
__end_of___ftmul               text29       1566
__end_of___ftneg               text15       1B78
__end_of___ftpack              text41       1F22
__end_of___ftsub               text19       1BC4
__end_of___fttol               text17       11AF
__end_of___lltoft              text21       1C8A
__end_of___lwdiv               text10       1CFC
__end_of___lwmod               text9        1CBE
__end_of___lwtoft              text40       1BA3
__end_of___wmul                text39       1BE7
__end_of__fptable              functab      010F
__end_of__initialization       cinit        0031
__end_of__stringtab            strings      1806
__end_of_calibrate             text35       125B
__end_of_delay10ms             text38       2000
__end_of_eval_poly             text28       1095
__end_of_exp                   text13       0B8E
__end_of_floor                 text16       1643
__end_of_format_double         text11       1800
__end_of_format_number         text8        1121
__end_of_format_putchar        text22       07FF
__end_of_format_xint32         text7        1D8C
__end_of_frexp                 text27       1D3E
__end_of_indicator             text34       0800
__end_of_isr                   text42       130D
__end_of_ldexp                 text14       08A0
__end_of_log                   text26       1493
__end_of_log10                 text25       1C5B
__end_of_main                  maintext     00F9
__end_of_measure_capacitance   text4        1000
__end_of_measure_freq          text37       1F90
__end_of_measure_inductance    text3        064F
__end_of_output_putch          text24       1B6E
__end_of_pow                   text12       07D5
__end_of_print_reading         text6        07FE
__end_of_print_unit            text5        07FD
__end_of_ser_init              text2        1C2E
__end_of_ser_putch             text23       101C
__end_of_ser_puts              text36       1C0A
__end_of_timer2_init           text1        1E4E
__end_ofexp@coeff              strings      1824
__end_oflog@coeff              strings      183F
__fptable                      functab      0100
__initialization               cinit        0015
__pbssBANK1                    bssBANK1     00E2
__pbssBANK3                    bssBANK3     0190
__pbssCOMMON                   bssCOMMON    0075
__pcstackBANK0                 cstackBANK0  0020
__pcstackBANK1                 cstackBANK1  00A0
__pcstackBANK2                 cstackBANK2  0110
__pcstackBANK3                 cstackBANK3  01CE
__pcstackCOMMON                cstackCOMMON 0070
__pdataBANK3                   dataBANK3    01E5
__pdataCOMMON                  dataCOMMON   0079
__pfunctab                     functab      0100
__pidataBANK3                  idataBANK3   07FB
__pidataCOMMON                 idataCOMMON  07FA
__pintentry                    intentry     0004
__pmaintext                    maintext     0035
__pnvBANK3                     nvBANK3      01DE
__pstrings                     strings      1800
__ptext1                       text1        1DEB
__ptext10                      text10       1CBE
__ptext11                      text11       1643
__ptext12                      text12       064F
__ptext13                      text13       09A9
__ptext14                      text14       0807
__ptext15                      text15       1B6E
__ptext16                      text16       1566
__ptext17                      text17       1121
__ptext18                      text18       1E4E
__ptext19                      text19       1BA3
__ptext2                       text2        1C0A
__ptext20                      text20       130D
__ptext21                      text21       1C5B
__ptext22                      text22       07FE
__ptext23                      text23       1000
__ptext24                      text24       1B64
__ptext25                      text25       1C2E
__ptext26                      text26       13C5
__ptext27                      text27       1CFC
__ptext28                      text28       101C
__ptext29                      text29       1493
__ptext3                       text3        010F
__ptext30                      text30       08A0
__ptext31                      text31       1B78
__ptext32                      text32       1D8C
__ptext33                      text33       07D5
__ptext34                      text34       07FF
__ptext35                      text35       11AF
__ptext36                      text36       1BE7
__ptext37                      text37       1F22
__ptext38                      text38       1F90
__ptext39                      text39       1BC4
__ptext4                       text4        0B8E
__ptext40                      text40       1B8B
__ptext41                      text41       1EB4
__ptext42                      text42       125B
__ptext5                       text5        07FC
__ptext6                       text6        07FD
__ptext7                       text7        1D3E
__ptext8                       text8        1095
__ptext9                       text9        1C8A
__size_of___altoft             (abs)        0000
__size_of___awtoft             (abs)        0000
__size_of___bmul               (abs)        0000
__size_of___ftadd              (abs)        0000
__size_of___ftdiv              (abs)        0000
__size_of___ftge               (abs)        0000
__size_of___ftmul              (abs)        0000
__size_of___ftneg              (abs)        0000
__size_of___ftpack             (abs)        0000
__size_of___ftsub              (abs)        0000
__size_of___fttol              (abs)        0000
__size_of___lltoft             (abs)        0000
__size_of___lwdiv              (abs)        0000
__size_of___lwmod              (abs)        0000
__size_of___lwtoft             (abs)        0000
__size_of___wmul               (abs)        0000
__size_of__fptable             (abs)        0000
__size_of_calibrate            (abs)        0000
__size_of_delay10ms            (abs)        0000
__size_of_eval_poly            (abs)        0000
__size_of_exp                  (abs)        0000
__size_of_floor                (abs)        0000
__size_of_format_double        (abs)        0000
__size_of_format_number        (abs)        0000
__size_of_format_putchar       (abs)        0000
__size_of_format_xint32        (abs)        0000
__size_of_frexp                (abs)        0000
__size_of_indicator            (abs)        0000
__size_of_isr                  (abs)        0000
__size_of_ldexp                (abs)        0000
__size_of_log                  (abs)        0000
__size_of_log10                (abs)        0000
__size_of_main                 (abs)        0000
__size_of_measure_capacitance  (abs)        0000
__size_of_measure_freq         (abs)        0000
__size_of_measure_inductance   (abs)        0000
__size_of_output_putch         (abs)        0000
__size_of_pow                  (abs)        0000
__size_of_print_reading        (abs)        0000
__size_of_print_unit           (abs)        0000
__size_of_ser_init             (abs)        0000
__size_of_ser_putch            (abs)        0000
__size_of_ser_puts             (abs)        0000
__size_of_timer2_init          (abs)        0000
__stringbase                   strings      1805
__stringtab                    strings      1800
_blink                         bssBANK3     01C6
_bres                          nvBANK3      01E1
_calibrate                     text35       11AF
_delay10ms                     text38       1F90
_errno                         bssBANK3     01C8
_eval_poly                     text28       101C
_exp                           text13       09A9
_exp$625                       cstackBANK1  00C4
_exp$836                       cstackBANK1  00C1
_floor                         text16       1566
_format_double                 text11       1643
_format_double$310             cstackBANK3  01D4
_format_double$831             cstackBANK3  01CE
_format_double$832             cstackBANK3  01D1
_format_number                 text8        1095
_format_number$296             cstackBANK0  004F
_format_putchar                text22       07FE
_format_xint32                 text7        1D3E
_frexp                         text27       1CFC
_indicator                     text34       07FF
_isr                           text42       125B
_ldexp                         text14       0807
_ldexp$492                     cstackBANK0  0069
_log                           text26       13C5
_log10                         text25       1C2E
_log10$833                     cstackBANK0  006B
_main                          maintext     0035
_measure_capacitance           text4        0B8E
_measure_capacitance$819       cstackBANK2  0110
_measure_capacitance$820       cstackBANK2  0113
_measure_capacitance$821       cstackBANK2  0116
_measure_freq                  text37       1F22
_measure_inductance            text3        010F
_measure_inductance$822        cstackBANK1  00B4
_measure_inductance$823        cstackBANK1  00C1
_measure_inductance$824        cstackBANK1  00C4
_measure_inductance$825        cstackBANK1  00C7
_measure_inductance$826        cstackBANK1  00B7
_measure_inductance$827        cstackBANK1  00BA
_measure_inductance$828        cstackBANK1  00BD
_msecpart                      nvBANK3      01E3
_msecs                         bssBANK3     01B0
_nRBPU                         (abs)        040F
_output_putch                  text24       1B64
_pow                           text12       064F
_pow$834                       cstackBANK1  00D1
_pow$835                       cstackBANK1  00D4
_print_reading                 text6        07FD
_print_unit                    text5        07FC
_putchar_ptr                   dataCOMMON   0079
_rxfifo                        bssBANK3     0190
_rxiptr                        bssCOMMON    0075
_rxoptr                        bssCOMMON    0076
_seconds                       bssBANK3     01B4
_ser_brg                       dataBANK3    01E5
_ser_init                      text2        1C0A
_ser_putch                     text23       1000
_ser_puts                      text36       1BE7
_ser_tmp                       bssBANK1     00E2
_timer1of                      bssBANK3     01B8
_timer2_init                   text1        1DEB
_txfifo                        bssBANK3     01A0
_txiptr                        bssCOMMON    0077
_txoptr                        bssCOMMON    0078
btemp                          (abs)        007E
clear_ram0                     clrtext      1B5C
delay10ms@ms                   cstackBANK0  002C
delay10ms@period_10ms          cstackBANK0  0026
delay10ms@run                  cstackBANK0  0030
end_of_initialization          cinit        0031
entry__output_putch            functab      0106
entry__ser_putch               functab      0109
eval_poly@d                    cstackBANK0  005B
eval_poly@n                    cstackBANK0  005C
eval_poly@res                  cstackBANK0  005F
eval_poly@x                    cstackBANK0  0058
exp@coeff                      strings      1806
exp@exponent                   cstackBANK1  00C7
exp@sign                       cstackBANK1  00C9
exp@x                          cstackBANK1  00BD
floor@expon                    cstackBANK1  00BB
floor@i                        cstackBANK1  00B8
floor@x                        cstackBANK1  00B4
format_double@digit            cstackBANK3  01DA
format_double@m                cstackBANK3  01DC
format_double@num              cstackBANK1  00DC
format_double@weight           cstackBANK3  01D7
format_number@base             cstackBANK0  002A
format_number@buf              cstackBANK0  002F
format_number@di               cstackBANK0  0052
format_number@i                cstackBANK0  0053
format_number@n                cstackBANK0  0028
format_number@pad              cstackBANK0  002B
format_number@padchar          cstackBANK0  0051
format_putchar@c               cstackBANK0  0020
format_xint32@x                cstackBANK0  0054
fpbase                         functab      0105
fptable                        functab      0100
fptotal                        (abs)        0006
frexp@eptr                     cstackBANK0  0023
frexp@value                    cstackBANK0  0020
interrupt_function             intentry     0004
intlevel0                      functab      0100
intlevel1                      functab      0100
intlevel2                      functab      0100
intlevel3                      functab      0100
intlevel4                      functab      0100
intlevel5                      functab      0100
ldexp@newexp                   cstackBANK0  0065
ldexp@value                    cstackBANK0  0062
log10@x                        cstackBANK0  0068
log@coeff                      strings      1824
log@exponent                   cstackBANK0  0066
log@x                          cstackBANK0  0062
ltemp                          (abs)        007E
ltemp0                         (abs)        007E
ltemp1                         (abs)        0082
ltemp2                         (abs)        0086
ltemp3                         (abs)        0080
measure_capacitance@Cin        cstackBANK2  011C
measure_capacitance@unit       cstackBANK2  0119
measure_capacitance@var        cstackBANK2  011A
measure_freq@count             cstackBANK0  0029
measure_freq@prev              cstackBANK0  0028
measure_inductance@Lin         cstackBANK1  00CC
measure_inductance@denominator cstackBANK1  00B1
measure_inductance@numerator   cstackBANK1  00AE
measure_inductance@unit        cstackBANK1  00C0
measure_inductance@var         cstackBANK1  00CA
output_putch@c                 cstackBANK0  0020
pow@sign                       cstackBANK1  00D7
pow@x                          cstackBANK1  00CA
pow@y                          cstackBANK1  00CD
pow@yi                         cstackBANK1  00D8
print_reading@measurement      cstackBANK0  0020
reset_vec                      reset_vec    0000
saved_w                        (abs)        007E
ser_putch@c                    cstackBANK0  0020
ser_puts@s                     cstackBANK0  0023
stackhi                        (abs)        0000
stacklo                        (abs)        0000
start                          init         0012
start_initialization           cinit        0015
testloop@prev_s                bssBANK3     01BC
timer2_init@postscaler         cstackBANK0  0023
timer2_init@ps                 cstackBANK0  0022
timer2_init@ps_mode            cstackBANK0  0021
ttemp                          (abs)        007E
ttemp0                         (abs)        007E
ttemp1                         (abs)        0081
ttemp2                         (abs)        0084
ttemp3                         (abs)        0087
ttemp4                         (abs)        007F
wtemp                          (abs)        007E
wtemp0                         (abs)        007E
wtemp1                         (abs)        0080
wtemp2                         (abs)        0082
wtemp3                         (abs)        0084
wtemp4                         (abs)        0086
wtemp5                         (abs)        0088
wtemp6                         (abs)        007F


FUNCTION INFORMATION:

 *************** function _main *****************
 Defined at:
		line 116 in file "../../../src/LC-meter.c"
 Parameters:    Size  Location     Type
		None
 Auto vars:     Size  Location     Type
		None
 Return value:  Size  Location     Type
		None               void
 Registers used:
		wreg, fsr0l, fsr0h, status,2, status,0, btemp+1, pclath, cstack
 Tracked objects:
		On entry : 
		On exit  : 
		Unchanged: 
 Data sizes:     COMMON   BANK0   BANK1   BANK3   BANK2
      Params:         0       0       0       0       0
      Locals:         0       0       0       0       0
      Temps:          0       0       1       0       0
      Totals:         0       0       1       0       0
Total ram usage:        1 bytes
 Hardware stack levels required when called:    8
 This function calls:
		_calibrate
		_delay10ms
		_indicator
		_measure_capacitance
		_measure_inductance
		_ser_init
		_ser_puts
		_timer2_init
 This function is called by:
		Startup code after reset
 This function uses a non-reentrant model


 *************** function _timer2_init *****************
 Defined at:
		line 81 in file "../../../lib/timer.c"
 Parameters:    Size  Location     Type
  ps_mode         1    wreg     unsigned char 
 Auto vars:     Size  Location     Type
  ps_mode         1    1[BANK0 ] unsigned char 
  postscaler      1    3[BANK0 ] unsigned char 
  ps              1    2[BANK0 ] unsigned char 
 Return value:  Size  Location     Type
		None               void
 Registers used:
		wreg, status,2, status,0
 Tracked objects:
		On entry : 
		On exit  : 
		Unchanged: 
 Data sizes:     COMMON   BANK0   BANK1   BANK3   BANK2
      Params:         0       0       0       0       0
      Locals:         0       3       0       0       0
      Temps:          0       1       0       0       0
      Totals:         0       4       0       0       0
Total ram usage:        4 bytes
 Hardware stack levels used:    1
 Hardware stack levels required when called:    1
 This function calls:
		Nothing
 This function is called by:
		_main
 This function uses a non-reentrant model


 *************** function _ser_init *****************
 Defined at:
		line 126 in file "../../../lib/ser.c"
 Parameters:    Size  Location     Type
		None
 Auto vars:     Size  Location     Type
		None
 Return value:  Size  Location     Type
		None               void
 Registers used:
		wreg, status,2
 Tracked objects:
		On entry : 
		On exit  : 
		Unchanged: 
 Data sizes:     COMMON   BANK0   BANK1   BANK3   BANK2
      Params:         0       0       0       0       0
      Locals:         0       0       0       0       0
      Temps:          0       0       0       0       0
      Totals:         0       0       0       0       0
Total ram usage:        0 bytes
 Hardware stack levels used:    1
 Hardware stack levels required when called:    1
 This function calls:
		Nothing
 This function is called by:
		_main
 This function uses a non-reentrant model


 *************** function _measure_inductance *****************
 Defined at:
		line 469 in file "../../../src/LC-meter.c"
 Parameters:    Size  Location     Type
		None
 Auto vars:     Size  Location     Type
  Lin             3   44[BANK1 ] unsigned char 
  denominator     3   17[BANK1 ] unsigned char 
  numerator       3   14[BANK1 ] unsigned char 
  var             2   42[BANK1 ] unsigned short 
  unit            1   32[BANK1 ] unsigned char 
 Return value:  Size  Location     Type
		None               void
 Registers used:
		wreg, status,2, status,0, btemp+1, pclath, cstack
 Tracked objects:
		On entry : 
		On exit  : 
		Unchanged: 
 Data sizes:     COMMON   BANK0   BANK1   BANK3   BANK2
      Params:         0       0       0       0       0
      Locals:         0       0      33       0       0
      Temps:          0       1       0       0       0
      Totals:         0       1      33       0       0
Total ram usage:       34 bytes
 Hardware stack levels used:    1
 Hardware stack levels required when called:    3
 This function calls:
		___ftadd
		___ftdiv
		___ftge
		___ftmul
		___ftneg
		___fttol
		___lwtoft
		_measure_freq
		_print_reading
		_print_unit
 This function is called by:
		_main
 This function uses a non-reentrant model


 *************** function _measure_capacitance *****************
 Defined at:
		line 391 in file "../../../src/LC-meter.c"
 Parameters:    Size  Location     Type
		None
 Auto vars:     Size  Location     Type
  Cin             3   12[BANK2 ] unsigned char 
  var             2   10[BANK2 ] unsigned short 
  unit            1    9[BANK2 ] unsigned char 
 Return value:  Size  Location     Type
		None               void
 Registers used:
		wreg, fsr0l, fsr0h, status,2, status,0, btemp+1, pclath, cstack
 Tracked objects:
		On entry : 
		On exit  : 
		Unchanged: 
 Data sizes:     COMMON   BANK0   BANK1   BANK3   BANK2
      Params:         0       0       0       0       0
      Locals:         0       0       0       0      15
      Temps:          0       0       1       0       0
      Totals:         0       0       1       0      15
Total ram usage:       16 bytes
 Hardware stack levels used:    1
 Hardware stack levels required when called:    7
 This function calls:
		___ftadd
		___ftdiv
		___ftge
		___ftmul
		___ftneg
		___fttol
		___lwtoft
		_format_double
		_format_xint32
		_measure_freq
		_print_reading
		_print_unit
		_ser_putch
		_ser_puts
 This function is called by:
		_main
 This function uses a non-reentrant model


 *************** function _print_unit *****************
 Defined at:
		line 408 in file "../../../src/print.c"
 Parameters:    Size  Location     Type
  unit            1    wreg     unsigned char 
 Auto vars:     Size  Location     Type
  unit            1    0[COMMON] unsigned char 
 Return value:  Size  Location     Type
		None               void
 Registers used:
		wreg
 Tracked objects:
		On entry : 
		On exit  : 
		Unchanged: 
 Data sizes:     COMMON   BANK0   BANK1   BANK3   BANK2
      Params:         0       0       0       0       0
      Locals:         0       0       0       0       0
      Temps:          0       0       0       0       0
      Totals:         0       0       0       0       0
Total ram usage:        0 bytes
 Hardware stack levels used:    1
 Hardware stack levels required when called:    1
 This function calls:
		Nothing
 This function is called by:
		_measure_capacitance
		_measure_inductance
 This function uses a non-reentrant model


 *************** function _print_reading *****************
 Defined at:
		line 429 in file "../../../src/print.c"
 Parameters:    Size  Location     Type
  measurement     2    0[BANK0 ] unsigned short 
 Auto vars:     Size  Location     Type
		None
 Return value:  Size  Location     Type
		None               void
 Registers used:
		None
 Tracked objects:
		On entry : 
		On exit  : 
		Unchanged: 
 Data sizes:     COMMON   BANK0   BANK1   BANK3   BANK2
      Params:         0       2       0       0       0
      Locals:         0       0       0       0       0
      Temps:          0       0       0       0       0
      Totals:         0       2       0       0       0
Total ram usage:        2 bytes
 Hardware stack levels used:    1
 Hardware stack levels required when called:    1
 This function calls:
		Nothing
 This function is called by:
		_measure_capacitance
		_measure_inductance
 This function uses a non-reentrant model


 *************** function _format_xint32 *****************
 Defined at:
		line 48 in file "../../../lib/format.c"
 Parameters:    Size  Location     Type
  x               4   52[BANK0 ] unsigned long 
 Auto vars:     Size  Location     Type
		None
 Return value:  Size  Location     Type
		None               void
 Registers used:
		wreg, fsr0l, fsr0h, status,2, status,0, pclath, cstack
 Tracked objects:
		On entry : 
		On exit  : 
		Unchanged: 
 Data sizes:     COMMON   BANK0   BANK1   BANK3   BANK2
      Params:         0       4       0       0       0
      Locals:         0       0       0       0       0
      Temps:          0       6       0       0       0
      Totals:         0      10       0       0       0
Total ram usage:       10 bytes
 Hardware stack levels used:    1
 Hardware stack levels required when called:    4
 This function calls:
		_format_number
		_format_putchar
		_output_putch
		_ser_putch
 This function is called by:
		_measure_capacitance
 This function uses a non-reentrant model


 *************** function _format_number *****************
 Defined at:
		line 14 in file "../../../lib/format.c"
 Parameters:    Size  Location     Type
  n               2    8[BANK0 ] unsigned short 
  base            1   10[BANK0 ] unsigned char 
  pad             1   11[BANK0 ] char 
 Auto vars:     Size  Location     Type
  buf            32   15[BANK0 ] unsigned char [32]
  i               1   51[BANK0 ] char 
  di              1   50[BANK0 ] unsigned char 
  padchar         1   49[BANK0 ] unsigned char 
 Return value:  Size  Location     Type
		None               void
 Registers used:
		wreg, fsr0l, fsr0h, status,2, status,0, pclath, cstack
 Tracked objects:
		On entry : 
		On exit  : 
		Unchanged: 
 Data sizes:     COMMON   BANK0   BANK1   BANK3   BANK2
      Params:         0       4       0       0       0
      Locals:         0      37       0       0       0
      Temps:          0       3       0       0       0
      Totals:         0      44       0       0       0
Total ram usage:       44 bytes
 Hardware stack levels used:    1
 Hardware stack levels required when called:    3
 This function calls:
		___lwdiv
		___lwmod
		_format_putchar
		_output_putch
		_ser_putch
 This function is called by:
		_format_xint32
		_testloop
 This function uses a non-reentrant model


 *************** function ___lwmod *****************
 Defined at:
		line 6 in file "/opt/microchip/xc8/v1.34/sources/common/lwmod.c"
 Parameters:    Size  Location     Type
  divisor         2    0[BANK0 ] unsigned int 
  dividend        2    2[BANK0 ] unsigned int 
 Auto vars:     Size  Location     Type
  counter         1    5[BANK0 ] unsigned char 
 Return value:  Size  Location     Type
                  2    0[BANK0 ] unsigned int 
 Registers used:
		wreg, status,2, status,0
 Tracked objects:
		On entry : 
		On exit  : 
		Unchanged: 
 Data sizes:     COMMON   BANK0   BANK1   BANK3   BANK2
      Params:         0       4       0       0       0
      Locals:         0       1       0       0       0
      Temps:          0       1       0       0       0
      Totals:         0       6       0       0       0
Total ram usage:        6 bytes
 Hardware stack levels used:    1
 Hardware stack levels required when called:    1
 This function calls:
		Nothing
 This function is called by:
		_format_number
 This function uses a non-reentrant model


 *************** function ___lwdiv *****************
 Defined at:
		line 6 in file "/opt/microchip/xc8/v1.34/sources/common/lwdiv.c"
 Parameters:    Size  Location     Type
  divisor         2    0[BANK0 ] unsigned int 
  dividend        2    2[BANK0 ] unsigned int 
 Auto vars:     Size  Location     Type
  quotient        2    6[BANK0 ] unsigned int 
  counter         1    5[BANK0 ] unsigned char 
 Return value:  Size  Location     Type
                  2    0[BANK0 ] unsigned int 
 Registers used:
		wreg, status,2, status,0
 Tracked objects:
		On entry : 
		On exit  : 
		Unchanged: 
 Data sizes:     COMMON   BANK0   BANK1   BANK3   BANK2
      Params:         0       4       0       0       0
      Locals:         0       3       0       0       0
      Temps:          0       1       0       0       0
      Totals:         0       8       0       0       0
Total ram usage:        8 bytes
 Hardware stack levels used:    1
 Hardware stack levels required when called:    1
 This function calls:
		Nothing
 This function is called by:
		_format_number
 This function uses a non-reentrant model


 *************** function _format_double *****************
 Defined at:
		line 74 in file "../../../lib/format.c"
 Parameters:    Size  Location     Type
  num             3   60[BANK1 ] unsigned int 
 Auto vars:     Size  Location     Type
  weight          3    9[BANK3 ] unsigned int 
  m               2   14[BANK3 ] int 
  digit           2   12[BANK3 ] short 
 Return value:  Size  Location     Type
		None               void
 Registers used:
		wreg, fsr0l, fsr0h, status,2, status,0, btemp+1, pclath, cstack
 Tracked objects:
		On entry : 
		On exit  : 
		Unchanged: 
 Data sizes:     COMMON   BANK0   BANK1   BANK3   BANK2
      Params:         0       0       3       0       0
      Locals:         0       0       0      16       0
      Temps:          0       0       1       0       0
      Totals:         0       0       4      16       0
Total ram usage:       20 bytes
 Hardware stack levels used:    1
 Hardware stack levels required when called:    6
 This function calls:
		___awtoft
		___ftdiv
		___ftge
		___ftmul
		___ftsub
		___fttol
		_floor
		_format_putchar
		_log10
		_output_putch
		_pow
		_ser_putch
 This function is called by:
		_measure_capacitance
 This function uses a non-reentrant model


 *************** function _pow *****************
 Defined at:
		line 5 in file "/opt/microchip/xc8/v1.34/sources/common/pow.c"
 Parameters:    Size  Location     Type
  x               3   42[BANK1 ] short 
  y               3   45[BANK1 ] short 
 Auto vars:     Size  Location     Type
  yi              4   56[BANK1 ] unsigned long 
  sign            1   55[BANK1 ] unsigned char 
 Return value:  Size  Location     Type
                  3   42[BANK1 ] unsigned char 
 Registers used:
		wreg, fsr0l, fsr0h, status,2, status,0, btemp+1, pclath, cstack
 Tracked objects:
		On entry : 
		On exit  : 
		Unchanged: 
 Data sizes:     COMMON   BANK0   BANK1   BANK3   BANK2
      Params:         0       0       6       0       0
      Locals:         0       0      11       0       0
      Temps:          0       0       1       0       0
      Totals:         0       0      18       0       0
Total ram usage:       18 bytes
 Hardware stack levels used:    1
 Hardware stack levels required when called:    5
 This function calls:
		___ftge
		___ftmul
		___ftneg
		___fttol
		___lltoft
		_exp
		_log
 This function is called by:
		_format_double
		_format_float
 This function uses a non-reentrant model


 *************** function _exp *****************
 Defined at:
		line 12 in file "/opt/microchip/xc8/v1.34/sources/common/exp.c"
 Parameters:    Size  Location     Type
  x               3   29[BANK1 ] unsigned char 
 Auto vars:     Size  Location     Type
  exponent        2   39[BANK1 ] int 
  sign            1   41[BANK1 ] unsigned char 
 Return value:  Size  Location     Type
                  3   29[BANK1 ] unsigned char 
 Registers used:
		wreg, fsr0l, fsr0h, status,2, status,0, btemp+1, pclath, cstack
 Tracked objects:
		On entry : 
		On exit  : 
		Unchanged: 
 Data sizes:     COMMON   BANK0   BANK1   BANK3   BANK2
      Params:         0       0       3       0       0
      Locals:         0       0       9       0       0
      Temps:          0       0       1       0       0
      Totals:         0       0      13       0       0
Total ram usage:       13 bytes
 Hardware stack levels used:    1
 Hardware stack levels required when called:    4
 This function calls:
		___awtoft
		___ftdiv
		___ftge
		___ftmul
		___ftneg
		___ftsub
		___fttol
		_eval_poly
		_floor
		_ldexp
 This function is called by:
		_pow
 This function uses a non-reentrant model


 *************** function _ldexp *****************
 Defined at:
		line 277 in file "/opt/microchip/xc8/v1.34/sources/common/frexp.c"
 Parameters:    Size  Location     Type
  value           3   66[BANK0 ] unsigned char 
  newexp          2   69[BANK0 ] int 
 Auto vars:     Size  Location     Type
		None
 Return value:  Size  Location     Type
                  3   66[BANK0 ] int 
 Registers used:
		wreg, status,2, status,0, btemp+1, pclath, cstack
 Tracked objects:
		On entry : 
		On exit  : 
		Unchanged: 
 Data sizes:     COMMON   BANK0   BANK1   BANK3   BANK2
      Params:         0       5       0       0       0
      Locals:         0       3       0       0       0
      Temps:          0       2       0       0       0
      Totals:         0      10       0       0       0
Total ram usage:       10 bytes
 Hardware stack levels used:    1
 Hardware stack levels required when called:    2
 This function calls:
		___ftge
		___ftneg
 This function is called by:
		_exp
 This function uses a non-reentrant model


 *************** function ___ftneg *****************
 Defined at:
		line 15 in file "/opt/microchip/xc8/v1.34/sources/common/ftneg.c"
 Parameters:    Size  Location     Type
  f1              3   40[BANK0 ] float 
 Auto vars:     Size  Location     Type
		None
 Return value:  Size  Location     Type
                  3   40[BANK0 ] float 
 Registers used:
		wreg
 Tracked objects:
		On entry : 
		On exit  : 
		Unchanged: 
 Data sizes:     COMMON   BANK0   BANK1   BANK3   BANK2
      Params:         0       3       0       0       0
      Locals:         0       0       0       0       0
      Temps:          0       0       0       0       0
      Totals:         0       3       0       0       0
Total ram usage:        3 bytes
 Hardware stack levels used:    1
 Hardware stack levels required when called:    1
 This function calls:
		Nothing
 This function is called by:
		_measure_capacitance
		_measure_inductance
		_ldexp
		_pow
		_exp
 This function uses a non-reentrant model


 *************** function _floor *****************
 Defined at:
		line 13 in file "/opt/microchip/xc8/v1.34/sources/common/floor.c"
 Parameters:    Size  Location     Type
  x               3   20[BANK1 ] float 
 Auto vars:     Size  Location     Type
  i               3   24[BANK1 ] float 
  expon           2   27[BANK1 ] int 
 Return value:  Size  Location     Type
                  3   20[BANK1 ] int 
 Registers used:
		wreg, fsr0l, fsr0h, status,2, status,0, btemp+1, pclath, cstack
 Tracked objects:
		On entry : 
		On exit  : 
		Unchanged: 
 Data sizes:     COMMON   BANK0   BANK1   BANK3   BANK2
      Params:         0       0       3       0       0
      Locals:         0       0       5       0       0
      Temps:          0       0       1       0       0
      Totals:         0       0       9       0       0
Total ram usage:        9 bytes
 Hardware stack levels used:    1
 Hardware stack levels required when called:    3
 This function calls:
		___altoft
		___ftadd
		___ftge
		___fttol
		_frexp
 This function is called by:
		_format_double
		_exp
		_format_float
 This function uses a non-reentrant model


 *************** function ___fttol *****************
 Defined at:
		line 44 in file "/opt/microchip/xc8/v1.34/sources/common/fttol.c"
 Parameters:    Size  Location     Type
  f1              3    0[BANK1 ] float 
 Auto vars:     Size  Location     Type
  lval            4    9[BANK1 ] unsigned long 
  exp1            1   13[BANK1 ] unsigned char 
  sign1           1    8[BANK1 ] unsigned char 
 Return value:  Size  Location     Type
                  4    0[BANK1 ] long 
 Registers used:
		wreg, status,2, status,0
 Tracked objects:
		On entry : 
		On exit  : 
		Unchanged: 
 Data sizes:     COMMON   BANK0   BANK1   BANK3   BANK2
      Params:         0       0       4       0       0
      Locals:         0       0       6       0       0
      Temps:          0       0       4       0       0
      Totals:         0       0      14       0       0
Total ram usage:       14 bytes
 Hardware stack levels used:    1
 Hardware stack levels required when called:    1
 This function calls:
		Nothing
 This function is called by:
		_measure_capacitance
		_measure_inductance
		_format_double
		_floor
		_pow
		_exp
		_format_float
 This function uses a non-reentrant model


 *************** function ___altoft *****************
 Defined at:
		line 42 in file "/opt/microchip/xc8/v1.34/sources/common/altoft.c"
 Parameters:    Size  Location     Type
  c               4   14[BANK1 ] long 
 Auto vars:     Size  Location     Type
  sign            1   19[BANK1 ] unsigned char 
  exp             1   18[BANK1 ] unsigned char 
 Return value:  Size  Location     Type
                  3   14[BANK1 ] float 
 Registers used:
		wreg, status,2, status,0, pclath, cstack
 Tracked objects:
		On entry : 
		On exit  : 
		Unchanged: 
 Data sizes:     COMMON   BANK0   BANK1   BANK3   BANK2
      Params:         0       0       4       0       0
      Locals:         0       0       2       0       0
      Temps:          0       2       0       0       0
      Totals:         0       2       6       0       0
Total ram usage:        8 bytes
 Hardware stack levels used:    1
 Hardware stack levels required when called:    2
 This function calls:
		___ftpack
 This function is called by:
		_floor
 This function uses a non-reentrant model


 *************** function ___ftsub *****************
 Defined at:
		line 18 in file "/opt/microchip/xc8/v1.34/sources/common/ftsub.c"
 Parameters:    Size  Location     Type
  f2              3   56[BANK0 ] float 
  f1              3   59[BANK0 ] float 
 Auto vars:     Size  Location     Type
		None
 Return value:  Size  Location     Type
                  3   56[BANK0 ] float 
 Registers used:
		wreg, status,2, status,0, pclath, cstack
 Tracked objects:
		On entry : 
		On exit  : 
		Unchanged: 
 Data sizes:     COMMON   BANK0   BANK1   BANK3   BANK2
      Params:         0       6       0       0       0
      Locals:         0       0       0       0       0
      Temps:          0       0       0       0       0
      Totals:         0       6       0       0       0
Total ram usage:        6 bytes
 Hardware stack levels used:    1
 Hardware stack levels required when called:    3
 This function calls:
		___ftadd
 This function is called by:
		_format_double
		_exp
		_format_float
 This function uses a non-reentrant model


 *************** function ___ftdiv *****************
 Defined at:
		line 56 in file "/opt/microchip/xc8/v1.34/sources/common/ftdiv.c"
 Parameters:    Size  Location     Type
  f2              3    8[BANK0 ] float 
  f1              3   11[BANK0 ] float 
 Auto vars:     Size  Location     Type
  f3              3   19[BANK0 ] float 
  sign            1   23[BANK0 ] unsigned char 
  exp             1   22[BANK0 ] unsigned char 
  cntr            1   18[BANK0 ] unsigned char 
 Return value:  Size  Location     Type
                  3    8[BANK0 ] float 
 Registers used:
		wreg, status,2, status,0, pclath, cstack
 Tracked objects:
		On entry : 
		On exit  : 
		Unchanged: 
 Data sizes:     COMMON   BANK0   BANK1   BANK3   BANK2
      Params:         0       6       0       0       0
      Locals:         0       6       0       0       0
      Temps:          0       4       0       0       0
      Totals:         0      16       0       0       0
Total ram usage:       16 bytes
 Hardware stack levels used:    1
 Hardware stack levels required when called:    2
 This function calls:
		___ftpack
 This function is called by:
		_measure_capacitance
		_measure_inductance
		_format_double
		_exp
		_format_float
 This function uses a non-reentrant model


 *************** function ___lltoft *****************
 Defined at:
		line 35 in file "/opt/microchip/xc8/v1.34/sources/common/lltoft.c"
 Parameters:    Size  Location     Type
  c               4    8[BANK0 ] unsigned long 
 Auto vars:     Size  Location     Type
  exp             1   13[BANK0 ] unsigned char 
 Return value:  Size  Location     Type
                  3    8[BANK0 ] float 
 Registers used:
		wreg, status,2, status,0, pclath, cstack
 Tracked objects:
		On entry : 
		On exit  : 
		Unchanged: 
 Data sizes:     COMMON   BANK0   BANK1   BANK3   BANK2
      Params:         0       4       0       0       0
      Locals:         0       1       0       0       0
      Temps:          0       1       0       0       0
      Totals:         0       6       0       0       0
Total ram usage:        6 bytes
 Hardware stack levels used:    1
 Hardware stack levels required when called:    2
 This function calls:
		___ftpack
 This function is called by:
		_pow
 This function uses a non-reentrant model


 *************** function _format_putchar *****************
 Defined at:
		line 6 in file "../../../lib/format.c"
 Parameters:    Size  Location     Type
  c               1    0[BANK0 ] unsigned char 
 Auto vars:     Size  Location     Type
		None
 Return value:  Size  Location     Type
		None               void
 Registers used:
		None
 Tracked objects:
		On entry : 
		On exit  : 
		Unchanged: 
 Data sizes:     COMMON   BANK0   BANK1   BANK3   BANK2
      Params:         0       1       0       0       0
      Locals:         0       0       0       0       0
      Temps:          0       0       0       0       0
      Totals:         0       1       0       0       0
Total ram usage:        1 bytes
 Hardware stack levels used:    1
 Hardware stack levels required when called:    1
 This function calls:
		Nothing
 This function is called by:
		_format_number
		_format_xint32
		_format_double
		_format_float
 This function uses a non-reentrant model


 *************** function _ser_putch *****************
 Defined at:
		line 82 in file "../../../lib/ser.c"
 Parameters:    Size  Location     Type
  c               1    0[BANK0 ] unsigned char 
 Auto vars:     Size  Location     Type
		None
 Return value:  Size  Location     Type
                  1    wreg      unsigned char 
 Registers used:
		wreg, fsr0l, fsr0h, status,2, status,0
 Tracked objects:
		On entry : 
		On exit  : 
		Unchanged: 
 Data sizes:     COMMON   BANK0   BANK1   BANK3   BANK2
      Params:         0       1       0       0       0
      Locals:         0       0       0       0       0
      Temps:          0       1       0       0       0
      Totals:         0       2       0       0       0
Total ram usage:        2 bytes
 Hardware stack levels used:    1
 Hardware stack levels required when called:    1
 This function calls:
		Nothing
 This function is called by:
		_output_putch
		_measure_capacitance
		_ser_puts
		_ser_put
		_ser_puts2
		_ser_puthex
		_format_number
		_format_xint32
		_format_double
		_format_float
 This function uses a non-reentrant model


 *************** function _output_putch *****************
 Defined at:
		line 48 in file "../../../src/LC-meter.c"
 Parameters:    Size  Location     Type
  c               1    0[BANK0 ] unsigned char 
 Auto vars:     Size  Location     Type
		None
 Return value:  Size  Location     Type
                  1    wreg      unsigned char 
 Registers used:
		wreg, fsr0l, fsr0h, status,2, status,0, pclath, cstack
 Tracked objects:
		On entry : 
		On exit  : 
		Unchanged: 
 Data sizes:     COMMON   BANK0   BANK1   BANK3   BANK2
      Params:         0       1       0       0       0
      Locals:         0       0       0       0       0
      Temps:          0       1       0       0       0
      Totals:         0       2       0       0       0
Total ram usage:        2 bytes
 Hardware stack levels used:    1
 Hardware stack levels required when called:    2
 This function calls:
		_ser_putch
 This function is called by:
		_measure_capacitance
		_put_str
		_format_number
		_format_xint32
		_format_double
		_format_float
 This function uses a non-reentrant model


 *************** function _log10 *****************
 Defined at:
		line 39 in file "/opt/microchip/xc8/v1.34/sources/common/log.c"
 Parameters:    Size  Location     Type
  x               3   72[BANK0 ] unsigned char 
 Auto vars:     Size  Location     Type
		None
 Return value:  Size  Location     Type
                  3   72[BANK0 ] unsigned char 
 Registers used:
		wreg, fsr0l, fsr0h, status,2, status,0, btemp+1, pclath, cstack
 Tracked objects:
		On entry : 
		On exit  : 
		Unchanged: 
 Data sizes:     COMMON   BANK0   BANK1   BANK3   BANK2
      Params:         0       3       0       0       0
      Locals:         0       3       0       0       0
      Temps:          0       0       0       0       0
      Totals:         0       6       0       0       0
Total ram usage:        6 bytes
 Hardware stack levels used:    1
 Hardware stack levels required when called:    5
 This function calls:
		___ftmul
		_log
 This function is called by:
		_format_double
		_format_float
 This function uses a non-reentrant model


 *************** function _log *****************
 Defined at:
		line 5 in file "/opt/microchip/xc8/v1.34/sources/common/log.c"
 Parameters:    Size  Location     Type
  x               3   66[BANK0 ] unsigned char 
 Auto vars:     Size  Location     Type
  exponent        2   70[BANK0 ] int 
 Return value:  Size  Location     Type
                  3   66[BANK0 ] int 
 Registers used:
		wreg, fsr0l, fsr0h, status,2, status,0, btemp+1, pclath, cstack
 Tracked objects:
		On entry : 
		On exit  : 
		Unchanged: 
 Data sizes:     COMMON   BANK0   BANK1   BANK3   BANK2
      Params:         0       3       0       0       0
      Locals:         0       2       0       0       0
      Temps:          0       1       0       0       0
      Totals:         0       6       0       0       0
Total ram usage:        6 bytes
 Hardware stack levels used:    1
 Hardware stack levels required when called:    4
 This function calls:
		___awtoft
		___ftadd
		___ftge
		___ftmul
		_eval_poly
		_frexp
 This function is called by:
		_log10
		_pow
 This function uses a non-reentrant model


 *************** function _frexp *****************
 Defined at:
		line 254 in file "/opt/microchip/xc8/v1.34/sources/common/frexp.c"
 Parameters:    Size  Location     Type
  value           3    0[BANK0 ] int 
  eptr            1    3[BANK0 ] PTR int 
		 -> log@exponent(2), floor@expon(2), 
 Auto vars:     Size  Location     Type
		None
 Return value:  Size  Location     Type
                  3    0[BANK0 ] PTR int 
 Registers used:
		wreg, fsr0l, fsr0h, status,2, status,0, btemp+1
 Tracked objects:
		On entry : 
		On exit  : 
		Unchanged: 
 Data sizes:     COMMON   BANK0   BANK1   BANK3   BANK2
      Params:         0       4       0       0       0
      Locals:         0       0       0       0       0
      Temps:          0       2       0       0       0
      Totals:         0       6       0       0       0
Total ram usage:        6 bytes
 Hardware stack levels used:    1
 Hardware stack levels required when called:    1
 This function calls:
		Nothing
 This function is called by:
		_floor
		_log
 This function uses a non-reentrant model


 *************** function _eval_poly *****************
 Defined at:
		line 4 in file "/opt/microchip/xc8/v1.34/sources/common/evalpoly.c"
 Parameters:    Size  Location     Type
  x               3   56[BANK0 ] PTR int 
  d               1   59[BANK0 ] PTR const 
		 -> exp@coeff(30), log@coeff(27), 
  n               2   60[BANK0 ] int 
 Auto vars:     Size  Location     Type
  res             3   63[BANK0 ] int 
 Return value:  Size  Location     Type
                  3   56[BANK0 ] int 
 Registers used:
		wreg, fsr0l, fsr0h, status,2, status,0, pclath, cstack
 Tracked objects:
		On entry : 
		On exit  : 
		Unchanged: 
 Data sizes:     COMMON   BANK0   BANK1   BANK3   BANK2
      Params:         0       6       0       0       0
      Locals:         0       3       0       0       0
      Temps:          0       1       0       0       0
      Totals:         0      10       0       0       0
Total ram usage:       10 bytes
 Hardware stack levels used:    1
 Hardware stack levels required when called:    3
 This function calls:
		___bmul
		___ftadd
		___ftmul
 This function is called by:
		_log
		_exp
 This function uses a non-reentrant model


 *************** function ___ftmul *****************
 Defined at:
		line 62 in file "/opt/microchip/xc8/v1.34/sources/common/ftmul.c"
 Parameters:    Size  Location     Type
  f1              3   24[BANK0 ] float 
  f2              3   27[BANK0 ] float 
 Auto vars:     Size  Location     Type
  f3_as_produc    3   35[BANK0 ] unsigned um
  sign            1   39[BANK0 ] unsigned char 
  cntr            1   38[BANK0 ] unsigned char 
  exp             1   34[BANK0 ] unsigned char 
 Return value:  Size  Location     Type
                  3   24[BANK0 ] float 
 Registers used:
		wreg, status,2, status,0, pclath, cstack
 Tracked objects:
		On entry : 
		On exit  : 
		Unchanged: 
 Data sizes:     COMMON   BANK0   BANK1   BANK3   BANK2
      Params:         0       6       0       0       0
      Locals:         0       6       0       0       0
      Temps:          0       4       0       0       0
      Totals:         0      16       0       0       0
Total ram usage:       16 bytes
 Hardware stack levels used:    1
 Hardware stack levels required when called:    2
 This function calls:
		___ftpack
 This function is called by:
		_measure_capacitance
		_measure_inductance
		_format_double
		_log
		_log10
		_pow
		_eval_poly
		_exp
		_format_float
 This function uses a non-reentrant model


 *************** function ___ftadd *****************
 Defined at:
		line 86 in file "/opt/microchip/xc8/v1.34/sources/common/ftadd.c"
 Parameters:    Size  Location     Type
  f1              3   43[BANK0 ] float 
  f2              3   46[BANK0 ] float 
 Auto vars:     Size  Location     Type
  exp1            1   55[BANK0 ] unsigned char 
  exp2            1   54[BANK0 ] unsigned char 
  sign            1   53[BANK0 ] unsigned char 
 Return value:  Size  Location     Type
                  3   43[BANK0 ] float 
 Registers used:
		wreg, status,2, status,0, pclath, cstack
 Tracked objects:
		On entry : 
		On exit  : 
		Unchanged: 
 Data sizes:     COMMON   BANK0   BANK1   BANK3   BANK2
      Params:         0       6       0       0       0
      Locals:         0       3       0       0       0
      Temps:          0       4       0       0       0
      Totals:         0      13       0       0       0
Total ram usage:       13 bytes
 Hardware stack levels used:    1
 Hardware stack levels required when called:    2
 This function calls:
		___ftpack
 This function is called by:
		_measure_capacitance
		_measure_inductance
		_floor
		___ftsub
		_log
		_eval_poly
 This function uses a non-reentrant model


 *************** function ___bmul *****************
 Defined at:
		line 4 in file "/opt/microchip/xc8/v1.34/sources/common/Umul8.c"
 Parameters:    Size  Location     Type
  multiplier      1    wreg     unsigned char 
  multiplicand    1    0[BANK0 ] unsigned char 
 Auto vars:     Size  Location     Type
  multiplier      1    3[BANK0 ] unsigned char 
  product         1    2[BANK0 ] unsigned char 
 Return value:  Size  Location     Type
                  1    wreg      unsigned char 
 Registers used:
		wreg, status,2, status,0
 Tracked objects:
		On entry : 
		On exit  : 
		Unchanged: 
 Data sizes:     COMMON   BANK0   BANK1   BANK3   BANK2
      Params:         0       1       0       0       0
      Locals:         0       2       0       0       0
      Temps:          0       1       0       0       0
      Totals:         0       4       0       0       0
Total ram usage:        4 bytes
 Hardware stack levels used:    1
 Hardware stack levels required when called:    1
 This function calls:
		Nothing
 This function is called by:
		_eval_poly
 This function uses a non-reentrant model


 *************** function ___ftge *****************
 Defined at:
		line 4 in file "/opt/microchip/xc8/v1.34/sources/common/ftge.c"
 Parameters:    Size  Location     Type
  ff1             3    0[BANK0 ] float 
  ff2             3    3[BANK0 ] float 
 Auto vars:     Size  Location     Type
		None
 Return value:  Size  Location     Type
		None               void
 Registers used:
		wreg, status,2, status,0
 Tracked objects:
		On entry : 
		On exit  : 
		Unchanged: 
 Data sizes:     COMMON   BANK0   BANK1   BANK3   BANK2
      Params:         0       6       0       0       0
      Locals:         0       0       0       0       0
      Temps:          0       6       0       0       0
      Totals:         0      12       0       0       0
Total ram usage:       12 bytes
 Hardware stack levels used:    1
 Hardware stack levels required when called:    1
 This function calls:
		Nothing
 This function is called by:
		_measure_capacitance
		_measure_inductance
		_format_double
		_floor
		_ldexp
		_log
		_pow
		_exp
		_format_float
 This function uses a non-reentrant model


 *************** function ___awtoft *****************
 Defined at:
		line 32 in file "/opt/microchip/xc8/v1.34/sources/common/awtoft.c"
 Parameters:    Size  Location     Type
  c               2    8[BANK0 ] int 
 Auto vars:     Size  Location     Type
  sign            1   13[BANK0 ] unsigned char 
 Return value:  Size  Location     Type
                  3    8[BANK0 ] float 
 Registers used:
		wreg, status,2, status,0, pclath, cstack
 Tracked objects:
		On entry : 
		On exit  : 
		Unchanged: 
 Data sizes:     COMMON   BANK0   BANK1   BANK3   BANK2
      Params:         0       3       0       0       0
      Locals:         0       1       0       0       0
      Temps:          0       2       0       0       0
      Totals:         0       6       0       0       0
Total ram usage:        6 bytes
 Hardware stack levels used:    1
 Hardware stack levels required when called:    2
 This function calls:
		___ftpack
 This function is called by:
		_format_double
		_log
		_exp
		_format_float
 This function uses a non-reentrant model


 *************** function _indicator *****************
 Defined at:
		line 469 in file "../../../src/print.c"
 Parameters:    Size  Location     Type
  indicate        1    wreg     unsigned char 
 Auto vars:     Size  Location     Type
  indicate        1    0[COMMON] unsigned char 
 Return value:  Size  Location     Type
		None               void
 Registers used:
		wreg
 Tracked objects:
		On entry : 
		On exit  : 
		Unchanged: 
 Data sizes:     COMMON   BANK0   BANK1   BANK3   BANK2
      Params:         0       0       0       0       0
      Locals:         0       0       0       0       0
      Temps:          0       0       0       0       0
      Totals:         0       0       0       0       0
Total ram usage:        0 bytes
 Hardware stack levels used:    1
 Hardware stack levels required when called:    1
 This function calls:
		Nothing
 This function is called by:
		_main
 This function uses a non-reentrant model


 *************** function _calibrate *****************
 Defined at:
		line 346 in file "../../../src/LC-meter.c"
 Parameters:    Size  Location     Type
		None
 Auto vars:     Size  Location     Type
  i               1    0        unsigned char 
 Return value:  Size  Location     Type
		None               void
 Registers used:
		wreg, fsr0l, fsr0h, status,2, status,0, btemp+1, pclath, cstack
 Tracked objects:
		On entry : 
		On exit  : 
		Unchanged: 
 Data sizes:     COMMON   BANK0   BANK1   BANK3   BANK2
      Params:         0       0       0       0       0
      Locals:         0       0       0       0       0
      Temps:          0       0       0       0       0
      Totals:         0       0       0       0       0
Total ram usage:        0 bytes
 Hardware stack levels used:    1
 Hardware stack levels required when called:    3
 This function calls:
		___lwtoft
		_delay10ms
		_measure_freq
		_ser_puts
 This function is called by:
		_main
 This function uses a non-reentrant model


 *************** function _ser_puts *****************
 Defined at:
		line 93 in file "../../../lib/ser.c"
 Parameters:    Size  Location     Type
  s               1    wreg     PTR const unsigned char 
		 -> STR_11(3), STR_10(5), STR_9(3), STR_8(8), 
		 -> STR_7(6), STR_6(6), STR_5(6), STR_4(5), 
		 -> STR_3(3), STR_2(3), STR_1(6), 
 Auto vars:     Size  Location     Type
  s               1    3[BANK0 ] PTR const unsigned char 
		 -> STR_11(3), STR_10(5), STR_9(3), STR_8(8), 
		 -> STR_7(6), STR_6(6), STR_5(6), STR_4(5), 
		 -> STR_3(3), STR_2(3), STR_1(6), 
 Return value:  Size  Location     Type
		None               void
 Registers used:
		wreg, fsr0l, fsr0h, status,2, status,0, pclath, cstack
 Tracked objects:
		On entry : 
		On exit  : 
		Unchanged: 
 Data sizes:     COMMON   BANK0   BANK1   BANK3   BANK2
      Params:         0       0       0       0       0
      Locals:         0       1       0       0       0
      Temps:          0       1       0       0       0
      Totals:         0       2       0       0       0
Total ram usage:        2 bytes
 Hardware stack levels used:    1
 Hardware stack levels required when called:    2
 This function calls:
		_ser_putch
 This function is called by:
		_main
		_calibrate
		_measure_capacitance
		_testloop
 This function uses a non-reentrant model


 *************** function _measure_freq *****************
 Defined at:
		line 299 in file "../../../src/LC-meter.c"
 Parameters:    Size  Location     Type
		None
 Auto vars:     Size  Location     Type
  count           2    9[BANK0 ] unsigned short 
  prev            1    8[BANK0 ] unsigned char 
 Return value:  Size  Location     Type
                  2    0[BANK0 ] unsigned short 
 Registers used:
		wreg, status,2, status,0, btemp+1
 Tracked objects:
		On entry : 
		On exit  : 
		Unchanged: 
 Data sizes:     COMMON   BANK0   BANK1   BANK3   BANK2
      Params:         0       2       0       0       0
      Locals:         0       3       0       0       0
      Temps:          0       6       0       0       0
      Totals:         0      11       0       0       0
Total ram usage:       11 bytes
 Hardware stack levels used:    1
 Hardware stack levels required when called:    1
 This function calls:
		Nothing
 This function is called by:
		_calibrate
		_measure_capacitance
		_measure_inductance
 This function uses a non-reentrant model


 *************** function _delay10ms *****************
 Defined at:
		line 532 in file "../../../src/LC-meter.c"
 Parameters:    Size  Location     Type
  period_10ms     2    6[BANK0 ] unsigned short 
 Auto vars:     Size  Location     Type
  ms              4   12[BANK0 ] unsigned long 
  run             1   16[BANK0 ] unsigned char 
 Return value:  Size  Location     Type
		None               void
 Registers used:
		wreg, status,2, status,0, pclath, cstack
 Tracked objects:
		On entry : 
		On exit  : 
		Unchanged: 
 Data sizes:     COMMON   BANK0   BANK1   BANK3   BANK2
      Params:         0       2       0       0       0
      Locals:         0       5       0       0       0
      Temps:          0       4       0       0       0
      Totals:         0      11       0       0       0
Total ram usage:       11 bytes
 Hardware stack levels used:    1
 Hardware stack levels required when called:    2
 This function calls:
		___wmul
 This function is called by:
		_main
		_calibrate
		_testloop
 This function uses a non-reentrant model


 *************** function ___wmul *****************
 Defined at:
		line 15 in file "/opt/microchip/xc8/v1.34/sources/common/Umul16.c"
 Parameters:    Size  Location     Type
  multiplier      2    0[BANK0 ] unsigned int 
  multiplicand    2    2[BANK0 ] unsigned int 
 Auto vars:     Size  Location     Type
  product         2    4[BANK0 ] unsigned int 
 Return value:  Size  Location     Type
                  2    0[BANK0 ] unsigned int 
 Registers used:
		wreg, status,2, status,0
 Tracked objects:
		On entry : 
		On exit  : 
		Unchanged: 
 Data sizes:     COMMON   BANK0   BANK1   BANK3   BANK2
      Params:         0       4       0       0       0
      Locals:         0       2       0       0       0
      Temps:          0       0       0       0       0
      Totals:         0       6       0       0       0
Total ram usage:        6 bytes
 Hardware stack levels used:    1
 Hardware stack levels required when called:    1
 This function calls:
		Nothing
 This function is called by:
		_delay10ms
 This function uses a non-reentrant model


 *************** function ___lwtoft *****************
 Defined at:
		line 28 in file "/opt/microchip/xc8/v1.34/sources/common/lwtoft.c"
 Parameters:    Size  Location     Type
  c               2   11[BANK0 ] unsigned int 
 Auto vars:     Size  Location     Type
		None
 Return value:  Size  Location     Type
                  3   11[BANK0 ] float 
 Registers used:
		wreg, status,2, status,0, pclath, cstack
 Tracked objects:
		On entry : 
		On exit  : 
		Unchanged: 
 Data sizes:     COMMON   BANK0   BANK1   BANK3   BANK2
      Params:         0       3       0       0       0
      Locals:         0       0       0       0       0
      Temps:          0       1       0       0       0
      Totals:         0       4       0       0       0
Total ram usage:        4 bytes
 Hardware stack levels used:    1
 Hardware stack levels required when called:    2
 This function calls:
		___ftpack
 This function is called by:
		_calibrate
		_measure_capacitance
		_measure_inductance
 This function uses a non-reentrant model


 *************** function ___ftpack *****************
 Defined at:
		line 62 in file "/opt/microchip/xc8/v1.34/sources/common/float.c"
 Parameters:    Size  Location     Type
  arg             3    0[BANK0 ] unsigned um
  exp             1    3[BANK0 ] unsigned char 
  sign            1    4[BANK0 ] unsigned char 
 Auto vars:     Size  Location     Type
		None
 Return value:  Size  Location     Type
                  3    0[BANK0 ] float 
 Registers used:
		wreg, status,2, status,0
 Tracked objects:
		On entry : 
		On exit  : 
		Unchanged: 
 Data sizes:     COMMON   BANK0   BANK1   BANK3   BANK2
      Params:         0       5       0       0       0
      Locals:         0       0       0       0       0
      Temps:          0       3       0       0       0
      Totals:         0       8       0       0       0
Total ram usage:        8 bytes
 Hardware stack levels used:    1
 Hardware stack levels required when called:    1
 This function calls:
		Nothing
 This function is called by:
		___altoft
		___awtoft
		___ftadd
		___ftdiv
		___ftmul
		___lltoft
		___lwtoft
 This function uses a non-reentrant model


 *************** function _isr *****************
 Defined at:
		line 80 in file "../../../src/LC-meter.c"
 Parameters:    Size  Location     Type
		None
 Auto vars:     Size  Location     Type
		None
 Return value:  Size  Location     Type
                  2  125[None  ] int 
 Registers used:
		wreg, fsr0l, fsr0h, status,2, status,0
 Tracked objects:
		On entry : 
		On exit  : 
		Unchanged: 
 Data sizes:     COMMON   BANK0   BANK1   BANK3   BANK2
      Params:         0       0       0       0       0
      Locals:         0       0       0       0       0
      Temps:          5       0       0       0       0
      Totals:         5       0       0       0       0
Total ram usage:        5 bytes
 Hardware stack levels used:    1
 This function calls:
		Nothing
 This function is called by:
		Interrupt level 1
 This function uses a non-reentrant model



MODULE INFORMATION

Module		Function		Class		Link	Load	Size
/opt/microchip/xc8/v1.34/sources/common/ftadd.c
		___ftadd       		CODE           	08A0	0000	266

/opt/microchip/xc8/v1.34/sources/common/ftadd.c estimated size: 266

../../../src/LC-meter.c
		_measure_capaci		CODE           	0B8E	0000	1139
		_main          		CODE           	0035	0000	197
		_measure_freq  		CODE           	1F22	0000	111
		_isr           		CODE           	125B	0000	179
		_measure_induct		CODE           	010F	0000	1345
		_calibrate     		CODE           	11AF	0000	173
		_output_putch  		CODE           	1B64	0000	11
		_delay10ms     		CODE           	1F90	0000	113

../../../src/LC-meter.c estimated size: 3268

/opt/microchip/xc8/v1.34/sources/common/awtoft.c
		___awtoft      		CODE           	07D5	0000	38

/opt/microchip/xc8/v1.34/sources/common/awtoft.c estimated size: 38

../../../lib/format.c
		_format_putchar		CODE           	07FE	0000	2
		_format_xint32 		CODE           	1D3E	0000	79
		_format_double 		CODE           	1643	0000	446
		_format_number 		CODE           	1095	0000	141

../../../lib/format.c estimated size: 668

/opt/microchip/xc8/v1.34/sources/common/altoft.c
		___altoft      		CODE           	1E4E	0000	103

/opt/microchip/xc8/v1.34/sources/common/altoft.c estimated size: 103

/opt/microchip/xc8/v1.34/sources/common/pow.c
		_pow           		CODE           	064F	0000	391

/opt/microchip/xc8/v1.34/sources/common/pow.c estimated size: 391

/opt/microchip/xc8/v1.34/sources/common/ftneg.c
		___ftneg       		CODE           	1B6E	0000	11

/opt/microchip/xc8/v1.34/sources/common/ftneg.c estimated size: 11

/opt/microchip/xc8/v1.34/sources/common/ftge.c
		___ftge        		CODE           	1D8C	0000	96

/opt/microchip/xc8/v1.34/sources/common/ftge.c estimated size: 96

/opt/microchip/xc8/v1.34/sources/common/ftsub.c
		___ftsub       		CODE           	1BA3	0000	34

/opt/microchip/xc8/v1.34/sources/common/ftsub.c estimated size: 34

/opt/microchip/xc8/v1.34/sources/common/float.c
		___ftpack      		CODE           	1EB4	0000	111

/opt/microchip/xc8/v1.34/sources/common/float.c estimated size: 111

/opt/microchip/xc8/v1.34/sources/common/lwtoft.c
		___lwtoft      		CODE           	1B8B	0000	25

/opt/microchip/xc8/v1.34/sources/common/lwtoft.c estimated size: 25

/opt/microchip/xc8/v1.34/sources/common/lltoft.c
		___lltoft      		CODE           	1C5B	0000	48

/opt/microchip/xc8/v1.34/sources/common/lltoft.c estimated size: 48

../../../src/print.c
		_indicator     		CODE           	07FF	0000	2
		_print_unit    		CODE           	07FC	0000	2
		_print_reading 		CODE           	07FD	0000	2

../../../src/print.c estimated size: 6

/opt/microchip/xc8/v1.34/sources/common/lwmod.c
		___lwmod       		CODE           	1C8A	0000	53

/opt/microchip/xc8/v1.34/sources/common/lwmod.c estimated size: 53

../../../lib/ser.c
		_ser_init      		CODE           	1C0A	0000	37
		_ser_puts      		CODE           	1BE7	0000	36
		_ser_putch     		CODE           	1000	0000	29

../../../lib/ser.c estimated size: 102

/opt/microchip/xc8/v1.34/sources/common/frexp.c
		_ldexp         		CODE           	0807	0000	154
		_frexp         		CODE           	1CFC	0000	67

/opt/microchip/xc8/v1.34/sources/common/frexp.c estimated size: 221

/opt/microchip/xc8/v1.34/sources/common/floor.c
		_floor         		CODE           	1566	0000	222

/opt/microchip/xc8/v1.34/sources/common/floor.c estimated size: 222

/opt/microchip/xc8/v1.34/sources/common/ftmul.c
		___ftmul       		CODE           	1493	0000	212

/opt/microchip/xc8/v1.34/sources/common/ftmul.c estimated size: 212

/opt/microchip/xc8/v1.34/sources/common/Umul16.c
		___wmul        		CODE           	1BC4	0000	36

/opt/microchip/xc8/v1.34/sources/common/Umul16.c estimated size: 36

shared
		exp@coeff      		STRING         	1806	0000	31
		__stringtab    		STRING         	1800	0000	7
		__initializatio		CODE           	0015	0000	29
		__fptable      		CODE           	0100	0000	16
		log@coeff      		STRING         	1824	0000	28

shared estimated size: 111

/opt/microchip/xc8/v1.34/sources/common/ftdiv.c
		___ftdiv       		CODE           	130D	0000	185

/opt/microchip/xc8/v1.34/sources/common/ftdiv.c estimated size: 185

../../../lib/timer.c
		_timer2_init   		CODE           	1DEB	0000	100

../../../lib/timer.c estimated size: 100

/opt/microchip/xc8/v1.34/sources/common/exp.c
		_exp           		CODE           	09A9	0000	486

/opt/microchip/xc8/v1.34/sources/common/exp.c estimated size: 486

/opt/microchip/xc8/v1.34/sources/common/lwdiv.c
		___lwdiv       		CODE           	1CBE	0000	63

/opt/microchip/xc8/v1.34/sources/common/lwdiv.c estimated size: 63

/opt/microchip/xc8/v1.34/sources/common/evalpoly.c
		_eval_poly     		CODE           	101C	0000	122

/opt/microchip/xc8/v1.34/sources/common/evalpoly.c estimated size: 122

/opt/microchip/xc8/v1.34/sources/common/Umul8.c
		___bmul        		CODE           	1B78	0000	20

/opt/microchip/xc8/v1.34/sources/common/Umul8.c estimated size: 20

/opt/microchip/xc8/v1.34/sources/common/fttol.c
		___fttol       		CODE           	1121	0000	143

/opt/microchip/xc8/v1.34/sources/common/fttol.c estimated size: 143

/opt/microchip/xc8/v1.34/sources/common/log.c
		_log           		CODE           	13C5	0000	207
		_log10         		CODE           	1C2E	0000	46

/opt/microchip/xc8/v1.34/sources/common/log.c estimated size: 253

